   1              		.syntax unified
   2              		.cpu cortex-r4
   3              		.fpu softvfp
   4              		.eabi_attribute 20, 1
   5              		.eabi_attribute 21, 1
   6              		.eabi_attribute 23, 3
   7              		.eabi_attribute 24, 1
   8              		.eabi_attribute 25, 1
   9              		.eabi_attribute 26, 1
  10              		.eabi_attribute 30, 4
  11              		.eabi_attribute 34, 1
  12              		.eabi_attribute 18, 4
  13              		.thumb
  14              		.file	"af_ae.cpp"
  15              		.text
  16              	.Ltext0:
  17              		.cfi_sections	.debug_frame
  18              		.section	.text._ZN5af_ae15pri_mipi2axi_cbEhmm.part.0,"ax",%progbits
  19              		.align	1
  20              		.thumb
  21              		.thumb_func
  23              	_ZN5af_ae15pri_mipi2axi_cbEhmm.part.0:
  24              	.LFB3814:
  25              		.file 1 "/home/tienluong/workspace/atlantis_fw/AsicFwS2/src/af_ae.cpp"
   1:/home/tienluong/workspace/atlantis_fw/AsicFwS2/src/af_ae.cpp **** /*******************************************************************************
   2:/home/tienluong/workspace/atlantis_fw/AsicFwS2/src/af_ae.cpp ****  * Copyright (c) 2016, The LightCo
   3:/home/tienluong/workspace/atlantis_fw/AsicFwS2/src/af_ae.cpp ****  * All rights reserved.
   4:/home/tienluong/workspace/atlantis_fw/AsicFwS2/src/af_ae.cpp ****  * Redistribution and use in source and binary forms, with or without
   5:/home/tienluong/workspace/atlantis_fw/AsicFwS2/src/af_ae.cpp ****  * modification, are strictly prohibited without prior permission
   6:/home/tienluong/workspace/atlantis_fw/AsicFwS2/src/af_ae.cpp ****  * of The LightCo.
   7:/home/tienluong/workspace/atlantis_fw/AsicFwS2/src/af_ae.cpp ****  *
   8:/home/tienluong/workspace/atlantis_fw/AsicFwS2/src/af_ae.cpp ****  * @file    af_ae.cpp
   9:/home/tienluong/workspace/atlantis_fw/AsicFwS2/src/af_ae.cpp ****  * @author  The LightCo
  10:/home/tienluong/workspace/atlantis_fw/AsicFwS2/src/af_ae.cpp ****  * @version V1.0.0
  11:/home/tienluong/workspace/atlantis_fw/AsicFwS2/src/af_ae.cpp ****  * @date    Sep-22-2016
  12:/home/tienluong/workspace/atlantis_fw/AsicFwS2/src/af_ae.cpp ****  * @brief   Implements auto-exposure and auto-focus
  13:/home/tienluong/workspace/atlantis_fw/AsicFwS2/src/af_ae.cpp ****  *
  14:/home/tienluong/workspace/atlantis_fw/AsicFwS2/src/af_ae.cpp ****  ******************************************************************************/
  15:/home/tienluong/workspace/atlantis_fw/AsicFwS2/src/af_ae.cpp **** 
  16:/home/tienluong/workspace/atlantis_fw/AsicFwS2/src/af_ae.cpp **** #include <cstring>
  17:/home/tienluong/workspace/atlantis_fw/AsicFwS2/src/af_ae.cpp **** #include <memory>
  18:/home/tienluong/workspace/atlantis_fw/AsicFwS2/src/af_ae.cpp **** #include "operator_new.h"
  19:/home/tienluong/workspace/atlantis_fw/AsicFwS2/src/af_ae.cpp **** #include "log.h"
  20:/home/tienluong/workspace/atlantis_fw/AsicFwS2/src/af_ae.cpp **** #include "i2cm.h"
  21:/home/tienluong/workspace/atlantis_fw/AsicFwS2/src/af_ae.cpp **** #include "board_config.h"
  22:/home/tienluong/workspace/atlantis_fw/AsicFwS2/src/af_ae.cpp **** #include "af_helper.h"
  23:/home/tienluong/workspace/atlantis_fw/AsicFwS2/src/af_ae.cpp **** #include "disparityfocus.h"
  24:/home/tienluong/workspace/atlantis_fw/AsicFwS2/src/af_ae.cpp **** #include "image_raw10.h"
  25:/home/tienluong/workspace/atlantis_fw/AsicFwS2/src/af_ae.cpp **** #include "lens_position_control.h"
  26:/home/tienluong/workspace/atlantis_fw/AsicFwS2/src/af_ae.cpp **** #include "af_roi_transfer.h"
  27:/home/tienluong/workspace/atlantis_fw/AsicFwS2/src/af_ae.cpp **** #include "calib_data_manager.h"
  28:/home/tienluong/workspace/atlantis_fw/AsicFwS2/src/af_ae.cpp **** #include "optical_zoom_manager.h"
  29:/home/tienluong/workspace/atlantis_fw/AsicFwS2/src/af_ae.cpp **** #include "hal_cache.h"
  30:/home/tienluong/workspace/atlantis_fw/AsicFwS2/src/af_ae.cpp **** #include "af_ae.h"
  31:/home/tienluong/workspace/atlantis_fw/AsicFwS2/src/af_ae.cpp **** 
  32:/home/tienluong/workspace/atlantis_fw/AsicFwS2/src/af_ae.cpp **** #define SLOGF_ID                SLOG_ID_AF
  33:/home/tienluong/workspace/atlantis_fw/AsicFwS2/src/af_ae.cpp **** 
  34:/home/tienluong/workspace/atlantis_fw/AsicFwS2/src/af_ae.cpp **** 
  35:/home/tienluong/workspace/atlantis_fw/AsicFwS2/src/af_ae.cpp **** extern "C" void pri_roi_mipi_callback(uint8_t iidx, uint32_t signal_irq,
  36:/home/tienluong/workspace/atlantis_fw/AsicFwS2/src/af_ae.cpp ****         uint32_t error_irq, void *user_data) {
  37:/home/tienluong/workspace/atlantis_fw/AsicFwS2/src/af_ae.cpp ****     static_cast<af_ae*>(user_data)->pri_mipi2axi_cb(iidx, signal_irq, error_irq);
  38:/home/tienluong/workspace/atlantis_fw/AsicFwS2/src/af_ae.cpp **** }
  39:/home/tienluong/workspace/atlantis_fw/AsicFwS2/src/af_ae.cpp **** 
  40:/home/tienluong/workspace/atlantis_fw/AsicFwS2/src/af_ae.cpp **** extern "C" void aux_roi_mipi_callback(uint8_t iidx, uint32_t signal_irq,
  41:/home/tienluong/workspace/atlantis_fw/AsicFwS2/src/af_ae.cpp ****         uint32_t error_irq, void *user_data) {
  42:/home/tienluong/workspace/atlantis_fw/AsicFwS2/src/af_ae.cpp ****     static_cast<af_ae*>(user_data)->aux_mipi2axi_cb(iidx, signal_irq, error_irq);
  43:/home/tienluong/workspace/atlantis_fw/AsicFwS2/src/af_ae.cpp **** }
  44:/home/tienluong/workspace/atlantis_fw/AsicFwS2/src/af_ae.cpp **** 
  45:/home/tienluong/workspace/atlantis_fw/AsicFwS2/src/af_ae.cpp **** extern "C" void execute_af_ae(void) {
  46:/home/tienluong/workspace/atlantis_fw/AsicFwS2/src/af_ae.cpp ****     roi_rectangle_t roi_rect;
  47:/home/tienluong/workspace/atlantis_fw/AsicFwS2/src/af_ae.cpp ****     std::memcpy(&roi_rect, light_system->settings->roi_af, sizeof(roi_rect));
  48:/home/tienluong/workspace/atlantis_fw/AsicFwS2/src/af_ae.cpp ****     std::int16_t left_x = roi_rect.left_x;
  49:/home/tienluong/workspace/atlantis_fw/AsicFwS2/src/af_ae.cpp ****     std::int16_t top_y = roi_rect.top_y;
  50:/home/tienluong/workspace/atlantis_fw/AsicFwS2/src/af_ae.cpp ****     std::uint16_t width = roi_rect.width;
  51:/home/tienluong/workspace/atlantis_fw/AsicFwS2/src/af_ae.cpp ****     std::uint16_t height = roi_rect.height;
  52:/home/tienluong/workspace/atlantis_fw/AsicFwS2/src/af_ae.cpp ****     rectangle pri_roi{left_x, top_y, width, height};
  53:/home/tienluong/workspace/atlantis_fw/AsicFwS2/src/af_ae.cpp ****     af_ae af;
  54:/home/tienluong/workspace/atlantis_fw/AsicFwS2/src/af_ae.cpp ****     af.run(pri_roi);
  55:/home/tienluong/workspace/atlantis_fw/AsicFwS2/src/af_ae.cpp **** }
  56:/home/tienluong/workspace/atlantis_fw/AsicFwS2/src/af_ae.cpp **** 
  57:/home/tienluong/workspace/atlantis_fw/AsicFwS2/src/af_ae.cpp **** namespace {
  58:/home/tienluong/workspace/atlantis_fw/AsicFwS2/src/af_ae.cpp **** #if (ASIC_NUM == ASIC1)
  59:/home/tienluong/workspace/atlantis_fw/AsicFwS2/src/af_ae.cpp ****     void lens_movement_done_cb(void* user_data, bool success, std::int16_t pos) {
  60:/home/tienluong/workspace/atlantis_fw/AsicFwS2/src/af_ae.cpp ****         xSemaphoreGive(*static_cast<SemaphoreHandle_t*>(user_data));
  61:/home/tienluong/workspace/atlantis_fw/AsicFwS2/src/af_ae.cpp ****     }
  62:/home/tienluong/workspace/atlantis_fw/AsicFwS2/src/af_ae.cpp **** #endif
  63:/home/tienluong/workspace/atlantis_fw/AsicFwS2/src/af_ae.cpp **** }
  64:/home/tienluong/workspace/atlantis_fw/AsicFwS2/src/af_ae.cpp **** 
  65:/home/tienluong/workspace/atlantis_fw/AsicFwS2/src/af_ae.cpp **** af_ae::af_ae() :
  66:/home/tienluong/workspace/atlantis_fw/AsicFwS2/src/af_ae.cpp ****     pri_capture_sem_{xSemaphoreCreateBinary()},
  67:/home/tienluong/workspace/atlantis_fw/AsicFwS2/src/af_ae.cpp ****     aux_capture_sem_{xSemaphoreCreateBinary()} {
  68:/home/tienluong/workspace/atlantis_fw/AsicFwS2/src/af_ae.cpp **** }
  69:/home/tienluong/workspace/atlantis_fw/AsicFwS2/src/af_ae.cpp **** 
  70:/home/tienluong/workspace/atlantis_fw/AsicFwS2/src/af_ae.cpp **** af_ae::~af_ae() {
  71:/home/tienluong/workspace/atlantis_fw/AsicFwS2/src/af_ae.cpp ****     vSemaphoreDelete(pri_capture_sem_);
  72:/home/tienluong/workspace/atlantis_fw/AsicFwS2/src/af_ae.cpp ****     vSemaphoreDelete(aux_capture_sem_);
  73:/home/tienluong/workspace/atlantis_fw/AsicFwS2/src/af_ae.cpp **** }
  74:/home/tienluong/workspace/atlantis_fw/AsicFwS2/src/af_ae.cpp **** 
  75:/home/tienluong/workspace/atlantis_fw/AsicFwS2/src/af_ae.cpp **** void af_ae::run(const rectangle& pri_roi) {
  76:/home/tienluong/workspace/atlantis_fw/AsicFwS2/src/af_ae.cpp ****     // Start moving mirrors to zoom position
  77:/home/tienluong/workspace/atlantis_fw/AsicFwS2/src/af_ae.cpp ****     optical_zoom_manager::instance().start_mirrors_move();
  78:/home/tienluong/workspace/atlantis_fw/AsicFwS2/src/af_ae.cpp **** 
  79:/home/tienluong/workspace/atlantis_fw/AsicFwS2/src/af_ae.cpp **** #if (ASIC_NUM == ASIC1)
  80:/home/tienluong/workspace/atlantis_fw/AsicFwS2/src/af_ae.cpp ****     float zoom_factor = light_system->settings->zoom_factor;
  81:/home/tienluong/workspace/atlantis_fw/AsicFwS2/src/af_ae.cpp ****     bool is_ab_mode = (zoom_factor < 2.5f);
  82:/home/tienluong/workspace/atlantis_fw/AsicFwS2/src/af_ae.cpp ****     // Start moving both camera modules to same focus position
  83:/home/tienluong/workspace/atlantis_fw/AsicFwS2/src/af_ae.cpp ****     cam_typedef_t* pcam_pri = idx_to_object(is_ab_mode ? 1 : 9); // A1 or B4
  84:/home/tienluong/workspace/atlantis_fw/AsicFwS2/src/af_ae.cpp ****     cam_typedef_t* pcam_aux = idx_to_object(5); // A5
  85:/home/tienluong/workspace/atlantis_fw/AsicFwS2/src/af_ae.cpp ****     lens_position_control lpc_pri(*pcam_pri);
  86:/home/tienluong/workspace/atlantis_fw/AsicFwS2/src/af_ae.cpp ****     lens_position_control lpc_aux(*pcam_aux);
  87:/home/tienluong/workspace/atlantis_fw/AsicFwS2/src/af_ae.cpp ****     std::uint32_t init_distance_mm = is_ab_mode ? 800 : 1450;
  88:/home/tienluong/workspace/atlantis_fw/AsicFwS2/src/af_ae.cpp ****     std::int16_t hc_pri = lpc_pri.get_hall_code(init_distance_mm, 300); // FIXME module temperature
  89:/home/tienluong/workspace/atlantis_fw/AsicFwS2/src/af_ae.cpp ****     std::int16_t hc_aux = lpc_aux.get_hall_code(init_distance_mm, 300); // FIXME module temperature
  90:/home/tienluong/workspace/atlantis_fw/AsicFwS2/src/af_ae.cpp ****     lpc_pri.start_move_lens(hc_pri, 10,
  91:/home/tienluong/workspace/atlantis_fw/AsicFwS2/src/af_ae.cpp ****             lens_position_control::move_done_callback_t{&lens_movement_done_cb, &pri_capture_sem_})
  92:/home/tienluong/workspace/atlantis_fw/AsicFwS2/src/af_ae.cpp ****     lpc_aux.start_move_lens(hc_aux, 10,
  93:/home/tienluong/workspace/atlantis_fw/AsicFwS2/src/af_ae.cpp ****             lens_position_control::move_done_callback_t{&lens_movement_done_cb, &aux_capture_sem_})
  94:/home/tienluong/workspace/atlantis_fw/AsicFwS2/src/af_ae.cpp **** 
  95:/home/tienluong/workspace/atlantis_fw/AsicFwS2/src/af_ae.cpp ****     // Find minimum capture rectangle needed from aux camera
  96:/home/tienluong/workspace/atlantis_fw/AsicFwS2/src/af_ae.cpp ****     ltaf::DisparityFocus df(calib_data_manager::instance().geometric_calib());
  97:/home/tienluong/workspace/atlantis_fw/AsicFwS2/src/af_ae.cpp **** 
  98:/home/tienluong/workspace/atlantis_fw/AsicFwS2/src/af_ae.cpp ****     std::uint16_t capture_mode = is_ab_mode ? 0 : 1;
  99:/home/tienluong/workspace/atlantis_fw/AsicFwS2/src/af_ae.cpp ****     std::uint16_t scale = 2; //1;
 100:/home/tienluong/workspace/atlantis_fw/AsicFwS2/src/af_ae.cpp ****     std::uint32_t resolution[2] = {X_3M_P2, Y_3M_P2}; //{X_13M, Y_13M};
 101:/home/tienluong/workspace/atlantis_fw/AsicFwS2/src/af_ae.cpp ****     SLOGF(SLOG_INFO, "Pri roi: left_x: %d, top_y: %d, width: %d, height: %d",
 102:/home/tienluong/workspace/atlantis_fw/AsicFwS2/src/af_ae.cpp ****             pri_roi.left_x(), pri_roi.top_y(), pri_roi.width(), pri_roi.height());
 103:/home/tienluong/workspace/atlantis_fw/AsicFwS2/src/af_ae.cpp ****     rectangle aux_capture_rect{df.computeAuxRectangle(pri_roi, capture_mode)};
 104:/home/tienluong/workspace/atlantis_fw/AsicFwS2/src/af_ae.cpp ****     SLOGF(SLOG_INFO, "Aux capture rectangle: left_x: %d, top_y: %d, width: %d, height: %d",
 105:/home/tienluong/workspace/atlantis_fw/AsicFwS2/src/af_ae.cpp ****             aux_capture_rect.left_x(), aux_capture_rect.top_y(), aux_capture_rect.width(), aux_capt
 106:/home/tienluong/workspace/atlantis_fw/AsicFwS2/src/af_ae.cpp **** 
 107:/home/tienluong/workspace/atlantis_fw/AsicFwS2/src/af_ae.cpp ****     // Choose exposure time and gain
 108:/home/tienluong/workspace/atlantis_fw/AsicFwS2/src/af_ae.cpp ****     std::uint64_t exposure_ns{0};
 109:/home/tienluong/workspace/atlantis_fw/AsicFwS2/src/af_ae.cpp ****     float gain{1.0f};
 110:/home/tienluong/workspace/atlantis_fw/AsicFwS2/src/af_ae.cpp ****     std::memcpy(&exposure_ns, pcam_pri->image->settings[UC_FOCAL_STACKING]->exposure, sizeof(exposu
 111:/home/tienluong/workspace/atlantis_fw/AsicFwS2/src/af_ae.cpp ****     std::memcpy(&gain, pcam_pri->image->settings[UC_FOCAL_STACKING]->sensitivity, sizeof(gain));
 112:/home/tienluong/workspace/atlantis_fw/AsicFwS2/src/af_ae.cpp ****     if (exposure_ns == 0) {
 113:/home/tienluong/workspace/atlantis_fw/AsicFwS2/src/af_ae.cpp ****         std::memcpy(&exposure_ns, pcam_pri->image->settings[UC_PREVIEW]->exposure, sizeof(exposure_
 114:/home/tienluong/workspace/atlantis_fw/AsicFwS2/src/af_ae.cpp ****         std::memcpy(&gain, pcam_pri->image->settings[UC_PREVIEW]->sensitivity, sizeof(gain));
 115:/home/tienluong/workspace/atlantis_fw/AsicFwS2/src/af_ae.cpp ****     }
 116:/home/tienluong/workspace/atlantis_fw/AsicFwS2/src/af_ae.cpp ****     if (exposure_ns == 0) {
 117:/home/tienluong/workspace/atlantis_fw/AsicFwS2/src/af_ae.cpp ****         exposure_ns = 30000000;
 118:/home/tienluong/workspace/atlantis_fw/AsicFwS2/src/af_ae.cpp ****         gain = 1.0f;
 119:/home/tienluong/workspace/atlantis_fw/AsicFwS2/src/af_ae.cpp ****     }
 120:/home/tienluong/workspace/atlantis_fw/AsicFwS2/src/af_ae.cpp ****     SLOGF(SLOG_DEBUG, "Selected gain/exposure_ns for disparity: %f/%llu", gain, (unsigned long long
 121:/home/tienluong/workspace/atlantis_fw/AsicFwS2/src/af_ae.cpp ****     // Request capture for pri
 122:/home/tienluong/workspace/atlantis_fw/AsicFwS2/src/af_ae.cpp ****     af_setting_t afs_pri;
 123:/home/tienluong/workspace/atlantis_fw/AsicFwS2/src/af_ae.cpp ****     afs_pri.cam = pcam_pri;
 124:/home/tienluong/workspace/atlantis_fw/AsicFwS2/src/af_ae.cpp ****     afs_pri.flip_mode = FLIP_MODE_CAPTURE;
 125:/home/tienluong/workspace/atlantis_fw/AsicFwS2/src/af_ae.cpp ****     flip_mode_t flip_mode_pri{get_af_flip_mode(afs_pri.flip_mode, afs_pri.cam->image)};
 126:/home/tienluong/workspace/atlantis_fw/AsicFwS2/src/af_ae.cpp ****     rectangle abs_pri_capture_rect{calib_rectangle_to_abs(pri_roi, flip_mode_pri).minimum_capture_r
 127:/home/tienluong/workspace/atlantis_fw/AsicFwS2/src/af_ae.cpp ****     afs_pri.mipi_rx_chid = afs_pri.cam->info.ch - 1;
 128:/home/tienluong/workspace/atlantis_fw/AsicFwS2/src/af_ae.cpp ****     afs_pri.x_position = abs_pri_capture_rect.left_x();
 129:/home/tienluong/workspace/atlantis_fw/AsicFwS2/src/af_ae.cpp ****     afs_pri.y_position = abs_pri_capture_rect.top_y();
 130:/home/tienluong/workspace/atlantis_fw/AsicFwS2/src/af_ae.cpp ****     afs_pri.x_width = abs_pri_capture_rect.width();
 131:/home/tienluong/workspace/atlantis_fw/AsicFwS2/src/af_ae.cpp ****     afs_pri.y_width = abs_pri_capture_rect.height();
 132:/home/tienluong/workspace/atlantis_fw/AsicFwS2/src/af_ae.cpp ****     // Allocate DDR memory for pri roi capture
 133:/home/tienluong/workspace/atlantis_fw/AsicFwS2/src/af_ae.cpp ****     std::size_t pri_roi_img_size = abs_pri_capture_rect.image_size(scale);
 134:/home/tienluong/workspace/atlantis_fw/AsicFwS2/src/af_ae.cpp ****     std::unique_ptr<char[]> pri_roi_img_ptr{new(Heap::DDR) char[pri_roi_img_size]};
 135:/home/tienluong/workspace/atlantis_fw/AsicFwS2/src/af_ae.cpp ****     SLOGF(SLOG_DEBUG, "Pri capture image addr: %x, size: %d", (int)pri_roi_img_ptr.get(), (int)pri_
 136:/home/tienluong/workspace/atlantis_fw/AsicFwS2/src/af_ae.cpp ****     afs_pri.destination = reinterpret_cast<std::uint32_t>(pri_roi_img_ptr.get());
 137:/home/tienluong/workspace/atlantis_fw/AsicFwS2/src/af_ae.cpp ****     afs_pri.af_cb = &pri_roi_mipi_callback;
 138:/home/tienluong/workspace/atlantis_fw/AsicFwS2/src/af_ae.cpp ****     afs_pri.cb_user_data = this;
 139:/home/tienluong/workspace/atlantis_fw/AsicFwS2/src/af_ae.cpp ****     // Exposure, fps, resolution, sensitivity settings...
 140:/home/tienluong/workspace/atlantis_fw/AsicFwS2/src/af_ae.cpp ****     std::memcpy(afs_pri.cam_settings.exposure, &exposure_ns, sizeof(afs_pri.cam_settings.exposure))
 141:/home/tienluong/workspace/atlantis_fw/AsicFwS2/src/af_ae.cpp ****     std::uint16_t fps = 30;
 142:/home/tienluong/workspace/atlantis_fw/AsicFwS2/src/af_ae.cpp ****     std::memcpy(afs_pri.cam_settings.fps, &fps, sizeof(afs_pri.cam_settings.fps));
 143:/home/tienluong/workspace/atlantis_fw/AsicFwS2/src/af_ae.cpp ****     std::memcpy(afs_pri.cam_settings.resolution, &resolution, sizeof(afs_pri.cam_settings.resolutio
 144:/home/tienluong/workspace/atlantis_fw/AsicFwS2/src/af_ae.cpp ****     afs_pri.scale = scale;
 145:/home/tienluong/workspace/atlantis_fw/AsicFwS2/src/af_ae.cpp ****     std::memcpy(afs_pri.cam_settings.sensitivity, &gain, sizeof(afs_pri.cam_settings.sensitivity));
 146:/home/tienluong/workspace/atlantis_fw/AsicFwS2/src/af_ae.cpp ****     // Configure pri sensor for captures
 147:/home/tienluong/workspace/atlantis_fw/AsicFwS2/src/af_ae.cpp ****     af_configure_sensor_stream(&afs_pri, false);
 148:/home/tienluong/workspace/atlantis_fw/AsicFwS2/src/af_ae.cpp **** 
 149:/home/tienluong/workspace/atlantis_fw/AsicFwS2/src/af_ae.cpp ****     af_setting_t afs_aux;
 150:/home/tienluong/workspace/atlantis_fw/AsicFwS2/src/af_ae.cpp ****     afs_aux.cam = pcam_aux;
 151:/home/tienluong/workspace/atlantis_fw/AsicFwS2/src/af_ae.cpp ****     afs_aux.flip_mode = FLIP_MODE_CAPTURE;
 152:/home/tienluong/workspace/atlantis_fw/AsicFwS2/src/af_ae.cpp ****     flip_mode_t flip_mode_aux{get_af_flip_mode(afs_aux.flip_mode, afs_aux.cam->image)};
 153:/home/tienluong/workspace/atlantis_fw/AsicFwS2/src/af_ae.cpp ****     rectangle abs_aux_capture_rect{calib_rectangle_to_abs(aux_capture_rect, flip_mode_aux).minimum_
 154:/home/tienluong/workspace/atlantis_fw/AsicFwS2/src/af_ae.cpp ****     aux_capture_rect = abs_rectangle_to_calib(abs_aux_capture_rect, flip_mode_aux);
 155:/home/tienluong/workspace/atlantis_fw/AsicFwS2/src/af_ae.cpp ****     SLOGF(SLOG_INFO, "Abs aux capture rectangle: left_x: %d, top_y: %d, width: %d, height: %d",
 156:/home/tienluong/workspace/atlantis_fw/AsicFwS2/src/af_ae.cpp ****             abs_aux_capture_rect.left_x(), abs_aux_capture_rect.top_y(), abs_aux_capture_rect.width
 157:/home/tienluong/workspace/atlantis_fw/AsicFwS2/src/af_ae.cpp ****     SLOGF(SLOG_INFO, "Updated aux capture rectangle: left_x: %d, top_y: %d, width: %d, height: %d",
 158:/home/tienluong/workspace/atlantis_fw/AsicFwS2/src/af_ae.cpp ****             aux_capture_rect.left_x(), aux_capture_rect.top_y(), aux_capture_rect.width(), aux_capt
 159:/home/tienluong/workspace/atlantis_fw/AsicFwS2/src/af_ae.cpp ****     afs_aux.mipi_rx_chid = afs_aux.cam->info.ch - 1;
 160:/home/tienluong/workspace/atlantis_fw/AsicFwS2/src/af_ae.cpp ****     afs_aux.x_position = abs_aux_capture_rect.left_x();
 161:/home/tienluong/workspace/atlantis_fw/AsicFwS2/src/af_ae.cpp ****     afs_aux.y_position = abs_aux_capture_rect.top_y();
 162:/home/tienluong/workspace/atlantis_fw/AsicFwS2/src/af_ae.cpp ****     afs_aux.x_width = abs_aux_capture_rect.width();
 163:/home/tienluong/workspace/atlantis_fw/AsicFwS2/src/af_ae.cpp ****     afs_aux.y_width = abs_aux_capture_rect.height();
 164:/home/tienluong/workspace/atlantis_fw/AsicFwS2/src/af_ae.cpp ****     // Allocate DDR memory for aux roi capture
 165:/home/tienluong/workspace/atlantis_fw/AsicFwS2/src/af_ae.cpp ****     std::size_t aux_roi_img_size = aux_capture_rect.image_size(scale);
 166:/home/tienluong/workspace/atlantis_fw/AsicFwS2/src/af_ae.cpp ****     std::unique_ptr<char[]> aux_roi_img_ptr{new(Heap::DDR) char[aux_roi_img_size]};
 167:/home/tienluong/workspace/atlantis_fw/AsicFwS2/src/af_ae.cpp ****     SLOGF(SLOG_DEBUG, "Aux capture image addr: %x, size: %d", (int)aux_roi_img_ptr.get(), (int)aux_
 168:/home/tienluong/workspace/atlantis_fw/AsicFwS2/src/af_ae.cpp ****     afs_aux.destination = reinterpret_cast<std::uint32_t>(aux_roi_img_ptr.get());
 169:/home/tienluong/workspace/atlantis_fw/AsicFwS2/src/af_ae.cpp ****     afs_aux.af_cb = &aux_roi_mipi_callback;
 170:/home/tienluong/workspace/atlantis_fw/AsicFwS2/src/af_ae.cpp ****     afs_aux.cb_user_data = this;
 171:/home/tienluong/workspace/atlantis_fw/AsicFwS2/src/af_ae.cpp ****     afs_aux.cam_settings = afs_pri.cam_settings;
 172:/home/tienluong/workspace/atlantis_fw/AsicFwS2/src/af_ae.cpp ****     afs_aux.scale = afs_pri.scale;
 173:/home/tienluong/workspace/atlantis_fw/AsicFwS2/src/af_ae.cpp ****     // Configure pri sensor for captures
 174:/home/tienluong/workspace/atlantis_fw/AsicFwS2/src/af_ae.cpp ****     af_configure_sensor_stream(&afs_aux, false);
 175:/home/tienluong/workspace/atlantis_fw/AsicFwS2/src/af_ae.cpp **** 
 176:/home/tienluong/workspace/atlantis_fw/AsicFwS2/src/af_ae.cpp ****     // Wait for lens moves done before starting capture
 177:/home/tienluong/workspace/atlantis_fw/AsicFwS2/src/af_ae.cpp ****     xSemaphoreTake(pri_capture_sem_, portMAX_DELAY);
 178:/home/tienluong/workspace/atlantis_fw/AsicFwS2/src/af_ae.cpp ****     xSemaphoreTake(aux_capture_sem_, portMAX_DELAY);
 179:/home/tienluong/workspace/atlantis_fw/AsicFwS2/src/af_ae.cpp ****     // Trigger captures
 180:/home/tienluong/workspace/atlantis_fw/AsicFwS2/src/af_ae.cpp ****     trigger_sensor(&afs_pri);
 181:/home/tienluong/workspace/atlantis_fw/AsicFwS2/src/af_ae.cpp ****     trigger_sensor(&afs_aux);
 182:/home/tienluong/workspace/atlantis_fw/AsicFwS2/src/af_ae.cpp ****     // Wait for captures done
 183:/home/tienluong/workspace/atlantis_fw/AsicFwS2/src/af_ae.cpp ****     xSemaphoreTake(pri_capture_sem_, portMAX_DELAY);
 184:/home/tienluong/workspace/atlantis_fw/AsicFwS2/src/af_ae.cpp ****     xSemaphoreTake(aux_capture_sem_, portMAX_DELAY);
 185:/home/tienluong/workspace/atlantis_fw/AsicFwS2/src/af_ae.cpp **** 
 186:/home/tienluong/workspace/atlantis_fw/AsicFwS2/src/af_ae.cpp ****     SLOGF(SLOG_INFO, "Both images captured, will compute depth");
 187:/home/tienluong/workspace/atlantis_fw/AsicFwS2/src/af_ae.cpp **** 
 188:/home/tienluong/workspace/atlantis_fw/AsicFwS2/src/af_ae.cpp ****     // Invalidate cache to ensure images are read from DDR
 189:/home/tienluong/workspace/atlantis_fw/AsicFwS2/src/af_ae.cpp ****     invalidate_cache(afs_pri.destination, pri_roi_img_size);
 190:/home/tienluong/workspace/atlantis_fw/AsicFwS2/src/af_ae.cpp ****     invalidate_cache(afs_aux.destination, aux_roi_img_size);
 191:/home/tienluong/workspace/atlantis_fw/AsicFwS2/src/af_ae.cpp **** 
 192:/home/tienluong/workspace/atlantis_fw/AsicFwS2/src/af_ae.cpp ****     // Compute depth
 193:/home/tienluong/workspace/atlantis_fw/AsicFwS2/src/af_ae.cpp ****     rectangle pri_capture_rect{abs_rectangle_to_calib(abs_pri_capture_rect, flip_mode_pri)};
 194:/home/tienluong/workspace/atlantis_fw/AsicFwS2/src/af_ae.cpp ****     rectangle aux_roi;
 195:/home/tienluong/workspace/atlantis_fw/AsicFwS2/src/af_ae.cpp ****     float depth = df.computeDepth(pri_roi_img_ptr.get(), pri_capture_rect, pri_roi,
 196:/home/tienluong/workspace/atlantis_fw/AsicFwS2/src/af_ae.cpp ****                                   aux_roi_img_ptr.get(), aux_capture_rect, capture_mode, scale, &au
 197:/home/tienluong/workspace/atlantis_fw/AsicFwS2/src/af_ae.cpp ****     SLOGF(SLOG_INFO, "Computed depth: %f", depth);
 198:/home/tienluong/workspace/atlantis_fw/AsicFwS2/src/af_ae.cpp **** 
 199:/home/tienluong/workspace/atlantis_fw/AsicFwS2/src/af_ae.cpp ****     SLOGF(SLOG_DEBUG, "Aux roi: left_x: %d, top_y: %d, width: %d, height: %d",
 200:/home/tienluong/workspace/atlantis_fw/AsicFwS2/src/af_ae.cpp ****             aux_roi.left_x(), aux_roi.top_y(), aux_roi.width(), aux_roi.height());
 201:/home/tienluong/workspace/atlantis_fw/AsicFwS2/src/af_ae.cpp **** 
 202:/home/tienluong/workspace/atlantis_fw/AsicFwS2/src/af_ae.cpp **** #if 0
 203:/home/tienluong/workspace/atlantis_fw/AsicFwS2/src/af_ae.cpp ****     SLOGF(SLOG_DEBUG, "Primary roi:");
 204:/home/tienluong/workspace/atlantis_fw/AsicFwS2/src/af_ae.cpp ****     debug_print_image(pri_roi_img_ptr.get(), pri_capture_rect, pri_roi, flip_mode_pri, scale);
 205:/home/tienluong/workspace/atlantis_fw/AsicFwS2/src/af_ae.cpp **** 
 206:/home/tienluong/workspace/atlantis_fw/AsicFwS2/src/af_ae.cpp ****     SLOGF(SLOG_DEBUG, "Aux capture:");
 207:/home/tienluong/workspace/atlantis_fw/AsicFwS2/src/af_ae.cpp ****     debug_print_image(aux_roi_img_ptr.get(), aux_capture_rect, aux_capture_rect, flip_mode_aux, sca
 208:/home/tienluong/workspace/atlantis_fw/AsicFwS2/src/af_ae.cpp **** 
 209:/home/tienluong/workspace/atlantis_fw/AsicFwS2/src/af_ae.cpp ****     SLOGF(SLOG_INFO, "Aux roi:", depth);
 210:/home/tienluong/workspace/atlantis_fw/AsicFwS2/src/af_ae.cpp ****     debug_print_image(aux_roi_img_ptr.get(), aux_capture_rect, aux_roi, flip_mode_aux, scale);
 211:/home/tienluong/workspace/atlantis_fw/AsicFwS2/src/af_ae.cpp **** #endif
 212:/home/tienluong/workspace/atlantis_fw/AsicFwS2/src/af_ae.cpp **** 
 213:/home/tienluong/workspace/atlantis_fw/AsicFwS2/src/af_ae.cpp ****     depth = std::min(depth, 65535.0f);
 214:/home/tienluong/workspace/atlantis_fw/AsicFwS2/src/af_ae.cpp ****     depth = std::max(depth, 100.0f);
 215:/home/tienluong/workspace/atlantis_fw/AsicFwS2/src/af_ae.cpp ****     std::uint32_t distance_mm = depth;
 216:/home/tienluong/workspace/atlantis_fw/AsicFwS2/src/af_ae.cpp ****     std::uint8_t ref_mod_idx = 1; // A1
 217:/home/tienluong/workspace/atlantis_fw/AsicFwS2/src/af_ae.cpp ****     roi_rectangle_t pri_roi_r{pri_roi.left_x(), pri_roi.top_y(), pri_roi.width(), pri_roi.height()}
 218:/home/tienluong/workspace/atlantis_fw/AsicFwS2/src/af_ae.cpp ****     light_system->settings->roi_transfer.distance_mm = distance_mm;
 219:/home/tienluong/workspace/atlantis_fw/AsicFwS2/src/af_ae.cpp ****     light_system->settings->roi_transfer.ref_mod_idx = ref_mod_idx;
 220:/home/tienluong/workspace/atlantis_fw/AsicFwS2/src/af_ae.cpp ****     light_system->settings->roi_transfer.ref_mod_roi = pri_roi_r;
 221:/home/tienluong/workspace/atlantis_fw/AsicFwS2/src/af_ae.cpp **** 
 222:/home/tienluong/workspace/atlantis_fw/AsicFwS2/src/af_ae.cpp ****     // Send command to transfer ROI
 223:/home/tienluong/workspace/atlantis_fw/AsicFwS2/src/af_ae.cpp ****     std::uint32_t m_bitmask;
 224:/home/tienluong/workspace/atlantis_fw/AsicFwS2/src/af_ae.cpp ****     std::size_t num_cam_transfer;
 225:/home/tienluong/workspace/atlantis_fw/AsicFwS2/src/af_ae.cpp ****     constexpr std::size_t max_num_cam_transfer = 12;
 226:/home/tienluong/workspace/atlantis_fw/AsicFwS2/src/af_ae.cpp ****     if (is_ab_mode) {
 227:/home/tienluong/workspace/atlantis_fw/AsicFwS2/src/af_ae.cpp ****         // Transfer ROI to As, Bs and C5
 228:/home/tienluong/workspace/atlantis_fw/AsicFwS2/src/af_ae.cpp ****         m_bitmask = 0x87fe;
 229:/home/tienluong/workspace/atlantis_fw/AsicFwS2/src/af_ae.cpp ****         num_cam_transfer = 11;
 230:/home/tienluong/workspace/atlantis_fw/AsicFwS2/src/af_ae.cpp ****     } else {
 231:/home/tienluong/workspace/atlantis_fw/AsicFwS2/src/af_ae.cpp ****         // Transfer ROI to A1, all Bs and all Cs
 232:/home/tienluong/workspace/atlantis_fw/AsicFwS2/src/af_ae.cpp ****         m_bitmask = 0x1ffc2;
 233:/home/tienluong/workspace/atlantis_fw/AsicFwS2/src/af_ae.cpp ****         num_cam_transfer = 12;
 234:/home/tienluong/workspace/atlantis_fw/AsicFwS2/src/af_ae.cpp ****     }
 235:/home/tienluong/workspace/atlantis_fw/AsicFwS2/src/af_ae.cpp ****     constexpr std::size_t roi_transfer_fixed_size = 7;
 236:/home/tienluong/workspace/atlantis_fw/AsicFwS2/src/af_ae.cpp ****     constexpr std::size_t roi_transfer_var_size = 13;
 237:/home/tienluong/workspace/atlantis_fw/AsicFwS2/src/af_ae.cpp ****     lcc_cmd_info_t cmd;
 238:/home/tienluong/workspace/atlantis_fw/AsicFwS2/src/af_ae.cpp ****     cmd.word = LCC_CMD_CAM_ROI_TRANSFER;
 239:/home/tienluong/workspace/atlantis_fw/AsicFwS2/src/af_ae.cpp ****     std::uint8_t roi_transfer_msg[roi_transfer_fixed_size + max_num_cam_transfer * roi_transfer_var
 240:/home/tienluong/workspace/atlantis_fw/AsicFwS2/src/af_ae.cpp ****     roi_transfer_msg[0] = 0;
 241:/home/tienluong/workspace/atlantis_fw/AsicFwS2/src/af_ae.cpp ****     roi_transfer_msg[1] = 0;
 242:/home/tienluong/workspace/atlantis_fw/AsicFwS2/src/af_ae.cpp ****     roi_transfer_msg[2] = cmd.cmd;
 243:/home/tienluong/workspace/atlantis_fw/AsicFwS2/src/af_ae.cpp ****     roi_transfer_msg[3] = cmd.base;
 244:/home/tienluong/workspace/atlantis_fw/AsicFwS2/src/af_ae.cpp ****     roi_transfer_msg[4] = m_bitmask & 0xff;
 245:/home/tienluong/workspace/atlantis_fw/AsicFwS2/src/af_ae.cpp ****     roi_transfer_msg[5] = (m_bitmask >> 8) & 0xff;
 246:/home/tienluong/workspace/atlantis_fw/AsicFwS2/src/af_ae.cpp ****     roi_transfer_msg[6] = (m_bitmask >> 16) & 0xff;
 247:/home/tienluong/workspace/atlantis_fw/AsicFwS2/src/af_ae.cpp ****     std::memcpy(roi_transfer_msg + 7, &distance_mm, 4);
 248:/home/tienluong/workspace/atlantis_fw/AsicFwS2/src/af_ae.cpp ****     roi_transfer_msg[11] = ref_mod_idx;    // reference module A1
 249:/home/tienluong/workspace/atlantis_fw/AsicFwS2/src/af_ae.cpp ****     std::memcpy(roi_transfer_msg + 12, &pri_roi_r, sizeof(pri_roi_r));
 250:/home/tienluong/workspace/atlantis_fw/AsicFwS2/src/af_ae.cpp **** 
 251:/home/tienluong/workspace/atlantis_fw/AsicFwS2/src/af_ae.cpp ****     for (std::size_t i = 1; i < num_cam_transfer; ++i) {
 252:/home/tienluong/workspace/atlantis_fw/AsicFwS2/src/af_ae.cpp ****         std::memcpy(roi_transfer_msg + roi_transfer_fixed_size + roi_transfer_var_size*i,
 253:/home/tienluong/workspace/atlantis_fw/AsicFwS2/src/af_ae.cpp ****                 roi_transfer_msg + roi_transfer_fixed_size, roi_transfer_var_size);
 254:/home/tienluong/workspace/atlantis_fw/AsicFwS2/src/af_ae.cpp ****     }
 255:/home/tienluong/workspace/atlantis_fw/AsicFwS2/src/af_ae.cpp ****     const std::size_t roi_transfer_msg_size = roi_transfer_fixed_size + num_cam_transfer * roi_tran
 256:/home/tienluong/workspace/atlantis_fw/AsicFwS2/src/af_ae.cpp ****     i2cm.transceiver(I2C_FORWARD_ASIC2_CHANNEL, I2C_FORWARD_SLAVEADDR, roi_transfer_msg, roi_transf
 257:/home/tienluong/workspace/atlantis_fw/AsicFwS2/src/af_ae.cpp ****     i2cm.transceiver(I2C_FORWARD_ASIC3_CHANNEL, I2C_FORWARD_SLAVEADDR, roi_transfer_msg, roi_transf
 258:/home/tienluong/workspace/atlantis_fw/AsicFwS2/src/af_ae.cpp **** 
 259:/home/tienluong/workspace/atlantis_fw/AsicFwS2/src/af_ae.cpp ****     m_bitmask &= light_system->m_bitmask_all;
 260:/home/tienluong/workspace/atlantis_fw/AsicFwS2/src/af_ae.cpp ****     std::uint32_t cam_channel_bitmask = 0;
 261:/home/tienluong/workspace/atlantis_fw/AsicFwS2/src/af_ae.cpp ****     while (m_bitmask != 0) {
 262:/home/tienluong/workspace/atlantis_fw/AsicFwS2/src/af_ae.cpp ****         int cam_idx = __builtin_ctz(m_bitmask);
 263:/home/tienluong/workspace/atlantis_fw/AsicFwS2/src/af_ae.cpp ****         m_bitmask &= ~(1 << cam_idx);
 264:/home/tienluong/workspace/atlantis_fw/AsicFwS2/src/af_ae.cpp ****         std::uint32_t ch = idx_to_object(cam_idx)->info.ch - 1;
 265:/home/tienluong/workspace/atlantis_fw/AsicFwS2/src/af_ae.cpp ****         cam_channel_bitmask |= 1 << ch;
 266:/home/tienluong/workspace/atlantis_fw/AsicFwS2/src/af_ae.cpp ****     }
 267:/home/tienluong/workspace/atlantis_fw/AsicFwS2/src/af_ae.cpp ****     af_roi_transfer_execute(cam_channel_bitmask);
 268:/home/tienluong/workspace/atlantis_fw/AsicFwS2/src/af_ae.cpp **** #endif
 269:/home/tienluong/workspace/atlantis_fw/AsicFwS2/src/af_ae.cpp **** }
 270:/home/tienluong/workspace/atlantis_fw/AsicFwS2/src/af_ae.cpp **** 
 271:/home/tienluong/workspace/atlantis_fw/AsicFwS2/src/af_ae.cpp **** void af_ae::pri_mipi2axi_cb(uint8_t iidx, uint32_t signal_irq, uint32_t error_irq) {
  26              		.loc 1 271 0
  27              		.cfi_startproc
  28              		@ args = 0, pretend = 0, frame = 8
  29              		@ frame_needed = 0, uses_anonymous_args = 0
  30              	.LVL0:
  31 0000 07B5     		push	{r0, r1, r2, lr}
  32              	.LCFI0:
  33              		.cfi_def_cfa_offset 16
  34              		.cfi_offset 14, -4
  35              	.LBB130:
 272:/home/tienluong/workspace/atlantis_fw/AsicFwS2/src/af_ae.cpp ****     if ((signal_irq & R1_VC0_FRAME_END) != 0) {
 273:/home/tienluong/workspace/atlantis_fw/AsicFwS2/src/af_ae.cpp ****         BaseType_t higher_pri_task_woken = pdFALSE;
  36              		.loc 1 273 0
  37 0002 0023     		movs	r3, #0
  38 0004 02A9     		add	r1, sp, #8
 274:/home/tienluong/workspace/atlantis_fw/AsicFwS2/src/af_ae.cpp ****         xSemaphoreGiveFromISR(pri_capture_sem_, &higher_pri_task_woken);
  39              		.loc 1 274 0
  40 0006 0068     		ldr	r0, [r0]
  41              	.LVL1:
 273:/home/tienluong/workspace/atlantis_fw/AsicFwS2/src/af_ae.cpp ****         xSemaphoreGiveFromISR(pri_capture_sem_, &higher_pri_task_woken);
  42              		.loc 1 273 0
  43 0008 41F8043D 		str	r3, [r1, #-4]!
  44              		.loc 1 274 0
  45 000c 044B     		ldr	r3, .L7
  46 000e 9847     		blx	r3
  47              	.LVL2:
  48              	.LBB131:
 275:/home/tienluong/workspace/atlantis_fw/AsicFwS2/src/af_ae.cpp ****         portEND_SWITCHING_ISR(higher_pri_task_woken);
  49              		.loc 1 275 0
  50 0010 019B     		ldr	r3, [sp, #4]
  51 0012 13B1     		cbz	r3, .L1
  52 0014 0122     		movs	r2, #1
  53 0016 034B     		ldr	r3, .L7+4
  54 0018 1A60     		str	r2, [r3]
  55              	.L1:
  56              	.LBE131:
  57              	.LBE130:
 276:/home/tienluong/workspace/atlantis_fw/AsicFwS2/src/af_ae.cpp ****     }
 277:/home/tienluong/workspace/atlantis_fw/AsicFwS2/src/af_ae.cpp **** }
  58              		.loc 1 277 0
  59 001a 03B0     		add	sp, sp, #12
  60              	.LCFI1:
  61              		.cfi_def_cfa_offset 4
  62              		@ sp needed
  63 001c 5DF804FB 		ldr	pc, [sp], #4
  64              	.L8:
  65              		.align	2
  66              	.L7:
  67 0020 00000000 		.word	xQueueGiveFromISR
  68 0024 00000000 		.word	ulPortYieldRequired
  69              		.cfi_endproc
  70              	.LFE3814:
  72              		.section	.text._ZN5af_ae15aux_mipi2axi_cbEhmm.part.1,"ax",%progbits
  73              		.align	1
  74              		.thumb
  75              		.thumb_func
  77              	_ZN5af_ae15aux_mipi2axi_cbEhmm.part.1:
  78              	.LFB3815:
 278:/home/tienluong/workspace/atlantis_fw/AsicFwS2/src/af_ae.cpp **** 
 279:/home/tienluong/workspace/atlantis_fw/AsicFwS2/src/af_ae.cpp **** void af_ae::aux_mipi2axi_cb(uint8_t iidx, uint32_t signal_irq, uint32_t error_irq) {
  79              		.loc 1 279 0
  80              		.cfi_startproc
  81              		@ args = 0, pretend = 0, frame = 8
  82              		@ frame_needed = 0, uses_anonymous_args = 0
  83              	.LVL3:
  84 0000 07B5     		push	{r0, r1, r2, lr}
  85              	.LCFI2:
  86              		.cfi_def_cfa_offset 16
  87              		.cfi_offset 14, -4
  88              	.LBB132:
 280:/home/tienluong/workspace/atlantis_fw/AsicFwS2/src/af_ae.cpp ****     if ((signal_irq & R1_VC0_FRAME_END) != 0) {
 281:/home/tienluong/workspace/atlantis_fw/AsicFwS2/src/af_ae.cpp ****         BaseType_t higher_pri_task_woken = pdFALSE;
  89              		.loc 1 281 0
  90 0002 0023     		movs	r3, #0
  91 0004 02A9     		add	r1, sp, #8
 282:/home/tienluong/workspace/atlantis_fw/AsicFwS2/src/af_ae.cpp ****         xSemaphoreGiveFromISR(aux_capture_sem_, &higher_pri_task_woken);
  92              		.loc 1 282 0
  93 0006 4068     		ldr	r0, [r0, #4]
  94              	.LVL4:
 281:/home/tienluong/workspace/atlantis_fw/AsicFwS2/src/af_ae.cpp ****         xSemaphoreGiveFromISR(aux_capture_sem_, &higher_pri_task_woken);
  95              		.loc 1 281 0
  96 0008 41F8043D 		str	r3, [r1, #-4]!
  97              		.loc 1 282 0
  98 000c 044B     		ldr	r3, .L14
  99 000e 9847     		blx	r3
 100              	.LVL5:
 101              	.LBB133:
 283:/home/tienluong/workspace/atlantis_fw/AsicFwS2/src/af_ae.cpp ****         portEND_SWITCHING_ISR(higher_pri_task_woken);
 102              		.loc 1 283 0
 103 0010 019B     		ldr	r3, [sp, #4]
 104 0012 13B1     		cbz	r3, .L9
 105 0014 0122     		movs	r2, #1
 106 0016 034B     		ldr	r3, .L14+4
 107 0018 1A60     		str	r2, [r3]
 108              	.L9:
 109              	.LBE133:
 110              	.LBE132:
 284:/home/tienluong/workspace/atlantis_fw/AsicFwS2/src/af_ae.cpp ****     }
 285:/home/tienluong/workspace/atlantis_fw/AsicFwS2/src/af_ae.cpp **** }
 111              		.loc 1 285 0
 112 001a 03B0     		add	sp, sp, #12
 113              	.LCFI3:
 114              		.cfi_def_cfa_offset 4
 115              		@ sp needed
 116 001c 5DF804FB 		ldr	pc, [sp], #4
 117              	.L15:
 118              		.align	2
 119              	.L14:
 120 0020 00000000 		.word	xQueueGiveFromISR
 121 0024 00000000 		.word	ulPortYieldRequired
 122              		.cfi_endproc
 123              	.LFE3815:
 125              		.global	__aeabi_fmul
 126              		.global	__aeabi_fsub
 127              		.global	__aeabi_fdiv
 128              		.section	.text._ZNK4ltaf20SquareMatrixInverterIfLi2EE3runEPf.isra.2,"ax",%progbits
 129              		.align	1
 130              		.thumb
 131              		.thumb_func
 133              	_ZNK4ltaf20SquareMatrixInverterIfLi2EE3runEPf.isra.2:
 134              	.LFB3816:
 135              		.file 2 "/home/tienluong/workspace/atlantis_fw/AsicFwS2/include/matrix.h"
   1:/home/tienluong/workspace/atlantis_fw/AsicFwS2/include/matrix.h **** // we want to have support for the following:
   2:/home/tienluong/workspace/atlantis_fw/AsicFwS2/include/matrix.h **** // matrix3x3f, matrix4x4f, vec2f, vec3f, vec4f
   3:/home/tienluong/workspace/atlantis_fw/AsicFwS2/include/matrix.h **** // plus, minus, multiplication, inverse, transpose
   4:/home/tienluong/workspace/atlantis_fw/AsicFwS2/include/matrix.h **** 
   5:/home/tienluong/workspace/atlantis_fw/AsicFwS2/include/matrix.h **** #ifndef __MATRIX_H__
   6:/home/tienluong/workspace/atlantis_fw/AsicFwS2/include/matrix.h **** #define __MATRIX_H__
   7:/home/tienluong/workspace/atlantis_fw/AsicFwS2/include/matrix.h **** 
   8:/home/tienluong/workspace/atlantis_fw/AsicFwS2/include/matrix.h **** #ifdef __cplusplus
   9:/home/tienluong/workspace/atlantis_fw/AsicFwS2/include/matrix.h **** 
  10:/home/tienluong/workspace/atlantis_fw/AsicFwS2/include/matrix.h **** #include <cstdlib>
  11:/home/tienluong/workspace/atlantis_fw/AsicFwS2/include/matrix.h **** #include <algorithm> // has compile problem...
  12:/home/tienluong/workspace/atlantis_fw/AsicFwS2/include/matrix.h **** #include <cmath>
  13:/home/tienluong/workspace/atlantis_fw/AsicFwS2/include/matrix.h **** 
  14:/home/tienluong/workspace/atlantis_fw/AsicFwS2/include/matrix.h **** namespace ltaf { // lt auto focus
  15:/home/tienluong/workspace/atlantis_fw/AsicFwS2/include/matrix.h **** 
  16:/home/tienluong/workspace/atlantis_fw/AsicFwS2/include/matrix.h **** // -----------------------------------------------------------
  17:/home/tienluong/workspace/atlantis_fw/AsicFwS2/include/matrix.h **** // 			Vec2 class
  18:/home/tienluong/workspace/atlantis_fw/AsicFwS2/include/matrix.h **** // -----------------------------------------------------------
  19:/home/tienluong/workspace/atlantis_fw/AsicFwS2/include/matrix.h **** template<typename T>
  20:/home/tienluong/workspace/atlantis_fw/AsicFwS2/include/matrix.h **** class Vec2
  21:/home/tienluong/workspace/atlantis_fw/AsicFwS2/include/matrix.h **** {
  22:/home/tienluong/workspace/atlantis_fw/AsicFwS2/include/matrix.h **** public:
  23:/home/tienluong/workspace/atlantis_fw/AsicFwS2/include/matrix.h ****     Vec2() {}
  24:/home/tienluong/workspace/atlantis_fw/AsicFwS2/include/matrix.h ****     Vec2( T t ) : _x( t ), _y( t ) {}
  25:/home/tienluong/workspace/atlantis_fw/AsicFwS2/include/matrix.h ****     Vec2( T x, T y ) : _x( x ), _y( y ) {}
  26:/home/tienluong/workspace/atlantis_fw/AsicFwS2/include/matrix.h ****     Vec2( const Vec2 & t ) : _x( t._x ), _y( t._y ) {}
  27:/home/tienluong/workspace/atlantis_fw/AsicFwS2/include/matrix.h **** 
  28:/home/tienluong/workspace/atlantis_fw/AsicFwS2/include/matrix.h ****     template<typename U>
  29:/home/tienluong/workspace/atlantis_fw/AsicFwS2/include/matrix.h ****     explicit Vec2( const Vec2<U> & t )
  30:/home/tienluong/workspace/atlantis_fw/AsicFwS2/include/matrix.h ****         : _x( static_cast<T>( t.x() ) )
  31:/home/tienluong/workspace/atlantis_fw/AsicFwS2/include/matrix.h ****         , _y( static_cast<T>( t.y() ) ) {}
  32:/home/tienluong/workspace/atlantis_fw/AsicFwS2/include/matrix.h **** 
  33:/home/tienluong/workspace/atlantis_fw/AsicFwS2/include/matrix.h ****     Vec2 & operator=( const Vec2 & t )
  34:/home/tienluong/workspace/atlantis_fw/AsicFwS2/include/matrix.h ****     { _x = t._x; _y = t._y; return *this; }
  35:/home/tienluong/workspace/atlantis_fw/AsicFwS2/include/matrix.h **** 
  36:/home/tienluong/workspace/atlantis_fw/AsicFwS2/include/matrix.h ****     Vec2 & operator/=( const Vec2 & t )
  37:/home/tienluong/workspace/atlantis_fw/AsicFwS2/include/matrix.h ****     { _x /= t._x; _y /= t._y; return *this; }
  38:/home/tienluong/workspace/atlantis_fw/AsicFwS2/include/matrix.h **** 
  39:/home/tienluong/workspace/atlantis_fw/AsicFwS2/include/matrix.h ****     Vec2 & operator%=( const Vec2 & t )
  40:/home/tienluong/workspace/atlantis_fw/AsicFwS2/include/matrix.h ****     { _x %= t._x; _y %= t._y; return *this; }
  41:/home/tienluong/workspace/atlantis_fw/AsicFwS2/include/matrix.h **** 
  42:/home/tienluong/workspace/atlantis_fw/AsicFwS2/include/matrix.h ****     Vec2 & operator*=( const Vec2 & t )
  43:/home/tienluong/workspace/atlantis_fw/AsicFwS2/include/matrix.h ****     { _x *= t._x; _y *= t._y; return *this; }
  44:/home/tienluong/workspace/atlantis_fw/AsicFwS2/include/matrix.h **** 
  45:/home/tienluong/workspace/atlantis_fw/AsicFwS2/include/matrix.h ****     Vec2 & operator+=( const Vec2 & t )
  46:/home/tienluong/workspace/atlantis_fw/AsicFwS2/include/matrix.h ****     { _x += t._x; _y += t._y; return *this; }
  47:/home/tienluong/workspace/atlantis_fw/AsicFwS2/include/matrix.h **** 
  48:/home/tienluong/workspace/atlantis_fw/AsicFwS2/include/matrix.h ****     Vec2 & operator-=( const Vec2 & t )
  49:/home/tienluong/workspace/atlantis_fw/AsicFwS2/include/matrix.h ****     { _x -= t._x; _y -= t._y; return *this; }
  50:/home/tienluong/workspace/atlantis_fw/AsicFwS2/include/matrix.h **** 
  51:/home/tienluong/workspace/atlantis_fw/AsicFwS2/include/matrix.h ****     Vec2 & operator&=( const Vec2 & t )
  52:/home/tienluong/workspace/atlantis_fw/AsicFwS2/include/matrix.h ****     { _x &= t._x; _y &= t._y; return *this; }
  53:/home/tienluong/workspace/atlantis_fw/AsicFwS2/include/matrix.h **** 
  54:/home/tienluong/workspace/atlantis_fw/AsicFwS2/include/matrix.h ****     Vec2 & operator|=( const Vec2 & t )
  55:/home/tienluong/workspace/atlantis_fw/AsicFwS2/include/matrix.h ****     { _x |= t._x; _y |= t._y; return *this; }
  56:/home/tienluong/workspace/atlantis_fw/AsicFwS2/include/matrix.h **** 
  57:/home/tienluong/workspace/atlantis_fw/AsicFwS2/include/matrix.h ****     Vec2 & operator>>=( int t )
  58:/home/tienluong/workspace/atlantis_fw/AsicFwS2/include/matrix.h ****     { _x >>= t; _y >>= t; return *this; }
  59:/home/tienluong/workspace/atlantis_fw/AsicFwS2/include/matrix.h **** 
  60:/home/tienluong/workspace/atlantis_fw/AsicFwS2/include/matrix.h ****     Vec2 & operator<<=( int t )
  61:/home/tienluong/workspace/atlantis_fw/AsicFwS2/include/matrix.h ****     { _x <<= t; _y <<= t; return *this; }
  62:/home/tienluong/workspace/atlantis_fw/AsicFwS2/include/matrix.h **** 
  63:/home/tienluong/workspace/atlantis_fw/AsicFwS2/include/matrix.h ****     Vec2 operator-() const { return { -_x, -_y}; }
  64:/home/tienluong/workspace/atlantis_fw/AsicFwS2/include/matrix.h **** 
  65:/home/tienluong/workspace/atlantis_fw/AsicFwS2/include/matrix.h ****     template<typename U> Vec2<typename std::common_type<T, U>::type>
  66:/home/tienluong/workspace/atlantis_fw/AsicFwS2/include/matrix.h ****     operator+( const Vec2<U> & t ) const { return { _x + t.x(), _y + t.y() }; }
  67:/home/tienluong/workspace/atlantis_fw/AsicFwS2/include/matrix.h **** 
  68:/home/tienluong/workspace/atlantis_fw/AsicFwS2/include/matrix.h ****     template<typename U> Vec2<typename std::common_type<T, U>::type>
  69:/home/tienluong/workspace/atlantis_fw/AsicFwS2/include/matrix.h ****     operator-( const Vec2<U> & t ) const { return { _x - t.x(), _y - t.y() }; }
  70:/home/tienluong/workspace/atlantis_fw/AsicFwS2/include/matrix.h **** 
  71:/home/tienluong/workspace/atlantis_fw/AsicFwS2/include/matrix.h ****     template<typename U> Vec2<typename std::common_type<T, U>::type>
  72:/home/tienluong/workspace/atlantis_fw/AsicFwS2/include/matrix.h ****     operator*( const Vec2<U> & t ) const { return { _x * t.x(), _y * t.y() }; }
  73:/home/tienluong/workspace/atlantis_fw/AsicFwS2/include/matrix.h **** 
  74:/home/tienluong/workspace/atlantis_fw/AsicFwS2/include/matrix.h ****     template<typename U> Vec2<typename std::common_type<T, U>::type>
  75:/home/tienluong/workspace/atlantis_fw/AsicFwS2/include/matrix.h ****     operator/( const Vec2<U> & t ) const { return { _x / t.x(), _y / t.y() }; }
  76:/home/tienluong/workspace/atlantis_fw/AsicFwS2/include/matrix.h **** 
  77:/home/tienluong/workspace/atlantis_fw/AsicFwS2/include/matrix.h ****     template < typename U,
  78:/home/tienluong/workspace/atlantis_fw/AsicFwS2/include/matrix.h ****                typename = typename std::enable_if < std::is_integral<T>::value && std::is_integral<
  79:/home/tienluong/workspace/atlantis_fw/AsicFwS2/include/matrix.h ****     Vec2<typename std::common_type<T, U>::type>
  80:/home/tienluong/workspace/atlantis_fw/AsicFwS2/include/matrix.h ****     operator%( const Vec2<U> & t ) const { return { _x % t.x(), _y % t.y() }; }
  81:/home/tienluong/workspace/atlantis_fw/AsicFwS2/include/matrix.h **** 
  82:/home/tienluong/workspace/atlantis_fw/AsicFwS2/include/matrix.h ****     template < typename U,
  83:/home/tienluong/workspace/atlantis_fw/AsicFwS2/include/matrix.h ****                typename = typename std::enable_if < std::is_arithmetic<U>::value >::type >
  84:/home/tienluong/workspace/atlantis_fw/AsicFwS2/include/matrix.h ****     Vec2<typename std::common_type<T, U>::type>
  85:/home/tienluong/workspace/atlantis_fw/AsicFwS2/include/matrix.h ****     operator+( U t ) const { return { _x + t, _y + t }; }
  86:/home/tienluong/workspace/atlantis_fw/AsicFwS2/include/matrix.h **** 
  87:/home/tienluong/workspace/atlantis_fw/AsicFwS2/include/matrix.h ****     template < typename U,
  88:/home/tienluong/workspace/atlantis_fw/AsicFwS2/include/matrix.h ****                typename = typename std::enable_if < std::is_arithmetic<U>::value >::type >
  89:/home/tienluong/workspace/atlantis_fw/AsicFwS2/include/matrix.h ****     Vec2<typename std::common_type<T, U>::type>
  90:/home/tienluong/workspace/atlantis_fw/AsicFwS2/include/matrix.h ****     operator-( U t ) const { return { _x - t, _y - t }; }
  91:/home/tienluong/workspace/atlantis_fw/AsicFwS2/include/matrix.h **** 
  92:/home/tienluong/workspace/atlantis_fw/AsicFwS2/include/matrix.h ****     template < typename U,
  93:/home/tienluong/workspace/atlantis_fw/AsicFwS2/include/matrix.h ****                typename = typename std::enable_if < std::is_arithmetic<U>::value >::type >
  94:/home/tienluong/workspace/atlantis_fw/AsicFwS2/include/matrix.h ****     Vec2<typename std::common_type<T, U>::type>
  95:/home/tienluong/workspace/atlantis_fw/AsicFwS2/include/matrix.h ****     operator*( U t ) const { return { _x * t, _y * t }; }
  96:/home/tienluong/workspace/atlantis_fw/AsicFwS2/include/matrix.h **** 
  97:/home/tienluong/workspace/atlantis_fw/AsicFwS2/include/matrix.h ****     template < typename U,
  98:/home/tienluong/workspace/atlantis_fw/AsicFwS2/include/matrix.h ****                typename = typename std::enable_if < std::is_arithmetic<U>::value >::type >
  99:/home/tienluong/workspace/atlantis_fw/AsicFwS2/include/matrix.h ****     Vec2<typename std::common_type<T, U>::type>
 100:/home/tienluong/workspace/atlantis_fw/AsicFwS2/include/matrix.h ****     operator/( U t ) const { return { _x / t, _y / t }; }
 101:/home/tienluong/workspace/atlantis_fw/AsicFwS2/include/matrix.h **** 
 102:/home/tienluong/workspace/atlantis_fw/AsicFwS2/include/matrix.h ****     template < typename U,
 103:/home/tienluong/workspace/atlantis_fw/AsicFwS2/include/matrix.h ****                typename = typename std::enable_if < std::is_integral<T>::value && std::is_integral<
 104:/home/tienluong/workspace/atlantis_fw/AsicFwS2/include/matrix.h ****     Vec2<typename std::common_type<T, U>::type>
 105:/home/tienluong/workspace/atlantis_fw/AsicFwS2/include/matrix.h ****     operator%( U t ) const { return { _x % t, _y % t }; }
 106:/home/tienluong/workspace/atlantis_fw/AsicFwS2/include/matrix.h **** 
 107:/home/tienluong/workspace/atlantis_fw/AsicFwS2/include/matrix.h ****     T min() const { return std::min( _x, _y ); }
 108:/home/tienluong/workspace/atlantis_fw/AsicFwS2/include/matrix.h ****     T max() const { return std::max( _x, _y ); }
 109:/home/tienluong/workspace/atlantis_fw/AsicFwS2/include/matrix.h ****     T sum() const { return _x + _y; }
 110:/home/tienluong/workspace/atlantis_fw/AsicFwS2/include/matrix.h ****     T dot( const Vec2<T> & t ) const { return _x * t.x() + _y * t.y(); }
 111:/home/tienluong/workspace/atlantis_fw/AsicFwS2/include/matrix.h **** 
 112:/home/tienluong/workspace/atlantis_fw/AsicFwS2/include/matrix.h ****     Vec2 abs() const { return { std::abs( _x ), std::abs( _y ) }; }
 113:/home/tienluong/workspace/atlantis_fw/AsicFwS2/include/matrix.h ****     
 114:/home/tienluong/workspace/atlantis_fw/AsicFwS2/include/matrix.h ****     const T & x() const { return _x; }
 115:/home/tienluong/workspace/atlantis_fw/AsicFwS2/include/matrix.h ****     const T & y() const { return _y; }
 116:/home/tienluong/workspace/atlantis_fw/AsicFwS2/include/matrix.h **** 
 117:/home/tienluong/workspace/atlantis_fw/AsicFwS2/include/matrix.h ****     void setX( T x ) { _x = x; }
 118:/home/tienluong/workspace/atlantis_fw/AsicFwS2/include/matrix.h ****     void setY( T y ) { _y = y; }
 119:/home/tienluong/workspace/atlantis_fw/AsicFwS2/include/matrix.h **** 
 120:/home/tienluong/workspace/atlantis_fw/AsicFwS2/include/matrix.h **** private:
 121:/home/tienluong/workspace/atlantis_fw/AsicFwS2/include/matrix.h **** 	T _x, _y;
 122:/home/tienluong/workspace/atlantis_fw/AsicFwS2/include/matrix.h **** };
 123:/home/tienluong/workspace/atlantis_fw/AsicFwS2/include/matrix.h **** 
 124:/home/tienluong/workspace/atlantis_fw/AsicFwS2/include/matrix.h **** 
 125:/home/tienluong/workspace/atlantis_fw/AsicFwS2/include/matrix.h **** // basic add/sub/mul/div operators
 126:/home/tienluong/workspace/atlantis_fw/AsicFwS2/include/matrix.h **** template < typename T, typename U,
 127:/home/tienluong/workspace/atlantis_fw/AsicFwS2/include/matrix.h ****            typename = typename std::enable_if < std::is_arithmetic<T>::value >::type >
 128:/home/tienluong/workspace/atlantis_fw/AsicFwS2/include/matrix.h **** Vec2<typename std::common_type<T, U>::type>
 129:/home/tienluong/workspace/atlantis_fw/AsicFwS2/include/matrix.h **** operator+( T a, const Vec2<U> & b ) { return b + a; }
 130:/home/tienluong/workspace/atlantis_fw/AsicFwS2/include/matrix.h **** 
 131:/home/tienluong/workspace/atlantis_fw/AsicFwS2/include/matrix.h **** template < typename T, typename U,
 132:/home/tienluong/workspace/atlantis_fw/AsicFwS2/include/matrix.h ****            typename = typename std::enable_if < std::is_arithmetic<T>::value >::type >
 133:/home/tienluong/workspace/atlantis_fw/AsicFwS2/include/matrix.h **** Vec2<typename std::common_type<T, U>::type>
 134:/home/tienluong/workspace/atlantis_fw/AsicFwS2/include/matrix.h **** operator*( T a, const Vec2<U> & b ) { return b * a; }
 135:/home/tienluong/workspace/atlantis_fw/AsicFwS2/include/matrix.h **** 
 136:/home/tienluong/workspace/atlantis_fw/AsicFwS2/include/matrix.h **** template < typename T, typename U,
 137:/home/tienluong/workspace/atlantis_fw/AsicFwS2/include/matrix.h ****            typename = typename std::enable_if < std::is_arithmetic<T>::value >::type >
 138:/home/tienluong/workspace/atlantis_fw/AsicFwS2/include/matrix.h **** Vec2<typename std::common_type<T, U>::type>
 139:/home/tienluong/workspace/atlantis_fw/AsicFwS2/include/matrix.h **** operator-( T a, const Vec2<U> & b ) { return Vec2<T>( a ) - b; }
 140:/home/tienluong/workspace/atlantis_fw/AsicFwS2/include/matrix.h **** 
 141:/home/tienluong/workspace/atlantis_fw/AsicFwS2/include/matrix.h **** template < typename T, typename U,
 142:/home/tienluong/workspace/atlantis_fw/AsicFwS2/include/matrix.h ****            typename = typename std::enable_if < std::is_arithmetic<T>::value >::type >
 143:/home/tienluong/workspace/atlantis_fw/AsicFwS2/include/matrix.h **** Vec2<typename std::common_type<T, U>::type>
 144:/home/tienluong/workspace/atlantis_fw/AsicFwS2/include/matrix.h **** operator/( T a, const Vec2<U> & b ) { return Vec2<T>( a ) / b; }
 145:/home/tienluong/workspace/atlantis_fw/AsicFwS2/include/matrix.h **** 
 146:/home/tienluong/workspace/atlantis_fw/AsicFwS2/include/matrix.h **** // basic math functions
 147:/home/tienluong/workspace/atlantis_fw/AsicFwS2/include/matrix.h **** template<typename T>
 148:/home/tienluong/workspace/atlantis_fw/AsicFwS2/include/matrix.h **** T min( const Vec2<T> & t ) { return t.min(); }
 149:/home/tienluong/workspace/atlantis_fw/AsicFwS2/include/matrix.h **** 
 150:/home/tienluong/workspace/atlantis_fw/AsicFwS2/include/matrix.h **** template<typename T>
 151:/home/tienluong/workspace/atlantis_fw/AsicFwS2/include/matrix.h **** T max( const Vec2<T> & t ) { return t.max(); }
 152:/home/tienluong/workspace/atlantis_fw/AsicFwS2/include/matrix.h **** 
 153:/home/tienluong/workspace/atlantis_fw/AsicFwS2/include/matrix.h **** template<typename T>
 154:/home/tienluong/workspace/atlantis_fw/AsicFwS2/include/matrix.h **** T sum( const Vec2<T> & t ) { return t.sum(); }
 155:/home/tienluong/workspace/atlantis_fw/AsicFwS2/include/matrix.h **** 
 156:/home/tienluong/workspace/atlantis_fw/AsicFwS2/include/matrix.h **** template<typename T>
 157:/home/tienluong/workspace/atlantis_fw/AsicFwS2/include/matrix.h **** T dot( const Vec2<T> & a, const Vec2<T> & b ) { return a.dot( b ); }
 158:/home/tienluong/workspace/atlantis_fw/AsicFwS2/include/matrix.h **** 
 159:/home/tienluong/workspace/atlantis_fw/AsicFwS2/include/matrix.h **** template<typename T>
 160:/home/tienluong/workspace/atlantis_fw/AsicFwS2/include/matrix.h **** Vec2<T> min( const Vec2<T> & a, const Vec2<T> & b )
 161:/home/tienluong/workspace/atlantis_fw/AsicFwS2/include/matrix.h **** { return { std::min( a.x(), b.x() ), std::min( a.y(), b.y() ) }; }
 162:/home/tienluong/workspace/atlantis_fw/AsicFwS2/include/matrix.h **** 
 163:/home/tienluong/workspace/atlantis_fw/AsicFwS2/include/matrix.h **** template<typename T>
 164:/home/tienluong/workspace/atlantis_fw/AsicFwS2/include/matrix.h **** Vec2<T> abs( const Vec2<T> & t ) { return t.abs(); }
 165:/home/tienluong/workspace/atlantis_fw/AsicFwS2/include/matrix.h **** 
 166:/home/tienluong/workspace/atlantis_fw/AsicFwS2/include/matrix.h **** // template<typename T>
 167:/home/tienluong/workspace/atlantis_fw/AsicFwS2/include/matrix.h **** // Vec2<T> sign( const Vec2<T> & t ) { return t.sign(); }
 168:/home/tienluong/workspace/atlantis_fw/AsicFwS2/include/matrix.h **** 
 169:/home/tienluong/workspace/atlantis_fw/AsicFwS2/include/matrix.h **** template<typename T>
 170:/home/tienluong/workspace/atlantis_fw/AsicFwS2/include/matrix.h **** typename std::enable_if<std::is_floating_point<T>::value, T>::type
 171:/home/tienluong/workspace/atlantis_fw/AsicFwS2/include/matrix.h **** length( const Vec2<T> & a )
 172:/home/tienluong/workspace/atlantis_fw/AsicFwS2/include/matrix.h **** { return std::sqrt( dot( a, a ) ); }
 173:/home/tienluong/workspace/atlantis_fw/AsicFwS2/include/matrix.h **** 
 174:/home/tienluong/workspace/atlantis_fw/AsicFwS2/include/matrix.h **** template<typename T>
 175:/home/tienluong/workspace/atlantis_fw/AsicFwS2/include/matrix.h **** typename std::enable_if<std::is_floating_point<T>::value, Vec2<T> >::type
 176:/home/tienluong/workspace/atlantis_fw/AsicFwS2/include/matrix.h **** sqrt( const Vec2<T> & a )
 177:/home/tienluong/workspace/atlantis_fw/AsicFwS2/include/matrix.h **** { return { std::sqrt( a.x() ), std::sqrt( a.y() ) }; }
 178:/home/tienluong/workspace/atlantis_fw/AsicFwS2/include/matrix.h **** 
 179:/home/tienluong/workspace/atlantis_fw/AsicFwS2/include/matrix.h **** template<typename T>
 180:/home/tienluong/workspace/atlantis_fw/AsicFwS2/include/matrix.h **** typename std::enable_if<std::is_floating_point<T>::value, T>::type
 181:/home/tienluong/workspace/atlantis_fw/AsicFwS2/include/matrix.h **** squaredSum( const Vec2<T> & a )
 182:/home/tienluong/workspace/atlantis_fw/AsicFwS2/include/matrix.h **** { return dot( a, a ); }
 183:/home/tienluong/workspace/atlantis_fw/AsicFwS2/include/matrix.h **** 
 184:/home/tienluong/workspace/atlantis_fw/AsicFwS2/include/matrix.h **** template<typename T>
 185:/home/tienluong/workspace/atlantis_fw/AsicFwS2/include/matrix.h **** typename std::enable_if<std::is_floating_point<T>::value, Vec2<T> >::type
 186:/home/tienluong/workspace/atlantis_fw/AsicFwS2/include/matrix.h **** normalize( const Vec2<T> & a )
 187:/home/tienluong/workspace/atlantis_fw/AsicFwS2/include/matrix.h **** {
 188:/home/tienluong/workspace/atlantis_fw/AsicFwS2/include/matrix.h ****     return a / length( a );
 189:/home/tienluong/workspace/atlantis_fw/AsicFwS2/include/matrix.h **** }
 190:/home/tienluong/workspace/atlantis_fw/AsicFwS2/include/matrix.h **** 
 191:/home/tienluong/workspace/atlantis_fw/AsicFwS2/include/matrix.h **** // template<typename T>
 192:/home/tienluong/workspace/atlantis_fw/AsicFwS2/include/matrix.h **** // typename std::enable_if<std::is_floating_point<T>::value, Vec2<T> >::type
 193:/home/tienluong/workspace/atlantis_fw/AsicFwS2/include/matrix.h **** // pow( const Vec2<T> & a, const Vec2<T> & b )
 194:/home/tienluong/workspace/atlantis_fw/AsicFwS2/include/matrix.h **** // { return { std::pow( a.x(), b.x() ), std::pow( a.y(), b.y() ) }; }
 195:/home/tienluong/workspace/atlantis_fw/AsicFwS2/include/matrix.h **** 
 196:/home/tienluong/workspace/atlantis_fw/AsicFwS2/include/matrix.h **** // template<typename T>
 197:/home/tienluong/workspace/atlantis_fw/AsicFwS2/include/matrix.h **** // typename std::enable_if<std::is_floating_point<T>::value, Vec2<T> >::type
 198:/home/tienluong/workspace/atlantis_fw/AsicFwS2/include/matrix.h **** // pow( const Vec2<T> & a, T  b )
 199:/home/tienluong/workspace/atlantis_fw/AsicFwS2/include/matrix.h **** // { return { std::pow( a.x(), b ), std::pow( a.y(), b ) }; }
 200:/home/tienluong/workspace/atlantis_fw/AsicFwS2/include/matrix.h **** 
 201:/home/tienluong/workspace/atlantis_fw/AsicFwS2/include/matrix.h **** // template<typename T>
 202:/home/tienluong/workspace/atlantis_fw/AsicFwS2/include/matrix.h **** // typename std::enable_if<std::is_floating_point<T>::value, Vec2<T> >::type
 203:/home/tienluong/workspace/atlantis_fw/AsicFwS2/include/matrix.h **** // pow( T a, const Vec2<T> & b )
 204:/home/tienluong/workspace/atlantis_fw/AsicFwS2/include/matrix.h **** // { return { std::pow( a, b.x() ), std::pow( a, b.y() ) }; }
 205:/home/tienluong/workspace/atlantis_fw/AsicFwS2/include/matrix.h **** 
 206:/home/tienluong/workspace/atlantis_fw/AsicFwS2/include/matrix.h **** // template<typename T>
 207:/home/tienluong/workspace/atlantis_fw/AsicFwS2/include/matrix.h **** // typename std::enable_if<std::is_floating_point<T>::value, Vec2<T> >::type
 208:/home/tienluong/workspace/atlantis_fw/AsicFwS2/include/matrix.h **** // floor( const Vec2<T> & a )
 209:/home/tienluong/workspace/atlantis_fw/AsicFwS2/include/matrix.h **** // { return { std::floor( a.x() ), std::floor( a.y() ) }; }
 210:/home/tienluong/workspace/atlantis_fw/AsicFwS2/include/matrix.h **** 
 211:/home/tienluong/workspace/atlantis_fw/AsicFwS2/include/matrix.h **** // template<typename T>
 212:/home/tienluong/workspace/atlantis_fw/AsicFwS2/include/matrix.h **** // typename std::enable_if<std::is_floating_point<T>::value, Vec2<T> >::type
 213:/home/tienluong/workspace/atlantis_fw/AsicFwS2/include/matrix.h **** // ceil( const Vec2<T> & a )
 214:/home/tienluong/workspace/atlantis_fw/AsicFwS2/include/matrix.h **** // { return { std::ceil( a.x() ), std::ceil( a.y() ) }; }
 215:/home/tienluong/workspace/atlantis_fw/AsicFwS2/include/matrix.h **** 
 216:/home/tienluong/workspace/atlantis_fw/AsicFwS2/include/matrix.h **** 
 217:/home/tienluong/workspace/atlantis_fw/AsicFwS2/include/matrix.h **** 
 218:/home/tienluong/workspace/atlantis_fw/AsicFwS2/include/matrix.h **** 
 219:/home/tienluong/workspace/atlantis_fw/AsicFwS2/include/matrix.h **** 
 220:/home/tienluong/workspace/atlantis_fw/AsicFwS2/include/matrix.h **** // -----------------------------------------------------------
 221:/home/tienluong/workspace/atlantis_fw/AsicFwS2/include/matrix.h **** // 			Vec3 class
 222:/home/tienluong/workspace/atlantis_fw/AsicFwS2/include/matrix.h **** // -----------------------------------------------------------
 223:/home/tienluong/workspace/atlantis_fw/AsicFwS2/include/matrix.h **** template<typename T>
 224:/home/tienluong/workspace/atlantis_fw/AsicFwS2/include/matrix.h **** class Vec3
 225:/home/tienluong/workspace/atlantis_fw/AsicFwS2/include/matrix.h **** {
 226:/home/tienluong/workspace/atlantis_fw/AsicFwS2/include/matrix.h **** public:
 227:/home/tienluong/workspace/atlantis_fw/AsicFwS2/include/matrix.h ****     Vec3() {}
 228:/home/tienluong/workspace/atlantis_fw/AsicFwS2/include/matrix.h ****     Vec3( T t ) : _x( t ), _y( t ), _z( t ) {}
 229:/home/tienluong/workspace/atlantis_fw/AsicFwS2/include/matrix.h ****     Vec3( T x, T y, T z ) : _x( x ), _y( y ), _z( z ) {}
 230:/home/tienluong/workspace/atlantis_fw/AsicFwS2/include/matrix.h ****     Vec3( const Vec3 & t ) : _x( t._x ), _y( t._y ), _z( t._z ) {}
 231:/home/tienluong/workspace/atlantis_fw/AsicFwS2/include/matrix.h **** 
 232:/home/tienluong/workspace/atlantis_fw/AsicFwS2/include/matrix.h ****     template<typename U>
 233:/home/tienluong/workspace/atlantis_fw/AsicFwS2/include/matrix.h ****     explicit Vec3( const Vec3<U> & t )
 234:/home/tienluong/workspace/atlantis_fw/AsicFwS2/include/matrix.h ****         : _x( static_cast<T>( t.x() ) )
 235:/home/tienluong/workspace/atlantis_fw/AsicFwS2/include/matrix.h ****         , _y( static_cast<T>( t.y() ) )
 236:/home/tienluong/workspace/atlantis_fw/AsicFwS2/include/matrix.h ****         , _z( static_cast<T>( t.z() ) ) {}
 237:/home/tienluong/workspace/atlantis_fw/AsicFwS2/include/matrix.h **** 
 238:/home/tienluong/workspace/atlantis_fw/AsicFwS2/include/matrix.h ****     Vec3 & operator=( const Vec3 & t )
 239:/home/tienluong/workspace/atlantis_fw/AsicFwS2/include/matrix.h ****     { _x = t._x; _y = t._y; _z = t._z; return *this; }
 240:/home/tienluong/workspace/atlantis_fw/AsicFwS2/include/matrix.h **** 
 241:/home/tienluong/workspace/atlantis_fw/AsicFwS2/include/matrix.h ****     Vec3 & operator/=( const Vec3 & t )
 242:/home/tienluong/workspace/atlantis_fw/AsicFwS2/include/matrix.h ****     { _x /= t._x; _y /= t._y; _z /= t._z; return *this; }
 243:/home/tienluong/workspace/atlantis_fw/AsicFwS2/include/matrix.h **** 
 244:/home/tienluong/workspace/atlantis_fw/AsicFwS2/include/matrix.h ****     Vec3 & operator%=( const Vec3 & t )
 245:/home/tienluong/workspace/atlantis_fw/AsicFwS2/include/matrix.h ****     { _x %= t._x; _y %= t._y; _z %= t._z; return *this; }
 246:/home/tienluong/workspace/atlantis_fw/AsicFwS2/include/matrix.h **** 
 247:/home/tienluong/workspace/atlantis_fw/AsicFwS2/include/matrix.h ****     Vec3 & operator*=( const Vec3 & t )
 248:/home/tienluong/workspace/atlantis_fw/AsicFwS2/include/matrix.h ****     { _x *= t._x; _y *= t._y; _z *= t._z; return *this; }
 249:/home/tienluong/workspace/atlantis_fw/AsicFwS2/include/matrix.h **** 
 250:/home/tienluong/workspace/atlantis_fw/AsicFwS2/include/matrix.h ****     Vec3 & operator+=( const Vec3 & t )
 251:/home/tienluong/workspace/atlantis_fw/AsicFwS2/include/matrix.h ****     { _x += t._x; _y += t._y; _z += t._z; return *this; }
 252:/home/tienluong/workspace/atlantis_fw/AsicFwS2/include/matrix.h **** 
 253:/home/tienluong/workspace/atlantis_fw/AsicFwS2/include/matrix.h ****     Vec3 & operator-=( const Vec3 & t )
 254:/home/tienluong/workspace/atlantis_fw/AsicFwS2/include/matrix.h ****     { _x -= t._x; _y -= t._y; _z -= t._z; return *this; }
 255:/home/tienluong/workspace/atlantis_fw/AsicFwS2/include/matrix.h **** 
 256:/home/tienluong/workspace/atlantis_fw/AsicFwS2/include/matrix.h ****     Vec3 & operator&=( const Vec3 & t )
 257:/home/tienluong/workspace/atlantis_fw/AsicFwS2/include/matrix.h ****     { _x &= t._x; _y &= t._y; _z &= t._z; return *this; }
 258:/home/tienluong/workspace/atlantis_fw/AsicFwS2/include/matrix.h **** 
 259:/home/tienluong/workspace/atlantis_fw/AsicFwS2/include/matrix.h ****     Vec3 & operator|=( const Vec3 & t )
 260:/home/tienluong/workspace/atlantis_fw/AsicFwS2/include/matrix.h ****     { _x |= t._x; _y |= t._y; _z |= t._z; return *this; }
 261:/home/tienluong/workspace/atlantis_fw/AsicFwS2/include/matrix.h **** 
 262:/home/tienluong/workspace/atlantis_fw/AsicFwS2/include/matrix.h ****     Vec3 & operator>>=( int t )
 263:/home/tienluong/workspace/atlantis_fw/AsicFwS2/include/matrix.h ****     { _x >>= t; _y >>= t; _z >>= t; return *this; }
 264:/home/tienluong/workspace/atlantis_fw/AsicFwS2/include/matrix.h **** 
 265:/home/tienluong/workspace/atlantis_fw/AsicFwS2/include/matrix.h ****     Vec3 & operator<<=( int t )
 266:/home/tienluong/workspace/atlantis_fw/AsicFwS2/include/matrix.h ****     { _x <<= t; _y <<= t; _z <<= t; return *this; }
 267:/home/tienluong/workspace/atlantis_fw/AsicFwS2/include/matrix.h **** 
 268:/home/tienluong/workspace/atlantis_fw/AsicFwS2/include/matrix.h ****     Vec3 operator-() const { return { -_x, -_y, -_z }; }
 269:/home/tienluong/workspace/atlantis_fw/AsicFwS2/include/matrix.h **** 
 270:/home/tienluong/workspace/atlantis_fw/AsicFwS2/include/matrix.h ****     template<typename U > 
 271:/home/tienluong/workspace/atlantis_fw/AsicFwS2/include/matrix.h ****     Vec3<typename std::common_type<T, U>::type>
 272:/home/tienluong/workspace/atlantis_fw/AsicFwS2/include/matrix.h ****     operator+( const Vec3<U> & t ) const { return { _x + t.x(), _y + t.y(), _z + t.z() }; }
 273:/home/tienluong/workspace/atlantis_fw/AsicFwS2/include/matrix.h **** 
 274:/home/tienluong/workspace/atlantis_fw/AsicFwS2/include/matrix.h ****     template<typename U> Vec3<typename std::common_type<T, U>::type>
 275:/home/tienluong/workspace/atlantis_fw/AsicFwS2/include/matrix.h ****     operator-( const Vec3<U> & t ) const { return { _x - t.x(), _y - t.y(), _z - t.z() }; }
 276:/home/tienluong/workspace/atlantis_fw/AsicFwS2/include/matrix.h **** 
 277:/home/tienluong/workspace/atlantis_fw/AsicFwS2/include/matrix.h ****     template<typename U> Vec3<typename std::common_type<T, U>::type>
 278:/home/tienluong/workspace/atlantis_fw/AsicFwS2/include/matrix.h ****     operator*( const Vec3<U> & t ) const { return { _x * t.x(), _y * t.y(), _z * t.z() }; }
 279:/home/tienluong/workspace/atlantis_fw/AsicFwS2/include/matrix.h **** 
 280:/home/tienluong/workspace/atlantis_fw/AsicFwS2/include/matrix.h ****     template<typename U> Vec3<typename std::common_type<T, U>::type>
 281:/home/tienluong/workspace/atlantis_fw/AsicFwS2/include/matrix.h ****     operator/( const Vec3<U> & t ) const { return { _x / t.x(), _y / t.y(), _z / t.z() }; }
 282:/home/tienluong/workspace/atlantis_fw/AsicFwS2/include/matrix.h **** 
 283:/home/tienluong/workspace/atlantis_fw/AsicFwS2/include/matrix.h ****     template < typename U,
 284:/home/tienluong/workspace/atlantis_fw/AsicFwS2/include/matrix.h ****                typename = typename std::enable_if < std::is_integral<T>::value && std::is_integral<
 285:/home/tienluong/workspace/atlantis_fw/AsicFwS2/include/matrix.h ****     Vec3<typename std::common_type<T, U>::type>
 286:/home/tienluong/workspace/atlantis_fw/AsicFwS2/include/matrix.h ****     operator%( const Vec3<U> & t ) const { return { _x % t.x(), _y % t.y(), _z % t.z() }; }
 287:/home/tienluong/workspace/atlantis_fw/AsicFwS2/include/matrix.h **** 
 288:/home/tienluong/workspace/atlantis_fw/AsicFwS2/include/matrix.h ****     template < typename U,
 289:/home/tienluong/workspace/atlantis_fw/AsicFwS2/include/matrix.h ****                typename = typename std::enable_if < std::is_arithmetic<U>::value >::type >
 290:/home/tienluong/workspace/atlantis_fw/AsicFwS2/include/matrix.h ****     Vec3<typename std::common_type<T, U>::type>
 291:/home/tienluong/workspace/atlantis_fw/AsicFwS2/include/matrix.h ****     operator+( U t ) const { return { _x + t, _y + t, _z + t }; }
 292:/home/tienluong/workspace/atlantis_fw/AsicFwS2/include/matrix.h **** 
 293:/home/tienluong/workspace/atlantis_fw/AsicFwS2/include/matrix.h ****     template < typename U,
 294:/home/tienluong/workspace/atlantis_fw/AsicFwS2/include/matrix.h ****                typename = typename std::enable_if < std::is_arithmetic<U>::value >::type >
 295:/home/tienluong/workspace/atlantis_fw/AsicFwS2/include/matrix.h ****     Vec3<typename std::common_type<T, U>::type>
 296:/home/tienluong/workspace/atlantis_fw/AsicFwS2/include/matrix.h ****     operator-( U t ) const { return { _x - t, _y - t, _z - t }; }
 297:/home/tienluong/workspace/atlantis_fw/AsicFwS2/include/matrix.h **** 
 298:/home/tienluong/workspace/atlantis_fw/AsicFwS2/include/matrix.h ****     template < typename U,
 299:/home/tienluong/workspace/atlantis_fw/AsicFwS2/include/matrix.h ****                typename = typename std::enable_if < std::is_arithmetic<U>::value >::type >
 300:/home/tienluong/workspace/atlantis_fw/AsicFwS2/include/matrix.h ****     Vec3<typename std::common_type<T, U>::type>
 301:/home/tienluong/workspace/atlantis_fw/AsicFwS2/include/matrix.h ****     operator*( U t ) const { return { _x * t, _y * t, _z * t }; }
 302:/home/tienluong/workspace/atlantis_fw/AsicFwS2/include/matrix.h **** 
 303:/home/tienluong/workspace/atlantis_fw/AsicFwS2/include/matrix.h ****     template < typename U,
 304:/home/tienluong/workspace/atlantis_fw/AsicFwS2/include/matrix.h ****                typename = typename std::enable_if < std::is_arithmetic<U>::value >::type >
 305:/home/tienluong/workspace/atlantis_fw/AsicFwS2/include/matrix.h ****     Vec3<typename std::common_type<T, U>::type>
 306:/home/tienluong/workspace/atlantis_fw/AsicFwS2/include/matrix.h ****     operator/( U t ) const { return { _x / t, _y / t, _z / t }; }
 307:/home/tienluong/workspace/atlantis_fw/AsicFwS2/include/matrix.h **** 
 308:/home/tienluong/workspace/atlantis_fw/AsicFwS2/include/matrix.h ****     template < typename U,
 309:/home/tienluong/workspace/atlantis_fw/AsicFwS2/include/matrix.h ****                typename = typename std::enable_if < std::is_integral<T>::value && std::is_integral<
 310:/home/tienluong/workspace/atlantis_fw/AsicFwS2/include/matrix.h ****     Vec3<typename std::common_type<T, U>::type>
 311:/home/tienluong/workspace/atlantis_fw/AsicFwS2/include/matrix.h ****     operator%( U t ) const { return { _x % t, _y % t, _z % t }; }
 312:/home/tienluong/workspace/atlantis_fw/AsicFwS2/include/matrix.h ****     Vec3<bool> operator==( const Vec3 & t ) const { return { _x == t._x, _y == t._y, _z == t._z }; 
 313:/home/tienluong/workspace/atlantis_fw/AsicFwS2/include/matrix.h ****     Vec3<bool> operator!=( const Vec3 & t ) const { return { _x != t._x, _y != t._y, _z != t._z }; 
 314:/home/tienluong/workspace/atlantis_fw/AsicFwS2/include/matrix.h ****     Vec3<bool> operator>=( const Vec3 & t ) const { return { _x >= t._x, _y >= t._y, _z >= t._z }; 
 315:/home/tienluong/workspace/atlantis_fw/AsicFwS2/include/matrix.h ****     Vec3<bool> operator>( const Vec3 & t )  const { return { _x >  t._x, _y >  t._y, _z >  t._z }; 
 316:/home/tienluong/workspace/atlantis_fw/AsicFwS2/include/matrix.h ****     Vec3<bool> operator<=( const Vec3 & t ) const { return { _x <= t._x, _y <= t._y, _z <= t._z }; 
 317:/home/tienluong/workspace/atlantis_fw/AsicFwS2/include/matrix.h ****     Vec3<bool> operator<( const Vec3 & t )  const { return { _x <  t._x, _y <  t._y, _z <  t._z }; 
 318:/home/tienluong/workspace/atlantis_fw/AsicFwS2/include/matrix.h **** 
 319:/home/tienluong/workspace/atlantis_fw/AsicFwS2/include/matrix.h ****     T min() const { return std::min( std::min( _x, _y ), _z ); }
 320:/home/tienluong/workspace/atlantis_fw/AsicFwS2/include/matrix.h ****     T max() const { return std::max( std::max( _x, _y ), _z ); }
 321:/home/tienluong/workspace/atlantis_fw/AsicFwS2/include/matrix.h ****     T sum() const { return _x + _y + _z; }
 322:/home/tienluong/workspace/atlantis_fw/AsicFwS2/include/matrix.h ****     T dot( const Vec3<T> & t ) const { return _x * t.x() + _y * t.y() + _z * t.z(); }
 323:/home/tienluong/workspace/atlantis_fw/AsicFwS2/include/matrix.h **** 
 324:/home/tienluong/workspace/atlantis_fw/AsicFwS2/include/matrix.h ****     // cross product in right-hand side coordinate (i.e. if this=(1,0,0), t=(0,1,0), out=(0,0,1)).
 325:/home/tienluong/workspace/atlantis_fw/AsicFwS2/include/matrix.h ****     Vec3<T> cross( const Vec3<T> & t ) const
 326:/home/tienluong/workspace/atlantis_fw/AsicFwS2/include/matrix.h ****     { return Vec3<T> {_y * t.z() - _z * t.y(), _z * t.x() - _x * t.z(), _x * t.y() - _y * t.x()};}
 327:/home/tienluong/workspace/atlantis_fw/AsicFwS2/include/matrix.h **** 
 328:/home/tienluong/workspace/atlantis_fw/AsicFwS2/include/matrix.h ****     Vec3 abs() const { return { std::abs( _x ), std::abs( _y ), std::abs( _z ) }; }
 329:/home/tienluong/workspace/atlantis_fw/AsicFwS2/include/matrix.h **** 
 330:/home/tienluong/workspace/atlantis_fw/AsicFwS2/include/matrix.h ****     const T & x() const { return _x; }
 331:/home/tienluong/workspace/atlantis_fw/AsicFwS2/include/matrix.h ****     const T & y() const { return _y; }
 332:/home/tienluong/workspace/atlantis_fw/AsicFwS2/include/matrix.h ****     const T & z() const { return _z; }
 333:/home/tienluong/workspace/atlantis_fw/AsicFwS2/include/matrix.h **** 
 334:/home/tienluong/workspace/atlantis_fw/AsicFwS2/include/matrix.h ****     void setX( T x ) { _x = x; }
 335:/home/tienluong/workspace/atlantis_fw/AsicFwS2/include/matrix.h ****     void setY( T y ) { _y = y; }
 336:/home/tienluong/workspace/atlantis_fw/AsicFwS2/include/matrix.h ****     void setZ( T z ) { _z = z; }
 337:/home/tienluong/workspace/atlantis_fw/AsicFwS2/include/matrix.h **** 
 338:/home/tienluong/workspace/atlantis_fw/AsicFwS2/include/matrix.h ****     Vec3 & normalize()
 339:/home/tienluong/workspace/atlantis_fw/AsicFwS2/include/matrix.h ****     {
 340:/home/tienluong/workspace/atlantis_fw/AsicFwS2/include/matrix.h ****         T len = length(*this);
 341:/home/tienluong/workspace/atlantis_fw/AsicFwS2/include/matrix.h ****         _x /= len;
 342:/home/tienluong/workspace/atlantis_fw/AsicFwS2/include/matrix.h ****         _y /= len;
 343:/home/tienluong/workspace/atlantis_fw/AsicFwS2/include/matrix.h ****         _z /= len;
 344:/home/tienluong/workspace/atlantis_fw/AsicFwS2/include/matrix.h ****         return *this;
 345:/home/tienluong/workspace/atlantis_fw/AsicFwS2/include/matrix.h ****     }
 346:/home/tienluong/workspace/atlantis_fw/AsicFwS2/include/matrix.h **** 
 347:/home/tienluong/workspace/atlantis_fw/AsicFwS2/include/matrix.h **** private:
 348:/home/tienluong/workspace/atlantis_fw/AsicFwS2/include/matrix.h ****     T _x, _y, _z;
 349:/home/tienluong/workspace/atlantis_fw/AsicFwS2/include/matrix.h **** };
 350:/home/tienluong/workspace/atlantis_fw/AsicFwS2/include/matrix.h **** 
 351:/home/tienluong/workspace/atlantis_fw/AsicFwS2/include/matrix.h **** // basic math functions
 352:/home/tienluong/workspace/atlantis_fw/AsicFwS2/include/matrix.h **** template<typename T>
 353:/home/tienluong/workspace/atlantis_fw/AsicFwS2/include/matrix.h **** T min( const Vec3<T> & t ) { return t.min(); }
 354:/home/tienluong/workspace/atlantis_fw/AsicFwS2/include/matrix.h **** 
 355:/home/tienluong/workspace/atlantis_fw/AsicFwS2/include/matrix.h **** template<typename T>
 356:/home/tienluong/workspace/atlantis_fw/AsicFwS2/include/matrix.h **** T max( const Vec3<T> & t ) { return t.max(); }
 357:/home/tienluong/workspace/atlantis_fw/AsicFwS2/include/matrix.h **** 
 358:/home/tienluong/workspace/atlantis_fw/AsicFwS2/include/matrix.h **** template<typename T>
 359:/home/tienluong/workspace/atlantis_fw/AsicFwS2/include/matrix.h **** T sum( const Vec3<T> & t ) { return t.sum(); }
 360:/home/tienluong/workspace/atlantis_fw/AsicFwS2/include/matrix.h **** 
 361:/home/tienluong/workspace/atlantis_fw/AsicFwS2/include/matrix.h **** template<typename T>
 362:/home/tienluong/workspace/atlantis_fw/AsicFwS2/include/matrix.h **** T dot( const Vec3<T> & a, const Vec3<T> & b ) { return a.dot( b ); }
 363:/home/tienluong/workspace/atlantis_fw/AsicFwS2/include/matrix.h **** 
 364:/home/tienluong/workspace/atlantis_fw/AsicFwS2/include/matrix.h **** template<typename T>
 365:/home/tienluong/workspace/atlantis_fw/AsicFwS2/include/matrix.h **** Vec3<T> cross( const Vec3<T> & a, const Vec3<T> & b ) { return a.cross( b ); }
 366:/home/tienluong/workspace/atlantis_fw/AsicFwS2/include/matrix.h **** 
 367:/home/tienluong/workspace/atlantis_fw/AsicFwS2/include/matrix.h **** template<typename T>
 368:/home/tienluong/workspace/atlantis_fw/AsicFwS2/include/matrix.h **** Vec3<T> min( const Vec3<T> & a, const Vec3<T> & b )
 369:/home/tienluong/workspace/atlantis_fw/AsicFwS2/include/matrix.h **** { return { std::min( a.x(), b.x() ), std::min( a.y(), b.y() ), std::min( a.z(), b.z() ) }; }
 370:/home/tienluong/workspace/atlantis_fw/AsicFwS2/include/matrix.h **** 
 371:/home/tienluong/workspace/atlantis_fw/AsicFwS2/include/matrix.h **** // template<typename T, typename U>
 372:/home/tienluong/workspace/atlantis_fw/AsicFwS2/include/matrix.h **** // typename std::enable_if<std::is_arithmetic<U>::value, Vec3<T> >::type
 373:/home/tienluong/workspace/atlantis_fw/AsicFwS2/include/matrix.h **** // min( U a, const Vec3<T> & b )
 374:/home/tienluong/workspace/atlantis_fw/AsicFwS2/include/matrix.h **** // { return min( Vec3<T>( a ), b ); }
 375:/home/tienluong/workspace/atlantis_fw/AsicFwS2/include/matrix.h **** 
 376:/home/tienluong/workspace/atlantis_fw/AsicFwS2/include/matrix.h **** // template<typename T, typename U>
 377:/home/tienluong/workspace/atlantis_fw/AsicFwS2/include/matrix.h **** // typename std::enable_if<std::is_arithmetic<U>::value, Vec3<T> >::type
 378:/home/tienluong/workspace/atlantis_fw/AsicFwS2/include/matrix.h **** // min( const Vec3<T> & a, U b )
 379:/home/tienluong/workspace/atlantis_fw/AsicFwS2/include/matrix.h **** // { return min( a, Vec3<T>( b ) ); }
 380:/home/tienluong/workspace/atlantis_fw/AsicFwS2/include/matrix.h **** 
 381:/home/tienluong/workspace/atlantis_fw/AsicFwS2/include/matrix.h **** // template<typename T>
 382:/home/tienluong/workspace/atlantis_fw/AsicFwS2/include/matrix.h **** // Vec3<T> max( const Vec3<T> & a, const Vec3<T> & b )
 383:/home/tienluong/workspace/atlantis_fw/AsicFwS2/include/matrix.h **** // { return { max( a.x(), b.x() ), max( a.y(), b.y() ), max( a.z(), b.z() ) }; }
 384:/home/tienluong/workspace/atlantis_fw/AsicFwS2/include/matrix.h **** 
 385:/home/tienluong/workspace/atlantis_fw/AsicFwS2/include/matrix.h **** // template<typename T, typename U>
 386:/home/tienluong/workspace/atlantis_fw/AsicFwS2/include/matrix.h **** // typename std::enable_if<std::is_arithmetic<U>::value, Vec3<T> >::type
 387:/home/tienluong/workspace/atlantis_fw/AsicFwS2/include/matrix.h **** // max( U a, const Vec3<T> & b )
 388:/home/tienluong/workspace/atlantis_fw/AsicFwS2/include/matrix.h **** // { return max( Vec3<T>( a ), b ); }
 389:/home/tienluong/workspace/atlantis_fw/AsicFwS2/include/matrix.h **** 
 390:/home/tienluong/workspace/atlantis_fw/AsicFwS2/include/matrix.h **** // template<typename T, typename U>
 391:/home/tienluong/workspace/atlantis_fw/AsicFwS2/include/matrix.h **** // typename std::enable_if<std::is_arithmetic<U>::value, Vec3<T> >::type
 392:/home/tienluong/workspace/atlantis_fw/AsicFwS2/include/matrix.h **** // max( const Vec3<T> & a, U b )
 393:/home/tienluong/workspace/atlantis_fw/AsicFwS2/include/matrix.h **** // { return max( a, Vec3<T>( b ) ); }
 394:/home/tienluong/workspace/atlantis_fw/AsicFwS2/include/matrix.h **** 
 395:/home/tienluong/workspace/atlantis_fw/AsicFwS2/include/matrix.h **** // template<typename T>
 396:/home/tienluong/workspace/atlantis_fw/AsicFwS2/include/matrix.h **** // Vec3<T> clamp( const Vec3<T> & t, const Vec3<T> & min_t, const Vec3<T> & max_t )
 397:/home/tienluong/workspace/atlantis_fw/AsicFwS2/include/matrix.h **** // { return min( max( t, min_t ), max_t ); }
 398:/home/tienluong/workspace/atlantis_fw/AsicFwS2/include/matrix.h **** 
 399:/home/tienluong/workspace/atlantis_fw/AsicFwS2/include/matrix.h **** // template<typename T, typename U>
 400:/home/tienluong/workspace/atlantis_fw/AsicFwS2/include/matrix.h **** // typename std::enable_if<std::is_arithmetic<U>::value, Vec3<T> >::type
 401:/home/tienluong/workspace/atlantis_fw/AsicFwS2/include/matrix.h **** // clamp( const Vec3<T> & t, U min_t, const Vec3<T> & max_t )
 402:/home/tienluong/workspace/atlantis_fw/AsicFwS2/include/matrix.h **** // { return clamp( t, Vec3<T>( min_t ), max_t ); }
 403:/home/tienluong/workspace/atlantis_fw/AsicFwS2/include/matrix.h **** 
 404:/home/tienluong/workspace/atlantis_fw/AsicFwS2/include/matrix.h **** // template<typename T, typename U>
 405:/home/tienluong/workspace/atlantis_fw/AsicFwS2/include/matrix.h **** // typename std::enable_if<std::is_arithmetic<U>::value, Vec3<T> >::type
 406:/home/tienluong/workspace/atlantis_fw/AsicFwS2/include/matrix.h **** // clamp( const Vec3<T> & t, const Vec3<T> & min_t, U max_t )
 407:/home/tienluong/workspace/atlantis_fw/AsicFwS2/include/matrix.h **** // { return clamp( t, min_t, Vec3<T>( max_t ) ); }
 408:/home/tienluong/workspace/atlantis_fw/AsicFwS2/include/matrix.h **** 
 409:/home/tienluong/workspace/atlantis_fw/AsicFwS2/include/matrix.h **** // template<typename T, typename U, typename V>
 410:/home/tienluong/workspace/atlantis_fw/AsicFwS2/include/matrix.h **** // typename std::enable_if < std::is_arithmetic<U>::value && std::is_arithmetic<V>::value, Vec3<T> 
 411:/home/tienluong/workspace/atlantis_fw/AsicFwS2/include/matrix.h **** // clamp( const Vec3<T> & t, U min_t, V max_t )
 412:/home/tienluong/workspace/atlantis_fw/AsicFwS2/include/matrix.h **** // { return clamp( t, Vec3<T>( min_t ), Vec3<T>( max_t ) ); }
 413:/home/tienluong/workspace/atlantis_fw/AsicFwS2/include/matrix.h **** 
 414:/home/tienluong/workspace/atlantis_fw/AsicFwS2/include/matrix.h **** template<typename T>
 415:/home/tienluong/workspace/atlantis_fw/AsicFwS2/include/matrix.h **** Vec3<T> abs( const Vec3<T> & t ) { return t.abs(); }
 416:/home/tienluong/workspace/atlantis_fw/AsicFwS2/include/matrix.h **** 
 417:/home/tienluong/workspace/atlantis_fw/AsicFwS2/include/matrix.h **** // template<typename T>
 418:/home/tienluong/workspace/atlantis_fw/AsicFwS2/include/matrix.h **** // Vec3<T> sign( const Vec3<T> & t ) { return t.sign(); }
 419:/home/tienluong/workspace/atlantis_fw/AsicFwS2/include/matrix.h **** 
 420:/home/tienluong/workspace/atlantis_fw/AsicFwS2/include/matrix.h **** template<typename T>
 421:/home/tienluong/workspace/atlantis_fw/AsicFwS2/include/matrix.h **** typename std::enable_if<std::is_floating_point<T>::value, T>::type
 422:/home/tienluong/workspace/atlantis_fw/AsicFwS2/include/matrix.h **** length( const Vec3<T> & a )
 423:/home/tienluong/workspace/atlantis_fw/AsicFwS2/include/matrix.h **** { return std::sqrt( dot( a, a ) ); }
 424:/home/tienluong/workspace/atlantis_fw/AsicFwS2/include/matrix.h **** 
 425:/home/tienluong/workspace/atlantis_fw/AsicFwS2/include/matrix.h **** template<typename T>
 426:/home/tienluong/workspace/atlantis_fw/AsicFwS2/include/matrix.h **** typename std::enable_if<std::is_floating_point<T>::value, Vec3<T> >::type
 427:/home/tienluong/workspace/atlantis_fw/AsicFwS2/include/matrix.h **** sqrt( const Vec3<T> & a )
 428:/home/tienluong/workspace/atlantis_fw/AsicFwS2/include/matrix.h **** { return { std::sqrt( a.x() ), std::sqrt( a.y() ), std::sqrt( a.z() ) }; }
 429:/home/tienluong/workspace/atlantis_fw/AsicFwS2/include/matrix.h **** 
 430:/home/tienluong/workspace/atlantis_fw/AsicFwS2/include/matrix.h **** template<typename T>
 431:/home/tienluong/workspace/atlantis_fw/AsicFwS2/include/matrix.h **** typename std::enable_if<std::is_floating_point<T>::value, T>::type
 432:/home/tienluong/workspace/atlantis_fw/AsicFwS2/include/matrix.h **** squaredSum( const Vec3<T> & a )
 433:/home/tienluong/workspace/atlantis_fw/AsicFwS2/include/matrix.h **** { return dot( a, a ); }
 434:/home/tienluong/workspace/atlantis_fw/AsicFwS2/include/matrix.h **** 
 435:/home/tienluong/workspace/atlantis_fw/AsicFwS2/include/matrix.h **** template<typename T>
 436:/home/tienluong/workspace/atlantis_fw/AsicFwS2/include/matrix.h **** typename std::enable_if<std::is_floating_point<T>::value, Vec3<T> >::type
 437:/home/tienluong/workspace/atlantis_fw/AsicFwS2/include/matrix.h **** normalize( const Vec3<T> & a )
 438:/home/tienluong/workspace/atlantis_fw/AsicFwS2/include/matrix.h **** {
 439:/home/tienluong/workspace/atlantis_fw/AsicFwS2/include/matrix.h ****     return a / length( a );
 440:/home/tienluong/workspace/atlantis_fw/AsicFwS2/include/matrix.h **** }
 441:/home/tienluong/workspace/atlantis_fw/AsicFwS2/include/matrix.h **** 
 442:/home/tienluong/workspace/atlantis_fw/AsicFwS2/include/matrix.h **** // template<typename T>
 443:/home/tienluong/workspace/atlantis_fw/AsicFwS2/include/matrix.h **** // typename std::enable_if<std::is_floating_point<T>::value, Vec3<T> >::type
 444:/home/tienluong/workspace/atlantis_fw/AsicFwS2/include/matrix.h **** // pow( const Vec3<T> & a, const Vec3<T> & b )
 445:/home/tienluong/workspace/atlantis_fw/AsicFwS2/include/matrix.h **** // { return { std::pow( a.x(), b.x() ), std::pow( a.y(), b.y() ), std::pow( a.z(), b.z() ) }; }
 446:/home/tienluong/workspace/atlantis_fw/AsicFwS2/include/matrix.h **** 
 447:/home/tienluong/workspace/atlantis_fw/AsicFwS2/include/matrix.h **** // template<typename T>
 448:/home/tienluong/workspace/atlantis_fw/AsicFwS2/include/matrix.h **** // typename std::enable_if<std::is_floating_point<T>::value, Vec3<T> >::type
 449:/home/tienluong/workspace/atlantis_fw/AsicFwS2/include/matrix.h **** // pow( const Vec3<T> & a, T  b )
 450:/home/tienluong/workspace/atlantis_fw/AsicFwS2/include/matrix.h **** // { return { std::pow( a.x(), b ), std::pow( a.y(), b ), std::pow( a.z(), b ) }; }
 451:/home/tienluong/workspace/atlantis_fw/AsicFwS2/include/matrix.h **** 
 452:/home/tienluong/workspace/atlantis_fw/AsicFwS2/include/matrix.h **** // template<typename T>
 453:/home/tienluong/workspace/atlantis_fw/AsicFwS2/include/matrix.h **** // typename std::enable_if<std::is_floating_point<T>::value, Vec3<T> >::type
 454:/home/tienluong/workspace/atlantis_fw/AsicFwS2/include/matrix.h **** // pow( T a, const Vec3<T> & b )
 455:/home/tienluong/workspace/atlantis_fw/AsicFwS2/include/matrix.h **** // { return { std::pow( a, b.x() ), std::pow( a, b.y() ), std::pow( a, b.z() ) }; }
 456:/home/tienluong/workspace/atlantis_fw/AsicFwS2/include/matrix.h **** 
 457:/home/tienluong/workspace/atlantis_fw/AsicFwS2/include/matrix.h **** // template<typename T>
 458:/home/tienluong/workspace/atlantis_fw/AsicFwS2/include/matrix.h **** // typename std::enable_if<std::is_floating_point<T>::value, Vec3<T> >::type
 459:/home/tienluong/workspace/atlantis_fw/AsicFwS2/include/matrix.h **** // floor( const Vec3<T> & a )
 460:/home/tienluong/workspace/atlantis_fw/AsicFwS2/include/matrix.h **** // { return { std::floor( a.x() ), std::floor( a.y() ), std::floor( a.z() ) }; }
 461:/home/tienluong/workspace/atlantis_fw/AsicFwS2/include/matrix.h **** 
 462:/home/tienluong/workspace/atlantis_fw/AsicFwS2/include/matrix.h **** // template<typename T>
 463:/home/tienluong/workspace/atlantis_fw/AsicFwS2/include/matrix.h **** // typename std::enable_if<std::is_floating_point<T>::value, Vec3<T> >::type
 464:/home/tienluong/workspace/atlantis_fw/AsicFwS2/include/matrix.h **** // ceil( const Vec3<T> & a )
 465:/home/tienluong/workspace/atlantis_fw/AsicFwS2/include/matrix.h **** // { return { std::ceil( a.x() ), std::ceil( a.y() ), std::ceil( a.z() ) }; }
 466:/home/tienluong/workspace/atlantis_fw/AsicFwS2/include/matrix.h **** 
 467:/home/tienluong/workspace/atlantis_fw/AsicFwS2/include/matrix.h **** 
 468:/home/tienluong/workspace/atlantis_fw/AsicFwS2/include/matrix.h **** // -----------------------------------------------------------
 469:/home/tienluong/workspace/atlantis_fw/AsicFwS2/include/matrix.h **** // 			Vec4 class
 470:/home/tienluong/workspace/atlantis_fw/AsicFwS2/include/matrix.h **** // -----------------------------------------------------------
 471:/home/tienluong/workspace/atlantis_fw/AsicFwS2/include/matrix.h **** template<typename T>
 472:/home/tienluong/workspace/atlantis_fw/AsicFwS2/include/matrix.h **** class Vec4
 473:/home/tienluong/workspace/atlantis_fw/AsicFwS2/include/matrix.h **** {
 474:/home/tienluong/workspace/atlantis_fw/AsicFwS2/include/matrix.h **** public:
 475:/home/tienluong/workspace/atlantis_fw/AsicFwS2/include/matrix.h ****     Vec4() {}
 476:/home/tienluong/workspace/atlantis_fw/AsicFwS2/include/matrix.h ****     Vec4( T t ) : _x( t ), _y( t ), _z( t ), _a( t ) {}
 477:/home/tienluong/workspace/atlantis_fw/AsicFwS2/include/matrix.h ****     Vec4( T x, T y, T z, T a ) : _x( x ), _y( y ), _z( z ), _a ( a ){}
 478:/home/tienluong/workspace/atlantis_fw/AsicFwS2/include/matrix.h ****     Vec4( const Vec4 & t ) : _x( t._x ), _y( t._y ), _z( t._z ), _a( t._a ) {}
 479:/home/tienluong/workspace/atlantis_fw/AsicFwS2/include/matrix.h **** 
 480:/home/tienluong/workspace/atlantis_fw/AsicFwS2/include/matrix.h ****     template<typename U>
 481:/home/tienluong/workspace/atlantis_fw/AsicFwS2/include/matrix.h ****     explicit Vec4( const Vec4<U> & t )
 482:/home/tienluong/workspace/atlantis_fw/AsicFwS2/include/matrix.h ****         : _x( static_cast<T>( t.x() ) )
 483:/home/tienluong/workspace/atlantis_fw/AsicFwS2/include/matrix.h ****         , _y( static_cast<T>( t.y() ) )
 484:/home/tienluong/workspace/atlantis_fw/AsicFwS2/include/matrix.h ****         , _z( static_cast<T>( t.z() ) )
 485:/home/tienluong/workspace/atlantis_fw/AsicFwS2/include/matrix.h ****         , _a( static_cast<T>( t.a() ) ) {}
 486:/home/tienluong/workspace/atlantis_fw/AsicFwS2/include/matrix.h **** 
 487:/home/tienluong/workspace/atlantis_fw/AsicFwS2/include/matrix.h ****     Vec4 & operator=( const Vec4 & t )
 488:/home/tienluong/workspace/atlantis_fw/AsicFwS2/include/matrix.h ****     { _x = t._x; _y = t._y; _z = t._z; _a = t._a; return *this; }
 489:/home/tienluong/workspace/atlantis_fw/AsicFwS2/include/matrix.h **** 
 490:/home/tienluong/workspace/atlantis_fw/AsicFwS2/include/matrix.h ****     Vec4 & operator/=( const Vec4 & t )
 491:/home/tienluong/workspace/atlantis_fw/AsicFwS2/include/matrix.h ****     { _x /= t._x; _y /= t._y; _z /= t._z; _a /= t._a; return *this; }
 492:/home/tienluong/workspace/atlantis_fw/AsicFwS2/include/matrix.h **** 
 493:/home/tienluong/workspace/atlantis_fw/AsicFwS2/include/matrix.h ****     Vec4 & operator%=( const Vec4 & t )
 494:/home/tienluong/workspace/atlantis_fw/AsicFwS2/include/matrix.h ****     { _x %= t._x; _y %= t._y; _z %= t._z; _a %= t._a; return *this; }
 495:/home/tienluong/workspace/atlantis_fw/AsicFwS2/include/matrix.h **** 
 496:/home/tienluong/workspace/atlantis_fw/AsicFwS2/include/matrix.h ****     Vec4 & operator*=( const Vec4 & t )
 497:/home/tienluong/workspace/atlantis_fw/AsicFwS2/include/matrix.h ****     { _x *= t._x; _y *= t._y; _z *= t._z; _a *= t._a; return *this; }
 498:/home/tienluong/workspace/atlantis_fw/AsicFwS2/include/matrix.h **** 
 499:/home/tienluong/workspace/atlantis_fw/AsicFwS2/include/matrix.h ****     Vec4 & operator+=( const Vec4 & t )
 500:/home/tienluong/workspace/atlantis_fw/AsicFwS2/include/matrix.h ****     { _x += t._x; _y += t._y; _z += t._z; _a += t._a; return *this; }
 501:/home/tienluong/workspace/atlantis_fw/AsicFwS2/include/matrix.h **** 
 502:/home/tienluong/workspace/atlantis_fw/AsicFwS2/include/matrix.h ****     Vec4 & operator-=( const Vec4 & t )
 503:/home/tienluong/workspace/atlantis_fw/AsicFwS2/include/matrix.h ****     { _x -= t._x; _y -= t._y; _z -= t._z; _a -= t._a; return *this; }
 504:/home/tienluong/workspace/atlantis_fw/AsicFwS2/include/matrix.h **** 
 505:/home/tienluong/workspace/atlantis_fw/AsicFwS2/include/matrix.h ****     Vec4 operator-() const { return { -_x, -_y, _z, _a}; }
 506:/home/tienluong/workspace/atlantis_fw/AsicFwS2/include/matrix.h **** 
 507:/home/tienluong/workspace/atlantis_fw/AsicFwS2/include/matrix.h ****     Vec4<bool> operator==( const Vec4 & t ) const { return { _x == t._x, _y == t._y, _z == t._z, _a
 508:/home/tienluong/workspace/atlantis_fw/AsicFwS2/include/matrix.h ****     Vec4<bool> operator!=( const Vec4 & t ) const { return { _x != t._x, _y != t._y, _z != t._z, _a
 509:/home/tienluong/workspace/atlantis_fw/AsicFwS2/include/matrix.h ****     Vec4<bool> operator>=( const Vec4 & t ) const { return { _x >= t._x, _y >= t._y, _z >= t._z, _a
 510:/home/tienluong/workspace/atlantis_fw/AsicFwS2/include/matrix.h ****     Vec4<bool> operator>( const  Vec4 & t )  const { return { _x >  t._x, _y >  t._y, _z > t._z, _a
 511:/home/tienluong/workspace/atlantis_fw/AsicFwS2/include/matrix.h ****     Vec4<bool> operator<=( const Vec4 & t ) const { return { _x <= t._x, _y <= t._y, _z <= t._z, _a
 512:/home/tienluong/workspace/atlantis_fw/AsicFwS2/include/matrix.h ****     Vec4<bool> operator<( const  Vec4 & t )  const { return { _x <  t._x, _y <  t._y, _z <  t._z, _
 513:/home/tienluong/workspace/atlantis_fw/AsicFwS2/include/matrix.h **** 
 514:/home/tienluong/workspace/atlantis_fw/AsicFwS2/include/matrix.h ****     T min() const { return std::min( std::min( std::min( _x, _y ), _z ), _a); }
 515:/home/tienluong/workspace/atlantis_fw/AsicFwS2/include/matrix.h ****     T max() const { return std::max( std::max( std::max( _x, _y ), _z ), _a); }
 516:/home/tienluong/workspace/atlantis_fw/AsicFwS2/include/matrix.h ****     T sum() const { return _x + _y + _z + _a; }
 517:/home/tienluong/workspace/atlantis_fw/AsicFwS2/include/matrix.h ****     T dot( const Vec4<T> & t ) const { return _x * t.x() + _y * t.y() + _z * t.z() + _a * t.a(); }
 518:/home/tienluong/workspace/atlantis_fw/AsicFwS2/include/matrix.h **** 
 519:/home/tienluong/workspace/atlantis_fw/AsicFwS2/include/matrix.h ****     Vec4 abs() const { return { std::abs( _x ), std::abs( _y ), std::abs( _z ), std::abs( _a ) }; }
 520:/home/tienluong/workspace/atlantis_fw/AsicFwS2/include/matrix.h **** 
 521:/home/tienluong/workspace/atlantis_fw/AsicFwS2/include/matrix.h ****     const T & x() const { return _x; }
 522:/home/tienluong/workspace/atlantis_fw/AsicFwS2/include/matrix.h ****     const T & y() const { return _y; }
 523:/home/tienluong/workspace/atlantis_fw/AsicFwS2/include/matrix.h ****     const T & z() const { return _z; }
 524:/home/tienluong/workspace/atlantis_fw/AsicFwS2/include/matrix.h ****     const T & a() const { return _a; }
 525:/home/tienluong/workspace/atlantis_fw/AsicFwS2/include/matrix.h **** 
 526:/home/tienluong/workspace/atlantis_fw/AsicFwS2/include/matrix.h ****     void setX( T x ) { _x = x; }
 527:/home/tienluong/workspace/atlantis_fw/AsicFwS2/include/matrix.h ****     void setY( T y ) { _y = y; }
 528:/home/tienluong/workspace/atlantis_fw/AsicFwS2/include/matrix.h ****     void setZ( T z ) { _z = z; }
 529:/home/tienluong/workspace/atlantis_fw/AsicFwS2/include/matrix.h **** 	void setA( T a ) { _a = a; }
 530:/home/tienluong/workspace/atlantis_fw/AsicFwS2/include/matrix.h **** private:
 531:/home/tienluong/workspace/atlantis_fw/AsicFwS2/include/matrix.h ****     T _x, _y, _z, _a;
 532:/home/tienluong/workspace/atlantis_fw/AsicFwS2/include/matrix.h **** };
 533:/home/tienluong/workspace/atlantis_fw/AsicFwS2/include/matrix.h **** 
 534:/home/tienluong/workspace/atlantis_fw/AsicFwS2/include/matrix.h **** 
 535:/home/tienluong/workspace/atlantis_fw/AsicFwS2/include/matrix.h **** using Vec2f = Vec2<float>;
 536:/home/tienluong/workspace/atlantis_fw/AsicFwS2/include/matrix.h **** using Vec2d = Vec2<double>;
 537:/home/tienluong/workspace/atlantis_fw/AsicFwS2/include/matrix.h **** using Vec3u16 = Vec3<std::uint16_t>;
 538:/home/tienluong/workspace/atlantis_fw/AsicFwS2/include/matrix.h **** using Vec3f = Vec3<float>;
 539:/home/tienluong/workspace/atlantis_fw/AsicFwS2/include/matrix.h **** using Vec3d = Vec3<double>;
 540:/home/tienluong/workspace/atlantis_fw/AsicFwS2/include/matrix.h **** using Vec4f = Vec4<float>;
 541:/home/tienluong/workspace/atlantis_fw/AsicFwS2/include/matrix.h **** using Vec4d = Vec4<double>;
 542:/home/tienluong/workspace/atlantis_fw/AsicFwS2/include/matrix.h **** 
 543:/home/tienluong/workspace/atlantis_fw/AsicFwS2/include/matrix.h **** 
 544:/home/tienluong/workspace/atlantis_fw/AsicFwS2/include/matrix.h **** // -----------------------------------------------------------
 545:/home/tienluong/workspace/atlantis_fw/AsicFwS2/include/matrix.h **** // 			Matrix class
 546:/home/tienluong/workspace/atlantis_fw/AsicFwS2/include/matrix.h **** // -----------------------------------------------------------
 547:/home/tienluong/workspace/atlantis_fw/AsicFwS2/include/matrix.h **** namespace Internal
 548:/home/tienluong/workspace/atlantis_fw/AsicFwS2/include/matrix.h **** {
 549:/home/tienluong/workspace/atlantis_fw/AsicFwS2/include/matrix.h **** 
 550:/home/tienluong/workspace/atlantis_fw/AsicFwS2/include/matrix.h **** template<typename T, int R, int C>
 551:/home/tienluong/workspace/atlantis_fw/AsicFwS2/include/matrix.h **** class MatrixStorage
 552:/home/tienluong/workspace/atlantis_fw/AsicFwS2/include/matrix.h **** {
 553:/home/tienluong/workspace/atlantis_fw/AsicFwS2/include/matrix.h **** public:
 554:/home/tienluong/workspace/atlantis_fw/AsicFwS2/include/matrix.h ****     MatrixStorage() {}
 555:/home/tienluong/workspace/atlantis_fw/AsicFwS2/include/matrix.h **** protected:
 556:/home/tienluong/workspace/atlantis_fw/AsicFwS2/include/matrix.h ****     T _data[R * C];
 557:/home/tienluong/workspace/atlantis_fw/AsicFwS2/include/matrix.h **** };
 558:/home/tienluong/workspace/atlantis_fw/AsicFwS2/include/matrix.h **** 
 559:/home/tienluong/workspace/atlantis_fw/AsicFwS2/include/matrix.h **** #if 0
 560:/home/tienluong/workspace/atlantis_fw/AsicFwS2/include/matrix.h **** /// Some Matrix types require aligned storage due to SIMD acceleration
 561:/home/tienluong/workspace/atlantis_fw/AsicFwS2/include/matrix.h **** template<>
 562:/home/tienluong/workspace/atlantis_fw/AsicFwS2/include/matrix.h **** class MatrixStorage<float, 4, 4>
 563:/home/tienluong/workspace/atlantis_fw/AsicFwS2/include/matrix.h **** {
 564:/home/tienluong/workspace/atlantis_fw/AsicFwS2/include/matrix.h **** public:
 565:/home/tienluong/workspace/atlantis_fw/AsicFwS2/include/matrix.h ****     MatrixStorage() {}
 566:/home/tienluong/workspace/atlantis_fw/AsicFwS2/include/matrix.h **** protected:
 567:/home/tienluong/workspace/atlantis_fw/AsicFwS2/include/matrix.h ****     alignas( 16 ) float _data[16];
 568:/home/tienluong/workspace/atlantis_fw/AsicFwS2/include/matrix.h **** };
 569:/home/tienluong/workspace/atlantis_fw/AsicFwS2/include/matrix.h **** #endif
 570:/home/tienluong/workspace/atlantis_fw/AsicFwS2/include/matrix.h **** } // Internal namespace
 571:/home/tienluong/workspace/atlantis_fw/AsicFwS2/include/matrix.h **** 
 572:/home/tienluong/workspace/atlantis_fw/AsicFwS2/include/matrix.h **** template<typename T, int R, int C, bool RowMajor = true>
 573:/home/tienluong/workspace/atlantis_fw/AsicFwS2/include/matrix.h **** class Matrix : public Internal::MatrixStorage<T, R, C>
 574:/home/tienluong/workspace/atlantis_fw/AsicFwS2/include/matrix.h **** {
 575:/home/tienluong/workspace/atlantis_fw/AsicFwS2/include/matrix.h ****     //static_assert( std::is_floating_point<T>::value, "Matrix template class requires floating poi
 576:/home/tienluong/workspace/atlantis_fw/AsicFwS2/include/matrix.h ****     static constexpr int kSize = R * C;
 577:/home/tienluong/workspace/atlantis_fw/AsicFwS2/include/matrix.h **** 
 578:/home/tienluong/workspace/atlantis_fw/AsicFwS2/include/matrix.h ****     static inline constexpr int Idx( int row, int col )
 579:/home/tienluong/workspace/atlantis_fw/AsicFwS2/include/matrix.h ****     {
 580:/home/tienluong/workspace/atlantis_fw/AsicFwS2/include/matrix.h ****         return RowMajor ? row * C + col : col * R + row;
 581:/home/tienluong/workspace/atlantis_fw/AsicFwS2/include/matrix.h ****     }
 582:/home/tienluong/workspace/atlantis_fw/AsicFwS2/include/matrix.h **** 
 583:/home/tienluong/workspace/atlantis_fw/AsicFwS2/include/matrix.h **** public:
 584:/home/tienluong/workspace/atlantis_fw/AsicFwS2/include/matrix.h ****     using ScalarType = T;
 585:/home/tienluong/workspace/atlantis_fw/AsicFwS2/include/matrix.h **** 
 586:/home/tienluong/workspace/atlantis_fw/AsicFwS2/include/matrix.h ****     static constexpr int kRows = R;
 587:/home/tienluong/workspace/atlantis_fw/AsicFwS2/include/matrix.h ****     static constexpr int kCols = C;
 588:/home/tienluong/workspace/atlantis_fw/AsicFwS2/include/matrix.h **** 
 589:/home/tienluong/workspace/atlantis_fw/AsicFwS2/include/matrix.h ****     Matrix() { }
 590:/home/tienluong/workspace/atlantis_fw/AsicFwS2/include/matrix.h **** 
 591:/home/tienluong/workspace/atlantis_fw/AsicFwS2/include/matrix.h ****     Matrix( const Matrix<T, R, C, true> & src ) { *this = src; }
 592:/home/tienluong/workspace/atlantis_fw/AsicFwS2/include/matrix.h **** 
 593:/home/tienluong/workspace/atlantis_fw/AsicFwS2/include/matrix.h ****     Matrix( const Matrix<T, R, C, false> & src ) { *this = src; }
 594:/home/tienluong/workspace/atlantis_fw/AsicFwS2/include/matrix.h **** 
 595:/home/tienluong/workspace/atlantis_fw/AsicFwS2/include/matrix.h ****     /// Input in row-major order.
 596:/home/tienluong/workspace/atlantis_fw/AsicFwS2/include/matrix.h ****     Matrix( std::initializer_list<T> list ) { *this = list; }
 597:/home/tienluong/workspace/atlantis_fw/AsicFwS2/include/matrix.h **** 
 598:/home/tienluong/workspace/atlantis_fw/AsicFwS2/include/matrix.h ****     /// Input in row-major order.
 599:/home/tienluong/workspace/atlantis_fw/AsicFwS2/include/matrix.h ****     explicit Matrix( const std::vector<T> & data ) { *this = data; }
 600:/home/tienluong/workspace/atlantis_fw/AsicFwS2/include/matrix.h **** 
 601:/home/tienluong/workspace/atlantis_fw/AsicFwS2/include/matrix.h ****     /// Input in row-major order.
 602:/home/tienluong/workspace/atlantis_fw/AsicFwS2/include/matrix.h ****     explicit Matrix( const T * ptr )
 603:/home/tienluong/workspace/atlantis_fw/AsicFwS2/include/matrix.h ****     {
 604:/home/tienluong/workspace/atlantis_fw/AsicFwS2/include/matrix.h ****         for( int i = 0; i < R; ++i )
 605:/home/tienluong/workspace/atlantis_fw/AsicFwS2/include/matrix.h ****         {
 606:/home/tienluong/workspace/atlantis_fw/AsicFwS2/include/matrix.h ****             for( int j = 0; j < C; ++j )
 607:/home/tienluong/workspace/atlantis_fw/AsicFwS2/include/matrix.h ****             { this->_data[Idx( i, j )] = ptr[i * C + j]; }
 608:/home/tienluong/workspace/atlantis_fw/AsicFwS2/include/matrix.h ****         }
 609:/home/tienluong/workspace/atlantis_fw/AsicFwS2/include/matrix.h ****     }
 610:/home/tienluong/workspace/atlantis_fw/AsicFwS2/include/matrix.h **** 
 611:/home/tienluong/workspace/atlantis_fw/AsicFwS2/include/matrix.h ****     // generic size/type converting constructor
 612:/home/tienluong/workspace/atlantis_fw/AsicFwS2/include/matrix.h ****     // performs matrix truncation/expansion if necessary
 613:/home/tienluong/workspace/atlantis_fw/AsicFwS2/include/matrix.h ****     template<typename U, int M, int N, bool D>
 614:/home/tienluong/workspace/atlantis_fw/AsicFwS2/include/matrix.h ****     explicit Matrix( const Matrix<U, M, N, D> & src )
 615:/home/tienluong/workspace/atlantis_fw/AsicFwS2/include/matrix.h ****     {
 616:/home/tienluong/workspace/atlantis_fw/AsicFwS2/include/matrix.h ****         constexpr int kMinRow = M < R ? M : R;
 617:/home/tienluong/workspace/atlantis_fw/AsicFwS2/include/matrix.h ****         constexpr int kMinCol = N < C ? N : C;
 618:/home/tienluong/workspace/atlantis_fw/AsicFwS2/include/matrix.h ****         for( int i = 0; i < kMinRow; ++i )
 619:/home/tienluong/workspace/atlantis_fw/AsicFwS2/include/matrix.h ****         {
 620:/home/tienluong/workspace/atlantis_fw/AsicFwS2/include/matrix.h ****             for( int j = 0; j < kMinCol; ++j )
 621:/home/tienluong/workspace/atlantis_fw/AsicFwS2/include/matrix.h ****             { this->_data[Idx( i, j )] = static_cast<T>( src( i, j ) ); }
 622:/home/tienluong/workspace/atlantis_fw/AsicFwS2/include/matrix.h ****             for( int j = kMinCol; j < C; ++j )
 623:/home/tienluong/workspace/atlantis_fw/AsicFwS2/include/matrix.h ****             { this->_data[Idx( i, j )] = i == j ? T{1} : T{0}; }
 624:/home/tienluong/workspace/atlantis_fw/AsicFwS2/include/matrix.h ****         }
 625:/home/tienluong/workspace/atlantis_fw/AsicFwS2/include/matrix.h ****         for( int i = kMinRow; i < R; ++i )
 626:/home/tienluong/workspace/atlantis_fw/AsicFwS2/include/matrix.h ****         {
 627:/home/tienluong/workspace/atlantis_fw/AsicFwS2/include/matrix.h ****             for( int j = 0; j < C; ++j )
 628:/home/tienluong/workspace/atlantis_fw/AsicFwS2/include/matrix.h ****             { this->_data[Idx( i, j )] = i == j ? T{1} : T{0}; }
 629:/home/tienluong/workspace/atlantis_fw/AsicFwS2/include/matrix.h ****         }
 630:/home/tienluong/workspace/atlantis_fw/AsicFwS2/include/matrix.h ****     }
 631:/home/tienluong/workspace/atlantis_fw/AsicFwS2/include/matrix.h **** 
 632:/home/tienluong/workspace/atlantis_fw/AsicFwS2/include/matrix.h ****     template<int M, int N, bool D>
 633:/home/tienluong/workspace/atlantis_fw/AsicFwS2/include/matrix.h ****     Matrix & operator=( const Matrix<T, M, N, D> & src )
 634:/home/tienluong/workspace/atlantis_fw/AsicFwS2/include/matrix.h ****     {
 635:/home/tienluong/workspace/atlantis_fw/AsicFwS2/include/matrix.h ****         static_assert( R == M && C == N, "matrix size mismatch!" );
 636:/home/tienluong/workspace/atlantis_fw/AsicFwS2/include/matrix.h ****         if( RowMajor == D )
 637:/home/tienluong/workspace/atlantis_fw/AsicFwS2/include/matrix.h ****         {
 638:/home/tienluong/workspace/atlantis_fw/AsicFwS2/include/matrix.h ****             // same element ordering, just copy the elements
 639:/home/tienluong/workspace/atlantis_fw/AsicFwS2/include/matrix.h ****             const T * src_ptr = src.data();
 640:/home/tienluong/workspace/atlantis_fw/AsicFwS2/include/matrix.h ****             for( int i = 0; i < kSize; ++i ) { this->_data[i] = src_ptr[i]; }
 641:/home/tienluong/workspace/atlantis_fw/AsicFwS2/include/matrix.h ****         }
 642:/home/tienluong/workspace/atlantis_fw/AsicFwS2/include/matrix.h ****         else
 643:/home/tienluong/workspace/atlantis_fw/AsicFwS2/include/matrix.h ****         {
 644:/home/tienluong/workspace/atlantis_fw/AsicFwS2/include/matrix.h ****             // different element ordering requires a transpose
 645:/home/tienluong/workspace/atlantis_fw/AsicFwS2/include/matrix.h ****             for( int i = 0; i < R; ++i )
 646:/home/tienluong/workspace/atlantis_fw/AsicFwS2/include/matrix.h ****             {
 647:/home/tienluong/workspace/atlantis_fw/AsicFwS2/include/matrix.h ****                 for( int j = 0; j < C; ++j )
 648:/home/tienluong/workspace/atlantis_fw/AsicFwS2/include/matrix.h ****                 { this->_data[Idx( i, j )] = src( i, j ); }
 649:/home/tienluong/workspace/atlantis_fw/AsicFwS2/include/matrix.h ****             }
 650:/home/tienluong/workspace/atlantis_fw/AsicFwS2/include/matrix.h ****         }
 651:/home/tienluong/workspace/atlantis_fw/AsicFwS2/include/matrix.h ****         return *this;
 652:/home/tienluong/workspace/atlantis_fw/AsicFwS2/include/matrix.h ****     }
 653:/home/tienluong/workspace/atlantis_fw/AsicFwS2/include/matrix.h **** 
 654:/home/tienluong/workspace/atlantis_fw/AsicFwS2/include/matrix.h ****     /// Input in row-major order.
 655:/home/tienluong/workspace/atlantis_fw/AsicFwS2/include/matrix.h ****     Matrix & operator=( const std::vector<T> & src )
 656:/home/tienluong/workspace/atlantis_fw/AsicFwS2/include/matrix.h ****     {
 657:/home/tienluong/workspace/atlantis_fw/AsicFwS2/include/matrix.h ****         //if( src.size() != kSize )
 658:/home/tienluong/workspace/atlantis_fw/AsicFwS2/include/matrix.h ****         //{ LT_THROW( "source data and matrix size mismatch!" ); }
 659:/home/tienluong/workspace/atlantis_fw/AsicFwS2/include/matrix.h **** 
 660:/home/tienluong/workspace/atlantis_fw/AsicFwS2/include/matrix.h ****         auto it = src.begin();
 661:/home/tienluong/workspace/atlantis_fw/AsicFwS2/include/matrix.h ****         for( int i = 0; i < R; ++i )
 662:/home/tienluong/workspace/atlantis_fw/AsicFwS2/include/matrix.h ****         {
 663:/home/tienluong/workspace/atlantis_fw/AsicFwS2/include/matrix.h ****             for( int j = 0; j < C; ++j, ++it )
 664:/home/tienluong/workspace/atlantis_fw/AsicFwS2/include/matrix.h ****             { this->_data[Idx( i, j )] = *it; }
 665:/home/tienluong/workspace/atlantis_fw/AsicFwS2/include/matrix.h ****         }
 666:/home/tienluong/workspace/atlantis_fw/AsicFwS2/include/matrix.h **** 
 667:/home/tienluong/workspace/atlantis_fw/AsicFwS2/include/matrix.h ****         return *this;
 668:/home/tienluong/workspace/atlantis_fw/AsicFwS2/include/matrix.h ****     }
 669:/home/tienluong/workspace/atlantis_fw/AsicFwS2/include/matrix.h **** 
 670:/home/tienluong/workspace/atlantis_fw/AsicFwS2/include/matrix.h ****     /// Input in row-major order.
 671:/home/tienluong/workspace/atlantis_fw/AsicFwS2/include/matrix.h ****     Matrix & operator=( const std::initializer_list<T> src )
 672:/home/tienluong/workspace/atlantis_fw/AsicFwS2/include/matrix.h ****     {
 673:/home/tienluong/workspace/atlantis_fw/AsicFwS2/include/matrix.h ****         //if( src.size() != kSize )
 674:/home/tienluong/workspace/atlantis_fw/AsicFwS2/include/matrix.h ****         //{ LT_THROW( "source data and matrix size mismatch!" ); }
 675:/home/tienluong/workspace/atlantis_fw/AsicFwS2/include/matrix.h **** 
 676:/home/tienluong/workspace/atlantis_fw/AsicFwS2/include/matrix.h ****         auto it = src.begin();
 677:/home/tienluong/workspace/atlantis_fw/AsicFwS2/include/matrix.h ****         for( int i = 0; i < R; ++i )
 678:/home/tienluong/workspace/atlantis_fw/AsicFwS2/include/matrix.h ****         {
 679:/home/tienluong/workspace/atlantis_fw/AsicFwS2/include/matrix.h ****             for( int j = 0; j < C; ++j, ++it )
 680:/home/tienluong/workspace/atlantis_fw/AsicFwS2/include/matrix.h ****             { this->_data[Idx( i, j )] = *it; }
 681:/home/tienluong/workspace/atlantis_fw/AsicFwS2/include/matrix.h ****         }
 682:/home/tienluong/workspace/atlantis_fw/AsicFwS2/include/matrix.h **** 
 683:/home/tienluong/workspace/atlantis_fw/AsicFwS2/include/matrix.h ****         return *this;
 684:/home/tienluong/workspace/atlantis_fw/AsicFwS2/include/matrix.h ****     }
 685:/home/tienluong/workspace/atlantis_fw/AsicFwS2/include/matrix.h **** 
 686:/home/tienluong/workspace/atlantis_fw/AsicFwS2/include/matrix.h ****     Matrix & operator=( T scalar )
 687:/home/tienluong/workspace/atlantis_fw/AsicFwS2/include/matrix.h ****     {
 688:/home/tienluong/workspace/atlantis_fw/AsicFwS2/include/matrix.h ****         for( int i = 0; i < kSize; ++i ) { this->_data[i] = scalar; }
 689:/home/tienluong/workspace/atlantis_fw/AsicFwS2/include/matrix.h ****         return *this;
 690:/home/tienluong/workspace/atlantis_fw/AsicFwS2/include/matrix.h ****     }
 691:/home/tienluong/workspace/atlantis_fw/AsicFwS2/include/matrix.h **** 
 692:/home/tienluong/workspace/atlantis_fw/AsicFwS2/include/matrix.h ****     template<typename U, int M, int N, bool D>
 693:/home/tienluong/workspace/atlantis_fw/AsicFwS2/include/matrix.h ****     bool operator==( const Matrix<U, M, N, D> & mat ) const
 694:/home/tienluong/workspace/atlantis_fw/AsicFwS2/include/matrix.h ****     {
 695:/home/tienluong/workspace/atlantis_fw/AsicFwS2/include/matrix.h ****         static_assert( R == M && C == N, "matrix size mismatch!" );
 696:/home/tienluong/workspace/atlantis_fw/AsicFwS2/include/matrix.h ****         for( int i = 0; i < R; ++i )
 697:/home/tienluong/workspace/atlantis_fw/AsicFwS2/include/matrix.h ****         {
 698:/home/tienluong/workspace/atlantis_fw/AsicFwS2/include/matrix.h ****             for( int j = 0; j < C; ++j )
 699:/home/tienluong/workspace/atlantis_fw/AsicFwS2/include/matrix.h ****             { if( this->_data[Idx( i, j )] != mat( i, j ) ) { return false; } }
 700:/home/tienluong/workspace/atlantis_fw/AsicFwS2/include/matrix.h ****         }
 701:/home/tienluong/workspace/atlantis_fw/AsicFwS2/include/matrix.h ****         return true;
 702:/home/tienluong/workspace/atlantis_fw/AsicFwS2/include/matrix.h ****     }
 703:/home/tienluong/workspace/atlantis_fw/AsicFwS2/include/matrix.h **** 
 704:/home/tienluong/workspace/atlantis_fw/AsicFwS2/include/matrix.h ****     template<typename U, int M, int N, bool D>
 705:/home/tienluong/workspace/atlantis_fw/AsicFwS2/include/matrix.h ****     bool operator!=( const Matrix<U, M, N, D> & mat ) const
 706:/home/tienluong/workspace/atlantis_fw/AsicFwS2/include/matrix.h ****     { return !( *this == mat ); }
 707:/home/tienluong/workspace/atlantis_fw/AsicFwS2/include/matrix.h **** 
 708:/home/tienluong/workspace/atlantis_fw/AsicFwS2/include/matrix.h ****     const T * data() const { return this->_data; }
 709:/home/tienluong/workspace/atlantis_fw/AsicFwS2/include/matrix.h ****     T * data() { return this->_data; }
 710:/home/tienluong/workspace/atlantis_fw/AsicFwS2/include/matrix.h **** 
 711:/home/tienluong/workspace/atlantis_fw/AsicFwS2/include/matrix.h ****     T & operator()( int r, int c ) { return this->_data[Idx( r, c )]; }
 712:/home/tienluong/workspace/atlantis_fw/AsicFwS2/include/matrix.h ****     const T & operator()( int r, int c ) const { return this->_data[Idx( r, c )]; }
 713:/home/tienluong/workspace/atlantis_fw/AsicFwS2/include/matrix.h **** 
 714:/home/tienluong/workspace/atlantis_fw/AsicFwS2/include/matrix.h ****     template<int M, int N, bool D>
 715:/home/tienluong/workspace/atlantis_fw/AsicFwS2/include/matrix.h ****     Matrix<T, R, N> operator*( const Matrix<T, M, N, D> & mat ) const
 716:/home/tienluong/workspace/atlantis_fw/AsicFwS2/include/matrix.h ****     {
 717:/home/tienluong/workspace/atlantis_fw/AsicFwS2/include/matrix.h ****         static_assert( C == M, "invalid matrix product!" );
 718:/home/tienluong/workspace/atlantis_fw/AsicFwS2/include/matrix.h ****         Matrix<T, R, N> rval;
 719:/home/tienluong/workspace/atlantis_fw/AsicFwS2/include/matrix.h **** 
 720:/home/tienluong/workspace/atlantis_fw/AsicFwS2/include/matrix.h ****         // XXX: is this code actually more SIMD-friendly than a naive implementation?
 721:/home/tienluong/workspace/atlantis_fw/AsicFwS2/include/matrix.h ****         for( int i = 0; i < R; ++i )
 722:/home/tienluong/workspace/atlantis_fw/AsicFwS2/include/matrix.h ****         {
 723:/home/tienluong/workspace/atlantis_fw/AsicFwS2/include/matrix.h ****             // set 1st row
 724:/home/tienluong/workspace/atlantis_fw/AsicFwS2/include/matrix.h ****             for( int j = 0; j < N; ++j )
 725:/home/tienluong/workspace/atlantis_fw/AsicFwS2/include/matrix.h ****             { rval( i, j ) = this->_data[Idx( i, 0 )] * mat( 0, j ); }
 726:/home/tienluong/workspace/atlantis_fw/AsicFwS2/include/matrix.h ****             // accum n-th row
 727:/home/tienluong/workspace/atlantis_fw/AsicFwS2/include/matrix.h ****             for( int k = 1; k < M; ++k )
 728:/home/tienluong/workspace/atlantis_fw/AsicFwS2/include/matrix.h ****             {
 729:/home/tienluong/workspace/atlantis_fw/AsicFwS2/include/matrix.h ****                 for( int j = 0; j < N; ++j )
 730:/home/tienluong/workspace/atlantis_fw/AsicFwS2/include/matrix.h ****                 { rval( i, j ) += this->_data[Idx( i, k )] * mat( k, j ); }
 731:/home/tienluong/workspace/atlantis_fw/AsicFwS2/include/matrix.h ****             }
 732:/home/tienluong/workspace/atlantis_fw/AsicFwS2/include/matrix.h ****         }
 733:/home/tienluong/workspace/atlantis_fw/AsicFwS2/include/matrix.h ****         return rval;
 734:/home/tienluong/workspace/atlantis_fw/AsicFwS2/include/matrix.h ****     }
 735:/home/tienluong/workspace/atlantis_fw/AsicFwS2/include/matrix.h **** 
 736:/home/tienluong/workspace/atlantis_fw/AsicFwS2/include/matrix.h ****     template<int M, int N, bool D>
 737:/home/tienluong/workspace/atlantis_fw/AsicFwS2/include/matrix.h ****     Matrix & operator *=( const Matrix<T, M, N, D> & mat )
 738:/home/tienluong/workspace/atlantis_fw/AsicFwS2/include/matrix.h ****     {
 739:/home/tienluong/workspace/atlantis_fw/AsicFwS2/include/matrix.h ****         *this = *this * mat;
 740:/home/tienluong/workspace/atlantis_fw/AsicFwS2/include/matrix.h ****         return *this;
 741:/home/tienluong/workspace/atlantis_fw/AsicFwS2/include/matrix.h ****     }
 742:/home/tienluong/workspace/atlantis_fw/AsicFwS2/include/matrix.h **** 
 743:/home/tienluong/workspace/atlantis_fw/AsicFwS2/include/matrix.h ****     template<int M, int N, bool D>
 744:/home/tienluong/workspace/atlantis_fw/AsicFwS2/include/matrix.h ****     Matrix & operator +=( const Matrix<T, M, N, D> & mat )
 745:/home/tienluong/workspace/atlantis_fw/AsicFwS2/include/matrix.h ****     {
 746:/home/tienluong/workspace/atlantis_fw/AsicFwS2/include/matrix.h ****         static_assert( R == M && C == N, "matrix size mismatch!" );
 747:/home/tienluong/workspace/atlantis_fw/AsicFwS2/include/matrix.h ****         for( int i = 0; i < R; ++i )
 748:/home/tienluong/workspace/atlantis_fw/AsicFwS2/include/matrix.h ****         {
 749:/home/tienluong/workspace/atlantis_fw/AsicFwS2/include/matrix.h ****             for( int j = 0; j < C; ++j )
 750:/home/tienluong/workspace/atlantis_fw/AsicFwS2/include/matrix.h ****             { this->_data[Idx( i, j )] += mat( i, j ); }
 751:/home/tienluong/workspace/atlantis_fw/AsicFwS2/include/matrix.h ****         }
 752:/home/tienluong/workspace/atlantis_fw/AsicFwS2/include/matrix.h ****         return *this;
 753:/home/tienluong/workspace/atlantis_fw/AsicFwS2/include/matrix.h ****     }
 754:/home/tienluong/workspace/atlantis_fw/AsicFwS2/include/matrix.h **** 
 755:/home/tienluong/workspace/atlantis_fw/AsicFwS2/include/matrix.h ****     template<int M, int N, bool D>
 756:/home/tienluong/workspace/atlantis_fw/AsicFwS2/include/matrix.h ****     Matrix & operator -=( const Matrix<T, M, N, D> & mat )
 757:/home/tienluong/workspace/atlantis_fw/AsicFwS2/include/matrix.h ****     {
 758:/home/tienluong/workspace/atlantis_fw/AsicFwS2/include/matrix.h ****         static_assert( R == M && C == N, "matrix size mismatch!" );
 759:/home/tienluong/workspace/atlantis_fw/AsicFwS2/include/matrix.h ****         for( int i = 0; i < R; ++i )
 760:/home/tienluong/workspace/atlantis_fw/AsicFwS2/include/matrix.h ****         {
 761:/home/tienluong/workspace/atlantis_fw/AsicFwS2/include/matrix.h ****             for( int j = 0; j < C; ++j )
 762:/home/tienluong/workspace/atlantis_fw/AsicFwS2/include/matrix.h ****             { this->_data[Idx( i, j )] -= mat( i, j ); }
 763:/home/tienluong/workspace/atlantis_fw/AsicFwS2/include/matrix.h ****         }
 764:/home/tienluong/workspace/atlantis_fw/AsicFwS2/include/matrix.h ****         return *this;
 765:/home/tienluong/workspace/atlantis_fw/AsicFwS2/include/matrix.h ****     }
 766:/home/tienluong/workspace/atlantis_fw/AsicFwS2/include/matrix.h **** 
 767:/home/tienluong/workspace/atlantis_fw/AsicFwS2/include/matrix.h ****     Matrix & operator *=( T scalar )
 768:/home/tienluong/workspace/atlantis_fw/AsicFwS2/include/matrix.h ****     {
 769:/home/tienluong/workspace/atlantis_fw/AsicFwS2/include/matrix.h ****         for( int i = 0; i < kSize; ++i ) { this->_data[i] *= scalar; }
 770:/home/tienluong/workspace/atlantis_fw/AsicFwS2/include/matrix.h ****         return *this;
 771:/home/tienluong/workspace/atlantis_fw/AsicFwS2/include/matrix.h ****     }
 772:/home/tienluong/workspace/atlantis_fw/AsicFwS2/include/matrix.h **** 
 773:/home/tienluong/workspace/atlantis_fw/AsicFwS2/include/matrix.h ****     Matrix & operator +=( T scalar )
 774:/home/tienluong/workspace/atlantis_fw/AsicFwS2/include/matrix.h ****     {
 775:/home/tienluong/workspace/atlantis_fw/AsicFwS2/include/matrix.h ****         for( int i = 0; i < kSize; ++i ) { this->_data[i] += scalar; }
 776:/home/tienluong/workspace/atlantis_fw/AsicFwS2/include/matrix.h ****         return *this;
 777:/home/tienluong/workspace/atlantis_fw/AsicFwS2/include/matrix.h ****     }
 778:/home/tienluong/workspace/atlantis_fw/AsicFwS2/include/matrix.h **** 
 779:/home/tienluong/workspace/atlantis_fw/AsicFwS2/include/matrix.h ****     Matrix & operator /=( T scalar )
 780:/home/tienluong/workspace/atlantis_fw/AsicFwS2/include/matrix.h ****     {
 781:/home/tienluong/workspace/atlantis_fw/AsicFwS2/include/matrix.h ****         scalar = 1.0f / scalar;
 782:/home/tienluong/workspace/atlantis_fw/AsicFwS2/include/matrix.h ****         for( int i = 0; i < kSize; ++i ) { this->_data[i] *= scalar; }
 783:/home/tienluong/workspace/atlantis_fw/AsicFwS2/include/matrix.h ****         return *this;
 784:/home/tienluong/workspace/atlantis_fw/AsicFwS2/include/matrix.h ****     }
 785:/home/tienluong/workspace/atlantis_fw/AsicFwS2/include/matrix.h **** 
 786:/home/tienluong/workspace/atlantis_fw/AsicFwS2/include/matrix.h ****     Matrix & operator -=( T scalar )
 787:/home/tienluong/workspace/atlantis_fw/AsicFwS2/include/matrix.h ****     {
 788:/home/tienluong/workspace/atlantis_fw/AsicFwS2/include/matrix.h ****         for( int i = 0; i < kSize; ++i ) { this->_data[i] -= scalar; }
 789:/home/tienluong/workspace/atlantis_fw/AsicFwS2/include/matrix.h ****         return *this;
 790:/home/tienluong/workspace/atlantis_fw/AsicFwS2/include/matrix.h ****     }
 791:/home/tienluong/workspace/atlantis_fw/AsicFwS2/include/matrix.h **** 
 792:/home/tienluong/workspace/atlantis_fw/AsicFwS2/include/matrix.h ****     template<int M, int N, bool D>
 793:/home/tienluong/workspace/atlantis_fw/AsicFwS2/include/matrix.h ****     Matrix operator+( const Matrix<T, M, N, D> & mat ) const
 794:/home/tienluong/workspace/atlantis_fw/AsicFwS2/include/matrix.h ****     { Matrix rval{*this}; rval += mat; return rval; }
 795:/home/tienluong/workspace/atlantis_fw/AsicFwS2/include/matrix.h **** 
 796:/home/tienluong/workspace/atlantis_fw/AsicFwS2/include/matrix.h ****     template<int M, int N, bool D>
 797:/home/tienluong/workspace/atlantis_fw/AsicFwS2/include/matrix.h ****     Matrix operator-( const Matrix<T, M, N, D> & mat ) const
 798:/home/tienluong/workspace/atlantis_fw/AsicFwS2/include/matrix.h ****     { Matrix rval{*this}; rval -= mat; return rval; }
 799:/home/tienluong/workspace/atlantis_fw/AsicFwS2/include/matrix.h **** 
 800:/home/tienluong/workspace/atlantis_fw/AsicFwS2/include/matrix.h ****     Matrix operator*( T scalar ) const
 801:/home/tienluong/workspace/atlantis_fw/AsicFwS2/include/matrix.h ****     { Matrix rval{*this}; rval *= scalar; return rval; }
 802:/home/tienluong/workspace/atlantis_fw/AsicFwS2/include/matrix.h **** 
 803:/home/tienluong/workspace/atlantis_fw/AsicFwS2/include/matrix.h ****     Matrix operator+( T scalar ) const
 804:/home/tienluong/workspace/atlantis_fw/AsicFwS2/include/matrix.h ****     { Matrix rval{*this}; rval += scalar; return rval; }
 805:/home/tienluong/workspace/atlantis_fw/AsicFwS2/include/matrix.h **** 
 806:/home/tienluong/workspace/atlantis_fw/AsicFwS2/include/matrix.h ****     Matrix operator-( T scalar ) const
 807:/home/tienluong/workspace/atlantis_fw/AsicFwS2/include/matrix.h ****     { Matrix rval{*this}; rval -= scalar; return rval; }
 808:/home/tienluong/workspace/atlantis_fw/AsicFwS2/include/matrix.h **** 
 809:/home/tienluong/workspace/atlantis_fw/AsicFwS2/include/matrix.h ****     Matrix operator/( T scalar ) const
 810:/home/tienluong/workspace/atlantis_fw/AsicFwS2/include/matrix.h ****     { Matrix rval{*this}; rval /= scalar; return rval; }
 811:/home/tienluong/workspace/atlantis_fw/AsicFwS2/include/matrix.h **** 
 812:/home/tienluong/workspace/atlantis_fw/AsicFwS2/include/matrix.h ****     Matrix<T, 1, C> row( int i ) const
 813:/home/tienluong/workspace/atlantis_fw/AsicFwS2/include/matrix.h ****     {
 814:/home/tienluong/workspace/atlantis_fw/AsicFwS2/include/matrix.h ****         Matrix<T, 1, C> rval;
 815:/home/tienluong/workspace/atlantis_fw/AsicFwS2/include/matrix.h ****         for( int j = 0; j < C; ++j ) { rval( 0, j ) = this->_data[Idx( i, j )]; }
 816:/home/tienluong/workspace/atlantis_fw/AsicFwS2/include/matrix.h ****         return rval;
 817:/home/tienluong/workspace/atlantis_fw/AsicFwS2/include/matrix.h ****     }
 818:/home/tienluong/workspace/atlantis_fw/AsicFwS2/include/matrix.h **** 
 819:/home/tienluong/workspace/atlantis_fw/AsicFwS2/include/matrix.h ****     Matrix<T, 1, C> column( int i ) const
 820:/home/tienluong/workspace/atlantis_fw/AsicFwS2/include/matrix.h ****     {
 821:/home/tienluong/workspace/atlantis_fw/AsicFwS2/include/matrix.h ****         Matrix<T, R, 1> rval;
 822:/home/tienluong/workspace/atlantis_fw/AsicFwS2/include/matrix.h ****         for( int j = 0; j < R; ++j ) { rval( j, 0 ) = this->_data[Idx( j, i )]; }
 823:/home/tienluong/workspace/atlantis_fw/AsicFwS2/include/matrix.h ****         return rval;
 824:/home/tienluong/workspace/atlantis_fw/AsicFwS2/include/matrix.h ****     }
 825:/home/tienluong/workspace/atlantis_fw/AsicFwS2/include/matrix.h **** 
 826:/home/tienluong/workspace/atlantis_fw/AsicFwS2/include/matrix.h ****     Matrix & swapRow( int i, int j )
 827:/home/tienluong/workspace/atlantis_fw/AsicFwS2/include/matrix.h ****     {
 828:/home/tienluong/workspace/atlantis_fw/AsicFwS2/include/matrix.h ****         using std::swap;
 829:/home/tienluong/workspace/atlantis_fw/AsicFwS2/include/matrix.h ****         for( int k = 0; k < C; ++k )
 830:/home/tienluong/workspace/atlantis_fw/AsicFwS2/include/matrix.h ****         { swap( this->_data[Idx( i, k )], this->_data[Idx( j, k )] ); }
 831:/home/tienluong/workspace/atlantis_fw/AsicFwS2/include/matrix.h ****         return *this;
 832:/home/tienluong/workspace/atlantis_fw/AsicFwS2/include/matrix.h ****     }
 833:/home/tienluong/workspace/atlantis_fw/AsicFwS2/include/matrix.h **** 
 834:/home/tienluong/workspace/atlantis_fw/AsicFwS2/include/matrix.h ****     Matrix & swapColumn( int i, int j )
 835:/home/tienluong/workspace/atlantis_fw/AsicFwS2/include/matrix.h ****     {
 836:/home/tienluong/workspace/atlantis_fw/AsicFwS2/include/matrix.h ****         using std::swap;
 837:/home/tienluong/workspace/atlantis_fw/AsicFwS2/include/matrix.h ****         for( int k = 0; k < R; ++k )
 838:/home/tienluong/workspace/atlantis_fw/AsicFwS2/include/matrix.h ****         { swap( this->_data[Idx( k, i )], this->_data[Idx( k, j )] ); }
 839:/home/tienluong/workspace/atlantis_fw/AsicFwS2/include/matrix.h ****         return *this;
 840:/home/tienluong/workspace/atlantis_fw/AsicFwS2/include/matrix.h ****     }
 841:/home/tienluong/workspace/atlantis_fw/AsicFwS2/include/matrix.h **** 
 842:/home/tienluong/workspace/atlantis_fw/AsicFwS2/include/matrix.h ****     T sum() const
 843:/home/tienluong/workspace/atlantis_fw/AsicFwS2/include/matrix.h ****     {
 844:/home/tienluong/workspace/atlantis_fw/AsicFwS2/include/matrix.h ****         T sum = this->_data[0];
 845:/home/tienluong/workspace/atlantis_fw/AsicFwS2/include/matrix.h ****         for( int j = 1; j < kSize; ++j ) { sum += this->_data[j]; }
 846:/home/tienluong/workspace/atlantis_fw/AsicFwS2/include/matrix.h ****         return sum;
 847:/home/tienluong/workspace/atlantis_fw/AsicFwS2/include/matrix.h ****     }
 848:/home/tienluong/workspace/atlantis_fw/AsicFwS2/include/matrix.h **** 
 849:/home/tienluong/workspace/atlantis_fw/AsicFwS2/include/matrix.h ****     Matrix & setIdentity()
 850:/home/tienluong/workspace/atlantis_fw/AsicFwS2/include/matrix.h ****     {
 851:/home/tienluong/workspace/atlantis_fw/AsicFwS2/include/matrix.h ****         for( int i = 0; i < R; ++i )
 852:/home/tienluong/workspace/atlantis_fw/AsicFwS2/include/matrix.h ****         {
 853:/home/tienluong/workspace/atlantis_fw/AsicFwS2/include/matrix.h ****             for( int j = 0; j < C; ++j )
 854:/home/tienluong/workspace/atlantis_fw/AsicFwS2/include/matrix.h ****             { this->_data[Idx( i, j )] = i == j ? T{1} : T{0}; }
 855:/home/tienluong/workspace/atlantis_fw/AsicFwS2/include/matrix.h ****         }
 856:/home/tienluong/workspace/atlantis_fw/AsicFwS2/include/matrix.h ****         return *this;
 857:/home/tienluong/workspace/atlantis_fw/AsicFwS2/include/matrix.h ****     }
 858:/home/tienluong/workspace/atlantis_fw/AsicFwS2/include/matrix.h **** 
 859:/home/tienluong/workspace/atlantis_fw/AsicFwS2/include/matrix.h ****     const Matrix < T, C, R, !RowMajor > & transpose() const
 860:/home/tienluong/workspace/atlantis_fw/AsicFwS2/include/matrix.h ****     {
 861:/home/tienluong/workspace/atlantis_fw/AsicFwS2/include/matrix.h ****         return *reinterpret_cast < const Matrix < T, C, R, !RowMajor > * >( this );
 862:/home/tienluong/workspace/atlantis_fw/AsicFwS2/include/matrix.h ****     }
 863:/home/tienluong/workspace/atlantis_fw/AsicFwS2/include/matrix.h **** 
 864:/home/tienluong/workspace/atlantis_fw/AsicFwS2/include/matrix.h ****     // friend std::ostream & operator<<( std::ostream & os, const Matrix & m )
 865:/home/tienluong/workspace/atlantis_fw/AsicFwS2/include/matrix.h ****     // {
 866:/home/tienluong/workspace/atlantis_fw/AsicFwS2/include/matrix.h ****     //     std::stringstream sb;
 867:/home/tienluong/workspace/atlantis_fw/AsicFwS2/include/matrix.h ****     //     sb << std::endl << "[ ";
 868:/home/tienluong/workspace/atlantis_fw/AsicFwS2/include/matrix.h ****     //     for( int i = 0; i < R; ++i )
 869:/home/tienluong/workspace/atlantis_fw/AsicFwS2/include/matrix.h ****     //     {
 870:/home/tienluong/workspace/atlantis_fw/AsicFwS2/include/matrix.h ****     //         for( int j = 0; j < C; ++j ) { sb << m( i, j ) << " "; }
 871:/home/tienluong/workspace/atlantis_fw/AsicFwS2/include/matrix.h ****     //         if( i != R - 1 ) { sb << std::endl; }
 872:/home/tienluong/workspace/atlantis_fw/AsicFwS2/include/matrix.h ****     //     }
 873:/home/tienluong/workspace/atlantis_fw/AsicFwS2/include/matrix.h ****     //     sb << "]" << std::endl;
 874:/home/tienluong/workspace/atlantis_fw/AsicFwS2/include/matrix.h ****     //     return os << sb.rdbuf();
 875:/home/tienluong/workspace/atlantis_fw/AsicFwS2/include/matrix.h ****     // }
 876:/home/tienluong/workspace/atlantis_fw/AsicFwS2/include/matrix.h **** 
 877:/home/tienluong/workspace/atlantis_fw/AsicFwS2/include/matrix.h ****     static constexpr bool IsRowMajor() { return RowMajor; }
 878:/home/tienluong/workspace/atlantis_fw/AsicFwS2/include/matrix.h **** 
 879:/home/tienluong/workspace/atlantis_fw/AsicFwS2/include/matrix.h ****     static Matrix Identity()
 880:/home/tienluong/workspace/atlantis_fw/AsicFwS2/include/matrix.h ****     {
 881:/home/tienluong/workspace/atlantis_fw/AsicFwS2/include/matrix.h ****         Matrix rval;
 882:/home/tienluong/workspace/atlantis_fw/AsicFwS2/include/matrix.h ****         return rval.setIdentity();
 883:/home/tienluong/workspace/atlantis_fw/AsicFwS2/include/matrix.h ****     }
 884:/home/tienluong/workspace/atlantis_fw/AsicFwS2/include/matrix.h **** };
 885:/home/tienluong/workspace/atlantis_fw/AsicFwS2/include/matrix.h **** 
 886:/home/tienluong/workspace/atlantis_fw/AsicFwS2/include/matrix.h **** template<typename T, int R, int C, bool D>
 887:/home/tienluong/workspace/atlantis_fw/AsicFwS2/include/matrix.h **** Matrix < T, C, R, !D > transpose( const Matrix<T, R, C, D> & mat )
 888:/home/tienluong/workspace/atlantis_fw/AsicFwS2/include/matrix.h **** {
 889:/home/tienluong/workspace/atlantis_fw/AsicFwS2/include/matrix.h ****     // simply copy the data and flip the matrix ordering
 890:/home/tienluong/workspace/atlantis_fw/AsicFwS2/include/matrix.h ****     Matrix < T, C, R, !D > rval;
 891:/home/tienluong/workspace/atlantis_fw/AsicFwS2/include/matrix.h ****     T * dst = rval.data();
 892:/home/tienluong/workspace/atlantis_fw/AsicFwS2/include/matrix.h ****     const T * src = mat.data();
 893:/home/tienluong/workspace/atlantis_fw/AsicFwS2/include/matrix.h ****     for( int i = 0; i < R * C; ++i ) { dst[i] = src[i]; }
 894:/home/tienluong/workspace/atlantis_fw/AsicFwS2/include/matrix.h ****     return rval;
 895:/home/tienluong/workspace/atlantis_fw/AsicFwS2/include/matrix.h **** }
 896:/home/tienluong/workspace/atlantis_fw/AsicFwS2/include/matrix.h **** 
 897:/home/tienluong/workspace/atlantis_fw/AsicFwS2/include/matrix.h **** template<typename T, int N, bool D>
 898:/home/tienluong/workspace/atlantis_fw/AsicFwS2/include/matrix.h **** Matrix<T, N, N, D> inverse( const Matrix<T, N, N, D> & mat );
 899:/home/tienluong/workspace/atlantis_fw/AsicFwS2/include/matrix.h **** 
 900:/home/tienluong/workspace/atlantis_fw/AsicFwS2/include/matrix.h **** template<typename T, int N, bool D>
 901:/home/tienluong/workspace/atlantis_fw/AsicFwS2/include/matrix.h **** T determinant( const Matrix<T, N, N, D> & mat );
 902:/home/tienluong/workspace/atlantis_fw/AsicFwS2/include/matrix.h **** 
 903:/home/tienluong/workspace/atlantis_fw/AsicFwS2/include/matrix.h **** // scalar-matrix operators
 904:/home/tienluong/workspace/atlantis_fw/AsicFwS2/include/matrix.h **** template<typename T, typename U, int R, int C, bool D>
 905:/home/tienluong/workspace/atlantis_fw/AsicFwS2/include/matrix.h **** typename std::enable_if<std::is_arithmetic<T>::value, Matrix<U, R, C, D> >::type
 906:/home/tienluong/workspace/atlantis_fw/AsicFwS2/include/matrix.h **** operator+( T a, const Matrix<U, R, C, D> & b ) { return b + a; }
 907:/home/tienluong/workspace/atlantis_fw/AsicFwS2/include/matrix.h **** 
 908:/home/tienluong/workspace/atlantis_fw/AsicFwS2/include/matrix.h **** template<typename T, typename U, int R, int C, bool D>
 909:/home/tienluong/workspace/atlantis_fw/AsicFwS2/include/matrix.h **** typename std::enable_if<std::is_arithmetic<T>::value, Matrix<U, R, C, D> >::type
 910:/home/tienluong/workspace/atlantis_fw/AsicFwS2/include/matrix.h **** operator-( T a, const Matrix<U, R, C, D> & b )
 911:/home/tienluong/workspace/atlantis_fw/AsicFwS2/include/matrix.h **** {
 912:/home/tienluong/workspace/atlantis_fw/AsicFwS2/include/matrix.h ****     Matrix<U, R, C, D> rval;
 913:/home/tienluong/workspace/atlantis_fw/AsicFwS2/include/matrix.h ****     for( int i = 0; i < R; ++i )
 914:/home/tienluong/workspace/atlantis_fw/AsicFwS2/include/matrix.h ****     { for( int j = 0; j < C; ++j ) { rval( i, j ) = U( a ) - b( i, j ); } }
 915:/home/tienluong/workspace/atlantis_fw/AsicFwS2/include/matrix.h ****     return rval;
 916:/home/tienluong/workspace/atlantis_fw/AsicFwS2/include/matrix.h **** }
 917:/home/tienluong/workspace/atlantis_fw/AsicFwS2/include/matrix.h **** 
 918:/home/tienluong/workspace/atlantis_fw/AsicFwS2/include/matrix.h **** template<typename T, typename U, int R, int C, bool D>
 919:/home/tienluong/workspace/atlantis_fw/AsicFwS2/include/matrix.h **** typename std::enable_if<std::is_arithmetic<T>::value, Matrix<U, R, C, D> >::type
 920:/home/tienluong/workspace/atlantis_fw/AsicFwS2/include/matrix.h **** operator*( T a, const Matrix<U, R, C, D> & b ) { return b * a; }
 921:/home/tienluong/workspace/atlantis_fw/AsicFwS2/include/matrix.h **** 
 922:/home/tienluong/workspace/atlantis_fw/AsicFwS2/include/matrix.h **** using Matrix2x2f = Matrix<float, 2, 2>;
 923:/home/tienluong/workspace/atlantis_fw/AsicFwS2/include/matrix.h **** using Matrix3x3f = Matrix<float, 3, 3>;
 924:/home/tienluong/workspace/atlantis_fw/AsicFwS2/include/matrix.h **** using Matrix4x4f = Matrix<float, 4, 4>;
 925:/home/tienluong/workspace/atlantis_fw/AsicFwS2/include/matrix.h **** using Matrix2x2d = Matrix<double, 2, 2>;
 926:/home/tienluong/workspace/atlantis_fw/AsicFwS2/include/matrix.h **** using Matrix3x3d = Matrix<double, 3, 3>;
 927:/home/tienluong/workspace/atlantis_fw/AsicFwS2/include/matrix.h **** using Matrix4x4d = Matrix<double, 4, 4>;
 928:/home/tienluong/workspace/atlantis_fw/AsicFwS2/include/matrix.h **** 
 929:/home/tienluong/workspace/atlantis_fw/AsicFwS2/include/matrix.h **** // optimized implementation of matrix-vector operations
 930:/home/tienluong/workspace/atlantis_fw/AsicFwS2/include/matrix.h **** // mind the order of color channels in memory is BGRA, i.e.,
 931:/home/tienluong/workspace/atlantis_fw/AsicFwS2/include/matrix.h **** // blue channel corresponds to the first matrix dimension!
 932:/home/tienluong/workspace/atlantis_fw/AsicFwS2/include/matrix.h **** 
 933:/home/tienluong/workspace/atlantis_fw/AsicFwS2/include/matrix.h **** template<bool D>
 934:/home/tienluong/workspace/atlantis_fw/AsicFwS2/include/matrix.h **** Vec4f operator*( const Matrix<float, 4, 4, D> & mat, const Vec4f & vec )
 935:/home/tienluong/workspace/atlantis_fw/AsicFwS2/include/matrix.h **** {
 936:/home/tienluong/workspace/atlantis_fw/AsicFwS2/include/matrix.h ****     return
 937:/home/tienluong/workspace/atlantis_fw/AsicFwS2/include/matrix.h ****     {
 938:/home/tienluong/workspace/atlantis_fw/AsicFwS2/include/matrix.h ****         mat( 0, 0 ) * vec.x() + mat( 0, 1 ) * vec.y() + mat( 0, 2 ) * vec.z() + mat( 0, 3 ) * vec.a
 939:/home/tienluong/workspace/atlantis_fw/AsicFwS2/include/matrix.h ****         mat( 1, 0 ) * vec.x() + mat( 1, 1 ) * vec.y() + mat( 1, 2 ) * vec.z() + mat( 1, 3 ) * vec.a
 940:/home/tienluong/workspace/atlantis_fw/AsicFwS2/include/matrix.h ****         mat( 2, 0 ) * vec.x() + mat( 2, 1 ) * vec.y() + mat( 2, 2 ) * vec.z() + mat( 2, 3 ) * vec.a
 941:/home/tienluong/workspace/atlantis_fw/AsicFwS2/include/matrix.h ****         mat( 3, 0 ) * vec.x() + mat( 3, 1 ) * vec.y() + mat( 3, 2 ) * vec.z() + mat( 3, 3 ) * vec.a
 942:/home/tienluong/workspace/atlantis_fw/AsicFwS2/include/matrix.h ****     };
 943:/home/tienluong/workspace/atlantis_fw/AsicFwS2/include/matrix.h **** }
 944:/home/tienluong/workspace/atlantis_fw/AsicFwS2/include/matrix.h **** 
 945:/home/tienluong/workspace/atlantis_fw/AsicFwS2/include/matrix.h **** template<bool D>
 946:/home/tienluong/workspace/atlantis_fw/AsicFwS2/include/matrix.h **** Vec4f operator*( const Vec4f & vec, const Matrix<float, 4, 4, D> & mat )
 947:/home/tienluong/workspace/atlantis_fw/AsicFwS2/include/matrix.h **** {
 948:/home/tienluong/workspace/atlantis_fw/AsicFwS2/include/matrix.h ****     return
 949:/home/tienluong/workspace/atlantis_fw/AsicFwS2/include/matrix.h ****     {
 950:/home/tienluong/workspace/atlantis_fw/AsicFwS2/include/matrix.h ****         mat( 0, 0 ) * vec.x() + mat( 1, 0 ) * vec.y() + mat( 2, 0 ) * vec.z() + mat( 3, 0 ) * vec.a
 951:/home/tienluong/workspace/atlantis_fw/AsicFwS2/include/matrix.h ****         mat( 0, 1 ) * vec.x() + mat( 1, 1 ) * vec.y() + mat( 2, 1 ) * vec.z() + mat( 3, 1 ) * vec.a
 952:/home/tienluong/workspace/atlantis_fw/AsicFwS2/include/matrix.h ****         mat( 0, 2 ) * vec.x() + mat( 1, 2 ) * vec.y() + mat( 2, 2 ) * vec.z() + mat( 3, 2 ) * vec.a
 953:/home/tienluong/workspace/atlantis_fw/AsicFwS2/include/matrix.h ****         mat( 0, 3 ) * vec.x() + mat( 1, 3 ) * vec.y() + mat( 2, 3 ) * vec.z() + mat( 3, 3 ) * vec.a
 954:/home/tienluong/workspace/atlantis_fw/AsicFwS2/include/matrix.h ****     };
 955:/home/tienluong/workspace/atlantis_fw/AsicFwS2/include/matrix.h **** }
 956:/home/tienluong/workspace/atlantis_fw/AsicFwS2/include/matrix.h **** 
 957:/home/tienluong/workspace/atlantis_fw/AsicFwS2/include/matrix.h **** // Vec3 left- and right-hand side multiplication operator
 958:/home/tienluong/workspace/atlantis_fw/AsicFwS2/include/matrix.h **** template<typename T, typename U, bool D>
 959:/home/tienluong/workspace/atlantis_fw/AsicFwS2/include/matrix.h **** Vec3<typename std::common_type<T, U>::type> operator*( const Matrix<T, 3, 3, D> & mat, const Vec3<U
 960:/home/tienluong/workspace/atlantis_fw/AsicFwS2/include/matrix.h **** {
 961:/home/tienluong/workspace/atlantis_fw/AsicFwS2/include/matrix.h ****     return
 962:/home/tienluong/workspace/atlantis_fw/AsicFwS2/include/matrix.h ****     {
 963:/home/tienluong/workspace/atlantis_fw/AsicFwS2/include/matrix.h ****         mat( 0, 0 ) * vec.x() + mat( 0, 1 ) * vec.y() + mat( 0, 2 ) * vec.z(),
 964:/home/tienluong/workspace/atlantis_fw/AsicFwS2/include/matrix.h ****         mat( 1, 0 ) * vec.x() + mat( 1, 1 ) * vec.y() + mat( 1, 2 ) * vec.z(),
 965:/home/tienluong/workspace/atlantis_fw/AsicFwS2/include/matrix.h ****         mat( 2, 0 ) * vec.x() + mat( 2, 1 ) * vec.y() + mat( 2, 2 ) * vec.z()
 966:/home/tienluong/workspace/atlantis_fw/AsicFwS2/include/matrix.h ****     };
 967:/home/tienluong/workspace/atlantis_fw/AsicFwS2/include/matrix.h **** }
 968:/home/tienluong/workspace/atlantis_fw/AsicFwS2/include/matrix.h **** 
 969:/home/tienluong/workspace/atlantis_fw/AsicFwS2/include/matrix.h **** template<typename T, typename U, bool D>
 970:/home/tienluong/workspace/atlantis_fw/AsicFwS2/include/matrix.h **** Vec3<typename std::common_type<T, U>::type> operator*( const Vec3<T> & vec, const Matrix<U, 3, 3, D
 971:/home/tienluong/workspace/atlantis_fw/AsicFwS2/include/matrix.h **** {
 972:/home/tienluong/workspace/atlantis_fw/AsicFwS2/include/matrix.h ****     return
 973:/home/tienluong/workspace/atlantis_fw/AsicFwS2/include/matrix.h ****     {
 974:/home/tienluong/workspace/atlantis_fw/AsicFwS2/include/matrix.h ****         mat( 0, 0 ) * vec.x() + mat( 1, 0 ) * vec.y() + mat( 2, 0 ) * vec.z(),
 975:/home/tienluong/workspace/atlantis_fw/AsicFwS2/include/matrix.h ****         mat( 0, 1 ) * vec.x() + mat( 1, 1 ) * vec.y() + mat( 2, 1 ) * vec.z(),
 976:/home/tienluong/workspace/atlantis_fw/AsicFwS2/include/matrix.h ****         mat( 0, 2 ) * vec.x() + mat( 1, 2 ) * vec.y() + mat( 2, 2 ) * vec.z()
 977:/home/tienluong/workspace/atlantis_fw/AsicFwS2/include/matrix.h ****     };
 978:/home/tienluong/workspace/atlantis_fw/AsicFwS2/include/matrix.h **** }
 979:/home/tienluong/workspace/atlantis_fw/AsicFwS2/include/matrix.h **** 
 980:/home/tienluong/workspace/atlantis_fw/AsicFwS2/include/matrix.h **** 
 981:/home/tienluong/workspace/atlantis_fw/AsicFwS2/include/matrix.h **** // mat3x3 and vec2 special multiplication operation used in roitransfer
 982:/home/tienluong/workspace/atlantis_fw/AsicFwS2/include/matrix.h **** /// Return H * p for 2D p, p is made homogeneous, division in the end.
 983:/home/tienluong/workspace/atlantis_fw/AsicFwS2/include/matrix.h **** template<typename T, typename U, bool D>
 984:/home/tienluong/workspace/atlantis_fw/AsicFwS2/include/matrix.h **** Vec2<typename std::common_type<T, U>::type> operator*( const Matrix<T, 3, 3, D> & h, const Vec2<U> 
 985:/home/tienluong/workspace/atlantis_fw/AsicFwS2/include/matrix.h **** {
 986:/home/tienluong/workspace/atlantis_fw/AsicFwS2/include/matrix.h ****     T w_inv = T{1} / ( h(2, 0) * p.x() + h(2, 1) * p.y() + h(2, 2) );
 987:/home/tienluong/workspace/atlantis_fw/AsicFwS2/include/matrix.h ****     return  { 
 988:/home/tienluong/workspace/atlantis_fw/AsicFwS2/include/matrix.h ****                 ( h(0, 0) * p.x() + h(0, 1) * p.y() + h(0, 2) ) * w_inv,
 989:/home/tienluong/workspace/atlantis_fw/AsicFwS2/include/matrix.h ****                 ( h(1, 0) * p.x() + h(1, 1) * p.y() + h(1, 2) ) * w_inv
 990:/home/tienluong/workspace/atlantis_fw/AsicFwS2/include/matrix.h ****             };
 991:/home/tienluong/workspace/atlantis_fw/AsicFwS2/include/matrix.h **** }
 992:/home/tienluong/workspace/atlantis_fw/AsicFwS2/include/matrix.h **** 
 993:/home/tienluong/workspace/atlantis_fw/AsicFwS2/include/matrix.h **** 
 994:/home/tienluong/workspace/atlantis_fw/AsicFwS2/include/matrix.h **** 
 995:/home/tienluong/workspace/atlantis_fw/AsicFwS2/include/matrix.h **** // Vec2 multiplication operator
 996:/home/tienluong/workspace/atlantis_fw/AsicFwS2/include/matrix.h **** //right hand
 997:/home/tienluong/workspace/atlantis_fw/AsicFwS2/include/matrix.h **** template<typename T, typename U, bool D>
 998:/home/tienluong/workspace/atlantis_fw/AsicFwS2/include/matrix.h **** Vec2<typename std::common_type<T, U>::type> operator*( const Matrix<T, 2, 2, D> & mat, const Vec2<U
 999:/home/tienluong/workspace/atlantis_fw/AsicFwS2/include/matrix.h **** {
1000:/home/tienluong/workspace/atlantis_fw/AsicFwS2/include/matrix.h ****     return
1001:/home/tienluong/workspace/atlantis_fw/AsicFwS2/include/matrix.h ****     {
1002:/home/tienluong/workspace/atlantis_fw/AsicFwS2/include/matrix.h ****         mat( 0, 0 ) * vec.x() + mat( 0, 1 ) * vec.y(),
1003:/home/tienluong/workspace/atlantis_fw/AsicFwS2/include/matrix.h ****         mat( 1, 0 ) * vec.x() + mat( 1, 1 ) * vec.y()
1004:/home/tienluong/workspace/atlantis_fw/AsicFwS2/include/matrix.h ****     };
1005:/home/tienluong/workspace/atlantis_fw/AsicFwS2/include/matrix.h **** }
1006:/home/tienluong/workspace/atlantis_fw/AsicFwS2/include/matrix.h **** //left hand
1007:/home/tienluong/workspace/atlantis_fw/AsicFwS2/include/matrix.h **** template<typename T, typename U, bool D>
1008:/home/tienluong/workspace/atlantis_fw/AsicFwS2/include/matrix.h **** Vec2<typename std::common_type<T, U>::type> operator*( const Vec2<U> & vec, const Matrix<T, 2, 2, D
1009:/home/tienluong/workspace/atlantis_fw/AsicFwS2/include/matrix.h **** {
1010:/home/tienluong/workspace/atlantis_fw/AsicFwS2/include/matrix.h ****     return
1011:/home/tienluong/workspace/atlantis_fw/AsicFwS2/include/matrix.h ****     {
1012:/home/tienluong/workspace/atlantis_fw/AsicFwS2/include/matrix.h ****         mat( 0, 0 ) * vec.x() + mat( 1, 0 ) * vec.y(),
1013:/home/tienluong/workspace/atlantis_fw/AsicFwS2/include/matrix.h ****         mat( 0, 1 ) * vec.x() + mat( 1, 1 ) * vec.y()
1014:/home/tienluong/workspace/atlantis_fw/AsicFwS2/include/matrix.h ****     };
1015:/home/tienluong/workspace/atlantis_fw/AsicFwS2/include/matrix.h **** }
1016:/home/tienluong/workspace/atlantis_fw/AsicFwS2/include/matrix.h **** 
1017:/home/tienluong/workspace/atlantis_fw/AsicFwS2/include/matrix.h **** // Create a diagonal matrix from a vector
1018:/home/tienluong/workspace/atlantis_fw/AsicFwS2/include/matrix.h **** inline Matrix4x4f diagonal( const Vec4f & vec )
1019:/home/tienluong/workspace/atlantis_fw/AsicFwS2/include/matrix.h **** {
1020:/home/tienluong/workspace/atlantis_fw/AsicFwS2/include/matrix.h ****     return
1021:/home/tienluong/workspace/atlantis_fw/AsicFwS2/include/matrix.h ****     {
1022:/home/tienluong/workspace/atlantis_fw/AsicFwS2/include/matrix.h ****         vec.x(), 0.0f, 0.0f, 0.0f,
1023:/home/tienluong/workspace/atlantis_fw/AsicFwS2/include/matrix.h ****         0.0f, vec.y(), 0.0f, 0.0f,
1024:/home/tienluong/workspace/atlantis_fw/AsicFwS2/include/matrix.h ****         0.0f, 0.0f, vec.z(), 0.0f,
1025:/home/tienluong/workspace/atlantis_fw/AsicFwS2/include/matrix.h ****         0.0f, 0.0f, 0.0f, vec.a()
1026:/home/tienluong/workspace/atlantis_fw/AsicFwS2/include/matrix.h ****     };
1027:/home/tienluong/workspace/atlantis_fw/AsicFwS2/include/matrix.h **** }
1028:/home/tienluong/workspace/atlantis_fw/AsicFwS2/include/matrix.h **** 
1029:/home/tienluong/workspace/atlantis_fw/AsicFwS2/include/matrix.h **** template<typename T>
1030:/home/tienluong/workspace/atlantis_fw/AsicFwS2/include/matrix.h **** Matrix<T, 3, 3> diagonal( const Vec3<T> & vec )
1031:/home/tienluong/workspace/atlantis_fw/AsicFwS2/include/matrix.h **** {
1032:/home/tienluong/workspace/atlantis_fw/AsicFwS2/include/matrix.h ****     return
1033:/home/tienluong/workspace/atlantis_fw/AsicFwS2/include/matrix.h ****     {
1034:/home/tienluong/workspace/atlantis_fw/AsicFwS2/include/matrix.h ****         vec.x(), T{0}, T{0},
1035:/home/tienluong/workspace/atlantis_fw/AsicFwS2/include/matrix.h ****         T{0}, vec.y(), T{0},
1036:/home/tienluong/workspace/atlantis_fw/AsicFwS2/include/matrix.h ****         T{0}, T{0}, vec.z()
1037:/home/tienluong/workspace/atlantis_fw/AsicFwS2/include/matrix.h ****     };
1038:/home/tienluong/workspace/atlantis_fw/AsicFwS2/include/matrix.h **** }
1039:/home/tienluong/workspace/atlantis_fw/AsicFwS2/include/matrix.h **** 
1040:/home/tienluong/workspace/atlantis_fw/AsicFwS2/include/matrix.h **** template<typename T>
1041:/home/tienluong/workspace/atlantis_fw/AsicFwS2/include/matrix.h **** Matrix<T, 2, 2> diagonal( const Vec2<T> & vec )
1042:/home/tienluong/workspace/atlantis_fw/AsicFwS2/include/matrix.h **** {
1043:/home/tienluong/workspace/atlantis_fw/AsicFwS2/include/matrix.h ****     return
1044:/home/tienluong/workspace/atlantis_fw/AsicFwS2/include/matrix.h ****     {
1045:/home/tienluong/workspace/atlantis_fw/AsicFwS2/include/matrix.h ****         vec.x(), T{0},
1046:/home/tienluong/workspace/atlantis_fw/AsicFwS2/include/matrix.h ****         T{0}, vec.y(),
1047:/home/tienluong/workspace/atlantis_fw/AsicFwS2/include/matrix.h ****     };
1048:/home/tienluong/workspace/atlantis_fw/AsicFwS2/include/matrix.h **** }
1049:/home/tienluong/workspace/atlantis_fw/AsicFwS2/include/matrix.h **** 
1050:/home/tienluong/workspace/atlantis_fw/AsicFwS2/include/matrix.h **** // ------------------------------------
1051:/home/tienluong/workspace/atlantis_fw/AsicFwS2/include/matrix.h **** // determinant, inverse, etc
1052:/home/tienluong/workspace/atlantis_fw/AsicFwS2/include/matrix.h **** // ------------------------------------
1053:/home/tienluong/workspace/atlantis_fw/AsicFwS2/include/matrix.h **** 
1054:/home/tienluong/workspace/atlantis_fw/AsicFwS2/include/matrix.h **** template<typename T, int N>
1055:/home/tienluong/workspace/atlantis_fw/AsicFwS2/include/matrix.h **** struct MatrixDeterminant { };
1056:/home/tienluong/workspace/atlantis_fw/AsicFwS2/include/matrix.h **** 
1057:/home/tienluong/workspace/atlantis_fw/AsicFwS2/include/matrix.h **** template<typename T>
1058:/home/tienluong/workspace/atlantis_fw/AsicFwS2/include/matrix.h **** struct MatrixDeterminant<T, 2>
1059:/home/tienluong/workspace/atlantis_fw/AsicFwS2/include/matrix.h **** {
1060:/home/tienluong/workspace/atlantis_fw/AsicFwS2/include/matrix.h ****     T operator()( const T * mat ) const
1061:/home/tienluong/workspace/atlantis_fw/AsicFwS2/include/matrix.h ****     {
1062:/home/tienluong/workspace/atlantis_fw/AsicFwS2/include/matrix.h ****         return mat[0] * mat[3] - mat[1] * mat[2];
1063:/home/tienluong/workspace/atlantis_fw/AsicFwS2/include/matrix.h ****     }
1064:/home/tienluong/workspace/atlantis_fw/AsicFwS2/include/matrix.h **** };
1065:/home/tienluong/workspace/atlantis_fw/AsicFwS2/include/matrix.h **** 
1066:/home/tienluong/workspace/atlantis_fw/AsicFwS2/include/matrix.h **** template<typename T>
1067:/home/tienluong/workspace/atlantis_fw/AsicFwS2/include/matrix.h **** struct MatrixDeterminant<T, 3>
1068:/home/tienluong/workspace/atlantis_fw/AsicFwS2/include/matrix.h **** {
1069:/home/tienluong/workspace/atlantis_fw/AsicFwS2/include/matrix.h ****     T operator()( const T * mat ) const
1070:/home/tienluong/workspace/atlantis_fw/AsicFwS2/include/matrix.h ****     {
1071:/home/tienluong/workspace/atlantis_fw/AsicFwS2/include/matrix.h ****         return + mat[0] * ( mat[4] * mat[8] - mat[7] * mat[5] )
1072:/home/tienluong/workspace/atlantis_fw/AsicFwS2/include/matrix.h ****                - mat[1] * ( mat[3] * mat[8] - mat[5] * mat[6] )
1073:/home/tienluong/workspace/atlantis_fw/AsicFwS2/include/matrix.h ****                + mat[2] * ( mat[3] * mat[7] - mat[4] * mat[6] );
1074:/home/tienluong/workspace/atlantis_fw/AsicFwS2/include/matrix.h ****     }
1075:/home/tienluong/workspace/atlantis_fw/AsicFwS2/include/matrix.h **** };
1076:/home/tienluong/workspace/atlantis_fw/AsicFwS2/include/matrix.h **** 
1077:/home/tienluong/workspace/atlantis_fw/AsicFwS2/include/matrix.h **** template<typename T>
1078:/home/tienluong/workspace/atlantis_fw/AsicFwS2/include/matrix.h **** struct MatrixDeterminant<T, 4>
1079:/home/tienluong/workspace/atlantis_fw/AsicFwS2/include/matrix.h **** {
1080:/home/tienluong/workspace/atlantis_fw/AsicFwS2/include/matrix.h ****     T operator()( const T * mat ) const
1081:/home/tienluong/workspace/atlantis_fw/AsicFwS2/include/matrix.h ****     {
1082:/home/tienluong/workspace/atlantis_fw/AsicFwS2/include/matrix.h ****         T dst[4];
1083:/home/tienluong/workspace/atlantis_fw/AsicFwS2/include/matrix.h ****         T tmp[12];
1084:/home/tienluong/workspace/atlantis_fw/AsicFwS2/include/matrix.h **** 
1085:/home/tienluong/workspace/atlantis_fw/AsicFwS2/include/matrix.h ****         // calculate pairs for first 8 elements (cofactors)
1086:/home/tienluong/workspace/atlantis_fw/AsicFwS2/include/matrix.h ****         tmp[0] = mat[10] * mat[15];
1087:/home/tienluong/workspace/atlantis_fw/AsicFwS2/include/matrix.h ****         tmp[1] = mat[11] * mat[14];
1088:/home/tienluong/workspace/atlantis_fw/AsicFwS2/include/matrix.h ****         tmp[2] = mat[9] * mat[15];
1089:/home/tienluong/workspace/atlantis_fw/AsicFwS2/include/matrix.h ****         tmp[3] = mat[11] * mat[13];
1090:/home/tienluong/workspace/atlantis_fw/AsicFwS2/include/matrix.h ****         tmp[4] = mat[9] * mat[14];
1091:/home/tienluong/workspace/atlantis_fw/AsicFwS2/include/matrix.h ****         tmp[5] = mat[10] * mat[13];
1092:/home/tienluong/workspace/atlantis_fw/AsicFwS2/include/matrix.h ****         tmp[6] = mat[8] * mat[15];
1093:/home/tienluong/workspace/atlantis_fw/AsicFwS2/include/matrix.h ****         tmp[7] = mat[11] * mat[12];
1094:/home/tienluong/workspace/atlantis_fw/AsicFwS2/include/matrix.h ****         tmp[8] = mat[8] * mat[14];
1095:/home/tienluong/workspace/atlantis_fw/AsicFwS2/include/matrix.h ****         tmp[9] = mat[10] * mat[12];
1096:/home/tienluong/workspace/atlantis_fw/AsicFwS2/include/matrix.h ****         tmp[10] = mat[8] * mat[13];
1097:/home/tienluong/workspace/atlantis_fw/AsicFwS2/include/matrix.h ****         tmp[11] = mat[9] * mat[12];
1098:/home/tienluong/workspace/atlantis_fw/AsicFwS2/include/matrix.h **** 
1099:/home/tienluong/workspace/atlantis_fw/AsicFwS2/include/matrix.h ****         // calculate first 8 elements (cofactors)
1100:/home/tienluong/workspace/atlantis_fw/AsicFwS2/include/matrix.h ****         dst[0]  = tmp[0] * mat[5] + tmp[3] * mat[6] + tmp[4]  * mat[7];
1101:/home/tienluong/workspace/atlantis_fw/AsicFwS2/include/matrix.h ****         dst[0] -= tmp[1] * mat[5] + tmp[2] * mat[6] + tmp[5]  * mat[7];
1102:/home/tienluong/workspace/atlantis_fw/AsicFwS2/include/matrix.h ****         dst[1]  = tmp[1] * mat[4] + tmp[6] * mat[6] + tmp[9]  * mat[7];
1103:/home/tienluong/workspace/atlantis_fw/AsicFwS2/include/matrix.h ****         dst[1] -= tmp[0] * mat[4] + tmp[7] * mat[6] + tmp[8]  * mat[7];
1104:/home/tienluong/workspace/atlantis_fw/AsicFwS2/include/matrix.h ****         dst[2]  = tmp[2] * mat[4] + tmp[7] * mat[5] + tmp[10] * mat[7];
1105:/home/tienluong/workspace/atlantis_fw/AsicFwS2/include/matrix.h ****         dst[2] -= tmp[3] * mat[4] + tmp[6] * mat[5] + tmp[11] * mat[7];
1106:/home/tienluong/workspace/atlantis_fw/AsicFwS2/include/matrix.h ****         dst[3]  = tmp[5] * mat[4] + tmp[8] * mat[5] + tmp[11] * mat[6];
1107:/home/tienluong/workspace/atlantis_fw/AsicFwS2/include/matrix.h ****         dst[3] -= tmp[4] * mat[4] + tmp[9] * mat[5] + tmp[10] * mat[6];
1108:/home/tienluong/workspace/atlantis_fw/AsicFwS2/include/matrix.h **** 
1109:/home/tienluong/workspace/atlantis_fw/AsicFwS2/include/matrix.h ****         // calculate determinant
1110:/home/tienluong/workspace/atlantis_fw/AsicFwS2/include/matrix.h ****         return mat[0] * dst[0] + mat[1] * dst[1] + mat[2] * dst[2] + mat[3] * dst[3];
1111:/home/tienluong/workspace/atlantis_fw/AsicFwS2/include/matrix.h ****     }
1112:/home/tienluong/workspace/atlantis_fw/AsicFwS2/include/matrix.h **** };
1113:/home/tienluong/workspace/atlantis_fw/AsicFwS2/include/matrix.h **** 
1114:/home/tienluong/workspace/atlantis_fw/AsicFwS2/include/matrix.h **** 
1115:/home/tienluong/workspace/atlantis_fw/AsicFwS2/include/matrix.h **** template<typename T, int N>
1116:/home/tienluong/workspace/atlantis_fw/AsicFwS2/include/matrix.h **** struct SquareMatrixInverter { };
1117:/home/tienluong/workspace/atlantis_fw/AsicFwS2/include/matrix.h **** 
1118:/home/tienluong/workspace/atlantis_fw/AsicFwS2/include/matrix.h **** template<typename T>
1119:/home/tienluong/workspace/atlantis_fw/AsicFwS2/include/matrix.h **** struct SquareMatrixInverter<T, 2>
1120:/home/tienluong/workspace/atlantis_fw/AsicFwS2/include/matrix.h **** {
1121:/home/tienluong/workspace/atlantis_fw/AsicFwS2/include/matrix.h ****     void run( T * mat ) const
 136              		.loc 2 1121 0
 137              		.cfi_startproc
 138              		@ args = 0, pretend = 0, frame = 16
 139              		@ frame_needed = 0, uses_anonymous_args = 0
 140              	.LVL6:
 141 0000 2DE9FF47 		push	{r0, r1, r2, r3, r4, r5, r6, r7, r8, r9, r10, lr}
 142              	.LCFI4:
 143              		.cfi_def_cfa_offset 48
 144              		.cfi_offset 4, -32
 145              		.cfi_offset 5, -28
 146              		.cfi_offset 6, -24
 147              		.cfi_offset 7, -20
 148              		.cfi_offset 8, -16
 149              		.cfi_offset 9, -12
 150              		.cfi_offset 10, -8
 151              		.cfi_offset 14, -4
 152              	.LBB134:
1122:/home/tienluong/workspace/atlantis_fw/AsicFwS2/include/matrix.h ****     {
1123:/home/tienluong/workspace/atlantis_fw/AsicFwS2/include/matrix.h ****         const T det = mat[0] * mat[3] - mat[1] * mat[2];
 153              		.loc 2 1123 0
 154 0004 D0F80C90 		ldr	r9, [r0, #12]	@ float
 155              	.LBE134:
1121:/home/tienluong/workspace/atlantis_fw/AsicFwS2/include/matrix.h ****     {
 156              		.loc 2 1121 0
 157 0008 0546     		mov	r5, r0
 158              	.LBB137:
 159              		.loc 2 1123 0
 160 000a D0F80080 		ldr	r8, [r0]	@ float
 161 000e 4946     		mov	r1, r9
 162 0010 4768     		ldr	r7, [r0, #4]	@ float
 163 0012 8468     		ldr	r4, [r0, #8]	@ float
 164              	.LVL7:
 165 0014 4046     		mov	r0, r8
 166              	.LVL8:
 167 0016 134E     		ldr	r6, .L19
 168 0018 B047     		blx	r6
 169              	.LVL9:
 170 001a 2146     		mov	r1, r4
1124:/home/tienluong/workspace/atlantis_fw/AsicFwS2/include/matrix.h **** 
1125:/home/tienluong/workspace/atlantis_fw/AsicFwS2/include/matrix.h ****         const T invdet = T{1} / det;
1126:/home/tienluong/workspace/atlantis_fw/AsicFwS2/include/matrix.h **** 
1127:/home/tienluong/workspace/atlantis_fw/AsicFwS2/include/matrix.h ****         T tmp[4];
1128:/home/tienluong/workspace/atlantis_fw/AsicFwS2/include/matrix.h ****         tmp[0] = mat[3];
1129:/home/tienluong/workspace/atlantis_fw/AsicFwS2/include/matrix.h ****         tmp[1] = -mat[1];
1130:/home/tienluong/workspace/atlantis_fw/AsicFwS2/include/matrix.h ****         tmp[2] = -mat[2];
 171              		.loc 2 1130 0
 172 001c 04F10044 		add	r4, r4, #-2147483648
 173              	.LVL10:
1123:/home/tienluong/workspace/atlantis_fw/AsicFwS2/include/matrix.h **** 
 174              		.loc 2 1123 0
 175 0020 8246     		mov	r10, r0
 176 0022 3846     		mov	r0, r7
 177 0024 B047     		blx	r6
 178              	.LVL11:
 179 0026 104B     		ldr	r3, .L19+4
1129:/home/tienluong/workspace/atlantis_fw/AsicFwS2/include/matrix.h ****         tmp[2] = -mat[2];
 180              		.loc 2 1129 0
 181 0028 07F10047 		add	r7, r7, #-2147483648
1123:/home/tienluong/workspace/atlantis_fw/AsicFwS2/include/matrix.h **** 
 182              		.loc 2 1123 0
 183 002c 0146     		mov	r1, r0
 184 002e 5046     		mov	r0, r10
 185 0030 9847     		blx	r3
 186              	.LVL12:
1125:/home/tienluong/workspace/atlantis_fw/AsicFwS2/include/matrix.h **** 
 187              		.loc 2 1125 0
 188 0032 0E4B     		ldr	r3, .L19+8
1123:/home/tienluong/workspace/atlantis_fw/AsicFwS2/include/matrix.h **** 
 189              		.loc 2 1123 0
 190 0034 0146     		mov	r1, r0
1125:/home/tienluong/workspace/atlantis_fw/AsicFwS2/include/matrix.h **** 
 191              		.loc 2 1125 0
 192 0036 4FF07E50 		mov	r0, #1065353216
 193 003a 9847     		blx	r3
 194              	.LVL13:
 195              		.loc 2 1130 0
 196 003c 0294     		str	r4, [sp, #8]	@ float
 197              	.LBB135:
1131:/home/tienluong/workspace/atlantis_fw/AsicFwS2/include/matrix.h ****         tmp[3] = mat[0];
1132:/home/tienluong/workspace/atlantis_fw/AsicFwS2/include/matrix.h **** 
1133:/home/tienluong/workspace/atlantis_fw/AsicFwS2/include/matrix.h ****         for( int i = 0; i < 4; ++i ) { mat[i] = tmp[i] * invdet; }
 198              		.loc 2 1133 0
 199 003e 0024     		movs	r4, #0
 200              	.LBE135:
1128:/home/tienluong/workspace/atlantis_fw/AsicFwS2/include/matrix.h ****         tmp[1] = -mat[1];
 201              		.loc 2 1128 0
 202 0040 CDF80090 		str	r9, [sp]	@ float
1129:/home/tienluong/workspace/atlantis_fw/AsicFwS2/include/matrix.h ****         tmp[2] = -mat[2];
 203              		.loc 2 1129 0
 204 0044 0197     		str	r7, [sp, #4]	@ float
1131:/home/tienluong/workspace/atlantis_fw/AsicFwS2/include/matrix.h ****         tmp[3] = mat[0];
 205              		.loc 2 1131 0
 206 0046 CDF80C80 		str	r8, [sp, #12]	@ float
1125:/home/tienluong/workspace/atlantis_fw/AsicFwS2/include/matrix.h **** 
 207              		.loc 2 1125 0
 208 004a 8246     		mov	r10, r0
 209              	.LVL14:
 210              	.L17:
 211              	.LBB136:
 212              		.loc 2 1133 0
 213 004c 5DF82400 		ldr	r0, [sp, r4, lsl #2]	@ float
 214 0050 5146     		mov	r1, r10
 215 0052 B047     		blx	r6
 216              	.LVL15:
 217 0054 45F82400 		str	r0, [r5, r4, lsl #2]	@ float
 218 0058 0134     		adds	r4, r4, #1
 219              	.LVL16:
 220 005a 042C     		cmp	r4, #4
 221 005c F6D1     		bne	.L17
 222              	.LBE136:
 223              	.LBE137:
1134:/home/tienluong/workspace/atlantis_fw/AsicFwS2/include/matrix.h ****     }
 224              		.loc 2 1134 0
 225 005e 04B0     		add	sp, sp, #16
 226              	.LCFI5:
 227              		.cfi_def_cfa_offset 32
 228              		@ sp needed
 229 0060 BDE8F087 		pop	{r4, r5, r6, r7, r8, r9, r10, pc}
 230              	.LVL17:
 231              	.L20:
 232              		.align	2
 233              	.L19:
 234 0064 00000000 		.word	__aeabi_fmul
 235 0068 00000000 		.word	__aeabi_fsub
 236 006c 00000000 		.word	__aeabi_fdiv
 237              		.cfi_endproc
 238              	.LFE3816:
 240              		.section	.text._ZN4ltaf7inverseIfLi2ELb1EEENS_6MatrixIT_XT0_EXT0_EXT1_EEERKS3_,"axG",%progbits,_ZN
 241              		.align	1
 242              		.weak	_ZN4ltaf7inverseIfLi2ELb1EEENS_6MatrixIT_XT0_EXT0_EXT1_EEERKS3_
 243              		.thumb
 244              		.thumb_func
 246              	_ZN4ltaf7inverseIfLi2ELb1EEENS_6MatrixIT_XT0_EXT0_EXT1_EEERKS3_:
 247              	.LFB3574:
1135:/home/tienluong/workspace/atlantis_fw/AsicFwS2/include/matrix.h **** };
1136:/home/tienluong/workspace/atlantis_fw/AsicFwS2/include/matrix.h **** 
1137:/home/tienluong/workspace/atlantis_fw/AsicFwS2/include/matrix.h **** template<typename T>
1138:/home/tienluong/workspace/atlantis_fw/AsicFwS2/include/matrix.h **** struct SquareMatrixInverter<T, 3>
1139:/home/tienluong/workspace/atlantis_fw/AsicFwS2/include/matrix.h **** {
1140:/home/tienluong/workspace/atlantis_fw/AsicFwS2/include/matrix.h ****     void run( T * mat ) const
1141:/home/tienluong/workspace/atlantis_fw/AsicFwS2/include/matrix.h ****     {
1142:/home/tienluong/workspace/atlantis_fw/AsicFwS2/include/matrix.h ****         const T det = + mat[0] * ( mat[4] * mat[8] - mat[7] * mat[5] )
1143:/home/tienluong/workspace/atlantis_fw/AsicFwS2/include/matrix.h ****                       - mat[1] * ( mat[3] * mat[8] - mat[5] * mat[6] )
1144:/home/tienluong/workspace/atlantis_fw/AsicFwS2/include/matrix.h ****                       + mat[2] * ( mat[3] * mat[7] - mat[4] * mat[6] );
1145:/home/tienluong/workspace/atlantis_fw/AsicFwS2/include/matrix.h **** 
1146:/home/tienluong/workspace/atlantis_fw/AsicFwS2/include/matrix.h ****         const T invdet = T{1} / det;
1147:/home/tienluong/workspace/atlantis_fw/AsicFwS2/include/matrix.h **** 
1148:/home/tienluong/workspace/atlantis_fw/AsicFwS2/include/matrix.h ****         T tmp[9];
1149:/home/tienluong/workspace/atlantis_fw/AsicFwS2/include/matrix.h ****         tmp[0] =  mat[4] * mat[8] - mat[7] * mat[5];
1150:/home/tienluong/workspace/atlantis_fw/AsicFwS2/include/matrix.h ****         tmp[1] = -( mat[1] * mat[8] - mat[2] * mat[7] );
1151:/home/tienluong/workspace/atlantis_fw/AsicFwS2/include/matrix.h ****         tmp[2] =  mat[1] * mat[5] - mat[2] * mat[4];
1152:/home/tienluong/workspace/atlantis_fw/AsicFwS2/include/matrix.h ****         tmp[3] = -( mat[3] * mat[8] - mat[5] * mat[6] );
1153:/home/tienluong/workspace/atlantis_fw/AsicFwS2/include/matrix.h ****         tmp[4] =  mat[0] * mat[8] - mat[2] * mat[6];
1154:/home/tienluong/workspace/atlantis_fw/AsicFwS2/include/matrix.h ****         tmp[5] = -( mat[0] * mat[5] - mat[3] * mat[2] );
1155:/home/tienluong/workspace/atlantis_fw/AsicFwS2/include/matrix.h ****         tmp[6] =  mat[3] * mat[7] - mat[6] * mat[ 4];
1156:/home/tienluong/workspace/atlantis_fw/AsicFwS2/include/matrix.h ****         tmp[7] = -( mat[0] * mat[7] - mat[6] * mat[1] );
1157:/home/tienluong/workspace/atlantis_fw/AsicFwS2/include/matrix.h ****         tmp[8] =  mat[0] * mat[4] - mat[3] * mat[1];
1158:/home/tienluong/workspace/atlantis_fw/AsicFwS2/include/matrix.h **** 
1159:/home/tienluong/workspace/atlantis_fw/AsicFwS2/include/matrix.h ****         for( int i = 0; i < 9; ++i ) { mat[i] = tmp[i] * invdet; }
1160:/home/tienluong/workspace/atlantis_fw/AsicFwS2/include/matrix.h ****     }
1161:/home/tienluong/workspace/atlantis_fw/AsicFwS2/include/matrix.h **** };
1162:/home/tienluong/workspace/atlantis_fw/AsicFwS2/include/matrix.h **** 
1163:/home/tienluong/workspace/atlantis_fw/AsicFwS2/include/matrix.h **** template<typename T>
1164:/home/tienluong/workspace/atlantis_fw/AsicFwS2/include/matrix.h **** struct SquareMatrixInverter<T, 4>
1165:/home/tienluong/workspace/atlantis_fw/AsicFwS2/include/matrix.h **** {
1166:/home/tienluong/workspace/atlantis_fw/AsicFwS2/include/matrix.h ****     void run( T * mat ) const
1167:/home/tienluong/workspace/atlantis_fw/AsicFwS2/include/matrix.h ****     {
1168:/home/tienluong/workspace/atlantis_fw/AsicFwS2/include/matrix.h ****         T dst[16];
1169:/home/tienluong/workspace/atlantis_fw/AsicFwS2/include/matrix.h ****         T tmp[12];
1170:/home/tienluong/workspace/atlantis_fw/AsicFwS2/include/matrix.h **** 
1171:/home/tienluong/workspace/atlantis_fw/AsicFwS2/include/matrix.h ****         // calculate pairs for first 8 elements (cofactors)
1172:/home/tienluong/workspace/atlantis_fw/AsicFwS2/include/matrix.h ****         tmp[0] = mat[10] * mat[15];
1173:/home/tienluong/workspace/atlantis_fw/AsicFwS2/include/matrix.h ****         tmp[1] = mat[11] * mat[14];
1174:/home/tienluong/workspace/atlantis_fw/AsicFwS2/include/matrix.h ****         tmp[2] = mat[9] * mat[15];
1175:/home/tienluong/workspace/atlantis_fw/AsicFwS2/include/matrix.h ****         tmp[3] = mat[11] * mat[13];
1176:/home/tienluong/workspace/atlantis_fw/AsicFwS2/include/matrix.h ****         tmp[4] = mat[9] * mat[14];
1177:/home/tienluong/workspace/atlantis_fw/AsicFwS2/include/matrix.h ****         tmp[5] = mat[10] * mat[13];
1178:/home/tienluong/workspace/atlantis_fw/AsicFwS2/include/matrix.h ****         tmp[6] = mat[8] * mat[15];
1179:/home/tienluong/workspace/atlantis_fw/AsicFwS2/include/matrix.h ****         tmp[7] = mat[11] * mat[12];
1180:/home/tienluong/workspace/atlantis_fw/AsicFwS2/include/matrix.h ****         tmp[8] = mat[8] * mat[14];
1181:/home/tienluong/workspace/atlantis_fw/AsicFwS2/include/matrix.h ****         tmp[9] = mat[10] * mat[12];
1182:/home/tienluong/workspace/atlantis_fw/AsicFwS2/include/matrix.h ****         tmp[10] = mat[8] * mat[13];
1183:/home/tienluong/workspace/atlantis_fw/AsicFwS2/include/matrix.h ****         tmp[11] = mat[9] * mat[12];
1184:/home/tienluong/workspace/atlantis_fw/AsicFwS2/include/matrix.h **** 
1185:/home/tienluong/workspace/atlantis_fw/AsicFwS2/include/matrix.h ****         // calculate first 8 elements (cofactors)
1186:/home/tienluong/workspace/atlantis_fw/AsicFwS2/include/matrix.h ****         dst[0]   = tmp[0] * mat[5] + tmp[3] * mat[6] + tmp[4]  * mat[7];
1187:/home/tienluong/workspace/atlantis_fw/AsicFwS2/include/matrix.h ****         dst[0]  -= tmp[1] * mat[5] + tmp[2] * mat[6] + tmp[5]  * mat[7];
1188:/home/tienluong/workspace/atlantis_fw/AsicFwS2/include/matrix.h ****         dst[4]   = tmp[1] * mat[4] + tmp[6] * mat[6] + tmp[9]  * mat[7];
1189:/home/tienluong/workspace/atlantis_fw/AsicFwS2/include/matrix.h ****         dst[4]  -= tmp[0] * mat[4] + tmp[7] * mat[6] + tmp[8]  * mat[7];
1190:/home/tienluong/workspace/atlantis_fw/AsicFwS2/include/matrix.h ****         dst[8]   = tmp[2] * mat[4] + tmp[7] * mat[5] + tmp[10] * mat[7];
1191:/home/tienluong/workspace/atlantis_fw/AsicFwS2/include/matrix.h ****         dst[8]  -= tmp[3] * mat[4] + tmp[6] * mat[5] + tmp[11] * mat[7];
1192:/home/tienluong/workspace/atlantis_fw/AsicFwS2/include/matrix.h ****         dst[12]  = tmp[5] * mat[4] + tmp[8] * mat[5] + tmp[11] * mat[6];
1193:/home/tienluong/workspace/atlantis_fw/AsicFwS2/include/matrix.h ****         dst[12] -= tmp[4] * mat[4] + tmp[9] * mat[5] + tmp[10] * mat[6];
1194:/home/tienluong/workspace/atlantis_fw/AsicFwS2/include/matrix.h **** 
1195:/home/tienluong/workspace/atlantis_fw/AsicFwS2/include/matrix.h ****         // calculate determinant
1196:/home/tienluong/workspace/atlantis_fw/AsicFwS2/include/matrix.h ****         const T det = mat[0] * dst[0] + mat[1] * dst[4] + mat[2] * dst[8] + mat[3] * dst[12];
1197:/home/tienluong/workspace/atlantis_fw/AsicFwS2/include/matrix.h **** 
1198:/home/tienluong/workspace/atlantis_fw/AsicFwS2/include/matrix.h ****         const T inv_det = T{1} / det;
1199:/home/tienluong/workspace/atlantis_fw/AsicFwS2/include/matrix.h **** 
1200:/home/tienluong/workspace/atlantis_fw/AsicFwS2/include/matrix.h ****         dst[1]   = tmp[1] * mat[1] + tmp[2] * mat[2] + tmp[5]  * mat[3];
1201:/home/tienluong/workspace/atlantis_fw/AsicFwS2/include/matrix.h ****         dst[1]  -= tmp[0] * mat[1] + tmp[3] * mat[2] + tmp[4]  * mat[3];
1202:/home/tienluong/workspace/atlantis_fw/AsicFwS2/include/matrix.h ****         dst[5]   = tmp[0] * mat[0] + tmp[7] * mat[2] + tmp[8]  * mat[3];
1203:/home/tienluong/workspace/atlantis_fw/AsicFwS2/include/matrix.h ****         dst[5]  -= tmp[1] * mat[0] + tmp[6] * mat[2] + tmp[9]  * mat[3];
1204:/home/tienluong/workspace/atlantis_fw/AsicFwS2/include/matrix.h ****         dst[9]   = tmp[3] * mat[0] + tmp[6] * mat[1] + tmp[11] * mat[3];
1205:/home/tienluong/workspace/atlantis_fw/AsicFwS2/include/matrix.h ****         dst[9]  -= tmp[2] * mat[0] + tmp[7] * mat[1] + tmp[10] * mat[3];
1206:/home/tienluong/workspace/atlantis_fw/AsicFwS2/include/matrix.h ****         dst[13]  = tmp[4] * mat[0] + tmp[9] * mat[1] + tmp[10] * mat[2];
1207:/home/tienluong/workspace/atlantis_fw/AsicFwS2/include/matrix.h ****         dst[13] -= tmp[5] * mat[0] + tmp[8] * mat[1] + tmp[11] * mat[2];
1208:/home/tienluong/workspace/atlantis_fw/AsicFwS2/include/matrix.h **** 
1209:/home/tienluong/workspace/atlantis_fw/AsicFwS2/include/matrix.h ****         // calculate pairs for second 8 elements (cofactors)
1210:/home/tienluong/workspace/atlantis_fw/AsicFwS2/include/matrix.h ****         tmp[0] = mat[2] * mat[7];
1211:/home/tienluong/workspace/atlantis_fw/AsicFwS2/include/matrix.h ****         tmp[1] = mat[3] * mat[6];
1212:/home/tienluong/workspace/atlantis_fw/AsicFwS2/include/matrix.h ****         tmp[2] = mat[1] * mat[7];
1213:/home/tienluong/workspace/atlantis_fw/AsicFwS2/include/matrix.h ****         tmp[3] = mat[3] * mat[5];
1214:/home/tienluong/workspace/atlantis_fw/AsicFwS2/include/matrix.h ****         tmp[4] = mat[1] * mat[6];
1215:/home/tienluong/workspace/atlantis_fw/AsicFwS2/include/matrix.h ****         tmp[5] = mat[2] * mat[5];
1216:/home/tienluong/workspace/atlantis_fw/AsicFwS2/include/matrix.h ****         tmp[6] = mat[0] * mat[7];
1217:/home/tienluong/workspace/atlantis_fw/AsicFwS2/include/matrix.h ****         tmp[7] = mat[3] * mat[4];
1218:/home/tienluong/workspace/atlantis_fw/AsicFwS2/include/matrix.h ****         tmp[8] = mat[0] * mat[6];
1219:/home/tienluong/workspace/atlantis_fw/AsicFwS2/include/matrix.h ****         tmp[9] = mat[2] * mat[4];
1220:/home/tienluong/workspace/atlantis_fw/AsicFwS2/include/matrix.h ****         tmp[10] = mat[0] * mat[5];
1221:/home/tienluong/workspace/atlantis_fw/AsicFwS2/include/matrix.h ****         tmp[11] = mat[1] * mat[4];
1222:/home/tienluong/workspace/atlantis_fw/AsicFwS2/include/matrix.h **** 
1223:/home/tienluong/workspace/atlantis_fw/AsicFwS2/include/matrix.h ****         // calculate second 8 elements (cofactors)
1224:/home/tienluong/workspace/atlantis_fw/AsicFwS2/include/matrix.h ****         dst[2]   = tmp[0]  * mat[13] + tmp[3]  * mat[14] + tmp[4]  * mat[15];
1225:/home/tienluong/workspace/atlantis_fw/AsicFwS2/include/matrix.h ****         dst[2]  -= tmp[1]  * mat[13] + tmp[2]  * mat[14] + tmp[5]  * mat[15];
1226:/home/tienluong/workspace/atlantis_fw/AsicFwS2/include/matrix.h ****         dst[3]   = tmp[2]  * mat[10] + tmp[5]  * mat[11] + tmp[1]  * mat[9];
1227:/home/tienluong/workspace/atlantis_fw/AsicFwS2/include/matrix.h ****         dst[3]  -= tmp[4]  * mat[11] + tmp[0]  * mat[9]  + tmp[3]  * mat[10];
1228:/home/tienluong/workspace/atlantis_fw/AsicFwS2/include/matrix.h ****         dst[6]   = tmp[1]  * mat[12] + tmp[6]  * mat[14] + tmp[9]  * mat[15];
1229:/home/tienluong/workspace/atlantis_fw/AsicFwS2/include/matrix.h ****         dst[6]  -= tmp[0]  * mat[12] + tmp[7]  * mat[14] + tmp[8]  * mat[15];
1230:/home/tienluong/workspace/atlantis_fw/AsicFwS2/include/matrix.h ****         dst[7]   = tmp[8]  * mat[11] + tmp[0]  * mat[8]  + tmp[7]  * mat[10];
1231:/home/tienluong/workspace/atlantis_fw/AsicFwS2/include/matrix.h ****         dst[7]  -= tmp[6]  * mat[10] + tmp[9]  * mat[11] + tmp[1]  * mat[8];
1232:/home/tienluong/workspace/atlantis_fw/AsicFwS2/include/matrix.h ****         dst[10]  = tmp[2]  * mat[12] + tmp[7]  * mat[13] + tmp[10] * mat[15];
1233:/home/tienluong/workspace/atlantis_fw/AsicFwS2/include/matrix.h ****         dst[10] -= tmp[3]  * mat[12] + tmp[6]  * mat[13] + tmp[11] * mat[15];
1234:/home/tienluong/workspace/atlantis_fw/AsicFwS2/include/matrix.h ****         dst[11]  = tmp[6]  * mat[9]  + tmp[11] * mat[11] + tmp[3]  * mat[8];
1235:/home/tienluong/workspace/atlantis_fw/AsicFwS2/include/matrix.h ****         dst[11] -= tmp[10] * mat[11] + tmp[2]  * mat[8]  + tmp[7]  * mat[9];
1236:/home/tienluong/workspace/atlantis_fw/AsicFwS2/include/matrix.h ****         dst[14]  = tmp[5]  * mat[12] + tmp[8]  * mat[13] + tmp[11] * mat[14];
1237:/home/tienluong/workspace/atlantis_fw/AsicFwS2/include/matrix.h ****         dst[14] -= tmp[4]  * mat[12] + tmp[9]  * mat[13] + tmp[10] * mat[14];
1238:/home/tienluong/workspace/atlantis_fw/AsicFwS2/include/matrix.h ****         dst[15]  = tmp[10] * mat[10] + tmp[4]  * mat[8]  + tmp[9]  * mat[9];
1239:/home/tienluong/workspace/atlantis_fw/AsicFwS2/include/matrix.h ****         dst[15] -= tmp[8]  * mat[9]  + tmp[11] * mat[10] + tmp[5]  * mat[8];
1240:/home/tienluong/workspace/atlantis_fw/AsicFwS2/include/matrix.h **** 
1241:/home/tienluong/workspace/atlantis_fw/AsicFwS2/include/matrix.h ****         // calculate matrix inverse
1242:/home/tienluong/workspace/atlantis_fw/AsicFwS2/include/matrix.h ****         for( int i = 0; i < 16; i++ ) { mat[i] = dst[i] * inv_det; }
1243:/home/tienluong/workspace/atlantis_fw/AsicFwS2/include/matrix.h ****     }
1244:/home/tienluong/workspace/atlantis_fw/AsicFwS2/include/matrix.h **** };
1245:/home/tienluong/workspace/atlantis_fw/AsicFwS2/include/matrix.h **** 
1246:/home/tienluong/workspace/atlantis_fw/AsicFwS2/include/matrix.h **** template<typename T, int N, bool D>
1247:/home/tienluong/workspace/atlantis_fw/AsicFwS2/include/matrix.h **** Matrix<T, N, N, D> inverse( const Matrix<T, N, N, D> & mat )
 248              		.loc 2 1247 0
 249              		.cfi_startproc
 250              		@ args = 0, pretend = 0, frame = 0
 251              		@ frame_needed = 0, uses_anonymous_args = 0
 252              	.LVL18:
 253 0000 10B5     		push	{r4, lr}
 254              	.LCFI6:
 255              		.cfi_def_cfa_offset 8
 256              		.cfi_offset 4, -8
 257              		.cfi_offset 14, -4
 258              		.loc 2 1247 0
 259 0002 0446     		mov	r4, r0
 260              	.LVL19:
 261              	.LBB144:
 262              	.LBB145:
 263              	.LBB146:
 591:/home/tienluong/workspace/atlantis_fw/AsicFwS2/include/matrix.h **** 
 264              		.loc 2 591 0
 265 0004 0FC9     		ldmia	r1, {r0, r1, r2, r3}
 266              	.LVL20:
 267 0006 84E80F00 		stmia	r4, {r0, r1, r2, r3}
 268              	.LVL21:
 269              	.LBE146:
 270              	.LBE145:
1248:/home/tienluong/workspace/atlantis_fw/AsicFwS2/include/matrix.h **** {
1249:/home/tienluong/workspace/atlantis_fw/AsicFwS2/include/matrix.h ****     Matrix<T, N, N, D> rval( mat );
1250:/home/tienluong/workspace/atlantis_fw/AsicFwS2/include/matrix.h ****     SquareMatrixInverter<T, N> inverter;
1251:/home/tienluong/workspace/atlantis_fw/AsicFwS2/include/matrix.h ****     inverter.run( rval.data() );
 271              		.loc 2 1251 0
 272 000a 2046     		mov	r0, r4
 273 000c 014B     		ldr	r3, .L22
 274 000e 9847     		blx	r3
 275              	.LVL22:
 276              	.LBE144:
1252:/home/tienluong/workspace/atlantis_fw/AsicFwS2/include/matrix.h ****     return rval;
1253:/home/tienluong/workspace/atlantis_fw/AsicFwS2/include/matrix.h **** }
 277              		.loc 2 1253 0
 278 0010 2046     		mov	r0, r4
 279 0012 10BD     		pop	{r4, pc}
 280              	.LVL23:
 281              	.L23:
 282              		.align	2
 283              	.L22:
 284 0014 00000000 		.word	_ZNK4ltaf20SquareMatrixInverterIfLi2EE3runEPf.isra.2
 285              		.cfi_endproc
 286              	.LFE3574:
 288              		.section	.text._ZN4ltaf7inverseIfLi2ELb0EEENS_6MatrixIT_XT0_EXT0_EXT1_EEERKS3_,"axG",%progbits,_ZN
 289              		.align	1
 290              		.weak	_ZN4ltaf7inverseIfLi2ELb0EEENS_6MatrixIT_XT0_EXT0_EXT1_EEERKS3_
 291              		.thumb
 292              		.thumb_func
 294              	_ZN4ltaf7inverseIfLi2ELb0EEENS_6MatrixIT_XT0_EXT0_EXT1_EEERKS3_:
 295              	.LFB3577:
1247:/home/tienluong/workspace/atlantis_fw/AsicFwS2/include/matrix.h **** {
 296              		.loc 2 1247 0
 297              		.cfi_startproc
 298              		@ args = 0, pretend = 0, frame = 0
 299              		@ frame_needed = 0, uses_anonymous_args = 0
 300              	.LVL24:
 301 0000 10B5     		push	{r4, lr}
 302              	.LCFI7:
 303              		.cfi_def_cfa_offset 8
 304              		.cfi_offset 4, -8
 305              		.cfi_offset 14, -4
1247:/home/tienluong/workspace/atlantis_fw/AsicFwS2/include/matrix.h **** {
 306              		.loc 2 1247 0
 307 0002 0446     		mov	r4, r0
 308              	.LVL25:
 309              	.LBB153:
 310              	.LBB154:
 311              	.LBB155:
 593:/home/tienluong/workspace/atlantis_fw/AsicFwS2/include/matrix.h **** 
 312              		.loc 2 593 0
 313 0004 0FC9     		ldmia	r1, {r0, r1, r2, r3}
 314              	.LVL26:
 315 0006 84E80F00 		stmia	r4, {r0, r1, r2, r3}
 316              	.LVL27:
 317              	.LBE155:
 318              	.LBE154:
1251:/home/tienluong/workspace/atlantis_fw/AsicFwS2/include/matrix.h ****     return rval;
 319              		.loc 2 1251 0
 320 000a 2046     		mov	r0, r4
 321 000c 014B     		ldr	r3, .L25
 322 000e 9847     		blx	r3
 323              	.LVL28:
 324              	.LBE153:
 325              		.loc 2 1253 0
 326 0010 2046     		mov	r0, r4
 327 0012 10BD     		pop	{r4, pc}
 328              	.LVL29:
 329              	.L26:
 330              		.align	2
 331              	.L25:
 332 0014 00000000 		.word	_ZNK4ltaf20SquareMatrixInverterIfLi2EE3runEPf.isra.2
 333              		.cfi_endproc
 334              	.LFE3577:
 336              		.section	.text._ZN4ltaf11determinantIfLi2ELb1EEET_RKNS_6MatrixIS1_XT0_EXT0_EXT1_EEE,"axG",%progbit
 337              		.align	1
 338              		.weak	_ZN4ltaf11determinantIfLi2ELb1EEET_RKNS_6MatrixIS1_XT0_EXT0_EXT1_EEE
 339              		.thumb
 340              		.thumb_func
 342              	_ZN4ltaf11determinantIfLi2ELb1EEET_RKNS_6MatrixIS1_XT0_EXT0_EXT1_EEE:
 343              	.LFB3586:
1254:/home/tienluong/workspace/atlantis_fw/AsicFwS2/include/matrix.h **** 
1255:/home/tienluong/workspace/atlantis_fw/AsicFwS2/include/matrix.h **** template<typename T, int N, bool D>
1256:/home/tienluong/workspace/atlantis_fw/AsicFwS2/include/matrix.h **** T determinant( const Matrix<T, N, N, D> & mat )
 344              		.loc 2 1256 0
 345              		.cfi_startproc
 346              		@ args = 0, pretend = 0, frame = 0
 347              		@ frame_needed = 0, uses_anonymous_args = 0
 348              	.LVL30:
 349 0000 70B5     		push	{r4, r5, r6, lr}
 350              	.LCFI8:
 351              		.cfi_def_cfa_offset 16
 352              		.cfi_offset 4, -16
 353              		.cfi_offset 5, -12
 354              		.cfi_offset 6, -8
 355              		.cfi_offset 14, -4
 356              		.loc 2 1256 0
 357 0002 0446     		mov	r4, r0
 358              	.LBB161:
 359              	.LBB162:
 360              	.LBB163:
1062:/home/tienluong/workspace/atlantis_fw/AsicFwS2/include/matrix.h ****     }
 361              		.loc 2 1062 0
 362 0004 064D     		ldr	r5, .L28
 363 0006 0068     		ldr	r0, [r0]	@ float
 364              	.LVL31:
 365 0008 E168     		ldr	r1, [r4, #12]	@ float
 366 000a A847     		blx	r5
 367              	.LVL32:
 368 000c A168     		ldr	r1, [r4, #8]	@ float
 369 000e 0646     		mov	r6, r0
 370 0010 6068     		ldr	r0, [r4, #4]	@ float
 371 0012 A847     		blx	r5
 372              	.LVL33:
 373 0014 034B     		ldr	r3, .L28+4
 374 0016 0146     		mov	r1, r0
 375 0018 3046     		mov	r0, r6
 376 001a 9847     		blx	r3
 377              	.LVL34:
 378              	.LBE163:
 379              	.LBE162:
 380              	.LBE161:
1257:/home/tienluong/workspace/atlantis_fw/AsicFwS2/include/matrix.h **** {
1258:/home/tienluong/workspace/atlantis_fw/AsicFwS2/include/matrix.h ****     MatrixDeterminant<T, N> det;
1259:/home/tienluong/workspace/atlantis_fw/AsicFwS2/include/matrix.h ****     return det( mat.data() );
1260:/home/tienluong/workspace/atlantis_fw/AsicFwS2/include/matrix.h **** }
 381              		.loc 2 1260 0
 382 001c 70BD     		pop	{r4, r5, r6, pc}
 383              	.LVL35:
 384              	.L29:
 385 001e 00BF     		.align	2
 386              	.L28:
 387 0020 00000000 		.word	__aeabi_fmul
 388 0024 00000000 		.word	__aeabi_fsub
 389              		.cfi_endproc
 390              	.LFE3586:
 392              		.section	.text._ZN4ltaf11determinantIfLi2ELb0EEET_RKNS_6MatrixIS1_XT0_EXT0_EXT1_EEE,"axG",%progbit
 393              		.align	1
 394              		.weak	_ZN4ltaf11determinantIfLi2ELb0EEET_RKNS_6MatrixIS1_XT0_EXT0_EXT1_EEE
 395              		.thumb
 396              		.thumb_func
 398              	_ZN4ltaf11determinantIfLi2ELb0EEET_RKNS_6MatrixIS1_XT0_EXT0_EXT1_EEE:
 399              	.LFB3589:
1256:/home/tienluong/workspace/atlantis_fw/AsicFwS2/include/matrix.h **** {
 400              		.loc 2 1256 0
 401              		.cfi_startproc
 402              		@ args = 0, pretend = 0, frame = 0
 403              		@ frame_needed = 0, uses_anonymous_args = 0
 404              	.LVL36:
 405 0000 70B5     		push	{r4, r5, r6, lr}
 406              	.LCFI9:
 407              		.cfi_def_cfa_offset 16
 408              		.cfi_offset 4, -16
 409              		.cfi_offset 5, -12
 410              		.cfi_offset 6, -8
 411              		.cfi_offset 14, -4
1256:/home/tienluong/workspace/atlantis_fw/AsicFwS2/include/matrix.h **** {
 412              		.loc 2 1256 0
 413 0002 0446     		mov	r4, r0
 414              	.LBB169:
 415              	.LBB170:
 416              	.LBB171:
1062:/home/tienluong/workspace/atlantis_fw/AsicFwS2/include/matrix.h ****     }
 417              		.loc 2 1062 0
 418 0004 064D     		ldr	r5, .L31
 419 0006 0068     		ldr	r0, [r0]	@ float
 420              	.LVL37:
 421 0008 E168     		ldr	r1, [r4, #12]	@ float
 422 000a A847     		blx	r5
 423              	.LVL38:
 424 000c A168     		ldr	r1, [r4, #8]	@ float
 425 000e 0646     		mov	r6, r0
 426 0010 6068     		ldr	r0, [r4, #4]	@ float
 427 0012 A847     		blx	r5
 428              	.LVL39:
 429 0014 034B     		ldr	r3, .L31+4
 430 0016 0146     		mov	r1, r0
 431 0018 3046     		mov	r0, r6
 432 001a 9847     		blx	r3
 433              	.LVL40:
 434              	.LBE171:
 435              	.LBE170:
 436              	.LBE169:
 437              		.loc 2 1260 0
 438 001c 70BD     		pop	{r4, r5, r6, pc}
 439              	.LVL41:
 440              	.L32:
 441 001e 00BF     		.align	2
 442              	.L31:
 443 0020 00000000 		.word	__aeabi_fmul
 444 0024 00000000 		.word	__aeabi_fsub
 445              		.cfi_endproc
 446              	.LFE3589:
 448              		.global	__aeabi_dmul
 449              		.global	__aeabi_dsub
 450              		.section	.text._ZN4ltaf11determinantIdLi2ELb1EEET_RKNS_6MatrixIS1_XT0_EXT0_EXT1_EEE,"axG",%progbit
 451              		.align	1
 452              		.weak	_ZN4ltaf11determinantIdLi2ELb1EEET_RKNS_6MatrixIS1_XT0_EXT0_EXT1_EEE
 453              		.thumb
 454              		.thumb_func
 456              	_ZN4ltaf11determinantIdLi2ELb1EEET_RKNS_6MatrixIS1_XT0_EXT0_EXT1_EEE:
 457              	.LFB3592:
1256:/home/tienluong/workspace/atlantis_fw/AsicFwS2/include/matrix.h **** {
 458              		.loc 2 1256 0
 459              		.cfi_startproc
 460              		@ args = 0, pretend = 0, frame = 0
 461              		@ frame_needed = 0, uses_anonymous_args = 0
 462              	.LVL42:
 463 0000 F8B5     		push	{r3, r4, r5, r6, r7, lr}
 464              	.LCFI10:
 465              		.cfi_def_cfa_offset 24
 466              		.cfi_offset 3, -24
 467              		.cfi_offset 4, -20
 468              		.cfi_offset 5, -16
 469              		.cfi_offset 6, -12
 470              		.cfi_offset 7, -8
 471              		.cfi_offset 14, -4
1256:/home/tienluong/workspace/atlantis_fw/AsicFwS2/include/matrix.h **** {
 472              		.loc 2 1256 0
 473 0002 0446     		mov	r4, r0
 474              	.LBB177:
 475              	.LBB178:
 476              	.LBB179:
1062:/home/tienluong/workspace/atlantis_fw/AsicFwS2/include/matrix.h ****     }
 477              		.loc 2 1062 0
 478 0004 094D     		ldr	r5, .L34
 479 0006 D0E90001 		ldrd	r0, [r0]
 480              	.LVL43:
 481 000a D4E90623 		ldrd	r2, [r4, #24]
 482 000e A847     		blx	r5
 483              	.LVL44:
 484 0010 D4E90423 		ldrd	r2, [r4, #16]
 485 0014 0646     		mov	r6, r0
 486 0016 0F46     		mov	r7, r1
 487 0018 D4E90201 		ldrd	r0, [r4, #8]
 488 001c A847     		blx	r5
 489              	.LVL45:
 490 001e 044C     		ldr	r4, .L34+4
 491              	.LVL46:
 492 0020 0246     		mov	r2, r0
 493 0022 0B46     		mov	r3, r1
 494 0024 3046     		mov	r0, r6
 495 0026 3946     		mov	r1, r7
 496 0028 A047     		blx	r4
 497              	.LVL47:
 498              	.LBE179:
 499              	.LBE178:
 500              	.LBE177:
 501              		.loc 2 1260 0
 502 002a F8BD     		pop	{r3, r4, r5, r6, r7, pc}
 503              	.L35:
 504              		.align	2
 505              	.L34:
 506 002c 00000000 		.word	__aeabi_dmul
 507 0030 00000000 		.word	__aeabi_dsub
 508              		.cfi_endproc
 509              	.LFE3592:
 511              		.section	.text._ZN4ltaf11determinantIdLi2ELb0EEET_RKNS_6MatrixIS1_XT0_EXT0_EXT1_EEE,"axG",%progbit
 512              		.align	1
 513              		.weak	_ZN4ltaf11determinantIdLi2ELb0EEET_RKNS_6MatrixIS1_XT0_EXT0_EXT1_EEE
 514              		.thumb
 515              		.thumb_func
 517              	_ZN4ltaf11determinantIdLi2ELb0EEET_RKNS_6MatrixIS1_XT0_EXT0_EXT1_EEE:
 518              	.LFB3595:
1256:/home/tienluong/workspace/atlantis_fw/AsicFwS2/include/matrix.h **** {
 519              		.loc 2 1256 0
 520              		.cfi_startproc
 521              		@ args = 0, pretend = 0, frame = 0
 522              		@ frame_needed = 0, uses_anonymous_args = 0
 523              	.LVL48:
 524 0000 F8B5     		push	{r3, r4, r5, r6, r7, lr}
 525              	.LCFI11:
 526              		.cfi_def_cfa_offset 24
 527              		.cfi_offset 3, -24
 528              		.cfi_offset 4, -20
 529              		.cfi_offset 5, -16
 530              		.cfi_offset 6, -12
 531              		.cfi_offset 7, -8
 532              		.cfi_offset 14, -4
1256:/home/tienluong/workspace/atlantis_fw/AsicFwS2/include/matrix.h **** {
 533              		.loc 2 1256 0
 534 0002 0446     		mov	r4, r0
 535              	.LBB185:
 536              	.LBB186:
 537              	.LBB187:
1062:/home/tienluong/workspace/atlantis_fw/AsicFwS2/include/matrix.h ****     }
 538              		.loc 2 1062 0
 539 0004 094D     		ldr	r5, .L37
 540 0006 D0E90001 		ldrd	r0, [r0]
 541              	.LVL49:
 542 000a D4E90623 		ldrd	r2, [r4, #24]
 543 000e A847     		blx	r5
 544              	.LVL50:
 545 0010 D4E90423 		ldrd	r2, [r4, #16]
 546 0014 0646     		mov	r6, r0
 547 0016 0F46     		mov	r7, r1
 548 0018 D4E90201 		ldrd	r0, [r4, #8]
 549 001c A847     		blx	r5
 550              	.LVL51:
 551 001e 044C     		ldr	r4, .L37+4
 552              	.LVL52:
 553 0020 0246     		mov	r2, r0
 554 0022 0B46     		mov	r3, r1
 555 0024 3046     		mov	r0, r6
 556 0026 3946     		mov	r1, r7
 557 0028 A047     		blx	r4
 558              	.LVL53:
 559              	.LBE187:
 560              	.LBE186:
 561              	.LBE185:
 562              		.loc 2 1260 0
 563 002a F8BD     		pop	{r3, r4, r5, r6, r7, pc}
 564              	.L38:
 565              		.align	2
 566              	.L37:
 567 002c 00000000 		.word	__aeabi_dmul
 568 0030 00000000 		.word	__aeabi_dsub
 569              		.cfi_endproc
 570              	.LFE3595:
 572              		.section	.text.pri_roi_mipi_callback,"ax",%progbits
 573              		.align	1
 574              		.global	pri_roi_mipi_callback
 575              		.thumb
 576              		.thumb_func
 578              	pri_roi_mipi_callback:
 579              	.LFB3535:
  36:/home/tienluong/workspace/atlantis_fw/AsicFwS2/src/af_ae.cpp ****     static_cast<af_ae*>(user_data)->pri_mipi2axi_cb(iidx, signal_irq, error_irq);
 580              		.loc 1 36 0
 581              		.cfi_startproc
 582              		@ args = 0, pretend = 0, frame = 0
 583              		@ frame_needed = 0, uses_anonymous_args = 0
 584              	.LVL54:
 585              	.LBB188:
 586              	.LBB189:
 587              	.LBB190:
 272:/home/tienluong/workspace/atlantis_fw/AsicFwS2/src/af_ae.cpp ****         BaseType_t higher_pri_task_woken = pdFALSE;
 588              		.loc 1 272 0
 589 0000 CA00     		lsls	r2, r1, #3
 590              	.LVL55:
 591              	.LBE190:
 592              	.LBE189:
 593              	.LBE188:
  36:/home/tienluong/workspace/atlantis_fw/AsicFwS2/src/af_ae.cpp ****     static_cast<af_ae*>(user_data)->pri_mipi2axi_cb(iidx, signal_irq, error_irq);
 594              		.loc 1 36 0
 595 0002 08B5     		push	{r3, lr}
 596              	.LCFI12:
 597              		.cfi_def_cfa_offset 8
 598              		.cfi_offset 3, -8
 599              		.cfi_offset 14, -4
 600              	.LBB193:
 601              	.LBB192:
 602              	.LBB191:
 272:/home/tienluong/workspace/atlantis_fw/AsicFwS2/src/af_ae.cpp ****         BaseType_t higher_pri_task_woken = pdFALSE;
 603              		.loc 1 272 0
 604 0004 02D5     		bpl	.L39
 605              	.LBE191:
 606 0006 1846     		mov	r0, r3
 607              	.LVL56:
 608 0008 014B     		ldr	r3, .L44
 609              	.LVL57:
 610 000a 9847     		blx	r3
 611              	.LVL58:
 612              	.L39:
 613 000c 08BD     		pop	{r3, pc}
 614              	.L45:
 615 000e 00BF     		.align	2
 616              	.L44:
 617 0010 00000000 		.word	_ZN5af_ae15pri_mipi2axi_cbEhmm.part.0
 618              	.LBE192:
 619              	.LBE193:
 620              		.cfi_endproc
 621              	.LFE3535:
 623              		.section	.text.aux_roi_mipi_callback,"ax",%progbits
 624              		.align	1
 625              		.global	aux_roi_mipi_callback
 626              		.thumb
 627              		.thumb_func
 629              	aux_roi_mipi_callback:
 630              	.LFB3536:
  41:/home/tienluong/workspace/atlantis_fw/AsicFwS2/src/af_ae.cpp ****     static_cast<af_ae*>(user_data)->aux_mipi2axi_cb(iidx, signal_irq, error_irq);
 631              		.loc 1 41 0
 632              		.cfi_startproc
 633              		@ args = 0, pretend = 0, frame = 0
 634              		@ frame_needed = 0, uses_anonymous_args = 0
 635              	.LVL59:
 636              	.LBB194:
 637              	.LBB195:
 638              	.LBB196:
 280:/home/tienluong/workspace/atlantis_fw/AsicFwS2/src/af_ae.cpp ****         BaseType_t higher_pri_task_woken = pdFALSE;
 639              		.loc 1 280 0
 640 0000 CA00     		lsls	r2, r1, #3
 641              	.LVL60:
 642              	.LBE196:
 643              	.LBE195:
 644              	.LBE194:
  41:/home/tienluong/workspace/atlantis_fw/AsicFwS2/src/af_ae.cpp ****     static_cast<af_ae*>(user_data)->aux_mipi2axi_cb(iidx, signal_irq, error_irq);
 645              		.loc 1 41 0
 646 0002 08B5     		push	{r3, lr}
 647              	.LCFI13:
 648              		.cfi_def_cfa_offset 8
 649              		.cfi_offset 3, -8
 650              		.cfi_offset 14, -4
 651              	.LBB199:
 652              	.LBB198:
 653              	.LBB197:
 280:/home/tienluong/workspace/atlantis_fw/AsicFwS2/src/af_ae.cpp ****         BaseType_t higher_pri_task_woken = pdFALSE;
 654              		.loc 1 280 0
 655 0004 02D5     		bpl	.L46
 656              	.LBE197:
 657 0006 1846     		mov	r0, r3
 658              	.LVL61:
 659 0008 014B     		ldr	r3, .L51
 660              	.LVL62:
 661 000a 9847     		blx	r3
 662              	.LVL63:
 663              	.L46:
 664 000c 08BD     		pop	{r3, pc}
 665              	.L52:
 666 000e 00BF     		.align	2
 667              	.L51:
 668 0010 00000000 		.word	_ZN5af_ae15aux_mipi2axi_cbEhmm.part.1
 669              	.LBE198:
 670              	.LBE199:
 671              		.cfi_endproc
 672              	.LFE3536:
 674              		.section	.text._ZN5af_aeC2Ev,"ax",%progbits
 675              		.align	1
 676              		.global	_ZN5af_aeC2Ev
 677              		.thumb
 678              		.thumb_func
 680              	_ZN5af_aeC2Ev:
 681              	.LFB3539:
  65:/home/tienluong/workspace/atlantis_fw/AsicFwS2/src/af_ae.cpp ****     pri_capture_sem_{xSemaphoreCreateBinary()},
 682              		.loc 1 65 0
 683              		.cfi_startproc
 684              		@ args = 0, pretend = 0, frame = 0
 685              		@ frame_needed = 0, uses_anonymous_args = 0
 686              	.LVL64:
 687 0000 38B5     		push	{r3, r4, r5, lr}
 688              	.LCFI14:
 689              		.cfi_def_cfa_offset 16
 690              		.cfi_offset 3, -16
 691              		.cfi_offset 4, -12
 692              		.cfi_offset 5, -8
 693              		.cfi_offset 14, -4
 694              	.LBB200:
  66:/home/tienluong/workspace/atlantis_fw/AsicFwS2/src/af_ae.cpp ****     aux_capture_sem_{xSemaphoreCreateBinary()} {
 695              		.loc 1 66 0
 696 0002 0021     		movs	r1, #0
 697              	.LBE200:
  65:/home/tienluong/workspace/atlantis_fw/AsicFwS2/src/af_ae.cpp ****     pri_capture_sem_{xSemaphoreCreateBinary()},
 698              		.loc 1 65 0
 699 0004 0446     		mov	r4, r0
 700              	.LBB201:
  66:/home/tienluong/workspace/atlantis_fw/AsicFwS2/src/af_ae.cpp ****     aux_capture_sem_{xSemaphoreCreateBinary()} {
 701              		.loc 1 66 0
 702 0006 0322     		movs	r2, #3
 703 0008 054D     		ldr	r5, .L54
 704 000a 0120     		movs	r0, #1
 705              	.LVL65:
 706 000c A847     		blx	r5
 707              	.LVL66:
  67:/home/tienluong/workspace/atlantis_fw/AsicFwS2/src/af_ae.cpp **** }
 708              		.loc 1 67 0
 709 000e 0021     		movs	r1, #0
 710 0010 0322     		movs	r2, #3
 711 0012 2060     		str	r0, [r4]
 712 0014 0120     		movs	r0, #1
 713 0016 A847     		blx	r5
 714              	.LVL67:
 715 0018 6060     		str	r0, [r4, #4]
 716              	.LBE201:
  68:/home/tienluong/workspace/atlantis_fw/AsicFwS2/src/af_ae.cpp **** 
 717              		.loc 1 68 0
 718 001a 2046     		mov	r0, r4
 719 001c 38BD     		pop	{r3, r4, r5, pc}
 720              	.LVL68:
 721              	.L55:
 722 001e 00BF     		.align	2
 723              	.L54:
 724 0020 00000000 		.word	xQueueGenericCreate
 725              		.cfi_endproc
 726              	.LFE3539:
 728              		.global	_ZN5af_aeC1Ev
 729              		.thumb_set _ZN5af_aeC1Ev,_ZN5af_aeC2Ev
 730              		.section	.text._ZN5af_aeD2Ev,"ax",%progbits
 731              		.align	1
 732              		.global	_ZN5af_aeD2Ev
 733              		.thumb
 734              		.thumb_func
 736              	_ZN5af_aeD2Ev:
 737              	.LFB3542:
  70:/home/tienluong/workspace/atlantis_fw/AsicFwS2/src/af_ae.cpp ****     vSemaphoreDelete(pri_capture_sem_);
 738              		.loc 1 70 0
 739              		.cfi_startproc
 740              		@ args = 0, pretend = 0, frame = 0
 741              		@ frame_needed = 0, uses_anonymous_args = 0
 742              	.LVL69:
 743 0000 38B5     		push	{r3, r4, r5, lr}
 744              	.LCFI15:
 745              		.cfi_def_cfa_offset 16
 746              		.cfi_offset 3, -16
 747              		.cfi_offset 4, -12
 748              		.cfi_offset 5, -8
 749              		.cfi_offset 14, -4
  70:/home/tienluong/workspace/atlantis_fw/AsicFwS2/src/af_ae.cpp ****     vSemaphoreDelete(pri_capture_sem_);
 750              		.loc 1 70 0
 751 0002 0446     		mov	r4, r0
 752              	.LBB202:
  71:/home/tienluong/workspace/atlantis_fw/AsicFwS2/src/af_ae.cpp ****     vSemaphoreDelete(aux_capture_sem_);
 753              		.loc 1 71 0
 754 0004 034D     		ldr	r5, .L57
 755 0006 0068     		ldr	r0, [r0]
 756              	.LVL70:
 757 0008 A847     		blx	r5
 758              	.LVL71:
  72:/home/tienluong/workspace/atlantis_fw/AsicFwS2/src/af_ae.cpp **** }
 759              		.loc 1 72 0
 760 000a 6068     		ldr	r0, [r4, #4]
 761 000c A847     		blx	r5
 762              	.LVL72:
 763              	.LBE202:
  73:/home/tienluong/workspace/atlantis_fw/AsicFwS2/src/af_ae.cpp **** 
 764              		.loc 1 73 0
 765 000e 2046     		mov	r0, r4
 766 0010 38BD     		pop	{r3, r4, r5, pc}
 767              	.LVL73:
 768              	.L58:
 769 0012 00BF     		.align	2
 770              	.L57:
 771 0014 00000000 		.word	vQueueDelete
 772              		.cfi_endproc
 773              	.LFE3542:
 775              		.global	_ZN5af_aeD1Ev
 776              		.thumb_set _ZN5af_aeD1Ev,_ZN5af_aeD2Ev
 777              		.section	.text.execute_af_ae,"ax",%progbits
 778              		.align	1
 779              		.global	execute_af_ae
 780              		.thumb
 781              		.thumb_func
 783              	execute_af_ae:
 784              	.LFB3537:
  45:/home/tienluong/workspace/atlantis_fw/AsicFwS2/src/af_ae.cpp ****     roi_rectangle_t roi_rect;
 785              		.loc 1 45 0
 786              		.cfi_startproc
 787              		@ args = 0, pretend = 0, frame = 24
 788              		@ frame_needed = 0, uses_anonymous_args = 0
 789              	.LBB203:
  47:/home/tienluong/workspace/atlantis_fw/AsicFwS2/src/af_ae.cpp ****     std::int16_t left_x = roi_rect.left_x;
 790              		.loc 1 47 0
 791 0000 104B     		ldr	r3, .L60
 792              	.LBE203:
  45:/home/tienluong/workspace/atlantis_fw/AsicFwS2/src/af_ae.cpp ****     roi_rectangle_t roi_rect;
 793              		.loc 1 45 0
 794 0002 10B5     		push	{r4, lr}
 795              	.LCFI16:
 796              		.cfi_def_cfa_offset 8
 797              		.cfi_offset 4, -8
 798              		.cfi_offset 14, -4
 799              	.LBB206:
  47:/home/tienluong/workspace/atlantis_fw/AsicFwS2/src/af_ae.cpp ****     std::int16_t left_x = roi_rect.left_x;
 800              		.loc 1 47 0
 801 0004 1B68     		ldr	r3, [r3]
 802              	.LBE206:
  45:/home/tienluong/workspace/atlantis_fw/AsicFwS2/src/af_ae.cpp ****     roi_rectangle_t roi_rect;
 803              		.loc 1 45 0
 804 0006 88B0     		sub	sp, sp, #32
 805              	.LCFI17:
 806              		.cfi_def_cfa_offset 40
 807              	.LBB207:
  52:/home/tienluong/workspace/atlantis_fw/AsicFwS2/src/af_ae.cpp ****     af_ae af;
 808              		.loc 1 52 0
 809 0008 0F4C     		ldr	r4, .L60+4
  47:/home/tienluong/workspace/atlantis_fw/AsicFwS2/src/af_ae.cpp ****     std::int16_t left_x = roi_rect.left_x;
 810              		.loc 1 47 0
 811 000a 9A68     		ldr	r2, [r3, #8]
 812 000c 02AB     		add	r3, sp, #8
 813 000e 52F8500F 		ldr	r0, [r2, #80]!	@ unaligned
 814 0012 5168     		ldr	r1, [r2, #4]	@ unaligned
 815 0014 03C3     		stmia	r3!, {r0, r1}
 816              	.LVL74:
  52:/home/tienluong/workspace/atlantis_fw/AsicFwS2/src/af_ae.cpp ****     af_ae af;
 817              		.loc 1 52 0
 818 0016 BDF90810 		ldrsh	r1, [sp, #8]
 819 001a BDF90A20 		ldrsh	r2, [sp, #10]
 820 001e BDF80E00 		ldrh	r0, [sp, #14]
 821 0022 BDF80C30 		ldrh	r3, [sp, #12]
 822              	.LVL75:
 823 0026 0090     		str	r0, [sp]
 824 0028 04A8     		add	r0, sp, #16
 825 002a A047     		blx	r4
 826              	.LVL76:
  53:/home/tienluong/workspace/atlantis_fw/AsicFwS2/src/af_ae.cpp ****     af.run(pri_roi);
 827              		.loc 1 53 0
 828 002c 06A8     		add	r0, sp, #24
 829 002e 074B     		ldr	r3, .L60+8
 830 0030 9847     		blx	r3
 831              	.LVL77:
 832              	.LBB204:
 833              	.LBB205:
  77:/home/tienluong/workspace/atlantis_fw/AsicFwS2/src/af_ae.cpp **** 
 834              		.loc 1 77 0
 835 0032 0748     		ldr	r0, .L60+12
 836 0034 074B     		ldr	r3, .L60+16
 837 0036 9847     		blx	r3
 838              	.LVL78:
 839              	.LBE205:
 840              	.LBE204:
  54:/home/tienluong/workspace/atlantis_fw/AsicFwS2/src/af_ae.cpp **** }
 841              		.loc 1 54 0
 842 0038 06A8     		add	r0, sp, #24
 843              	.LVL79:
 844 003a 074B     		ldr	r3, .L60+20
 845 003c 9847     		blx	r3
 846              	.LVL80:
 847              	.LBE207:
  55:/home/tienluong/workspace/atlantis_fw/AsicFwS2/src/af_ae.cpp **** 
 848              		.loc 1 55 0
 849 003e 08B0     		add	sp, sp, #32
 850              	.LCFI18:
 851              		.cfi_def_cfa_offset 8
 852              		@ sp needed
 853 0040 10BD     		pop	{r4, pc}
 854              	.LVL81:
 855              	.L61:
 856 0042 00BF     		.align	2
 857              	.L60:
 858 0044 00000000 		.word	light_system
 859 0048 00000000 		.word	_ZN9rectangleC1Esstt
 860 004c 00000000 		.word	_ZN5af_aeC2Ev
 861 0050 00000000 		.word	_ZN20optical_zoom_manager9instance_E
 862 0054 00000000 		.word	_ZN20optical_zoom_manager18start_mirrors_moveEv
 863 0058 00000000 		.word	_ZN5af_aeD2Ev
 864              		.cfi_endproc
 865              	.LFE3537:
 867              		.section	.text._ZN5af_ae3runERK9rectangle,"ax",%progbits
 868              		.align	1
 869              		.global	_ZN5af_ae3runERK9rectangle
 870              		.thumb
 871              		.thumb_func
 873              	_ZN5af_ae3runERK9rectangle:
 874              	.LFB3544:
  75:/home/tienluong/workspace/atlantis_fw/AsicFwS2/src/af_ae.cpp ****     // Start moving mirrors to zoom position
 875              		.loc 1 75 0
 876              		.cfi_startproc
 877              		@ args = 0, pretend = 0, frame = 0
 878              		@ frame_needed = 0, uses_anonymous_args = 0
 879              	.LVL82:
 880 0000 08B5     		push	{r3, lr}
 881              	.LCFI19:
 882              		.cfi_def_cfa_offset 8
 883              		.cfi_offset 3, -8
 884              		.cfi_offset 14, -4
  77:/home/tienluong/workspace/atlantis_fw/AsicFwS2/src/af_ae.cpp **** 
 885              		.loc 1 77 0
 886 0002 0248     		ldr	r0, .L63
 887              	.LVL83:
 888 0004 024B     		ldr	r3, .L63+4
 889 0006 9847     		blx	r3
 890              	.LVL84:
 891 0008 08BD     		pop	{r3, pc}
 892              	.L64:
 893 000a 00BF     		.align	2
 894              	.L63:
 895 000c 00000000 		.word	_ZN20optical_zoom_manager9instance_E
 896 0010 00000000 		.word	_ZN20optical_zoom_manager18start_mirrors_moveEv
 897              		.cfi_endproc
 898              	.LFE3544:
 900              		.section	.text._ZN5af_ae15pri_mipi2axi_cbEhmm,"ax",%progbits
 901              		.align	1
 902              		.global	_ZN5af_ae15pri_mipi2axi_cbEhmm
 903              		.thumb
 904              		.thumb_func
 906              	_ZN5af_ae15pri_mipi2axi_cbEhmm:
 907              	.LFB3545:
 271:/home/tienluong/workspace/atlantis_fw/AsicFwS2/src/af_ae.cpp ****     if ((signal_irq & R1_VC0_FRAME_END) != 0) {
 908              		.loc 1 271 0
 909              		.cfi_startproc
 910              		@ args = 0, pretend = 0, frame = 0
 911              		@ frame_needed = 0, uses_anonymous_args = 0
 912              	.LVL85:
 913 0000 08B5     		push	{r3, lr}
 914              	.LCFI20:
 915              		.cfi_def_cfa_offset 8
 916              		.cfi_offset 3, -8
 917              		.cfi_offset 14, -4
 918              	.LBB208:
 272:/home/tienluong/workspace/atlantis_fw/AsicFwS2/src/af_ae.cpp ****         BaseType_t higher_pri_task_woken = pdFALSE;
 919              		.loc 1 272 0
 920 0002 D300     		lsls	r3, r2, #3
 921              	.LVL86:
 922 0004 01D5     		bpl	.L65
 923              	.LBE208:
 924 0006 014B     		ldr	r3, .L70
 925 0008 9847     		blx	r3
 926              	.LVL87:
 927              	.L65:
 928 000a 08BD     		pop	{r3, pc}
 929              	.L71:
 930              		.align	2
 931              	.L70:
 932 000c 00000000 		.word	_ZN5af_ae15pri_mipi2axi_cbEhmm.part.0
 933              		.cfi_endproc
 934              	.LFE3545:
 936              		.section	.text._ZN5af_ae15aux_mipi2axi_cbEhmm,"ax",%progbits
 937              		.align	1
 938              		.global	_ZN5af_ae15aux_mipi2axi_cbEhmm
 939              		.thumb
 940              		.thumb_func
 942              	_ZN5af_ae15aux_mipi2axi_cbEhmm:
 943              	.LFB3546:
 279:/home/tienluong/workspace/atlantis_fw/AsicFwS2/src/af_ae.cpp ****     if ((signal_irq & R1_VC0_FRAME_END) != 0) {
 944              		.loc 1 279 0
 945              		.cfi_startproc
 946              		@ args = 0, pretend = 0, frame = 0
 947              		@ frame_needed = 0, uses_anonymous_args = 0
 948              	.LVL88:
 949 0000 08B5     		push	{r3, lr}
 950              	.LCFI21:
 951              		.cfi_def_cfa_offset 8
 952              		.cfi_offset 3, -8
 953              		.cfi_offset 14, -4
 954              	.LBB209:
 280:/home/tienluong/workspace/atlantis_fw/AsicFwS2/src/af_ae.cpp ****         BaseType_t higher_pri_task_woken = pdFALSE;
 955              		.loc 1 280 0
 956 0002 D300     		lsls	r3, r2, #3
 957              	.LVL89:
 958 0004 01D5     		bpl	.L72
 959              	.LBE209:
 960 0006 014B     		ldr	r3, .L77
 961 0008 9847     		blx	r3
 962              	.LVL90:
 963              	.L72:
 964 000a 08BD     		pop	{r3, pc}
 965              	.L78:
 966              		.align	2
 967              	.L77:
 968 000c 00000000 		.word	_ZN5af_ae15aux_mipi2axi_cbEhmm.part.1
 969              		.cfi_endproc
 970              	.LFE3546:
 972              		.global	__aeabi_fadd
 973              		.section	.text._ZNK4ltaf20SquareMatrixInverterIfLi3EE3runEPf,"axG",%progbits,_ZNK4ltaf20SquareMatr
 974              		.align	1
 975              		.weak	_ZNK4ltaf20SquareMatrixInverterIfLi3EE3runEPf
 976              		.thumb
 977              		.thumb_func
 979              	_ZNK4ltaf20SquareMatrixInverterIfLi3EE3runEPf:
 980              	.LFB3682:
1140:/home/tienluong/workspace/atlantis_fw/AsicFwS2/include/matrix.h ****     {
 981              		.loc 2 1140 0
 982              		.cfi_startproc
 983              		@ args = 0, pretend = 0, frame = 72
 984              		@ frame_needed = 0, uses_anonymous_args = 0
 985              	.LVL91:
 986 0000 2DE9F04F 		push	{r4, r5, r6, r7, r8, r9, r10, fp, lr}
 987              	.LCFI22:
 988              		.cfi_def_cfa_offset 36
 989              		.cfi_offset 4, -36
 990              		.cfi_offset 5, -32
 991              		.cfi_offset 6, -28
 992              		.cfi_offset 7, -24
 993              		.cfi_offset 8, -20
 994              		.cfi_offset 9, -16
 995              		.cfi_offset 10, -12
 996              		.cfi_offset 11, -8
 997              		.cfi_offset 14, -4
 998 0004 93B0     		sub	sp, sp, #76
 999              	.LCFI23:
 1000              		.cfi_def_cfa_offset 112
 1001              	.LBB210:
1142:/home/tienluong/workspace/atlantis_fw/AsicFwS2/include/matrix.h ****                       - mat[1] * ( mat[3] * mat[8] - mat[5] * mat[6] )
 1002              		.loc 2 1142 0
 1003 0006 0B69     		ldr	r3, [r1, #16]	@ float
 1004              	.LBE210:
1140:/home/tienluong/workspace/atlantis_fw/AsicFwS2/include/matrix.h ****     {
 1005              		.loc 2 1140 0
 1006 0008 8946     		mov	r9, r1
 1007              	.LBB213:
1142:/home/tienluong/workspace/atlantis_fw/AsicFwS2/include/matrix.h ****                       - mat[1] * ( mat[3] * mat[8] - mat[5] * mat[6] )
 1008              		.loc 2 1142 0
 1009 000a D1F820A0 		ldr	r10, [r1, #32]	@ float
 1010 000e 0093     		str	r3, [sp]	@ float
 1011 0010 CB69     		ldr	r3, [r1, #28]	@ float
1144:/home/tienluong/workspace/atlantis_fw/AsicFwS2/include/matrix.h **** 
 1012              		.loc 2 1144 0
 1013 0012 554C     		ldr	r4, .L82
1142:/home/tienluong/workspace/atlantis_fw/AsicFwS2/include/matrix.h ****                       - mat[1] * ( mat[3] * mat[8] - mat[5] * mat[6] )
 1014              		.loc 2 1142 0
 1015 0014 0F68     		ldr	r7, [r1]	@ float
 1016 0016 0193     		str	r3, [sp, #4]	@ float
1144:/home/tienluong/workspace/atlantis_fw/AsicFwS2/include/matrix.h **** 
 1017              		.loc 2 1144 0
 1018 0018 0098     		ldr	r0, [sp]	@ float
 1019              	.LVL92:
1142:/home/tienluong/workspace/atlantis_fw/AsicFwS2/include/matrix.h ****                       - mat[1] * ( mat[3] * mat[8] - mat[5] * mat[6] )
 1020              		.loc 2 1142 0
 1021 001a 4B69     		ldr	r3, [r1, #20]	@ float
1144:/home/tienluong/workspace/atlantis_fw/AsicFwS2/include/matrix.h **** 
 1022              		.loc 2 1144 0
 1023 001c 5146     		mov	r1, r10
 1024              	.LVL93:
1142:/home/tienluong/workspace/atlantis_fw/AsicFwS2/include/matrix.h ****                       - mat[1] * ( mat[3] * mat[8] - mat[5] * mat[6] )
 1025              		.loc 2 1142 0
 1026 001e 0293     		str	r3, [sp, #8]	@ float
1144:/home/tienluong/workspace/atlantis_fw/AsicFwS2/include/matrix.h **** 
 1027              		.loc 2 1144 0
 1028 0020 A047     		blx	r4
 1029              	.LVL94:
 1030 0022 0299     		ldr	r1, [sp, #8]	@ float
 1031 0024 514D     		ldr	r5, .L82+4
 1032 0026 0646     		mov	r6, r0
 1033 0028 0198     		ldr	r0, [sp, #4]	@ float
 1034 002a A047     		blx	r4
 1035              	.LVL95:
 1036 002c 0146     		mov	r1, r0
 1037 002e 3046     		mov	r0, r6
 1038 0030 A847     		blx	r5
 1039              	.LVL96:
1143:/home/tienluong/workspace/atlantis_fw/AsicFwS2/include/matrix.h ****                       + mat[2] * ( mat[3] * mat[7] - mat[4] * mat[6] );
 1040              		.loc 2 1143 0
 1041 0032 D9F80C30 		ldr	r3, [r9, #12]	@ float
 1042 0036 0393     		str	r3, [sp, #12]	@ float
1144:/home/tienluong/workspace/atlantis_fw/AsicFwS2/include/matrix.h **** 
 1043              		.loc 2 1144 0
 1044 0038 5146     		mov	r1, r10
1143:/home/tienluong/workspace/atlantis_fw/AsicFwS2/include/matrix.h ****                       + mat[2] * ( mat[3] * mat[7] - mat[4] * mat[6] );
 1045              		.loc 2 1143 0
 1046 003a D9F81830 		ldr	r3, [r9, #24]	@ float
 1047 003e 0493     		str	r3, [sp, #16]	@ float
 1048 0040 D9F80460 		ldr	r6, [r9, #4]	@ float
1144:/home/tienluong/workspace/atlantis_fw/AsicFwS2/include/matrix.h **** 
 1049              		.loc 2 1144 0
 1050 0044 8346     		mov	fp, r0
 1051 0046 0398     		ldr	r0, [sp, #12]	@ float
 1052 0048 A047     		blx	r4
 1053              	.LVL97:
 1054 004a 0499     		ldr	r1, [sp, #16]	@ float
 1055 004c 8046     		mov	r8, r0
 1056 004e 0298     		ldr	r0, [sp, #8]	@ float
 1057 0050 A047     		blx	r4
 1058              	.LVL98:
 1059 0052 0146     		mov	r1, r0
 1060 0054 4046     		mov	r0, r8
 1061 0056 A847     		blx	r5
 1062              	.LVL99:
 1063 0058 0199     		ldr	r1, [sp, #4]	@ float
 1064 005a D9F80880 		ldr	r8, [r9, #8]	@ float
 1065 005e 0590     		str	r0, [sp, #20]	@ float
 1066 0060 0398     		ldr	r0, [sp, #12]	@ float
 1067 0062 A047     		blx	r4
 1068              	.LVL100:
 1069 0064 0499     		ldr	r1, [sp, #16]	@ float
 1070 0066 0690     		str	r0, [sp, #24]
 1071 0068 0098     		ldr	r0, [sp]	@ float
 1072 006a A047     		blx	r4
 1073              	.LVL101:
 1074 006c 069A     		ldr	r2, [sp, #24]
 1075 006e 0146     		mov	r1, r0
 1076 0070 1046     		mov	r0, r2
 1077 0072 A847     		blx	r5
 1078              	.LVL102:
 1079 0074 5946     		mov	r1, fp
 1080 0076 0690     		str	r0, [sp, #24]	@ float
 1081              	.LVL103:
 1082 0078 3846     		mov	r0, r7
 1083              	.LVL104:
 1084 007a A047     		blx	r4
 1085              	.LVL105:
 1086 007c 0599     		ldr	r1, [sp, #20]	@ float
 1087 007e 0790     		str	r0, [sp, #28]
 1088 0080 3046     		mov	r0, r6
 1089 0082 A047     		blx	r4
 1090              	.LVL106:
 1091 0084 079A     		ldr	r2, [sp, #28]
 1092 0086 0146     		mov	r1, r0
 1093 0088 1046     		mov	r0, r2
 1094 008a A847     		blx	r5
 1095              	.LVL107:
 1096 008c 0699     		ldr	r1, [sp, #24]	@ float
 1097 008e 0790     		str	r0, [sp, #28]
 1098 0090 4046     		mov	r0, r8
 1099 0092 A047     		blx	r4
 1100              	.LVL108:
 1101 0094 079A     		ldr	r2, [sp, #28]
 1102 0096 0146     		mov	r1, r0
 1103 0098 1046     		mov	r0, r2
 1104 009a 354A     		ldr	r2, .L82+8
 1105 009c 9047     		blx	r2
 1106              	.LVL109:
1146:/home/tienluong/workspace/atlantis_fw/AsicFwS2/include/matrix.h **** 
 1107              		.loc 2 1146 0
 1108 009e 354A     		ldr	r2, .L82+12
1144:/home/tienluong/workspace/atlantis_fw/AsicFwS2/include/matrix.h **** 
 1109              		.loc 2 1144 0
 1110 00a0 0146     		mov	r1, r0
1146:/home/tienluong/workspace/atlantis_fw/AsicFwS2/include/matrix.h **** 
 1111              		.loc 2 1146 0
 1112 00a2 4FF07E50 		mov	r0, #1065353216
 1113 00a6 9047     		blx	r2
 1114              	.LVL110:
1150:/home/tienluong/workspace/atlantis_fw/AsicFwS2/include/matrix.h ****         tmp[2] =  mat[1] * mat[5] - mat[2] * mat[4];
 1115              		.loc 2 1150 0
 1116 00a8 5146     		mov	r1, r10
1149:/home/tienluong/workspace/atlantis_fw/AsicFwS2/include/matrix.h ****         tmp[1] = -( mat[1] * mat[8] - mat[2] * mat[7] );
 1117              		.loc 2 1149 0
 1118 00aa CDF824B0 		str	fp, [sp, #36]	@ float
1146:/home/tienluong/workspace/atlantis_fw/AsicFwS2/include/matrix.h **** 
 1119              		.loc 2 1146 0
 1120 00ae 0790     		str	r0, [sp, #28]	@ float
 1121              	.LVL111:
1150:/home/tienluong/workspace/atlantis_fw/AsicFwS2/include/matrix.h ****         tmp[2] =  mat[1] * mat[5] - mat[2] * mat[4];
 1122              		.loc 2 1150 0
 1123 00b0 3046     		mov	r0, r6
 1124              	.LVL112:
 1125 00b2 A047     		blx	r4
 1126              	.LVL113:
 1127 00b4 0199     		ldr	r1, [sp, #4]	@ float
 1128 00b6 8346     		mov	fp, r0
 1129              	.LVL114:
 1130 00b8 4046     		mov	r0, r8
 1131 00ba A047     		blx	r4
 1132              	.LVL115:
 1133 00bc 0146     		mov	r1, r0
 1134 00be 5846     		mov	r0, fp
 1135 00c0 A847     		blx	r5
 1136              	.LVL116:
1151:/home/tienluong/workspace/atlantis_fw/AsicFwS2/include/matrix.h ****         tmp[3] = -( mat[3] * mat[8] - mat[5] * mat[6] );
 1137              		.loc 2 1151 0
 1138 00c2 0299     		ldr	r1, [sp, #8]	@ float
1150:/home/tienluong/workspace/atlantis_fw/AsicFwS2/include/matrix.h ****         tmp[2] =  mat[1] * mat[5] - mat[2] * mat[4];
 1139              		.loc 2 1150 0
 1140 00c4 00F10040 		add	r0, r0, #-2147483648
 1141 00c8 0A90     		str	r0, [sp, #40]	@ float
1151:/home/tienluong/workspace/atlantis_fw/AsicFwS2/include/matrix.h ****         tmp[3] = -( mat[3] * mat[8] - mat[5] * mat[6] );
 1142              		.loc 2 1151 0
 1143 00ca 3046     		mov	r0, r6
 1144 00cc A047     		blx	r4
 1145              	.LVL117:
 1146 00ce 0099     		ldr	r1, [sp]	@ float
 1147 00d0 8346     		mov	fp, r0
 1148 00d2 4046     		mov	r0, r8
 1149 00d4 A047     		blx	r4
 1150              	.LVL118:
 1151 00d6 0146     		mov	r1, r0
 1152 00d8 5846     		mov	r0, fp
 1153 00da A847     		blx	r5
 1154              	.LVL119:
1152:/home/tienluong/workspace/atlantis_fw/AsicFwS2/include/matrix.h ****         tmp[4] =  mat[0] * mat[8] - mat[2] * mat[6];
 1155              		.loc 2 1152 0
 1156 00dc 059B     		ldr	r3, [sp, #20]
1153:/home/tienluong/workspace/atlantis_fw/AsicFwS2/include/matrix.h ****         tmp[5] = -( mat[0] * mat[5] - mat[3] * mat[2] );
 1157              		.loc 2 1153 0
 1158 00de 5146     		mov	r1, r10
1152:/home/tienluong/workspace/atlantis_fw/AsicFwS2/include/matrix.h ****         tmp[4] =  mat[0] * mat[8] - mat[2] * mat[6];
 1159              		.loc 2 1152 0
 1160 00e0 03F10042 		add	r2, r3, #-2147483648
 1161 00e4 0C92     		str	r2, [sp, #48]	@ float
1151:/home/tienluong/workspace/atlantis_fw/AsicFwS2/include/matrix.h ****         tmp[3] = -( mat[3] * mat[8] - mat[5] * mat[6] );
 1162              		.loc 2 1151 0
 1163 00e6 0B90     		str	r0, [sp, #44]	@ float
1153:/home/tienluong/workspace/atlantis_fw/AsicFwS2/include/matrix.h ****         tmp[5] = -( mat[0] * mat[5] - mat[3] * mat[2] );
 1164              		.loc 2 1153 0
 1165 00e8 3846     		mov	r0, r7
 1166 00ea A047     		blx	r4
 1167              	.LVL120:
 1168 00ec 0499     		ldr	r1, [sp, #16]	@ float
 1169 00ee 8246     		mov	r10, r0
 1170 00f0 4046     		mov	r0, r8
 1171 00f2 A047     		blx	r4
 1172              	.LVL121:
 1173 00f4 0146     		mov	r1, r0
 1174 00f6 5046     		mov	r0, r10
 1175 00f8 A847     		blx	r5
 1176              	.LVL122:
1154:/home/tienluong/workspace/atlantis_fw/AsicFwS2/include/matrix.h ****         tmp[6] =  mat[3] * mat[7] - mat[6] * mat[ 4];
 1177              		.loc 2 1154 0
 1178 00fa 0299     		ldr	r1, [sp, #8]	@ float
1153:/home/tienluong/workspace/atlantis_fw/AsicFwS2/include/matrix.h ****         tmp[5] = -( mat[0] * mat[5] - mat[3] * mat[2] );
 1179              		.loc 2 1153 0
 1180 00fc 0D90     		str	r0, [sp, #52]	@ float
1154:/home/tienluong/workspace/atlantis_fw/AsicFwS2/include/matrix.h ****         tmp[6] =  mat[3] * mat[7] - mat[6] * mat[ 4];
 1181              		.loc 2 1154 0
 1182 00fe 3846     		mov	r0, r7
 1183 0100 A047     		blx	r4
 1184              	.LVL123:
 1185 0102 4146     		mov	r1, r8
 1186 0104 8246     		mov	r10, r0
 1187 0106 0398     		ldr	r0, [sp, #12]	@ float
 1188 0108 A047     		blx	r4
 1189              	.LVL124:
 1190 010a 0146     		mov	r1, r0
 1191 010c 5046     		mov	r0, r10
 1192 010e A847     		blx	r5
 1193              	.LVL125:
1155:/home/tienluong/workspace/atlantis_fw/AsicFwS2/include/matrix.h ****         tmp[7] = -( mat[0] * mat[7] - mat[6] * mat[1] );
 1194              		.loc 2 1155 0
 1195 0110 069B     		ldr	r3, [sp, #24]	@ float
1156:/home/tienluong/workspace/atlantis_fw/AsicFwS2/include/matrix.h ****         tmp[8] =  mat[0] * mat[4] - mat[3] * mat[1];
 1196              		.loc 2 1156 0
 1197 0112 0199     		ldr	r1, [sp, #4]	@ float
1155:/home/tienluong/workspace/atlantis_fw/AsicFwS2/include/matrix.h ****         tmp[7] = -( mat[0] * mat[7] - mat[6] * mat[1] );
 1198              		.loc 2 1155 0
 1199 0114 0F93     		str	r3, [sp, #60]	@ float
1154:/home/tienluong/workspace/atlantis_fw/AsicFwS2/include/matrix.h ****         tmp[6] =  mat[3] * mat[7] - mat[6] * mat[ 4];
 1200              		.loc 2 1154 0
 1201 0116 00F10040 		add	r0, r0, #-2147483648
 1202 011a 0E90     		str	r0, [sp, #56]	@ float
1156:/home/tienluong/workspace/atlantis_fw/AsicFwS2/include/matrix.h ****         tmp[8] =  mat[0] * mat[4] - mat[3] * mat[1];
 1203              		.loc 2 1156 0
 1204 011c 3846     		mov	r0, r7
 1205 011e A047     		blx	r4
 1206              	.LVL126:
 1207 0120 3146     		mov	r1, r6
 1208 0122 8046     		mov	r8, r0
 1209 0124 0498     		ldr	r0, [sp, #16]	@ float
 1210 0126 A047     		blx	r4
 1211              	.LVL127:
 1212 0128 0146     		mov	r1, r0
 1213 012a 4046     		mov	r0, r8
 1214 012c A847     		blx	r5
 1215              	.LVL128:
1157:/home/tienluong/workspace/atlantis_fw/AsicFwS2/include/matrix.h **** 
 1216              		.loc 2 1157 0
 1217 012e 0099     		ldr	r1, [sp]	@ float
1156:/home/tienluong/workspace/atlantis_fw/AsicFwS2/include/matrix.h ****         tmp[8] =  mat[0] * mat[4] - mat[3] * mat[1];
 1218              		.loc 2 1156 0
 1219 0130 00F10040 		add	r0, r0, #-2147483648
 1220 0134 1090     		str	r0, [sp, #64]	@ float
1157:/home/tienluong/workspace/atlantis_fw/AsicFwS2/include/matrix.h **** 
 1221              		.loc 2 1157 0
 1222 0136 3846     		mov	r0, r7
 1223 0138 A047     		blx	r4
 1224              	.LVL129:
 1225 013a 3146     		mov	r1, r6
 1226 013c 0746     		mov	r7, r0
 1227 013e 0398     		ldr	r0, [sp, #12]	@ float
 1228 0140 A047     		blx	r4
 1229              	.LVL130:
 1230 0142 0146     		mov	r1, r0
 1231 0144 3846     		mov	r0, r7
 1232 0146 A847     		blx	r5
 1233              	.LVL131:
 1234              	.LBB211:
1159:/home/tienluong/workspace/atlantis_fw/AsicFwS2/include/matrix.h ****     }
 1235              		.loc 2 1159 0
 1236 0148 0025     		movs	r5, #0
 1237              	.LBE211:
1157:/home/tienluong/workspace/atlantis_fw/AsicFwS2/include/matrix.h **** 
 1238              		.loc 2 1157 0
 1239 014a 1190     		str	r0, [sp, #68]	@ float
 1240              	.LVL132:
 1241              	.L80:
 1242              	.LBB212:
1159:/home/tienluong/workspace/atlantis_fw/AsicFwS2/include/matrix.h ****     }
 1243              		.loc 2 1159 0 discriminator 3
 1244 014c 09AA     		add	r2, sp, #36
 1245 014e 0799     		ldr	r1, [sp, #28]	@ float
 1246 0150 52F82500 		ldr	r0, [r2, r5, lsl #2]	@ float
 1247 0154 A047     		blx	r4
 1248              	.LVL133:
 1249 0156 49F82500 		str	r0, [r9, r5, lsl #2]	@ float
 1250 015a 0135     		adds	r5, r5, #1
 1251              	.LVL134:
 1252 015c 092D     		cmp	r5, #9
 1253 015e F5D1     		bne	.L80
 1254              	.LBE212:
 1255              	.LBE213:
1160:/home/tienluong/workspace/atlantis_fw/AsicFwS2/include/matrix.h **** };
 1256              		.loc 2 1160 0
 1257 0160 13B0     		add	sp, sp, #76
 1258              	.LCFI24:
 1259              		.cfi_def_cfa_offset 36
 1260              		@ sp needed
 1261 0162 BDE8F08F 		pop	{r4, r5, r6, r7, r8, r9, r10, fp, pc}
 1262              	.LVL135:
 1263              	.L83:
 1264 0166 00BF     		.align	2
 1265              	.L82:
 1266 0168 00000000 		.word	__aeabi_fmul
 1267 016c 00000000 		.word	__aeabi_fsub
 1268 0170 00000000 		.word	__aeabi_fadd
 1269 0174 00000000 		.word	__aeabi_fdiv
 1270              		.cfi_endproc
 1271              	.LFE3682:
 1273              		.section	.text._ZN4ltaf7inverseIfLi3ELb1EEENS_6MatrixIT_XT0_EXT0_EXT1_EEERKS3_,"axG",%progbits,_ZN
 1274              		.align	1
 1275              		.weak	_ZN4ltaf7inverseIfLi3ELb1EEENS_6MatrixIT_XT0_EXT0_EXT1_EEERKS3_
 1276              		.thumb
 1277              		.thumb_func
 1279              	_ZN4ltaf7inverseIfLi3ELb1EEENS_6MatrixIT_XT0_EXT0_EXT1_EEERKS3_:
 1280              	.LFB3575:
1247:/home/tienluong/workspace/atlantis_fw/AsicFwS2/include/matrix.h **** {
 1281              		.loc 2 1247 0
 1282              		.cfi_startproc
 1283              		@ args = 0, pretend = 0, frame = 8
 1284              		@ frame_needed = 0, uses_anonymous_args = 0
 1285              	.LVL136:
 1286 0000 73B5     		push	{r0, r1, r4, r5, r6, lr}
 1287              	.LCFI25:
 1288              		.cfi_def_cfa_offset 24
 1289              		.cfi_offset 4, -16
 1290              		.cfi_offset 5, -12
 1291              		.cfi_offset 6, -8
 1292              		.cfi_offset 14, -4
 1293              	.LBB220:
 1294              	.LBB221:
 1295              	.LBB222:
 591:/home/tienluong/workspace/atlantis_fw/AsicFwS2/include/matrix.h **** 
 1296              		.loc 2 591 0
 1297 0002 0D46     		mov	r5, r1
 1298              	.LBE222:
 1299              	.LBE221:
 1300              	.LBE220:
1247:/home/tienluong/workspace/atlantis_fw/AsicFwS2/include/matrix.h **** {
 1301              		.loc 2 1247 0
 1302 0004 0646     		mov	r6, r0
 1303              	.LBB227:
 1304              	.LBB225:
 1305              	.LBB223:
 591:/home/tienluong/workspace/atlantis_fw/AsicFwS2/include/matrix.h **** 
 1306              		.loc 2 591 0
 1307 0006 0446     		mov	r4, r0
 1308 0008 0FCD     		ldmia	r5!, {r0, r1, r2, r3}
 1309              	.LVL137:
 1310 000a 0FC4     		stmia	r4!, {r0, r1, r2, r3}
 1311              	.LVL138:
 1312 000c 0FCD     		ldmia	r5!, {r0, r1, r2, r3}
 1313              	.LVL139:
 1314 000e 0FC4     		stmia	r4!, {r0, r1, r2, r3}
 1315 0010 2B68     		ldr	r3, [r5]
 1316              	.LBE223:
 1317              	.LBE225:
1251:/home/tienluong/workspace/atlantis_fw/AsicFwS2/include/matrix.h ****     return rval;
 1318              		.loc 2 1251 0
 1319 0012 01A8     		add	r0, sp, #4
 1320              	.LBB226:
 1321              	.LBB224:
 591:/home/tienluong/workspace/atlantis_fw/AsicFwS2/include/matrix.h **** 
 1322              		.loc 2 591 0
 1323 0014 2360     		str	r3, [r4]
 1324              	.LVL140:
 1325              	.LBE224:
 1326              	.LBE226:
1251:/home/tienluong/workspace/atlantis_fw/AsicFwS2/include/matrix.h ****     return rval;
 1327              		.loc 2 1251 0
 1328 0016 3146     		mov	r1, r6
 1329 0018 024B     		ldr	r3, .L85
 1330 001a 9847     		blx	r3
 1331              	.LVL141:
 1332              	.LBE227:
1253:/home/tienluong/workspace/atlantis_fw/AsicFwS2/include/matrix.h **** 
 1333              		.loc 2 1253 0
 1334 001c 3046     		mov	r0, r6
 1335 001e 02B0     		add	sp, sp, #8
 1336              	.LCFI26:
 1337              		.cfi_def_cfa_offset 16
 1338              		@ sp needed
 1339 0020 70BD     		pop	{r4, r5, r6, pc}
 1340              	.LVL142:
 1341              	.L86:
 1342 0022 00BF     		.align	2
 1343              	.L85:
 1344 0024 00000000 		.word	_ZNK4ltaf20SquareMatrixInverterIfLi3EE3runEPf
 1345              		.cfi_endproc
 1346              	.LFE3575:
 1348              		.section	.text._ZN4ltaf7inverseIfLi3ELb0EEENS_6MatrixIT_XT0_EXT0_EXT1_EEERKS3_,"axG",%progbits,_ZN
 1349              		.align	1
 1350              		.weak	_ZN4ltaf7inverseIfLi3ELb0EEENS_6MatrixIT_XT0_EXT0_EXT1_EEERKS3_
 1351              		.thumb
 1352              		.thumb_func
 1354              	_ZN4ltaf7inverseIfLi3ELb0EEENS_6MatrixIT_XT0_EXT0_EXT1_EEERKS3_:
 1355              	.LFB3578:
1247:/home/tienluong/workspace/atlantis_fw/AsicFwS2/include/matrix.h **** {
 1356              		.loc 2 1247 0
 1357              		.cfi_startproc
 1358              		@ args = 0, pretend = 0, frame = 8
 1359              		@ frame_needed = 0, uses_anonymous_args = 0
 1360              	.LVL143:
 1361 0000 73B5     		push	{r0, r1, r4, r5, r6, lr}
 1362              	.LCFI27:
 1363              		.cfi_def_cfa_offset 24
 1364              		.cfi_offset 4, -16
 1365              		.cfi_offset 5, -12
 1366              		.cfi_offset 6, -8
 1367              		.cfi_offset 14, -4
 1368              	.LBB234:
 1369              	.LBB235:
 1370              	.LBB236:
 593:/home/tienluong/workspace/atlantis_fw/AsicFwS2/include/matrix.h **** 
 1371              		.loc 2 593 0
 1372 0002 0D46     		mov	r5, r1
 1373              	.LBE236:
 1374              	.LBE235:
 1375              	.LBE234:
1247:/home/tienluong/workspace/atlantis_fw/AsicFwS2/include/matrix.h **** {
 1376              		.loc 2 1247 0
 1377 0004 0646     		mov	r6, r0
 1378              	.LBB241:
 1379              	.LBB239:
 1380              	.LBB237:
 593:/home/tienluong/workspace/atlantis_fw/AsicFwS2/include/matrix.h **** 
 1381              		.loc 2 593 0
 1382 0006 0446     		mov	r4, r0
 1383 0008 0FCD     		ldmia	r5!, {r0, r1, r2, r3}
 1384              	.LVL144:
 1385 000a 0FC4     		stmia	r4!, {r0, r1, r2, r3}
 1386              	.LVL145:
 1387 000c 0FCD     		ldmia	r5!, {r0, r1, r2, r3}
 1388              	.LVL146:
 1389 000e 0FC4     		stmia	r4!, {r0, r1, r2, r3}
 1390 0010 2B68     		ldr	r3, [r5]
 1391              	.LBE237:
 1392              	.LBE239:
1251:/home/tienluong/workspace/atlantis_fw/AsicFwS2/include/matrix.h ****     return rval;
 1393              		.loc 2 1251 0
 1394 0012 01A8     		add	r0, sp, #4
 1395              	.LBB240:
 1396              	.LBB238:
 593:/home/tienluong/workspace/atlantis_fw/AsicFwS2/include/matrix.h **** 
 1397              		.loc 2 593 0
 1398 0014 2360     		str	r3, [r4]
 1399              	.LVL147:
 1400              	.LBE238:
 1401              	.LBE240:
1251:/home/tienluong/workspace/atlantis_fw/AsicFwS2/include/matrix.h ****     return rval;
 1402              		.loc 2 1251 0
 1403 0016 3146     		mov	r1, r6
 1404 0018 024B     		ldr	r3, .L88
 1405 001a 9847     		blx	r3
 1406              	.LVL148:
 1407              	.LBE241:
1253:/home/tienluong/workspace/atlantis_fw/AsicFwS2/include/matrix.h **** 
 1408              		.loc 2 1253 0
 1409 001c 3046     		mov	r0, r6
 1410 001e 02B0     		add	sp, sp, #8
 1411              	.LCFI28:
 1412              		.cfi_def_cfa_offset 16
 1413              		@ sp needed
 1414 0020 70BD     		pop	{r4, r5, r6, pc}
 1415              	.LVL149:
 1416              	.L89:
 1417 0022 00BF     		.align	2
 1418              	.L88:
 1419 0024 00000000 		.word	_ZNK4ltaf20SquareMatrixInverterIfLi3EE3runEPf
 1420              		.cfi_endproc
 1421              	.LFE3578:
 1423              		.section	.text._ZNK4ltaf20SquareMatrixInverterIfLi4EE3runEPf,"axG",%progbits,_ZNK4ltaf20SquareMatr
 1424              		.align	1
 1425              		.weak	_ZNK4ltaf20SquareMatrixInverterIfLi4EE3runEPf
 1426              		.thumb
 1427              		.thumb_func
 1429              	_ZNK4ltaf20SquareMatrixInverterIfLi4EE3runEPf:
 1430              	.LFB3684:
1166:/home/tienluong/workspace/atlantis_fw/AsicFwS2/include/matrix.h ****     {
 1431              		.loc 2 1166 0
 1432              		.cfi_startproc
 1433              		@ args = 0, pretend = 0, frame = 176
 1434              		@ frame_needed = 0, uses_anonymous_args = 0
 1435              	.LVL150:
 1436 0000 2DE9F04F 		push	{r4, r5, r6, r7, r8, r9, r10, fp, lr}
 1437              	.LCFI29:
 1438              		.cfi_def_cfa_offset 36
 1439              		.cfi_offset 4, -36
 1440              		.cfi_offset 5, -32
 1441              		.cfi_offset 6, -28
 1442              		.cfi_offset 7, -24
 1443              		.cfi_offset 8, -20
 1444              		.cfi_offset 9, -16
 1445              		.cfi_offset 10, -12
 1446              		.cfi_offset 11, -8
 1447              		.cfi_offset 14, -4
 1448 0004 ADB0     		sub	sp, sp, #180
 1449              	.LCFI30:
 1450              		.cfi_def_cfa_offset 216
 1451              	.LBB242:
1172:/home/tienluong/workspace/atlantis_fw/AsicFwS2/include/matrix.h ****         tmp[1] = mat[11] * mat[14];
 1452              		.loc 2 1172 0
 1453 0006 8B6A     		ldr	r3, [r1, #40]	@ float
 1454 0008 0293     		str	r3, [sp, #8]	@ float
 1455 000a CB6B     		ldr	r3, [r1, #60]	@ float
 1456 000c 804C     		ldr	r4, .L93
 1457              	.LBE242:
1166:/home/tienluong/workspace/atlantis_fw/AsicFwS2/include/matrix.h ****     {
 1458              		.loc 2 1166 0
 1459 000e 0191     		str	r1, [sp, #4]
 1460              	.LBB245:
1172:/home/tienluong/workspace/atlantis_fw/AsicFwS2/include/matrix.h ****         tmp[1] = mat[11] * mat[14];
 1461              		.loc 2 1172 0
 1462 0010 1946     		mov	r1, r3
 1463              	.LVL151:
 1464 0012 0298     		ldr	r0, [sp, #8]	@ float
 1465              	.LVL152:
 1466 0014 0393     		str	r3, [sp, #12]	@ float
 1467 0016 A047     		blx	r4
 1468              	.LVL153:
1173:/home/tienluong/workspace/atlantis_fw/AsicFwS2/include/matrix.h ****         tmp[2] = mat[9] * mat[15];
 1469              		.loc 2 1173 0
 1470 0018 019B     		ldr	r3, [sp, #4]
1186:/home/tienluong/workspace/atlantis_fw/AsicFwS2/include/matrix.h ****         dst[0]  -= tmp[1] * mat[5] + tmp[2] * mat[6] + tmp[5]  * mat[7];
 1471              		.loc 2 1186 0
 1472 001a 7E4D     		ldr	r5, .L93+4
1173:/home/tienluong/workspace/atlantis_fw/AsicFwS2/include/matrix.h ****         tmp[2] = mat[9] * mat[15];
 1473              		.loc 2 1173 0
 1474 001c DB6A     		ldr	r3, [r3, #44]	@ float
 1475 001e 0493     		str	r3, [sp, #16]	@ float
 1476 0020 019B     		ldr	r3, [sp, #4]
 1477 0022 9B6B     		ldr	r3, [r3, #56]	@ float
 1478 0024 1946     		mov	r1, r3
 1479 0026 0593     		str	r3, [sp, #20]	@ float
1172:/home/tienluong/workspace/atlantis_fw/AsicFwS2/include/matrix.h ****         tmp[1] = mat[11] * mat[14];
 1480              		.loc 2 1172 0
 1481 0028 0E90     		str	r0, [sp, #56]	@ float
 1482              	.LVL154:
1173:/home/tienluong/workspace/atlantis_fw/AsicFwS2/include/matrix.h ****         tmp[2] = mat[9] * mat[15];
 1483              		.loc 2 1173 0
 1484 002a 0498     		ldr	r0, [sp, #16]	@ float
 1485              	.LVL155:
 1486 002c A047     		blx	r4
 1487              	.LVL156:
1174:/home/tienluong/workspace/atlantis_fw/AsicFwS2/include/matrix.h ****         tmp[3] = mat[11] * mat[13];
 1488              		.loc 2 1174 0
 1489 002e 019B     		ldr	r3, [sp, #4]
 1490 0030 0399     		ldr	r1, [sp, #12]	@ float
 1491 0032 5B6A     		ldr	r3, [r3, #36]	@ float
 1492 0034 0693     		str	r3, [sp, #24]	@ float
1173:/home/tienluong/workspace/atlantis_fw/AsicFwS2/include/matrix.h ****         tmp[2] = mat[9] * mat[15];
 1493              		.loc 2 1173 0
 1494 0036 0F90     		str	r0, [sp, #60]	@ float
 1495              	.LVL157:
1174:/home/tienluong/workspace/atlantis_fw/AsicFwS2/include/matrix.h ****         tmp[3] = mat[11] * mat[13];
 1496              		.loc 2 1174 0
 1497 0038 1846     		mov	r0, r3
 1498              	.LVL158:
 1499 003a A047     		blx	r4
 1500              	.LVL159:
1175:/home/tienluong/workspace/atlantis_fw/AsicFwS2/include/matrix.h ****         tmp[4] = mat[9] * mat[14];
 1501              		.loc 2 1175 0
 1502 003c 019B     		ldr	r3, [sp, #4]
 1503 003e 5B6B     		ldr	r3, [r3, #52]	@ float
 1504 0040 1946     		mov	r1, r3
 1505 0042 0793     		str	r3, [sp, #28]	@ float
1174:/home/tienluong/workspace/atlantis_fw/AsicFwS2/include/matrix.h ****         tmp[3] = mat[11] * mat[13];
 1506              		.loc 2 1174 0
 1507 0044 1090     		str	r0, [sp, #64]	@ float
 1508              	.LVL160:
1175:/home/tienluong/workspace/atlantis_fw/AsicFwS2/include/matrix.h ****         tmp[4] = mat[9] * mat[14];
 1509              		.loc 2 1175 0
 1510 0046 0498     		ldr	r0, [sp, #16]	@ float
 1511              	.LVL161:
 1512 0048 A047     		blx	r4
 1513              	.LVL162:
1176:/home/tienluong/workspace/atlantis_fw/AsicFwS2/include/matrix.h ****         tmp[5] = mat[10] * mat[13];
 1514              		.loc 2 1176 0
 1515 004a 0599     		ldr	r1, [sp, #20]	@ float
1175:/home/tienluong/workspace/atlantis_fw/AsicFwS2/include/matrix.h ****         tmp[4] = mat[9] * mat[14];
 1516              		.loc 2 1175 0
 1517 004c 1190     		str	r0, [sp, #68]	@ float
 1518              	.LVL163:
1176:/home/tienluong/workspace/atlantis_fw/AsicFwS2/include/matrix.h ****         tmp[5] = mat[10] * mat[13];
 1519              		.loc 2 1176 0
 1520 004e 0698     		ldr	r0, [sp, #24]	@ float
 1521              	.LVL164:
 1522 0050 A047     		blx	r4
 1523              	.LVL165:
1177:/home/tienluong/workspace/atlantis_fw/AsicFwS2/include/matrix.h ****         tmp[6] = mat[8] * mat[15];
 1524              		.loc 2 1177 0
 1525 0052 0799     		ldr	r1, [sp, #28]	@ float
1176:/home/tienluong/workspace/atlantis_fw/AsicFwS2/include/matrix.h ****         tmp[5] = mat[10] * mat[13];
 1526              		.loc 2 1176 0
 1527 0054 1290     		str	r0, [sp, #72]	@ float
 1528              	.LVL166:
1177:/home/tienluong/workspace/atlantis_fw/AsicFwS2/include/matrix.h ****         tmp[6] = mat[8] * mat[15];
 1529              		.loc 2 1177 0
 1530 0056 0298     		ldr	r0, [sp, #8]	@ float
 1531              	.LVL167:
 1532 0058 A047     		blx	r4
 1533              	.LVL168:
1178:/home/tienluong/workspace/atlantis_fw/AsicFwS2/include/matrix.h ****         tmp[7] = mat[11] * mat[12];
 1534              		.loc 2 1178 0
 1535 005a 019B     		ldr	r3, [sp, #4]
 1536 005c 0399     		ldr	r1, [sp, #12]	@ float
 1537 005e 1B6A     		ldr	r3, [r3, #32]	@ float
 1538 0060 0893     		str	r3, [sp, #32]	@ float
1177:/home/tienluong/workspace/atlantis_fw/AsicFwS2/include/matrix.h ****         tmp[6] = mat[8] * mat[15];
 1539              		.loc 2 1177 0
 1540 0062 1390     		str	r0, [sp, #76]	@ float
 1541              	.LVL169:
1178:/home/tienluong/workspace/atlantis_fw/AsicFwS2/include/matrix.h ****         tmp[7] = mat[11] * mat[12];
 1542              		.loc 2 1178 0
 1543 0064 1846     		mov	r0, r3
 1544              	.LVL170:
 1545 0066 A047     		blx	r4
 1546              	.LVL171:
1179:/home/tienluong/workspace/atlantis_fw/AsicFwS2/include/matrix.h ****         tmp[8] = mat[8] * mat[14];
 1547              		.loc 2 1179 0
 1548 0068 019B     		ldr	r3, [sp, #4]
 1549 006a 1B6B     		ldr	r3, [r3, #48]	@ float
 1550 006c 1946     		mov	r1, r3
 1551 006e 0993     		str	r3, [sp, #36]	@ float
1178:/home/tienluong/workspace/atlantis_fw/AsicFwS2/include/matrix.h ****         tmp[7] = mat[11] * mat[12];
 1552              		.loc 2 1178 0
 1553 0070 1490     		str	r0, [sp, #80]	@ float
 1554              	.LVL172:
1179:/home/tienluong/workspace/atlantis_fw/AsicFwS2/include/matrix.h ****         tmp[8] = mat[8] * mat[14];
 1555              		.loc 2 1179 0
 1556 0072 0498     		ldr	r0, [sp, #16]	@ float
 1557              	.LVL173:
 1558 0074 A047     		blx	r4
 1559              	.LVL174:
1180:/home/tienluong/workspace/atlantis_fw/AsicFwS2/include/matrix.h ****         tmp[9] = mat[10] * mat[12];
 1560              		.loc 2 1180 0
 1561 0076 0599     		ldr	r1, [sp, #20]	@ float
1179:/home/tienluong/workspace/atlantis_fw/AsicFwS2/include/matrix.h ****         tmp[8] = mat[8] * mat[14];
 1562              		.loc 2 1179 0
 1563 0078 1590     		str	r0, [sp, #84]	@ float
 1564              	.LVL175:
1180:/home/tienluong/workspace/atlantis_fw/AsicFwS2/include/matrix.h ****         tmp[9] = mat[10] * mat[12];
 1565              		.loc 2 1180 0
 1566 007a 0898     		ldr	r0, [sp, #32]	@ float
 1567              	.LVL176:
 1568 007c A047     		blx	r4
 1569              	.LVL177:
1181:/home/tienluong/workspace/atlantis_fw/AsicFwS2/include/matrix.h ****         tmp[10] = mat[8] * mat[13];
 1570              		.loc 2 1181 0
 1571 007e 0999     		ldr	r1, [sp, #36]	@ float
1180:/home/tienluong/workspace/atlantis_fw/AsicFwS2/include/matrix.h ****         tmp[9] = mat[10] * mat[12];
 1572              		.loc 2 1180 0
 1573 0080 1690     		str	r0, [sp, #88]	@ float
1181:/home/tienluong/workspace/atlantis_fw/AsicFwS2/include/matrix.h ****         tmp[10] = mat[8] * mat[13];
 1574              		.loc 2 1181 0
 1575 0082 0298     		ldr	r0, [sp, #8]	@ float
 1576 0084 A047     		blx	r4
 1577              	.LVL178:
1182:/home/tienluong/workspace/atlantis_fw/AsicFwS2/include/matrix.h ****         tmp[11] = mat[9] * mat[12];
 1578              		.loc 2 1182 0
 1579 0086 0799     		ldr	r1, [sp, #28]	@ float
1181:/home/tienluong/workspace/atlantis_fw/AsicFwS2/include/matrix.h ****         tmp[10] = mat[8] * mat[13];
 1580              		.loc 2 1181 0
 1581 0088 1790     		str	r0, [sp, #92]	@ float
1182:/home/tienluong/workspace/atlantis_fw/AsicFwS2/include/matrix.h ****         tmp[11] = mat[9] * mat[12];
 1582              		.loc 2 1182 0
 1583 008a 0898     		ldr	r0, [sp, #32]	@ float
 1584 008c A047     		blx	r4
 1585              	.LVL179:
1183:/home/tienluong/workspace/atlantis_fw/AsicFwS2/include/matrix.h **** 
 1586              		.loc 2 1183 0
 1587 008e 0999     		ldr	r1, [sp, #36]	@ float
1182:/home/tienluong/workspace/atlantis_fw/AsicFwS2/include/matrix.h ****         tmp[11] = mat[9] * mat[12];
 1588              		.loc 2 1182 0
 1589 0090 1890     		str	r0, [sp, #96]	@ float
1183:/home/tienluong/workspace/atlantis_fw/AsicFwS2/include/matrix.h **** 
 1590              		.loc 2 1183 0
 1591 0092 0698     		ldr	r0, [sp, #24]	@ float
 1592 0094 A047     		blx	r4
 1593              	.LVL180:
1186:/home/tienluong/workspace/atlantis_fw/AsicFwS2/include/matrix.h ****         dst[0]  -= tmp[1] * mat[5] + tmp[2] * mat[6] + tmp[5]  * mat[7];
 1594              		.loc 2 1186 0
 1595 0096 019B     		ldr	r3, [sp, #4]
 1596 0098 5B69     		ldr	r3, [r3, #20]	@ float
 1597 009a 0A93     		str	r3, [sp, #40]	@ float
 1598 009c 019B     		ldr	r3, [sp, #4]
 1599 009e 0A99     		ldr	r1, [sp, #40]	@ float
 1600 00a0 9B69     		ldr	r3, [r3, #24]	@ float
 1601 00a2 0B93     		str	r3, [sp, #44]	@ float
 1602 00a4 019B     		ldr	r3, [sp, #4]
 1603 00a6 DB69     		ldr	r3, [r3, #28]	@ float
 1604 00a8 0C93     		str	r3, [sp, #48]	@ float
1183:/home/tienluong/workspace/atlantis_fw/AsicFwS2/include/matrix.h **** 
 1605              		.loc 2 1183 0
 1606 00aa 1990     		str	r0, [sp, #100]	@ float
1186:/home/tienluong/workspace/atlantis_fw/AsicFwS2/include/matrix.h ****         dst[0]  -= tmp[1] * mat[5] + tmp[2] * mat[6] + tmp[5]  * mat[7];
 1607              		.loc 2 1186 0
 1608 00ac 0E98     		ldr	r0, [sp, #56]	@ float
 1609 00ae A047     		blx	r4
 1610              	.LVL181:
 1611 00b0 0B99     		ldr	r1, [sp, #44]	@ float
 1612 00b2 0646     		mov	r6, r0
 1613 00b4 1198     		ldr	r0, [sp, #68]	@ float
 1614 00b6 A047     		blx	r4
 1615              	.LVL182:
 1616 00b8 0146     		mov	r1, r0
 1617 00ba 3046     		mov	r0, r6
 1618 00bc A847     		blx	r5
 1619              	.LVL183:
 1620 00be 0C99     		ldr	r1, [sp, #48]	@ float
 1621 00c0 0646     		mov	r6, r0
 1622 00c2 1298     		ldr	r0, [sp, #72]	@ float
 1623 00c4 A047     		blx	r4
 1624              	.LVL184:
 1625 00c6 0146     		mov	r1, r0
 1626 00c8 3046     		mov	r0, r6
 1627 00ca A847     		blx	r5
 1628              	.LVL185:
1187:/home/tienluong/workspace/atlantis_fw/AsicFwS2/include/matrix.h ****         dst[4]   = tmp[1] * mat[4] + tmp[6] * mat[6] + tmp[9]  * mat[7];
 1629              		.loc 2 1187 0
 1630 00cc 0A99     		ldr	r1, [sp, #40]	@ float
1186:/home/tienluong/workspace/atlantis_fw/AsicFwS2/include/matrix.h ****         dst[0]  -= tmp[1] * mat[5] + tmp[2] * mat[6] + tmp[5]  * mat[7];
 1631              		.loc 2 1186 0
 1632 00ce 0646     		mov	r6, r0
1187:/home/tienluong/workspace/atlantis_fw/AsicFwS2/include/matrix.h ****         dst[4]   = tmp[1] * mat[4] + tmp[6] * mat[6] + tmp[9]  * mat[7];
 1633              		.loc 2 1187 0
 1634 00d0 0F98     		ldr	r0, [sp, #60]	@ float
 1635 00d2 A047     		blx	r4
 1636              	.LVL186:
 1637 00d4 0746     		mov	r7, r0
 1638 00d6 1098     		ldr	r0, [sp, #64]	@ float
 1639 00d8 0B99     		ldr	r1, [sp, #44]	@ float
 1640 00da A047     		blx	r4
 1641              	.LVL187:
 1642 00dc 0146     		mov	r1, r0
 1643 00de 3846     		mov	r0, r7
 1644 00e0 A847     		blx	r5
 1645              	.LVL188:
 1646 00e2 0C99     		ldr	r1, [sp, #48]	@ float
 1647 00e4 0746     		mov	r7, r0
 1648 00e6 1398     		ldr	r0, [sp, #76]	@ float
 1649 00e8 A047     		blx	r4
 1650              	.LVL189:
 1651 00ea 0146     		mov	r1, r0
 1652 00ec 3846     		mov	r0, r7
 1653 00ee A847     		blx	r5
 1654              	.LVL190:
 1655 00f0 494B     		ldr	r3, .L93+8
 1656 00f2 0146     		mov	r1, r0
 1657 00f4 3046     		mov	r0, r6
 1658 00f6 9847     		blx	r3
 1659              	.LVL191:
1188:/home/tienluong/workspace/atlantis_fw/AsicFwS2/include/matrix.h ****         dst[4]  -= tmp[0] * mat[4] + tmp[7] * mat[6] + tmp[8]  * mat[7];
 1660              		.loc 2 1188 0
 1661 00f8 019B     		ldr	r3, [sp, #4]
 1662 00fa 1B69     		ldr	r3, [r3, #16]	@ float
 1663 00fc 1946     		mov	r1, r3
 1664 00fe 0D93     		str	r3, [sp, #52]	@ float
1187:/home/tienluong/workspace/atlantis_fw/AsicFwS2/include/matrix.h ****         dst[4]   = tmp[1] * mat[4] + tmp[6] * mat[6] + tmp[9]  * mat[7];
 1665              		.loc 2 1187 0
 1666 0100 1C90     		str	r0, [sp, #112]	@ float
 1667 0102 1A90     		str	r0, [sp, #104]
1188:/home/tienluong/workspace/atlantis_fw/AsicFwS2/include/matrix.h ****         dst[4]  -= tmp[0] * mat[4] + tmp[7] * mat[6] + tmp[8]  * mat[7];
 1668              		.loc 2 1188 0
 1669 0104 0F98     		ldr	r0, [sp, #60]	@ float
 1670 0106 A047     		blx	r4
 1671              	.LVL192:
 1672 0108 0B99     		ldr	r1, [sp, #44]	@ float
 1673 010a 0646     		mov	r6, r0
 1674 010c 1498     		ldr	r0, [sp, #80]	@ float
 1675 010e A047     		blx	r4
 1676              	.LVL193:
 1677 0110 0146     		mov	r1, r0
 1678 0112 3046     		mov	r0, r6
 1679 0114 A847     		blx	r5
 1680              	.LVL194:
 1681 0116 0C99     		ldr	r1, [sp, #48]	@ float
 1682 0118 0646     		mov	r6, r0
 1683 011a 1798     		ldr	r0, [sp, #92]	@ float
 1684 011c A047     		blx	r4
 1685              	.LVL195:
 1686 011e 0146     		mov	r1, r0
 1687 0120 3046     		mov	r0, r6
 1688 0122 A847     		blx	r5
 1689              	.LVL196:
1189:/home/tienluong/workspace/atlantis_fw/AsicFwS2/include/matrix.h ****         dst[8]   = tmp[2] * mat[4] + tmp[7] * mat[5] + tmp[10] * mat[7];
 1690              		.loc 2 1189 0
 1691 0124 0D99     		ldr	r1, [sp, #52]	@ float
1188:/home/tienluong/workspace/atlantis_fw/AsicFwS2/include/matrix.h ****         dst[4]  -= tmp[0] * mat[4] + tmp[7] * mat[6] + tmp[8]  * mat[7];
 1692              		.loc 2 1188 0
 1693 0126 0646     		mov	r6, r0
1189:/home/tienluong/workspace/atlantis_fw/AsicFwS2/include/matrix.h ****         dst[8]   = tmp[2] * mat[4] + tmp[7] * mat[5] + tmp[10] * mat[7];
 1694              		.loc 2 1189 0
 1695 0128 0E98     		ldr	r0, [sp, #56]	@ float
 1696 012a A047     		blx	r4
 1697              	.LVL197:
 1698 012c 0B99     		ldr	r1, [sp, #44]	@ float
 1699 012e 0746     		mov	r7, r0
 1700 0130 1598     		ldr	r0, [sp, #84]	@ float
 1701 0132 A047     		blx	r4
 1702              	.LVL198:
 1703 0134 0146     		mov	r1, r0
 1704 0136 3846     		mov	r0, r7
 1705 0138 A847     		blx	r5
 1706              	.LVL199:
 1707 013a 0C99     		ldr	r1, [sp, #48]	@ float
 1708 013c 0746     		mov	r7, r0
 1709 013e 1698     		ldr	r0, [sp, #88]	@ float
 1710 0140 A047     		blx	r4
 1711              	.LVL200:
 1712 0142 0146     		mov	r1, r0
 1713 0144 3846     		mov	r0, r7
 1714 0146 A847     		blx	r5
 1715              	.LVL201:
 1716 0148 334B     		ldr	r3, .L93+8
 1717 014a 0146     		mov	r1, r0
 1718 014c 3046     		mov	r0, r6
 1719 014e 9847     		blx	r3
 1720              	.LVL202:
 1721 0150 2090     		str	r0, [sp, #128]	@ float
1190:/home/tienluong/workspace/atlantis_fw/AsicFwS2/include/matrix.h ****         dst[8]  -= tmp[3] * mat[4] + tmp[6] * mat[5] + tmp[11] * mat[7];
 1722              		.loc 2 1190 0
 1723 0152 0D99     		ldr	r1, [sp, #52]	@ float
1189:/home/tienluong/workspace/atlantis_fw/AsicFwS2/include/matrix.h ****         dst[8]   = tmp[2] * mat[4] + tmp[7] * mat[5] + tmp[10] * mat[7];
 1724              		.loc 2 1189 0
 1725 0154 1B90     		str	r0, [sp, #108]
1190:/home/tienluong/workspace/atlantis_fw/AsicFwS2/include/matrix.h ****         dst[8]  -= tmp[3] * mat[4] + tmp[6] * mat[5] + tmp[11] * mat[7];
 1726              		.loc 2 1190 0
 1727 0156 1098     		ldr	r0, [sp, #64]	@ float
 1728 0158 A047     		blx	r4
 1729              	.LVL203:
 1730 015a 0A99     		ldr	r1, [sp, #40]	@ float
 1731 015c 0646     		mov	r6, r0
 1732 015e 1598     		ldr	r0, [sp, #84]	@ float
 1733 0160 A047     		blx	r4
 1734              	.LVL204:
 1735 0162 0146     		mov	r1, r0
 1736 0164 3046     		mov	r0, r6
 1737 0166 A847     		blx	r5
 1738              	.LVL205:
 1739 0168 0C99     		ldr	r1, [sp, #48]	@ float
 1740 016a 0646     		mov	r6, r0
 1741 016c 1898     		ldr	r0, [sp, #96]	@ float
 1742 016e A047     		blx	r4
 1743              	.LVL206:
