   1              		.syntax unified
   2              		.cpu cortex-r4
   3              		.fpu softvfp
   4              		.eabi_attribute 20, 1
   5              		.eabi_attribute 21, 1
   6              		.eabi_attribute 23, 3
   7              		.eabi_attribute 24, 1
   8              		.eabi_attribute 25, 1
   9              		.eabi_attribute 26, 1
  10              		.eabi_attribute 30, 4
  11              		.eabi_attribute 34, 1
  12              		.eabi_attribute 18, 4
  13              		.thumb
  14              		.file	"imu_data.pb-c.c"
  15              		.text
  16              	.Ltext0:
  17              		.cfi_sections	.debug_frame
  18              		.section	.text.ltpb__imudata__sample__init,"ax",%progbits
  19              		.align	1
  20              		.global	ltpb__imudata__sample__init
  21              		.thumb
  22              		.thumb_func
  24              	ltpb__imudata__sample__init:
  25              	.LFB1:
  26              		.file 1 "/home/tienluong/workspace/atlantis_fw/platform/common/lightheader/src/imu_data.pb-c.c"
   1:/home/tienluong/workspace/atlantis_fw/platform/common/lightheader/src/imu_data.pb-c.c **** /* Generated by the protocol buffer compiler.  DO NOT EDIT! */
   2:/home/tienluong/workspace/atlantis_fw/platform/common/lightheader/src/imu_data.pb-c.c **** /* Generated from: imu_data.proto */
   3:/home/tienluong/workspace/atlantis_fw/platform/common/lightheader/src/imu_data.pb-c.c **** 
   4:/home/tienluong/workspace/atlantis_fw/platform/common/lightheader/src/imu_data.pb-c.c **** /* Do not generate deprecated warnings for self */
   5:/home/tienluong/workspace/atlantis_fw/platform/common/lightheader/src/imu_data.pb-c.c **** #ifndef PROTOBUF_C__NO_DEPRECATED
   6:/home/tienluong/workspace/atlantis_fw/platform/common/lightheader/src/imu_data.pb-c.c **** #define PROTOBUF_C__NO_DEPRECATED
   7:/home/tienluong/workspace/atlantis_fw/platform/common/lightheader/src/imu_data.pb-c.c **** #endif
   8:/home/tienluong/workspace/atlantis_fw/platform/common/lightheader/src/imu_data.pb-c.c **** #include "sections.h"
   9:/home/tienluong/workspace/atlantis_fw/platform/common/lightheader/src/imu_data.pb-c.c **** #include "../include/imu_data.pb-c.h"
  10:/home/tienluong/workspace/atlantis_fw/platform/common/lightheader/src/imu_data.pb-c.c **** LIGHT_HEADER_FUNC void   ltpb__imudata__sample__init
  11:/home/tienluong/workspace/atlantis_fw/platform/common/lightheader/src/imu_data.pb-c.c ****                      (Ltpb__IMUData__Sample         *message)
  12:/home/tienluong/workspace/atlantis_fw/platform/common/lightheader/src/imu_data.pb-c.c **** {
  27              		.loc 1 12 0
  28              		.cfi_startproc
  29              		@ args = 0, pretend = 0, frame = 0
  30              		@ frame_needed = 0, uses_anonymous_args = 0
  31              	.LVL0:
  32 0000 30B5     		push	{r4, r5, lr}
  33              	.LCFI0:
  34              		.cfi_def_cfa_offset 12
  35              		.cfi_offset 4, -12
  36              		.cfi_offset 5, -8
  37              		.cfi_offset 14, -4
  13:/home/tienluong/workspace/atlantis_fw/platform/common/lightheader/src/imu_data.pb-c.c ****   LIGHT_HEADER_STATIC static Ltpb__IMUData__Sample init_value = LTPB__IMUDATA__SAMPLE__INIT;
  14:/home/tienluong/workspace/atlantis_fw/platform/common/lightheader/src/imu_data.pb-c.c ****   *message = init_value;
  38              		.loc 1 14 0
  39 0002 034D     		ldr	r5, .L2
  40 0004 0446     		mov	r4, r0
  41 0006 0FCD     		ldmia	r5!, {r0, r1, r2, r3}
  42              	.LVL1:
  43 0008 0FC4     		stmia	r4!, {r0, r1, r2, r3}
  44              	.LVL2:
  45 000a 2B68     		ldr	r3, [r5]
  46 000c 2360     		str	r3, [r4]
  47 000e 30BD     		pop	{r4, r5, pc}
  48              	.LVL3:
  49              	.L3:
  50              		.align	2
  51              	.L2:
  52 0010 00000000 		.word	.LANCHOR0
  53              		.cfi_endproc
  54              	.LFE1:
  56              		.section	.text.ltpb__imudata__init,"ax",%progbits
  57              		.align	1
  58              		.global	ltpb__imudata__init
  59              		.thumb
  60              		.thumb_func
  62              	ltpb__imudata__init:
  63              	.LFB2:
  15:/home/tienluong/workspace/atlantis_fw/platform/common/lightheader/src/imu_data.pb-c.c **** }
  16:/home/tienluong/workspace/atlantis_fw/platform/common/lightheader/src/imu_data.pb-c.c **** LIGHT_HEADER_FUNC void   ltpb__imudata__init
  17:/home/tienluong/workspace/atlantis_fw/platform/common/lightheader/src/imu_data.pb-c.c ****                      (Ltpb__IMUData         *message)
  18:/home/tienluong/workspace/atlantis_fw/platform/common/lightheader/src/imu_data.pb-c.c **** {
  64              		.loc 1 18 0
  65              		.cfi_startproc
  66              		@ args = 0, pretend = 0, frame = 0
  67              		@ frame_needed = 0, uses_anonymous_args = 0
  68              	.LVL4:
  69 0000 30B5     		push	{r4, r5, lr}
  70              	.LCFI1:
  71              		.cfi_def_cfa_offset 12
  72              		.cfi_offset 4, -12
  73              		.cfi_offset 5, -8
  74              		.cfi_offset 14, -4
  19:/home/tienluong/workspace/atlantis_fw/platform/common/lightheader/src/imu_data.pb-c.c ****   LIGHT_HEADER_STATIC static Ltpb__IMUData init_value = LTPB__IMUDATA__INIT;
  20:/home/tienluong/workspace/atlantis_fw/platform/common/lightheader/src/imu_data.pb-c.c ****   *message = init_value;
  75              		.loc 1 20 0
  76 0002 044D     		ldr	r5, .L5
  77 0004 0446     		mov	r4, r0
  78 0006 0FCD     		ldmia	r5!, {r0, r1, r2, r3}
  79              	.LVL5:
  80 0008 0FC4     		stmia	r4!, {r0, r1, r2, r3}
  81              	.LVL6:
  82 000a 95E80700 		ldmia	r5, {r0, r1, r2}
  83 000e 84E80700 		stmia	r4, {r0, r1, r2}
  84 0012 30BD     		pop	{r4, r5, pc}
  85              	.LVL7:
  86              	.L6:
  87              		.align	2
  88              	.L5:
  89 0014 00000000 		.word	.LANCHOR1
  90              		.cfi_endproc
  91              	.LFE2:
  93              		.section	.text.ltpb__imudata__get_packed_size,"ax",%progbits
  94              		.align	1
  95              		.global	ltpb__imudata__get_packed_size
  96              		.thumb
  97              		.thumb_func
  99              	ltpb__imudata__get_packed_size:
 100              	.LFB3:
  21:/home/tienluong/workspace/atlantis_fw/platform/common/lightheader/src/imu_data.pb-c.c **** }
  22:/home/tienluong/workspace/atlantis_fw/platform/common/lightheader/src/imu_data.pb-c.c **** LIGHT_HEADER_FUNC size_t ltpb__imudata__get_packed_size
  23:/home/tienluong/workspace/atlantis_fw/platform/common/lightheader/src/imu_data.pb-c.c ****                      (const Ltpb__IMUData *message)
  24:/home/tienluong/workspace/atlantis_fw/platform/common/lightheader/src/imu_data.pb-c.c **** {
 101              		.loc 1 24 0
 102              		.cfi_startproc
 103              		@ args = 0, pretend = 0, frame = 0
 104              		@ frame_needed = 0, uses_anonymous_args = 0
 105              	.LVL8:
  25:/home/tienluong/workspace/atlantis_fw/platform/common/lightheader/src/imu_data.pb-c.c ****   assert(message->base.descriptor == &ltpb__imudata__descriptor);
 106              		.loc 1 25 0
 107 0000 0268     		ldr	r2, [r0]
 108 0002 064B     		ldr	r3, .L10
  24:/home/tienluong/workspace/atlantis_fw/platform/common/lightheader/src/imu_data.pb-c.c ****   assert(message->base.descriptor == &ltpb__imudata__descriptor);
 109              		.loc 1 24 0
 110 0004 10B5     		push	{r4, lr}
 111              	.LCFI2:
 112              		.cfi_def_cfa_offset 8
 113              		.cfi_offset 4, -8
 114              		.cfi_offset 14, -4
 115              		.loc 1 25 0
 116 0006 9A42     		cmp	r2, r3
  24:/home/tienluong/workspace/atlantis_fw/platform/common/lightheader/src/imu_data.pb-c.c ****   assert(message->base.descriptor == &ltpb__imudata__descriptor);
 117              		.loc 1 24 0
 118 0008 0446     		mov	r4, r0
 119              		.loc 1 25 0
 120 000a 03D0     		beq	.L8
 121              		.loc 1 25 0 is_stmt 0 discriminator 1
 122 000c 0448     		ldr	r0, .L10+4
 123              	.LVL9:
 124 000e 1921     		movs	r1, #25
 125 0010 044B     		ldr	r3, .L10+8
 126 0012 9847     		blx	r3
 127              	.LVL10:
 128              	.L8:
  26:/home/tienluong/workspace/atlantis_fw/platform/common/lightheader/src/imu_data.pb-c.c ****   return protobuf_c_message_get_packed_size ((const ProtobufCMessage*)(message));
 129              		.loc 1 26 0 is_stmt 1
 130 0014 2046     		mov	r0, r4
 131 0016 044B     		ldr	r3, .L10+12
 132 0018 9847     		blx	r3
 133              	.LVL11:
  27:/home/tienluong/workspace/atlantis_fw/platform/common/lightheader/src/imu_data.pb-c.c **** }
 134              		.loc 1 27 0
 135 001a 10BD     		pop	{r4, pc}
 136              	.LVL12:
 137              	.L11:
 138              		.align	2
 139              	.L10:
 140 001c 00000000 		.word	.LANCHOR2
 141 0020 00000000 		.word	.LANCHOR3
 142 0024 00000000 		.word	assert_failed
 143 0028 00000000 		.word	protobuf_c_message_get_packed_size
 144              		.cfi_endproc
 145              	.LFE3:
 147              		.section	.text.ltpb__imudata__pack,"ax",%progbits
 148              		.align	1
 149              		.global	ltpb__imudata__pack
 150              		.thumb
 151              		.thumb_func
 153              	ltpb__imudata__pack:
 154              	.LFB4:
  28:/home/tienluong/workspace/atlantis_fw/platform/common/lightheader/src/imu_data.pb-c.c **** LIGHT_HEADER_FUNC size_t ltpb__imudata__pack
  29:/home/tienluong/workspace/atlantis_fw/platform/common/lightheader/src/imu_data.pb-c.c ****                      (const Ltpb__IMUData *message,
  30:/home/tienluong/workspace/atlantis_fw/platform/common/lightheader/src/imu_data.pb-c.c ****                       uint8_t       *out)
  31:/home/tienluong/workspace/atlantis_fw/platform/common/lightheader/src/imu_data.pb-c.c **** {
 155              		.loc 1 31 0
 156              		.cfi_startproc
 157              		@ args = 0, pretend = 0, frame = 0
 158              		@ frame_needed = 0, uses_anonymous_args = 0
 159              	.LVL13:
 160 0000 38B5     		push	{r3, r4, r5, lr}
 161              	.LCFI3:
 162              		.cfi_def_cfa_offset 16
 163              		.cfi_offset 3, -16
 164              		.cfi_offset 4, -12
 165              		.cfi_offset 5, -8
 166              		.cfi_offset 14, -4
  32:/home/tienluong/workspace/atlantis_fw/platform/common/lightheader/src/imu_data.pb-c.c ****   assert(message->base.descriptor == &ltpb__imudata__descriptor);
 167              		.loc 1 32 0
 168 0002 0268     		ldr	r2, [r0]
  31:/home/tienluong/workspace/atlantis_fw/platform/common/lightheader/src/imu_data.pb-c.c ****   assert(message->base.descriptor == &ltpb__imudata__descriptor);
 169              		.loc 1 31 0
 170 0004 0446     		mov	r4, r0
 171              		.loc 1 32 0
 172 0006 064B     		ldr	r3, .L14
  31:/home/tienluong/workspace/atlantis_fw/platform/common/lightheader/src/imu_data.pb-c.c ****   assert(message->base.descriptor == &ltpb__imudata__descriptor);
 173              		.loc 1 31 0
 174 0008 0D46     		mov	r5, r1
 175              		.loc 1 32 0
 176 000a 9A42     		cmp	r2, r3
 177 000c 03D0     		beq	.L13
 178              		.loc 1 32 0 is_stmt 0 discriminator 1
 179 000e 0548     		ldr	r0, .L14+4
 180              	.LVL14:
 181 0010 2021     		movs	r1, #32
 182              	.LVL15:
 183 0012 054B     		ldr	r3, .L14+8
 184 0014 9847     		blx	r3
 185              	.LVL16:
 186              	.L13:
  33:/home/tienluong/workspace/atlantis_fw/platform/common/lightheader/src/imu_data.pb-c.c ****   return protobuf_c_message_pack ((const ProtobufCMessage*)message, out);
 187              		.loc 1 33 0 is_stmt 1
 188 0016 2046     		mov	r0, r4
 189 0018 2946     		mov	r1, r5
 190 001a 044B     		ldr	r3, .L14+12
 191 001c 9847     		blx	r3
 192              	.LVL17:
  34:/home/tienluong/workspace/atlantis_fw/platform/common/lightheader/src/imu_data.pb-c.c **** }
 193              		.loc 1 34 0
 194 001e 38BD     		pop	{r3, r4, r5, pc}
 195              	.LVL18:
 196              	.L15:
 197              		.align	2
 198              	.L14:
 199 0020 00000000 		.word	.LANCHOR2
 200 0024 00000000 		.word	.LANCHOR4
 201 0028 00000000 		.word	assert_failed
 202 002c 00000000 		.word	protobuf_c_message_pack
 203              		.cfi_endproc
 204              	.LFE4:
 206              		.section	.text.ltpb__imudata__pack_to_buffer,"ax",%progbits
 207              		.align	1
 208              		.global	ltpb__imudata__pack_to_buffer
 209              		.thumb
 210              		.thumb_func
 212              	ltpb__imudata__pack_to_buffer:
 213              	.LFB5:
  35:/home/tienluong/workspace/atlantis_fw/platform/common/lightheader/src/imu_data.pb-c.c **** LIGHT_HEADER_FUNC size_t ltpb__imudata__pack_to_buffer
  36:/home/tienluong/workspace/atlantis_fw/platform/common/lightheader/src/imu_data.pb-c.c ****                      (const Ltpb__IMUData *message,
  37:/home/tienluong/workspace/atlantis_fw/platform/common/lightheader/src/imu_data.pb-c.c ****                       ProtobufCBuffer *buffer)
  38:/home/tienluong/workspace/atlantis_fw/platform/common/lightheader/src/imu_data.pb-c.c **** {
 214              		.loc 1 38 0
 215              		.cfi_startproc
 216              		@ args = 0, pretend = 0, frame = 0
 217              		@ frame_needed = 0, uses_anonymous_args = 0
 218              	.LVL19:
 219 0000 38B5     		push	{r3, r4, r5, lr}
 220              	.LCFI4:
 221              		.cfi_def_cfa_offset 16
 222              		.cfi_offset 3, -16
 223              		.cfi_offset 4, -12
 224              		.cfi_offset 5, -8
 225              		.cfi_offset 14, -4
  39:/home/tienluong/workspace/atlantis_fw/platform/common/lightheader/src/imu_data.pb-c.c ****   assert(message->base.descriptor == &ltpb__imudata__descriptor);
 226              		.loc 1 39 0
 227 0002 0268     		ldr	r2, [r0]
  38:/home/tienluong/workspace/atlantis_fw/platform/common/lightheader/src/imu_data.pb-c.c ****   assert(message->base.descriptor == &ltpb__imudata__descriptor);
 228              		.loc 1 38 0
 229 0004 0446     		mov	r4, r0
 230              		.loc 1 39 0
 231 0006 064B     		ldr	r3, .L18
  38:/home/tienluong/workspace/atlantis_fw/platform/common/lightheader/src/imu_data.pb-c.c ****   assert(message->base.descriptor == &ltpb__imudata__descriptor);
 232              		.loc 1 38 0
 233 0008 0D46     		mov	r5, r1
 234              		.loc 1 39 0
 235 000a 9A42     		cmp	r2, r3
 236 000c 03D0     		beq	.L17
 237              		.loc 1 39 0 is_stmt 0 discriminator 1
 238 000e 0548     		ldr	r0, .L18+4
 239              	.LVL20:
 240 0010 2721     		movs	r1, #39
 241              	.LVL21:
 242 0012 054B     		ldr	r3, .L18+8
 243 0014 9847     		blx	r3
 244              	.LVL22:
 245              	.L17:
  40:/home/tienluong/workspace/atlantis_fw/platform/common/lightheader/src/imu_data.pb-c.c ****   return protobuf_c_message_pack_to_buffer ((const ProtobufCMessage*)message, buffer);
 246              		.loc 1 40 0 is_stmt 1
 247 0016 2046     		mov	r0, r4
 248 0018 2946     		mov	r1, r5
 249 001a 044B     		ldr	r3, .L18+12
 250 001c 9847     		blx	r3
 251              	.LVL23:
  41:/home/tienluong/workspace/atlantis_fw/platform/common/lightheader/src/imu_data.pb-c.c **** }
 252              		.loc 1 41 0
 253 001e 38BD     		pop	{r3, r4, r5, pc}
 254              	.LVL24:
 255              	.L19:
 256              		.align	2
 257              	.L18:
 258 0020 00000000 		.word	.LANCHOR2
 259 0024 00000000 		.word	.LANCHOR5
 260 0028 00000000 		.word	assert_failed
 261 002c 00000000 		.word	protobuf_c_message_pack_to_buffer
 262              		.cfi_endproc
 263              	.LFE5:
 265              		.section	.text.ltpb__imudata__unpack,"ax",%progbits
 266              		.align	1
 267              		.global	ltpb__imudata__unpack
 268              		.thumb
 269              		.thumb_func
 271              	ltpb__imudata__unpack:
 272              	.LFB6:
  42:/home/tienluong/workspace/atlantis_fw/platform/common/lightheader/src/imu_data.pb-c.c **** LIGHT_HEADER_FUNC Ltpb__IMUData *
  43:/home/tienluong/workspace/atlantis_fw/platform/common/lightheader/src/imu_data.pb-c.c ****        ltpb__imudata__unpack
  44:/home/tienluong/workspace/atlantis_fw/platform/common/lightheader/src/imu_data.pb-c.c ****                      (ProtobufCAllocator  *allocator,
  45:/home/tienluong/workspace/atlantis_fw/platform/common/lightheader/src/imu_data.pb-c.c ****                       size_t               len,
  46:/home/tienluong/workspace/atlantis_fw/platform/common/lightheader/src/imu_data.pb-c.c ****                       const uint8_t       *data)
  47:/home/tienluong/workspace/atlantis_fw/platform/common/lightheader/src/imu_data.pb-c.c **** {
 273              		.loc 1 47 0
 274              		.cfi_startproc
 275              		@ args = 0, pretend = 0, frame = 0
 276              		@ frame_needed = 0, uses_anonymous_args = 0
 277              	.LVL25:
 278 0000 38B5     		push	{r3, r4, r5, lr}
 279              	.LCFI5:
 280              		.cfi_def_cfa_offset 16
 281              		.cfi_offset 3, -16
 282              		.cfi_offset 4, -12
 283              		.cfi_offset 5, -8
 284              		.cfi_offset 14, -4
 285              		.loc 1 47 0
 286 0002 0546     		mov	r5, r0
 287 0004 0C46     		mov	r4, r1
 288 0006 1346     		mov	r3, r2
  48:/home/tienluong/workspace/atlantis_fw/platform/common/lightheader/src/imu_data.pb-c.c ****   return (Ltpb__IMUData *)
 289              		.loc 1 48 0
 290 0008 2946     		mov	r1, r5
 291              	.LVL26:
 292 000a 2246     		mov	r2, r4
 293              	.LVL27:
 294 000c 0148     		ldr	r0, .L21
 295              	.LVL28:
 296 000e 024C     		ldr	r4, .L21+4
 297              	.LVL29:
 298 0010 A047     		blx	r4
 299              	.LVL30:
  49:/home/tienluong/workspace/atlantis_fw/platform/common/lightheader/src/imu_data.pb-c.c ****      protobuf_c_message_unpack (&ltpb__imudata__descriptor,
  50:/home/tienluong/workspace/atlantis_fw/platform/common/lightheader/src/imu_data.pb-c.c ****                                 allocator, len, data);
  51:/home/tienluong/workspace/atlantis_fw/platform/common/lightheader/src/imu_data.pb-c.c **** }
 300              		.loc 1 51 0
 301 0012 38BD     		pop	{r3, r4, r5, pc}
 302              	.LVL31:
 303              	.L22:
 304              		.align	2
 305              	.L21:
 306 0014 00000000 		.word	.LANCHOR2
 307 0018 00000000 		.word	protobuf_c_message_unpack
 308              		.cfi_endproc
 309              	.LFE6:
 311              		.section	.text.ltpb__imudata__free_unpacked,"ax",%progbits
 312              		.align	1
 313              		.global	ltpb__imudata__free_unpacked
 314              		.thumb
 315              		.thumb_func
 317              	ltpb__imudata__free_unpacked:
 318              	.LFB7:
  52:/home/tienluong/workspace/atlantis_fw/platform/common/lightheader/src/imu_data.pb-c.c **** LIGHT_HEADER_FUNC void   ltpb__imudata__free_unpacked
  53:/home/tienluong/workspace/atlantis_fw/platform/common/lightheader/src/imu_data.pb-c.c ****                      (Ltpb__IMUData *message,
  54:/home/tienluong/workspace/atlantis_fw/platform/common/lightheader/src/imu_data.pb-c.c ****                       ProtobufCAllocator *allocator)
  55:/home/tienluong/workspace/atlantis_fw/platform/common/lightheader/src/imu_data.pb-c.c **** {
 319              		.loc 1 55 0
 320              		.cfi_startproc
 321              		@ args = 0, pretend = 0, frame = 0
 322              		@ frame_needed = 0, uses_anonymous_args = 0
 323              	.LVL32:
 324 0000 38B5     		push	{r3, r4, r5, lr}
 325              	.LCFI6:
 326              		.cfi_def_cfa_offset 16
 327              		.cfi_offset 3, -16
 328              		.cfi_offset 4, -12
 329              		.cfi_offset 5, -8
 330              		.cfi_offset 14, -4
  56:/home/tienluong/workspace/atlantis_fw/platform/common/lightheader/src/imu_data.pb-c.c ****   assert(message->base.descriptor == &ltpb__imudata__descriptor);
 331              		.loc 1 56 0
 332 0002 0268     		ldr	r2, [r0]
  55:/home/tienluong/workspace/atlantis_fw/platform/common/lightheader/src/imu_data.pb-c.c ****   assert(message->base.descriptor == &ltpb__imudata__descriptor);
 333              		.loc 1 55 0
 334 0004 0446     		mov	r4, r0
 335              		.loc 1 56 0
 336 0006 064B     		ldr	r3, .L25
  55:/home/tienluong/workspace/atlantis_fw/platform/common/lightheader/src/imu_data.pb-c.c ****   assert(message->base.descriptor == &ltpb__imudata__descriptor);
 337              		.loc 1 55 0
 338 0008 0D46     		mov	r5, r1
 339              		.loc 1 56 0
 340 000a 9A42     		cmp	r2, r3
 341 000c 03D0     		beq	.L24
 342              		.loc 1 56 0 is_stmt 0 discriminator 1
 343 000e 0548     		ldr	r0, .L25+4
 344              	.LVL33:
 345 0010 3821     		movs	r1, #56
 346              	.LVL34:
 347 0012 054B     		ldr	r3, .L25+8
 348 0014 9847     		blx	r3
 349              	.LVL35:
 350              	.L24:
  57:/home/tienluong/workspace/atlantis_fw/platform/common/lightheader/src/imu_data.pb-c.c ****   protobuf_c_message_free_unpacked ((ProtobufCMessage*)message, allocator);
 351              		.loc 1 57 0 is_stmt 1
 352 0016 2046     		mov	r0, r4
 353 0018 2946     		mov	r1, r5
 354 001a 044B     		ldr	r3, .L25+12
 355 001c 9847     		blx	r3
 356              	.LVL36:
 357 001e 38BD     		pop	{r3, r4, r5, pc}
 358              	.LVL37:
 359              	.L26:
 360              		.align	2
 361              	.L25:
 362 0020 00000000 		.word	.LANCHOR2
 363 0024 00000000 		.word	.LANCHOR6
 364 0028 00000000 		.word	assert_failed
 365 002c 00000000 		.word	protobuf_c_message_free_unpacked
 366              		.cfi_endproc
 367              	.LFE7:
 369              		.global	ltpb__imudata__descriptor
 370              		.global	ltpb__imudata__sample__descriptor
 371              		.section	.rodata.ltpb__imudata__field_indices_by_name,"a",%progbits
 372              		.align	2
 375              	ltpb__imudata__field_indices_by_name:
 376 0000 00000000 		.word	0
 377 0004 01000000 		.word	1
 378              		.section	.rodata.ltpb__imudata__number_ranges,"a",%progbits
 379              		.align	2
 382              	ltpb__imudata__number_ranges:
 383 0000 01000000 		.word	1
 384 0004 00000000 		.word	0
 385 0008 00000000 		.word	0
 386 000c 02000000 		.word	2
 387              		.section	.rodata.ltpb__imudata__sample__field_indices_by_name,"a",%progbits
 388              		.align	2
 391              	ltpb__imudata__sample__field_indices_by_name:
 392 0000 01000000 		.word	1
 393 0004 00000000 		.word	0
 394              		.section	.rodata.__FUNCTION__.6474,"a",%progbits
 395              		.set	.LANCHOR3,. + 0
 398              	__FUNCTION__.6474:
 399 0000 6C747062 		.ascii	"ltpb__imudata__get_packed_size\000"
 399      5F5F696D 
 399      75646174 
 399      615F5F67 
 399      65745F70 
 400              		.section	.rodata.ltpb__imudata__sample__field_descriptors,"a",%progbits
 401              		.align	2
 404              	ltpb__imudata__sample__field_descriptors:
 405 0000 71000000 		.word	.LC9
 406 0004 01000000 		.word	1
 407 0008 00       		.byte	0
 408 0009 06       		.byte	6
 409 000a 0000     		.space	2
 410 000c 00000000 		.word	0
 411 0010 0C000000 		.word	12
 412 0014 00000000 		.word	0
 413 0018 00000000 		.word	0
 414 001c 00000000 		.word	0
 415 0020 00000000 		.word	0
 416 0024 00000000 		.word	0
 417 0028 00000000 		.word	0
 418 002c 79000000 		.word	.LC10
 419 0030 02000000 		.word	2
 420 0034 00       		.byte	0
 421 0035 10       		.byte	16
 422 0036 0000     		.space	2
 423 0038 00000000 		.word	0
 424 003c 10000000 		.word	16
 425 0040 00000000 		.word	ltpb__point3_f__descriptor
 426 0044 00000000 		.word	0
 427 0048 00000000 		.word	0
 428 004c 00000000 		.word	0
 429 0050 00000000 		.word	0
 430 0054 00000000 		.word	0
 431              		.section	.rodata.__FUNCTION__.6479,"a",%progbits
 432              		.set	.LANCHOR4,. + 0
 435              	__FUNCTION__.6479:
 436 0000 6C747062 		.ascii	"ltpb__imudata__pack\000"
 436      5F5F696D 
 436      75646174 
 436      615F5F70 
 436      61636B00 
 437              		.section	.rodata.str1.1,"aMS",%progbits,1
 438              	.LC0:
 439 0000 6C747062 		.ascii	"ltpb.IMUData\000"
 439      2E494D55 
 439      44617461 
 439      00
 440              	.LC1:
 441 000d 494D5544 		.ascii	"IMUData\000"
 441      61746100 
 442              	.LC2:
 443 0015 4C747062 		.ascii	"Ltpb__IMUData\000"
 443      5F5F494D 
 443      55446174 
 443      6100
 444              	.LC3:
 445 0023 6C747062 		.ascii	"ltpb\000"
 445      00
 446              	.LC4:
 447 0028 61636365 		.ascii	"accelerometer\000"
 447      6C65726F 
 447      6D657465 
 447      7200
 448              	.LC5:
 449 0036 6779726F 		.ascii	"gyroscope\000"
 449      73636F70 
 449      6500
 450              	.LC6:
 451 0040 6C747062 		.ascii	"ltpb.IMUData.Sample\000"
 451      2E494D55 
 451      44617461 
 451      2E53616D 
 451      706C6500 
 452              	.LC7:
 453 0054 53616D70 		.ascii	"Sample\000"
 453      6C6500
 454              	.LC8:
 455 005b 4C747062 		.ascii	"Ltpb__IMUData__Sample\000"
 455      5F5F494D 
 455      55446174 
 455      615F5F53 
 455      616D706C 
 456              	.LC9:
 457 0071 726F775F 		.ascii	"row_idx\000"
 457      69647800 
 458              	.LC10:
 459 0079 64617461 		.ascii	"data\000"
 459      00
 460              		.section	.rodata.__FUNCTION__.6494,"a",%progbits
 461              		.set	.LANCHOR6,. + 0
 464              	__FUNCTION__.6494:
 465 0000 6C747062 		.ascii	"ltpb__imudata__free_unpacked\000"
 465      5F5F696D 
 465      75646174 
 465      615F5F66 
 465      7265655F 
 466              		.section	.rodata.ltpb__imudata__descriptor,"a",%progbits
 467              		.align	2
 468              		.set	.LANCHOR2,. + 0
 471              	ltpb__imudata__descriptor:
 472 0000 F9EEAA28 		.word	682290937
 473 0004 00000000 		.word	.LC0
 474 0008 0D000000 		.word	.LC1
 475 000c 15000000 		.word	.LC2
 476 0010 23000000 		.word	.LC3
 477 0014 1C000000 		.word	28
 478 0018 02000000 		.word	2
 479 001c 00000000 		.word	ltpb__imudata__field_descriptors
 480 0020 00000000 		.word	ltpb__imudata__field_indices_by_name
 481 0024 01000000 		.word	1
 482 0028 00000000 		.word	ltpb__imudata__number_ranges
 483 002c 00000000 		.word	ltpb__imudata__init
 484 0030 00000000 		.word	0
 485 0034 00000000 		.word	0
 486 0038 00000000 		.word	0
 487              		.section	.rodata.ltpb__imudata__sample__descriptor,"a",%progbits
 488              		.align	2
 491              	ltpb__imudata__sample__descriptor:
 492 0000 F9EEAA28 		.word	682290937
 493 0004 40000000 		.word	.LC6
 494 0008 54000000 		.word	.LC7
 495 000c 5B000000 		.word	.LC8
 496 0010 23000000 		.word	.LC3
 497 0014 14000000 		.word	20
 498 0018 02000000 		.word	2
 499 001c 00000000 		.word	ltpb__imudata__sample__field_descriptors
 500 0020 00000000 		.word	ltpb__imudata__sample__field_indices_by_name
 501 0024 01000000 		.word	1
 502 0028 00000000 		.word	ltpb__imudata__sample__number_ranges
 503 002c 00000000 		.word	ltpb__imudata__sample__init
 504 0030 00000000 		.word	0
 505 0034 00000000 		.word	0
 506 0038 00000000 		.word	0
 507              		.section	.rodata.ltpb__imudata__sample__number_ranges,"a",%progbits
 508              		.align	2
 511              	ltpb__imudata__sample__number_ranges:
 512 0000 01000000 		.word	1
 513 0004 00000000 		.word	0
 514 0008 00000000 		.word	0
 515 000c 02000000 		.word	2
 516              		.section	.rodata.ltpb__imudata__field_descriptors,"a",%progbits
 517              		.align	2
 520              	ltpb__imudata__field_descriptors:
 521 0000 28000000 		.word	.LC4
 522 0004 01000000 		.word	1
 523 0008 02       		.byte	2
 524 0009 10       		.byte	16
 525 000a 0000     		.space	2
 526 000c 0C000000 		.word	12
 527 0010 10000000 		.word	16
 528 0014 00000000 		.word	ltpb__imudata__sample__descriptor
 529 0018 00000000 		.word	0
 530 001c 00000000 		.word	0
 531 0020 00000000 		.word	0
 532 0024 00000000 		.word	0
 533 0028 00000000 		.word	0
 534 002c 36000000 		.word	.LC5
 535 0030 02000000 		.word	2
 536 0034 02       		.byte	2
 537 0035 10       		.byte	16
 538 0036 0000     		.space	2
 539 0038 14000000 		.word	20
 540 003c 18000000 		.word	24
 541 0040 00000000 		.word	ltpb__imudata__sample__descriptor
 542 0044 00000000 		.word	0
 543 0048 00000000 		.word	0
 544 004c 00000000 		.word	0
 545 0050 00000000 		.word	0
 546 0054 00000000 		.word	0
 547              		.section	.rodata.init_value.6470,"a",%progbits
 548              		.align	2
 549              		.set	.LANCHOR1,. + 0
 552              	init_value.6470:
 553 0000 00000000 		.word	ltpb__imudata__descriptor
 554 0004 00000000 		.word	0
 555 0008 00000000 		.word	0
 556 000c 00000000 		.word	0
 557 0010 00000000 		.word	0
 558 0014 00000000 		.word	0
 559 0018 00000000 		.word	0
 560              		.section	.rodata.init_value.6466,"a",%progbits
 561              		.align	2
 562              		.set	.LANCHOR0,. + 0
 565              	init_value.6466:
 566 0000 00000000 		.word	ltpb__imudata__sample__descriptor
 567 0004 00000000 		.word	0
 568 0008 00000000 		.word	0
 569 000c 00000000 		.word	0
 570 0010 00000000 		.word	0
 571              		.section	.rodata.__FUNCTION__.6484,"a",%progbits
 572              		.set	.LANCHOR5,. + 0
 575              	__FUNCTION__.6484:
 576 0000 6C747062 		.ascii	"ltpb__imudata__pack_to_buffer\000"
 576      5F5F696D 
 576      75646174 
 576      615F5F70 
 576      61636B5F 
 577              		.text
 578              	.Letext0:
 579              		.file 2 "/opt/toolchains/gcc-arm-none-eabi-4_9-2015q1/arm-none-eabi/include/machine/_default_types
 580              		.file 3 "/opt/toolchains/gcc-arm-none-eabi-4_9-2015q1/lib/gcc/arm-none-eabi/4.9.3/include/stddef.h
 581              		.file 4 "/opt/toolchains/gcc-arm-none-eabi-4_9-2015q1/arm-none-eabi/include/stdint.h"
 582              		.file 5 "/home/tienluong/workspace/atlantis_fw/platform/os/Source/portable/GCC/cortex-r4/portmacro
 583              		.file 6 "/home/tienluong/workspace/atlantis_fw/platform/common/lightheader/include/protobuf-c/prot
 584              		.file 7 "/home/tienluong/workspace/atlantis_fw/platform/common/lightheader/src/../include/point3f.
 585              		.file 8 "/home/tienluong/workspace/atlantis_fw/platform/common/lightheader/src/../include/imu_data
DEFINED SYMBOLS
                            *ABS*:00000000 imu_data.pb-c.c
     /tmp/ccsUb6Tl.s:19     .text.ltpb__imudata__sample__init:00000000 $t
     /tmp/ccsUb6Tl.s:24     .text.ltpb__imudata__sample__init:00000000 ltpb__imudata__sample__init
     /tmp/ccsUb6Tl.s:52     .text.ltpb__imudata__sample__init:00000010 $d
     /tmp/ccsUb6Tl.s:57     .text.ltpb__imudata__init:00000000 $t
     /tmp/ccsUb6Tl.s:62     .text.ltpb__imudata__init:00000000 ltpb__imudata__init
     /tmp/ccsUb6Tl.s:89     .text.ltpb__imudata__init:00000014 $d
     /tmp/ccsUb6Tl.s:94     .text.ltpb__imudata__get_packed_size:00000000 $t
     /tmp/ccsUb6Tl.s:99     .text.ltpb__imudata__get_packed_size:00000000 ltpb__imudata__get_packed_size
     /tmp/ccsUb6Tl.s:140    .text.ltpb__imudata__get_packed_size:0000001c $d
     /tmp/ccsUb6Tl.s:148    .text.ltpb__imudata__pack:00000000 $t
     /tmp/ccsUb6Tl.s:153    .text.ltpb__imudata__pack:00000000 ltpb__imudata__pack
     /tmp/ccsUb6Tl.s:199    .text.ltpb__imudata__pack:00000020 $d
     /tmp/ccsUb6Tl.s:207    .text.ltpb__imudata__pack_to_buffer:00000000 $t
     /tmp/ccsUb6Tl.s:212    .text.ltpb__imudata__pack_to_buffer:00000000 ltpb__imudata__pack_to_buffer
     /tmp/ccsUb6Tl.s:258    .text.ltpb__imudata__pack_to_buffer:00000020 $d
     /tmp/ccsUb6Tl.s:266    .text.ltpb__imudata__unpack:00000000 $t
     /tmp/ccsUb6Tl.s:271    .text.ltpb__imudata__unpack:00000000 ltpb__imudata__unpack
     /tmp/ccsUb6Tl.s:306    .text.ltpb__imudata__unpack:00000014 $d
     /tmp/ccsUb6Tl.s:312    .text.ltpb__imudata__free_unpacked:00000000 $t
     /tmp/ccsUb6Tl.s:317    .text.ltpb__imudata__free_unpacked:00000000 ltpb__imudata__free_unpacked
     /tmp/ccsUb6Tl.s:362    .text.ltpb__imudata__free_unpacked:00000020 $d
     /tmp/ccsUb6Tl.s:471    .rodata.ltpb__imudata__descriptor:00000000 ltpb__imudata__descriptor
     /tmp/ccsUb6Tl.s:491    .rodata.ltpb__imudata__sample__descriptor:00000000 ltpb__imudata__sample__descriptor
     /tmp/ccsUb6Tl.s:372    .rodata.ltpb__imudata__field_indices_by_name:00000000 $d
     /tmp/ccsUb6Tl.s:375    .rodata.ltpb__imudata__field_indices_by_name:00000000 ltpb__imudata__field_indices_by_name
     /tmp/ccsUb6Tl.s:379    .rodata.ltpb__imudata__number_ranges:00000000 $d
     /tmp/ccsUb6Tl.s:382    .rodata.ltpb__imudata__number_ranges:00000000 ltpb__imudata__number_ranges
     /tmp/ccsUb6Tl.s:388    .rodata.ltpb__imudata__sample__field_indices_by_name:00000000 $d
     /tmp/ccsUb6Tl.s:391    .rodata.ltpb__imudata__sample__field_indices_by_name:00000000 ltpb__imudata__sample__field_indices_by_name
     /tmp/ccsUb6Tl.s:398    .rodata.__FUNCTION__.6474:00000000 __FUNCTION__.6474
     /tmp/ccsUb6Tl.s:401    .rodata.ltpb__imudata__sample__field_descriptors:00000000 $d
     /tmp/ccsUb6Tl.s:404    .rodata.ltpb__imudata__sample__field_descriptors:00000000 ltpb__imudata__sample__field_descriptors
     /tmp/ccsUb6Tl.s:435    .rodata.__FUNCTION__.6479:00000000 __FUNCTION__.6479
     /tmp/ccsUb6Tl.s:464    .rodata.__FUNCTION__.6494:00000000 __FUNCTION__.6494
     /tmp/ccsUb6Tl.s:467    .rodata.ltpb__imudata__descriptor:00000000 $d
     /tmp/ccsUb6Tl.s:520    .rodata.ltpb__imudata__field_descriptors:00000000 ltpb__imudata__field_descriptors
     /tmp/ccsUb6Tl.s:488    .rodata.ltpb__imudata__sample__descriptor:00000000 $d
     /tmp/ccsUb6Tl.s:511    .rodata.ltpb__imudata__sample__number_ranges:00000000 ltpb__imudata__sample__number_ranges
     /tmp/ccsUb6Tl.s:508    .rodata.ltpb__imudata__sample__number_ranges:00000000 $d
     /tmp/ccsUb6Tl.s:517    .rodata.ltpb__imudata__field_descriptors:00000000 $d
     /tmp/ccsUb6Tl.s:548    .rodata.init_value.6470:00000000 $d
     /tmp/ccsUb6Tl.s:552    .rodata.init_value.6470:00000000 init_value.6470
     /tmp/ccsUb6Tl.s:561    .rodata.init_value.6466:00000000 $d
     /tmp/ccsUb6Tl.s:565    .rodata.init_value.6466:00000000 init_value.6466
     /tmp/ccsUb6Tl.s:575    .rodata.__FUNCTION__.6484:00000000 __FUNCTION__.6484
                     .debug_frame:00000010 $d

UNDEFINED SYMBOLS
assert_failed
protobuf_c_message_get_packed_size
protobuf_c_message_pack
protobuf_c_message_pack_to_buffer
protobuf_c_message_unpack
protobuf_c_message_free_unpacked
ltpb__point3_f__descriptor
