   1              		.syntax unified
   2              		.cpu cortex-r4
   3              		.fpu softvfp
   4              		.eabi_attribute 20, 1
   5              		.eabi_attribute 21, 1
   6              		.eabi_attribute 23, 3
   7              		.eabi_attribute 24, 1
   8              		.eabi_attribute 25, 1
   9              		.eabi_attribute 26, 1
  10              		.eabi_attribute 30, 4
  11              		.eabi_attribute 34, 1
  12              		.eabi_attribute 18, 4
  13              		.thumb
  14              		.file	"line2.cpp"
  15              		.text
  16              	.Ltext0:
  17              		.cfi_sections	.debug_frame
  18              		.global	__aeabi_fmul
  19              		.global	__aeabi_fsub
  20              		.global	__aeabi_fdiv
  21              		.section	.text._ZNK4ltaf20SquareMatrixInverterIfLi2EE3runEPf.isra.1,"ax",%progbits
  22              		.align	1
  23              		.thumb
  24              		.thumb_func
  26              	_ZNK4ltaf20SquareMatrixInverterIfLi2EE3runEPf.isra.1:
  27              	.LFB2772:
  28              		.file 1 "/home/tienluong/workspace/atlantis_fw/AsicFwS2/src/../include/matrix.h"
   1:/home/tienluong/workspace/atlantis_fw/AsicFwS2/src/../include/matrix.h **** // we want to have support for the following:
   2:/home/tienluong/workspace/atlantis_fw/AsicFwS2/src/../include/matrix.h **** // matrix3x3f, matrix4x4f, vec2f, vec3f, vec4f
   3:/home/tienluong/workspace/atlantis_fw/AsicFwS2/src/../include/matrix.h **** // plus, minus, multiplication, inverse, transpose
   4:/home/tienluong/workspace/atlantis_fw/AsicFwS2/src/../include/matrix.h **** 
   5:/home/tienluong/workspace/atlantis_fw/AsicFwS2/src/../include/matrix.h **** #ifndef __MATRIX_H__
   6:/home/tienluong/workspace/atlantis_fw/AsicFwS2/src/../include/matrix.h **** #define __MATRIX_H__
   7:/home/tienluong/workspace/atlantis_fw/AsicFwS2/src/../include/matrix.h **** 
   8:/home/tienluong/workspace/atlantis_fw/AsicFwS2/src/../include/matrix.h **** #ifdef __cplusplus
   9:/home/tienluong/workspace/atlantis_fw/AsicFwS2/src/../include/matrix.h **** 
  10:/home/tienluong/workspace/atlantis_fw/AsicFwS2/src/../include/matrix.h **** #include <cstdlib>
  11:/home/tienluong/workspace/atlantis_fw/AsicFwS2/src/../include/matrix.h **** #include <algorithm> // has compile problem...
  12:/home/tienluong/workspace/atlantis_fw/AsicFwS2/src/../include/matrix.h **** #include <cmath>
  13:/home/tienluong/workspace/atlantis_fw/AsicFwS2/src/../include/matrix.h **** 
  14:/home/tienluong/workspace/atlantis_fw/AsicFwS2/src/../include/matrix.h **** namespace ltaf { // lt auto focus
  15:/home/tienluong/workspace/atlantis_fw/AsicFwS2/src/../include/matrix.h **** 
  16:/home/tienluong/workspace/atlantis_fw/AsicFwS2/src/../include/matrix.h **** // -----------------------------------------------------------
  17:/home/tienluong/workspace/atlantis_fw/AsicFwS2/src/../include/matrix.h **** // 			Vec2 class
  18:/home/tienluong/workspace/atlantis_fw/AsicFwS2/src/../include/matrix.h **** // -----------------------------------------------------------
  19:/home/tienluong/workspace/atlantis_fw/AsicFwS2/src/../include/matrix.h **** template<typename T>
  20:/home/tienluong/workspace/atlantis_fw/AsicFwS2/src/../include/matrix.h **** class Vec2
  21:/home/tienluong/workspace/atlantis_fw/AsicFwS2/src/../include/matrix.h **** {
  22:/home/tienluong/workspace/atlantis_fw/AsicFwS2/src/../include/matrix.h **** public:
  23:/home/tienluong/workspace/atlantis_fw/AsicFwS2/src/../include/matrix.h ****     Vec2() {}
  24:/home/tienluong/workspace/atlantis_fw/AsicFwS2/src/../include/matrix.h ****     Vec2( T t ) : _x( t ), _y( t ) {}
  25:/home/tienluong/workspace/atlantis_fw/AsicFwS2/src/../include/matrix.h ****     Vec2( T x, T y ) : _x( x ), _y( y ) {}
  26:/home/tienluong/workspace/atlantis_fw/AsicFwS2/src/../include/matrix.h ****     Vec2( const Vec2 & t ) : _x( t._x ), _y( t._y ) {}
  27:/home/tienluong/workspace/atlantis_fw/AsicFwS2/src/../include/matrix.h **** 
  28:/home/tienluong/workspace/atlantis_fw/AsicFwS2/src/../include/matrix.h ****     template<typename U>
  29:/home/tienluong/workspace/atlantis_fw/AsicFwS2/src/../include/matrix.h ****     explicit Vec2( const Vec2<U> & t )
  30:/home/tienluong/workspace/atlantis_fw/AsicFwS2/src/../include/matrix.h ****         : _x( static_cast<T>( t.x() ) )
  31:/home/tienluong/workspace/atlantis_fw/AsicFwS2/src/../include/matrix.h ****         , _y( static_cast<T>( t.y() ) ) {}
  32:/home/tienluong/workspace/atlantis_fw/AsicFwS2/src/../include/matrix.h **** 
  33:/home/tienluong/workspace/atlantis_fw/AsicFwS2/src/../include/matrix.h ****     Vec2 & operator=( const Vec2 & t )
  34:/home/tienluong/workspace/atlantis_fw/AsicFwS2/src/../include/matrix.h ****     { _x = t._x; _y = t._y; return *this; }
  35:/home/tienluong/workspace/atlantis_fw/AsicFwS2/src/../include/matrix.h **** 
  36:/home/tienluong/workspace/atlantis_fw/AsicFwS2/src/../include/matrix.h ****     Vec2 & operator/=( const Vec2 & t )
  37:/home/tienluong/workspace/atlantis_fw/AsicFwS2/src/../include/matrix.h ****     { _x /= t._x; _y /= t._y; return *this; }
  38:/home/tienluong/workspace/atlantis_fw/AsicFwS2/src/../include/matrix.h **** 
  39:/home/tienluong/workspace/atlantis_fw/AsicFwS2/src/../include/matrix.h ****     Vec2 & operator%=( const Vec2 & t )
  40:/home/tienluong/workspace/atlantis_fw/AsicFwS2/src/../include/matrix.h ****     { _x %= t._x; _y %= t._y; return *this; }
  41:/home/tienluong/workspace/atlantis_fw/AsicFwS2/src/../include/matrix.h **** 
  42:/home/tienluong/workspace/atlantis_fw/AsicFwS2/src/../include/matrix.h ****     Vec2 & operator*=( const Vec2 & t )
  43:/home/tienluong/workspace/atlantis_fw/AsicFwS2/src/../include/matrix.h ****     { _x *= t._x; _y *= t._y; return *this; }
  44:/home/tienluong/workspace/atlantis_fw/AsicFwS2/src/../include/matrix.h **** 
  45:/home/tienluong/workspace/atlantis_fw/AsicFwS2/src/../include/matrix.h ****     Vec2 & operator+=( const Vec2 & t )
  46:/home/tienluong/workspace/atlantis_fw/AsicFwS2/src/../include/matrix.h ****     { _x += t._x; _y += t._y; return *this; }
  47:/home/tienluong/workspace/atlantis_fw/AsicFwS2/src/../include/matrix.h **** 
  48:/home/tienluong/workspace/atlantis_fw/AsicFwS2/src/../include/matrix.h ****     Vec2 & operator-=( const Vec2 & t )
  49:/home/tienluong/workspace/atlantis_fw/AsicFwS2/src/../include/matrix.h ****     { _x -= t._x; _y -= t._y; return *this; }
  50:/home/tienluong/workspace/atlantis_fw/AsicFwS2/src/../include/matrix.h **** 
  51:/home/tienluong/workspace/atlantis_fw/AsicFwS2/src/../include/matrix.h ****     Vec2 & operator&=( const Vec2 & t )
  52:/home/tienluong/workspace/atlantis_fw/AsicFwS2/src/../include/matrix.h ****     { _x &= t._x; _y &= t._y; return *this; }
  53:/home/tienluong/workspace/atlantis_fw/AsicFwS2/src/../include/matrix.h **** 
  54:/home/tienluong/workspace/atlantis_fw/AsicFwS2/src/../include/matrix.h ****     Vec2 & operator|=( const Vec2 & t )
  55:/home/tienluong/workspace/atlantis_fw/AsicFwS2/src/../include/matrix.h ****     { _x |= t._x; _y |= t._y; return *this; }
  56:/home/tienluong/workspace/atlantis_fw/AsicFwS2/src/../include/matrix.h **** 
  57:/home/tienluong/workspace/atlantis_fw/AsicFwS2/src/../include/matrix.h ****     Vec2 & operator>>=( int t )
  58:/home/tienluong/workspace/atlantis_fw/AsicFwS2/src/../include/matrix.h ****     { _x >>= t; _y >>= t; return *this; }
  59:/home/tienluong/workspace/atlantis_fw/AsicFwS2/src/../include/matrix.h **** 
  60:/home/tienluong/workspace/atlantis_fw/AsicFwS2/src/../include/matrix.h ****     Vec2 & operator<<=( int t )
  61:/home/tienluong/workspace/atlantis_fw/AsicFwS2/src/../include/matrix.h ****     { _x <<= t; _y <<= t; return *this; }
  62:/home/tienluong/workspace/atlantis_fw/AsicFwS2/src/../include/matrix.h **** 
  63:/home/tienluong/workspace/atlantis_fw/AsicFwS2/src/../include/matrix.h ****     Vec2 operator-() const { return { -_x, -_y}; }
  64:/home/tienluong/workspace/atlantis_fw/AsicFwS2/src/../include/matrix.h **** 
  65:/home/tienluong/workspace/atlantis_fw/AsicFwS2/src/../include/matrix.h ****     template<typename U> Vec2<typename std::common_type<T, U>::type>
  66:/home/tienluong/workspace/atlantis_fw/AsicFwS2/src/../include/matrix.h ****     operator+( const Vec2<U> & t ) const { return { _x + t.x(), _y + t.y() }; }
  67:/home/tienluong/workspace/atlantis_fw/AsicFwS2/src/../include/matrix.h **** 
  68:/home/tienluong/workspace/atlantis_fw/AsicFwS2/src/../include/matrix.h ****     template<typename U> Vec2<typename std::common_type<T, U>::type>
  69:/home/tienluong/workspace/atlantis_fw/AsicFwS2/src/../include/matrix.h ****     operator-( const Vec2<U> & t ) const { return { _x - t.x(), _y - t.y() }; }
  70:/home/tienluong/workspace/atlantis_fw/AsicFwS2/src/../include/matrix.h **** 
  71:/home/tienluong/workspace/atlantis_fw/AsicFwS2/src/../include/matrix.h ****     template<typename U> Vec2<typename std::common_type<T, U>::type>
  72:/home/tienluong/workspace/atlantis_fw/AsicFwS2/src/../include/matrix.h ****     operator*( const Vec2<U> & t ) const { return { _x * t.x(), _y * t.y() }; }
  73:/home/tienluong/workspace/atlantis_fw/AsicFwS2/src/../include/matrix.h **** 
  74:/home/tienluong/workspace/atlantis_fw/AsicFwS2/src/../include/matrix.h ****     template<typename U> Vec2<typename std::common_type<T, U>::type>
  75:/home/tienluong/workspace/atlantis_fw/AsicFwS2/src/../include/matrix.h ****     operator/( const Vec2<U> & t ) const { return { _x / t.x(), _y / t.y() }; }
  76:/home/tienluong/workspace/atlantis_fw/AsicFwS2/src/../include/matrix.h **** 
  77:/home/tienluong/workspace/atlantis_fw/AsicFwS2/src/../include/matrix.h ****     template < typename U,
  78:/home/tienluong/workspace/atlantis_fw/AsicFwS2/src/../include/matrix.h ****                typename = typename std::enable_if < std::is_integral<T>::value && std::is_integral<
  79:/home/tienluong/workspace/atlantis_fw/AsicFwS2/src/../include/matrix.h ****     Vec2<typename std::common_type<T, U>::type>
  80:/home/tienluong/workspace/atlantis_fw/AsicFwS2/src/../include/matrix.h ****     operator%( const Vec2<U> & t ) const { return { _x % t.x(), _y % t.y() }; }
  81:/home/tienluong/workspace/atlantis_fw/AsicFwS2/src/../include/matrix.h **** 
  82:/home/tienluong/workspace/atlantis_fw/AsicFwS2/src/../include/matrix.h ****     template < typename U,
  83:/home/tienluong/workspace/atlantis_fw/AsicFwS2/src/../include/matrix.h ****                typename = typename std::enable_if < std::is_arithmetic<U>::value >::type >
  84:/home/tienluong/workspace/atlantis_fw/AsicFwS2/src/../include/matrix.h ****     Vec2<typename std::common_type<T, U>::type>
  85:/home/tienluong/workspace/atlantis_fw/AsicFwS2/src/../include/matrix.h ****     operator+( U t ) const { return { _x + t, _y + t }; }
  86:/home/tienluong/workspace/atlantis_fw/AsicFwS2/src/../include/matrix.h **** 
  87:/home/tienluong/workspace/atlantis_fw/AsicFwS2/src/../include/matrix.h ****     template < typename U,
  88:/home/tienluong/workspace/atlantis_fw/AsicFwS2/src/../include/matrix.h ****                typename = typename std::enable_if < std::is_arithmetic<U>::value >::type >
  89:/home/tienluong/workspace/atlantis_fw/AsicFwS2/src/../include/matrix.h ****     Vec2<typename std::common_type<T, U>::type>
  90:/home/tienluong/workspace/atlantis_fw/AsicFwS2/src/../include/matrix.h ****     operator-( U t ) const { return { _x - t, _y - t }; }
  91:/home/tienluong/workspace/atlantis_fw/AsicFwS2/src/../include/matrix.h **** 
  92:/home/tienluong/workspace/atlantis_fw/AsicFwS2/src/../include/matrix.h ****     template < typename U,
  93:/home/tienluong/workspace/atlantis_fw/AsicFwS2/src/../include/matrix.h ****                typename = typename std::enable_if < std::is_arithmetic<U>::value >::type >
  94:/home/tienluong/workspace/atlantis_fw/AsicFwS2/src/../include/matrix.h ****     Vec2<typename std::common_type<T, U>::type>
  95:/home/tienluong/workspace/atlantis_fw/AsicFwS2/src/../include/matrix.h ****     operator*( U t ) const { return { _x * t, _y * t }; }
  96:/home/tienluong/workspace/atlantis_fw/AsicFwS2/src/../include/matrix.h **** 
  97:/home/tienluong/workspace/atlantis_fw/AsicFwS2/src/../include/matrix.h ****     template < typename U,
  98:/home/tienluong/workspace/atlantis_fw/AsicFwS2/src/../include/matrix.h ****                typename = typename std::enable_if < std::is_arithmetic<U>::value >::type >
  99:/home/tienluong/workspace/atlantis_fw/AsicFwS2/src/../include/matrix.h ****     Vec2<typename std::common_type<T, U>::type>
 100:/home/tienluong/workspace/atlantis_fw/AsicFwS2/src/../include/matrix.h ****     operator/( U t ) const { return { _x / t, _y / t }; }
 101:/home/tienluong/workspace/atlantis_fw/AsicFwS2/src/../include/matrix.h **** 
 102:/home/tienluong/workspace/atlantis_fw/AsicFwS2/src/../include/matrix.h ****     template < typename U,
 103:/home/tienluong/workspace/atlantis_fw/AsicFwS2/src/../include/matrix.h ****                typename = typename std::enable_if < std::is_integral<T>::value && std::is_integral<
 104:/home/tienluong/workspace/atlantis_fw/AsicFwS2/src/../include/matrix.h ****     Vec2<typename std::common_type<T, U>::type>
 105:/home/tienluong/workspace/atlantis_fw/AsicFwS2/src/../include/matrix.h ****     operator%( U t ) const { return { _x % t, _y % t }; }
 106:/home/tienluong/workspace/atlantis_fw/AsicFwS2/src/../include/matrix.h **** 
 107:/home/tienluong/workspace/atlantis_fw/AsicFwS2/src/../include/matrix.h ****     T min() const { return std::min( _x, _y ); }
 108:/home/tienluong/workspace/atlantis_fw/AsicFwS2/src/../include/matrix.h ****     T max() const { return std::max( _x, _y ); }
 109:/home/tienluong/workspace/atlantis_fw/AsicFwS2/src/../include/matrix.h ****     T sum() const { return _x + _y; }
 110:/home/tienluong/workspace/atlantis_fw/AsicFwS2/src/../include/matrix.h ****     T dot( const Vec2<T> & t ) const { return _x * t.x() + _y * t.y(); }
 111:/home/tienluong/workspace/atlantis_fw/AsicFwS2/src/../include/matrix.h **** 
 112:/home/tienluong/workspace/atlantis_fw/AsicFwS2/src/../include/matrix.h ****     Vec2 abs() const { return { std::abs( _x ), std::abs( _y ) }; }
 113:/home/tienluong/workspace/atlantis_fw/AsicFwS2/src/../include/matrix.h ****     
 114:/home/tienluong/workspace/atlantis_fw/AsicFwS2/src/../include/matrix.h ****     const T & x() const { return _x; }
 115:/home/tienluong/workspace/atlantis_fw/AsicFwS2/src/../include/matrix.h ****     const T & y() const { return _y; }
 116:/home/tienluong/workspace/atlantis_fw/AsicFwS2/src/../include/matrix.h **** 
 117:/home/tienluong/workspace/atlantis_fw/AsicFwS2/src/../include/matrix.h ****     void setX( T x ) { _x = x; }
 118:/home/tienluong/workspace/atlantis_fw/AsicFwS2/src/../include/matrix.h ****     void setY( T y ) { _y = y; }
 119:/home/tienluong/workspace/atlantis_fw/AsicFwS2/src/../include/matrix.h **** 
 120:/home/tienluong/workspace/atlantis_fw/AsicFwS2/src/../include/matrix.h **** private:
 121:/home/tienluong/workspace/atlantis_fw/AsicFwS2/src/../include/matrix.h **** 	T _x, _y;
 122:/home/tienluong/workspace/atlantis_fw/AsicFwS2/src/../include/matrix.h **** };
 123:/home/tienluong/workspace/atlantis_fw/AsicFwS2/src/../include/matrix.h **** 
 124:/home/tienluong/workspace/atlantis_fw/AsicFwS2/src/../include/matrix.h **** 
 125:/home/tienluong/workspace/atlantis_fw/AsicFwS2/src/../include/matrix.h **** // basic add/sub/mul/div operators
 126:/home/tienluong/workspace/atlantis_fw/AsicFwS2/src/../include/matrix.h **** template < typename T, typename U,
 127:/home/tienluong/workspace/atlantis_fw/AsicFwS2/src/../include/matrix.h ****            typename = typename std::enable_if < std::is_arithmetic<T>::value >::type >
 128:/home/tienluong/workspace/atlantis_fw/AsicFwS2/src/../include/matrix.h **** Vec2<typename std::common_type<T, U>::type>
 129:/home/tienluong/workspace/atlantis_fw/AsicFwS2/src/../include/matrix.h **** operator+( T a, const Vec2<U> & b ) { return b + a; }
 130:/home/tienluong/workspace/atlantis_fw/AsicFwS2/src/../include/matrix.h **** 
 131:/home/tienluong/workspace/atlantis_fw/AsicFwS2/src/../include/matrix.h **** template < typename T, typename U,
 132:/home/tienluong/workspace/atlantis_fw/AsicFwS2/src/../include/matrix.h ****            typename = typename std::enable_if < std::is_arithmetic<T>::value >::type >
 133:/home/tienluong/workspace/atlantis_fw/AsicFwS2/src/../include/matrix.h **** Vec2<typename std::common_type<T, U>::type>
 134:/home/tienluong/workspace/atlantis_fw/AsicFwS2/src/../include/matrix.h **** operator*( T a, const Vec2<U> & b ) { return b * a; }
 135:/home/tienluong/workspace/atlantis_fw/AsicFwS2/src/../include/matrix.h **** 
 136:/home/tienluong/workspace/atlantis_fw/AsicFwS2/src/../include/matrix.h **** template < typename T, typename U,
 137:/home/tienluong/workspace/atlantis_fw/AsicFwS2/src/../include/matrix.h ****            typename = typename std::enable_if < std::is_arithmetic<T>::value >::type >
 138:/home/tienluong/workspace/atlantis_fw/AsicFwS2/src/../include/matrix.h **** Vec2<typename std::common_type<T, U>::type>
 139:/home/tienluong/workspace/atlantis_fw/AsicFwS2/src/../include/matrix.h **** operator-( T a, const Vec2<U> & b ) { return Vec2<T>( a ) - b; }
 140:/home/tienluong/workspace/atlantis_fw/AsicFwS2/src/../include/matrix.h **** 
 141:/home/tienluong/workspace/atlantis_fw/AsicFwS2/src/../include/matrix.h **** template < typename T, typename U,
 142:/home/tienluong/workspace/atlantis_fw/AsicFwS2/src/../include/matrix.h ****            typename = typename std::enable_if < std::is_arithmetic<T>::value >::type >
 143:/home/tienluong/workspace/atlantis_fw/AsicFwS2/src/../include/matrix.h **** Vec2<typename std::common_type<T, U>::type>
 144:/home/tienluong/workspace/atlantis_fw/AsicFwS2/src/../include/matrix.h **** operator/( T a, const Vec2<U> & b ) { return Vec2<T>( a ) / b; }
 145:/home/tienluong/workspace/atlantis_fw/AsicFwS2/src/../include/matrix.h **** 
 146:/home/tienluong/workspace/atlantis_fw/AsicFwS2/src/../include/matrix.h **** // basic math functions
 147:/home/tienluong/workspace/atlantis_fw/AsicFwS2/src/../include/matrix.h **** template<typename T>
 148:/home/tienluong/workspace/atlantis_fw/AsicFwS2/src/../include/matrix.h **** T min( const Vec2<T> & t ) { return t.min(); }
 149:/home/tienluong/workspace/atlantis_fw/AsicFwS2/src/../include/matrix.h **** 
 150:/home/tienluong/workspace/atlantis_fw/AsicFwS2/src/../include/matrix.h **** template<typename T>
 151:/home/tienluong/workspace/atlantis_fw/AsicFwS2/src/../include/matrix.h **** T max( const Vec2<T> & t ) { return t.max(); }
 152:/home/tienluong/workspace/atlantis_fw/AsicFwS2/src/../include/matrix.h **** 
 153:/home/tienluong/workspace/atlantis_fw/AsicFwS2/src/../include/matrix.h **** template<typename T>
 154:/home/tienluong/workspace/atlantis_fw/AsicFwS2/src/../include/matrix.h **** T sum( const Vec2<T> & t ) { return t.sum(); }
 155:/home/tienluong/workspace/atlantis_fw/AsicFwS2/src/../include/matrix.h **** 
 156:/home/tienluong/workspace/atlantis_fw/AsicFwS2/src/../include/matrix.h **** template<typename T>
 157:/home/tienluong/workspace/atlantis_fw/AsicFwS2/src/../include/matrix.h **** T dot( const Vec2<T> & a, const Vec2<T> & b ) { return a.dot( b ); }
 158:/home/tienluong/workspace/atlantis_fw/AsicFwS2/src/../include/matrix.h **** 
 159:/home/tienluong/workspace/atlantis_fw/AsicFwS2/src/../include/matrix.h **** template<typename T>
 160:/home/tienluong/workspace/atlantis_fw/AsicFwS2/src/../include/matrix.h **** Vec2<T> min( const Vec2<T> & a, const Vec2<T> & b )
 161:/home/tienluong/workspace/atlantis_fw/AsicFwS2/src/../include/matrix.h **** { return { std::min( a.x(), b.x() ), std::min( a.y(), b.y() ) }; }
 162:/home/tienluong/workspace/atlantis_fw/AsicFwS2/src/../include/matrix.h **** 
 163:/home/tienluong/workspace/atlantis_fw/AsicFwS2/src/../include/matrix.h **** template<typename T>
 164:/home/tienluong/workspace/atlantis_fw/AsicFwS2/src/../include/matrix.h **** Vec2<T> abs( const Vec2<T> & t ) { return t.abs(); }
 165:/home/tienluong/workspace/atlantis_fw/AsicFwS2/src/../include/matrix.h **** 
 166:/home/tienluong/workspace/atlantis_fw/AsicFwS2/src/../include/matrix.h **** // template<typename T>
 167:/home/tienluong/workspace/atlantis_fw/AsicFwS2/src/../include/matrix.h **** // Vec2<T> sign( const Vec2<T> & t ) { return t.sign(); }
 168:/home/tienluong/workspace/atlantis_fw/AsicFwS2/src/../include/matrix.h **** 
 169:/home/tienluong/workspace/atlantis_fw/AsicFwS2/src/../include/matrix.h **** template<typename T>
 170:/home/tienluong/workspace/atlantis_fw/AsicFwS2/src/../include/matrix.h **** typename std::enable_if<std::is_floating_point<T>::value, T>::type
 171:/home/tienluong/workspace/atlantis_fw/AsicFwS2/src/../include/matrix.h **** length( const Vec2<T> & a )
 172:/home/tienluong/workspace/atlantis_fw/AsicFwS2/src/../include/matrix.h **** { return std::sqrt( dot( a, a ) ); }
 173:/home/tienluong/workspace/atlantis_fw/AsicFwS2/src/../include/matrix.h **** 
 174:/home/tienluong/workspace/atlantis_fw/AsicFwS2/src/../include/matrix.h **** template<typename T>
 175:/home/tienluong/workspace/atlantis_fw/AsicFwS2/src/../include/matrix.h **** typename std::enable_if<std::is_floating_point<T>::value, Vec2<T> >::type
 176:/home/tienluong/workspace/atlantis_fw/AsicFwS2/src/../include/matrix.h **** sqrt( const Vec2<T> & a )
 177:/home/tienluong/workspace/atlantis_fw/AsicFwS2/src/../include/matrix.h **** { return { std::sqrt( a.x() ), std::sqrt( a.y() ) }; }
 178:/home/tienluong/workspace/atlantis_fw/AsicFwS2/src/../include/matrix.h **** 
 179:/home/tienluong/workspace/atlantis_fw/AsicFwS2/src/../include/matrix.h **** template<typename T>
 180:/home/tienluong/workspace/atlantis_fw/AsicFwS2/src/../include/matrix.h **** typename std::enable_if<std::is_floating_point<T>::value, T>::type
 181:/home/tienluong/workspace/atlantis_fw/AsicFwS2/src/../include/matrix.h **** squaredSum( const Vec2<T> & a )
 182:/home/tienluong/workspace/atlantis_fw/AsicFwS2/src/../include/matrix.h **** { return dot( a, a ); }
 183:/home/tienluong/workspace/atlantis_fw/AsicFwS2/src/../include/matrix.h **** 
 184:/home/tienluong/workspace/atlantis_fw/AsicFwS2/src/../include/matrix.h **** template<typename T>
 185:/home/tienluong/workspace/atlantis_fw/AsicFwS2/src/../include/matrix.h **** typename std::enable_if<std::is_floating_point<T>::value, Vec2<T> >::type
 186:/home/tienluong/workspace/atlantis_fw/AsicFwS2/src/../include/matrix.h **** normalize( const Vec2<T> & a )
 187:/home/tienluong/workspace/atlantis_fw/AsicFwS2/src/../include/matrix.h **** {
 188:/home/tienluong/workspace/atlantis_fw/AsicFwS2/src/../include/matrix.h ****     return a / length( a );
 189:/home/tienluong/workspace/atlantis_fw/AsicFwS2/src/../include/matrix.h **** }
 190:/home/tienluong/workspace/atlantis_fw/AsicFwS2/src/../include/matrix.h **** 
 191:/home/tienluong/workspace/atlantis_fw/AsicFwS2/src/../include/matrix.h **** // template<typename T>
 192:/home/tienluong/workspace/atlantis_fw/AsicFwS2/src/../include/matrix.h **** // typename std::enable_if<std::is_floating_point<T>::value, Vec2<T> >::type
 193:/home/tienluong/workspace/atlantis_fw/AsicFwS2/src/../include/matrix.h **** // pow( const Vec2<T> & a, const Vec2<T> & b )
 194:/home/tienluong/workspace/atlantis_fw/AsicFwS2/src/../include/matrix.h **** // { return { std::pow( a.x(), b.x() ), std::pow( a.y(), b.y() ) }; }
 195:/home/tienluong/workspace/atlantis_fw/AsicFwS2/src/../include/matrix.h **** 
 196:/home/tienluong/workspace/atlantis_fw/AsicFwS2/src/../include/matrix.h **** // template<typename T>
 197:/home/tienluong/workspace/atlantis_fw/AsicFwS2/src/../include/matrix.h **** // typename std::enable_if<std::is_floating_point<T>::value, Vec2<T> >::type
 198:/home/tienluong/workspace/atlantis_fw/AsicFwS2/src/../include/matrix.h **** // pow( const Vec2<T> & a, T  b )
 199:/home/tienluong/workspace/atlantis_fw/AsicFwS2/src/../include/matrix.h **** // { return { std::pow( a.x(), b ), std::pow( a.y(), b ) }; }
 200:/home/tienluong/workspace/atlantis_fw/AsicFwS2/src/../include/matrix.h **** 
 201:/home/tienluong/workspace/atlantis_fw/AsicFwS2/src/../include/matrix.h **** // template<typename T>
 202:/home/tienluong/workspace/atlantis_fw/AsicFwS2/src/../include/matrix.h **** // typename std::enable_if<std::is_floating_point<T>::value, Vec2<T> >::type
 203:/home/tienluong/workspace/atlantis_fw/AsicFwS2/src/../include/matrix.h **** // pow( T a, const Vec2<T> & b )
 204:/home/tienluong/workspace/atlantis_fw/AsicFwS2/src/../include/matrix.h **** // { return { std::pow( a, b.x() ), std::pow( a, b.y() ) }; }
 205:/home/tienluong/workspace/atlantis_fw/AsicFwS2/src/../include/matrix.h **** 
 206:/home/tienluong/workspace/atlantis_fw/AsicFwS2/src/../include/matrix.h **** // template<typename T>
 207:/home/tienluong/workspace/atlantis_fw/AsicFwS2/src/../include/matrix.h **** // typename std::enable_if<std::is_floating_point<T>::value, Vec2<T> >::type
 208:/home/tienluong/workspace/atlantis_fw/AsicFwS2/src/../include/matrix.h **** // floor( const Vec2<T> & a )
 209:/home/tienluong/workspace/atlantis_fw/AsicFwS2/src/../include/matrix.h **** // { return { std::floor( a.x() ), std::floor( a.y() ) }; }
 210:/home/tienluong/workspace/atlantis_fw/AsicFwS2/src/../include/matrix.h **** 
 211:/home/tienluong/workspace/atlantis_fw/AsicFwS2/src/../include/matrix.h **** // template<typename T>
 212:/home/tienluong/workspace/atlantis_fw/AsicFwS2/src/../include/matrix.h **** // typename std::enable_if<std::is_floating_point<T>::value, Vec2<T> >::type
 213:/home/tienluong/workspace/atlantis_fw/AsicFwS2/src/../include/matrix.h **** // ceil( const Vec2<T> & a )
 214:/home/tienluong/workspace/atlantis_fw/AsicFwS2/src/../include/matrix.h **** // { return { std::ceil( a.x() ), std::ceil( a.y() ) }; }
 215:/home/tienluong/workspace/atlantis_fw/AsicFwS2/src/../include/matrix.h **** 
 216:/home/tienluong/workspace/atlantis_fw/AsicFwS2/src/../include/matrix.h **** 
 217:/home/tienluong/workspace/atlantis_fw/AsicFwS2/src/../include/matrix.h **** 
 218:/home/tienluong/workspace/atlantis_fw/AsicFwS2/src/../include/matrix.h **** 
 219:/home/tienluong/workspace/atlantis_fw/AsicFwS2/src/../include/matrix.h **** 
 220:/home/tienluong/workspace/atlantis_fw/AsicFwS2/src/../include/matrix.h **** // -----------------------------------------------------------
 221:/home/tienluong/workspace/atlantis_fw/AsicFwS2/src/../include/matrix.h **** // 			Vec3 class
 222:/home/tienluong/workspace/atlantis_fw/AsicFwS2/src/../include/matrix.h **** // -----------------------------------------------------------
 223:/home/tienluong/workspace/atlantis_fw/AsicFwS2/src/../include/matrix.h **** template<typename T>
 224:/home/tienluong/workspace/atlantis_fw/AsicFwS2/src/../include/matrix.h **** class Vec3
 225:/home/tienluong/workspace/atlantis_fw/AsicFwS2/src/../include/matrix.h **** {
 226:/home/tienluong/workspace/atlantis_fw/AsicFwS2/src/../include/matrix.h **** public:
 227:/home/tienluong/workspace/atlantis_fw/AsicFwS2/src/../include/matrix.h ****     Vec3() {}
 228:/home/tienluong/workspace/atlantis_fw/AsicFwS2/src/../include/matrix.h ****     Vec3( T t ) : _x( t ), _y( t ), _z( t ) {}
 229:/home/tienluong/workspace/atlantis_fw/AsicFwS2/src/../include/matrix.h ****     Vec3( T x, T y, T z ) : _x( x ), _y( y ), _z( z ) {}
 230:/home/tienluong/workspace/atlantis_fw/AsicFwS2/src/../include/matrix.h ****     Vec3( const Vec3 & t ) : _x( t._x ), _y( t._y ), _z( t._z ) {}
 231:/home/tienluong/workspace/atlantis_fw/AsicFwS2/src/../include/matrix.h **** 
 232:/home/tienluong/workspace/atlantis_fw/AsicFwS2/src/../include/matrix.h ****     template<typename U>
 233:/home/tienluong/workspace/atlantis_fw/AsicFwS2/src/../include/matrix.h ****     explicit Vec3( const Vec3<U> & t )
 234:/home/tienluong/workspace/atlantis_fw/AsicFwS2/src/../include/matrix.h ****         : _x( static_cast<T>( t.x() ) )
 235:/home/tienluong/workspace/atlantis_fw/AsicFwS2/src/../include/matrix.h ****         , _y( static_cast<T>( t.y() ) )
 236:/home/tienluong/workspace/atlantis_fw/AsicFwS2/src/../include/matrix.h ****         , _z( static_cast<T>( t.z() ) ) {}
 237:/home/tienluong/workspace/atlantis_fw/AsicFwS2/src/../include/matrix.h **** 
 238:/home/tienluong/workspace/atlantis_fw/AsicFwS2/src/../include/matrix.h ****     Vec3 & operator=( const Vec3 & t )
 239:/home/tienluong/workspace/atlantis_fw/AsicFwS2/src/../include/matrix.h ****     { _x = t._x; _y = t._y; _z = t._z; return *this; }
 240:/home/tienluong/workspace/atlantis_fw/AsicFwS2/src/../include/matrix.h **** 
 241:/home/tienluong/workspace/atlantis_fw/AsicFwS2/src/../include/matrix.h ****     Vec3 & operator/=( const Vec3 & t )
 242:/home/tienluong/workspace/atlantis_fw/AsicFwS2/src/../include/matrix.h ****     { _x /= t._x; _y /= t._y; _z /= t._z; return *this; }
 243:/home/tienluong/workspace/atlantis_fw/AsicFwS2/src/../include/matrix.h **** 
 244:/home/tienluong/workspace/atlantis_fw/AsicFwS2/src/../include/matrix.h ****     Vec3 & operator%=( const Vec3 & t )
 245:/home/tienluong/workspace/atlantis_fw/AsicFwS2/src/../include/matrix.h ****     { _x %= t._x; _y %= t._y; _z %= t._z; return *this; }
 246:/home/tienluong/workspace/atlantis_fw/AsicFwS2/src/../include/matrix.h **** 
 247:/home/tienluong/workspace/atlantis_fw/AsicFwS2/src/../include/matrix.h ****     Vec3 & operator*=( const Vec3 & t )
 248:/home/tienluong/workspace/atlantis_fw/AsicFwS2/src/../include/matrix.h ****     { _x *= t._x; _y *= t._y; _z *= t._z; return *this; }
 249:/home/tienluong/workspace/atlantis_fw/AsicFwS2/src/../include/matrix.h **** 
 250:/home/tienluong/workspace/atlantis_fw/AsicFwS2/src/../include/matrix.h ****     Vec3 & operator+=( const Vec3 & t )
 251:/home/tienluong/workspace/atlantis_fw/AsicFwS2/src/../include/matrix.h ****     { _x += t._x; _y += t._y; _z += t._z; return *this; }
 252:/home/tienluong/workspace/atlantis_fw/AsicFwS2/src/../include/matrix.h **** 
 253:/home/tienluong/workspace/atlantis_fw/AsicFwS2/src/../include/matrix.h ****     Vec3 & operator-=( const Vec3 & t )
 254:/home/tienluong/workspace/atlantis_fw/AsicFwS2/src/../include/matrix.h ****     { _x -= t._x; _y -= t._y; _z -= t._z; return *this; }
 255:/home/tienluong/workspace/atlantis_fw/AsicFwS2/src/../include/matrix.h **** 
 256:/home/tienluong/workspace/atlantis_fw/AsicFwS2/src/../include/matrix.h ****     Vec3 & operator&=( const Vec3 & t )
 257:/home/tienluong/workspace/atlantis_fw/AsicFwS2/src/../include/matrix.h ****     { _x &= t._x; _y &= t._y; _z &= t._z; return *this; }
 258:/home/tienluong/workspace/atlantis_fw/AsicFwS2/src/../include/matrix.h **** 
 259:/home/tienluong/workspace/atlantis_fw/AsicFwS2/src/../include/matrix.h ****     Vec3 & operator|=( const Vec3 & t )
 260:/home/tienluong/workspace/atlantis_fw/AsicFwS2/src/../include/matrix.h ****     { _x |= t._x; _y |= t._y; _z |= t._z; return *this; }
 261:/home/tienluong/workspace/atlantis_fw/AsicFwS2/src/../include/matrix.h **** 
 262:/home/tienluong/workspace/atlantis_fw/AsicFwS2/src/../include/matrix.h ****     Vec3 & operator>>=( int t )
 263:/home/tienluong/workspace/atlantis_fw/AsicFwS2/src/../include/matrix.h ****     { _x >>= t; _y >>= t; _z >>= t; return *this; }
 264:/home/tienluong/workspace/atlantis_fw/AsicFwS2/src/../include/matrix.h **** 
 265:/home/tienluong/workspace/atlantis_fw/AsicFwS2/src/../include/matrix.h ****     Vec3 & operator<<=( int t )
 266:/home/tienluong/workspace/atlantis_fw/AsicFwS2/src/../include/matrix.h ****     { _x <<= t; _y <<= t; _z <<= t; return *this; }
 267:/home/tienluong/workspace/atlantis_fw/AsicFwS2/src/../include/matrix.h **** 
 268:/home/tienluong/workspace/atlantis_fw/AsicFwS2/src/../include/matrix.h ****     Vec3 operator-() const { return { -_x, -_y, -_z }; }
 269:/home/tienluong/workspace/atlantis_fw/AsicFwS2/src/../include/matrix.h **** 
 270:/home/tienluong/workspace/atlantis_fw/AsicFwS2/src/../include/matrix.h ****     template<typename U > 
 271:/home/tienluong/workspace/atlantis_fw/AsicFwS2/src/../include/matrix.h ****     Vec3<typename std::common_type<T, U>::type>
 272:/home/tienluong/workspace/atlantis_fw/AsicFwS2/src/../include/matrix.h ****     operator+( const Vec3<U> & t ) const { return { _x + t.x(), _y + t.y(), _z + t.z() }; }
 273:/home/tienluong/workspace/atlantis_fw/AsicFwS2/src/../include/matrix.h **** 
 274:/home/tienluong/workspace/atlantis_fw/AsicFwS2/src/../include/matrix.h ****     template<typename U> Vec3<typename std::common_type<T, U>::type>
 275:/home/tienluong/workspace/atlantis_fw/AsicFwS2/src/../include/matrix.h ****     operator-( const Vec3<U> & t ) const { return { _x - t.x(), _y - t.y(), _z - t.z() }; }
 276:/home/tienluong/workspace/atlantis_fw/AsicFwS2/src/../include/matrix.h **** 
 277:/home/tienluong/workspace/atlantis_fw/AsicFwS2/src/../include/matrix.h ****     template<typename U> Vec3<typename std::common_type<T, U>::type>
 278:/home/tienluong/workspace/atlantis_fw/AsicFwS2/src/../include/matrix.h ****     operator*( const Vec3<U> & t ) const { return { _x * t.x(), _y * t.y(), _z * t.z() }; }
 279:/home/tienluong/workspace/atlantis_fw/AsicFwS2/src/../include/matrix.h **** 
 280:/home/tienluong/workspace/atlantis_fw/AsicFwS2/src/../include/matrix.h ****     template<typename U> Vec3<typename std::common_type<T, U>::type>
 281:/home/tienluong/workspace/atlantis_fw/AsicFwS2/src/../include/matrix.h ****     operator/( const Vec3<U> & t ) const { return { _x / t.x(), _y / t.y(), _z / t.z() }; }
 282:/home/tienluong/workspace/atlantis_fw/AsicFwS2/src/../include/matrix.h **** 
 283:/home/tienluong/workspace/atlantis_fw/AsicFwS2/src/../include/matrix.h ****     template < typename U,
 284:/home/tienluong/workspace/atlantis_fw/AsicFwS2/src/../include/matrix.h ****                typename = typename std::enable_if < std::is_integral<T>::value && std::is_integral<
 285:/home/tienluong/workspace/atlantis_fw/AsicFwS2/src/../include/matrix.h ****     Vec3<typename std::common_type<T, U>::type>
 286:/home/tienluong/workspace/atlantis_fw/AsicFwS2/src/../include/matrix.h ****     operator%( const Vec3<U> & t ) const { return { _x % t.x(), _y % t.y(), _z % t.z() }; }
 287:/home/tienluong/workspace/atlantis_fw/AsicFwS2/src/../include/matrix.h **** 
 288:/home/tienluong/workspace/atlantis_fw/AsicFwS2/src/../include/matrix.h ****     template < typename U,
 289:/home/tienluong/workspace/atlantis_fw/AsicFwS2/src/../include/matrix.h ****                typename = typename std::enable_if < std::is_arithmetic<U>::value >::type >
 290:/home/tienluong/workspace/atlantis_fw/AsicFwS2/src/../include/matrix.h ****     Vec3<typename std::common_type<T, U>::type>
 291:/home/tienluong/workspace/atlantis_fw/AsicFwS2/src/../include/matrix.h ****     operator+( U t ) const { return { _x + t, _y + t, _z + t }; }
 292:/home/tienluong/workspace/atlantis_fw/AsicFwS2/src/../include/matrix.h **** 
 293:/home/tienluong/workspace/atlantis_fw/AsicFwS2/src/../include/matrix.h ****     template < typename U,
 294:/home/tienluong/workspace/atlantis_fw/AsicFwS2/src/../include/matrix.h ****                typename = typename std::enable_if < std::is_arithmetic<U>::value >::type >
 295:/home/tienluong/workspace/atlantis_fw/AsicFwS2/src/../include/matrix.h ****     Vec3<typename std::common_type<T, U>::type>
 296:/home/tienluong/workspace/atlantis_fw/AsicFwS2/src/../include/matrix.h ****     operator-( U t ) const { return { _x - t, _y - t, _z - t }; }
 297:/home/tienluong/workspace/atlantis_fw/AsicFwS2/src/../include/matrix.h **** 
 298:/home/tienluong/workspace/atlantis_fw/AsicFwS2/src/../include/matrix.h ****     template < typename U,
 299:/home/tienluong/workspace/atlantis_fw/AsicFwS2/src/../include/matrix.h ****                typename = typename std::enable_if < std::is_arithmetic<U>::value >::type >
 300:/home/tienluong/workspace/atlantis_fw/AsicFwS2/src/../include/matrix.h ****     Vec3<typename std::common_type<T, U>::type>
 301:/home/tienluong/workspace/atlantis_fw/AsicFwS2/src/../include/matrix.h ****     operator*( U t ) const { return { _x * t, _y * t, _z * t }; }
 302:/home/tienluong/workspace/atlantis_fw/AsicFwS2/src/../include/matrix.h **** 
 303:/home/tienluong/workspace/atlantis_fw/AsicFwS2/src/../include/matrix.h ****     template < typename U,
 304:/home/tienluong/workspace/atlantis_fw/AsicFwS2/src/../include/matrix.h ****                typename = typename std::enable_if < std::is_arithmetic<U>::value >::type >
 305:/home/tienluong/workspace/atlantis_fw/AsicFwS2/src/../include/matrix.h ****     Vec3<typename std::common_type<T, U>::type>
 306:/home/tienluong/workspace/atlantis_fw/AsicFwS2/src/../include/matrix.h ****     operator/( U t ) const { return { _x / t, _y / t, _z / t }; }
 307:/home/tienluong/workspace/atlantis_fw/AsicFwS2/src/../include/matrix.h **** 
 308:/home/tienluong/workspace/atlantis_fw/AsicFwS2/src/../include/matrix.h ****     template < typename U,
 309:/home/tienluong/workspace/atlantis_fw/AsicFwS2/src/../include/matrix.h ****                typename = typename std::enable_if < std::is_integral<T>::value && std::is_integral<
 310:/home/tienluong/workspace/atlantis_fw/AsicFwS2/src/../include/matrix.h ****     Vec3<typename std::common_type<T, U>::type>
 311:/home/tienluong/workspace/atlantis_fw/AsicFwS2/src/../include/matrix.h ****     operator%( U t ) const { return { _x % t, _y % t, _z % t }; }
 312:/home/tienluong/workspace/atlantis_fw/AsicFwS2/src/../include/matrix.h ****     Vec3<bool> operator==( const Vec3 & t ) const { return { _x == t._x, _y == t._y, _z == t._z }; 
 313:/home/tienluong/workspace/atlantis_fw/AsicFwS2/src/../include/matrix.h ****     Vec3<bool> operator!=( const Vec3 & t ) const { return { _x != t._x, _y != t._y, _z != t._z }; 
 314:/home/tienluong/workspace/atlantis_fw/AsicFwS2/src/../include/matrix.h ****     Vec3<bool> operator>=( const Vec3 & t ) const { return { _x >= t._x, _y >= t._y, _z >= t._z }; 
 315:/home/tienluong/workspace/atlantis_fw/AsicFwS2/src/../include/matrix.h ****     Vec3<bool> operator>( const Vec3 & t )  const { return { _x >  t._x, _y >  t._y, _z >  t._z }; 
 316:/home/tienluong/workspace/atlantis_fw/AsicFwS2/src/../include/matrix.h ****     Vec3<bool> operator<=( const Vec3 & t ) const { return { _x <= t._x, _y <= t._y, _z <= t._z }; 
 317:/home/tienluong/workspace/atlantis_fw/AsicFwS2/src/../include/matrix.h ****     Vec3<bool> operator<( const Vec3 & t )  const { return { _x <  t._x, _y <  t._y, _z <  t._z }; 
 318:/home/tienluong/workspace/atlantis_fw/AsicFwS2/src/../include/matrix.h **** 
 319:/home/tienluong/workspace/atlantis_fw/AsicFwS2/src/../include/matrix.h ****     T min() const { return std::min( std::min( _x, _y ), _z ); }
 320:/home/tienluong/workspace/atlantis_fw/AsicFwS2/src/../include/matrix.h ****     T max() const { return std::max( std::max( _x, _y ), _z ); }
 321:/home/tienluong/workspace/atlantis_fw/AsicFwS2/src/../include/matrix.h ****     T sum() const { return _x + _y + _z; }
 322:/home/tienluong/workspace/atlantis_fw/AsicFwS2/src/../include/matrix.h ****     T dot( const Vec3<T> & t ) const { return _x * t.x() + _y * t.y() + _z * t.z(); }
 323:/home/tienluong/workspace/atlantis_fw/AsicFwS2/src/../include/matrix.h **** 
 324:/home/tienluong/workspace/atlantis_fw/AsicFwS2/src/../include/matrix.h ****     // cross product in right-hand side coordinate (i.e. if this=(1,0,0), t=(0,1,0), out=(0,0,1)).
 325:/home/tienluong/workspace/atlantis_fw/AsicFwS2/src/../include/matrix.h ****     Vec3<T> cross( const Vec3<T> & t ) const
 326:/home/tienluong/workspace/atlantis_fw/AsicFwS2/src/../include/matrix.h ****     { return Vec3<T> {_y * t.z() - _z * t.y(), _z * t.x() - _x * t.z(), _x * t.y() - _y * t.x()};}
 327:/home/tienluong/workspace/atlantis_fw/AsicFwS2/src/../include/matrix.h **** 
 328:/home/tienluong/workspace/atlantis_fw/AsicFwS2/src/../include/matrix.h ****     Vec3 abs() const { return { std::abs( _x ), std::abs( _y ), std::abs( _z ) }; }
 329:/home/tienluong/workspace/atlantis_fw/AsicFwS2/src/../include/matrix.h **** 
 330:/home/tienluong/workspace/atlantis_fw/AsicFwS2/src/../include/matrix.h ****     const T & x() const { return _x; }
 331:/home/tienluong/workspace/atlantis_fw/AsicFwS2/src/../include/matrix.h ****     const T & y() const { return _y; }
 332:/home/tienluong/workspace/atlantis_fw/AsicFwS2/src/../include/matrix.h ****     const T & z() const { return _z; }
 333:/home/tienluong/workspace/atlantis_fw/AsicFwS2/src/../include/matrix.h **** 
 334:/home/tienluong/workspace/atlantis_fw/AsicFwS2/src/../include/matrix.h ****     void setX( T x ) { _x = x; }
 335:/home/tienluong/workspace/atlantis_fw/AsicFwS2/src/../include/matrix.h ****     void setY( T y ) { _y = y; }
 336:/home/tienluong/workspace/atlantis_fw/AsicFwS2/src/../include/matrix.h ****     void setZ( T z ) { _z = z; }
 337:/home/tienluong/workspace/atlantis_fw/AsicFwS2/src/../include/matrix.h **** 
 338:/home/tienluong/workspace/atlantis_fw/AsicFwS2/src/../include/matrix.h ****     Vec3 & normalize()
 339:/home/tienluong/workspace/atlantis_fw/AsicFwS2/src/../include/matrix.h ****     {
 340:/home/tienluong/workspace/atlantis_fw/AsicFwS2/src/../include/matrix.h ****         T len = length(*this);
 341:/home/tienluong/workspace/atlantis_fw/AsicFwS2/src/../include/matrix.h ****         _x /= len;
 342:/home/tienluong/workspace/atlantis_fw/AsicFwS2/src/../include/matrix.h ****         _y /= len;
 343:/home/tienluong/workspace/atlantis_fw/AsicFwS2/src/../include/matrix.h ****         _z /= len;
 344:/home/tienluong/workspace/atlantis_fw/AsicFwS2/src/../include/matrix.h ****         return *this;
 345:/home/tienluong/workspace/atlantis_fw/AsicFwS2/src/../include/matrix.h ****     }
 346:/home/tienluong/workspace/atlantis_fw/AsicFwS2/src/../include/matrix.h **** 
 347:/home/tienluong/workspace/atlantis_fw/AsicFwS2/src/../include/matrix.h **** private:
 348:/home/tienluong/workspace/atlantis_fw/AsicFwS2/src/../include/matrix.h ****     T _x, _y, _z;
 349:/home/tienluong/workspace/atlantis_fw/AsicFwS2/src/../include/matrix.h **** };
 350:/home/tienluong/workspace/atlantis_fw/AsicFwS2/src/../include/matrix.h **** 
 351:/home/tienluong/workspace/atlantis_fw/AsicFwS2/src/../include/matrix.h **** // basic math functions
 352:/home/tienluong/workspace/atlantis_fw/AsicFwS2/src/../include/matrix.h **** template<typename T>
 353:/home/tienluong/workspace/atlantis_fw/AsicFwS2/src/../include/matrix.h **** T min( const Vec3<T> & t ) { return t.min(); }
 354:/home/tienluong/workspace/atlantis_fw/AsicFwS2/src/../include/matrix.h **** 
 355:/home/tienluong/workspace/atlantis_fw/AsicFwS2/src/../include/matrix.h **** template<typename T>
 356:/home/tienluong/workspace/atlantis_fw/AsicFwS2/src/../include/matrix.h **** T max( const Vec3<T> & t ) { return t.max(); }
 357:/home/tienluong/workspace/atlantis_fw/AsicFwS2/src/../include/matrix.h **** 
 358:/home/tienluong/workspace/atlantis_fw/AsicFwS2/src/../include/matrix.h **** template<typename T>
 359:/home/tienluong/workspace/atlantis_fw/AsicFwS2/src/../include/matrix.h **** T sum( const Vec3<T> & t ) { return t.sum(); }
 360:/home/tienluong/workspace/atlantis_fw/AsicFwS2/src/../include/matrix.h **** 
 361:/home/tienluong/workspace/atlantis_fw/AsicFwS2/src/../include/matrix.h **** template<typename T>
 362:/home/tienluong/workspace/atlantis_fw/AsicFwS2/src/../include/matrix.h **** T dot( const Vec3<T> & a, const Vec3<T> & b ) { return a.dot( b ); }
 363:/home/tienluong/workspace/atlantis_fw/AsicFwS2/src/../include/matrix.h **** 
 364:/home/tienluong/workspace/atlantis_fw/AsicFwS2/src/../include/matrix.h **** template<typename T>
 365:/home/tienluong/workspace/atlantis_fw/AsicFwS2/src/../include/matrix.h **** Vec3<T> cross( const Vec3<T> & a, const Vec3<T> & b ) { return a.cross( b ); }
 366:/home/tienluong/workspace/atlantis_fw/AsicFwS2/src/../include/matrix.h **** 
 367:/home/tienluong/workspace/atlantis_fw/AsicFwS2/src/../include/matrix.h **** template<typename T>
 368:/home/tienluong/workspace/atlantis_fw/AsicFwS2/src/../include/matrix.h **** Vec3<T> min( const Vec3<T> & a, const Vec3<T> & b )
 369:/home/tienluong/workspace/atlantis_fw/AsicFwS2/src/../include/matrix.h **** { return { std::min( a.x(), b.x() ), std::min( a.y(), b.y() ), std::min( a.z(), b.z() ) }; }
 370:/home/tienluong/workspace/atlantis_fw/AsicFwS2/src/../include/matrix.h **** 
 371:/home/tienluong/workspace/atlantis_fw/AsicFwS2/src/../include/matrix.h **** // template<typename T, typename U>
 372:/home/tienluong/workspace/atlantis_fw/AsicFwS2/src/../include/matrix.h **** // typename std::enable_if<std::is_arithmetic<U>::value, Vec3<T> >::type
 373:/home/tienluong/workspace/atlantis_fw/AsicFwS2/src/../include/matrix.h **** // min( U a, const Vec3<T> & b )
 374:/home/tienluong/workspace/atlantis_fw/AsicFwS2/src/../include/matrix.h **** // { return min( Vec3<T>( a ), b ); }
 375:/home/tienluong/workspace/atlantis_fw/AsicFwS2/src/../include/matrix.h **** 
 376:/home/tienluong/workspace/atlantis_fw/AsicFwS2/src/../include/matrix.h **** // template<typename T, typename U>
 377:/home/tienluong/workspace/atlantis_fw/AsicFwS2/src/../include/matrix.h **** // typename std::enable_if<std::is_arithmetic<U>::value, Vec3<T> >::type
 378:/home/tienluong/workspace/atlantis_fw/AsicFwS2/src/../include/matrix.h **** // min( const Vec3<T> & a, U b )
 379:/home/tienluong/workspace/atlantis_fw/AsicFwS2/src/../include/matrix.h **** // { return min( a, Vec3<T>( b ) ); }
 380:/home/tienluong/workspace/atlantis_fw/AsicFwS2/src/../include/matrix.h **** 
 381:/home/tienluong/workspace/atlantis_fw/AsicFwS2/src/../include/matrix.h **** // template<typename T>
 382:/home/tienluong/workspace/atlantis_fw/AsicFwS2/src/../include/matrix.h **** // Vec3<T> max( const Vec3<T> & a, const Vec3<T> & b )
 383:/home/tienluong/workspace/atlantis_fw/AsicFwS2/src/../include/matrix.h **** // { return { max( a.x(), b.x() ), max( a.y(), b.y() ), max( a.z(), b.z() ) }; }
 384:/home/tienluong/workspace/atlantis_fw/AsicFwS2/src/../include/matrix.h **** 
 385:/home/tienluong/workspace/atlantis_fw/AsicFwS2/src/../include/matrix.h **** // template<typename T, typename U>
 386:/home/tienluong/workspace/atlantis_fw/AsicFwS2/src/../include/matrix.h **** // typename std::enable_if<std::is_arithmetic<U>::value, Vec3<T> >::type
 387:/home/tienluong/workspace/atlantis_fw/AsicFwS2/src/../include/matrix.h **** // max( U a, const Vec3<T> & b )
 388:/home/tienluong/workspace/atlantis_fw/AsicFwS2/src/../include/matrix.h **** // { return max( Vec3<T>( a ), b ); }
 389:/home/tienluong/workspace/atlantis_fw/AsicFwS2/src/../include/matrix.h **** 
 390:/home/tienluong/workspace/atlantis_fw/AsicFwS2/src/../include/matrix.h **** // template<typename T, typename U>
 391:/home/tienluong/workspace/atlantis_fw/AsicFwS2/src/../include/matrix.h **** // typename std::enable_if<std::is_arithmetic<U>::value, Vec3<T> >::type
 392:/home/tienluong/workspace/atlantis_fw/AsicFwS2/src/../include/matrix.h **** // max( const Vec3<T> & a, U b )
 393:/home/tienluong/workspace/atlantis_fw/AsicFwS2/src/../include/matrix.h **** // { return max( a, Vec3<T>( b ) ); }
 394:/home/tienluong/workspace/atlantis_fw/AsicFwS2/src/../include/matrix.h **** 
 395:/home/tienluong/workspace/atlantis_fw/AsicFwS2/src/../include/matrix.h **** // template<typename T>
 396:/home/tienluong/workspace/atlantis_fw/AsicFwS2/src/../include/matrix.h **** // Vec3<T> clamp( const Vec3<T> & t, const Vec3<T> & min_t, const Vec3<T> & max_t )
 397:/home/tienluong/workspace/atlantis_fw/AsicFwS2/src/../include/matrix.h **** // { return min( max( t, min_t ), max_t ); }
 398:/home/tienluong/workspace/atlantis_fw/AsicFwS2/src/../include/matrix.h **** 
 399:/home/tienluong/workspace/atlantis_fw/AsicFwS2/src/../include/matrix.h **** // template<typename T, typename U>
 400:/home/tienluong/workspace/atlantis_fw/AsicFwS2/src/../include/matrix.h **** // typename std::enable_if<std::is_arithmetic<U>::value, Vec3<T> >::type
 401:/home/tienluong/workspace/atlantis_fw/AsicFwS2/src/../include/matrix.h **** // clamp( const Vec3<T> & t, U min_t, const Vec3<T> & max_t )
 402:/home/tienluong/workspace/atlantis_fw/AsicFwS2/src/../include/matrix.h **** // { return clamp( t, Vec3<T>( min_t ), max_t ); }
 403:/home/tienluong/workspace/atlantis_fw/AsicFwS2/src/../include/matrix.h **** 
 404:/home/tienluong/workspace/atlantis_fw/AsicFwS2/src/../include/matrix.h **** // template<typename T, typename U>
 405:/home/tienluong/workspace/atlantis_fw/AsicFwS2/src/../include/matrix.h **** // typename std::enable_if<std::is_arithmetic<U>::value, Vec3<T> >::type
 406:/home/tienluong/workspace/atlantis_fw/AsicFwS2/src/../include/matrix.h **** // clamp( const Vec3<T> & t, const Vec3<T> & min_t, U max_t )
 407:/home/tienluong/workspace/atlantis_fw/AsicFwS2/src/../include/matrix.h **** // { return clamp( t, min_t, Vec3<T>( max_t ) ); }
 408:/home/tienluong/workspace/atlantis_fw/AsicFwS2/src/../include/matrix.h **** 
 409:/home/tienluong/workspace/atlantis_fw/AsicFwS2/src/../include/matrix.h **** // template<typename T, typename U, typename V>
 410:/home/tienluong/workspace/atlantis_fw/AsicFwS2/src/../include/matrix.h **** // typename std::enable_if < std::is_arithmetic<U>::value && std::is_arithmetic<V>::value, Vec3<T> 
 411:/home/tienluong/workspace/atlantis_fw/AsicFwS2/src/../include/matrix.h **** // clamp( const Vec3<T> & t, U min_t, V max_t )
 412:/home/tienluong/workspace/atlantis_fw/AsicFwS2/src/../include/matrix.h **** // { return clamp( t, Vec3<T>( min_t ), Vec3<T>( max_t ) ); }
 413:/home/tienluong/workspace/atlantis_fw/AsicFwS2/src/../include/matrix.h **** 
 414:/home/tienluong/workspace/atlantis_fw/AsicFwS2/src/../include/matrix.h **** template<typename T>
 415:/home/tienluong/workspace/atlantis_fw/AsicFwS2/src/../include/matrix.h **** Vec3<T> abs( const Vec3<T> & t ) { return t.abs(); }
 416:/home/tienluong/workspace/atlantis_fw/AsicFwS2/src/../include/matrix.h **** 
 417:/home/tienluong/workspace/atlantis_fw/AsicFwS2/src/../include/matrix.h **** // template<typename T>
 418:/home/tienluong/workspace/atlantis_fw/AsicFwS2/src/../include/matrix.h **** // Vec3<T> sign( const Vec3<T> & t ) { return t.sign(); }
 419:/home/tienluong/workspace/atlantis_fw/AsicFwS2/src/../include/matrix.h **** 
 420:/home/tienluong/workspace/atlantis_fw/AsicFwS2/src/../include/matrix.h **** template<typename T>
 421:/home/tienluong/workspace/atlantis_fw/AsicFwS2/src/../include/matrix.h **** typename std::enable_if<std::is_floating_point<T>::value, T>::type
 422:/home/tienluong/workspace/atlantis_fw/AsicFwS2/src/../include/matrix.h **** length( const Vec3<T> & a )
 423:/home/tienluong/workspace/atlantis_fw/AsicFwS2/src/../include/matrix.h **** { return std::sqrt( dot( a, a ) ); }
 424:/home/tienluong/workspace/atlantis_fw/AsicFwS2/src/../include/matrix.h **** 
 425:/home/tienluong/workspace/atlantis_fw/AsicFwS2/src/../include/matrix.h **** template<typename T>
 426:/home/tienluong/workspace/atlantis_fw/AsicFwS2/src/../include/matrix.h **** typename std::enable_if<std::is_floating_point<T>::value, Vec3<T> >::type
 427:/home/tienluong/workspace/atlantis_fw/AsicFwS2/src/../include/matrix.h **** sqrt( const Vec3<T> & a )
 428:/home/tienluong/workspace/atlantis_fw/AsicFwS2/src/../include/matrix.h **** { return { std::sqrt( a.x() ), std::sqrt( a.y() ), std::sqrt( a.z() ) }; }
 429:/home/tienluong/workspace/atlantis_fw/AsicFwS2/src/../include/matrix.h **** 
 430:/home/tienluong/workspace/atlantis_fw/AsicFwS2/src/../include/matrix.h **** template<typename T>
 431:/home/tienluong/workspace/atlantis_fw/AsicFwS2/src/../include/matrix.h **** typename std::enable_if<std::is_floating_point<T>::value, T>::type
 432:/home/tienluong/workspace/atlantis_fw/AsicFwS2/src/../include/matrix.h **** squaredSum( const Vec3<T> & a )
 433:/home/tienluong/workspace/atlantis_fw/AsicFwS2/src/../include/matrix.h **** { return dot( a, a ); }
 434:/home/tienluong/workspace/atlantis_fw/AsicFwS2/src/../include/matrix.h **** 
 435:/home/tienluong/workspace/atlantis_fw/AsicFwS2/src/../include/matrix.h **** template<typename T>
 436:/home/tienluong/workspace/atlantis_fw/AsicFwS2/src/../include/matrix.h **** typename std::enable_if<std::is_floating_point<T>::value, Vec3<T> >::type
 437:/home/tienluong/workspace/atlantis_fw/AsicFwS2/src/../include/matrix.h **** normalize( const Vec3<T> & a )
 438:/home/tienluong/workspace/atlantis_fw/AsicFwS2/src/../include/matrix.h **** {
 439:/home/tienluong/workspace/atlantis_fw/AsicFwS2/src/../include/matrix.h ****     return a / length( a );
 440:/home/tienluong/workspace/atlantis_fw/AsicFwS2/src/../include/matrix.h **** }
 441:/home/tienluong/workspace/atlantis_fw/AsicFwS2/src/../include/matrix.h **** 
 442:/home/tienluong/workspace/atlantis_fw/AsicFwS2/src/../include/matrix.h **** // template<typename T>
 443:/home/tienluong/workspace/atlantis_fw/AsicFwS2/src/../include/matrix.h **** // typename std::enable_if<std::is_floating_point<T>::value, Vec3<T> >::type
 444:/home/tienluong/workspace/atlantis_fw/AsicFwS2/src/../include/matrix.h **** // pow( const Vec3<T> & a, const Vec3<T> & b )
 445:/home/tienluong/workspace/atlantis_fw/AsicFwS2/src/../include/matrix.h **** // { return { std::pow( a.x(), b.x() ), std::pow( a.y(), b.y() ), std::pow( a.z(), b.z() ) }; }
 446:/home/tienluong/workspace/atlantis_fw/AsicFwS2/src/../include/matrix.h **** 
 447:/home/tienluong/workspace/atlantis_fw/AsicFwS2/src/../include/matrix.h **** // template<typename T>
 448:/home/tienluong/workspace/atlantis_fw/AsicFwS2/src/../include/matrix.h **** // typename std::enable_if<std::is_floating_point<T>::value, Vec3<T> >::type
 449:/home/tienluong/workspace/atlantis_fw/AsicFwS2/src/../include/matrix.h **** // pow( const Vec3<T> & a, T  b )
 450:/home/tienluong/workspace/atlantis_fw/AsicFwS2/src/../include/matrix.h **** // { return { std::pow( a.x(), b ), std::pow( a.y(), b ), std::pow( a.z(), b ) }; }
 451:/home/tienluong/workspace/atlantis_fw/AsicFwS2/src/../include/matrix.h **** 
 452:/home/tienluong/workspace/atlantis_fw/AsicFwS2/src/../include/matrix.h **** // template<typename T>
 453:/home/tienluong/workspace/atlantis_fw/AsicFwS2/src/../include/matrix.h **** // typename std::enable_if<std::is_floating_point<T>::value, Vec3<T> >::type
 454:/home/tienluong/workspace/atlantis_fw/AsicFwS2/src/../include/matrix.h **** // pow( T a, const Vec3<T> & b )
 455:/home/tienluong/workspace/atlantis_fw/AsicFwS2/src/../include/matrix.h **** // { return { std::pow( a, b.x() ), std::pow( a, b.y() ), std::pow( a, b.z() ) }; }
 456:/home/tienluong/workspace/atlantis_fw/AsicFwS2/src/../include/matrix.h **** 
 457:/home/tienluong/workspace/atlantis_fw/AsicFwS2/src/../include/matrix.h **** // template<typename T>
 458:/home/tienluong/workspace/atlantis_fw/AsicFwS2/src/../include/matrix.h **** // typename std::enable_if<std::is_floating_point<T>::value, Vec3<T> >::type
 459:/home/tienluong/workspace/atlantis_fw/AsicFwS2/src/../include/matrix.h **** // floor( const Vec3<T> & a )
 460:/home/tienluong/workspace/atlantis_fw/AsicFwS2/src/../include/matrix.h **** // { return { std::floor( a.x() ), std::floor( a.y() ), std::floor( a.z() ) }; }
 461:/home/tienluong/workspace/atlantis_fw/AsicFwS2/src/../include/matrix.h **** 
 462:/home/tienluong/workspace/atlantis_fw/AsicFwS2/src/../include/matrix.h **** // template<typename T>
 463:/home/tienluong/workspace/atlantis_fw/AsicFwS2/src/../include/matrix.h **** // typename std::enable_if<std::is_floating_point<T>::value, Vec3<T> >::type
 464:/home/tienluong/workspace/atlantis_fw/AsicFwS2/src/../include/matrix.h **** // ceil( const Vec3<T> & a )
 465:/home/tienluong/workspace/atlantis_fw/AsicFwS2/src/../include/matrix.h **** // { return { std::ceil( a.x() ), std::ceil( a.y() ), std::ceil( a.z() ) }; }
 466:/home/tienluong/workspace/atlantis_fw/AsicFwS2/src/../include/matrix.h **** 
 467:/home/tienluong/workspace/atlantis_fw/AsicFwS2/src/../include/matrix.h **** 
 468:/home/tienluong/workspace/atlantis_fw/AsicFwS2/src/../include/matrix.h **** // -----------------------------------------------------------
 469:/home/tienluong/workspace/atlantis_fw/AsicFwS2/src/../include/matrix.h **** // 			Vec4 class
 470:/home/tienluong/workspace/atlantis_fw/AsicFwS2/src/../include/matrix.h **** // -----------------------------------------------------------
 471:/home/tienluong/workspace/atlantis_fw/AsicFwS2/src/../include/matrix.h **** template<typename T>
 472:/home/tienluong/workspace/atlantis_fw/AsicFwS2/src/../include/matrix.h **** class Vec4
 473:/home/tienluong/workspace/atlantis_fw/AsicFwS2/src/../include/matrix.h **** {
 474:/home/tienluong/workspace/atlantis_fw/AsicFwS2/src/../include/matrix.h **** public:
 475:/home/tienluong/workspace/atlantis_fw/AsicFwS2/src/../include/matrix.h ****     Vec4() {}
 476:/home/tienluong/workspace/atlantis_fw/AsicFwS2/src/../include/matrix.h ****     Vec4( T t ) : _x( t ), _y( t ), _z( t ), _a( t ) {}
 477:/home/tienluong/workspace/atlantis_fw/AsicFwS2/src/../include/matrix.h ****     Vec4( T x, T y, T z, T a ) : _x( x ), _y( y ), _z( z ), _a ( a ){}
 478:/home/tienluong/workspace/atlantis_fw/AsicFwS2/src/../include/matrix.h ****     Vec4( const Vec4 & t ) : _x( t._x ), _y( t._y ), _z( t._z ), _a( t._a ) {}
 479:/home/tienluong/workspace/atlantis_fw/AsicFwS2/src/../include/matrix.h **** 
 480:/home/tienluong/workspace/atlantis_fw/AsicFwS2/src/../include/matrix.h ****     template<typename U>
 481:/home/tienluong/workspace/atlantis_fw/AsicFwS2/src/../include/matrix.h ****     explicit Vec4( const Vec4<U> & t )
 482:/home/tienluong/workspace/atlantis_fw/AsicFwS2/src/../include/matrix.h ****         : _x( static_cast<T>( t.x() ) )
 483:/home/tienluong/workspace/atlantis_fw/AsicFwS2/src/../include/matrix.h ****         , _y( static_cast<T>( t.y() ) )
 484:/home/tienluong/workspace/atlantis_fw/AsicFwS2/src/../include/matrix.h ****         , _z( static_cast<T>( t.z() ) )
 485:/home/tienluong/workspace/atlantis_fw/AsicFwS2/src/../include/matrix.h ****         , _a( static_cast<T>( t.a() ) ) {}
 486:/home/tienluong/workspace/atlantis_fw/AsicFwS2/src/../include/matrix.h **** 
 487:/home/tienluong/workspace/atlantis_fw/AsicFwS2/src/../include/matrix.h ****     Vec4 & operator=( const Vec4 & t )
 488:/home/tienluong/workspace/atlantis_fw/AsicFwS2/src/../include/matrix.h ****     { _x = t._x; _y = t._y; _z = t._z; _a = t._a; return *this; }
 489:/home/tienluong/workspace/atlantis_fw/AsicFwS2/src/../include/matrix.h **** 
 490:/home/tienluong/workspace/atlantis_fw/AsicFwS2/src/../include/matrix.h ****     Vec4 & operator/=( const Vec4 & t )
 491:/home/tienluong/workspace/atlantis_fw/AsicFwS2/src/../include/matrix.h ****     { _x /= t._x; _y /= t._y; _z /= t._z; _a /= t._a; return *this; }
 492:/home/tienluong/workspace/atlantis_fw/AsicFwS2/src/../include/matrix.h **** 
 493:/home/tienluong/workspace/atlantis_fw/AsicFwS2/src/../include/matrix.h ****     Vec4 & operator%=( const Vec4 & t )
 494:/home/tienluong/workspace/atlantis_fw/AsicFwS2/src/../include/matrix.h ****     { _x %= t._x; _y %= t._y; _z %= t._z; _a %= t._a; return *this; }
 495:/home/tienluong/workspace/atlantis_fw/AsicFwS2/src/../include/matrix.h **** 
 496:/home/tienluong/workspace/atlantis_fw/AsicFwS2/src/../include/matrix.h ****     Vec4 & operator*=( const Vec4 & t )
 497:/home/tienluong/workspace/atlantis_fw/AsicFwS2/src/../include/matrix.h ****     { _x *= t._x; _y *= t._y; _z *= t._z; _a *= t._a; return *this; }
 498:/home/tienluong/workspace/atlantis_fw/AsicFwS2/src/../include/matrix.h **** 
 499:/home/tienluong/workspace/atlantis_fw/AsicFwS2/src/../include/matrix.h ****     Vec4 & operator+=( const Vec4 & t )
 500:/home/tienluong/workspace/atlantis_fw/AsicFwS2/src/../include/matrix.h ****     { _x += t._x; _y += t._y; _z += t._z; _a += t._a; return *this; }
 501:/home/tienluong/workspace/atlantis_fw/AsicFwS2/src/../include/matrix.h **** 
 502:/home/tienluong/workspace/atlantis_fw/AsicFwS2/src/../include/matrix.h ****     Vec4 & operator-=( const Vec4 & t )
 503:/home/tienluong/workspace/atlantis_fw/AsicFwS2/src/../include/matrix.h ****     { _x -= t._x; _y -= t._y; _z -= t._z; _a -= t._a; return *this; }
 504:/home/tienluong/workspace/atlantis_fw/AsicFwS2/src/../include/matrix.h **** 
 505:/home/tienluong/workspace/atlantis_fw/AsicFwS2/src/../include/matrix.h ****     Vec4 operator-() const { return { -_x, -_y, _z, _a}; }
 506:/home/tienluong/workspace/atlantis_fw/AsicFwS2/src/../include/matrix.h **** 
 507:/home/tienluong/workspace/atlantis_fw/AsicFwS2/src/../include/matrix.h ****     Vec4<bool> operator==( const Vec4 & t ) const { return { _x == t._x, _y == t._y, _z == t._z, _a
 508:/home/tienluong/workspace/atlantis_fw/AsicFwS2/src/../include/matrix.h ****     Vec4<bool> operator!=( const Vec4 & t ) const { return { _x != t._x, _y != t._y, _z != t._z, _a
 509:/home/tienluong/workspace/atlantis_fw/AsicFwS2/src/../include/matrix.h ****     Vec4<bool> operator>=( const Vec4 & t ) const { return { _x >= t._x, _y >= t._y, _z >= t._z, _a
 510:/home/tienluong/workspace/atlantis_fw/AsicFwS2/src/../include/matrix.h ****     Vec4<bool> operator>( const  Vec4 & t )  const { return { _x >  t._x, _y >  t._y, _z > t._z, _a
 511:/home/tienluong/workspace/atlantis_fw/AsicFwS2/src/../include/matrix.h ****     Vec4<bool> operator<=( const Vec4 & t ) const { return { _x <= t._x, _y <= t._y, _z <= t._z, _a
 512:/home/tienluong/workspace/atlantis_fw/AsicFwS2/src/../include/matrix.h ****     Vec4<bool> operator<( const  Vec4 & t )  const { return { _x <  t._x, _y <  t._y, _z <  t._z, _
 513:/home/tienluong/workspace/atlantis_fw/AsicFwS2/src/../include/matrix.h **** 
 514:/home/tienluong/workspace/atlantis_fw/AsicFwS2/src/../include/matrix.h ****     T min() const { return std::min( std::min( std::min( _x, _y ), _z ), _a); }
 515:/home/tienluong/workspace/atlantis_fw/AsicFwS2/src/../include/matrix.h ****     T max() const { return std::max( std::max( std::max( _x, _y ), _z ), _a); }
 516:/home/tienluong/workspace/atlantis_fw/AsicFwS2/src/../include/matrix.h ****     T sum() const { return _x + _y + _z + _a; }
 517:/home/tienluong/workspace/atlantis_fw/AsicFwS2/src/../include/matrix.h ****     T dot( const Vec4<T> & t ) const { return _x * t.x() + _y * t.y() + _z * t.z() + _a * t.a(); }
 518:/home/tienluong/workspace/atlantis_fw/AsicFwS2/src/../include/matrix.h **** 
 519:/home/tienluong/workspace/atlantis_fw/AsicFwS2/src/../include/matrix.h ****     Vec4 abs() const { return { std::abs( _x ), std::abs( _y ), std::abs( _z ), std::abs( _a ) }; }
 520:/home/tienluong/workspace/atlantis_fw/AsicFwS2/src/../include/matrix.h **** 
 521:/home/tienluong/workspace/atlantis_fw/AsicFwS2/src/../include/matrix.h ****     const T & x() const { return _x; }
 522:/home/tienluong/workspace/atlantis_fw/AsicFwS2/src/../include/matrix.h ****     const T & y() const { return _y; }
 523:/home/tienluong/workspace/atlantis_fw/AsicFwS2/src/../include/matrix.h ****     const T & z() const { return _z; }
 524:/home/tienluong/workspace/atlantis_fw/AsicFwS2/src/../include/matrix.h ****     const T & a() const { return _a; }
 525:/home/tienluong/workspace/atlantis_fw/AsicFwS2/src/../include/matrix.h **** 
 526:/home/tienluong/workspace/atlantis_fw/AsicFwS2/src/../include/matrix.h ****     void setX( T x ) { _x = x; }
 527:/home/tienluong/workspace/atlantis_fw/AsicFwS2/src/../include/matrix.h ****     void setY( T y ) { _y = y; }
 528:/home/tienluong/workspace/atlantis_fw/AsicFwS2/src/../include/matrix.h ****     void setZ( T z ) { _z = z; }
 529:/home/tienluong/workspace/atlantis_fw/AsicFwS2/src/../include/matrix.h **** 	void setA( T a ) { _a = a; }
 530:/home/tienluong/workspace/atlantis_fw/AsicFwS2/src/../include/matrix.h **** private:
 531:/home/tienluong/workspace/atlantis_fw/AsicFwS2/src/../include/matrix.h ****     T _x, _y, _z, _a;
 532:/home/tienluong/workspace/atlantis_fw/AsicFwS2/src/../include/matrix.h **** };
 533:/home/tienluong/workspace/atlantis_fw/AsicFwS2/src/../include/matrix.h **** 
 534:/home/tienluong/workspace/atlantis_fw/AsicFwS2/src/../include/matrix.h **** 
 535:/home/tienluong/workspace/atlantis_fw/AsicFwS2/src/../include/matrix.h **** using Vec2f = Vec2<float>;
 536:/home/tienluong/workspace/atlantis_fw/AsicFwS2/src/../include/matrix.h **** using Vec2d = Vec2<double>;
 537:/home/tienluong/workspace/atlantis_fw/AsicFwS2/src/../include/matrix.h **** using Vec3u16 = Vec3<std::uint16_t>;
 538:/home/tienluong/workspace/atlantis_fw/AsicFwS2/src/../include/matrix.h **** using Vec3f = Vec3<float>;
 539:/home/tienluong/workspace/atlantis_fw/AsicFwS2/src/../include/matrix.h **** using Vec3d = Vec3<double>;
 540:/home/tienluong/workspace/atlantis_fw/AsicFwS2/src/../include/matrix.h **** using Vec4f = Vec4<float>;
 541:/home/tienluong/workspace/atlantis_fw/AsicFwS2/src/../include/matrix.h **** using Vec4d = Vec4<double>;
 542:/home/tienluong/workspace/atlantis_fw/AsicFwS2/src/../include/matrix.h **** 
 543:/home/tienluong/workspace/atlantis_fw/AsicFwS2/src/../include/matrix.h **** 
 544:/home/tienluong/workspace/atlantis_fw/AsicFwS2/src/../include/matrix.h **** // -----------------------------------------------------------
 545:/home/tienluong/workspace/atlantis_fw/AsicFwS2/src/../include/matrix.h **** // 			Matrix class
 546:/home/tienluong/workspace/atlantis_fw/AsicFwS2/src/../include/matrix.h **** // -----------------------------------------------------------
 547:/home/tienluong/workspace/atlantis_fw/AsicFwS2/src/../include/matrix.h **** namespace Internal
 548:/home/tienluong/workspace/atlantis_fw/AsicFwS2/src/../include/matrix.h **** {
 549:/home/tienluong/workspace/atlantis_fw/AsicFwS2/src/../include/matrix.h **** 
 550:/home/tienluong/workspace/atlantis_fw/AsicFwS2/src/../include/matrix.h **** template<typename T, int R, int C>
 551:/home/tienluong/workspace/atlantis_fw/AsicFwS2/src/../include/matrix.h **** class MatrixStorage
 552:/home/tienluong/workspace/atlantis_fw/AsicFwS2/src/../include/matrix.h **** {
 553:/home/tienluong/workspace/atlantis_fw/AsicFwS2/src/../include/matrix.h **** public:
 554:/home/tienluong/workspace/atlantis_fw/AsicFwS2/src/../include/matrix.h ****     MatrixStorage() {}
 555:/home/tienluong/workspace/atlantis_fw/AsicFwS2/src/../include/matrix.h **** protected:
 556:/home/tienluong/workspace/atlantis_fw/AsicFwS2/src/../include/matrix.h ****     T _data[R * C];
 557:/home/tienluong/workspace/atlantis_fw/AsicFwS2/src/../include/matrix.h **** };
 558:/home/tienluong/workspace/atlantis_fw/AsicFwS2/src/../include/matrix.h **** 
 559:/home/tienluong/workspace/atlantis_fw/AsicFwS2/src/../include/matrix.h **** #if 0
 560:/home/tienluong/workspace/atlantis_fw/AsicFwS2/src/../include/matrix.h **** /// Some Matrix types require aligned storage due to SIMD acceleration
 561:/home/tienluong/workspace/atlantis_fw/AsicFwS2/src/../include/matrix.h **** template<>
 562:/home/tienluong/workspace/atlantis_fw/AsicFwS2/src/../include/matrix.h **** class MatrixStorage<float, 4, 4>
 563:/home/tienluong/workspace/atlantis_fw/AsicFwS2/src/../include/matrix.h **** {
 564:/home/tienluong/workspace/atlantis_fw/AsicFwS2/src/../include/matrix.h **** public:
 565:/home/tienluong/workspace/atlantis_fw/AsicFwS2/src/../include/matrix.h ****     MatrixStorage() {}
 566:/home/tienluong/workspace/atlantis_fw/AsicFwS2/src/../include/matrix.h **** protected:
 567:/home/tienluong/workspace/atlantis_fw/AsicFwS2/src/../include/matrix.h ****     alignas( 16 ) float _data[16];
 568:/home/tienluong/workspace/atlantis_fw/AsicFwS2/src/../include/matrix.h **** };
 569:/home/tienluong/workspace/atlantis_fw/AsicFwS2/src/../include/matrix.h **** #endif
 570:/home/tienluong/workspace/atlantis_fw/AsicFwS2/src/../include/matrix.h **** } // Internal namespace
 571:/home/tienluong/workspace/atlantis_fw/AsicFwS2/src/../include/matrix.h **** 
 572:/home/tienluong/workspace/atlantis_fw/AsicFwS2/src/../include/matrix.h **** template<typename T, int R, int C, bool RowMajor = true>
 573:/home/tienluong/workspace/atlantis_fw/AsicFwS2/src/../include/matrix.h **** class Matrix : public Internal::MatrixStorage<T, R, C>
 574:/home/tienluong/workspace/atlantis_fw/AsicFwS2/src/../include/matrix.h **** {
 575:/home/tienluong/workspace/atlantis_fw/AsicFwS2/src/../include/matrix.h ****     //static_assert( std::is_floating_point<T>::value, "Matrix template class requires floating poi
 576:/home/tienluong/workspace/atlantis_fw/AsicFwS2/src/../include/matrix.h ****     static constexpr int kSize = R * C;
 577:/home/tienluong/workspace/atlantis_fw/AsicFwS2/src/../include/matrix.h **** 
 578:/home/tienluong/workspace/atlantis_fw/AsicFwS2/src/../include/matrix.h ****     static inline constexpr int Idx( int row, int col )
 579:/home/tienluong/workspace/atlantis_fw/AsicFwS2/src/../include/matrix.h ****     {
 580:/home/tienluong/workspace/atlantis_fw/AsicFwS2/src/../include/matrix.h ****         return RowMajor ? row * C + col : col * R + row;
 581:/home/tienluong/workspace/atlantis_fw/AsicFwS2/src/../include/matrix.h ****     }
 582:/home/tienluong/workspace/atlantis_fw/AsicFwS2/src/../include/matrix.h **** 
 583:/home/tienluong/workspace/atlantis_fw/AsicFwS2/src/../include/matrix.h **** public:
 584:/home/tienluong/workspace/atlantis_fw/AsicFwS2/src/../include/matrix.h ****     using ScalarType = T;
 585:/home/tienluong/workspace/atlantis_fw/AsicFwS2/src/../include/matrix.h **** 
 586:/home/tienluong/workspace/atlantis_fw/AsicFwS2/src/../include/matrix.h ****     static constexpr int kRows = R;
 587:/home/tienluong/workspace/atlantis_fw/AsicFwS2/src/../include/matrix.h ****     static constexpr int kCols = C;
 588:/home/tienluong/workspace/atlantis_fw/AsicFwS2/src/../include/matrix.h **** 
 589:/home/tienluong/workspace/atlantis_fw/AsicFwS2/src/../include/matrix.h ****     Matrix() { }
 590:/home/tienluong/workspace/atlantis_fw/AsicFwS2/src/../include/matrix.h **** 
 591:/home/tienluong/workspace/atlantis_fw/AsicFwS2/src/../include/matrix.h ****     Matrix( const Matrix<T, R, C, true> & src ) { *this = src; }
 592:/home/tienluong/workspace/atlantis_fw/AsicFwS2/src/../include/matrix.h **** 
 593:/home/tienluong/workspace/atlantis_fw/AsicFwS2/src/../include/matrix.h ****     Matrix( const Matrix<T, R, C, false> & src ) { *this = src; }
 594:/home/tienluong/workspace/atlantis_fw/AsicFwS2/src/../include/matrix.h **** 
 595:/home/tienluong/workspace/atlantis_fw/AsicFwS2/src/../include/matrix.h ****     /// Input in row-major order.
 596:/home/tienluong/workspace/atlantis_fw/AsicFwS2/src/../include/matrix.h ****     Matrix( std::initializer_list<T> list ) { *this = list; }
 597:/home/tienluong/workspace/atlantis_fw/AsicFwS2/src/../include/matrix.h **** 
 598:/home/tienluong/workspace/atlantis_fw/AsicFwS2/src/../include/matrix.h ****     /// Input in row-major order.
 599:/home/tienluong/workspace/atlantis_fw/AsicFwS2/src/../include/matrix.h ****     explicit Matrix( const std::vector<T> & data ) { *this = data; }
 600:/home/tienluong/workspace/atlantis_fw/AsicFwS2/src/../include/matrix.h **** 
 601:/home/tienluong/workspace/atlantis_fw/AsicFwS2/src/../include/matrix.h ****     /// Input in row-major order.
 602:/home/tienluong/workspace/atlantis_fw/AsicFwS2/src/../include/matrix.h ****     explicit Matrix( const T * ptr )
 603:/home/tienluong/workspace/atlantis_fw/AsicFwS2/src/../include/matrix.h ****     {
 604:/home/tienluong/workspace/atlantis_fw/AsicFwS2/src/../include/matrix.h ****         for( int i = 0; i < R; ++i )
 605:/home/tienluong/workspace/atlantis_fw/AsicFwS2/src/../include/matrix.h ****         {
 606:/home/tienluong/workspace/atlantis_fw/AsicFwS2/src/../include/matrix.h ****             for( int j = 0; j < C; ++j )
 607:/home/tienluong/workspace/atlantis_fw/AsicFwS2/src/../include/matrix.h ****             { this->_data[Idx( i, j )] = ptr[i * C + j]; }
 608:/home/tienluong/workspace/atlantis_fw/AsicFwS2/src/../include/matrix.h ****         }
 609:/home/tienluong/workspace/atlantis_fw/AsicFwS2/src/../include/matrix.h ****     }
 610:/home/tienluong/workspace/atlantis_fw/AsicFwS2/src/../include/matrix.h **** 
 611:/home/tienluong/workspace/atlantis_fw/AsicFwS2/src/../include/matrix.h ****     // generic size/type converting constructor
 612:/home/tienluong/workspace/atlantis_fw/AsicFwS2/src/../include/matrix.h ****     // performs matrix truncation/expansion if necessary
 613:/home/tienluong/workspace/atlantis_fw/AsicFwS2/src/../include/matrix.h ****     template<typename U, int M, int N, bool D>
 614:/home/tienluong/workspace/atlantis_fw/AsicFwS2/src/../include/matrix.h ****     explicit Matrix( const Matrix<U, M, N, D> & src )
 615:/home/tienluong/workspace/atlantis_fw/AsicFwS2/src/../include/matrix.h ****     {
 616:/home/tienluong/workspace/atlantis_fw/AsicFwS2/src/../include/matrix.h ****         constexpr int kMinRow = M < R ? M : R;
 617:/home/tienluong/workspace/atlantis_fw/AsicFwS2/src/../include/matrix.h ****         constexpr int kMinCol = N < C ? N : C;
 618:/home/tienluong/workspace/atlantis_fw/AsicFwS2/src/../include/matrix.h ****         for( int i = 0; i < kMinRow; ++i )
 619:/home/tienluong/workspace/atlantis_fw/AsicFwS2/src/../include/matrix.h ****         {
 620:/home/tienluong/workspace/atlantis_fw/AsicFwS2/src/../include/matrix.h ****             for( int j = 0; j < kMinCol; ++j )
 621:/home/tienluong/workspace/atlantis_fw/AsicFwS2/src/../include/matrix.h ****             { this->_data[Idx( i, j )] = static_cast<T>( src( i, j ) ); }
 622:/home/tienluong/workspace/atlantis_fw/AsicFwS2/src/../include/matrix.h ****             for( int j = kMinCol; j < C; ++j )
 623:/home/tienluong/workspace/atlantis_fw/AsicFwS2/src/../include/matrix.h ****             { this->_data[Idx( i, j )] = i == j ? T{1} : T{0}; }
 624:/home/tienluong/workspace/atlantis_fw/AsicFwS2/src/../include/matrix.h ****         }
 625:/home/tienluong/workspace/atlantis_fw/AsicFwS2/src/../include/matrix.h ****         for( int i = kMinRow; i < R; ++i )
 626:/home/tienluong/workspace/atlantis_fw/AsicFwS2/src/../include/matrix.h ****         {
 627:/home/tienluong/workspace/atlantis_fw/AsicFwS2/src/../include/matrix.h ****             for( int j = 0; j < C; ++j )
 628:/home/tienluong/workspace/atlantis_fw/AsicFwS2/src/../include/matrix.h ****             { this->_data[Idx( i, j )] = i == j ? T{1} : T{0}; }
 629:/home/tienluong/workspace/atlantis_fw/AsicFwS2/src/../include/matrix.h ****         }
 630:/home/tienluong/workspace/atlantis_fw/AsicFwS2/src/../include/matrix.h ****     }
 631:/home/tienluong/workspace/atlantis_fw/AsicFwS2/src/../include/matrix.h **** 
 632:/home/tienluong/workspace/atlantis_fw/AsicFwS2/src/../include/matrix.h ****     template<int M, int N, bool D>
 633:/home/tienluong/workspace/atlantis_fw/AsicFwS2/src/../include/matrix.h ****     Matrix & operator=( const Matrix<T, M, N, D> & src )
 634:/home/tienluong/workspace/atlantis_fw/AsicFwS2/src/../include/matrix.h ****     {
 635:/home/tienluong/workspace/atlantis_fw/AsicFwS2/src/../include/matrix.h ****         static_assert( R == M && C == N, "matrix size mismatch!" );
 636:/home/tienluong/workspace/atlantis_fw/AsicFwS2/src/../include/matrix.h ****         if( RowMajor == D )
 637:/home/tienluong/workspace/atlantis_fw/AsicFwS2/src/../include/matrix.h ****         {
 638:/home/tienluong/workspace/atlantis_fw/AsicFwS2/src/../include/matrix.h ****             // same element ordering, just copy the elements
 639:/home/tienluong/workspace/atlantis_fw/AsicFwS2/src/../include/matrix.h ****             const T * src_ptr = src.data();
 640:/home/tienluong/workspace/atlantis_fw/AsicFwS2/src/../include/matrix.h ****             for( int i = 0; i < kSize; ++i ) { this->_data[i] = src_ptr[i]; }
 641:/home/tienluong/workspace/atlantis_fw/AsicFwS2/src/../include/matrix.h ****         }
 642:/home/tienluong/workspace/atlantis_fw/AsicFwS2/src/../include/matrix.h ****         else
 643:/home/tienluong/workspace/atlantis_fw/AsicFwS2/src/../include/matrix.h ****         {
 644:/home/tienluong/workspace/atlantis_fw/AsicFwS2/src/../include/matrix.h ****             // different element ordering requires a transpose
 645:/home/tienluong/workspace/atlantis_fw/AsicFwS2/src/../include/matrix.h ****             for( int i = 0; i < R; ++i )
 646:/home/tienluong/workspace/atlantis_fw/AsicFwS2/src/../include/matrix.h ****             {
 647:/home/tienluong/workspace/atlantis_fw/AsicFwS2/src/../include/matrix.h ****                 for( int j = 0; j < C; ++j )
 648:/home/tienluong/workspace/atlantis_fw/AsicFwS2/src/../include/matrix.h ****                 { this->_data[Idx( i, j )] = src( i, j ); }
 649:/home/tienluong/workspace/atlantis_fw/AsicFwS2/src/../include/matrix.h ****             }
 650:/home/tienluong/workspace/atlantis_fw/AsicFwS2/src/../include/matrix.h ****         }
 651:/home/tienluong/workspace/atlantis_fw/AsicFwS2/src/../include/matrix.h ****         return *this;
 652:/home/tienluong/workspace/atlantis_fw/AsicFwS2/src/../include/matrix.h ****     }
 653:/home/tienluong/workspace/atlantis_fw/AsicFwS2/src/../include/matrix.h **** 
 654:/home/tienluong/workspace/atlantis_fw/AsicFwS2/src/../include/matrix.h ****     /// Input in row-major order.
 655:/home/tienluong/workspace/atlantis_fw/AsicFwS2/src/../include/matrix.h ****     Matrix & operator=( const std::vector<T> & src )
 656:/home/tienluong/workspace/atlantis_fw/AsicFwS2/src/../include/matrix.h ****     {
 657:/home/tienluong/workspace/atlantis_fw/AsicFwS2/src/../include/matrix.h ****         //if( src.size() != kSize )
 658:/home/tienluong/workspace/atlantis_fw/AsicFwS2/src/../include/matrix.h ****         //{ LT_THROW( "source data and matrix size mismatch!" ); }
 659:/home/tienluong/workspace/atlantis_fw/AsicFwS2/src/../include/matrix.h **** 
 660:/home/tienluong/workspace/atlantis_fw/AsicFwS2/src/../include/matrix.h ****         auto it = src.begin();
 661:/home/tienluong/workspace/atlantis_fw/AsicFwS2/src/../include/matrix.h ****         for( int i = 0; i < R; ++i )
 662:/home/tienluong/workspace/atlantis_fw/AsicFwS2/src/../include/matrix.h ****         {
 663:/home/tienluong/workspace/atlantis_fw/AsicFwS2/src/../include/matrix.h ****             for( int j = 0; j < C; ++j, ++it )
 664:/home/tienluong/workspace/atlantis_fw/AsicFwS2/src/../include/matrix.h ****             { this->_data[Idx( i, j )] = *it; }
 665:/home/tienluong/workspace/atlantis_fw/AsicFwS2/src/../include/matrix.h ****         }
 666:/home/tienluong/workspace/atlantis_fw/AsicFwS2/src/../include/matrix.h **** 
 667:/home/tienluong/workspace/atlantis_fw/AsicFwS2/src/../include/matrix.h ****         return *this;
 668:/home/tienluong/workspace/atlantis_fw/AsicFwS2/src/../include/matrix.h ****     }
 669:/home/tienluong/workspace/atlantis_fw/AsicFwS2/src/../include/matrix.h **** 
 670:/home/tienluong/workspace/atlantis_fw/AsicFwS2/src/../include/matrix.h ****     /// Input in row-major order.
 671:/home/tienluong/workspace/atlantis_fw/AsicFwS2/src/../include/matrix.h ****     Matrix & operator=( const std::initializer_list<T> src )
 672:/home/tienluong/workspace/atlantis_fw/AsicFwS2/src/../include/matrix.h ****     {
 673:/home/tienluong/workspace/atlantis_fw/AsicFwS2/src/../include/matrix.h ****         //if( src.size() != kSize )
 674:/home/tienluong/workspace/atlantis_fw/AsicFwS2/src/../include/matrix.h ****         //{ LT_THROW( "source data and matrix size mismatch!" ); }
 675:/home/tienluong/workspace/atlantis_fw/AsicFwS2/src/../include/matrix.h **** 
 676:/home/tienluong/workspace/atlantis_fw/AsicFwS2/src/../include/matrix.h ****         auto it = src.begin();
 677:/home/tienluong/workspace/atlantis_fw/AsicFwS2/src/../include/matrix.h ****         for( int i = 0; i < R; ++i )
 678:/home/tienluong/workspace/atlantis_fw/AsicFwS2/src/../include/matrix.h ****         {
 679:/home/tienluong/workspace/atlantis_fw/AsicFwS2/src/../include/matrix.h ****             for( int j = 0; j < C; ++j, ++it )
 680:/home/tienluong/workspace/atlantis_fw/AsicFwS2/src/../include/matrix.h ****             { this->_data[Idx( i, j )] = *it; }
 681:/home/tienluong/workspace/atlantis_fw/AsicFwS2/src/../include/matrix.h ****         }
 682:/home/tienluong/workspace/atlantis_fw/AsicFwS2/src/../include/matrix.h **** 
 683:/home/tienluong/workspace/atlantis_fw/AsicFwS2/src/../include/matrix.h ****         return *this;
 684:/home/tienluong/workspace/atlantis_fw/AsicFwS2/src/../include/matrix.h ****     }
 685:/home/tienluong/workspace/atlantis_fw/AsicFwS2/src/../include/matrix.h **** 
 686:/home/tienluong/workspace/atlantis_fw/AsicFwS2/src/../include/matrix.h ****     Matrix & operator=( T scalar )
 687:/home/tienluong/workspace/atlantis_fw/AsicFwS2/src/../include/matrix.h ****     {
 688:/home/tienluong/workspace/atlantis_fw/AsicFwS2/src/../include/matrix.h ****         for( int i = 0; i < kSize; ++i ) { this->_data[i] = scalar; }
 689:/home/tienluong/workspace/atlantis_fw/AsicFwS2/src/../include/matrix.h ****         return *this;
 690:/home/tienluong/workspace/atlantis_fw/AsicFwS2/src/../include/matrix.h ****     }
 691:/home/tienluong/workspace/atlantis_fw/AsicFwS2/src/../include/matrix.h **** 
 692:/home/tienluong/workspace/atlantis_fw/AsicFwS2/src/../include/matrix.h ****     template<typename U, int M, int N, bool D>
 693:/home/tienluong/workspace/atlantis_fw/AsicFwS2/src/../include/matrix.h ****     bool operator==( const Matrix<U, M, N, D> & mat ) const
 694:/home/tienluong/workspace/atlantis_fw/AsicFwS2/src/../include/matrix.h ****     {
 695:/home/tienluong/workspace/atlantis_fw/AsicFwS2/src/../include/matrix.h ****         static_assert( R == M && C == N, "matrix size mismatch!" );
 696:/home/tienluong/workspace/atlantis_fw/AsicFwS2/src/../include/matrix.h ****         for( int i = 0; i < R; ++i )
 697:/home/tienluong/workspace/atlantis_fw/AsicFwS2/src/../include/matrix.h ****         {
 698:/home/tienluong/workspace/atlantis_fw/AsicFwS2/src/../include/matrix.h ****             for( int j = 0; j < C; ++j )
 699:/home/tienluong/workspace/atlantis_fw/AsicFwS2/src/../include/matrix.h ****             { if( this->_data[Idx( i, j )] != mat( i, j ) ) { return false; } }
 700:/home/tienluong/workspace/atlantis_fw/AsicFwS2/src/../include/matrix.h ****         }
 701:/home/tienluong/workspace/atlantis_fw/AsicFwS2/src/../include/matrix.h ****         return true;
 702:/home/tienluong/workspace/atlantis_fw/AsicFwS2/src/../include/matrix.h ****     }
 703:/home/tienluong/workspace/atlantis_fw/AsicFwS2/src/../include/matrix.h **** 
 704:/home/tienluong/workspace/atlantis_fw/AsicFwS2/src/../include/matrix.h ****     template<typename U, int M, int N, bool D>
 705:/home/tienluong/workspace/atlantis_fw/AsicFwS2/src/../include/matrix.h ****     bool operator!=( const Matrix<U, M, N, D> & mat ) const
 706:/home/tienluong/workspace/atlantis_fw/AsicFwS2/src/../include/matrix.h ****     { return !( *this == mat ); }
 707:/home/tienluong/workspace/atlantis_fw/AsicFwS2/src/../include/matrix.h **** 
 708:/home/tienluong/workspace/atlantis_fw/AsicFwS2/src/../include/matrix.h ****     const T * data() const { return this->_data; }
 709:/home/tienluong/workspace/atlantis_fw/AsicFwS2/src/../include/matrix.h ****     T * data() { return this->_data; }
 710:/home/tienluong/workspace/atlantis_fw/AsicFwS2/src/../include/matrix.h **** 
 711:/home/tienluong/workspace/atlantis_fw/AsicFwS2/src/../include/matrix.h ****     T & operator()( int r, int c ) { return this->_data[Idx( r, c )]; }
 712:/home/tienluong/workspace/atlantis_fw/AsicFwS2/src/../include/matrix.h ****     const T & operator()( int r, int c ) const { return this->_data[Idx( r, c )]; }
 713:/home/tienluong/workspace/atlantis_fw/AsicFwS2/src/../include/matrix.h **** 
 714:/home/tienluong/workspace/atlantis_fw/AsicFwS2/src/../include/matrix.h ****     template<int M, int N, bool D>
 715:/home/tienluong/workspace/atlantis_fw/AsicFwS2/src/../include/matrix.h ****     Matrix<T, R, N> operator*( const Matrix<T, M, N, D> & mat ) const
 716:/home/tienluong/workspace/atlantis_fw/AsicFwS2/src/../include/matrix.h ****     {
 717:/home/tienluong/workspace/atlantis_fw/AsicFwS2/src/../include/matrix.h ****         static_assert( C == M, "invalid matrix product!" );
 718:/home/tienluong/workspace/atlantis_fw/AsicFwS2/src/../include/matrix.h ****         Matrix<T, R, N> rval;
 719:/home/tienluong/workspace/atlantis_fw/AsicFwS2/src/../include/matrix.h **** 
 720:/home/tienluong/workspace/atlantis_fw/AsicFwS2/src/../include/matrix.h ****         // XXX: is this code actually more SIMD-friendly than a naive implementation?
 721:/home/tienluong/workspace/atlantis_fw/AsicFwS2/src/../include/matrix.h ****         for( int i = 0; i < R; ++i )
 722:/home/tienluong/workspace/atlantis_fw/AsicFwS2/src/../include/matrix.h ****         {
 723:/home/tienluong/workspace/atlantis_fw/AsicFwS2/src/../include/matrix.h ****             // set 1st row
 724:/home/tienluong/workspace/atlantis_fw/AsicFwS2/src/../include/matrix.h ****             for( int j = 0; j < N; ++j )
 725:/home/tienluong/workspace/atlantis_fw/AsicFwS2/src/../include/matrix.h ****             { rval( i, j ) = this->_data[Idx( i, 0 )] * mat( 0, j ); }
 726:/home/tienluong/workspace/atlantis_fw/AsicFwS2/src/../include/matrix.h ****             // accum n-th row
 727:/home/tienluong/workspace/atlantis_fw/AsicFwS2/src/../include/matrix.h ****             for( int k = 1; k < M; ++k )
 728:/home/tienluong/workspace/atlantis_fw/AsicFwS2/src/../include/matrix.h ****             {
 729:/home/tienluong/workspace/atlantis_fw/AsicFwS2/src/../include/matrix.h ****                 for( int j = 0; j < N; ++j )
 730:/home/tienluong/workspace/atlantis_fw/AsicFwS2/src/../include/matrix.h ****                 { rval( i, j ) += this->_data[Idx( i, k )] * mat( k, j ); }
 731:/home/tienluong/workspace/atlantis_fw/AsicFwS2/src/../include/matrix.h ****             }
 732:/home/tienluong/workspace/atlantis_fw/AsicFwS2/src/../include/matrix.h ****         }
 733:/home/tienluong/workspace/atlantis_fw/AsicFwS2/src/../include/matrix.h ****         return rval;
 734:/home/tienluong/workspace/atlantis_fw/AsicFwS2/src/../include/matrix.h ****     }
 735:/home/tienluong/workspace/atlantis_fw/AsicFwS2/src/../include/matrix.h **** 
 736:/home/tienluong/workspace/atlantis_fw/AsicFwS2/src/../include/matrix.h ****     template<int M, int N, bool D>
 737:/home/tienluong/workspace/atlantis_fw/AsicFwS2/src/../include/matrix.h ****     Matrix & operator *=( const Matrix<T, M, N, D> & mat )
 738:/home/tienluong/workspace/atlantis_fw/AsicFwS2/src/../include/matrix.h ****     {
 739:/home/tienluong/workspace/atlantis_fw/AsicFwS2/src/../include/matrix.h ****         *this = *this * mat;
 740:/home/tienluong/workspace/atlantis_fw/AsicFwS2/src/../include/matrix.h ****         return *this;
 741:/home/tienluong/workspace/atlantis_fw/AsicFwS2/src/../include/matrix.h ****     }
 742:/home/tienluong/workspace/atlantis_fw/AsicFwS2/src/../include/matrix.h **** 
 743:/home/tienluong/workspace/atlantis_fw/AsicFwS2/src/../include/matrix.h ****     template<int M, int N, bool D>
 744:/home/tienluong/workspace/atlantis_fw/AsicFwS2/src/../include/matrix.h ****     Matrix & operator +=( const Matrix<T, M, N, D> & mat )
 745:/home/tienluong/workspace/atlantis_fw/AsicFwS2/src/../include/matrix.h ****     {
 746:/home/tienluong/workspace/atlantis_fw/AsicFwS2/src/../include/matrix.h ****         static_assert( R == M && C == N, "matrix size mismatch!" );
 747:/home/tienluong/workspace/atlantis_fw/AsicFwS2/src/../include/matrix.h ****         for( int i = 0; i < R; ++i )
 748:/home/tienluong/workspace/atlantis_fw/AsicFwS2/src/../include/matrix.h ****         {
 749:/home/tienluong/workspace/atlantis_fw/AsicFwS2/src/../include/matrix.h ****             for( int j = 0; j < C; ++j )
 750:/home/tienluong/workspace/atlantis_fw/AsicFwS2/src/../include/matrix.h ****             { this->_data[Idx( i, j )] += mat( i, j ); }
 751:/home/tienluong/workspace/atlantis_fw/AsicFwS2/src/../include/matrix.h ****         }
 752:/home/tienluong/workspace/atlantis_fw/AsicFwS2/src/../include/matrix.h ****         return *this;
 753:/home/tienluong/workspace/atlantis_fw/AsicFwS2/src/../include/matrix.h ****     }
 754:/home/tienluong/workspace/atlantis_fw/AsicFwS2/src/../include/matrix.h **** 
 755:/home/tienluong/workspace/atlantis_fw/AsicFwS2/src/../include/matrix.h ****     template<int M, int N, bool D>
 756:/home/tienluong/workspace/atlantis_fw/AsicFwS2/src/../include/matrix.h ****     Matrix & operator -=( const Matrix<T, M, N, D> & mat )
 757:/home/tienluong/workspace/atlantis_fw/AsicFwS2/src/../include/matrix.h ****     {
 758:/home/tienluong/workspace/atlantis_fw/AsicFwS2/src/../include/matrix.h ****         static_assert( R == M && C == N, "matrix size mismatch!" );
 759:/home/tienluong/workspace/atlantis_fw/AsicFwS2/src/../include/matrix.h ****         for( int i = 0; i < R; ++i )
 760:/home/tienluong/workspace/atlantis_fw/AsicFwS2/src/../include/matrix.h ****         {
 761:/home/tienluong/workspace/atlantis_fw/AsicFwS2/src/../include/matrix.h ****             for( int j = 0; j < C; ++j )
 762:/home/tienluong/workspace/atlantis_fw/AsicFwS2/src/../include/matrix.h ****             { this->_data[Idx( i, j )] -= mat( i, j ); }
 763:/home/tienluong/workspace/atlantis_fw/AsicFwS2/src/../include/matrix.h ****         }
 764:/home/tienluong/workspace/atlantis_fw/AsicFwS2/src/../include/matrix.h ****         return *this;
 765:/home/tienluong/workspace/atlantis_fw/AsicFwS2/src/../include/matrix.h ****     }
 766:/home/tienluong/workspace/atlantis_fw/AsicFwS2/src/../include/matrix.h **** 
 767:/home/tienluong/workspace/atlantis_fw/AsicFwS2/src/../include/matrix.h ****     Matrix & operator *=( T scalar )
 768:/home/tienluong/workspace/atlantis_fw/AsicFwS2/src/../include/matrix.h ****     {
 769:/home/tienluong/workspace/atlantis_fw/AsicFwS2/src/../include/matrix.h ****         for( int i = 0; i < kSize; ++i ) { this->_data[i] *= scalar; }
 770:/home/tienluong/workspace/atlantis_fw/AsicFwS2/src/../include/matrix.h ****         return *this;
 771:/home/tienluong/workspace/atlantis_fw/AsicFwS2/src/../include/matrix.h ****     }
 772:/home/tienluong/workspace/atlantis_fw/AsicFwS2/src/../include/matrix.h **** 
 773:/home/tienluong/workspace/atlantis_fw/AsicFwS2/src/../include/matrix.h ****     Matrix & operator +=( T scalar )
 774:/home/tienluong/workspace/atlantis_fw/AsicFwS2/src/../include/matrix.h ****     {
 775:/home/tienluong/workspace/atlantis_fw/AsicFwS2/src/../include/matrix.h ****         for( int i = 0; i < kSize; ++i ) { this->_data[i] += scalar; }
 776:/home/tienluong/workspace/atlantis_fw/AsicFwS2/src/../include/matrix.h ****         return *this;
 777:/home/tienluong/workspace/atlantis_fw/AsicFwS2/src/../include/matrix.h ****     }
 778:/home/tienluong/workspace/atlantis_fw/AsicFwS2/src/../include/matrix.h **** 
 779:/home/tienluong/workspace/atlantis_fw/AsicFwS2/src/../include/matrix.h ****     Matrix & operator /=( T scalar )
 780:/home/tienluong/workspace/atlantis_fw/AsicFwS2/src/../include/matrix.h ****     {
 781:/home/tienluong/workspace/atlantis_fw/AsicFwS2/src/../include/matrix.h ****         scalar = 1.0f / scalar;
 782:/home/tienluong/workspace/atlantis_fw/AsicFwS2/src/../include/matrix.h ****         for( int i = 0; i < kSize; ++i ) { this->_data[i] *= scalar; }
 783:/home/tienluong/workspace/atlantis_fw/AsicFwS2/src/../include/matrix.h ****         return *this;
 784:/home/tienluong/workspace/atlantis_fw/AsicFwS2/src/../include/matrix.h ****     }
 785:/home/tienluong/workspace/atlantis_fw/AsicFwS2/src/../include/matrix.h **** 
 786:/home/tienluong/workspace/atlantis_fw/AsicFwS2/src/../include/matrix.h ****     Matrix & operator -=( T scalar )
 787:/home/tienluong/workspace/atlantis_fw/AsicFwS2/src/../include/matrix.h ****     {
 788:/home/tienluong/workspace/atlantis_fw/AsicFwS2/src/../include/matrix.h ****         for( int i = 0; i < kSize; ++i ) { this->_data[i] -= scalar; }
 789:/home/tienluong/workspace/atlantis_fw/AsicFwS2/src/../include/matrix.h ****         return *this;
 790:/home/tienluong/workspace/atlantis_fw/AsicFwS2/src/../include/matrix.h ****     }
 791:/home/tienluong/workspace/atlantis_fw/AsicFwS2/src/../include/matrix.h **** 
 792:/home/tienluong/workspace/atlantis_fw/AsicFwS2/src/../include/matrix.h ****     template<int M, int N, bool D>
 793:/home/tienluong/workspace/atlantis_fw/AsicFwS2/src/../include/matrix.h ****     Matrix operator+( const Matrix<T, M, N, D> & mat ) const
 794:/home/tienluong/workspace/atlantis_fw/AsicFwS2/src/../include/matrix.h ****     { Matrix rval{*this}; rval += mat; return rval; }
 795:/home/tienluong/workspace/atlantis_fw/AsicFwS2/src/../include/matrix.h **** 
 796:/home/tienluong/workspace/atlantis_fw/AsicFwS2/src/../include/matrix.h ****     template<int M, int N, bool D>
 797:/home/tienluong/workspace/atlantis_fw/AsicFwS2/src/../include/matrix.h ****     Matrix operator-( const Matrix<T, M, N, D> & mat ) const
 798:/home/tienluong/workspace/atlantis_fw/AsicFwS2/src/../include/matrix.h ****     { Matrix rval{*this}; rval -= mat; return rval; }
 799:/home/tienluong/workspace/atlantis_fw/AsicFwS2/src/../include/matrix.h **** 
 800:/home/tienluong/workspace/atlantis_fw/AsicFwS2/src/../include/matrix.h ****     Matrix operator*( T scalar ) const
 801:/home/tienluong/workspace/atlantis_fw/AsicFwS2/src/../include/matrix.h ****     { Matrix rval{*this}; rval *= scalar; return rval; }
 802:/home/tienluong/workspace/atlantis_fw/AsicFwS2/src/../include/matrix.h **** 
 803:/home/tienluong/workspace/atlantis_fw/AsicFwS2/src/../include/matrix.h ****     Matrix operator+( T scalar ) const
 804:/home/tienluong/workspace/atlantis_fw/AsicFwS2/src/../include/matrix.h ****     { Matrix rval{*this}; rval += scalar; return rval; }
 805:/home/tienluong/workspace/atlantis_fw/AsicFwS2/src/../include/matrix.h **** 
 806:/home/tienluong/workspace/atlantis_fw/AsicFwS2/src/../include/matrix.h ****     Matrix operator-( T scalar ) const
 807:/home/tienluong/workspace/atlantis_fw/AsicFwS2/src/../include/matrix.h ****     { Matrix rval{*this}; rval -= scalar; return rval; }
 808:/home/tienluong/workspace/atlantis_fw/AsicFwS2/src/../include/matrix.h **** 
 809:/home/tienluong/workspace/atlantis_fw/AsicFwS2/src/../include/matrix.h ****     Matrix operator/( T scalar ) const
 810:/home/tienluong/workspace/atlantis_fw/AsicFwS2/src/../include/matrix.h ****     { Matrix rval{*this}; rval /= scalar; return rval; }
 811:/home/tienluong/workspace/atlantis_fw/AsicFwS2/src/../include/matrix.h **** 
 812:/home/tienluong/workspace/atlantis_fw/AsicFwS2/src/../include/matrix.h ****     Matrix<T, 1, C> row( int i ) const
 813:/home/tienluong/workspace/atlantis_fw/AsicFwS2/src/../include/matrix.h ****     {
 814:/home/tienluong/workspace/atlantis_fw/AsicFwS2/src/../include/matrix.h ****         Matrix<T, 1, C> rval;
 815:/home/tienluong/workspace/atlantis_fw/AsicFwS2/src/../include/matrix.h ****         for( int j = 0; j < C; ++j ) { rval( 0, j ) = this->_data[Idx( i, j )]; }
 816:/home/tienluong/workspace/atlantis_fw/AsicFwS2/src/../include/matrix.h ****         return rval;
 817:/home/tienluong/workspace/atlantis_fw/AsicFwS2/src/../include/matrix.h ****     }
 818:/home/tienluong/workspace/atlantis_fw/AsicFwS2/src/../include/matrix.h **** 
 819:/home/tienluong/workspace/atlantis_fw/AsicFwS2/src/../include/matrix.h ****     Matrix<T, 1, C> column( int i ) const
 820:/home/tienluong/workspace/atlantis_fw/AsicFwS2/src/../include/matrix.h ****     {
 821:/home/tienluong/workspace/atlantis_fw/AsicFwS2/src/../include/matrix.h ****         Matrix<T, R, 1> rval;
 822:/home/tienluong/workspace/atlantis_fw/AsicFwS2/src/../include/matrix.h ****         for( int j = 0; j < R; ++j ) { rval( j, 0 ) = this->_data[Idx( j, i )]; }
 823:/home/tienluong/workspace/atlantis_fw/AsicFwS2/src/../include/matrix.h ****         return rval;
 824:/home/tienluong/workspace/atlantis_fw/AsicFwS2/src/../include/matrix.h ****     }
 825:/home/tienluong/workspace/atlantis_fw/AsicFwS2/src/../include/matrix.h **** 
 826:/home/tienluong/workspace/atlantis_fw/AsicFwS2/src/../include/matrix.h ****     Matrix & swapRow( int i, int j )
 827:/home/tienluong/workspace/atlantis_fw/AsicFwS2/src/../include/matrix.h ****     {
 828:/home/tienluong/workspace/atlantis_fw/AsicFwS2/src/../include/matrix.h ****         using std::swap;
 829:/home/tienluong/workspace/atlantis_fw/AsicFwS2/src/../include/matrix.h ****         for( int k = 0; k < C; ++k )
 830:/home/tienluong/workspace/atlantis_fw/AsicFwS2/src/../include/matrix.h ****         { swap( this->_data[Idx( i, k )], this->_data[Idx( j, k )] ); }
 831:/home/tienluong/workspace/atlantis_fw/AsicFwS2/src/../include/matrix.h ****         return *this;
 832:/home/tienluong/workspace/atlantis_fw/AsicFwS2/src/../include/matrix.h ****     }
 833:/home/tienluong/workspace/atlantis_fw/AsicFwS2/src/../include/matrix.h **** 
 834:/home/tienluong/workspace/atlantis_fw/AsicFwS2/src/../include/matrix.h ****     Matrix & swapColumn( int i, int j )
 835:/home/tienluong/workspace/atlantis_fw/AsicFwS2/src/../include/matrix.h ****     {
 836:/home/tienluong/workspace/atlantis_fw/AsicFwS2/src/../include/matrix.h ****         using std::swap;
 837:/home/tienluong/workspace/atlantis_fw/AsicFwS2/src/../include/matrix.h ****         for( int k = 0; k < R; ++k )
 838:/home/tienluong/workspace/atlantis_fw/AsicFwS2/src/../include/matrix.h ****         { swap( this->_data[Idx( k, i )], this->_data[Idx( k, j )] ); }
 839:/home/tienluong/workspace/atlantis_fw/AsicFwS2/src/../include/matrix.h ****         return *this;
 840:/home/tienluong/workspace/atlantis_fw/AsicFwS2/src/../include/matrix.h ****     }
 841:/home/tienluong/workspace/atlantis_fw/AsicFwS2/src/../include/matrix.h **** 
 842:/home/tienluong/workspace/atlantis_fw/AsicFwS2/src/../include/matrix.h ****     T sum() const
 843:/home/tienluong/workspace/atlantis_fw/AsicFwS2/src/../include/matrix.h ****     {
 844:/home/tienluong/workspace/atlantis_fw/AsicFwS2/src/../include/matrix.h ****         T sum = this->_data[0];
 845:/home/tienluong/workspace/atlantis_fw/AsicFwS2/src/../include/matrix.h ****         for( int j = 1; j < kSize; ++j ) { sum += this->_data[j]; }
 846:/home/tienluong/workspace/atlantis_fw/AsicFwS2/src/../include/matrix.h ****         return sum;
 847:/home/tienluong/workspace/atlantis_fw/AsicFwS2/src/../include/matrix.h ****     }
 848:/home/tienluong/workspace/atlantis_fw/AsicFwS2/src/../include/matrix.h **** 
 849:/home/tienluong/workspace/atlantis_fw/AsicFwS2/src/../include/matrix.h ****     Matrix & setIdentity()
 850:/home/tienluong/workspace/atlantis_fw/AsicFwS2/src/../include/matrix.h ****     {
 851:/home/tienluong/workspace/atlantis_fw/AsicFwS2/src/../include/matrix.h ****         for( int i = 0; i < R; ++i )
 852:/home/tienluong/workspace/atlantis_fw/AsicFwS2/src/../include/matrix.h ****         {
 853:/home/tienluong/workspace/atlantis_fw/AsicFwS2/src/../include/matrix.h ****             for( int j = 0; j < C; ++j )
 854:/home/tienluong/workspace/atlantis_fw/AsicFwS2/src/../include/matrix.h ****             { this->_data[Idx( i, j )] = i == j ? T{1} : T{0}; }
 855:/home/tienluong/workspace/atlantis_fw/AsicFwS2/src/../include/matrix.h ****         }
 856:/home/tienluong/workspace/atlantis_fw/AsicFwS2/src/../include/matrix.h ****         return *this;
 857:/home/tienluong/workspace/atlantis_fw/AsicFwS2/src/../include/matrix.h ****     }
 858:/home/tienluong/workspace/atlantis_fw/AsicFwS2/src/../include/matrix.h **** 
 859:/home/tienluong/workspace/atlantis_fw/AsicFwS2/src/../include/matrix.h ****     const Matrix < T, C, R, !RowMajor > & transpose() const
 860:/home/tienluong/workspace/atlantis_fw/AsicFwS2/src/../include/matrix.h ****     {
 861:/home/tienluong/workspace/atlantis_fw/AsicFwS2/src/../include/matrix.h ****         return *reinterpret_cast < const Matrix < T, C, R, !RowMajor > * >( this );
 862:/home/tienluong/workspace/atlantis_fw/AsicFwS2/src/../include/matrix.h ****     }
 863:/home/tienluong/workspace/atlantis_fw/AsicFwS2/src/../include/matrix.h **** 
 864:/home/tienluong/workspace/atlantis_fw/AsicFwS2/src/../include/matrix.h ****     // friend std::ostream & operator<<( std::ostream & os, const Matrix & m )
 865:/home/tienluong/workspace/atlantis_fw/AsicFwS2/src/../include/matrix.h ****     // {
 866:/home/tienluong/workspace/atlantis_fw/AsicFwS2/src/../include/matrix.h ****     //     std::stringstream sb;
 867:/home/tienluong/workspace/atlantis_fw/AsicFwS2/src/../include/matrix.h ****     //     sb << std::endl << "[ ";
 868:/home/tienluong/workspace/atlantis_fw/AsicFwS2/src/../include/matrix.h ****     //     for( int i = 0; i < R; ++i )
 869:/home/tienluong/workspace/atlantis_fw/AsicFwS2/src/../include/matrix.h ****     //     {
 870:/home/tienluong/workspace/atlantis_fw/AsicFwS2/src/../include/matrix.h ****     //         for( int j = 0; j < C; ++j ) { sb << m( i, j ) << " "; }
 871:/home/tienluong/workspace/atlantis_fw/AsicFwS2/src/../include/matrix.h ****     //         if( i != R - 1 ) { sb << std::endl; }
 872:/home/tienluong/workspace/atlantis_fw/AsicFwS2/src/../include/matrix.h ****     //     }
 873:/home/tienluong/workspace/atlantis_fw/AsicFwS2/src/../include/matrix.h ****     //     sb << "]" << std::endl;
 874:/home/tienluong/workspace/atlantis_fw/AsicFwS2/src/../include/matrix.h ****     //     return os << sb.rdbuf();
 875:/home/tienluong/workspace/atlantis_fw/AsicFwS2/src/../include/matrix.h ****     // }
 876:/home/tienluong/workspace/atlantis_fw/AsicFwS2/src/../include/matrix.h **** 
 877:/home/tienluong/workspace/atlantis_fw/AsicFwS2/src/../include/matrix.h ****     static constexpr bool IsRowMajor() { return RowMajor; }
 878:/home/tienluong/workspace/atlantis_fw/AsicFwS2/src/../include/matrix.h **** 
 879:/home/tienluong/workspace/atlantis_fw/AsicFwS2/src/../include/matrix.h ****     static Matrix Identity()
 880:/home/tienluong/workspace/atlantis_fw/AsicFwS2/src/../include/matrix.h ****     {
 881:/home/tienluong/workspace/atlantis_fw/AsicFwS2/src/../include/matrix.h ****         Matrix rval;
 882:/home/tienluong/workspace/atlantis_fw/AsicFwS2/src/../include/matrix.h ****         return rval.setIdentity();
 883:/home/tienluong/workspace/atlantis_fw/AsicFwS2/src/../include/matrix.h ****     }
 884:/home/tienluong/workspace/atlantis_fw/AsicFwS2/src/../include/matrix.h **** };
 885:/home/tienluong/workspace/atlantis_fw/AsicFwS2/src/../include/matrix.h **** 
 886:/home/tienluong/workspace/atlantis_fw/AsicFwS2/src/../include/matrix.h **** template<typename T, int R, int C, bool D>
 887:/home/tienluong/workspace/atlantis_fw/AsicFwS2/src/../include/matrix.h **** Matrix < T, C, R, !D > transpose( const Matrix<T, R, C, D> & mat )
 888:/home/tienluong/workspace/atlantis_fw/AsicFwS2/src/../include/matrix.h **** {
 889:/home/tienluong/workspace/atlantis_fw/AsicFwS2/src/../include/matrix.h ****     // simply copy the data and flip the matrix ordering
 890:/home/tienluong/workspace/atlantis_fw/AsicFwS2/src/../include/matrix.h ****     Matrix < T, C, R, !D > rval;
 891:/home/tienluong/workspace/atlantis_fw/AsicFwS2/src/../include/matrix.h ****     T * dst = rval.data();
 892:/home/tienluong/workspace/atlantis_fw/AsicFwS2/src/../include/matrix.h ****     const T * src = mat.data();
 893:/home/tienluong/workspace/atlantis_fw/AsicFwS2/src/../include/matrix.h ****     for( int i = 0; i < R * C; ++i ) { dst[i] = src[i]; }
 894:/home/tienluong/workspace/atlantis_fw/AsicFwS2/src/../include/matrix.h ****     return rval;
 895:/home/tienluong/workspace/atlantis_fw/AsicFwS2/src/../include/matrix.h **** }
 896:/home/tienluong/workspace/atlantis_fw/AsicFwS2/src/../include/matrix.h **** 
 897:/home/tienluong/workspace/atlantis_fw/AsicFwS2/src/../include/matrix.h **** template<typename T, int N, bool D>
 898:/home/tienluong/workspace/atlantis_fw/AsicFwS2/src/../include/matrix.h **** Matrix<T, N, N, D> inverse( const Matrix<T, N, N, D> & mat );
 899:/home/tienluong/workspace/atlantis_fw/AsicFwS2/src/../include/matrix.h **** 
 900:/home/tienluong/workspace/atlantis_fw/AsicFwS2/src/../include/matrix.h **** template<typename T, int N, bool D>
 901:/home/tienluong/workspace/atlantis_fw/AsicFwS2/src/../include/matrix.h **** T determinant( const Matrix<T, N, N, D> & mat );
 902:/home/tienluong/workspace/atlantis_fw/AsicFwS2/src/../include/matrix.h **** 
 903:/home/tienluong/workspace/atlantis_fw/AsicFwS2/src/../include/matrix.h **** // scalar-matrix operators
 904:/home/tienluong/workspace/atlantis_fw/AsicFwS2/src/../include/matrix.h **** template<typename T, typename U, int R, int C, bool D>
 905:/home/tienluong/workspace/atlantis_fw/AsicFwS2/src/../include/matrix.h **** typename std::enable_if<std::is_arithmetic<T>::value, Matrix<U, R, C, D> >::type
 906:/home/tienluong/workspace/atlantis_fw/AsicFwS2/src/../include/matrix.h **** operator+( T a, const Matrix<U, R, C, D> & b ) { return b + a; }
 907:/home/tienluong/workspace/atlantis_fw/AsicFwS2/src/../include/matrix.h **** 
 908:/home/tienluong/workspace/atlantis_fw/AsicFwS2/src/../include/matrix.h **** template<typename T, typename U, int R, int C, bool D>
 909:/home/tienluong/workspace/atlantis_fw/AsicFwS2/src/../include/matrix.h **** typename std::enable_if<std::is_arithmetic<T>::value, Matrix<U, R, C, D> >::type
 910:/home/tienluong/workspace/atlantis_fw/AsicFwS2/src/../include/matrix.h **** operator-( T a, const Matrix<U, R, C, D> & b )
 911:/home/tienluong/workspace/atlantis_fw/AsicFwS2/src/../include/matrix.h **** {
 912:/home/tienluong/workspace/atlantis_fw/AsicFwS2/src/../include/matrix.h ****     Matrix<U, R, C, D> rval;
 913:/home/tienluong/workspace/atlantis_fw/AsicFwS2/src/../include/matrix.h ****     for( int i = 0; i < R; ++i )
 914:/home/tienluong/workspace/atlantis_fw/AsicFwS2/src/../include/matrix.h ****     { for( int j = 0; j < C; ++j ) { rval( i, j ) = U( a ) - b( i, j ); } }
 915:/home/tienluong/workspace/atlantis_fw/AsicFwS2/src/../include/matrix.h ****     return rval;
 916:/home/tienluong/workspace/atlantis_fw/AsicFwS2/src/../include/matrix.h **** }
 917:/home/tienluong/workspace/atlantis_fw/AsicFwS2/src/../include/matrix.h **** 
 918:/home/tienluong/workspace/atlantis_fw/AsicFwS2/src/../include/matrix.h **** template<typename T, typename U, int R, int C, bool D>
 919:/home/tienluong/workspace/atlantis_fw/AsicFwS2/src/../include/matrix.h **** typename std::enable_if<std::is_arithmetic<T>::value, Matrix<U, R, C, D> >::type
 920:/home/tienluong/workspace/atlantis_fw/AsicFwS2/src/../include/matrix.h **** operator*( T a, const Matrix<U, R, C, D> & b ) { return b * a; }
 921:/home/tienluong/workspace/atlantis_fw/AsicFwS2/src/../include/matrix.h **** 
 922:/home/tienluong/workspace/atlantis_fw/AsicFwS2/src/../include/matrix.h **** using Matrix2x2f = Matrix<float, 2, 2>;
 923:/home/tienluong/workspace/atlantis_fw/AsicFwS2/src/../include/matrix.h **** using Matrix3x3f = Matrix<float, 3, 3>;
 924:/home/tienluong/workspace/atlantis_fw/AsicFwS2/src/../include/matrix.h **** using Matrix4x4f = Matrix<float, 4, 4>;
 925:/home/tienluong/workspace/atlantis_fw/AsicFwS2/src/../include/matrix.h **** using Matrix2x2d = Matrix<double, 2, 2>;
 926:/home/tienluong/workspace/atlantis_fw/AsicFwS2/src/../include/matrix.h **** using Matrix3x3d = Matrix<double, 3, 3>;
 927:/home/tienluong/workspace/atlantis_fw/AsicFwS2/src/../include/matrix.h **** using Matrix4x4d = Matrix<double, 4, 4>;
 928:/home/tienluong/workspace/atlantis_fw/AsicFwS2/src/../include/matrix.h **** 
 929:/home/tienluong/workspace/atlantis_fw/AsicFwS2/src/../include/matrix.h **** // optimized implementation of matrix-vector operations
 930:/home/tienluong/workspace/atlantis_fw/AsicFwS2/src/../include/matrix.h **** // mind the order of color channels in memory is BGRA, i.e.,
 931:/home/tienluong/workspace/atlantis_fw/AsicFwS2/src/../include/matrix.h **** // blue channel corresponds to the first matrix dimension!
 932:/home/tienluong/workspace/atlantis_fw/AsicFwS2/src/../include/matrix.h **** 
 933:/home/tienluong/workspace/atlantis_fw/AsicFwS2/src/../include/matrix.h **** template<bool D>
 934:/home/tienluong/workspace/atlantis_fw/AsicFwS2/src/../include/matrix.h **** Vec4f operator*( const Matrix<float, 4, 4, D> & mat, const Vec4f & vec )
 935:/home/tienluong/workspace/atlantis_fw/AsicFwS2/src/../include/matrix.h **** {
 936:/home/tienluong/workspace/atlantis_fw/AsicFwS2/src/../include/matrix.h ****     return
 937:/home/tienluong/workspace/atlantis_fw/AsicFwS2/src/../include/matrix.h ****     {
 938:/home/tienluong/workspace/atlantis_fw/AsicFwS2/src/../include/matrix.h ****         mat( 0, 0 ) * vec.x() + mat( 0, 1 ) * vec.y() + mat( 0, 2 ) * vec.z() + mat( 0, 3 ) * vec.a
 939:/home/tienluong/workspace/atlantis_fw/AsicFwS2/src/../include/matrix.h ****         mat( 1, 0 ) * vec.x() + mat( 1, 1 ) * vec.y() + mat( 1, 2 ) * vec.z() + mat( 1, 3 ) * vec.a
 940:/home/tienluong/workspace/atlantis_fw/AsicFwS2/src/../include/matrix.h ****         mat( 2, 0 ) * vec.x() + mat( 2, 1 ) * vec.y() + mat( 2, 2 ) * vec.z() + mat( 2, 3 ) * vec.a
 941:/home/tienluong/workspace/atlantis_fw/AsicFwS2/src/../include/matrix.h ****         mat( 3, 0 ) * vec.x() + mat( 3, 1 ) * vec.y() + mat( 3, 2 ) * vec.z() + mat( 3, 3 ) * vec.a
 942:/home/tienluong/workspace/atlantis_fw/AsicFwS2/src/../include/matrix.h ****     };
 943:/home/tienluong/workspace/atlantis_fw/AsicFwS2/src/../include/matrix.h **** }
 944:/home/tienluong/workspace/atlantis_fw/AsicFwS2/src/../include/matrix.h **** 
 945:/home/tienluong/workspace/atlantis_fw/AsicFwS2/src/../include/matrix.h **** template<bool D>
 946:/home/tienluong/workspace/atlantis_fw/AsicFwS2/src/../include/matrix.h **** Vec4f operator*( const Vec4f & vec, const Matrix<float, 4, 4, D> & mat )
 947:/home/tienluong/workspace/atlantis_fw/AsicFwS2/src/../include/matrix.h **** {
 948:/home/tienluong/workspace/atlantis_fw/AsicFwS2/src/../include/matrix.h ****     return
 949:/home/tienluong/workspace/atlantis_fw/AsicFwS2/src/../include/matrix.h ****     {
 950:/home/tienluong/workspace/atlantis_fw/AsicFwS2/src/../include/matrix.h ****         mat( 0, 0 ) * vec.x() + mat( 1, 0 ) * vec.y() + mat( 2, 0 ) * vec.z() + mat( 3, 0 ) * vec.a
 951:/home/tienluong/workspace/atlantis_fw/AsicFwS2/src/../include/matrix.h ****         mat( 0, 1 ) * vec.x() + mat( 1, 1 ) * vec.y() + mat( 2, 1 ) * vec.z() + mat( 3, 1 ) * vec.a
 952:/home/tienluong/workspace/atlantis_fw/AsicFwS2/src/../include/matrix.h ****         mat( 0, 2 ) * vec.x() + mat( 1, 2 ) * vec.y() + mat( 2, 2 ) * vec.z() + mat( 3, 2 ) * vec.a
 953:/home/tienluong/workspace/atlantis_fw/AsicFwS2/src/../include/matrix.h ****         mat( 0, 3 ) * vec.x() + mat( 1, 3 ) * vec.y() + mat( 2, 3 ) * vec.z() + mat( 3, 3 ) * vec.a
 954:/home/tienluong/workspace/atlantis_fw/AsicFwS2/src/../include/matrix.h ****     };
 955:/home/tienluong/workspace/atlantis_fw/AsicFwS2/src/../include/matrix.h **** }
 956:/home/tienluong/workspace/atlantis_fw/AsicFwS2/src/../include/matrix.h **** 
 957:/home/tienluong/workspace/atlantis_fw/AsicFwS2/src/../include/matrix.h **** // Vec3 left- and right-hand side multiplication operator
 958:/home/tienluong/workspace/atlantis_fw/AsicFwS2/src/../include/matrix.h **** template<typename T, typename U, bool D>
 959:/home/tienluong/workspace/atlantis_fw/AsicFwS2/src/../include/matrix.h **** Vec3<typename std::common_type<T, U>::type> operator*( const Matrix<T, 3, 3, D> & mat, const Vec3<U
 960:/home/tienluong/workspace/atlantis_fw/AsicFwS2/src/../include/matrix.h **** {
 961:/home/tienluong/workspace/atlantis_fw/AsicFwS2/src/../include/matrix.h ****     return
 962:/home/tienluong/workspace/atlantis_fw/AsicFwS2/src/../include/matrix.h ****     {
 963:/home/tienluong/workspace/atlantis_fw/AsicFwS2/src/../include/matrix.h ****         mat( 0, 0 ) * vec.x() + mat( 0, 1 ) * vec.y() + mat( 0, 2 ) * vec.z(),
 964:/home/tienluong/workspace/atlantis_fw/AsicFwS2/src/../include/matrix.h ****         mat( 1, 0 ) * vec.x() + mat( 1, 1 ) * vec.y() + mat( 1, 2 ) * vec.z(),
 965:/home/tienluong/workspace/atlantis_fw/AsicFwS2/src/../include/matrix.h ****         mat( 2, 0 ) * vec.x() + mat( 2, 1 ) * vec.y() + mat( 2, 2 ) * vec.z()
 966:/home/tienluong/workspace/atlantis_fw/AsicFwS2/src/../include/matrix.h ****     };
 967:/home/tienluong/workspace/atlantis_fw/AsicFwS2/src/../include/matrix.h **** }
 968:/home/tienluong/workspace/atlantis_fw/AsicFwS2/src/../include/matrix.h **** 
 969:/home/tienluong/workspace/atlantis_fw/AsicFwS2/src/../include/matrix.h **** template<typename T, typename U, bool D>
 970:/home/tienluong/workspace/atlantis_fw/AsicFwS2/src/../include/matrix.h **** Vec3<typename std::common_type<T, U>::type> operator*( const Vec3<T> & vec, const Matrix<U, 3, 3, D
 971:/home/tienluong/workspace/atlantis_fw/AsicFwS2/src/../include/matrix.h **** {
 972:/home/tienluong/workspace/atlantis_fw/AsicFwS2/src/../include/matrix.h ****     return
 973:/home/tienluong/workspace/atlantis_fw/AsicFwS2/src/../include/matrix.h ****     {
 974:/home/tienluong/workspace/atlantis_fw/AsicFwS2/src/../include/matrix.h ****         mat( 0, 0 ) * vec.x() + mat( 1, 0 ) * vec.y() + mat( 2, 0 ) * vec.z(),
 975:/home/tienluong/workspace/atlantis_fw/AsicFwS2/src/../include/matrix.h ****         mat( 0, 1 ) * vec.x() + mat( 1, 1 ) * vec.y() + mat( 2, 1 ) * vec.z(),
 976:/home/tienluong/workspace/atlantis_fw/AsicFwS2/src/../include/matrix.h ****         mat( 0, 2 ) * vec.x() + mat( 1, 2 ) * vec.y() + mat( 2, 2 ) * vec.z()
 977:/home/tienluong/workspace/atlantis_fw/AsicFwS2/src/../include/matrix.h ****     };
 978:/home/tienluong/workspace/atlantis_fw/AsicFwS2/src/../include/matrix.h **** }
 979:/home/tienluong/workspace/atlantis_fw/AsicFwS2/src/../include/matrix.h **** 
 980:/home/tienluong/workspace/atlantis_fw/AsicFwS2/src/../include/matrix.h **** 
 981:/home/tienluong/workspace/atlantis_fw/AsicFwS2/src/../include/matrix.h **** // mat3x3 and vec2 special multiplication operation used in roitransfer
 982:/home/tienluong/workspace/atlantis_fw/AsicFwS2/src/../include/matrix.h **** /// Return H * p for 2D p, p is made homogeneous, division in the end.
 983:/home/tienluong/workspace/atlantis_fw/AsicFwS2/src/../include/matrix.h **** template<typename T, typename U, bool D>
 984:/home/tienluong/workspace/atlantis_fw/AsicFwS2/src/../include/matrix.h **** Vec2<typename std::common_type<T, U>::type> operator*( const Matrix<T, 3, 3, D> & h, const Vec2<U> 
 985:/home/tienluong/workspace/atlantis_fw/AsicFwS2/src/../include/matrix.h **** {
 986:/home/tienluong/workspace/atlantis_fw/AsicFwS2/src/../include/matrix.h ****     T w_inv = T{1} / ( h(2, 0) * p.x() + h(2, 1) * p.y() + h(2, 2) );
 987:/home/tienluong/workspace/atlantis_fw/AsicFwS2/src/../include/matrix.h ****     return  { 
 988:/home/tienluong/workspace/atlantis_fw/AsicFwS2/src/../include/matrix.h ****                 ( h(0, 0) * p.x() + h(0, 1) * p.y() + h(0, 2) ) * w_inv,
 989:/home/tienluong/workspace/atlantis_fw/AsicFwS2/src/../include/matrix.h ****                 ( h(1, 0) * p.x() + h(1, 1) * p.y() + h(1, 2) ) * w_inv
 990:/home/tienluong/workspace/atlantis_fw/AsicFwS2/src/../include/matrix.h ****             };
 991:/home/tienluong/workspace/atlantis_fw/AsicFwS2/src/../include/matrix.h **** }
 992:/home/tienluong/workspace/atlantis_fw/AsicFwS2/src/../include/matrix.h **** 
 993:/home/tienluong/workspace/atlantis_fw/AsicFwS2/src/../include/matrix.h **** 
 994:/home/tienluong/workspace/atlantis_fw/AsicFwS2/src/../include/matrix.h **** 
 995:/home/tienluong/workspace/atlantis_fw/AsicFwS2/src/../include/matrix.h **** // Vec2 multiplication operator
 996:/home/tienluong/workspace/atlantis_fw/AsicFwS2/src/../include/matrix.h **** //right hand
 997:/home/tienluong/workspace/atlantis_fw/AsicFwS2/src/../include/matrix.h **** template<typename T, typename U, bool D>
 998:/home/tienluong/workspace/atlantis_fw/AsicFwS2/src/../include/matrix.h **** Vec2<typename std::common_type<T, U>::type> operator*( const Matrix<T, 2, 2, D> & mat, const Vec2<U
 999:/home/tienluong/workspace/atlantis_fw/AsicFwS2/src/../include/matrix.h **** {
1000:/home/tienluong/workspace/atlantis_fw/AsicFwS2/src/../include/matrix.h ****     return
1001:/home/tienluong/workspace/atlantis_fw/AsicFwS2/src/../include/matrix.h ****     {
1002:/home/tienluong/workspace/atlantis_fw/AsicFwS2/src/../include/matrix.h ****         mat( 0, 0 ) * vec.x() + mat( 0, 1 ) * vec.y(),
1003:/home/tienluong/workspace/atlantis_fw/AsicFwS2/src/../include/matrix.h ****         mat( 1, 0 ) * vec.x() + mat( 1, 1 ) * vec.y()
1004:/home/tienluong/workspace/atlantis_fw/AsicFwS2/src/../include/matrix.h ****     };
1005:/home/tienluong/workspace/atlantis_fw/AsicFwS2/src/../include/matrix.h **** }
1006:/home/tienluong/workspace/atlantis_fw/AsicFwS2/src/../include/matrix.h **** //left hand
1007:/home/tienluong/workspace/atlantis_fw/AsicFwS2/src/../include/matrix.h **** template<typename T, typename U, bool D>
1008:/home/tienluong/workspace/atlantis_fw/AsicFwS2/src/../include/matrix.h **** Vec2<typename std::common_type<T, U>::type> operator*( const Vec2<U> & vec, const Matrix<T, 2, 2, D
1009:/home/tienluong/workspace/atlantis_fw/AsicFwS2/src/../include/matrix.h **** {
1010:/home/tienluong/workspace/atlantis_fw/AsicFwS2/src/../include/matrix.h ****     return
1011:/home/tienluong/workspace/atlantis_fw/AsicFwS2/src/../include/matrix.h ****     {
1012:/home/tienluong/workspace/atlantis_fw/AsicFwS2/src/../include/matrix.h ****         mat( 0, 0 ) * vec.x() + mat( 1, 0 ) * vec.y(),
1013:/home/tienluong/workspace/atlantis_fw/AsicFwS2/src/../include/matrix.h ****         mat( 0, 1 ) * vec.x() + mat( 1, 1 ) * vec.y()
1014:/home/tienluong/workspace/atlantis_fw/AsicFwS2/src/../include/matrix.h ****     };
1015:/home/tienluong/workspace/atlantis_fw/AsicFwS2/src/../include/matrix.h **** }
1016:/home/tienluong/workspace/atlantis_fw/AsicFwS2/src/../include/matrix.h **** 
1017:/home/tienluong/workspace/atlantis_fw/AsicFwS2/src/../include/matrix.h **** // Create a diagonal matrix from a vector
1018:/home/tienluong/workspace/atlantis_fw/AsicFwS2/src/../include/matrix.h **** inline Matrix4x4f diagonal( const Vec4f & vec )
1019:/home/tienluong/workspace/atlantis_fw/AsicFwS2/src/../include/matrix.h **** {
1020:/home/tienluong/workspace/atlantis_fw/AsicFwS2/src/../include/matrix.h ****     return
1021:/home/tienluong/workspace/atlantis_fw/AsicFwS2/src/../include/matrix.h ****     {
1022:/home/tienluong/workspace/atlantis_fw/AsicFwS2/src/../include/matrix.h ****         vec.x(), 0.0f, 0.0f, 0.0f,
1023:/home/tienluong/workspace/atlantis_fw/AsicFwS2/src/../include/matrix.h ****         0.0f, vec.y(), 0.0f, 0.0f,
1024:/home/tienluong/workspace/atlantis_fw/AsicFwS2/src/../include/matrix.h ****         0.0f, 0.0f, vec.z(), 0.0f,
1025:/home/tienluong/workspace/atlantis_fw/AsicFwS2/src/../include/matrix.h ****         0.0f, 0.0f, 0.0f, vec.a()
1026:/home/tienluong/workspace/atlantis_fw/AsicFwS2/src/../include/matrix.h ****     };
1027:/home/tienluong/workspace/atlantis_fw/AsicFwS2/src/../include/matrix.h **** }
1028:/home/tienluong/workspace/atlantis_fw/AsicFwS2/src/../include/matrix.h **** 
1029:/home/tienluong/workspace/atlantis_fw/AsicFwS2/src/../include/matrix.h **** template<typename T>
1030:/home/tienluong/workspace/atlantis_fw/AsicFwS2/src/../include/matrix.h **** Matrix<T, 3, 3> diagonal( const Vec3<T> & vec )
1031:/home/tienluong/workspace/atlantis_fw/AsicFwS2/src/../include/matrix.h **** {
1032:/home/tienluong/workspace/atlantis_fw/AsicFwS2/src/../include/matrix.h ****     return
1033:/home/tienluong/workspace/atlantis_fw/AsicFwS2/src/../include/matrix.h ****     {
1034:/home/tienluong/workspace/atlantis_fw/AsicFwS2/src/../include/matrix.h ****         vec.x(), T{0}, T{0},
1035:/home/tienluong/workspace/atlantis_fw/AsicFwS2/src/../include/matrix.h ****         T{0}, vec.y(), T{0},
1036:/home/tienluong/workspace/atlantis_fw/AsicFwS2/src/../include/matrix.h ****         T{0}, T{0}, vec.z()
1037:/home/tienluong/workspace/atlantis_fw/AsicFwS2/src/../include/matrix.h ****     };
1038:/home/tienluong/workspace/atlantis_fw/AsicFwS2/src/../include/matrix.h **** }
1039:/home/tienluong/workspace/atlantis_fw/AsicFwS2/src/../include/matrix.h **** 
1040:/home/tienluong/workspace/atlantis_fw/AsicFwS2/src/../include/matrix.h **** template<typename T>
1041:/home/tienluong/workspace/atlantis_fw/AsicFwS2/src/../include/matrix.h **** Matrix<T, 2, 2> diagonal( const Vec2<T> & vec )
1042:/home/tienluong/workspace/atlantis_fw/AsicFwS2/src/../include/matrix.h **** {
1043:/home/tienluong/workspace/atlantis_fw/AsicFwS2/src/../include/matrix.h ****     return
1044:/home/tienluong/workspace/atlantis_fw/AsicFwS2/src/../include/matrix.h ****     {
1045:/home/tienluong/workspace/atlantis_fw/AsicFwS2/src/../include/matrix.h ****         vec.x(), T{0},
1046:/home/tienluong/workspace/atlantis_fw/AsicFwS2/src/../include/matrix.h ****         T{0}, vec.y(),
1047:/home/tienluong/workspace/atlantis_fw/AsicFwS2/src/../include/matrix.h ****     };
1048:/home/tienluong/workspace/atlantis_fw/AsicFwS2/src/../include/matrix.h **** }
1049:/home/tienluong/workspace/atlantis_fw/AsicFwS2/src/../include/matrix.h **** 
1050:/home/tienluong/workspace/atlantis_fw/AsicFwS2/src/../include/matrix.h **** // ------------------------------------
1051:/home/tienluong/workspace/atlantis_fw/AsicFwS2/src/../include/matrix.h **** // determinant, inverse, etc
1052:/home/tienluong/workspace/atlantis_fw/AsicFwS2/src/../include/matrix.h **** // ------------------------------------
1053:/home/tienluong/workspace/atlantis_fw/AsicFwS2/src/../include/matrix.h **** 
1054:/home/tienluong/workspace/atlantis_fw/AsicFwS2/src/../include/matrix.h **** template<typename T, int N>
1055:/home/tienluong/workspace/atlantis_fw/AsicFwS2/src/../include/matrix.h **** struct MatrixDeterminant { };
1056:/home/tienluong/workspace/atlantis_fw/AsicFwS2/src/../include/matrix.h **** 
1057:/home/tienluong/workspace/atlantis_fw/AsicFwS2/src/../include/matrix.h **** template<typename T>
1058:/home/tienluong/workspace/atlantis_fw/AsicFwS2/src/../include/matrix.h **** struct MatrixDeterminant<T, 2>
1059:/home/tienluong/workspace/atlantis_fw/AsicFwS2/src/../include/matrix.h **** {
1060:/home/tienluong/workspace/atlantis_fw/AsicFwS2/src/../include/matrix.h ****     T operator()( const T * mat ) const
1061:/home/tienluong/workspace/atlantis_fw/AsicFwS2/src/../include/matrix.h ****     {
1062:/home/tienluong/workspace/atlantis_fw/AsicFwS2/src/../include/matrix.h ****         return mat[0] * mat[3] - mat[1] * mat[2];
1063:/home/tienluong/workspace/atlantis_fw/AsicFwS2/src/../include/matrix.h ****     }
1064:/home/tienluong/workspace/atlantis_fw/AsicFwS2/src/../include/matrix.h **** };
1065:/home/tienluong/workspace/atlantis_fw/AsicFwS2/src/../include/matrix.h **** 
1066:/home/tienluong/workspace/atlantis_fw/AsicFwS2/src/../include/matrix.h **** template<typename T>
1067:/home/tienluong/workspace/atlantis_fw/AsicFwS2/src/../include/matrix.h **** struct MatrixDeterminant<T, 3>
1068:/home/tienluong/workspace/atlantis_fw/AsicFwS2/src/../include/matrix.h **** {
1069:/home/tienluong/workspace/atlantis_fw/AsicFwS2/src/../include/matrix.h ****     T operator()( const T * mat ) const
1070:/home/tienluong/workspace/atlantis_fw/AsicFwS2/src/../include/matrix.h ****     {
1071:/home/tienluong/workspace/atlantis_fw/AsicFwS2/src/../include/matrix.h ****         return + mat[0] * ( mat[4] * mat[8] - mat[7] * mat[5] )
1072:/home/tienluong/workspace/atlantis_fw/AsicFwS2/src/../include/matrix.h ****                - mat[1] * ( mat[3] * mat[8] - mat[5] * mat[6] )
1073:/home/tienluong/workspace/atlantis_fw/AsicFwS2/src/../include/matrix.h ****                + mat[2] * ( mat[3] * mat[7] - mat[4] * mat[6] );
1074:/home/tienluong/workspace/atlantis_fw/AsicFwS2/src/../include/matrix.h ****     }
1075:/home/tienluong/workspace/atlantis_fw/AsicFwS2/src/../include/matrix.h **** };
1076:/home/tienluong/workspace/atlantis_fw/AsicFwS2/src/../include/matrix.h **** 
1077:/home/tienluong/workspace/atlantis_fw/AsicFwS2/src/../include/matrix.h **** template<typename T>
1078:/home/tienluong/workspace/atlantis_fw/AsicFwS2/src/../include/matrix.h **** struct MatrixDeterminant<T, 4>
1079:/home/tienluong/workspace/atlantis_fw/AsicFwS2/src/../include/matrix.h **** {
1080:/home/tienluong/workspace/atlantis_fw/AsicFwS2/src/../include/matrix.h ****     T operator()( const T * mat ) const
1081:/home/tienluong/workspace/atlantis_fw/AsicFwS2/src/../include/matrix.h ****     {
1082:/home/tienluong/workspace/atlantis_fw/AsicFwS2/src/../include/matrix.h ****         T dst[4];
1083:/home/tienluong/workspace/atlantis_fw/AsicFwS2/src/../include/matrix.h ****         T tmp[12];
1084:/home/tienluong/workspace/atlantis_fw/AsicFwS2/src/../include/matrix.h **** 
1085:/home/tienluong/workspace/atlantis_fw/AsicFwS2/src/../include/matrix.h ****         // calculate pairs for first 8 elements (cofactors)
1086:/home/tienluong/workspace/atlantis_fw/AsicFwS2/src/../include/matrix.h ****         tmp[0] = mat[10] * mat[15];
1087:/home/tienluong/workspace/atlantis_fw/AsicFwS2/src/../include/matrix.h ****         tmp[1] = mat[11] * mat[14];
1088:/home/tienluong/workspace/atlantis_fw/AsicFwS2/src/../include/matrix.h ****         tmp[2] = mat[9] * mat[15];
1089:/home/tienluong/workspace/atlantis_fw/AsicFwS2/src/../include/matrix.h ****         tmp[3] = mat[11] * mat[13];
1090:/home/tienluong/workspace/atlantis_fw/AsicFwS2/src/../include/matrix.h ****         tmp[4] = mat[9] * mat[14];
1091:/home/tienluong/workspace/atlantis_fw/AsicFwS2/src/../include/matrix.h ****         tmp[5] = mat[10] * mat[13];
1092:/home/tienluong/workspace/atlantis_fw/AsicFwS2/src/../include/matrix.h ****         tmp[6] = mat[8] * mat[15];
1093:/home/tienluong/workspace/atlantis_fw/AsicFwS2/src/../include/matrix.h ****         tmp[7] = mat[11] * mat[12];
1094:/home/tienluong/workspace/atlantis_fw/AsicFwS2/src/../include/matrix.h ****         tmp[8] = mat[8] * mat[14];
1095:/home/tienluong/workspace/atlantis_fw/AsicFwS2/src/../include/matrix.h ****         tmp[9] = mat[10] * mat[12];
1096:/home/tienluong/workspace/atlantis_fw/AsicFwS2/src/../include/matrix.h ****         tmp[10] = mat[8] * mat[13];
1097:/home/tienluong/workspace/atlantis_fw/AsicFwS2/src/../include/matrix.h ****         tmp[11] = mat[9] * mat[12];
1098:/home/tienluong/workspace/atlantis_fw/AsicFwS2/src/../include/matrix.h **** 
1099:/home/tienluong/workspace/atlantis_fw/AsicFwS2/src/../include/matrix.h ****         // calculate first 8 elements (cofactors)
1100:/home/tienluong/workspace/atlantis_fw/AsicFwS2/src/../include/matrix.h ****         dst[0]  = tmp[0] * mat[5] + tmp[3] * mat[6] + tmp[4]  * mat[7];
1101:/home/tienluong/workspace/atlantis_fw/AsicFwS2/src/../include/matrix.h ****         dst[0] -= tmp[1] * mat[5] + tmp[2] * mat[6] + tmp[5]  * mat[7];
1102:/home/tienluong/workspace/atlantis_fw/AsicFwS2/src/../include/matrix.h ****         dst[1]  = tmp[1] * mat[4] + tmp[6] * mat[6] + tmp[9]  * mat[7];
1103:/home/tienluong/workspace/atlantis_fw/AsicFwS2/src/../include/matrix.h ****         dst[1] -= tmp[0] * mat[4] + tmp[7] * mat[6] + tmp[8]  * mat[7];
1104:/home/tienluong/workspace/atlantis_fw/AsicFwS2/src/../include/matrix.h ****         dst[2]  = tmp[2] * mat[4] + tmp[7] * mat[5] + tmp[10] * mat[7];
1105:/home/tienluong/workspace/atlantis_fw/AsicFwS2/src/../include/matrix.h ****         dst[2] -= tmp[3] * mat[4] + tmp[6] * mat[5] + tmp[11] * mat[7];
1106:/home/tienluong/workspace/atlantis_fw/AsicFwS2/src/../include/matrix.h ****         dst[3]  = tmp[5] * mat[4] + tmp[8] * mat[5] + tmp[11] * mat[6];
1107:/home/tienluong/workspace/atlantis_fw/AsicFwS2/src/../include/matrix.h ****         dst[3] -= tmp[4] * mat[4] + tmp[9] * mat[5] + tmp[10] * mat[6];
1108:/home/tienluong/workspace/atlantis_fw/AsicFwS2/src/../include/matrix.h **** 
1109:/home/tienluong/workspace/atlantis_fw/AsicFwS2/src/../include/matrix.h ****         // calculate determinant
1110:/home/tienluong/workspace/atlantis_fw/AsicFwS2/src/../include/matrix.h ****         return mat[0] * dst[0] + mat[1] * dst[1] + mat[2] * dst[2] + mat[3] * dst[3];
1111:/home/tienluong/workspace/atlantis_fw/AsicFwS2/src/../include/matrix.h ****     }
1112:/home/tienluong/workspace/atlantis_fw/AsicFwS2/src/../include/matrix.h **** };
1113:/home/tienluong/workspace/atlantis_fw/AsicFwS2/src/../include/matrix.h **** 
1114:/home/tienluong/workspace/atlantis_fw/AsicFwS2/src/../include/matrix.h **** 
1115:/home/tienluong/workspace/atlantis_fw/AsicFwS2/src/../include/matrix.h **** template<typename T, int N>
1116:/home/tienluong/workspace/atlantis_fw/AsicFwS2/src/../include/matrix.h **** struct SquareMatrixInverter { };
1117:/home/tienluong/workspace/atlantis_fw/AsicFwS2/src/../include/matrix.h **** 
1118:/home/tienluong/workspace/atlantis_fw/AsicFwS2/src/../include/matrix.h **** template<typename T>
1119:/home/tienluong/workspace/atlantis_fw/AsicFwS2/src/../include/matrix.h **** struct SquareMatrixInverter<T, 2>
1120:/home/tienluong/workspace/atlantis_fw/AsicFwS2/src/../include/matrix.h **** {
1121:/home/tienluong/workspace/atlantis_fw/AsicFwS2/src/../include/matrix.h ****     void run( T * mat ) const
  29              		.loc 1 1121 0
  30              		.cfi_startproc
  31              		@ args = 0, pretend = 0, frame = 16
  32              		@ frame_needed = 0, uses_anonymous_args = 0
  33              	.LVL0:
  34 0000 2DE9FF47 		push	{r0, r1, r2, r3, r4, r5, r6, r7, r8, r9, r10, lr}
  35              	.LCFI0:
  36              		.cfi_def_cfa_offset 48
  37              		.cfi_offset 4, -32
  38              		.cfi_offset 5, -28
  39              		.cfi_offset 6, -24
  40              		.cfi_offset 7, -20
  41              		.cfi_offset 8, -16
  42              		.cfi_offset 9, -12
  43              		.cfi_offset 10, -8
  44              		.cfi_offset 14, -4
  45              	.LBB220:
1122:/home/tienluong/workspace/atlantis_fw/AsicFwS2/src/../include/matrix.h ****     {
1123:/home/tienluong/workspace/atlantis_fw/AsicFwS2/src/../include/matrix.h ****         const T det = mat[0] * mat[3] - mat[1] * mat[2];
  46              		.loc 1 1123 0
  47 0004 D0F80C90 		ldr	r9, [r0, #12]	@ float
  48              	.LBE220:
1121:/home/tienluong/workspace/atlantis_fw/AsicFwS2/src/../include/matrix.h ****     {
  49              		.loc 1 1121 0
  50 0008 0546     		mov	r5, r0
  51              	.LBB223:
  52              		.loc 1 1123 0
  53 000a D0F80080 		ldr	r8, [r0]	@ float
  54 000e 4946     		mov	r1, r9
  55 0010 4768     		ldr	r7, [r0, #4]	@ float
  56 0012 8468     		ldr	r4, [r0, #8]	@ float
  57              	.LVL1:
  58 0014 4046     		mov	r0, r8
  59              	.LVL2:
  60 0016 134E     		ldr	r6, .L5
  61 0018 B047     		blx	r6
  62              	.LVL3:
  63 001a 2146     		mov	r1, r4
1124:/home/tienluong/workspace/atlantis_fw/AsicFwS2/src/../include/matrix.h **** 
1125:/home/tienluong/workspace/atlantis_fw/AsicFwS2/src/../include/matrix.h ****         const T invdet = T{1} / det;
1126:/home/tienluong/workspace/atlantis_fw/AsicFwS2/src/../include/matrix.h **** 
1127:/home/tienluong/workspace/atlantis_fw/AsicFwS2/src/../include/matrix.h ****         T tmp[4];
1128:/home/tienluong/workspace/atlantis_fw/AsicFwS2/src/../include/matrix.h ****         tmp[0] = mat[3];
1129:/home/tienluong/workspace/atlantis_fw/AsicFwS2/src/../include/matrix.h ****         tmp[1] = -mat[1];
1130:/home/tienluong/workspace/atlantis_fw/AsicFwS2/src/../include/matrix.h ****         tmp[2] = -mat[2];
  64              		.loc 1 1130 0
  65 001c 04F10044 		add	r4, r4, #-2147483648
  66              	.LVL4:
1123:/home/tienluong/workspace/atlantis_fw/AsicFwS2/src/../include/matrix.h **** 
  67              		.loc 1 1123 0
  68 0020 8246     		mov	r10, r0
  69 0022 3846     		mov	r0, r7
  70 0024 B047     		blx	r6
  71              	.LVL5:
  72 0026 104B     		ldr	r3, .L5+4
1129:/home/tienluong/workspace/atlantis_fw/AsicFwS2/src/../include/matrix.h ****         tmp[2] = -mat[2];
  73              		.loc 1 1129 0
  74 0028 07F10047 		add	r7, r7, #-2147483648
1123:/home/tienluong/workspace/atlantis_fw/AsicFwS2/src/../include/matrix.h **** 
  75              		.loc 1 1123 0
  76 002c 0146     		mov	r1, r0
  77 002e 5046     		mov	r0, r10
  78 0030 9847     		blx	r3
  79              	.LVL6:
1125:/home/tienluong/workspace/atlantis_fw/AsicFwS2/src/../include/matrix.h **** 
  80              		.loc 1 1125 0
  81 0032 0E4B     		ldr	r3, .L5+8
1123:/home/tienluong/workspace/atlantis_fw/AsicFwS2/src/../include/matrix.h **** 
  82              		.loc 1 1123 0
  83 0034 0146     		mov	r1, r0
1125:/home/tienluong/workspace/atlantis_fw/AsicFwS2/src/../include/matrix.h **** 
  84              		.loc 1 1125 0
  85 0036 4FF07E50 		mov	r0, #1065353216
  86 003a 9847     		blx	r3
  87              	.LVL7:
  88              		.loc 1 1130 0
  89 003c 0294     		str	r4, [sp, #8]	@ float
  90              	.LBB221:
1131:/home/tienluong/workspace/atlantis_fw/AsicFwS2/src/../include/matrix.h ****         tmp[3] = mat[0];
1132:/home/tienluong/workspace/atlantis_fw/AsicFwS2/src/../include/matrix.h **** 
1133:/home/tienluong/workspace/atlantis_fw/AsicFwS2/src/../include/matrix.h ****         for( int i = 0; i < 4; ++i ) { mat[i] = tmp[i] * invdet; }
  91              		.loc 1 1133 0
  92 003e 0024     		movs	r4, #0
  93              	.LBE221:
1128:/home/tienluong/workspace/atlantis_fw/AsicFwS2/src/../include/matrix.h ****         tmp[1] = -mat[1];
  94              		.loc 1 1128 0
  95 0040 CDF80090 		str	r9, [sp]	@ float
1129:/home/tienluong/workspace/atlantis_fw/AsicFwS2/src/../include/matrix.h ****         tmp[2] = -mat[2];
  96              		.loc 1 1129 0
  97 0044 0197     		str	r7, [sp, #4]	@ float
1131:/home/tienluong/workspace/atlantis_fw/AsicFwS2/src/../include/matrix.h ****         tmp[3] = mat[0];
  98              		.loc 1 1131 0
  99 0046 CDF80C80 		str	r8, [sp, #12]	@ float
1125:/home/tienluong/workspace/atlantis_fw/AsicFwS2/src/../include/matrix.h **** 
 100              		.loc 1 1125 0
 101 004a 8246     		mov	r10, r0
 102              	.LVL8:
 103              	.L2:
 104              	.LBB222:
 105              		.loc 1 1133 0
 106 004c 5DF82400 		ldr	r0, [sp, r4, lsl #2]	@ float
 107 0050 5146     		mov	r1, r10
 108 0052 B047     		blx	r6
 109              	.LVL9:
 110 0054 45F82400 		str	r0, [r5, r4, lsl #2]	@ float
 111 0058 0134     		adds	r4, r4, #1
 112              	.LVL10:
 113 005a 042C     		cmp	r4, #4
 114 005c F6D1     		bne	.L2
 115              	.LBE222:
 116              	.LBE223:
1134:/home/tienluong/workspace/atlantis_fw/AsicFwS2/src/../include/matrix.h ****     }
 117              		.loc 1 1134 0
 118 005e 04B0     		add	sp, sp, #16
 119              	.LCFI1:
 120              		.cfi_def_cfa_offset 32
 121              		@ sp needed
 122 0060 BDE8F087 		pop	{r4, r5, r6, r7, r8, r9, r10, pc}
 123              	.LVL11:
 124              	.L6:
 125              		.align	2
 126              	.L5:
 127 0064 00000000 		.word	__aeabi_fmul
 128 0068 00000000 		.word	__aeabi_fsub
 129 006c 00000000 		.word	__aeabi_fdiv
 130              		.cfi_endproc
 131              	.LFE2772:
 133              		.section	.text._ZN4ltaf7inverseIfLi2ELb1EEENS_6MatrixIT_XT0_EXT0_EXT1_EEERKS3_,"axG",%progbits,_ZN
 134              		.align	1
 135              		.weak	_ZN4ltaf7inverseIfLi2ELb1EEENS_6MatrixIT_XT0_EXT0_EXT1_EEERKS3_
 136              		.thumb
 137              		.thumb_func
 139              	_ZN4ltaf7inverseIfLi2ELb1EEENS_6MatrixIT_XT0_EXT0_EXT1_EEERKS3_:
 140              	.LFB2601:
1135:/home/tienluong/workspace/atlantis_fw/AsicFwS2/src/../include/matrix.h **** };
1136:/home/tienluong/workspace/atlantis_fw/AsicFwS2/src/../include/matrix.h **** 
1137:/home/tienluong/workspace/atlantis_fw/AsicFwS2/src/../include/matrix.h **** template<typename T>
1138:/home/tienluong/workspace/atlantis_fw/AsicFwS2/src/../include/matrix.h **** struct SquareMatrixInverter<T, 3>
1139:/home/tienluong/workspace/atlantis_fw/AsicFwS2/src/../include/matrix.h **** {
1140:/home/tienluong/workspace/atlantis_fw/AsicFwS2/src/../include/matrix.h ****     void run( T * mat ) const
1141:/home/tienluong/workspace/atlantis_fw/AsicFwS2/src/../include/matrix.h ****     {
1142:/home/tienluong/workspace/atlantis_fw/AsicFwS2/src/../include/matrix.h ****         const T det = + mat[0] * ( mat[4] * mat[8] - mat[7] * mat[5] )
1143:/home/tienluong/workspace/atlantis_fw/AsicFwS2/src/../include/matrix.h ****                       - mat[1] * ( mat[3] * mat[8] - mat[5] * mat[6] )
1144:/home/tienluong/workspace/atlantis_fw/AsicFwS2/src/../include/matrix.h ****                       + mat[2] * ( mat[3] * mat[7] - mat[4] * mat[6] );
1145:/home/tienluong/workspace/atlantis_fw/AsicFwS2/src/../include/matrix.h **** 
1146:/home/tienluong/workspace/atlantis_fw/AsicFwS2/src/../include/matrix.h ****         const T invdet = T{1} / det;
1147:/home/tienluong/workspace/atlantis_fw/AsicFwS2/src/../include/matrix.h **** 
1148:/home/tienluong/workspace/atlantis_fw/AsicFwS2/src/../include/matrix.h ****         T tmp[9];
1149:/home/tienluong/workspace/atlantis_fw/AsicFwS2/src/../include/matrix.h ****         tmp[0] =  mat[4] * mat[8] - mat[7] * mat[5];
1150:/home/tienluong/workspace/atlantis_fw/AsicFwS2/src/../include/matrix.h ****         tmp[1] = -( mat[1] * mat[8] - mat[2] * mat[7] );
1151:/home/tienluong/workspace/atlantis_fw/AsicFwS2/src/../include/matrix.h ****         tmp[2] =  mat[1] * mat[5] - mat[2] * mat[4];
1152:/home/tienluong/workspace/atlantis_fw/AsicFwS2/src/../include/matrix.h ****         tmp[3] = -( mat[3] * mat[8] - mat[5] * mat[6] );
1153:/home/tienluong/workspace/atlantis_fw/AsicFwS2/src/../include/matrix.h ****         tmp[4] =  mat[0] * mat[8] - mat[2] * mat[6];
1154:/home/tienluong/workspace/atlantis_fw/AsicFwS2/src/../include/matrix.h ****         tmp[5] = -( mat[0] * mat[5] - mat[3] * mat[2] );
1155:/home/tienluong/workspace/atlantis_fw/AsicFwS2/src/../include/matrix.h ****         tmp[6] =  mat[3] * mat[7] - mat[6] * mat[ 4];
1156:/home/tienluong/workspace/atlantis_fw/AsicFwS2/src/../include/matrix.h ****         tmp[7] = -( mat[0] * mat[7] - mat[6] * mat[1] );
1157:/home/tienluong/workspace/atlantis_fw/AsicFwS2/src/../include/matrix.h ****         tmp[8] =  mat[0] * mat[4] - mat[3] * mat[1];
1158:/home/tienluong/workspace/atlantis_fw/AsicFwS2/src/../include/matrix.h **** 
1159:/home/tienluong/workspace/atlantis_fw/AsicFwS2/src/../include/matrix.h ****         for( int i = 0; i < 9; ++i ) { mat[i] = tmp[i] * invdet; }
1160:/home/tienluong/workspace/atlantis_fw/AsicFwS2/src/../include/matrix.h ****     }
1161:/home/tienluong/workspace/atlantis_fw/AsicFwS2/src/../include/matrix.h **** };
1162:/home/tienluong/workspace/atlantis_fw/AsicFwS2/src/../include/matrix.h **** 
1163:/home/tienluong/workspace/atlantis_fw/AsicFwS2/src/../include/matrix.h **** template<typename T>
1164:/home/tienluong/workspace/atlantis_fw/AsicFwS2/src/../include/matrix.h **** struct SquareMatrixInverter<T, 4>
1165:/home/tienluong/workspace/atlantis_fw/AsicFwS2/src/../include/matrix.h **** {
1166:/home/tienluong/workspace/atlantis_fw/AsicFwS2/src/../include/matrix.h ****     void run( T * mat ) const
1167:/home/tienluong/workspace/atlantis_fw/AsicFwS2/src/../include/matrix.h ****     {
1168:/home/tienluong/workspace/atlantis_fw/AsicFwS2/src/../include/matrix.h ****         T dst[16];
1169:/home/tienluong/workspace/atlantis_fw/AsicFwS2/src/../include/matrix.h ****         T tmp[12];
1170:/home/tienluong/workspace/atlantis_fw/AsicFwS2/src/../include/matrix.h **** 
1171:/home/tienluong/workspace/atlantis_fw/AsicFwS2/src/../include/matrix.h ****         // calculate pairs for first 8 elements (cofactors)
1172:/home/tienluong/workspace/atlantis_fw/AsicFwS2/src/../include/matrix.h ****         tmp[0] = mat[10] * mat[15];
1173:/home/tienluong/workspace/atlantis_fw/AsicFwS2/src/../include/matrix.h ****         tmp[1] = mat[11] * mat[14];
1174:/home/tienluong/workspace/atlantis_fw/AsicFwS2/src/../include/matrix.h ****         tmp[2] = mat[9] * mat[15];
1175:/home/tienluong/workspace/atlantis_fw/AsicFwS2/src/../include/matrix.h ****         tmp[3] = mat[11] * mat[13];
1176:/home/tienluong/workspace/atlantis_fw/AsicFwS2/src/../include/matrix.h ****         tmp[4] = mat[9] * mat[14];
1177:/home/tienluong/workspace/atlantis_fw/AsicFwS2/src/../include/matrix.h ****         tmp[5] = mat[10] * mat[13];
1178:/home/tienluong/workspace/atlantis_fw/AsicFwS2/src/../include/matrix.h ****         tmp[6] = mat[8] * mat[15];
1179:/home/tienluong/workspace/atlantis_fw/AsicFwS2/src/../include/matrix.h ****         tmp[7] = mat[11] * mat[12];
1180:/home/tienluong/workspace/atlantis_fw/AsicFwS2/src/../include/matrix.h ****         tmp[8] = mat[8] * mat[14];
1181:/home/tienluong/workspace/atlantis_fw/AsicFwS2/src/../include/matrix.h ****         tmp[9] = mat[10] * mat[12];
1182:/home/tienluong/workspace/atlantis_fw/AsicFwS2/src/../include/matrix.h ****         tmp[10] = mat[8] * mat[13];
1183:/home/tienluong/workspace/atlantis_fw/AsicFwS2/src/../include/matrix.h ****         tmp[11] = mat[9] * mat[12];
1184:/home/tienluong/workspace/atlantis_fw/AsicFwS2/src/../include/matrix.h **** 
1185:/home/tienluong/workspace/atlantis_fw/AsicFwS2/src/../include/matrix.h ****         // calculate first 8 elements (cofactors)
1186:/home/tienluong/workspace/atlantis_fw/AsicFwS2/src/../include/matrix.h ****         dst[0]   = tmp[0] * mat[5] + tmp[3] * mat[6] + tmp[4]  * mat[7];
1187:/home/tienluong/workspace/atlantis_fw/AsicFwS2/src/../include/matrix.h ****         dst[0]  -= tmp[1] * mat[5] + tmp[2] * mat[6] + tmp[5]  * mat[7];
1188:/home/tienluong/workspace/atlantis_fw/AsicFwS2/src/../include/matrix.h ****         dst[4]   = tmp[1] * mat[4] + tmp[6] * mat[6] + tmp[9]  * mat[7];
1189:/home/tienluong/workspace/atlantis_fw/AsicFwS2/src/../include/matrix.h ****         dst[4]  -= tmp[0] * mat[4] + tmp[7] * mat[6] + tmp[8]  * mat[7];
1190:/home/tienluong/workspace/atlantis_fw/AsicFwS2/src/../include/matrix.h ****         dst[8]   = tmp[2] * mat[4] + tmp[7] * mat[5] + tmp[10] * mat[7];
1191:/home/tienluong/workspace/atlantis_fw/AsicFwS2/src/../include/matrix.h ****         dst[8]  -= tmp[3] * mat[4] + tmp[6] * mat[5] + tmp[11] * mat[7];
1192:/home/tienluong/workspace/atlantis_fw/AsicFwS2/src/../include/matrix.h ****         dst[12]  = tmp[5] * mat[4] + tmp[8] * mat[5] + tmp[11] * mat[6];
1193:/home/tienluong/workspace/atlantis_fw/AsicFwS2/src/../include/matrix.h ****         dst[12] -= tmp[4] * mat[4] + tmp[9] * mat[5] + tmp[10] * mat[6];
1194:/home/tienluong/workspace/atlantis_fw/AsicFwS2/src/../include/matrix.h **** 
1195:/home/tienluong/workspace/atlantis_fw/AsicFwS2/src/../include/matrix.h ****         // calculate determinant
1196:/home/tienluong/workspace/atlantis_fw/AsicFwS2/src/../include/matrix.h ****         const T det = mat[0] * dst[0] + mat[1] * dst[4] + mat[2] * dst[8] + mat[3] * dst[12];
1197:/home/tienluong/workspace/atlantis_fw/AsicFwS2/src/../include/matrix.h **** 
1198:/home/tienluong/workspace/atlantis_fw/AsicFwS2/src/../include/matrix.h ****         const T inv_det = T{1} / det;
1199:/home/tienluong/workspace/atlantis_fw/AsicFwS2/src/../include/matrix.h **** 
1200:/home/tienluong/workspace/atlantis_fw/AsicFwS2/src/../include/matrix.h ****         dst[1]   = tmp[1] * mat[1] + tmp[2] * mat[2] + tmp[5]  * mat[3];
1201:/home/tienluong/workspace/atlantis_fw/AsicFwS2/src/../include/matrix.h ****         dst[1]  -= tmp[0] * mat[1] + tmp[3] * mat[2] + tmp[4]  * mat[3];
1202:/home/tienluong/workspace/atlantis_fw/AsicFwS2/src/../include/matrix.h ****         dst[5]   = tmp[0] * mat[0] + tmp[7] * mat[2] + tmp[8]  * mat[3];
1203:/home/tienluong/workspace/atlantis_fw/AsicFwS2/src/../include/matrix.h ****         dst[5]  -= tmp[1] * mat[0] + tmp[6] * mat[2] + tmp[9]  * mat[3];
1204:/home/tienluong/workspace/atlantis_fw/AsicFwS2/src/../include/matrix.h ****         dst[9]   = tmp[3] * mat[0] + tmp[6] * mat[1] + tmp[11] * mat[3];
1205:/home/tienluong/workspace/atlantis_fw/AsicFwS2/src/../include/matrix.h ****         dst[9]  -= tmp[2] * mat[0] + tmp[7] * mat[1] + tmp[10] * mat[3];
1206:/home/tienluong/workspace/atlantis_fw/AsicFwS2/src/../include/matrix.h ****         dst[13]  = tmp[4] * mat[0] + tmp[9] * mat[1] + tmp[10] * mat[2];
1207:/home/tienluong/workspace/atlantis_fw/AsicFwS2/src/../include/matrix.h ****         dst[13] -= tmp[5] * mat[0] + tmp[8] * mat[1] + tmp[11] * mat[2];
1208:/home/tienluong/workspace/atlantis_fw/AsicFwS2/src/../include/matrix.h **** 
1209:/home/tienluong/workspace/atlantis_fw/AsicFwS2/src/../include/matrix.h ****         // calculate pairs for second 8 elements (cofactors)
1210:/home/tienluong/workspace/atlantis_fw/AsicFwS2/src/../include/matrix.h ****         tmp[0] = mat[2] * mat[7];
1211:/home/tienluong/workspace/atlantis_fw/AsicFwS2/src/../include/matrix.h ****         tmp[1] = mat[3] * mat[6];
1212:/home/tienluong/workspace/atlantis_fw/AsicFwS2/src/../include/matrix.h ****         tmp[2] = mat[1] * mat[7];
1213:/home/tienluong/workspace/atlantis_fw/AsicFwS2/src/../include/matrix.h ****         tmp[3] = mat[3] * mat[5];
1214:/home/tienluong/workspace/atlantis_fw/AsicFwS2/src/../include/matrix.h ****         tmp[4] = mat[1] * mat[6];
1215:/home/tienluong/workspace/atlantis_fw/AsicFwS2/src/../include/matrix.h ****         tmp[5] = mat[2] * mat[5];
1216:/home/tienluong/workspace/atlantis_fw/AsicFwS2/src/../include/matrix.h ****         tmp[6] = mat[0] * mat[7];
1217:/home/tienluong/workspace/atlantis_fw/AsicFwS2/src/../include/matrix.h ****         tmp[7] = mat[3] * mat[4];
1218:/home/tienluong/workspace/atlantis_fw/AsicFwS2/src/../include/matrix.h ****         tmp[8] = mat[0] * mat[6];
1219:/home/tienluong/workspace/atlantis_fw/AsicFwS2/src/../include/matrix.h ****         tmp[9] = mat[2] * mat[4];
1220:/home/tienluong/workspace/atlantis_fw/AsicFwS2/src/../include/matrix.h ****         tmp[10] = mat[0] * mat[5];
1221:/home/tienluong/workspace/atlantis_fw/AsicFwS2/src/../include/matrix.h ****         tmp[11] = mat[1] * mat[4];
1222:/home/tienluong/workspace/atlantis_fw/AsicFwS2/src/../include/matrix.h **** 
1223:/home/tienluong/workspace/atlantis_fw/AsicFwS2/src/../include/matrix.h ****         // calculate second 8 elements (cofactors)
1224:/home/tienluong/workspace/atlantis_fw/AsicFwS2/src/../include/matrix.h ****         dst[2]   = tmp[0]  * mat[13] + tmp[3]  * mat[14] + tmp[4]  * mat[15];
1225:/home/tienluong/workspace/atlantis_fw/AsicFwS2/src/../include/matrix.h ****         dst[2]  -= tmp[1]  * mat[13] + tmp[2]  * mat[14] + tmp[5]  * mat[15];
1226:/home/tienluong/workspace/atlantis_fw/AsicFwS2/src/../include/matrix.h ****         dst[3]   = tmp[2]  * mat[10] + tmp[5]  * mat[11] + tmp[1]  * mat[9];
1227:/home/tienluong/workspace/atlantis_fw/AsicFwS2/src/../include/matrix.h ****         dst[3]  -= tmp[4]  * mat[11] + tmp[0]  * mat[9]  + tmp[3]  * mat[10];
1228:/home/tienluong/workspace/atlantis_fw/AsicFwS2/src/../include/matrix.h ****         dst[6]   = tmp[1]  * mat[12] + tmp[6]  * mat[14] + tmp[9]  * mat[15];
1229:/home/tienluong/workspace/atlantis_fw/AsicFwS2/src/../include/matrix.h ****         dst[6]  -= tmp[0]  * mat[12] + tmp[7]  * mat[14] + tmp[8]  * mat[15];
1230:/home/tienluong/workspace/atlantis_fw/AsicFwS2/src/../include/matrix.h ****         dst[7]   = tmp[8]  * mat[11] + tmp[0]  * mat[8]  + tmp[7]  * mat[10];
1231:/home/tienluong/workspace/atlantis_fw/AsicFwS2/src/../include/matrix.h ****         dst[7]  -= tmp[6]  * mat[10] + tmp[9]  * mat[11] + tmp[1]  * mat[8];
1232:/home/tienluong/workspace/atlantis_fw/AsicFwS2/src/../include/matrix.h ****         dst[10]  = tmp[2]  * mat[12] + tmp[7]  * mat[13] + tmp[10] * mat[15];
1233:/home/tienluong/workspace/atlantis_fw/AsicFwS2/src/../include/matrix.h ****         dst[10] -= tmp[3]  * mat[12] + tmp[6]  * mat[13] + tmp[11] * mat[15];
1234:/home/tienluong/workspace/atlantis_fw/AsicFwS2/src/../include/matrix.h ****         dst[11]  = tmp[6]  * mat[9]  + tmp[11] * mat[11] + tmp[3]  * mat[8];
1235:/home/tienluong/workspace/atlantis_fw/AsicFwS2/src/../include/matrix.h ****         dst[11] -= tmp[10] * mat[11] + tmp[2]  * mat[8]  + tmp[7]  * mat[9];
1236:/home/tienluong/workspace/atlantis_fw/AsicFwS2/src/../include/matrix.h ****         dst[14]  = tmp[5]  * mat[12] + tmp[8]  * mat[13] + tmp[11] * mat[14];
1237:/home/tienluong/workspace/atlantis_fw/AsicFwS2/src/../include/matrix.h ****         dst[14] -= tmp[4]  * mat[12] + tmp[9]  * mat[13] + tmp[10] * mat[14];
1238:/home/tienluong/workspace/atlantis_fw/AsicFwS2/src/../include/matrix.h ****         dst[15]  = tmp[10] * mat[10] + tmp[4]  * mat[8]  + tmp[9]  * mat[9];
1239:/home/tienluong/workspace/atlantis_fw/AsicFwS2/src/../include/matrix.h ****         dst[15] -= tmp[8]  * mat[9]  + tmp[11] * mat[10] + tmp[5]  * mat[8];
1240:/home/tienluong/workspace/atlantis_fw/AsicFwS2/src/../include/matrix.h **** 
1241:/home/tienluong/workspace/atlantis_fw/AsicFwS2/src/../include/matrix.h ****         // calculate matrix inverse
1242:/home/tienluong/workspace/atlantis_fw/AsicFwS2/src/../include/matrix.h ****         for( int i = 0; i < 16; i++ ) { mat[i] = dst[i] * inv_det; }
1243:/home/tienluong/workspace/atlantis_fw/AsicFwS2/src/../include/matrix.h ****     }
1244:/home/tienluong/workspace/atlantis_fw/AsicFwS2/src/../include/matrix.h **** };
1245:/home/tienluong/workspace/atlantis_fw/AsicFwS2/src/../include/matrix.h **** 
1246:/home/tienluong/workspace/atlantis_fw/AsicFwS2/src/../include/matrix.h **** template<typename T, int N, bool D>
1247:/home/tienluong/workspace/atlantis_fw/AsicFwS2/src/../include/matrix.h **** Matrix<T, N, N, D> inverse( const Matrix<T, N, N, D> & mat )
 141              		.loc 1 1247 0
 142              		.cfi_startproc
 143              		@ args = 0, pretend = 0, frame = 0
 144              		@ frame_needed = 0, uses_anonymous_args = 0
 145              	.LVL12:
 146 0000 10B5     		push	{r4, lr}
 147              	.LCFI2:
 148              		.cfi_def_cfa_offset 8
 149              		.cfi_offset 4, -8
 150              		.cfi_offset 14, -4
 151              		.loc 1 1247 0
 152 0002 0446     		mov	r4, r0
 153              	.LVL13:
 154              	.LBB230:
 155              	.LBB231:
 156              	.LBB232:
 591:/home/tienluong/workspace/atlantis_fw/AsicFwS2/src/../include/matrix.h **** 
 157              		.loc 1 591 0
 158 0004 0FC9     		ldmia	r1, {r0, r1, r2, r3}
 159              	.LVL14:
 160 0006 84E80F00 		stmia	r4, {r0, r1, r2, r3}
 161              	.LVL15:
 162              	.LBE232:
 163              	.LBE231:
1248:/home/tienluong/workspace/atlantis_fw/AsicFwS2/src/../include/matrix.h **** {
1249:/home/tienluong/workspace/atlantis_fw/AsicFwS2/src/../include/matrix.h ****     Matrix<T, N, N, D> rval( mat );
1250:/home/tienluong/workspace/atlantis_fw/AsicFwS2/src/../include/matrix.h ****     SquareMatrixInverter<T, N> inverter;
1251:/home/tienluong/workspace/atlantis_fw/AsicFwS2/src/../include/matrix.h ****     inverter.run( rval.data() );
 164              		.loc 1 1251 0
 165 000a 2046     		mov	r0, r4
 166 000c 014B     		ldr	r3, .L8
 167 000e 9847     		blx	r3
 168              	.LVL16:
 169              	.LBE230:
1252:/home/tienluong/workspace/atlantis_fw/AsicFwS2/src/../include/matrix.h ****     return rval;
1253:/home/tienluong/workspace/atlantis_fw/AsicFwS2/src/../include/matrix.h **** }
 170              		.loc 1 1253 0
 171 0010 2046     		mov	r0, r4
 172 0012 10BD     		pop	{r4, pc}
 173              	.LVL17:
 174              	.L9:
 175              		.align	2
 176              	.L8:
 177 0014 00000000 		.word	_ZNK4ltaf20SquareMatrixInverterIfLi2EE3runEPf.isra.1
 178              		.cfi_endproc
 179              	.LFE2601:
 181              		.section	.text._ZN4ltaf7inverseIfLi2ELb0EEENS_6MatrixIT_XT0_EXT0_EXT1_EEERKS3_,"axG",%progbits,_ZN
 182              		.align	1
 183              		.weak	_ZN4ltaf7inverseIfLi2ELb0EEENS_6MatrixIT_XT0_EXT0_EXT1_EEERKS3_
 184              		.thumb
 185              		.thumb_func
 187              	_ZN4ltaf7inverseIfLi2ELb0EEENS_6MatrixIT_XT0_EXT0_EXT1_EEERKS3_:
 188              	.LFB2604:
1247:/home/tienluong/workspace/atlantis_fw/AsicFwS2/src/../include/matrix.h **** {
 189              		.loc 1 1247 0
 190              		.cfi_startproc
 191              		@ args = 0, pretend = 0, frame = 0
 192              		@ frame_needed = 0, uses_anonymous_args = 0
 193              	.LVL18:
 194 0000 10B5     		push	{r4, lr}
 195              	.LCFI3:
 196              		.cfi_def_cfa_offset 8
 197              		.cfi_offset 4, -8
 198              		.cfi_offset 14, -4
1247:/home/tienluong/workspace/atlantis_fw/AsicFwS2/src/../include/matrix.h **** {
 199              		.loc 1 1247 0
 200 0002 0446     		mov	r4, r0
 201              	.LVL19:
 202              	.LBB239:
 203              	.LBB240:
 204              	.LBB241:
 593:/home/tienluong/workspace/atlantis_fw/AsicFwS2/src/../include/matrix.h **** 
 205              		.loc 1 593 0
 206 0004 0FC9     		ldmia	r1, {r0, r1, r2, r3}
 207              	.LVL20:
 208 0006 84E80F00 		stmia	r4, {r0, r1, r2, r3}
 209              	.LVL21:
 210              	.LBE241:
 211              	.LBE240:
1251:/home/tienluong/workspace/atlantis_fw/AsicFwS2/src/../include/matrix.h ****     return rval;
 212              		.loc 1 1251 0
 213 000a 2046     		mov	r0, r4
 214 000c 014B     		ldr	r3, .L11
 215 000e 9847     		blx	r3
 216              	.LVL22:
 217              	.LBE239:
 218              		.loc 1 1253 0
 219 0010 2046     		mov	r0, r4
 220 0012 10BD     		pop	{r4, pc}
 221              	.LVL23:
 222              	.L12:
 223              		.align	2
 224              	.L11:
 225 0014 00000000 		.word	_ZNK4ltaf20SquareMatrixInverterIfLi2EE3runEPf.isra.1
 226              		.cfi_endproc
 227              	.LFE2604:
 229              		.section	.text._ZN4ltaf11determinantIfLi2ELb1EEET_RKNS_6MatrixIS1_XT0_EXT0_EXT1_EEE,"axG",%progbit
 230              		.align	1
 231              		.weak	_ZN4ltaf11determinantIfLi2ELb1EEET_RKNS_6MatrixIS1_XT0_EXT0_EXT1_EEE
 232              		.thumb
 233              		.thumb_func
 235              	_ZN4ltaf11determinantIfLi2ELb1EEET_RKNS_6MatrixIS1_XT0_EXT0_EXT1_EEE:
 236              	.LFB2613:
1254:/home/tienluong/workspace/atlantis_fw/AsicFwS2/src/../include/matrix.h **** 
1255:/home/tienluong/workspace/atlantis_fw/AsicFwS2/src/../include/matrix.h **** template<typename T, int N, bool D>
1256:/home/tienluong/workspace/atlantis_fw/AsicFwS2/src/../include/matrix.h **** T determinant( const Matrix<T, N, N, D> & mat )
 237              		.loc 1 1256 0
 238              		.cfi_startproc
 239              		@ args = 0, pretend = 0, frame = 0
 240              		@ frame_needed = 0, uses_anonymous_args = 0
 241              	.LVL24:
 242 0000 70B5     		push	{r4, r5, r6, lr}
 243              	.LCFI4:
 244              		.cfi_def_cfa_offset 16
 245              		.cfi_offset 4, -16
 246              		.cfi_offset 5, -12
 247              		.cfi_offset 6, -8
 248              		.cfi_offset 14, -4
 249              		.loc 1 1256 0
 250 0002 0446     		mov	r4, r0
 251              	.LBB247:
 252              	.LBB248:
 253              	.LBB249:
1062:/home/tienluong/workspace/atlantis_fw/AsicFwS2/src/../include/matrix.h ****     }
 254              		.loc 1 1062 0
 255 0004 064D     		ldr	r5, .L14
 256 0006 0068     		ldr	r0, [r0]	@ float
 257              	.LVL25:
 258 0008 E168     		ldr	r1, [r4, #12]	@ float
 259 000a A847     		blx	r5
 260              	.LVL26:
 261 000c A168     		ldr	r1, [r4, #8]	@ float
 262 000e 0646     		mov	r6, r0
 263 0010 6068     		ldr	r0, [r4, #4]	@ float
 264 0012 A847     		blx	r5
 265              	.LVL27:
 266 0014 034B     		ldr	r3, .L14+4
 267 0016 0146     		mov	r1, r0
 268 0018 3046     		mov	r0, r6
 269 001a 9847     		blx	r3
 270              	.LVL28:
 271              	.LBE249:
 272              	.LBE248:
 273              	.LBE247:
1257:/home/tienluong/workspace/atlantis_fw/AsicFwS2/src/../include/matrix.h **** {
1258:/home/tienluong/workspace/atlantis_fw/AsicFwS2/src/../include/matrix.h ****     MatrixDeterminant<T, N> det;
1259:/home/tienluong/workspace/atlantis_fw/AsicFwS2/src/../include/matrix.h ****     return det( mat.data() );
1260:/home/tienluong/workspace/atlantis_fw/AsicFwS2/src/../include/matrix.h **** }
 274              		.loc 1 1260 0
 275 001c 70BD     		pop	{r4, r5, r6, pc}
 276              	.LVL29:
 277              	.L15:
 278 001e 00BF     		.align	2
 279              	.L14:
 280 0020 00000000 		.word	__aeabi_fmul
 281 0024 00000000 		.word	__aeabi_fsub
 282              		.cfi_endproc
 283              	.LFE2613:
 285              		.section	.text._ZN4ltaf11determinantIfLi2ELb0EEET_RKNS_6MatrixIS1_XT0_EXT0_EXT1_EEE,"axG",%progbit
 286              		.align	1
 287              		.weak	_ZN4ltaf11determinantIfLi2ELb0EEET_RKNS_6MatrixIS1_XT0_EXT0_EXT1_EEE
 288              		.thumb
 289              		.thumb_func
 291              	_ZN4ltaf11determinantIfLi2ELb0EEET_RKNS_6MatrixIS1_XT0_EXT0_EXT1_EEE:
 292              	.LFB2616:
1256:/home/tienluong/workspace/atlantis_fw/AsicFwS2/src/../include/matrix.h **** {
 293              		.loc 1 1256 0
 294              		.cfi_startproc
 295              		@ args = 0, pretend = 0, frame = 0
 296              		@ frame_needed = 0, uses_anonymous_args = 0
 297              	.LVL30:
 298 0000 70B5     		push	{r4, r5, r6, lr}
 299              	.LCFI5:
 300              		.cfi_def_cfa_offset 16
 301              		.cfi_offset 4, -16
 302              		.cfi_offset 5, -12
 303              		.cfi_offset 6, -8
 304              		.cfi_offset 14, -4
1256:/home/tienluong/workspace/atlantis_fw/AsicFwS2/src/../include/matrix.h **** {
 305              		.loc 1 1256 0
 306 0002 0446     		mov	r4, r0
 307              	.LBB255:
 308              	.LBB256:
 309              	.LBB257:
1062:/home/tienluong/workspace/atlantis_fw/AsicFwS2/src/../include/matrix.h ****     }
 310              		.loc 1 1062 0
 311 0004 064D     		ldr	r5, .L17
 312 0006 0068     		ldr	r0, [r0]	@ float
 313              	.LVL31:
 314 0008 E168     		ldr	r1, [r4, #12]	@ float
 315 000a A847     		blx	r5
 316              	.LVL32:
 317 000c A168     		ldr	r1, [r4, #8]	@ float
 318 000e 0646     		mov	r6, r0
 319 0010 6068     		ldr	r0, [r4, #4]	@ float
 320 0012 A847     		blx	r5
 321              	.LVL33:
 322 0014 034B     		ldr	r3, .L17+4
 323 0016 0146     		mov	r1, r0
 324 0018 3046     		mov	r0, r6
 325 001a 9847     		blx	r3
 326              	.LVL34:
 327              	.LBE257:
 328              	.LBE256:
 329              	.LBE255:
 330              		.loc 1 1260 0
 331 001c 70BD     		pop	{r4, r5, r6, pc}
 332              	.LVL35:
 333              	.L18:
 334 001e 00BF     		.align	2
 335              	.L17:
 336 0020 00000000 		.word	__aeabi_fmul
 337 0024 00000000 		.word	__aeabi_fsub
 338              		.cfi_endproc
 339              	.LFE2616:
 341              		.global	__aeabi_dmul
 342              		.global	__aeabi_dsub
 343              		.section	.text._ZN4ltaf11determinantIdLi2ELb1EEET_RKNS_6MatrixIS1_XT0_EXT0_EXT1_EEE,"axG",%progbit
 344              		.align	1
 345              		.weak	_ZN4ltaf11determinantIdLi2ELb1EEET_RKNS_6MatrixIS1_XT0_EXT0_EXT1_EEE
 346              		.thumb
 347              		.thumb_func
 349              	_ZN4ltaf11determinantIdLi2ELb1EEET_RKNS_6MatrixIS1_XT0_EXT0_EXT1_EEE:
 350              	.LFB2619:
1256:/home/tienluong/workspace/atlantis_fw/AsicFwS2/src/../include/matrix.h **** {
 351              		.loc 1 1256 0
 352              		.cfi_startproc
 353              		@ args = 0, pretend = 0, frame = 0
 354              		@ frame_needed = 0, uses_anonymous_args = 0
 355              	.LVL36:
 356 0000 F8B5     		push	{r3, r4, r5, r6, r7, lr}
 357              	.LCFI6:
 358              		.cfi_def_cfa_offset 24
 359              		.cfi_offset 3, -24
 360              		.cfi_offset 4, -20
 361              		.cfi_offset 5, -16
 362              		.cfi_offset 6, -12
 363              		.cfi_offset 7, -8
 364              		.cfi_offset 14, -4
1256:/home/tienluong/workspace/atlantis_fw/AsicFwS2/src/../include/matrix.h **** {
 365              		.loc 1 1256 0
 366 0002 0446     		mov	r4, r0
 367              	.LBB263:
 368              	.LBB264:
 369              	.LBB265:
1062:/home/tienluong/workspace/atlantis_fw/AsicFwS2/src/../include/matrix.h ****     }
 370              		.loc 1 1062 0
 371 0004 094D     		ldr	r5, .L20
 372 0006 D0E90001 		ldrd	r0, [r0]
 373              	.LVL37:
 374 000a D4E90623 		ldrd	r2, [r4, #24]
 375 000e A847     		blx	r5
 376              	.LVL38:
 377 0010 D4E90423 		ldrd	r2, [r4, #16]
 378 0014 0646     		mov	r6, r0
 379 0016 0F46     		mov	r7, r1
 380 0018 D4E90201 		ldrd	r0, [r4, #8]
 381 001c A847     		blx	r5
 382              	.LVL39:
 383 001e 044C     		ldr	r4, .L20+4
 384              	.LVL40:
 385 0020 0246     		mov	r2, r0
 386 0022 0B46     		mov	r3, r1
 387 0024 3046     		mov	r0, r6
 388 0026 3946     		mov	r1, r7
 389 0028 A047     		blx	r4
 390              	.LVL41:
 391              	.LBE265:
 392              	.LBE264:
 393              	.LBE263:
 394              		.loc 1 1260 0
 395 002a F8BD     		pop	{r3, r4, r5, r6, r7, pc}
 396              	.L21:
 397              		.align	2
 398              	.L20:
 399 002c 00000000 		.word	__aeabi_dmul
 400 0030 00000000 		.word	__aeabi_dsub
 401              		.cfi_endproc
 402              	.LFE2619:
 404              		.section	.text._ZN4ltaf11determinantIdLi2ELb0EEET_RKNS_6MatrixIS1_XT0_EXT0_EXT1_EEE,"axG",%progbit
 405              		.align	1
 406              		.weak	_ZN4ltaf11determinantIdLi2ELb0EEET_RKNS_6MatrixIS1_XT0_EXT0_EXT1_EEE
 407              		.thumb
 408              		.thumb_func
 410              	_ZN4ltaf11determinantIdLi2ELb0EEET_RKNS_6MatrixIS1_XT0_EXT0_EXT1_EEE:
 411              	.LFB2622:
1256:/home/tienluong/workspace/atlantis_fw/AsicFwS2/src/../include/matrix.h **** {
 412              		.loc 1 1256 0
 413              		.cfi_startproc
 414              		@ args = 0, pretend = 0, frame = 0
 415              		@ frame_needed = 0, uses_anonymous_args = 0
 416              	.LVL42:
 417 0000 F8B5     		push	{r3, r4, r5, r6, r7, lr}
 418              	.LCFI7:
 419              		.cfi_def_cfa_offset 24
 420              		.cfi_offset 3, -24
 421              		.cfi_offset 4, -20
 422              		.cfi_offset 5, -16
 423              		.cfi_offset 6, -12
 424              		.cfi_offset 7, -8
 425              		.cfi_offset 14, -4
1256:/home/tienluong/workspace/atlantis_fw/AsicFwS2/src/../include/matrix.h **** {
 426              		.loc 1 1256 0
 427 0002 0446     		mov	r4, r0
 428              	.LBB271:
 429              	.LBB272:
 430              	.LBB273:
1062:/home/tienluong/workspace/atlantis_fw/AsicFwS2/src/../include/matrix.h ****     }
 431              		.loc 1 1062 0
 432 0004 094D     		ldr	r5, .L23
 433 0006 D0E90001 		ldrd	r0, [r0]
 434              	.LVL43:
 435 000a D4E90623 		ldrd	r2, [r4, #24]
 436 000e A847     		blx	r5
 437              	.LVL44:
 438 0010 D4E90423 		ldrd	r2, [r4, #16]
 439 0014 0646     		mov	r6, r0
 440 0016 0F46     		mov	r7, r1
 441 0018 D4E90201 		ldrd	r0, [r4, #8]
 442 001c A847     		blx	r5
 443              	.LVL45:
 444 001e 044C     		ldr	r4, .L23+4
 445              	.LVL46:
 446 0020 0246     		mov	r2, r0
 447 0022 0B46     		mov	r3, r1
 448 0024 3046     		mov	r0, r6
 449 0026 3946     		mov	r1, r7
 450 0028 A047     		blx	r4
 451              	.LVL47:
 452              	.LBE273:
 453              	.LBE272:
 454              	.LBE271:
 455              		.loc 1 1260 0
 456 002a F8BD     		pop	{r3, r4, r5, r6, r7, pc}
 457              	.L24:
 458              		.align	2
 459              	.L23:
 460 002c 00000000 		.word	__aeabi_dmul
 461 0030 00000000 		.word	__aeabi_dsub
 462              		.cfi_endproc
 463              	.LFE2622:
 465              		.global	__aeabi_fcmpgt
 466              		.global	__aeabi_fadd
 467              		.section	.text._ZNK4ltaf5Line2IfE7xGivenYEf,"axG",%progbits,_ZNK4ltaf5Line2IfE7xGivenYEf,comdat
 468              		.align	1
 469              		.weak	_ZNK4ltaf5Line2IfE7xGivenYEf
 470              		.thumb
 471              		.thumb_func
 473              	_ZNK4ltaf5Line2IfE7xGivenYEf:
 474              	.LFB2626:
 475              		.file 2 "/home/tienluong/workspace/atlantis_fw/AsicFwS2/src/../include/line2.h"
   1:/home/tienluong/workspace/atlantis_fw/AsicFwS2/src/../include/line2.h **** #ifndef __LINE2_H__
   2:/home/tienluong/workspace/atlantis_fw/AsicFwS2/src/../include/line2.h **** #define __LINE2_H__
   3:/home/tienluong/workspace/atlantis_fw/AsicFwS2/src/../include/line2.h **** 
   4:/home/tienluong/workspace/atlantis_fw/AsicFwS2/src/../include/line2.h **** 
   5:/home/tienluong/workspace/atlantis_fw/AsicFwS2/src/../include/line2.h **** #ifdef __cplusplus
   6:/home/tienluong/workspace/atlantis_fw/AsicFwS2/src/../include/line2.h **** 
   7:/home/tienluong/workspace/atlantis_fw/AsicFwS2/src/../include/line2.h **** #include <limits>
   8:/home/tienluong/workspace/atlantis_fw/AsicFwS2/src/../include/line2.h **** #include <cassert>
   9:/home/tienluong/workspace/atlantis_fw/AsicFwS2/src/../include/line2.h **** #include "matrix.h"
  10:/home/tienluong/workspace/atlantis_fw/AsicFwS2/src/../include/line2.h **** 
  11:/home/tienluong/workspace/atlantis_fw/AsicFwS2/src/../include/line2.h **** 
  12:/home/tienluong/workspace/atlantis_fw/AsicFwS2/src/../include/line2.h **** namespace ltaf {
  13:/home/tienluong/workspace/atlantis_fw/AsicFwS2/src/../include/line2.h **** 
  14:/home/tienluong/workspace/atlantis_fw/AsicFwS2/src/../include/line2.h **** /// Restrict the input to be floating type.
  15:/home/tienluong/workspace/atlantis_fw/AsicFwS2/src/../include/line2.h **** template<typename T>
  16:/home/tienluong/workspace/atlantis_fw/AsicFwS2/src/../include/line2.h **** class Line2
  17:/home/tienluong/workspace/atlantis_fw/AsicFwS2/src/../include/line2.h **** {
  18:/home/tienluong/workspace/atlantis_fw/AsicFwS2/src/../include/line2.h ****     static_assert( std::is_floating_point<T>::value, "only floating-point line types supported!" );
  19:/home/tienluong/workspace/atlantis_fw/AsicFwS2/src/../include/line2.h **** public:
  20:/home/tienluong/workspace/atlantis_fw/AsicFwS2/src/../include/line2.h ****     Line2(): _line( T{1}, 0, 0 ) {}
  21:/home/tienluong/workspace/atlantis_fw/AsicFwS2/src/../include/line2.h **** 
  22:/home/tienluong/workspace/atlantis_fw/AsicFwS2/src/../include/line2.h ****     /// The line is represented by ax + by + c = 0;
  23:/home/tienluong/workspace/atlantis_fw/AsicFwS2/src/../include/line2.h ****     Line2( T a, T b, T c ): _line( a, b, c )
  24:/home/tienluong/workspace/atlantis_fw/AsicFwS2/src/../include/line2.h ****     {
  25:/home/tienluong/workspace/atlantis_fw/AsicFwS2/src/../include/line2.h ****         assert( isValidLine() ); //, "Not a valid line!" );
  26:/home/tienluong/workspace/atlantis_fw/AsicFwS2/src/../include/line2.h ****         normalize();
  27:/home/tienluong/workspace/atlantis_fw/AsicFwS2/src/../include/line2.h ****     }
  28:/home/tienluong/workspace/atlantis_fw/AsicFwS2/src/../include/line2.h **** 
  29:/home/tienluong/workspace/atlantis_fw/AsicFwS2/src/../include/line2.h ****     Line2( const Vec3<T> & line ) : _line( line )
  30:/home/tienluong/workspace/atlantis_fw/AsicFwS2/src/../include/line2.h ****     {
  31:/home/tienluong/workspace/atlantis_fw/AsicFwS2/src/../include/line2.h ****         assert( isValidLine() );//, "Not a valid line!" );
  32:/home/tienluong/workspace/atlantis_fw/AsicFwS2/src/../include/line2.h ****         normalize();
  33:/home/tienluong/workspace/atlantis_fw/AsicFwS2/src/../include/line2.h ****     }
  34:/home/tienluong/workspace/atlantis_fw/AsicFwS2/src/../include/line2.h **** 
  35:/home/tienluong/workspace/atlantis_fw/AsicFwS2/src/../include/line2.h ****     /// Project a point to the line.
  36:/home/tienluong/workspace/atlantis_fw/AsicFwS2/src/../include/line2.h ****     /// we are looking for a point pl such that pl = point + t * normal
  37:/home/tienluong/workspace/atlantis_fw/AsicFwS2/src/../include/line2.h ****     /// and it needs to satisfy line equation a * x + b * y + c = 0
  38:/home/tienluong/workspace/atlantis_fw/AsicFwS2/src/../include/line2.h ****     /// solve for t
  39:/home/tienluong/workspace/atlantis_fw/AsicFwS2/src/../include/line2.h ****     /// a * (x + t * a) + b * (y + t * b) + c = 0
  40:/home/tienluong/workspace/atlantis_fw/AsicFwS2/src/../include/line2.h ****     /// t * (a*a + b*b) = -c -by -ax
  41:/home/tienluong/workspace/atlantis_fw/AsicFwS2/src/../include/line2.h ****     /// also, assume that this line is normalized -> 1 == a * a + b * b
  42:/home/tienluong/workspace/atlantis_fw/AsicFwS2/src/../include/line2.h ****     Vec2<T> closest( const Vec2<T> & pt ) const
  43:/home/tienluong/workspace/atlantis_fw/AsicFwS2/src/../include/line2.h ****     {
  44:/home/tienluong/workspace/atlantis_fw/AsicFwS2/src/../include/line2.h ****         Vec2<T> dir( _line.x(), _line.y() );
  45:/home/tienluong/workspace/atlantis_fw/AsicFwS2/src/../include/line2.h ****         T t = _line.z() + dot( dir, pt );
  46:/home/tienluong/workspace/atlantis_fw/AsicFwS2/src/../include/line2.h ****         return pt - t * dir;
  47:/home/tienluong/workspace/atlantis_fw/AsicFwS2/src/../include/line2.h ****     }
  48:/home/tienluong/workspace/atlantis_fw/AsicFwS2/src/../include/line2.h **** 
  49:/home/tienluong/workspace/atlantis_fw/AsicFwS2/src/../include/line2.h ****     /// Find the x coordinate given y coordinate.
  50:/home/tienluong/workspace/atlantis_fw/AsicFwS2/src/../include/line2.h ****     T xGivenY( T y ) const
 476              		.loc 2 50 0
 477              		.cfi_startproc
 478              		@ args = 0, pretend = 0, frame = 0
 479              		@ frame_needed = 0, uses_anonymous_args = 0
 480              	.LVL48:
 481 0000 38B5     		push	{r3, r4, r5, lr}
 482              	.LCFI8:
 483              		.cfi_def_cfa_offset 16
 484              		.cfi_offset 3, -16
 485              		.cfi_offset 4, -12
 486              		.cfi_offset 5, -8
 487              		.cfi_offset 14, -4
 488              		.loc 2 50 0
 489 0002 0446     		mov	r4, r0
 490 0004 0D46     		mov	r5, r1
 491              	.LBB274:
 492              	.LBB275:
 493              	.LBB276:
 494              		.file 3 "/opt/toolchains/gcc-arm-none-eabi-4_9-2015q1/arm-none-eabi/include/c++/4.9.3/cmath"
   1:/opt/toolchains/gcc-arm-none-eabi-4_9-2015q1/arm-none-eabi/include/c++/4.9.3/cmath **** // -*- C++ -*- C forwarding header.
   2:/opt/toolchains/gcc-arm-none-eabi-4_9-2015q1/arm-none-eabi/include/c++/4.9.3/cmath **** 
   3:/opt/toolchains/gcc-arm-none-eabi-4_9-2015q1/arm-none-eabi/include/c++/4.9.3/cmath **** // Copyright (C) 1997-2014 Free Software Foundation, Inc.
   4:/opt/toolchains/gcc-arm-none-eabi-4_9-2015q1/arm-none-eabi/include/c++/4.9.3/cmath **** //
   5:/opt/toolchains/gcc-arm-none-eabi-4_9-2015q1/arm-none-eabi/include/c++/4.9.3/cmath **** // This file is part of the GNU ISO C++ Library.  This library is free
   6:/opt/toolchains/gcc-arm-none-eabi-4_9-2015q1/arm-none-eabi/include/c++/4.9.3/cmath **** // software; you can redistribute it and/or modify it under the
   7:/opt/toolchains/gcc-arm-none-eabi-4_9-2015q1/arm-none-eabi/include/c++/4.9.3/cmath **** // terms of the GNU General Public License as published by the
   8:/opt/toolchains/gcc-arm-none-eabi-4_9-2015q1/arm-none-eabi/include/c++/4.9.3/cmath **** // Free Software Foundation; either version 3, or (at your option)
   9:/opt/toolchains/gcc-arm-none-eabi-4_9-2015q1/arm-none-eabi/include/c++/4.9.3/cmath **** // any later version.
  10:/opt/toolchains/gcc-arm-none-eabi-4_9-2015q1/arm-none-eabi/include/c++/4.9.3/cmath **** 
  11:/opt/toolchains/gcc-arm-none-eabi-4_9-2015q1/arm-none-eabi/include/c++/4.9.3/cmath **** // This library is distributed in the hope that it will be useful,
  12:/opt/toolchains/gcc-arm-none-eabi-4_9-2015q1/arm-none-eabi/include/c++/4.9.3/cmath **** // but WITHOUT ANY WARRANTY; without even the implied warranty of
  13:/opt/toolchains/gcc-arm-none-eabi-4_9-2015q1/arm-none-eabi/include/c++/4.9.3/cmath **** // MERCHANTABILITY or FITNESS FOR A PARTICULAR PURPOSE.  See the
  14:/opt/toolchains/gcc-arm-none-eabi-4_9-2015q1/arm-none-eabi/include/c++/4.9.3/cmath **** // GNU General Public License for more details.
  15:/opt/toolchains/gcc-arm-none-eabi-4_9-2015q1/arm-none-eabi/include/c++/4.9.3/cmath **** 
  16:/opt/toolchains/gcc-arm-none-eabi-4_9-2015q1/arm-none-eabi/include/c++/4.9.3/cmath **** // Under Section 7 of GPL version 3, you are granted additional
  17:/opt/toolchains/gcc-arm-none-eabi-4_9-2015q1/arm-none-eabi/include/c++/4.9.3/cmath **** // permissions described in the GCC Runtime Library Exception, version
  18:/opt/toolchains/gcc-arm-none-eabi-4_9-2015q1/arm-none-eabi/include/c++/4.9.3/cmath **** // 3.1, as published by the Free Software Foundation.
  19:/opt/toolchains/gcc-arm-none-eabi-4_9-2015q1/arm-none-eabi/include/c++/4.9.3/cmath **** 
  20:/opt/toolchains/gcc-arm-none-eabi-4_9-2015q1/arm-none-eabi/include/c++/4.9.3/cmath **** // You should have received a copy of the GNU General Public License and
  21:/opt/toolchains/gcc-arm-none-eabi-4_9-2015q1/arm-none-eabi/include/c++/4.9.3/cmath **** // a copy of the GCC Runtime Library Exception along with this program;
  22:/opt/toolchains/gcc-arm-none-eabi-4_9-2015q1/arm-none-eabi/include/c++/4.9.3/cmath **** // see the files COPYING3 and COPYING.RUNTIME respectively.  If not, see
  23:/opt/toolchains/gcc-arm-none-eabi-4_9-2015q1/arm-none-eabi/include/c++/4.9.3/cmath **** // <http://www.gnu.org/licenses/>.
  24:/opt/toolchains/gcc-arm-none-eabi-4_9-2015q1/arm-none-eabi/include/c++/4.9.3/cmath **** 
  25:/opt/toolchains/gcc-arm-none-eabi-4_9-2015q1/arm-none-eabi/include/c++/4.9.3/cmath **** /** @file include/cmath
  26:/opt/toolchains/gcc-arm-none-eabi-4_9-2015q1/arm-none-eabi/include/c++/4.9.3/cmath ****  *  This is a Standard C++ Library file.  You should @c \#include this file
  27:/opt/toolchains/gcc-arm-none-eabi-4_9-2015q1/arm-none-eabi/include/c++/4.9.3/cmath ****  *  in your programs, rather than any of the @a *.h implementation files.
  28:/opt/toolchains/gcc-arm-none-eabi-4_9-2015q1/arm-none-eabi/include/c++/4.9.3/cmath ****  *
  29:/opt/toolchains/gcc-arm-none-eabi-4_9-2015q1/arm-none-eabi/include/c++/4.9.3/cmath ****  *  This is the C++ version of the Standard C Library header @c math.h,
  30:/opt/toolchains/gcc-arm-none-eabi-4_9-2015q1/arm-none-eabi/include/c++/4.9.3/cmath ****  *  and its contents are (mostly) the same as that header, but are all
  31:/opt/toolchains/gcc-arm-none-eabi-4_9-2015q1/arm-none-eabi/include/c++/4.9.3/cmath ****  *  contained in the namespace @c std (except for names which are defined
  32:/opt/toolchains/gcc-arm-none-eabi-4_9-2015q1/arm-none-eabi/include/c++/4.9.3/cmath ****  *  as macros in C).
  33:/opt/toolchains/gcc-arm-none-eabi-4_9-2015q1/arm-none-eabi/include/c++/4.9.3/cmath ****  */
  34:/opt/toolchains/gcc-arm-none-eabi-4_9-2015q1/arm-none-eabi/include/c++/4.9.3/cmath **** 
  35:/opt/toolchains/gcc-arm-none-eabi-4_9-2015q1/arm-none-eabi/include/c++/4.9.3/cmath **** //
  36:/opt/toolchains/gcc-arm-none-eabi-4_9-2015q1/arm-none-eabi/include/c++/4.9.3/cmath **** // ISO C++ 14882: 26.5  C library
  37:/opt/toolchains/gcc-arm-none-eabi-4_9-2015q1/arm-none-eabi/include/c++/4.9.3/cmath **** //
  38:/opt/toolchains/gcc-arm-none-eabi-4_9-2015q1/arm-none-eabi/include/c++/4.9.3/cmath **** 
  39:/opt/toolchains/gcc-arm-none-eabi-4_9-2015q1/arm-none-eabi/include/c++/4.9.3/cmath **** #pragma GCC system_header
  40:/opt/toolchains/gcc-arm-none-eabi-4_9-2015q1/arm-none-eabi/include/c++/4.9.3/cmath **** 
  41:/opt/toolchains/gcc-arm-none-eabi-4_9-2015q1/arm-none-eabi/include/c++/4.9.3/cmath **** #include <bits/c++config.h>
  42:/opt/toolchains/gcc-arm-none-eabi-4_9-2015q1/arm-none-eabi/include/c++/4.9.3/cmath **** #include <bits/cpp_type_traits.h>
  43:/opt/toolchains/gcc-arm-none-eabi-4_9-2015q1/arm-none-eabi/include/c++/4.9.3/cmath **** #include <ext/type_traits.h>
  44:/opt/toolchains/gcc-arm-none-eabi-4_9-2015q1/arm-none-eabi/include/c++/4.9.3/cmath **** #include <math.h>
  45:/opt/toolchains/gcc-arm-none-eabi-4_9-2015q1/arm-none-eabi/include/c++/4.9.3/cmath **** 
  46:/opt/toolchains/gcc-arm-none-eabi-4_9-2015q1/arm-none-eabi/include/c++/4.9.3/cmath **** #ifndef _GLIBCXX_CMATH
  47:/opt/toolchains/gcc-arm-none-eabi-4_9-2015q1/arm-none-eabi/include/c++/4.9.3/cmath **** #define _GLIBCXX_CMATH 1
  48:/opt/toolchains/gcc-arm-none-eabi-4_9-2015q1/arm-none-eabi/include/c++/4.9.3/cmath **** 
  49:/opt/toolchains/gcc-arm-none-eabi-4_9-2015q1/arm-none-eabi/include/c++/4.9.3/cmath **** // Get rid of those macros defined in <math.h> in lieu of real functions.
  50:/opt/toolchains/gcc-arm-none-eabi-4_9-2015q1/arm-none-eabi/include/c++/4.9.3/cmath **** #undef abs
  51:/opt/toolchains/gcc-arm-none-eabi-4_9-2015q1/arm-none-eabi/include/c++/4.9.3/cmath **** #undef div
  52:/opt/toolchains/gcc-arm-none-eabi-4_9-2015q1/arm-none-eabi/include/c++/4.9.3/cmath **** #undef acos
  53:/opt/toolchains/gcc-arm-none-eabi-4_9-2015q1/arm-none-eabi/include/c++/4.9.3/cmath **** #undef asin
  54:/opt/toolchains/gcc-arm-none-eabi-4_9-2015q1/arm-none-eabi/include/c++/4.9.3/cmath **** #undef atan
  55:/opt/toolchains/gcc-arm-none-eabi-4_9-2015q1/arm-none-eabi/include/c++/4.9.3/cmath **** #undef atan2
  56:/opt/toolchains/gcc-arm-none-eabi-4_9-2015q1/arm-none-eabi/include/c++/4.9.3/cmath **** #undef ceil
  57:/opt/toolchains/gcc-arm-none-eabi-4_9-2015q1/arm-none-eabi/include/c++/4.9.3/cmath **** #undef cos
  58:/opt/toolchains/gcc-arm-none-eabi-4_9-2015q1/arm-none-eabi/include/c++/4.9.3/cmath **** #undef cosh
  59:/opt/toolchains/gcc-arm-none-eabi-4_9-2015q1/arm-none-eabi/include/c++/4.9.3/cmath **** #undef exp
  60:/opt/toolchains/gcc-arm-none-eabi-4_9-2015q1/arm-none-eabi/include/c++/4.9.3/cmath **** #undef fabs
  61:/opt/toolchains/gcc-arm-none-eabi-4_9-2015q1/arm-none-eabi/include/c++/4.9.3/cmath **** #undef floor
  62:/opt/toolchains/gcc-arm-none-eabi-4_9-2015q1/arm-none-eabi/include/c++/4.9.3/cmath **** #undef fmod
  63:/opt/toolchains/gcc-arm-none-eabi-4_9-2015q1/arm-none-eabi/include/c++/4.9.3/cmath **** #undef frexp
  64:/opt/toolchains/gcc-arm-none-eabi-4_9-2015q1/arm-none-eabi/include/c++/4.9.3/cmath **** #undef ldexp
  65:/opt/toolchains/gcc-arm-none-eabi-4_9-2015q1/arm-none-eabi/include/c++/4.9.3/cmath **** #undef log
  66:/opt/toolchains/gcc-arm-none-eabi-4_9-2015q1/arm-none-eabi/include/c++/4.9.3/cmath **** #undef log10
  67:/opt/toolchains/gcc-arm-none-eabi-4_9-2015q1/arm-none-eabi/include/c++/4.9.3/cmath **** #undef modf
  68:/opt/toolchains/gcc-arm-none-eabi-4_9-2015q1/arm-none-eabi/include/c++/4.9.3/cmath **** #undef pow
  69:/opt/toolchains/gcc-arm-none-eabi-4_9-2015q1/arm-none-eabi/include/c++/4.9.3/cmath **** #undef sin
  70:/opt/toolchains/gcc-arm-none-eabi-4_9-2015q1/arm-none-eabi/include/c++/4.9.3/cmath **** #undef sinh
  71:/opt/toolchains/gcc-arm-none-eabi-4_9-2015q1/arm-none-eabi/include/c++/4.9.3/cmath **** #undef sqrt
  72:/opt/toolchains/gcc-arm-none-eabi-4_9-2015q1/arm-none-eabi/include/c++/4.9.3/cmath **** #undef tan
  73:/opt/toolchains/gcc-arm-none-eabi-4_9-2015q1/arm-none-eabi/include/c++/4.9.3/cmath **** #undef tanh
  74:/opt/toolchains/gcc-arm-none-eabi-4_9-2015q1/arm-none-eabi/include/c++/4.9.3/cmath **** 
  75:/opt/toolchains/gcc-arm-none-eabi-4_9-2015q1/arm-none-eabi/include/c++/4.9.3/cmath **** namespace std _GLIBCXX_VISIBILITY(default)
  76:/opt/toolchains/gcc-arm-none-eabi-4_9-2015q1/arm-none-eabi/include/c++/4.9.3/cmath **** {
  77:/opt/toolchains/gcc-arm-none-eabi-4_9-2015q1/arm-none-eabi/include/c++/4.9.3/cmath **** _GLIBCXX_BEGIN_NAMESPACE_VERSION
  78:/opt/toolchains/gcc-arm-none-eabi-4_9-2015q1/arm-none-eabi/include/c++/4.9.3/cmath **** 
  79:/opt/toolchains/gcc-arm-none-eabi-4_9-2015q1/arm-none-eabi/include/c++/4.9.3/cmath **** #ifndef __CORRECT_ISO_CPP_MATH_H_PROTO
  80:/opt/toolchains/gcc-arm-none-eabi-4_9-2015q1/arm-none-eabi/include/c++/4.9.3/cmath ****   inline _GLIBCXX_CONSTEXPR double
  81:/opt/toolchains/gcc-arm-none-eabi-4_9-2015q1/arm-none-eabi/include/c++/4.9.3/cmath ****   abs(double __x)
  82:/opt/toolchains/gcc-arm-none-eabi-4_9-2015q1/arm-none-eabi/include/c++/4.9.3/cmath ****   { return __builtin_fabs(__x); }
  83:/opt/toolchains/gcc-arm-none-eabi-4_9-2015q1/arm-none-eabi/include/c++/4.9.3/cmath **** #endif
  84:/opt/toolchains/gcc-arm-none-eabi-4_9-2015q1/arm-none-eabi/include/c++/4.9.3/cmath **** 
  85:/opt/toolchains/gcc-arm-none-eabi-4_9-2015q1/arm-none-eabi/include/c++/4.9.3/cmath **** #ifndef __CORRECT_ISO_CPP_MATH_H_PROTO
  86:/opt/toolchains/gcc-arm-none-eabi-4_9-2015q1/arm-none-eabi/include/c++/4.9.3/cmath ****   inline _GLIBCXX_CONSTEXPR float
  87:/opt/toolchains/gcc-arm-none-eabi-4_9-2015q1/arm-none-eabi/include/c++/4.9.3/cmath ****   abs(float __x)
  88:/opt/toolchains/gcc-arm-none-eabi-4_9-2015q1/arm-none-eabi/include/c++/4.9.3/cmath ****   { return __builtin_fabsf(__x); }
 495              		.loc 3 88 0
 496 0006 0068     		ldr	r0, [r0]
 497              	.LVL49:
 498              	.LBE276:
 499              	.LBE275:
  51:/home/tienluong/workspace/atlantis_fw/AsicFwS2/src/../include/line2.h ****     {
  52:/home/tienluong/workspace/atlantis_fw/AsicFwS2/src/../include/line2.h ****         //LT_ASSERT( abs( _line.x() ) > kEps10x, "Can't solve x coordinate for a horiontal line" );
  53:/home/tienluong/workspace/atlantis_fw/AsicFwS2/src/../include/line2.h ****         assert(std::abs( _line.x() ) > kEps10x);
 500              		.loc 2 53 0
 501 0008 0B49     		ldr	r1, .L27
 502              	.LVL50:
 503              	.LBB278:
 504              	.LBB277:
 505              		.loc 3 88 0
 506 000a 20F00040 		bic	r0, r0, #-2147483648
 507              	.LBE277:
 508              	.LBE278:
 509              		.loc 2 53 0
 510 000e 0B4B     		ldr	r3, .L27+4
 511 0010 9847     		blx	r3
 512              	.LVL51:
 513 0012 18B9     		cbnz	r0, .L26
 514              		.loc 2 53 0 is_stmt 0 discriminator 1
 515 0014 0A48     		ldr	r0, .L27+8
 516 0016 3521     		movs	r1, #53
 517 0018 0A4B     		ldr	r3, .L27+12
 518 001a 9847     		blx	r3
 519              	.LVL52:
 520              	.L26:
  54:/home/tienluong/workspace/atlantis_fw/AsicFwS2/src/../include/line2.h ****         return -( _line.y() * y + _line.z() ) / _line.x();
 521              		.loc 2 54 0 is_stmt 1
 522 001c 6168     		ldr	r1, [r4, #4]	@ float
 523 001e 2846     		mov	r0, r5
 524 0020 094B     		ldr	r3, .L27+16
 525 0022 9847     		blx	r3
 526              	.LVL53:
 527 0024 A168     		ldr	r1, [r4, #8]	@ float
 528 0026 094B     		ldr	r3, .L27+20
 529 0028 9847     		blx	r3
 530              	.LVL54:
 531 002a 2168     		ldr	r1, [r4]	@ float
 532 002c 084B     		ldr	r3, .L27+24
 533 002e 00F10040 		add	r0, r0, #-2147483648
 534 0032 9847     		blx	r3
 535              	.LVL55:
 536              	.LBE274:
  55:/home/tienluong/workspace/atlantis_fw/AsicFwS2/src/../include/line2.h ****     }
 537              		.loc 2 55 0
 538 0034 38BD     		pop	{r3, r4, r5, pc}
 539              	.LVL56:
 540              	.L28:
 541 0036 00BF     		.align	2
 542              	.L27:
 543 0038 0000A035 		.word	899678208
 544 003c 00000000 		.word	__aeabi_fcmpgt
 545 0040 00000000 		.word	.LANCHOR0
 546 0044 00000000 		.word	assert_failed
 547 0048 00000000 		.word	__aeabi_fmul
 548 004c 00000000 		.word	__aeabi_fadd
 549 0050 00000000 		.word	__aeabi_fdiv
 550              		.cfi_endproc
 551              	.LFE2626:
 553              		.section	.text._ZNK4ltaf5Line2IfE7yGivenXEf,"axG",%progbits,_ZNK4ltaf5Line2IfE7yGivenXEf,comdat
 554              		.align	1
 555              		.weak	_ZNK4ltaf5Line2IfE7yGivenXEf
 556              		.thumb
 557              		.thumb_func
 559              	_ZNK4ltaf5Line2IfE7yGivenXEf:
 560              	.LFB2632:
  56:/home/tienluong/workspace/atlantis_fw/AsicFwS2/src/../include/line2.h **** 
  57:/home/tienluong/workspace/atlantis_fw/AsicFwS2/src/../include/line2.h ****     /// Find the y coordinate given x coordinate.
  58:/home/tienluong/workspace/atlantis_fw/AsicFwS2/src/../include/line2.h ****     T yGivenX( T x ) const
 561              		.loc 2 58 0
 562              		.cfi_startproc
 563              		@ args = 0, pretend = 0, frame = 0
 564              		@ frame_needed = 0, uses_anonymous_args = 0
 565              	.LVL57:
 566 0000 38B5     		push	{r3, r4, r5, lr}
 567              	.LCFI9:
 568              		.cfi_def_cfa_offset 16
 569              		.cfi_offset 3, -16
 570              		.cfi_offset 4, -12
 571              		.cfi_offset 5, -8
 572              		.cfi_offset 14, -4
 573              		.loc 2 58 0
 574 0002 0446     		mov	r4, r0
 575 0004 0D46     		mov	r5, r1
 576              	.LBB279:
 577              	.LBB280:
 578              	.LBB281:
 579              		.loc 3 88 0
 580 0006 4068     		ldr	r0, [r0, #4]
 581              	.LVL58:
 582              	.LBE281:
 583              	.LBE280:
  59:/home/tienluong/workspace/atlantis_fw/AsicFwS2/src/../include/line2.h ****     {
  60:/home/tienluong/workspace/atlantis_fw/AsicFwS2/src/../include/line2.h ****         //LT_ASSERT( abs( _line.y() ) > kEps10x, "Can't solve y coordinate for a vertical line" );
  61:/home/tienluong/workspace/atlantis_fw/AsicFwS2/src/../include/line2.h ****         assert(std::abs( _line.y() ) > kEps10x);
 584              		.loc 2 61 0
 585 0008 0B49     		ldr	r1, .L31
 586              	.LVL59:
 587              	.LBB283:
 588              	.LBB282:
 589              		.loc 3 88 0
 590 000a 20F00040 		bic	r0, r0, #-2147483648
 591              	.LBE282:
 592              	.LBE283:
 593              		.loc 2 61 0
 594 000e 0B4B     		ldr	r3, .L31+4
 595 0010 9847     		blx	r3
 596              	.LVL60:
 597 0012 18B9     		cbnz	r0, .L30
 598              		.loc 2 61 0 is_stmt 0 discriminator 1
 599 0014 0A48     		ldr	r0, .L31+8
 600 0016 3D21     		movs	r1, #61
 601 0018 0A4B     		ldr	r3, .L31+12
 602 001a 9847     		blx	r3
 603              	.LVL61:
 604              	.L30:
  62:/home/tienluong/workspace/atlantis_fw/AsicFwS2/src/../include/line2.h ****         return -( _line.x() * x + _line.z() ) / _line.y();
 605              		.loc 2 62 0 is_stmt 1
 606 001c 2168     		ldr	r1, [r4]	@ float
 607 001e 2846     		mov	r0, r5
 608 0020 094B     		ldr	r3, .L31+16
 609 0022 9847     		blx	r3
 610              	.LVL62:
 611 0024 A168     		ldr	r1, [r4, #8]	@ float
 612 0026 094B     		ldr	r3, .L31+20
 613 0028 9847     		blx	r3
 614              	.LVL63:
 615 002a 6168     		ldr	r1, [r4, #4]	@ float
 616 002c 084B     		ldr	r3, .L31+24
 617 002e 00F10040 		add	r0, r0, #-2147483648
 618 0032 9847     		blx	r3
 619              	.LVL64:
 620              	.LBE279:
  63:/home/tienluong/workspace/atlantis_fw/AsicFwS2/src/../include/line2.h ****     }
 621              		.loc 2 63 0
 622 0034 38BD     		pop	{r3, r4, r5, pc}
 623              	.LVL65:
 624              	.L32:
 625 0036 00BF     		.align	2
 626              	.L31:
 627 0038 0000A035 		.word	899678208
 628 003c 00000000 		.word	__aeabi_fcmpgt
 629 0040 00000000 		.word	.LANCHOR1
 630 0044 00000000 		.word	assert_failed
 631 0048 00000000 		.word	__aeabi_fmul
 632 004c 00000000 		.word	__aeabi_fadd
 633 0050 00000000 		.word	__aeabi_fdiv
 634              		.cfi_endproc
 635              	.LFE2632:
 637              		.global	__aeabi_i2f
 638              		.global	__aeabi_fcmplt
 639              		.global	__aeabi_f2iz
 640              		.global	__aeabi_fcmpge
 641              		.section	.text._ZN4ltaf12IntersectBoxERKNS_5Line2IfEEffiiRNS_4Vec2IfEES6_,"ax",%progbits
 642              		.align	1
 643              		.global	_ZN4ltaf12IntersectBoxERKNS_5Line2IfEEffiiRNS_4Vec2IfEES6_
 644              		.thumb
 645              		.thumb_func
 647              	_ZN4ltaf12IntersectBoxERKNS_5Line2IfEEffiiRNS_4Vec2IfEES6_:
 648              	.LFB2572:
 649              		.file 4 "/home/tienluong/workspace/atlantis_fw/AsicFwS2/src/line2.cpp"
   1:/home/tienluong/workspace/atlantis_fw/AsicFwS2/src/line2.cpp **** #include "../include/line2.h"
   2:/home/tienluong/workspace/atlantis_fw/AsicFwS2/src/line2.cpp **** 
   3:/home/tienluong/workspace/atlantis_fw/AsicFwS2/src/line2.cpp **** namespace ltaf{
   4:/home/tienluong/workspace/atlantis_fw/AsicFwS2/src/line2.cpp **** 
   5:/home/tienluong/workspace/atlantis_fw/AsicFwS2/src/line2.cpp **** /// Calculate two points on the box boundary where the line intersects the box.
   6:/home/tienluong/workspace/atlantis_fw/AsicFwS2/src/line2.cpp **** /// If the line doesn't intersect, return false.
   7:/home/tienluong/workspace/atlantis_fw/AsicFwS2/src/line2.cpp **** bool IntersectBox( const Line2f & line, float start_x, float start_y, int width, int height, 
   8:/home/tienluong/workspace/atlantis_fw/AsicFwS2/src/line2.cpp ****                     Vec2f & p1, Vec2f & p2 )
   9:/home/tienluong/workspace/atlantis_fw/AsicFwS2/src/line2.cpp **** {
 650              		.loc 4 9 0
 651              		.cfi_startproc
 652              		@ args = 12, pretend = 0, frame = 24
 653              		@ frame_needed = 0, uses_anonymous_args = 0
 654              	.LVL66:
 655 0000 2DE9F04F 		push	{r4, r5, r6, r7, r8, r9, r10, fp, lr}
 656              	.LCFI10:
 657              		.cfi_def_cfa_offset 36
 658              		.cfi_offset 4, -36
 659              		.cfi_offset 5, -32
 660              		.cfi_offset 6, -28
 661              		.cfi_offset 7, -24
 662              		.cfi_offset 8, -20
 663              		.cfi_offset 9, -16
 664              		.cfi_offset 10, -12
 665              		.cfi_offset 11, -8
 666              		.cfi_offset 14, -4
 667 0004 0546     		mov	r5, r0
 668 0006 87B0     		sub	sp, sp, #28
 669              	.LCFI11:
 670              		.cfi_def_cfa_offset 64
 671              	.LBB284:
  10:/home/tienluong/workspace/atlantis_fw/AsicFwS2/src/line2.cpp ****     float end_x = start_x + width;
 672              		.loc 4 10 0
 673 0008 1846     		mov	r0, r3
 674              	.LVL67:
 675              	.LBE284:
   9:/home/tienluong/workspace/atlantis_fw/AsicFwS2/src/line2.cpp ****     float end_x = start_x + width;
 676              		.loc 4 9 0
 677 000a 1446     		mov	r4, r2
 678              	.LBB342:
 679              		.loc 4 10 0
 680 000c DFF8D091 		ldr	r9, .L76+16
 681              	.LBE342:
   9:/home/tienluong/workspace/atlantis_fw/AsicFwS2/src/line2.cpp ****     float end_x = start_x + width;
 682              		.loc 4 9 0
 683 0010 0E46     		mov	r6, r1
 684              	.LBB343:
 685              		.loc 4 10 0
 686 0012 C847     		blx	r9
 687              	.LVL68:
 688 0014 DFF8D081 		ldr	r8, .L76+24
 689              	.LBE343:
   9:/home/tienluong/workspace/atlantis_fw/AsicFwS2/src/line2.cpp ****     float end_x = start_x + width;
 690              		.loc 4 9 0
 691 0018 DDF844A0 		ldr	r10, [sp, #68]
 692 001c 129F     		ldr	r7, [sp, #72]
 693 001e DFF8CCB1 		ldr	fp, .L76+28
 694              	.LBB344:
 695              		.loc 4 10 0
 696 0022 0146     		mov	r1, r0
 697 0024 3046     		mov	r0, r6
 698 0026 C047     		blx	r8
 699              	.LVL69:
 700 0028 0190     		str	r0, [sp, #4]	@ float
 701              	.LVL70:
  11:/home/tienluong/workspace/atlantis_fw/AsicFwS2/src/line2.cpp ****     float end_y = start_y + height;
 702              		.loc 4 11 0
 703 002a 1098     		ldr	r0, [sp, #64]
 704              	.LVL71:
 705 002c C847     		blx	r9
 706              	.LVL72:
 707 002e 0146     		mov	r1, r0
 708 0030 2046     		mov	r0, r4
 709 0032 C047     		blx	r8
 710              	.LVL73:
 711              	.LBB285:
  12:/home/tienluong/workspace/atlantis_fw/AsicFwS2/src/line2.cpp **** 
  13:/home/tienluong/workspace/atlantis_fw/AsicFwS2/src/line2.cpp ****     auto inSpan = []( int coord, float start, float end ) { return coord >= start && coord < end; }
  14:/home/tienluong/workspace/atlantis_fw/AsicFwS2/src/line2.cpp **** 
  15:/home/tienluong/workspace/atlantis_fw/AsicFwS2/src/line2.cpp ****     if( std::abs( line.y() ) < Line2f::kEps10x )
 712              		.loc 4 15 0
 713 0034 DFF8AC81 		ldr	r8, .L76+20
 714 0038 6549     		ldr	r1, .L76
 715              	.LBE285:
  11:/home/tienluong/workspace/atlantis_fw/AsicFwS2/src/line2.cpp ****     float end_y = start_y + height;
 716              		.loc 4 11 0
 717 003a 0290     		str	r0, [sp, #8]	@ float
 718              	.LVL74:
 719              	.LBB300:
 720              	.LBB286:
 721              	.LBB287:
 722              		.loc 3 88 0
 723 003c 6868     		ldr	r0, [r5, #4]
 724              	.LVL75:
 725 003e 20F00040 		bic	r0, r0, #-2147483648
 726              	.LBE287:
 727              	.LBE286:
 728              		.loc 4 15 0
 729 0042 C047     		blx	r8
 730              	.LVL76:
 731 0044 C0B1     		cbz	r0, .L68
 732              	.LBB288:
  16:/home/tienluong/workspace/atlantis_fw/AsicFwS2/src/line2.cpp ****     {
  17:/home/tienluong/workspace/atlantis_fw/AsicFwS2/src/line2.cpp ****         // vertical
  18:/home/tienluong/workspace/atlantis_fw/AsicFwS2/src/line2.cpp ****         float top_x = line.xGivenY( start_y );
 733              		.loc 4 18 0
 734 0046 2146     		mov	r1, r4
 735 0048 2846     		mov	r0, r5
 736 004a 624B     		ldr	r3, .L76+4
 737 004c 9847     		blx	r3
 738              	.LVL77:
 739 004e 0546     		mov	r5, r0
 740              	.LVL78:
  19:/home/tienluong/workspace/atlantis_fw/AsicFwS2/src/line2.cpp ****         if( !inSpan( top_x, start_x, end_x ) ) { return false; }
 741              		.loc 4 19 0
 742 0050 D847     		blx	fp
 743              	.LVL79:
 744              	.LBB289:
 745              	.LBB290:
  13:/home/tienluong/workspace/atlantis_fw/AsicFwS2/src/line2.cpp **** 
 746              		.loc 4 13 0
 747 0052 C847     		blx	r9
 748              	.LVL80:
 749 0054 3146     		mov	r1, r6
 750 0056 604B     		ldr	r3, .L76+8
 751 0058 8146     		mov	r9, r0
 752 005a 9847     		blx	r3
 753              	.LVL81:
 754 005c 08B9     		cbnz	r0, .L36
 755              	.LVL82:
 756              	.L39:
 757              	.LBE290:
 758              	.LBE289:
 759              		.loc 4 19 0
 760 005e 0020     		movs	r0, #0
 761 0060 B2E0     		b	.L69
 762              	.LVL83:
 763              	.L36:
 764              	.LBB292:
 765              	.LBB291:
  13:/home/tienluong/workspace/atlantis_fw/AsicFwS2/src/line2.cpp **** 
 766              		.loc 4 13 0
 767 0062 4846     		mov	r0, r9
 768 0064 0199     		ldr	r1, [sp, #4]	@ float
 769 0066 C047     		blx	r8
 770              	.LVL84:
 771 0068 0028     		cmp	r0, #0
 772 006a F8D0     		beq	.L39
 773              	.LVL85:
 774              	.LBE291:
 775              	.LBE292:
 776              	.LBB293:
 777              	.LBB294:
  34:/home/tienluong/workspace/atlantis_fw/AsicFwS2/src/../include/matrix.h **** 
 778              		.loc 1 34 0
 779 006c CAF80050 		str	r5, [r10]	@ float
 780 0070 CAF80440 		str	r4, [r10, #4]	@ float
 781              	.LVL86:
 782              	.LBE294:
 783              	.LBE293:
 784              	.LBB295:
 785              	.LBB296:
 786 0074 3D60     		str	r5, [r7]	@ float
 787 0076 8DE0     		b	.L75
 788              	.LVL87:
 789              	.L68:
 790              	.LBE296:
 791              	.LBE295:
 792              	.LBE288:
 793              	.LBE300:
 794              	.LBB301:
 795              	.LBB302:
 796              	.LBB303:
 797              		.loc 3 88 0
 798 0078 2868     		ldr	r0, [r5]
 799              	.LBE303:
 800              	.LBE302:
  20:/home/tienluong/workspace/atlantis_fw/AsicFwS2/src/line2.cpp ****         p1 = { top_x, start_y };
  21:/home/tienluong/workspace/atlantis_fw/AsicFwS2/src/line2.cpp ****         p2 = { top_x, end_y   };
  22:/home/tienluong/workspace/atlantis_fw/AsicFwS2/src/line2.cpp ****         return true;
  23:/home/tienluong/workspace/atlantis_fw/AsicFwS2/src/line2.cpp ****     }
  24:/home/tienluong/workspace/atlantis_fw/AsicFwS2/src/line2.cpp ****     if( std::abs( line.x() ) < Line2f::kEps10x )
 801              		.loc 4 24 0
 802 007a 5549     		ldr	r1, .L76
 803              	.LBB305:
 804              	.LBB304:
 805              		.loc 3 88 0
 806 007c 20F00040 		bic	r0, r0, #-2147483648
 807              	.LBE304:
 808              	.LBE305:
 809              		.loc 4 24 0
 810 0080 C047     		blx	r8
 811              	.LVL88:
 812 0082 564A     		ldr	r2, .L76+12
 813 0084 C0B1     		cbz	r0, .L70
 814              	.LBB306:
  25:/home/tienluong/workspace/atlantis_fw/AsicFwS2/src/line2.cpp ****     {
  26:/home/tienluong/workspace/atlantis_fw/AsicFwS2/src/line2.cpp ****         // horizontal
  27:/home/tienluong/workspace/atlantis_fw/AsicFwS2/src/line2.cpp ****         float left_y = line.yGivenX( start_x );
 815              		.loc 4 27 0
 816 0086 3146     		mov	r1, r6
 817 0088 2846     		mov	r0, r5
 818 008a 9047     		blx	r2
 819              	.LVL89:
 820 008c 0546     		mov	r5, r0
 821              	.LVL90:
  28:/home/tienluong/workspace/atlantis_fw/AsicFwS2/src/line2.cpp ****         if( !inSpan( left_y, start_y, end_y ) ) { return false; }
 822              		.loc 4 28 0
 823 008e D847     		blx	fp
 824              	.LVL91:
 825              	.LBB307:
 826              	.LBB308:
  13:/home/tienluong/workspace/atlantis_fw/AsicFwS2/src/line2.cpp **** 
 827              		.loc 4 13 0
 828 0090 C847     		blx	r9
 829              	.LVL92:
 830 0092 2146     		mov	r1, r4
 831 0094 504B     		ldr	r3, .L76+8
 832 0096 8146     		mov	r9, r0
 833 0098 9847     		blx	r3
 834              	.LVL93:
 835 009a 0028     		cmp	r0, #0
 836 009c DFD0     		beq	.L39
 837 009e 4846     		mov	r0, r9
 838 00a0 0299     		ldr	r1, [sp, #8]	@ float
 839 00a2 C047     		blx	r8
 840              	.LVL94:
 841 00a4 0028     		cmp	r0, #0
 842 00a6 DAD0     		beq	.L39
 843              	.LVL95:
 844              	.LBE308:
 845              	.LBE307:
 846              	.LBB309:
 847              	.LBB310:
  34:/home/tienluong/workspace/atlantis_fw/AsicFwS2/src/../include/matrix.h **** 
 848              		.loc 1 34 0
 849 00a8 019B     		ldr	r3, [sp, #4]	@ float
 850              	.LBE310:
 851              	.LBE309:
 852              	.LBB312:
 853              	.LBB313:
 854 00aa CAF80060 		str	r6, [r10]	@ float
 855 00ae CAF80450 		str	r5, [r10, #4]	@ float
 856              	.LVL96:
 857              	.LBE313:
 858              	.LBE312:
 859              	.LBB314:
 860              	.LBB311:
 861 00b2 3B60     		str	r3, [r7]	@ float
 862 00b4 7D60     		str	r5, [r7, #4]	@ float
 863 00b6 77E0     		b	.L74
 864              	.LVL97:
 865              	.L70:
 866              	.LBE311:
 867              	.LBE314:
 868              	.LBE306:
 869              	.LBE301:
  29:/home/tienluong/workspace/atlantis_fw/AsicFwS2/src/line2.cpp ****         p1 = { start_x, left_y };
  30:/home/tienluong/workspace/atlantis_fw/AsicFwS2/src/line2.cpp ****         p2 = { end_x,   left_y };
  31:/home/tienluong/workspace/atlantis_fw/AsicFwS2/src/line2.cpp ****         return true;
  32:/home/tienluong/workspace/atlantis_fw/AsicFwS2/src/line2.cpp ****     }
  33:/home/tienluong/workspace/atlantis_fw/AsicFwS2/src/line2.cpp **** 
  34:/home/tienluong/workspace/atlantis_fw/AsicFwS2/src/line2.cpp ****     // find the four intersections
  35:/home/tienluong/workspace/atlantis_fw/AsicFwS2/src/line2.cpp ****     bool first_done = false;
  36:/home/tienluong/workspace/atlantis_fw/AsicFwS2/src/line2.cpp **** 
  37:/home/tienluong/workspace/atlantis_fw/AsicFwS2/src/line2.cpp ****     // left
  38:/home/tienluong/workspace/atlantis_fw/AsicFwS2/src/line2.cpp ****     float left_y  = line.yGivenX( start_x );
 870              		.loc 4 38 0
 871 00b8 3146     		mov	r1, r6
 872 00ba 0390     		str	r0, [sp, #12]
 873              	.LVL98:
 874 00bc 2846     		mov	r0, r5
 875 00be 9047     		blx	r2
 876              	.LVL99:
 877 00c0 8146     		mov	r9, r0
 878              	.LVL100:
  39:/home/tienluong/workspace/atlantis_fw/AsicFwS2/src/line2.cpp ****     if( inSpan( left_y, start_y, end_y ) )
 879              		.loc 4 39 0
 880 00c2 D847     		blx	fp
 881              	.LVL101:
 882              	.LBB316:
 883              	.LBB317:
  13:/home/tienluong/workspace/atlantis_fw/AsicFwS2/src/line2.cpp **** 
 884              		.loc 4 13 0
 885 00c4 464B     		ldr	r3, .L76+16
 886 00c6 9847     		blx	r3
 887              	.LVL102:
 888 00c8 434B     		ldr	r3, .L76+8
 889 00ca 2146     		mov	r1, r4
 890 00cc 8346     		mov	fp, r0
 891 00ce 9847     		blx	r3
 892              	.LVL103:
 893 00d0 039B     		ldr	r3, [sp, #12]
 894 00d2 30B1     		cbz	r0, .L71
 895 00d4 5846     		mov	r0, fp
 896 00d6 0299     		ldr	r1, [sp, #8]	@ float
 897 00d8 C047     		blx	r8
 898              	.LVL104:
 899 00da 0028     		cmp	r0, #0
 900 00dc 66D1     		bne	.L46
 901              	.LBE317:
 902              	.LBE316:
  35:/home/tienluong/workspace/atlantis_fw/AsicFwS2/src/line2.cpp **** 
 903              		.loc 4 35 0
 904 00de 8046     		mov	r8, r0
 905 00e0 00E0     		b	.L44
 906              	.L71:
 907 00e2 9846     		mov	r8, r3
 908              	.LVL105:
 909              	.L44:
  40:/home/tienluong/workspace/atlantis_fw/AsicFwS2/src/line2.cpp ****     {
  41:/home/tienluong/workspace/atlantis_fw/AsicFwS2/src/line2.cpp ****         p1 = { start_x, left_y }; first_done = true;
  42:/home/tienluong/workspace/atlantis_fw/AsicFwS2/src/line2.cpp ****     }
  43:/home/tienluong/workspace/atlantis_fw/AsicFwS2/src/line2.cpp **** 
  44:/home/tienluong/workspace/atlantis_fw/AsicFwS2/src/line2.cpp ****     // right
  45:/home/tienluong/workspace/atlantis_fw/AsicFwS2/src/line2.cpp ****     float right_y = line.yGivenX( end_x );
 910              		.loc 4 45 0
 911 00e4 0199     		ldr	r1, [sp, #4]	@ float
 912 00e6 2846     		mov	r0, r5
 913 00e8 3C4B     		ldr	r3, .L76+12
 914 00ea 9847     		blx	r3
 915              	.LVL106:
  46:/home/tienluong/workspace/atlantis_fw/AsicFwS2/src/line2.cpp ****     if( inSpan( right_y, start_y, end_y ) )
 916              		.loc 4 46 0
 917 00ec DFF8FCB0 		ldr	fp, .L76+28
  45:/home/tienluong/workspace/atlantis_fw/AsicFwS2/src/line2.cpp ****     if( inSpan( right_y, start_y, end_y ) )
 918              		.loc 4 45 0
 919 00f0 8146     		mov	r9, r0
 920              	.LVL107:
 921              		.loc 4 46 0
 922 00f2 D847     		blx	fp
 923              	.LVL108:
 924              	.LBB318:
 925              	.LBB319:
  13:/home/tienluong/workspace/atlantis_fw/AsicFwS2/src/line2.cpp **** 
 926              		.loc 4 13 0
 927 00f4 3A4B     		ldr	r3, .L76+16
 928 00f6 9847     		blx	r3
 929              	.LVL109:
 930 00f8 2146     		mov	r1, r4
 931 00fa 374B     		ldr	r3, .L76+8
 932 00fc 0390     		str	r0, [sp, #12]
 933 00fe 9847     		blx	r3
 934              	.LVL110:
 935 0100 039A     		ldr	r2, [sp, #12]
 936 0102 68B1     		cbz	r0, .L47
 937 0104 1046     		mov	r0, r2
 938 0106 0299     		ldr	r1, [sp, #8]	@ float
 939 0108 364B     		ldr	r3, .L76+20
 940 010a 9847     		blx	r3
 941              	.LVL111:
 942 010c 0028     		cmp	r0, #0
 943 010e 44D1     		bne	.L49
 944 0110 06E0     		b	.L47
 945              	.L72:
 946              	.LVL112:
 947              	.LBE319:
 948              	.LBE318:
  47:/home/tienluong/workspace/atlantis_fw/AsicFwS2/src/line2.cpp ****     {
  48:/home/tienluong/workspace/atlantis_fw/AsicFwS2/src/line2.cpp ****         if( first_done )
  49:/home/tienluong/workspace/atlantis_fw/AsicFwS2/src/line2.cpp ****         {
  50:/home/tienluong/workspace/atlantis_fw/AsicFwS2/src/line2.cpp ****             p2 = { end_x, right_y };
  51:/home/tienluong/workspace/atlantis_fw/AsicFwS2/src/line2.cpp ****             return true;
  52:/home/tienluong/workspace/atlantis_fw/AsicFwS2/src/line2.cpp ****         }
  53:/home/tienluong/workspace/atlantis_fw/AsicFwS2/src/line2.cpp ****         p1 = { end_x, right_y };
  54:/home/tienluong/workspace/atlantis_fw/AsicFwS2/src/line2.cpp ****         first_done = 1;
 949              		.loc 4 54 0
 950 0112 4FF00108 		mov	r8, #1
 951              	.LVL113:
 952              	.LBB320:
 953              	.LBB321:
  34:/home/tienluong/workspace/atlantis_fw/AsicFwS2/src/../include/matrix.h **** 
 954              		.loc 1 34 0
 955 0116 019B     		ldr	r3, [sp, #4]	@ float
 956 0118 CAF80030 		str	r3, [r10]	@ float
 957 011c CAF80490 		str	r9, [r10, #4]	@ float
 958              	.LVL114:
 959              	.L47:
 960              	.LBE321:
 961              	.LBE320:
  55:/home/tienluong/workspace/atlantis_fw/AsicFwS2/src/line2.cpp ****     }
  56:/home/tienluong/workspace/atlantis_fw/AsicFwS2/src/line2.cpp **** 
  57:/home/tienluong/workspace/atlantis_fw/AsicFwS2/src/line2.cpp ****     // top
  58:/home/tienluong/workspace/atlantis_fw/AsicFwS2/src/line2.cpp ****     float top_x   = line.xGivenY( start_y );
 962              		.loc 4 58 0
 963 0120 2146     		mov	r1, r4
 964 0122 2846     		mov	r0, r5
 965 0124 2B4B     		ldr	r3, .L76+4
 966 0126 0593     		str	r3, [sp, #20]
 967 0128 9847     		blx	r3
 968              	.LVL115:
 969              	.LBB322:
 970              	.LBB323:
  13:/home/tienluong/workspace/atlantis_fw/AsicFwS2/src/line2.cpp **** 
 971              		.loc 4 13 0
 972 012a DFF8AC90 		ldr	r9, .L76+8
 973              	.LVL116:
 974              	.LBE323:
 975              	.LBE322:
 976              		.loc 4 58 0
 977 012e 0390     		str	r0, [sp, #12]	@ float
 978              	.LVL117:
  59:/home/tienluong/workspace/atlantis_fw/AsicFwS2/src/line2.cpp ****     if( inSpan( top_x, start_x, end_x ) )
 979              		.loc 4 59 0
 980 0130 D847     		blx	fp
 981              	.LVL118:
 982              	.LBB325:
 983              	.LBB324:
  13:/home/tienluong/workspace/atlantis_fw/AsicFwS2/src/line2.cpp **** 
 984              		.loc 4 13 0
 985 0132 2B4B     		ldr	r3, .L76+16
 986 0134 9847     		blx	r3
 987              	.LVL119:
 988 0136 3146     		mov	r1, r6
 989 0138 0490     		str	r0, [sp, #16]
 990 013a C847     		blx	r9
 991              	.LVL120:
 992 013c 059B     		ldr	r3, [sp, #20]
 993 013e 049A     		ldr	r2, [sp, #16]
 994 0140 78B1     		cbz	r0, .L50
 995 0142 0493     		str	r3, [sp, #16]
 996 0144 1046     		mov	r0, r2
 997 0146 0199     		ldr	r1, [sp, #4]	@ float
 998 0148 264A     		ldr	r2, .L76+20
 999 014a 9047     		blx	r2
 1000              	.LVL121:
 1001 014c 049B     		ldr	r3, [sp, #16]
 1002 014e 0028     		cmp	r0, #0
 1003 0150 33D1     		bne	.L52
 1004 0152 06E0     		b	.L50
 1005              	.L73:
 1006              	.LVL122:
 1007              	.LBE324:
 1008              	.LBE325:
  60:/home/tienluong/workspace/atlantis_fw/AsicFwS2/src/line2.cpp ****     {
  61:/home/tienluong/workspace/atlantis_fw/AsicFwS2/src/line2.cpp ****         if( first_done )
  62:/home/tienluong/workspace/atlantis_fw/AsicFwS2/src/line2.cpp ****         {
  63:/home/tienluong/workspace/atlantis_fw/AsicFwS2/src/line2.cpp ****             p2 = { top_x, start_y };
  64:/home/tienluong/workspace/atlantis_fw/AsicFwS2/src/line2.cpp ****             return true;
  65:/home/tienluong/workspace/atlantis_fw/AsicFwS2/src/line2.cpp ****         }
  66:/home/tienluong/workspace/atlantis_fw/AsicFwS2/src/line2.cpp ****         p1 = { top_x, start_y };
  67:/home/tienluong/workspace/atlantis_fw/AsicFwS2/src/line2.cpp ****         first_done = 1;
 1009              		.loc 4 67 0
 1010 0154 4FF00108 		mov	r8, #1
 1011              	.LVL123:
 1012              	.LBB326:
 1013              	.LBB327:
  34:/home/tienluong/workspace/atlantis_fw/AsicFwS2/src/../include/matrix.h **** 
 1014              		.loc 1 34 0
 1015 0158 039A     		ldr	r2, [sp, #12]	@ float
 1016 015a CAF80020 		str	r2, [r10]	@ float
 1017 015e CAF80440 		str	r4, [r10, #4]	@ float
 1018              	.LVL124:
 1019              	.L50:
 1020              	.LBE327:
 1021              	.LBE326:
  68:/home/tienluong/workspace/atlantis_fw/AsicFwS2/src/line2.cpp ****     }
  69:/home/tienluong/workspace/atlantis_fw/AsicFwS2/src/line2.cpp **** 
  70:/home/tienluong/workspace/atlantis_fw/AsicFwS2/src/line2.cpp ****     // bottom
  71:/home/tienluong/workspace/atlantis_fw/AsicFwS2/src/line2.cpp ****     float bot_x   = line.xGivenY( end_y );
 1022              		.loc 4 71 0
 1023 0162 0299     		ldr	r1, [sp, #8]	@ float
 1024 0164 2846     		mov	r0, r5
 1025 0166 9847     		blx	r3
 1026              	.LVL125:
 1027 0168 0446     		mov	r4, r0
 1028              	.LVL126:
  72:/home/tienluong/workspace/atlantis_fw/AsicFwS2/src/line2.cpp ****     if( inSpan( bot_x, start_x, end_x ) )
 1029              		.loc 4 72 0
 1030 016a D847     		blx	fp
 1031              	.LVL127:
 1032              	.LBB328:
 1033              	.LBB329:
  13:/home/tienluong/workspace/atlantis_fw/AsicFwS2/src/line2.cpp **** 
 1034              		.loc 4 13 0
 1035 016c 1C4B     		ldr	r3, .L76+16
 1036 016e 9847     		blx	r3
 1037              	.LVL128:
 1038 0170 3146     		mov	r1, r6
 1039 0172 0546     		mov	r5, r0
 1040              	.LVL129:
 1041 0174 C847     		blx	r9
 1042              	.LVL130:
 1043 0176 0028     		cmp	r0, #0
 1044 0178 3FF471AF 		beq	.L39
 1045 017c 2846     		mov	r0, r5
 1046 017e 0199     		ldr	r1, [sp, #4]	@ float
 1047 0180 184B     		ldr	r3, .L76+20
 1048 0182 9847     		blx	r3
 1049              	.LVL131:
 1050 0184 0028     		cmp	r0, #0
 1051 0186 3FF46AAF 		beq	.L39
 1052              	.LBE329:
 1053              	.LBE328:
  73:/home/tienluong/workspace/atlantis_fw/AsicFwS2/src/line2.cpp ****     {
  74:/home/tienluong/workspace/atlantis_fw/AsicFwS2/src/line2.cpp ****         if( first_done )
 1054              		.loc 4 74 0
 1055 018a B8F1000F 		cmp	r8, #0
 1056 018e 3FF466AF 		beq	.L39
 1057              	.LVL132:
 1058              	.LBB330:
 1059              	.LBB331:
  34:/home/tienluong/workspace/atlantis_fw/AsicFwS2/src/../include/matrix.h **** 
 1060              		.loc 1 34 0
 1061 0192 3C60     		str	r4, [r7]	@ float
 1062              	.LVL133:
 1063              	.L75:
 1064              	.LBE331:
 1065              	.LBE330:
 1066              	.LBB332:
 1067              	.LBB299:
 1068              	.LBB298:
 1069              	.LBB297:
 1070 0194 029B     		ldr	r3, [sp, #8]	@ float
 1071 0196 7B60     		str	r3, [r7, #4]	@ float
 1072 0198 06E0     		b	.L74
 1073              	.LVL134:
 1074              	.L49:
 1075              	.LBE297:
 1076              	.LBE298:
 1077              	.LBE299:
 1078              	.LBE332:
  48:/home/tienluong/workspace/atlantis_fw/AsicFwS2/src/line2.cpp ****         {
 1079              		.loc 4 48 0
 1080 019a B8F1000F 		cmp	r8, #0
 1081 019e B8D0     		beq	.L72
 1082              	.LVL135:
 1083              	.LBB333:
 1084              	.LBB334:
  34:/home/tienluong/workspace/atlantis_fw/AsicFwS2/src/../include/matrix.h **** 
 1085              		.loc 1 34 0
 1086 01a0 019B     		ldr	r3, [sp, #4]	@ float
 1087 01a2 3B60     		str	r3, [r7]	@ float
 1088 01a4 C7F80490 		str	r9, [r7, #4]	@ float
 1089              	.LVL136:
 1090              	.L74:
 1091              	.LBE334:
 1092              	.LBE333:
 1093              	.LBB335:
 1094              	.LBB315:
  31:/home/tienluong/workspace/atlantis_fw/AsicFwS2/src/line2.cpp ****     }
 1095              		.loc 4 31 0
 1096 01a8 0120     		movs	r0, #1
 1097 01aa 0DE0     		b	.L69
 1098              	.LVL137:
 1099              	.L46:
 1100              	.LBE315:
 1101              	.LBE335:
 1102              	.LBB336:
 1103              	.LBB337:
  34:/home/tienluong/workspace/atlantis_fw/AsicFwS2/src/../include/matrix.h **** 
 1104              		.loc 1 34 0
 1105 01ac CAF80060 		str	r6, [r10]	@ float
 1106              	.LBE337:
 1107              	.LBE336:
  41:/home/tienluong/workspace/atlantis_fw/AsicFwS2/src/line2.cpp ****     }
 1108              		.loc 4 41 0
 1109 01b0 4FF00108 		mov	r8, #1
 1110              	.LBB339:
 1111              	.LBB338:
  34:/home/tienluong/workspace/atlantis_fw/AsicFwS2/src/../include/matrix.h **** 
 1112              		.loc 1 34 0
 1113 01b4 CAF80490 		str	r9, [r10, #4]	@ float
 1114              	.LVL138:
 1115              	.LBE338:
 1116              	.LBE339:
 1117 01b8 94E7     		b	.L44
 1118              	.LVL139:
 1119              	.L52:
  61:/home/tienluong/workspace/atlantis_fw/AsicFwS2/src/line2.cpp ****         {
 1120              		.loc 4 61 0
 1121 01ba B8F1000F 		cmp	r8, #0
 1122 01be C9D0     		beq	.L73
 1123              	.LVL140:
 1124              	.LBB340:
 1125              	.LBB341:
  34:/home/tienluong/workspace/atlantis_fw/AsicFwS2/src/../include/matrix.h **** 
 1126              		.loc 1 34 0
 1127 01c0 039B     		ldr	r3, [sp, #12]	@ float
 1128 01c2 3B60     		str	r3, [r7]	@ float
 1129 01c4 7C60     		str	r4, [r7, #4]	@ float
 1130 01c6 EFE7     		b	.L74
 1131              	.LVL141:
 1132              	.L69:
 1133              	.LBE341:
 1134              	.LBE340:
 1135              	.LBE344:
  75:/home/tienluong/workspace/atlantis_fw/AsicFwS2/src/line2.cpp ****         {
  76:/home/tienluong/workspace/atlantis_fw/AsicFwS2/src/line2.cpp ****             p2 = { bot_x, end_y };
  77:/home/tienluong/workspace/atlantis_fw/AsicFwS2/src/line2.cpp ****             return true;
  78:/home/tienluong/workspace/atlantis_fw/AsicFwS2/src/line2.cpp ****         }
  79:/home/tienluong/workspace/atlantis_fw/AsicFwS2/src/line2.cpp ****     }
  80:/home/tienluong/workspace/atlantis_fw/AsicFwS2/src/line2.cpp ****     return false;
  81:/home/tienluong/workspace/atlantis_fw/AsicFwS2/src/line2.cpp **** }
 1136              		.loc 4 81 0
 1137 01c8 07B0     		add	sp, sp, #28
 1138              	.LCFI12:
 1139              		.cfi_def_cfa_offset 36
 1140              		@ sp needed
 1141 01ca BDE8F08F 		pop	{r4, r5, r6, r7, r8, r9, r10, fp, pc}
 1142              	.LVL142:
 1143              	.L77:
 1144 01ce 00BF     		.align	2
 1145              	.L76:
 1146 01d0 0000A035 		.word	899678208
 1147 01d4 00000000 		.word	_ZNK4ltaf5Line2IfE7xGivenYEf
 1148 01d8 00000000 		.word	__aeabi_fcmpge
 1149 01dc 00000000 		.word	_ZNK4ltaf5Line2IfE7yGivenXEf
 1150 01e0 00000000 		.word	__aeabi_i2f
 1151 01e4 00000000 		.word	__aeabi_fcmplt
 1152 01e8 00000000 		.word	__aeabi_fadd
 1153 01ec 00000000 		.word	__aeabi_f2iz
 1154              		.cfi_endproc
 1155              	.LFE2572:
 1157              		.section	.text._ZNK4ltaf20SquareMatrixInverterIfLi3EE3runEPf,"axG",%progbits,_ZNK4ltaf20SquareMatr
 1158              		.align	1
 1159              		.weak	_ZNK4ltaf20SquareMatrixInverterIfLi3EE3runEPf
 1160              		.thumb
 1161              		.thumb_func
 1163              	_ZNK4ltaf20SquareMatrixInverterIfLi3EE3runEPf:
 1164              	.LFB2669:
1140:/home/tienluong/workspace/atlantis_fw/AsicFwS2/src/../include/matrix.h ****     {
 1165              		.loc 1 1140 0
 1166              		.cfi_startproc
 1167              		@ args = 0, pretend = 0, frame = 72
 1168              		@ frame_needed = 0, uses_anonymous_args = 0
 1169              	.LVL143:
 1170 0000 2DE9F04F 		push	{r4, r5, r6, r7, r8, r9, r10, fp, lr}
 1171              	.LCFI13:
 1172              		.cfi_def_cfa_offset 36
 1173              		.cfi_offset 4, -36
 1174              		.cfi_offset 5, -32
 1175              		.cfi_offset 6, -28
 1176              		.cfi_offset 7, -24
 1177              		.cfi_offset 8, -20
 1178              		.cfi_offset 9, -16
 1179              		.cfi_offset 10, -12
 1180              		.cfi_offset 11, -8
 1181              		.cfi_offset 14, -4
 1182 0004 93B0     		sub	sp, sp, #76
 1183              	.LCFI14:
 1184              		.cfi_def_cfa_offset 112
 1185              	.LBB345:
1142:/home/tienluong/workspace/atlantis_fw/AsicFwS2/src/../include/matrix.h ****                       - mat[1] * ( mat[3] * mat[8] - mat[5] * mat[6] )
 1186              		.loc 1 1142 0
 1187 0006 0B69     		ldr	r3, [r1, #16]	@ float
 1188              	.LBE345:
1140:/home/tienluong/workspace/atlantis_fw/AsicFwS2/src/../include/matrix.h ****     {
 1189              		.loc 1 1140 0
 1190 0008 8946     		mov	r9, r1
 1191              	.LBB348:
1142:/home/tienluong/workspace/atlantis_fw/AsicFwS2/src/../include/matrix.h ****                       - mat[1] * ( mat[3] * mat[8] - mat[5] * mat[6] )
 1192              		.loc 1 1142 0
 1193 000a D1F820A0 		ldr	r10, [r1, #32]	@ float
 1194 000e 0093     		str	r3, [sp]	@ float
 1195 0010 CB69     		ldr	r3, [r1, #28]	@ float
1144:/home/tienluong/workspace/atlantis_fw/AsicFwS2/src/../include/matrix.h **** 
 1196              		.loc 1 1144 0
 1197 0012 554C     		ldr	r4, .L81
1142:/home/tienluong/workspace/atlantis_fw/AsicFwS2/src/../include/matrix.h ****                       - mat[1] * ( mat[3] * mat[8] - mat[5] * mat[6] )
 1198              		.loc 1 1142 0
 1199 0014 0F68     		ldr	r7, [r1]	@ float
 1200 0016 0193     		str	r3, [sp, #4]	@ float
1144:/home/tienluong/workspace/atlantis_fw/AsicFwS2/src/../include/matrix.h **** 
 1201              		.loc 1 1144 0
 1202 0018 0098     		ldr	r0, [sp]	@ float
 1203              	.LVL144:
1142:/home/tienluong/workspace/atlantis_fw/AsicFwS2/src/../include/matrix.h ****                       - mat[1] * ( mat[3] * mat[8] - mat[5] * mat[6] )
 1204              		.loc 1 1142 0
 1205 001a 4B69     		ldr	r3, [r1, #20]	@ float
1144:/home/tienluong/workspace/atlantis_fw/AsicFwS2/src/../include/matrix.h **** 
 1206              		.loc 1 1144 0
 1207 001c 5146     		mov	r1, r10
 1208              	.LVL145:
1142:/home/tienluong/workspace/atlantis_fw/AsicFwS2/src/../include/matrix.h ****                       - mat[1] * ( mat[3] * mat[8] - mat[5] * mat[6] )
 1209              		.loc 1 1142 0
 1210 001e 0293     		str	r3, [sp, #8]	@ float
1144:/home/tienluong/workspace/atlantis_fw/AsicFwS2/src/../include/matrix.h **** 
 1211              		.loc 1 1144 0
 1212 0020 A047     		blx	r4
 1213              	.LVL146:
 1214 0022 0299     		ldr	r1, [sp, #8]	@ float
 1215 0024 514D     		ldr	r5, .L81+4
 1216 0026 0646     		mov	r6, r0
 1217 0028 0198     		ldr	r0, [sp, #4]	@ float
 1218 002a A047     		blx	r4
 1219              	.LVL147:
 1220 002c 0146     		mov	r1, r0
 1221 002e 3046     		mov	r0, r6
 1222 0030 A847     		blx	r5
 1223              	.LVL148:
1143:/home/tienluong/workspace/atlantis_fw/AsicFwS2/src/../include/matrix.h ****                       + mat[2] * ( mat[3] * mat[7] - mat[4] * mat[6] );
 1224              		.loc 1 1143 0
 1225 0032 D9F80C30 		ldr	r3, [r9, #12]	@ float
 1226 0036 0393     		str	r3, [sp, #12]	@ float
1144:/home/tienluong/workspace/atlantis_fw/AsicFwS2/src/../include/matrix.h **** 
 1227              		.loc 1 1144 0
 1228 0038 5146     		mov	r1, r10
1143:/home/tienluong/workspace/atlantis_fw/AsicFwS2/src/../include/matrix.h ****                       + mat[2] * ( mat[3] * mat[7] - mat[4] * mat[6] );
 1229              		.loc 1 1143 0
 1230 003a D9F81830 		ldr	r3, [r9, #24]	@ float
 1231 003e 0493     		str	r3, [sp, #16]	@ float
 1232 0040 D9F80460 		ldr	r6, [r9, #4]	@ float
1144:/home/tienluong/workspace/atlantis_fw/AsicFwS2/src/../include/matrix.h **** 
 1233              		.loc 1 1144 0
 1234 0044 8346     		mov	fp, r0
 1235 0046 0398     		ldr	r0, [sp, #12]	@ float
 1236 0048 A047     		blx	r4
 1237              	.LVL149:
 1238 004a 0499     		ldr	r1, [sp, #16]	@ float
 1239 004c 8046     		mov	r8, r0
 1240 004e 0298     		ldr	r0, [sp, #8]	@ float
 1241 0050 A047     		blx	r4
 1242              	.LVL150:
 1243 0052 0146     		mov	r1, r0
 1244 0054 4046     		mov	r0, r8
 1245 0056 A847     		blx	r5
 1246              	.LVL151:
 1247 0058 0199     		ldr	r1, [sp, #4]	@ float
 1248 005a D9F80880 		ldr	r8, [r9, #8]	@ float
 1249 005e 0590     		str	r0, [sp, #20]	@ float
 1250 0060 0398     		ldr	r0, [sp, #12]	@ float
 1251 0062 A047     		blx	r4
 1252              	.LVL152:
 1253 0064 0499     		ldr	r1, [sp, #16]	@ float
 1254 0066 0690     		str	r0, [sp, #24]
 1255 0068 0098     		ldr	r0, [sp]	@ float
 1256 006a A047     		blx	r4
 1257              	.LVL153:
 1258 006c 069A     		ldr	r2, [sp, #24]
 1259 006e 0146     		mov	r1, r0
 1260 0070 1046     		mov	r0, r2
 1261 0072 A847     		blx	r5
 1262              	.LVL154:
 1263 0074 5946     		mov	r1, fp
 1264 0076 0690     		str	r0, [sp, #24]	@ float
 1265              	.LVL155:
 1266 0078 3846     		mov	r0, r7
 1267              	.LVL156:
 1268 007a A047     		blx	r4
 1269              	.LVL157:
 1270 007c 0599     		ldr	r1, [sp, #20]	@ float
 1271 007e 0790     		str	r0, [sp, #28]
 1272 0080 3046     		mov	r0, r6
 1273 0082 A047     		blx	r4
 1274              	.LVL158:
 1275 0084 079A     		ldr	r2, [sp, #28]
 1276 0086 0146     		mov	r1, r0
 1277 0088 1046     		mov	r0, r2
 1278 008a A847     		blx	r5
 1279              	.LVL159:
 1280 008c 0699     		ldr	r1, [sp, #24]	@ float
 1281 008e 0790     		str	r0, [sp, #28]
 1282 0090 4046     		mov	r0, r8
 1283 0092 A047     		blx	r4
 1284              	.LVL160:
 1285 0094 079A     		ldr	r2, [sp, #28]
 1286 0096 0146     		mov	r1, r0
 1287 0098 1046     		mov	r0, r2
 1288 009a 354A     		ldr	r2, .L81+8
 1289 009c 9047     		blx	r2
 1290              	.LVL161:
1146:/home/tienluong/workspace/atlantis_fw/AsicFwS2/src/../include/matrix.h **** 
 1291              		.loc 1 1146 0
 1292 009e 354A     		ldr	r2, .L81+12
1144:/home/tienluong/workspace/atlantis_fw/AsicFwS2/src/../include/matrix.h **** 
 1293              		.loc 1 1144 0
 1294 00a0 0146     		mov	r1, r0
1146:/home/tienluong/workspace/atlantis_fw/AsicFwS2/src/../include/matrix.h **** 
 1295              		.loc 1 1146 0
 1296 00a2 4FF07E50 		mov	r0, #1065353216
 1297 00a6 9047     		blx	r2
 1298              	.LVL162:
1150:/home/tienluong/workspace/atlantis_fw/AsicFwS2/src/../include/matrix.h ****         tmp[2] =  mat[1] * mat[5] - mat[2] * mat[4];
 1299              		.loc 1 1150 0
 1300 00a8 5146     		mov	r1, r10
1149:/home/tienluong/workspace/atlantis_fw/AsicFwS2/src/../include/matrix.h ****         tmp[1] = -( mat[1] * mat[8] - mat[2] * mat[7] );
 1301              		.loc 1 1149 0
 1302 00aa CDF824B0 		str	fp, [sp, #36]	@ float
1146:/home/tienluong/workspace/atlantis_fw/AsicFwS2/src/../include/matrix.h **** 
 1303              		.loc 1 1146 0
 1304 00ae 0790     		str	r0, [sp, #28]	@ float
 1305              	.LVL163:
1150:/home/tienluong/workspace/atlantis_fw/AsicFwS2/src/../include/matrix.h ****         tmp[2] =  mat[1] * mat[5] - mat[2] * mat[4];
 1306              		.loc 1 1150 0
 1307 00b0 3046     		mov	r0, r6
 1308              	.LVL164:
 1309 00b2 A047     		blx	r4
 1310              	.LVL165:
 1311 00b4 0199     		ldr	r1, [sp, #4]	@ float
 1312 00b6 8346     		mov	fp, r0
 1313              	.LVL166:
 1314 00b8 4046     		mov	r0, r8
 1315 00ba A047     		blx	r4
 1316              	.LVL167:
 1317 00bc 0146     		mov	r1, r0
 1318 00be 5846     		mov	r0, fp
 1319 00c0 A847     		blx	r5
 1320              	.LVL168:
1151:/home/tienluong/workspace/atlantis_fw/AsicFwS2/src/../include/matrix.h ****         tmp[3] = -( mat[3] * mat[8] - mat[5] * mat[6] );
 1321              		.loc 1 1151 0
 1322 00c2 0299     		ldr	r1, [sp, #8]	@ float
1150:/home/tienluong/workspace/atlantis_fw/AsicFwS2/src/../include/matrix.h ****         tmp[2] =  mat[1] * mat[5] - mat[2] * mat[4];
 1323              		.loc 1 1150 0
 1324 00c4 00F10040 		add	r0, r0, #-2147483648
 1325 00c8 0A90     		str	r0, [sp, #40]	@ float
1151:/home/tienluong/workspace/atlantis_fw/AsicFwS2/src/../include/matrix.h ****         tmp[3] = -( mat[3] * mat[8] - mat[5] * mat[6] );
 1326              		.loc 1 1151 0
 1327 00ca 3046     		mov	r0, r6
 1328 00cc A047     		blx	r4
 1329              	.LVL169:
 1330 00ce 0099     		ldr	r1, [sp]	@ float
 1331 00d0 8346     		mov	fp, r0
 1332 00d2 4046     		mov	r0, r8
 1333 00d4 A047     		blx	r4
 1334              	.LVL170:
 1335 00d6 0146     		mov	r1, r0
 1336 00d8 5846     		mov	r0, fp
 1337 00da A847     		blx	r5
 1338              	.LVL171:
1152:/home/tienluong/workspace/atlantis_fw/AsicFwS2/src/../include/matrix.h ****         tmp[4] =  mat[0] * mat[8] - mat[2] * mat[6];
 1339              		.loc 1 1152 0
 1340 00dc 059B     		ldr	r3, [sp, #20]
1153:/home/tienluong/workspace/atlantis_fw/AsicFwS2/src/../include/matrix.h ****         tmp[5] = -( mat[0] * mat[5] - mat[3] * mat[2] );
 1341              		.loc 1 1153 0
 1342 00de 5146     		mov	r1, r10
1152:/home/tienluong/workspace/atlantis_fw/AsicFwS2/src/../include/matrix.h ****         tmp[4] =  mat[0] * mat[8] - mat[2] * mat[6];
 1343              		.loc 1 1152 0
 1344 00e0 03F10042 		add	r2, r3, #-2147483648
 1345 00e4 0C92     		str	r2, [sp, #48]	@ float
1151:/home/tienluong/workspace/atlantis_fw/AsicFwS2/src/../include/matrix.h ****         tmp[3] = -( mat[3] * mat[8] - mat[5] * mat[6] );
 1346              		.loc 1 1151 0
 1347 00e6 0B90     		str	r0, [sp, #44]	@ float
1153:/home/tienluong/workspace/atlantis_fw/AsicFwS2/src/../include/matrix.h ****         tmp[5] = -( mat[0] * mat[5] - mat[3] * mat[2] );
 1348              		.loc 1 1153 0
 1349 00e8 3846     		mov	r0, r7
 1350 00ea A047     		blx	r4
 1351              	.LVL172:
 1352 00ec 0499     		ldr	r1, [sp, #16]	@ float
 1353 00ee 8246     		mov	r10, r0
 1354 00f0 4046     		mov	r0, r8
 1355 00f2 A047     		blx	r4
 1356              	.LVL173:
 1357 00f4 0146     		mov	r1, r0
 1358 00f6 5046     		mov	r0, r10
 1359 00f8 A847     		blx	r5
 1360              	.LVL174:
1154:/home/tienluong/workspace/atlantis_fw/AsicFwS2/src/../include/matrix.h ****         tmp[6] =  mat[3] * mat[7] - mat[6] * mat[ 4];
 1361              		.loc 1 1154 0
 1362 00fa 0299     		ldr	r1, [sp, #8]	@ float
1153:/home/tienluong/workspace/atlantis_fw/AsicFwS2/src/../include/matrix.h ****         tmp[5] = -( mat[0] * mat[5] - mat[3] * mat[2] );
 1363              		.loc 1 1153 0
 1364 00fc 0D90     		str	r0, [sp, #52]	@ float
1154:/home/tienluong/workspace/atlantis_fw/AsicFwS2/src/../include/matrix.h ****         tmp[6] =  mat[3] * mat[7] - mat[6] * mat[ 4];
 1365              		.loc 1 1154 0
 1366 00fe 3846     		mov	r0, r7
 1367 0100 A047     		blx	r4
 1368              	.LVL175:
 1369 0102 4146     		mov	r1, r8
 1370 0104 8246     		mov	r10, r0
 1371 0106 0398     		ldr	r0, [sp, #12]	@ float
 1372 0108 A047     		blx	r4
 1373              	.LVL176:
 1374 010a 0146     		mov	r1, r0
 1375 010c 5046     		mov	r0, r10
 1376 010e A847     		blx	r5
 1377              	.LVL177:
1155:/home/tienluong/workspace/atlantis_fw/AsicFwS2/src/../include/matrix.h ****         tmp[7] = -( mat[0] * mat[7] - mat[6] * mat[1] );
 1378              		.loc 1 1155 0
 1379 0110 069B     		ldr	r3, [sp, #24]	@ float
1156:/home/tienluong/workspace/atlantis_fw/AsicFwS2/src/../include/matrix.h ****         tmp[8] =  mat[0] * mat[4] - mat[3] * mat[1];
 1380              		.loc 1 1156 0
 1381 0112 0199     		ldr	r1, [sp, #4]	@ float
1155:/home/tienluong/workspace/atlantis_fw/AsicFwS2/src/../include/matrix.h ****         tmp[7] = -( mat[0] * mat[7] - mat[6] * mat[1] );
 1382              		.loc 1 1155 0
 1383 0114 0F93     		str	r3, [sp, #60]	@ float
1154:/home/tienluong/workspace/atlantis_fw/AsicFwS2/src/../include/matrix.h ****         tmp[6] =  mat[3] * mat[7] - mat[6] * mat[ 4];
 1384              		.loc 1 1154 0
 1385 0116 00F10040 		add	r0, r0, #-2147483648
 1386 011a 0E90     		str	r0, [sp, #56]	@ float
1156:/home/tienluong/workspace/atlantis_fw/AsicFwS2/src/../include/matrix.h ****         tmp[8] =  mat[0] * mat[4] - mat[3] * mat[1];
 1387              		.loc 1 1156 0
 1388 011c 3846     		mov	r0, r7
 1389 011e A047     		blx	r4
 1390              	.LVL178:
 1391 0120 3146     		mov	r1, r6
 1392 0122 8046     		mov	r8, r0
 1393 0124 0498     		ldr	r0, [sp, #16]	@ float
 1394 0126 A047     		blx	r4
 1395              	.LVL179:
 1396 0128 0146     		mov	r1, r0
 1397 012a 4046     		mov	r0, r8
 1398 012c A847     		blx	r5
 1399              	.LVL180:
1157:/home/tienluong/workspace/atlantis_fw/AsicFwS2/src/../include/matrix.h **** 
 1400              		.loc 1 1157 0
 1401 012e 0099     		ldr	r1, [sp]	@ float
1156:/home/tienluong/workspace/atlantis_fw/AsicFwS2/src/../include/matrix.h ****         tmp[8] =  mat[0] * mat[4] - mat[3] * mat[1];
 1402              		.loc 1 1156 0
 1403 0130 00F10040 		add	r0, r0, #-2147483648
 1404 0134 1090     		str	r0, [sp, #64]	@ float
1157:/home/tienluong/workspace/atlantis_fw/AsicFwS2/src/../include/matrix.h **** 
 1405              		.loc 1 1157 0
 1406 0136 3846     		mov	r0, r7
 1407 0138 A047     		blx	r4
 1408              	.LVL181:
 1409 013a 3146     		mov	r1, r6
 1410 013c 0746     		mov	r7, r0
 1411 013e 0398     		ldr	r0, [sp, #12]	@ float
 1412 0140 A047     		blx	r4
 1413              	.LVL182:
 1414 0142 0146     		mov	r1, r0
 1415 0144 3846     		mov	r0, r7
 1416 0146 A847     		blx	r5
 1417              	.LVL183:
 1418              	.LBB346:
1159:/home/tienluong/workspace/atlantis_fw/AsicFwS2/src/../include/matrix.h ****     }
 1419              		.loc 1 1159 0
 1420 0148 0025     		movs	r5, #0
 1421              	.LBE346:
1157:/home/tienluong/workspace/atlantis_fw/AsicFwS2/src/../include/matrix.h **** 
 1422              		.loc 1 1157 0
 1423 014a 1190     		str	r0, [sp, #68]	@ float
 1424              	.LVL184:
 1425              	.L79:
 1426              	.LBB347:
1159:/home/tienluong/workspace/atlantis_fw/AsicFwS2/src/../include/matrix.h ****     }
 1427              		.loc 1 1159 0 discriminator 3
 1428 014c 09AA     		add	r2, sp, #36
 1429 014e 0799     		ldr	r1, [sp, #28]	@ float
 1430 0150 52F82500 		ldr	r0, [r2, r5, lsl #2]	@ float
 1431 0154 A047     		blx	r4
 1432              	.LVL185:
 1433 0156 49F82500 		str	r0, [r9, r5, lsl #2]	@ float
 1434 015a 0135     		adds	r5, r5, #1
 1435              	.LVL186:
 1436 015c 092D     		cmp	r5, #9
 1437 015e F5D1     		bne	.L79
 1438              	.LBE347:
 1439              	.LBE348:
1160:/home/tienluong/workspace/atlantis_fw/AsicFwS2/src/../include/matrix.h **** };
 1440              		.loc 1 1160 0
 1441 0160 13B0     		add	sp, sp, #76
 1442              	.LCFI15:
 1443              		.cfi_def_cfa_offset 36
 1444              		@ sp needed
 1445 0162 BDE8F08F 		pop	{r4, r5, r6, r7, r8, r9, r10, fp, pc}
 1446              	.LVL187:
 1447              	.L82:
 1448 0166 00BF     		.align	2
 1449              	.L81:
 1450 0168 00000000 		.word	__aeabi_fmul
 1451 016c 00000000 		.word	__aeabi_fsub
 1452 0170 00000000 		.word	__aeabi_fadd
 1453 0174 00000000 		.word	__aeabi_fdiv
 1454              		.cfi_endproc
 1455              	.LFE2669:
 1457              		.section	.text._ZN4ltaf7inverseIfLi3ELb1EEENS_6MatrixIT_XT0_EXT0_EXT1_EEERKS3_,"axG",%progbits,_ZN
 1458              		.align	1
 1459              		.weak	_ZN4ltaf7inverseIfLi3ELb1EEENS_6MatrixIT_XT0_EXT0_EXT1_EEERKS3_
 1460              		.thumb
 1461              		.thumb_func
 1463              	_ZN4ltaf7inverseIfLi3ELb1EEENS_6MatrixIT_XT0_EXT0_EXT1_EEERKS3_:
 1464              	.LFB2602:
1247:/home/tienluong/workspace/atlantis_fw/AsicFwS2/src/../include/matrix.h **** {
 1465              		.loc 1 1247 0
 1466              		.cfi_startproc
 1467              		@ args = 0, pretend = 0, frame = 8
 1468              		@ frame_needed = 0, uses_anonymous_args = 0
 1469              	.LVL188:
 1470 0000 73B5     		push	{r0, r1, r4, r5, r6, lr}
 1471              	.LCFI16:
 1472              		.cfi_def_cfa_offset 24
 1473              		.cfi_offset 4, -16
 1474              		.cfi_offset 5, -12
 1475              		.cfi_offset 6, -8
 1476              		.cfi_offset 14, -4
 1477              	.LBB355:
 1478              	.LBB356:
 1479              	.LBB357:
 591:/home/tienluong/workspace/atlantis_fw/AsicFwS2/src/../include/matrix.h **** 
 1480              		.loc 1 591 0
 1481 0002 0D46     		mov	r5, r1
 1482              	.LBE357:
 1483              	.LBE356:
 1484              	.LBE355:
1247:/home/tienluong/workspace/atlantis_fw/AsicFwS2/src/../include/matrix.h **** {
 1485              		.loc 1 1247 0
 1486 0004 0646     		mov	r6, r0
 1487              	.LBB362:
 1488              	.LBB360:
 1489              	.LBB358:
 591:/home/tienluong/workspace/atlantis_fw/AsicFwS2/src/../include/matrix.h **** 
 1490              		.loc 1 591 0
 1491 0006 0446     		mov	r4, r0
 1492 0008 0FCD     		ldmia	r5!, {r0, r1, r2, r3}
 1493              	.LVL189:
 1494 000a 0FC4     		stmia	r4!, {r0, r1, r2, r3}
 1495              	.LVL190:
 1496 000c 0FCD     		ldmia	r5!, {r0, r1, r2, r3}
 1497              	.LVL191:
 1498 000e 0FC4     		stmia	r4!, {r0, r1, r2, r3}
 1499 0010 2B68     		ldr	r3, [r5]
 1500              	.LBE358:
 1501              	.LBE360:
1251:/home/tienluong/workspace/atlantis_fw/AsicFwS2/src/../include/matrix.h ****     return rval;
 1502              		.loc 1 1251 0
 1503 0012 01A8     		add	r0, sp, #4
 1504              	.LBB361:
 1505              	.LBB359:
 591:/home/tienluong/workspace/atlantis_fw/AsicFwS2/src/../include/matrix.h **** 
 1506              		.loc 1 591 0
 1507 0014 2360     		str	r3, [r4]
 1508              	.LVL192:
 1509              	.LBE359:
 1510              	.LBE361:
1251:/home/tienluong/workspace/atlantis_fw/AsicFwS2/src/../include/matrix.h ****     return rval;
 1511              		.loc 1 1251 0
 1512 0016 3146     		mov	r1, r6
 1513 0018 024B     		ldr	r3, .L84
 1514 001a 9847     		blx	r3
 1515              	.LVL193:
 1516              	.LBE362:
1253:/home/tienluong/workspace/atlantis_fw/AsicFwS2/src/../include/matrix.h **** 
 1517              		.loc 1 1253 0
 1518 001c 3046     		mov	r0, r6
 1519 001e 02B0     		add	sp, sp, #8
 1520              	.LCFI17:
 1521              		.cfi_def_cfa_offset 16
 1522              		@ sp needed
 1523 0020 70BD     		pop	{r4, r5, r6, pc}
 1524              	.LVL194:
 1525              	.L85:
 1526 0022 00BF     		.align	2
 1527              	.L84:
 1528 0024 00000000 		.word	_ZNK4ltaf20SquareMatrixInverterIfLi3EE3runEPf
 1529              		.cfi_endproc
 1530              	.LFE2602:
 1532              		.section	.text._ZN4ltaf7inverseIfLi3ELb0EEENS_6MatrixIT_XT0_EXT0_EXT1_EEERKS3_,"axG",%progbits,_ZN
 1533              		.align	1
 1534              		.weak	_ZN4ltaf7inverseIfLi3ELb0EEENS_6MatrixIT_XT0_EXT0_EXT1_EEERKS3_
 1535              		.thumb
 1536              		.thumb_func
 1538              	_ZN4ltaf7inverseIfLi3ELb0EEENS_6MatrixIT_XT0_EXT0_EXT1_EEERKS3_:
 1539              	.LFB2605:
1247:/home/tienluong/workspace/atlantis_fw/AsicFwS2/src/../include/matrix.h **** {
 1540              		.loc 1 1247 0
 1541              		.cfi_startproc
 1542              		@ args = 0, pretend = 0, frame = 8
 1543              		@ frame_needed = 0, uses_anonymous_args = 0
 1544              	.LVL195:
 1545 0000 73B5     		push	{r0, r1, r4, r5, r6, lr}
 1546              	.LCFI18:
 1547              		.cfi_def_cfa_offset 24
 1548              		.cfi_offset 4, -16
 1549              		.cfi_offset 5, -12
 1550              		.cfi_offset 6, -8
 1551              		.cfi_offset 14, -4
 1552              	.LBB369:
 1553              	.LBB370:
 1554              	.LBB371:
 593:/home/tienluong/workspace/atlantis_fw/AsicFwS2/src/../include/matrix.h **** 
 1555              		.loc 1 593 0
 1556 0002 0D46     		mov	r5, r1
 1557              	.LBE371:
 1558              	.LBE370:
 1559              	.LBE369:
1247:/home/tienluong/workspace/atlantis_fw/AsicFwS2/src/../include/matrix.h **** {
 1560              		.loc 1 1247 0
 1561 0004 0646     		mov	r6, r0
 1562              	.LBB376:
 1563              	.LBB374:
 1564              	.LBB372:
 593:/home/tienluong/workspace/atlantis_fw/AsicFwS2/src/../include/matrix.h **** 
 1565              		.loc 1 593 0
 1566 0006 0446     		mov	r4, r0
 1567 0008 0FCD     		ldmia	r5!, {r0, r1, r2, r3}
 1568              	.LVL196:
 1569 000a 0FC4     		stmia	r4!, {r0, r1, r2, r3}
 1570              	.LVL197:
 1571 000c 0FCD     		ldmia	r5!, {r0, r1, r2, r3}
 1572              	.LVL198:
 1573 000e 0FC4     		stmia	r4!, {r0, r1, r2, r3}
 1574 0010 2B68     		ldr	r3, [r5]
 1575              	.LBE372:
 1576              	.LBE374:
1251:/home/tienluong/workspace/atlantis_fw/AsicFwS2/src/../include/matrix.h ****     return rval;
 1577              		.loc 1 1251 0
 1578 0012 01A8     		add	r0, sp, #4
 1579              	.LBB375:
 1580              	.LBB373:
 593:/home/tienluong/workspace/atlantis_fw/AsicFwS2/src/../include/matrix.h **** 
 1581              		.loc 1 593 0
 1582 0014 2360     		str	r3, [r4]
 1583              	.LVL199:
 1584              	.LBE373:
 1585              	.LBE375:
1251:/home/tienluong/workspace/atlantis_fw/AsicFwS2/src/../include/matrix.h ****     return rval;
 1586              		.loc 1 1251 0
 1587 0016 3146     		mov	r1, r6
 1588 0018 024B     		ldr	r3, .L87
 1589 001a 9847     		blx	r3
 1590              	.LVL200:
 1591              	.LBE376:
1253:/home/tienluong/workspace/atlantis_fw/AsicFwS2/src/../include/matrix.h **** 
 1592              		.loc 1 1253 0
 1593 001c 3046     		mov	r0, r6
 1594 001e 02B0     		add	sp, sp, #8
 1595              	.LCFI19:
 1596              		.cfi_def_cfa_offset 16
 1597              		@ sp needed
 1598 0020 70BD     		pop	{r4, r5, r6, pc}
 1599              	.LVL201:
 1600              	.L88:
 1601 0022 00BF     		.align	2
 1602              	.L87:
 1603 0024 00000000 		.word	_ZNK4ltaf20SquareMatrixInverterIfLi3EE3runEPf
 1604              		.cfi_endproc
 1605              	.LFE2605:
 1607              		.section	.text._ZNK4ltaf20SquareMatrixInverterIfLi4EE3runEPf,"axG",%progbits,_ZNK4ltaf20SquareMatr
 1608              		.align	1
 1609              		.weak	_ZNK4ltaf20SquareMatrixInverterIfLi4EE3runEPf
 1610              		.thumb
 1611              		.thumb_func
 1613              	_ZNK4ltaf20SquareMatrixInverterIfLi4EE3runEPf:
 1614              	.LFB2674:
1166:/home/tienluong/workspace/atlantis_fw/AsicFwS2/src/../include/matrix.h ****     {
 1615              		.loc 1 1166 0
 1616              		.cfi_startproc
 1617              		@ args = 0, pretend = 0, frame = 176
 1618              		@ frame_needed = 0, uses_anonymous_args = 0
 1619              	.LVL202:
 1620 0000 2DE9F04F 		push	{r4, r5, r6, r7, r8, r9, r10, fp, lr}
 1621              	.LCFI20:
 1622              		.cfi_def_cfa_offset 36
 1623              		.cfi_offset 4, -36
 1624              		.cfi_offset 5, -32
 1625              		.cfi_offset 6, -28
 1626              		.cfi_offset 7, -24
 1627              		.cfi_offset 8, -20
 1628              		.cfi_offset 9, -16
 1629              		.cfi_offset 10, -12
 1630              		.cfi_offset 11, -8
 1631              		.cfi_offset 14, -4
 1632 0004 ADB0     		sub	sp, sp, #180
 1633              	.LCFI21:
 1634              		.cfi_def_cfa_offset 216
 1635              	.LBB377:
1172:/home/tienluong/workspace/atlantis_fw/AsicFwS2/src/../include/matrix.h ****         tmp[1] = mat[11] * mat[14];
 1636              		.loc 1 1172 0
 1637 0006 8B6A     		ldr	r3, [r1, #40]	@ float
 1638 0008 0293     		str	r3, [sp, #8]	@ float
 1639 000a CB6B     		ldr	r3, [r1, #60]	@ float
 1640 000c 804C     		ldr	r4, .L92
 1641              	.LBE377:
1166:/home/tienluong/workspace/atlantis_fw/AsicFwS2/src/../include/matrix.h ****     {
 1642              		.loc 1 1166 0
 1643 000e 0191     		str	r1, [sp, #4]
 1644              	.LBB380:
1172:/home/tienluong/workspace/atlantis_fw/AsicFwS2/src/../include/matrix.h ****         tmp[1] = mat[11] * mat[14];
 1645              		.loc 1 1172 0
 1646 0010 1946     		mov	r1, r3
 1647              	.LVL203:
 1648 0012 0298     		ldr	r0, [sp, #8]	@ float
 1649              	.LVL204:
 1650 0014 0393     		str	r3, [sp, #12]	@ float
 1651 0016 A047     		blx	r4
 1652              	.LVL205:
1173:/home/tienluong/workspace/atlantis_fw/AsicFwS2/src/../include/matrix.h ****         tmp[2] = mat[9] * mat[15];
 1653              		.loc 1 1173 0
 1654 0018 019B     		ldr	r3, [sp, #4]
1186:/home/tienluong/workspace/atlantis_fw/AsicFwS2/src/../include/matrix.h ****         dst[0]  -= tmp[1] * mat[5] + tmp[2] * mat[6] + tmp[5]  * mat[7];
 1655              		.loc 1 1186 0
 1656 001a 7E4D     		ldr	r5, .L92+4
1173:/home/tienluong/workspace/atlantis_fw/AsicFwS2/src/../include/matrix.h ****         tmp[2] = mat[9] * mat[15];
 1657              		.loc 1 1173 0
 1658 001c DB6A     		ldr	r3, [r3, #44]	@ float
 1659 001e 0493     		str	r3, [sp, #16]	@ float
 1660 0020 019B     		ldr	r3, [sp, #4]
 1661 0022 9B6B     		ldr	r3, [r3, #56]	@ float
 1662 0024 1946     		mov	r1, r3
 1663 0026 0593     		str	r3, [sp, #20]	@ float
1172:/home/tienluong/workspace/atlantis_fw/AsicFwS2/src/../include/matrix.h ****         tmp[1] = mat[11] * mat[14];
 1664              		.loc 1 1172 0
 1665 0028 0E90     		str	r0, [sp, #56]	@ float
 1666              	.LVL206:
1173:/home/tienluong/workspace/atlantis_fw/AsicFwS2/src/../include/matrix.h ****         tmp[2] = mat[9] * mat[15];
 1667              		.loc 1 1173 0
 1668 002a 0498     		ldr	r0, [sp, #16]	@ float
 1669              	.LVL207:
 1670 002c A047     		blx	r4
 1671              	.LVL208:
1174:/home/tienluong/workspace/atlantis_fw/AsicFwS2/src/../include/matrix.h ****         tmp[3] = mat[11] * mat[13];
 1672              		.loc 1 1174 0
 1673 002e 019B     		ldr	r3, [sp, #4]
 1674 0030 0399     		ldr	r1, [sp, #12]	@ float
 1675 0032 5B6A     		ldr	r3, [r3, #36]	@ float
 1676 0034 0693     		str	r3, [sp, #24]	@ float
1173:/home/tienluong/workspace/atlantis_fw/AsicFwS2/src/../include/matrix.h ****         tmp[2] = mat[9] * mat[15];
 1677              		.loc 1 1173 0
 1678 0036 0F90     		str	r0, [sp, #60]	@ float
 1679              	.LVL209:
1174:/home/tienluong/workspace/atlantis_fw/AsicFwS2/src/../include/matrix.h ****         tmp[3] = mat[11] * mat[13];
 1680              		.loc 1 1174 0
 1681 0038 1846     		mov	r0, r3
 1682              	.LVL210:
 1683 003a A047     		blx	r4
 1684              	.LVL211:
1175:/home/tienluong/workspace/atlantis_fw/AsicFwS2/src/../include/matrix.h ****         tmp[4] = mat[9] * mat[14];
 1685              		.loc 1 1175 0
 1686 003c 019B     		ldr	r3, [sp, #4]
 1687 003e 5B6B     		ldr	r3, [r3, #52]	@ float
 1688 0040 1946     		mov	r1, r3
 1689 0042 0793     		str	r3, [sp, #28]	@ float
1174:/home/tienluong/workspace/atlantis_fw/AsicFwS2/src/../include/matrix.h ****         tmp[3] = mat[11] * mat[13];
 1690              		.loc 1 1174 0
 1691 0044 1090     		str	r0, [sp, #64]	@ float
 1692              	.LVL212:
1175:/home/tienluong/workspace/atlantis_fw/AsicFwS2/src/../include/matrix.h ****         tmp[4] = mat[9] * mat[14];
 1693              		.loc 1 1175 0
 1694 0046 0498     		ldr	r0, [sp, #16]	@ float
 1695              	.LVL213:
 1696 0048 A047     		blx	r4
 1697              	.LVL214:
1176:/home/tienluong/workspace/atlantis_fw/AsicFwS2/src/../include/matrix.h ****         tmp[5] = mat[10] * mat[13];
 1698              		.loc 1 1176 0
 1699 004a 0599     		ldr	r1, [sp, #20]	@ float
1175:/home/tienluong/workspace/atlantis_fw/AsicFwS2/src/../include/matrix.h ****         tmp[4] = mat[9] * mat[14];
 1700              		.loc 1 1175 0
 1701 004c 1190     		str	r0, [sp, #68]	@ float
 1702              	.LVL215:
1176:/home/tienluong/workspace/atlantis_fw/AsicFwS2/src/../include/matrix.h ****         tmp[5] = mat[10] * mat[13];
 1703              		.loc 1 1176 0
 1704 004e 0698     		ldr	r0, [sp, #24]	@ float
 1705              	.LVL216:
 1706 0050 A047     		blx	r4
 1707              	.LVL217:
1177:/home/tienluong/workspace/atlantis_fw/AsicFwS2/src/../include/matrix.h ****         tmp[6] = mat[8] * mat[15];
 1708              		.loc 1 1177 0
 1709 0052 0799     		ldr	r1, [sp, #28]	@ float
1176:/home/tienluong/workspace/atlantis_fw/AsicFwS2/src/../include/matrix.h ****         tmp[5] = mat[10] * mat[13];
 1710              		.loc 1 1176 0
 1711 0054 1290     		str	r0, [sp, #72]	@ float
 1712              	.LVL218:
1177:/home/tienluong/workspace/atlantis_fw/AsicFwS2/src/../include/matrix.h ****         tmp[6] = mat[8] * mat[15];
 1713              		.loc 1 1177 0
 1714 0056 0298     		ldr	r0, [sp, #8]	@ float
 1715              	.LVL219:
 1716 0058 A047     		blx	r4
 1717              	.LVL220:
1178:/home/tienluong/workspace/atlantis_fw/AsicFwS2/src/../include/matrix.h ****         tmp[7] = mat[11] * mat[12];
 1718              		.loc 1 1178 0
 1719 005a 019B     		ldr	r3, [sp, #4]
 1720 005c 0399     		ldr	r1, [sp, #12]	@ float
 1721 005e 1B6A     		ldr	r3, [r3, #32]	@ float
 1722 0060 0893     		str	r3, [sp, #32]	@ float
1177:/home/tienluong/workspace/atlantis_fw/AsicFwS2/src/../include/matrix.h ****         tmp[6] = mat[8] * mat[15];
 1723              		.loc 1 1177 0
 1724 0062 1390     		str	r0, [sp, #76]	@ float
 1725              	.LVL221:
1178:/home/tienluong/workspace/atlantis_fw/AsicFwS2/src/../include/matrix.h ****         tmp[7] = mat[11] * mat[12];
 1726              		.loc 1 1178 0
 1727 0064 1846     		mov	r0, r3
 1728              	.LVL222:
 1729 0066 A047     		blx	r4
 1730              	.LVL223:
1179:/home/tienluong/workspace/atlantis_fw/AsicFwS2/src/../include/matrix.h ****         tmp[8] = mat[8] * mat[14];
 1731              		.loc 1 1179 0
 1732 0068 019B     		ldr	r3, [sp, #4]
 1733 006a 1B6B     		ldr	r3, [r3, #48]	@ float
 1734 006c 1946     		mov	r1, r3
 1735 006e 0993     		str	r3, [sp, #36]	@ float
1178:/home/tienluong/workspace/atlantis_fw/AsicFwS2/src/../include/matrix.h ****         tmp[7] = mat[11] * mat[12];
 1736              		.loc 1 1178 0
 1737 0070 1490     		str	r0, [sp, #80]	@ float
 1738              	.LVL224:
1179:/home/tienluong/workspace/atlantis_fw/AsicFwS2/src/../include/matrix.h ****         tmp[8] = mat[8] * mat[14];
 1739              		.loc 1 1179 0
 1740 0072 0498     		ldr	r0, [sp, #16]	@ float
 1741              	.LVL225:
 1742 0074 A047     		blx	r4
 1743              	.LVL226:
1180:/home/tienluong/workspace/atlantis_fw/AsicFwS2/src/../include/matrix.h ****         tmp[9] = mat[10] * mat[12];
 1744              		.loc 1 1180 0
 1745 0076 0599     		ldr	r1, [sp, #20]	@ float
1179:/home/tienluong/workspace/atlantis_fw/AsicFwS2/src/../include/matrix.h ****         tmp[8] = mat[8] * mat[14];
 1746              		.loc 1 1179 0
 1747 0078 1590     		str	r0, [sp, #84]	@ float
 1748              	.LVL227:
1180:/home/tienluong/workspace/atlantis_fw/AsicFwS2/src/../include/matrix.h ****         tmp[9] = mat[10] * mat[12];
 1749              		.loc 1 1180 0
 1750 007a 0898     		ldr	r0, [sp, #32]	@ float
 1751              	.LVL228:
 1752 007c A047     		blx	r4
 1753              	.LVL229:
1181:/home/tienluong/workspace/atlantis_fw/AsicFwS2/src/../include/matrix.h ****         tmp[10] = mat[8] * mat[13];
 1754              		.loc 1 1181 0
 1755 007e 0999     		ldr	r1, [sp, #36]	@ float
1180:/home/tienluong/workspace/atlantis_fw/AsicFwS2/src/../include/matrix.h ****         tmp[9] = mat[10] * mat[12];
 1756              		.loc 1 1180 0
 1757 0080 1690     		str	r0, [sp, #88]	@ float
1181:/home/tienluong/workspace/atlantis_fw/AsicFwS2/src/../include/matrix.h ****         tmp[10] = mat[8] * mat[13];
 1758              		.loc 1 1181 0
 1759 0082 0298     		ldr	r0, [sp, #8]	@ float
 1760 0084 A047     		blx	r4
 1761              	.LVL230:
1182:/home/tienluong/workspace/atlantis_fw/AsicFwS2/src/../include/matrix.h ****         tmp[11] = mat[9] * mat[12];
 1762              		.loc 1 1182 0
 1763 0086 0799     		ldr	r1, [sp, #28]	@ float
1181:/home/tienluong/workspace/atlantis_fw/AsicFwS2/src/../include/matrix.h ****         tmp[10] = mat[8] * mat[13];
 1764              		.loc 1 1181 0
 1765 0088 1790     		str	r0, [sp, #92]	@ float
1182:/home/tienluong/workspace/atlantis_fw/AsicFwS2/src/../include/matrix.h ****         tmp[11] = mat[9] * mat[12];
 1766              		.loc 1 1182 0
 1767 008a 0898     		ldr	r0, [sp, #32]	@ float
 1768 008c A047     		blx	r4
 1769              	.LVL231:
1183:/home/tienluong/workspace/atlantis_fw/AsicFwS2/src/../include/matrix.h **** 
 1770              		.loc 1 1183 0
 1771 008e 0999     		ldr	r1, [sp, #36]	@ float
1182:/home/tienluong/workspace/atlantis_fw/AsicFwS2/src/../include/matrix.h ****         tmp[11] = mat[9] * mat[12];
 1772              		.loc 1 1182 0
 1773 0090 1890     		str	r0, [sp, #96]	@ float
1183:/home/tienluong/workspace/atlantis_fw/AsicFwS2/src/../include/matrix.h **** 
 1774              		.loc 1 1183 0
 1775 0092 0698     		ldr	r0, [sp, #24]	@ float
 1776 0094 A047     		blx	r4
 1777              	.LVL232:
1186:/home/tienluong/workspace/atlantis_fw/AsicFwS2/src/../include/matrix.h ****         dst[0]  -= tmp[1] * mat[5] + tmp[2] * mat[6] + tmp[5]  * mat[7];
 1778              		.loc 1 1186 0
 1779 0096 019B     		ldr	r3, [sp, #4]
 1780 0098 5B69     		ldr	r3, [r3, #20]	@ float
 1781 009a 0A93     		str	r3, [sp, #40]	@ float
 1782 009c 019B     		ldr	r3, [sp, #4]
 1783 009e 0A99     		ldr	r1, [sp, #40]	@ float
 1784 00a0 9B69     		ldr	r3, [r3, #24]	@ float
 1785 00a2 0B93     		str	r3, [sp, #44]	@ float
 1786 00a4 019B     		ldr	r3, [sp, #4]
 1787 00a6 DB69     		ldr	r3, [r3, #28]	@ float
 1788 00a8 0C93     		str	r3, [sp, #48]	@ float
1183:/home/tienluong/workspace/atlantis_fw/AsicFwS2/src/../include/matrix.h **** 
 1789              		.loc 1 1183 0
 1790 00aa 1990     		str	r0, [sp, #100]	@ float
1186:/home/tienluong/workspace/atlantis_fw/AsicFwS2/src/../include/matrix.h ****         dst[0]  -= tmp[1] * mat[5] + tmp[2] * mat[6] + tmp[5]  * mat[7];
 1791              		.loc 1 1186 0
 1792 00ac 0E98     		ldr	r0, [sp, #56]	@ float
 1793 00ae A047     		blx	r4
 1794              	.LVL233:
 1795 00b0 0B99     		ldr	r1, [sp, #44]	@ float
 1796 00b2 0646     		mov	r6, r0
 1797 00b4 1198     		ldr	r0, [sp, #68]	@ float
 1798 00b6 A047     		blx	r4
 1799              	.LVL234:
 1800 00b8 0146     		mov	r1, r0
 1801 00ba 3046     		mov	r0, r6
 1802 00bc A847     		blx	r5
 1803              	.LVL235:
 1804 00be 0C99     		ldr	r1, [sp, #48]	@ float
 1805 00c0 0646     		mov	r6, r0
 1806 00c2 1298     		ldr	r0, [sp, #72]	@ float
 1807 00c4 A047     		blx	r4
 1808              	.LVL236:
 1809 00c6 0146     		mov	r1, r0
 1810 00c8 3046     		mov	r0, r6
 1811 00ca A847     		blx	r5
 1812              	.LVL237:
1187:/home/tienluong/workspace/atlantis_fw/AsicFwS2/src/../include/matrix.h ****         dst[4]   = tmp[1] * mat[4] + tmp[6] * mat[6] + tmp[9]  * mat[7];
 1813              		.loc 1 1187 0
 1814 00cc 0A99     		ldr	r1, [sp, #40]	@ float
1186:/home/tienluong/workspace/atlantis_fw/AsicFwS2/src/../include/matrix.h ****         dst[0]  -= tmp[1] * mat[5] + tmp[2] * mat[6] + tmp[5]  * mat[7];
 1815              		.loc 1 1186 0
 1816 00ce 0646     		mov	r6, r0
1187:/home/tienluong/workspace/atlantis_fw/AsicFwS2/src/../include/matrix.h ****         dst[4]   = tmp[1] * mat[4] + tmp[6] * mat[6] + tmp[9]  * mat[7];
 1817              		.loc 1 1187 0
 1818 00d0 0F98     		ldr	r0, [sp, #60]	@ float
 1819 00d2 A047     		blx	r4
 1820              	.LVL238:
 1821 00d4 0746     		mov	r7, r0
 1822 00d6 1098     		ldr	r0, [sp, #64]	@ float
 1823 00d8 0B99     		ldr	r1, [sp, #44]	@ float
 1824 00da A047     		blx	r4
 1825              	.LVL239:
 1826 00dc 0146     		mov	r1, r0
 1827 00de 3846     		mov	r0, r7
 1828 00e0 A847     		blx	r5
 1829              	.LVL240:
 1830 00e2 0C99     		ldr	r1, [sp, #48]	@ float
 1831 00e4 0746     		mov	r7, r0
 1832 00e6 1398     		ldr	r0, [sp, #76]	@ float
 1833 00e8 A047     		blx	r4
 1834              	.LVL241:
 1835 00ea 0146     		mov	r1, r0
 1836 00ec 3846     		mov	r0, r7
 1837 00ee A847     		blx	r5
 1838              	.LVL242:
 1839 00f0 494B     		ldr	r3, .L92+8
 1840 00f2 0146     		mov	r1, r0
 1841 00f4 3046     		mov	r0, r6
 1842 00f6 9847     		blx	r3
 1843              	.LVL243:
1188:/home/tienluong/workspace/atlantis_fw/AsicFwS2/src/../include/matrix.h ****         dst[4]  -= tmp[0] * mat[4] + tmp[7] * mat[6] + tmp[8]  * mat[7];
 1844              		.loc 1 1188 0
 1845 00f8 019B     		ldr	r3, [sp, #4]
 1846 00fa 1B69     		ldr	r3, [r3, #16]	@ float
 1847 00fc 1946     		mov	r1, r3
 1848 00fe 0D93     		str	r3, [sp, #52]	@ float
1187:/home/tienluong/workspace/atlantis_fw/AsicFwS2/src/../include/matrix.h ****         dst[4]   = tmp[1] * mat[4] + tmp[6] * mat[6] + tmp[9]  * mat[7];
 1849              		.loc 1 1187 0
 1850 0100 1C90     		str	r0, [sp, #112]	@ float
 1851 0102 1A90     		str	r0, [sp, #104]
1188:/home/tienluong/workspace/atlantis_fw/AsicFwS2/src/../include/matrix.h ****         dst[4]  -= tmp[0] * mat[4] + tmp[7] * mat[6] + tmp[8]  * mat[7];
 1852              		.loc 1 1188 0
 1853 0104 0F98     		ldr	r0, [sp, #60]	@ float
 1854 0106 A047     		blx	r4
 1855              	.LVL244:
 1856 0108 0B99     		ldr	r1, [sp, #44]	@ float
 1857 010a 0646     		mov	r6, r0
 1858 010c 1498     		ldr	r0, [sp, #80]	@ float
 1859 010e A047     		blx	r4
 1860              	.LVL245:
 1861 0110 0146     		mov	r1, r0
 1862 0112 3046     		mov	r0, r6
 1863 0114 A847     		blx	r5
 1864              	.LVL246:
 1865 0116 0C99     		ldr	r1, [sp, #48]	@ float
 1866 0118 0646     		mov	r6, r0
 1867 011a 1798     		ldr	r0, [sp, #92]	@ float
 1868 011c A047     		blx	r4
 1869              	.LVL247:
 1870 011e 0146     		mov	r1, r0
 1871 0120 3046     		mov	r0, r6
 1872 0122 A847     		blx	r5
 1873              	.LVL248:
1189:/home/tienluong/workspace/atlantis_fw/AsicFwS2/src/../include/matrix.h ****         dst[8]   = tmp[2] * mat[4] + tmp[7] * mat[5] + tmp[10] * mat[7];
 1874              		.loc 1 1189 0
 1875 0124 0D99     		ldr	r1, [sp, #52]	@ float
1188:/home/tienluong/workspace/atlantis_fw/AsicFwS2/src/../include/matrix.h ****         dst[4]  -= tmp[0] * mat[4] + tmp[7] * mat[6] + tmp[8]  * mat[7];
 1876              		.loc 1 1188 0
 1877 0126 0646     		mov	r6, r0
1189:/home/tienluong/workspace/atlantis_fw/AsicFwS2/src/../include/matrix.h ****         dst[8]   = tmp[2] * mat[4] + tmp[7] * mat[5] + tmp[10] * mat[7];
 1878              		.loc 1 1189 0
 1879 0128 0E98     		ldr	r0, [sp, #56]	@ float
 1880 012a A047     		blx	r4
 1881              	.LVL249:
 1882 012c 0B99     		ldr	r1, [sp, #44]	@ float
 1883 012e 0746     		mov	r7, r0
 1884 0130 1598     		ldr	r0, [sp, #84]	@ float
 1885 0132 A047     		blx	r4
 1886              	.LVL250:
 1887 0134 0146     		mov	r1, r0
 1888 0136 3846     		mov	r0, r7
 1889 0138 A847     		blx	r5
 1890              	.LVL251:
 1891 013a 0C99     		ldr	r1, [sp, #48]	@ float
 1892 013c 0746     		mov	r7, r0
 1893 013e 1698     		ldr	r0, [sp, #88]	@ float
 1894 0140 A047     		blx	r4
 1895              	.LVL252:
 1896 0142 0146     		mov	r1, r0
 1897 0144 3846     		mov	r0, r7
 1898 0146 A847     		blx	r5
 1899              	.LVL253:
 1900 0148 334B     		ldr	r3, .L92+8
 1901 014a 0146     		mov	r1, r0
 1902 014c 3046     		mov	r0, r6
 1903 014e 9847     		blx	r3
 1904              	.LVL254:
 1905 0150 2090     		str	r0, [sp, #128]	@ float
1190:/home/tienluong/workspace/atlantis_fw/AsicFwS2/src/../include/matrix.h ****         dst[8]  -= tmp[3] * mat[4] + tmp[6] * mat[5] + tmp[11] * mat[7];
 1906              		.loc 1 1190 0
 1907 0152 0D99     		ldr	r1, [sp, #52]	@ float
1189:/home/tienluong/workspace/atlantis_fw/AsicFwS2/src/../include/matrix.h ****         dst[8]   = tmp[2] * mat[4] + tmp[7] * mat[5] + tmp[10] * mat[7];
 1908              		.loc 1 1189 0
 1909 0154 1B90     		str	r0, [sp, #108]
1190:/home/tienluong/workspace/atlantis_fw/AsicFwS2/src/../include/matrix.h ****         dst[8]  -= tmp[3] * mat[4] + tmp[6] * mat[5] + tmp[11] * mat[7];
 1910              		.loc 1 1190 0
 1911 0156 1098     		ldr	r0, [sp, #64]	@ float
 1912 0158 A047     		blx	r4
 1913              	.LVL255:
 1914 015a 0A99     		ldr	r1, [sp, #40]	@ float
 1915 015c 0646     		mov	r6, r0
 1916 015e 1598     		ldr	r0, [sp, #84]	@ float
 1917 0160 A047     		blx	r4
 1918              	.LVL256:
 1919 0162 0146     		mov	r1, r0
 1920 0164 3046     		mov	r0, r6
 1921 0166 A847     		blx	r5
 1922              	.LVL257:
 1923 0168 0C99     		ldr	r1, [sp, #48]	@ float
 1924 016a 0646     		mov	r6, r0
 1925 016c 1898     		ldr	r0, [sp, #96]	@ float
 1926 016e A047     		blx	r4
 1927              	.LVL258:
 1928 0170 0146     		mov	r1, r0
 1929 0172 3046     		mov	r0, r6
 1930 0174 A847     		blx	r5
 1931              	.LVL259:
1191:/home/tienluong/workspace/atlantis_fw/AsicFwS2/src/../include/matrix.h ****         dst[12]  = tmp[5] * mat[4] + tmp[8] * mat[5] + tmp[11] * mat[6];
 1932              		.loc 1 1191 0
 1933 0176 0D99     		ldr	r1, [sp, #52]	@ float
1190:/home/tienluong/workspace/atlantis_fw/AsicFwS2/src/../include/matrix.h ****         dst[8]  -= tmp[3] * mat[4] + tmp[6] * mat[5] + tmp[11] * mat[7];
 1934              		.loc 1 1190 0
 1935 0178 0646     		mov	r6, r0
1191:/home/tienluong/workspace/atlantis_fw/AsicFwS2/src/../include/matrix.h ****         dst[12]  = tmp[5] * mat[4] + tmp[8] * mat[5] + tmp[11] * mat[6];
 1936              		.loc 1 1191 0
 1937 017a 1198     		ldr	r0, [sp, #68]	@ float
 1938 017c A047     		blx	r4
 1939              	.LVL260:
 1940 017e 0A99     		ldr	r1, [sp, #40]	@ float
 1941 0180 0746     		mov	r7, r0
 1942 0182 1498     		ldr	r0, [sp, #80]	@ float
 1943 0184 A047     		blx	r4
 1944              	.LVL261:
 1945 0186 0146     		mov	r1, r0
 1946 0188 3846     		mov	r0, r7
 1947 018a A847     		blx	r5
 1948              	.LVL262:
 1949 018c 0C99     		ldr	r1, [sp, #48]	@ float
 1950 018e 0746     		mov	r7, r0
 1951 0190 1998     		ldr	r0, [sp, #100]	@ float
 1952 0192 A047     		blx	r4
 1953              	.LVL263:
 1954 0194 0146     		mov	r1, r0
 1955 0196 3846     		mov	r0, r7
 1956 0198 A847     		blx	r5
 1957              	.LVL264:
 1958 019a 1F4B     		ldr	r3, .L92+8
 1959 019c 0146     		mov	r1, r0
 1960 019e 3046     		mov	r0, r6
 1961 01a0 9847     		blx	r3
 1962              	.LVL265:
1192:/home/tienluong/workspace/atlantis_fw/AsicFwS2/src/../include/matrix.h ****         dst[12] -= tmp[4] * mat[4] + tmp[9] * mat[5] + tmp[10] * mat[6];
 1963              		.loc 1 1192 0
 1964 01a2 0D99     		ldr	r1, [sp, #52]	@ float
1191:/home/tienluong/workspace/atlantis_fw/AsicFwS2/src/../include/matrix.h ****         dst[12]  = tmp[5] * mat[4] + tmp[8] * mat[5] + tmp[11] * mat[6];
 1965              		.loc 1 1191 0
 1966 01a4 8346     		mov	fp, r0
 1967 01a6 2490     		str	r0, [sp, #144]	@ float
1192:/home/tienluong/workspace/atlantis_fw/AsicFwS2/src/../include/matrix.h ****         dst[12] -= tmp[4] * mat[4] + tmp[9] * mat[5] + tmp[10] * mat[6];
 1968              		.loc 1 1192 0
 1969 01a8 1398     		ldr	r0, [sp, #76]	@ float
 1970 01aa A047     		blx	r4
 1971              	.LVL266:
 1972 01ac 0A99     		ldr	r1, [sp, #40]	@ float
 1973 01ae 0646     		mov	r6, r0
 1974 01b0 1698     		ldr	r0, [sp, #88]	@ float
 1975 01b2 A047     		blx	r4
 1976              	.LVL267:
 1977 01b4 0146     		mov	r1, r0
 1978 01b6 3046     		mov	r0, r6
 1979 01b8 A847     		blx	r5
 1980              	.LVL268:
 1981 01ba 0B99     		ldr	r1, [sp, #44]	@ float
 1982 01bc 0646     		mov	r6, r0
 1983 01be 1998     		ldr	r0, [sp, #100]	@ float
 1984 01c0 A047     		blx	r4
 1985              	.LVL269:
 1986 01c2 0146     		mov	r1, r0
 1987 01c4 3046     		mov	r0, r6
 1988 01c6 A847     		blx	r5
 1989              	.LVL270:
1193:/home/tienluong/workspace/atlantis_fw/AsicFwS2/src/../include/matrix.h **** 
 1990              		.loc 1 1193 0
 1991 01c8 0D99     		ldr	r1, [sp, #52]	@ float
1192:/home/tienluong/workspace/atlantis_fw/AsicFwS2/src/../include/matrix.h ****         dst[12] -= tmp[4] * mat[4] + tmp[9] * mat[5] + tmp[10] * mat[6];
 1992              		.loc 1 1192 0
 1993 01ca 0646     		mov	r6, r0
1193:/home/tienluong/workspace/atlantis_fw/AsicFwS2/src/../include/matrix.h **** 
 1994              		.loc 1 1193 0
 1995 01cc 1298     		ldr	r0, [sp, #72]	@ float
 1996 01ce A047     		blx	r4
 1997              	.LVL271:
 1998 01d0 0A99     		ldr	r1, [sp, #40]	@ float
 1999 01d2 0746     		mov	r7, r0
 2000 01d4 1798     		ldr	r0, [sp, #92]	@ float
 2001 01d6 A047     		blx	r4
 2002              	.LVL272:
 2003 01d8 0146     		mov	r1, r0
 2004 01da 3846     		mov	r0, r7
 2005 01dc A847     		blx	r5
 2006              	.LVL273:
 2007 01de 0B99     		ldr	r1, [sp, #44]	@ float
 2008 01e0 0746     		mov	r7, r0
 2009 01e2 1898     		ldr	r0, [sp, #96]	@ float
 2010 01e4 A047     		blx	r4
 2011              	.LVL274:
 2012 01e6 0146     		mov	r1, r0
 2013 01e8 3846     		mov	r0, r7
 2014 01ea A847     		blx	r5
 2015              	.LVL275:
 2016 01ec 0A4B     		ldr	r3, .L92+8
 2017 01ee 0146     		mov	r1, r0
 2018 01f0 3046     		mov	r0, r6
 2019 01f2 9847     		blx	r3
 2020              	.LVL276:
1196:/home/tienluong/workspace/atlantis_fw/AsicFwS2/src/../include/matrix.h **** 
 2021              		.loc 1 1196 0
 2022 01f4 019B     		ldr	r3, [sp, #4]
 2023 01f6 1A9A     		ldr	r2, [sp, #104]
 2024 01f8 1146     		mov	r1, r2
 2025 01fa 1F68     		ldr	r7, [r3]	@ float
 2026 01fc 5E68     		ldr	r6, [r3, #4]	@ float
 2027 01fe D3F80880 		ldr	r8, [r3, #8]	@ float
 2028 0202 D3F80C90 		ldr	r9, [r3, #12]	@ float
1193:/home/tienluong/workspace/atlantis_fw/AsicFwS2/src/../include/matrix.h **** 
 2029              		.loc 1 1193 0
 2030 0206 8246     		mov	r10, r0
 2031              	.LVL277:
 2032 0208 2890     		str	r0, [sp, #160]	@ float
1196:/home/tienluong/workspace/atlantis_fw/AsicFwS2/src/../include/matrix.h **** 
 2033              		.loc 1 1196 0
 2034 020a 3846     		mov	r0, r7
 2035 020c 06E0     		b	.L93
 2036              	.L94:
 2037 020e 00BF     		.align	2
 2038              	.L92:
 2039 0210 00000000 		.word	__aeabi_fmul
 2040 0214 00000000 		.word	__aeabi_fadd
 2041 0218 00000000 		.word	__aeabi_fsub
 2042              	.L93:
 2043              	.LVL278:
 2044 021c A047     		blx	r4
 2045              	.LVL279:
 2046 021e 1B9B     		ldr	r3, [sp, #108]
 2047 0220 1946     		mov	r1, r3
 2048 0222 1A90     		str	r0, [sp, #104]
 2049              	.LVL280:
 2050 0224 3046     		mov	r0, r6
 2051 0226 A047     		blx	r4
 2052              	.LVL281:
 2053 0228 1A9A     		ldr	r2, [sp, #104]
 2054 022a 0146     		mov	r1, r0
 2055 022c 1046     		mov	r0, r2
 2056 022e A847     		blx	r5
 2057              	.LVL282:
 2058 0230 5946     		mov	r1, fp
 2059 0232 1A90     		str	r0, [sp, #104]
 2060 0234 4046     		mov	r0, r8
 2061 0236 A047     		blx	r4
 2062              	.LVL283:
 2063 0238 1A9B     		ldr	r3, [sp, #104]
 2064 023a 0146     		mov	r1, r0
 2065 023c 1846     		mov	r0, r3
 2066 023e A847     		blx	r5
 2067              	.LVL284:
 2068 0240 5146     		mov	r1, r10
 2069 0242 8346     		mov	fp, r0
 2070 0244 4846     		mov	r0, r9
 2071 0246 A047     		blx	r4
 2072              	.LVL285:
 2073 0248 0146     		mov	r1, r0
 2074 024a 5846     		mov	r0, fp
 2075 024c A847     		blx	r5
 2076              	.LVL286:
1198:/home/tienluong/workspace/atlantis_fw/AsicFwS2/src/../include/matrix.h **** 
 2077              		.loc 1 1198 0
 2078 024e 804B     		ldr	r3, .L95
1196:/home/tienluong/workspace/atlantis_fw/AsicFwS2/src/../include/matrix.h **** 
 2079              		.loc 1 1196 0
 2080 0250 0146     		mov	r1, r0
1198:/home/tienluong/workspace/atlantis_fw/AsicFwS2/src/../include/matrix.h **** 
 2081              		.loc 1 1198 0
 2082 0252 4FF07E50 		mov	r0, #1065353216
 2083 0256 9847     		blx	r3
 2084              	.LVL287:
1200:/home/tienluong/workspace/atlantis_fw/AsicFwS2/src/../include/matrix.h ****         dst[1]  -= tmp[0] * mat[1] + tmp[3] * mat[2] + tmp[4]  * mat[3];
 2085              		.loc 1 1200 0
 2086 0258 3146     		mov	r1, r6
1198:/home/tienluong/workspace/atlantis_fw/AsicFwS2/src/../include/matrix.h **** 
 2087              		.loc 1 1198 0
 2088 025a 1A90     		str	r0, [sp, #104]	@ float
 2089              	.LVL288:
1200:/home/tienluong/workspace/atlantis_fw/AsicFwS2/src/../include/matrix.h ****         dst[1]  -= tmp[0] * mat[1] + tmp[3] * mat[2] + tmp[4]  * mat[3];
 2090              		.loc 1 1200 0
 2091 025c 0F98     		ldr	r0, [sp, #60]	@ float
 2092              	.LVL289:
 2093 025e A047     		blx	r4
 2094              	.LVL290:
 2095 0260 4146     		mov	r1, r8
 2096 0262 8246     		mov	r10, r0
 2097 0264 1098     		ldr	r0, [sp, #64]	@ float
 2098 0266 A047     		blx	r4
 2099              	.LVL291:
 2100 0268 0146     		mov	r1, r0
 2101 026a 5046     		mov	r0, r10
 2102 026c A847     		blx	r5
 2103              	.LVL292:
 2104 026e 4946     		mov	r1, r9
 2105 0270 8246     		mov	r10, r0
 2106 0272 1398     		ldr	r0, [sp, #76]	@ float
 2107 0274 A047     		blx	r4
 2108              	.LVL293:
 2109 0276 0146     		mov	r1, r0
 2110 0278 5046     		mov	r0, r10
 2111 027a A847     		blx	r5
 2112              	.LVL294:
1201:/home/tienluong/workspace/atlantis_fw/AsicFwS2/src/../include/matrix.h ****         dst[5]   = tmp[0] * mat[0] + tmp[7] * mat[2] + tmp[8]  * mat[3];
 2113              		.loc 1 1201 0
 2114 027c 3146     		mov	r1, r6
1200:/home/tienluong/workspace/atlantis_fw/AsicFwS2/src/../include/matrix.h ****         dst[1]  -= tmp[0] * mat[1] + tmp[3] * mat[2] + tmp[4]  * mat[3];
 2115              		.loc 1 1200 0
 2116 027e 8246     		mov	r10, r0
1201:/home/tienluong/workspace/atlantis_fw/AsicFwS2/src/../include/matrix.h ****         dst[5]   = tmp[0] * mat[0] + tmp[7] * mat[2] + tmp[8]  * mat[3];
 2117              		.loc 1 1201 0
 2118 0280 0E98     		ldr	r0, [sp, #56]	@ float
 2119 0282 A047     		blx	r4
 2120              	.LVL295:
 2121 0284 4146     		mov	r1, r8
 2122 0286 8346     		mov	fp, r0
 2123 0288 1198     		ldr	r0, [sp, #68]	@ float
 2124 028a A047     		blx	r4
 2125              	.LVL296:
 2126 028c 0146     		mov	r1, r0
 2127 028e 5846     		mov	r0, fp
 2128 0290 A847     		blx	r5
 2129              	.LVL297:
 2130 0292 4946     		mov	r1, r9
 2131 0294 8346     		mov	fp, r0
 2132 0296 1298     		ldr	r0, [sp, #72]	@ float
 2133 0298 A047     		blx	r4
 2134              	.LVL298:
 2135 029a 0146     		mov	r1, r0
 2136 029c 5846     		mov	r0, fp
 2137 029e A847     		blx	r5
 2138              	.LVL299:
 2139 02a0 6C4B     		ldr	r3, .L95+4
 2140 02a2 0146     		mov	r1, r0
 2141 02a4 5046     		mov	r0, r10
 2142 02a6 9847     		blx	r3
 2143              	.LVL300:
1202:/home/tienluong/workspace/atlantis_fw/AsicFwS2/src/../include/matrix.h ****         dst[5]  -= tmp[1] * mat[0] + tmp[6] * mat[2] + tmp[9]  * mat[3];
 2144              		.loc 1 1202 0
 2145 02a8 3946     		mov	r1, r7
1201:/home/tienluong/workspace/atlantis_fw/AsicFwS2/src/../include/matrix.h ****         dst[5]   = tmp[0] * mat[0] + tmp[7] * mat[2] + tmp[8]  * mat[3];
 2146              		.loc 1 1201 0
 2147 02aa 1D90     		str	r0, [sp, #116]	@ float
1202:/home/tienluong/workspace/atlantis_fw/AsicFwS2/src/../include/matrix.h ****         dst[5]  -= tmp[1] * mat[0] + tmp[6] * mat[2] + tmp[9]  * mat[3];
 2148              		.loc 1 1202 0
 2149 02ac 0E98     		ldr	r0, [sp, #56]	@ float
 2150 02ae A047     		blx	r4
 2151              	.LVL301:
 2152 02b0 4146     		mov	r1, r8
 2153 02b2 8246     		mov	r10, r0
 2154 02b4 1598     		ldr	r0, [sp, #84]	@ float
 2155 02b6 A047     		blx	r4
 2156              	.LVL302:
 2157 02b8 0146     		mov	r1, r0
 2158 02ba 5046     		mov	r0, r10
 2159 02bc A847     		blx	r5
 2160              	.LVL303:
 2161 02be 4946     		mov	r1, r9
 2162 02c0 8246     		mov	r10, r0
 2163 02c2 1698     		ldr	r0, [sp, #88]	@ float
 2164 02c4 A047     		blx	r4
 2165              	.LVL304:
 2166 02c6 0146     		mov	r1, r0
 2167 02c8 5046     		mov	r0, r10
 2168 02ca A847     		blx	r5
 2169              	.LVL305:
1203:/home/tienluong/workspace/atlantis_fw/AsicFwS2/src/../include/matrix.h ****         dst[9]   = tmp[3] * mat[0] + tmp[6] * mat[1] + tmp[11] * mat[3];
 2170              		.loc 1 1203 0
 2171 02cc 3946     		mov	r1, r7
1202:/home/tienluong/workspace/atlantis_fw/AsicFwS2/src/../include/matrix.h ****         dst[5]  -= tmp[1] * mat[0] + tmp[6] * mat[2] + tmp[9]  * mat[3];
 2172              		.loc 1 1202 0
 2173 02ce 8246     		mov	r10, r0
1203:/home/tienluong/workspace/atlantis_fw/AsicFwS2/src/../include/matrix.h ****         dst[9]   = tmp[3] * mat[0] + tmp[6] * mat[1] + tmp[11] * mat[3];
 2174              		.loc 1 1203 0
 2175 02d0 0F98     		ldr	r0, [sp, #60]	@ float
 2176 02d2 A047     		blx	r4
 2177              	.LVL306:
 2178 02d4 4146     		mov	r1, r8
 2179 02d6 8346     		mov	fp, r0
 2180 02d8 1498     		ldr	r0, [sp, #80]	@ float
 2181 02da A047     		blx	r4
 2182              	.LVL307:
 2183 02dc 0146     		mov	r1, r0
 2184 02de 5846     		mov	r0, fp
 2185 02e0 A847     		blx	r5
 2186              	.LVL308:
 2187 02e2 4946     		mov	r1, r9
 2188 02e4 8346     		mov	fp, r0
 2189 02e6 1798     		ldr	r0, [sp, #92]	@ float
 2190 02e8 A047     		blx	r4
 2191              	.LVL309:
 2192 02ea 0146     		mov	r1, r0
 2193 02ec 5846     		mov	r0, fp
 2194 02ee A847     		blx	r5
 2195              	.LVL310:
 2196 02f0 584B     		ldr	r3, .L95+4
 2197 02f2 0146     		mov	r1, r0
 2198 02f4 5046     		mov	r0, r10
 2199 02f6 9847     		blx	r3
 2200              	.LVL311:
1204:/home/tienluong/workspace/atlantis_fw/AsicFwS2/src/../include/matrix.h ****         dst[9]  -= tmp[2] * mat[0] + tmp[7] * mat[1] + tmp[10] * mat[3];
 2201              		.loc 1 1204 0
 2202 02f8 3946     		mov	r1, r7
1203:/home/tienluong/workspace/atlantis_fw/AsicFwS2/src/../include/matrix.h ****         dst[9]   = tmp[3] * mat[0] + tmp[6] * mat[1] + tmp[11] * mat[3];
 2203              		.loc 1 1203 0
 2204 02fa 2190     		str	r0, [sp, #132]	@ float
1204:/home/tienluong/workspace/atlantis_fw/AsicFwS2/src/../include/matrix.h ****         dst[9]  -= tmp[2] * mat[0] + tmp[7] * mat[1] + tmp[10] * mat[3];
 2205              		.loc 1 1204 0
 2206 02fc 1198     		ldr	r0, [sp, #68]	@ float
 2207 02fe A047     		blx	r4
 2208              	.LVL312:
 2209 0300 3146     		mov	r1, r6
 2210 0302 8246     		mov	r10, r0
 2211 0304 1498     		ldr	r0, [sp, #80]	@ float
 2212 0306 A047     		blx	r4
 2213              	.LVL313:
 2214 0308 0146     		mov	r1, r0
 2215 030a 5046     		mov	r0, r10
 2216 030c A847     		blx	r5
 2217              	.LVL314:
 2218 030e 4946     		mov	r1, r9
 2219 0310 8246     		mov	r10, r0
 2220 0312 1998     		ldr	r0, [sp, #100]	@ float
 2221 0314 A047     		blx	r4
 2222              	.LVL315:
 2223 0316 0146     		mov	r1, r0
 2224 0318 5046     		mov	r0, r10
 2225 031a A847     		blx	r5
 2226              	.LVL316:
1205:/home/tienluong/workspace/atlantis_fw/AsicFwS2/src/../include/matrix.h ****         dst[13]  = tmp[4] * mat[0] + tmp[9] * mat[1] + tmp[10] * mat[2];
 2227              		.loc 1 1205 0
 2228 031c 3946     		mov	r1, r7
1204:/home/tienluong/workspace/atlantis_fw/AsicFwS2/src/../include/matrix.h ****         dst[9]  -= tmp[2] * mat[0] + tmp[7] * mat[1] + tmp[10] * mat[3];
 2229              		.loc 1 1204 0
 2230 031e 8246     		mov	r10, r0
1205:/home/tienluong/workspace/atlantis_fw/AsicFwS2/src/../include/matrix.h ****         dst[13]  = tmp[4] * mat[0] + tmp[9] * mat[1] + tmp[10] * mat[2];
 2231              		.loc 1 1205 0
 2232 0320 1098     		ldr	r0, [sp, #64]	@ float
 2233 0322 A047     		blx	r4
 2234              	.LVL317:
 2235 0324 3146     		mov	r1, r6
 2236 0326 8346     		mov	fp, r0
 2237 0328 1598     		ldr	r0, [sp, #84]	@ float
 2238 032a A047     		blx	r4
 2239              	.LVL318:
 2240 032c 0146     		mov	r1, r0
 2241 032e 5846     		mov	r0, fp
 2242 0330 A847     		blx	r5
 2243              	.LVL319:
 2244 0332 4946     		mov	r1, r9
 2245 0334 8346     		mov	fp, r0
 2246 0336 1898     		ldr	r0, [sp, #96]	@ float
 2247 0338 A047     		blx	r4
 2248              	.LVL320:
 2249 033a 0146     		mov	r1, r0
 2250 033c 5846     		mov	r0, fp
 2251 033e A847     		blx	r5
 2252              	.LVL321:
 2253 0340 444B     		ldr	r3, .L95+4
 2254 0342 0146     		mov	r1, r0
 2255 0344 5046     		mov	r0, r10
 2256 0346 9847     		blx	r3
 2257              	.LVL322:
1206:/home/tienluong/workspace/atlantis_fw/AsicFwS2/src/../include/matrix.h ****         dst[13] -= tmp[5] * mat[0] + tmp[8] * mat[1] + tmp[11] * mat[2];
 2258              		.loc 1 1206 0
 2259 0348 3946     		mov	r1, r7
1205:/home/tienluong/workspace/atlantis_fw/AsicFwS2/src/../include/matrix.h ****         dst[13]  = tmp[4] * mat[0] + tmp[9] * mat[1] + tmp[10] * mat[2];
 2260              		.loc 1 1205 0
 2261 034a 2590     		str	r0, [sp, #148]	@ float
1206:/home/tienluong/workspace/atlantis_fw/AsicFwS2/src/../include/matrix.h ****         dst[13] -= tmp[5] * mat[0] + tmp[8] * mat[1] + tmp[11] * mat[2];
 2262              		.loc 1 1206 0
 2263 034c 1298     		ldr	r0, [sp, #72]	@ float
 2264 034e A047     		blx	r4
 2265              	.LVL323:
 2266 0350 3146     		mov	r1, r6
 2267 0352 8246     		mov	r10, r0
 2268 0354 1798     		ldr	r0, [sp, #92]	@ float
 2269 0356 A047     		blx	r4
 2270              	.LVL324:
 2271 0358 0146     		mov	r1, r0
 2272 035a 5046     		mov	r0, r10
 2273 035c A847     		blx	r5
 2274              	.LVL325:
 2275 035e 4146     		mov	r1, r8
 2276 0360 8246     		mov	r10, r0
 2277 0362 1898     		ldr	r0, [sp, #96]	@ float
 2278 0364 A047     		blx	r4
 2279              	.LVL326:
 2280 0366 0146     		mov	r1, r0
 2281 0368 5046     		mov	r0, r10
 2282 036a A847     		blx	r5
 2283              	.LVL327:
1207:/home/tienluong/workspace/atlantis_fw/AsicFwS2/src/../include/matrix.h **** 
 2284              		.loc 1 1207 0
 2285 036c 3946     		mov	r1, r7
1206:/home/tienluong/workspace/atlantis_fw/AsicFwS2/src/../include/matrix.h ****         dst[13] -= tmp[5] * mat[0] + tmp[8] * mat[1] + tmp[11] * mat[2];
 2286              		.loc 1 1206 0
 2287 036e 8246     		mov	r10, r0
1207:/home/tienluong/workspace/atlantis_fw/AsicFwS2/src/../include/matrix.h **** 
 2288              		.loc 1 1207 0
 2289 0370 1398     		ldr	r0, [sp, #76]	@ float
 2290 0372 A047     		blx	r4
 2291              	.LVL328:
 2292 0374 3146     		mov	r1, r6
 2293 0376 8346     		mov	fp, r0
 2294 0378 1698     		ldr	r0, [sp, #88]	@ float
 2295 037a A047     		blx	r4
 2296              	.LVL329:
 2297 037c 0146     		mov	r1, r0
 2298 037e 5846     		mov	r0, fp
 2299 0380 A847     		blx	r5
 2300              	.LVL330:
 2301 0382 4146     		mov	r1, r8
 2302 0384 8346     		mov	fp, r0
 2303 0386 1998     		ldr	r0, [sp, #100]	@ float
 2304 0388 A047     		blx	r4
 2305              	.LVL331:
 2306 038a 0146     		mov	r1, r0
 2307 038c 5846     		mov	r0, fp
 2308 038e A847     		blx	r5
 2309              	.LVL332:
 2310 0390 304B     		ldr	r3, .L95+4
 2311 0392 0146     		mov	r1, r0
 2312 0394 5046     		mov	r0, r10
 2313 0396 9847     		blx	r3
 2314              	.LVL333:
 2315 0398 2990     		str	r0, [sp, #164]	@ float
1210:/home/tienluong/workspace/atlantis_fw/AsicFwS2/src/../include/matrix.h ****         tmp[1] = mat[3] * mat[6];
 2316              		.loc 1 1210 0
 2317 039a 4046     		mov	r0, r8
 2318 039c 0C99     		ldr	r1, [sp, #48]	@ float
 2319 039e A047     		blx	r4
 2320              	.LVL334:
1211:/home/tienluong/workspace/atlantis_fw/AsicFwS2/src/../include/matrix.h ****         tmp[2] = mat[1] * mat[7];
 2321              		.loc 1 1211 0
 2322 03a0 0B99     		ldr	r1, [sp, #44]	@ float
1210:/home/tienluong/workspace/atlantis_fw/AsicFwS2/src/../include/matrix.h ****         tmp[1] = mat[3] * mat[6];
 2323              		.loc 1 1210 0
 2324 03a2 8346     		mov	fp, r0
 2325              	.LVL335:
1211:/home/tienluong/workspace/atlantis_fw/AsicFwS2/src/../include/matrix.h ****         tmp[2] = mat[1] * mat[7];
 2326              		.loc 1 1211 0
 2327 03a4 4846     		mov	r0, r9
 2328              	.LVL336:
 2329 03a6 A047     		blx	r4
 2330              	.LVL337:
1212:/home/tienluong/workspace/atlantis_fw/AsicFwS2/src/../include/matrix.h ****         tmp[3] = mat[3] * mat[5];
 2331              		.loc 1 1212 0
 2332 03a8 0C99     		ldr	r1, [sp, #48]	@ float
1211:/home/tienluong/workspace/atlantis_fw/AsicFwS2/src/../include/matrix.h ****         tmp[2] = mat[1] * mat[7];
 2333              		.loc 1 1211 0
 2334 03aa 8246     		mov	r10, r0
 2335              	.LVL338:
1212:/home/tienluong/workspace/atlantis_fw/AsicFwS2/src/../include/matrix.h ****         tmp[3] = mat[3] * mat[5];
 2336              		.loc 1 1212 0
 2337 03ac 3046     		mov	r0, r6
 2338              	.LVL339:
 2339 03ae A047     		blx	r4
 2340              	.LVL340:
1213:/home/tienluong/workspace/atlantis_fw/AsicFwS2/src/../include/matrix.h ****         tmp[4] = mat[1] * mat[6];
 2341              		.loc 1 1213 0
 2342 03b0 0A99     		ldr	r1, [sp, #40]	@ float
1212:/home/tienluong/workspace/atlantis_fw/AsicFwS2/src/../include/matrix.h ****         tmp[3] = mat[3] * mat[5];
 2343              		.loc 1 1212 0
 2344 03b2 0E90     		str	r0, [sp, #56]	@ float
 2345              	.LVL341:
1213:/home/tienluong/workspace/atlantis_fw/AsicFwS2/src/../include/matrix.h ****         tmp[4] = mat[1] * mat[6];
 2346              		.loc 1 1213 0
 2347 03b4 4846     		mov	r0, r9
 2348              	.LVL342:
 2349 03b6 A047     		blx	r4
 2350              	.LVL343:
1214:/home/tienluong/workspace/atlantis_fw/AsicFwS2/src/../include/matrix.h ****         tmp[5] = mat[2] * mat[5];
 2351              		.loc 1 1214 0
 2352 03b8 0B99     		ldr	r1, [sp, #44]	@ float
1213:/home/tienluong/workspace/atlantis_fw/AsicFwS2/src/../include/matrix.h ****         tmp[4] = mat[1] * mat[6];
 2353              		.loc 1 1213 0
 2354 03ba 0F90     		str	r0, [sp, #60]	@ float
 2355              	.LVL344:
1214:/home/tienluong/workspace/atlantis_fw/AsicFwS2/src/../include/matrix.h ****         tmp[5] = mat[2] * mat[5];
 2356              		.loc 1 1214 0
 2357 03bc 3046     		mov	r0, r6
 2358              	.LVL345:
 2359 03be A047     		blx	r4
 2360              	.LVL346:
1215:/home/tienluong/workspace/atlantis_fw/AsicFwS2/src/../include/matrix.h ****         tmp[6] = mat[0] * mat[7];
 2361              		.loc 1 1215 0
 2362 03c0 0A99     		ldr	r1, [sp, #40]	@ float
1214:/home/tienluong/workspace/atlantis_fw/AsicFwS2/src/../include/matrix.h ****         tmp[5] = mat[2] * mat[5];
 2363              		.loc 1 1214 0
 2364 03c2 1090     		str	r0, [sp, #64]	@ float
 2365              	.LVL347:
1215:/home/tienluong/workspace/atlantis_fw/AsicFwS2/src/../include/matrix.h ****         tmp[6] = mat[0] * mat[7];
 2366              		.loc 1 1215 0
 2367 03c4 4046     		mov	r0, r8
 2368              	.LVL348:
 2369 03c6 A047     		blx	r4
 2370              	.LVL349:
1216:/home/tienluong/workspace/atlantis_fw/AsicFwS2/src/../include/matrix.h ****         tmp[7] = mat[3] * mat[4];
 2371              		.loc 1 1216 0
 2372 03c8 0C99     		ldr	r1, [sp, #48]	@ float
1215:/home/tienluong/workspace/atlantis_fw/AsicFwS2/src/../include/matrix.h ****         tmp[6] = mat[0] * mat[7];
 2373              		.loc 1 1215 0
 2374 03ca 1190     		str	r0, [sp, #68]	@ float
 2375              	.LVL350:
1216:/home/tienluong/workspace/atlantis_fw/AsicFwS2/src/../include/matrix.h ****         tmp[7] = mat[3] * mat[4];
 2376              		.loc 1 1216 0
 2377 03cc 3846     		mov	r0, r7
 2378              	.LVL351:
 2379 03ce A047     		blx	r4
 2380              	.LVL352:
1217:/home/tienluong/workspace/atlantis_fw/AsicFwS2/src/../include/matrix.h ****         tmp[8] = mat[0] * mat[6];
 2381              		.loc 1 1217 0
 2382 03d0 0D99     		ldr	r1, [sp, #52]	@ float
1216:/home/tienluong/workspace/atlantis_fw/AsicFwS2/src/../include/matrix.h ****         tmp[7] = mat[3] * mat[4];
 2383              		.loc 1 1216 0
 2384 03d2 0C90     		str	r0, [sp, #48]	@ float
 2385              	.LVL353:
1217:/home/tienluong/workspace/atlantis_fw/AsicFwS2/src/../include/matrix.h ****         tmp[8] = mat[0] * mat[6];
 2386              		.loc 1 1217 0
 2387 03d4 4846     		mov	r0, r9
 2388              	.LVL354:
 2389 03d6 A047     		blx	r4
 2390              	.LVL355:
1218:/home/tienluong/workspace/atlantis_fw/AsicFwS2/src/../include/matrix.h ****         tmp[9] = mat[2] * mat[4];
 2391              		.loc 1 1218 0
 2392 03d8 0B99     		ldr	r1, [sp, #44]	@ float
1217:/home/tienluong/workspace/atlantis_fw/AsicFwS2/src/../include/matrix.h ****         tmp[8] = mat[0] * mat[6];
 2393              		.loc 1 1217 0
 2394 03da 8146     		mov	r9, r0
 2395              	.LVL356:
1218:/home/tienluong/workspace/atlantis_fw/AsicFwS2/src/../include/matrix.h ****         tmp[9] = mat[2] * mat[4];
 2396              		.loc 1 1218 0
 2397 03dc 3846     		mov	r0, r7
 2398              	.LVL357:
 2399 03de A047     		blx	r4
 2400              	.LVL358:
1219:/home/tienluong/workspace/atlantis_fw/AsicFwS2/src/../include/matrix.h ****         tmp[10] = mat[0] * mat[5];
 2401              		.loc 1 1219 0
 2402 03e0 0D99     		ldr	r1, [sp, #52]	@ float
1218:/home/tienluong/workspace/atlantis_fw/AsicFwS2/src/../include/matrix.h ****         tmp[9] = mat[2] * mat[4];
 2403              		.loc 1 1218 0
 2404 03e2 0B90     		str	r0, [sp, #44]	@ float
1219:/home/tienluong/workspace/atlantis_fw/AsicFwS2/src/../include/matrix.h ****         tmp[10] = mat[0] * mat[5];
 2405              		.loc 1 1219 0
 2406 03e4 4046     		mov	r0, r8
 2407 03e6 A047     		blx	r4
 2408              	.LVL359:
1220:/home/tienluong/workspace/atlantis_fw/AsicFwS2/src/../include/matrix.h ****         tmp[11] = mat[1] * mat[4];
 2409              		.loc 1 1220 0
 2410 03e8 0A99     		ldr	r1, [sp, #40]	@ float
1219:/home/tienluong/workspace/atlantis_fw/AsicFwS2/src/../include/matrix.h ****         tmp[10] = mat[0] * mat[5];
 2411              		.loc 1 1219 0
 2412 03ea 8046     		mov	r8, r0
1220:/home/tienluong/workspace/atlantis_fw/AsicFwS2/src/../include/matrix.h ****         tmp[11] = mat[1] * mat[4];
 2413              		.loc 1 1220 0
 2414 03ec 3846     		mov	r0, r7
 2415 03ee A047     		blx	r4
 2416              	.LVL360:
1221:/home/tienluong/workspace/atlantis_fw/AsicFwS2/src/../include/matrix.h **** 
 2417              		.loc 1 1221 0
 2418 03f0 0D99     		ldr	r1, [sp, #52]	@ float
1220:/home/tienluong/workspace/atlantis_fw/AsicFwS2/src/../include/matrix.h ****         tmp[11] = mat[1] * mat[4];
 2419              		.loc 1 1220 0
 2420 03f2 0746     		mov	r7, r0
1221:/home/tienluong/workspace/atlantis_fw/AsicFwS2/src/../include/matrix.h **** 
 2421              		.loc 1 1221 0
 2422 03f4 3046     		mov	r0, r6
 2423 03f6 A047     		blx	r4
 2424              	.LVL361:
1224:/home/tienluong/workspace/atlantis_fw/AsicFwS2/src/../include/matrix.h ****         dst[2]  -= tmp[1]  * mat[13] + tmp[2]  * mat[14] + tmp[5]  * mat[15];
 2425              		.loc 1 1224 0
 2426 03f8 0799     		ldr	r1, [sp, #28]	@ float
1221:/home/tienluong/workspace/atlantis_fw/AsicFwS2/src/../include/matrix.h **** 
 2427              		.loc 1 1221 0
 2428 03fa 0646     		mov	r6, r0
1224:/home/tienluong/workspace/atlantis_fw/AsicFwS2/src/../include/matrix.h ****         dst[2]  -= tmp[1]  * mat[13] + tmp[2]  * mat[14] + tmp[5]  * mat[15];
 2429              		.loc 1 1224 0
 2430 03fc 5846     		mov	r0, fp
 2431 03fe A047     		blx	r4
 2432              	.LVL362:
 2433 0400 0599     		ldr	r1, [sp, #20]	@ float
 2434 0402 0A90     		str	r0, [sp, #40]
 2435 0404 0F98     		ldr	r0, [sp, #60]	@ float
 2436 0406 A047     		blx	r4
 2437              	.LVL363:
 2438 0408 0A9B     		ldr	r3, [sp, #40]
 2439 040a 0146     		mov	r1, r0
 2440 040c 1846     		mov	r0, r3
 2441 040e A847     		blx	r5
 2442              	.LVL364:
 2443 0410 0A90     		str	r0, [sp, #40]
 2444 0412 1098     		ldr	r0, [sp, #64]	@ float
 2445 0414 0399     		ldr	r1, [sp, #12]	@ float
 2446 0416 A047     		blx	r4
 2447              	.LVL365:
 2448 0418 0A9B     		ldr	r3, [sp, #40]
 2449 041a 0146     		mov	r1, r0
 2450 041c 1846     		mov	r0, r3
 2451 041e A847     		blx	r5
 2452              	.LVL366:
1225:/home/tienluong/workspace/atlantis_fw/AsicFwS2/src/../include/matrix.h ****         dst[3]   = tmp[2]  * mat[10] + tmp[5]  * mat[11] + tmp[1]  * mat[9];
 2453              		.loc 1 1225 0
 2454 0420 0799     		ldr	r1, [sp, #28]	@ float
1224:/home/tienluong/workspace/atlantis_fw/AsicFwS2/src/../include/matrix.h ****         dst[2]  -= tmp[1]  * mat[13] + tmp[2]  * mat[14] + tmp[5]  * mat[15];
 2455              		.loc 1 1224 0
 2456 0422 0D90     		str	r0, [sp, #52]
1225:/home/tienluong/workspace/atlantis_fw/AsicFwS2/src/../include/matrix.h ****         dst[3]   = tmp[2]  * mat[10] + tmp[5]  * mat[11] + tmp[1]  * mat[9];
 2457              		.loc 1 1225 0
 2458 0424 5046     		mov	r0, r10
 2459 0426 A047     		blx	r4
 2460              	.LVL367:
 2461 0428 0599     		ldr	r1, [sp, #20]	@ float
 2462 042a 0A90     		str	r0, [sp, #40]
 2463 042c 0E98     		ldr	r0, [sp, #56]	@ float
 2464 042e A047     		blx	r4
 2465              	.LVL368:
 2466 0430 0A9A     		ldr	r2, [sp, #40]
 2467 0432 0146     		mov	r1, r0
 2468 0434 1046     		mov	r0, r2
 2469 0436 A847     		blx	r5
 2470              	.LVL369:
 2471 0438 0399     		ldr	r1, [sp, #12]	@ float
 2472 043a 0A90     		str	r0, [sp, #40]
 2473 043c 1198     		ldr	r0, [sp, #68]	@ float
 2474 043e A047     		blx	r4
 2475              	.LVL370:
 2476 0440 0A9A     		ldr	r2, [sp, #40]
 2477 0442 0146     		mov	r1, r0
 2478 0444 1046     		mov	r0, r2
 2479 0446 A847     		blx	r5
 2480              	.LVL371:
 2481 0448 0D9B     		ldr	r3, [sp, #52]
 2482 044a 0146     		mov	r1, r0
 2483 044c 04E0     		b	.L96
 2484              	.L97:
 2485 044e 00BF     		.align	2
 2486              	.L95:
 2487 0450 00000000 		.word	__aeabi_fdiv
 2488 0454 00000000 		.word	__aeabi_fsub
 2489              	.L96:
 2490 0458 1846     		mov	r0, r3
 2491 045a 7F4B     		ldr	r3, .L98
 2492 045c 9847     		blx	r3
 2493              	.LVL372:
1226:/home/tienluong/workspace/atlantis_fw/AsicFwS2/src/../include/matrix.h ****         dst[3]  -= tmp[4]  * mat[11] + tmp[0]  * mat[9]  + tmp[3]  * mat[10];
 2494              		.loc 1 1226 0
 2495 045e 0299     		ldr	r1, [sp, #8]	@ float
1225:/home/tienluong/workspace/atlantis_fw/AsicFwS2/src/../include/matrix.h ****         dst[3]   = tmp[2]  * mat[10] + tmp[5]  * mat[11] + tmp[1]  * mat[9];
 2496              		.loc 1 1225 0
 2497 0460 1E90     		str	r0, [sp, #120]	@ float
1226:/home/tienluong/workspace/atlantis_fw/AsicFwS2/src/../include/matrix.h ****         dst[3]  -= tmp[4]  * mat[11] + tmp[0]  * mat[9]  + tmp[3]  * mat[10];
 2498              		.loc 1 1226 0
 2499 0462 0E98     		ldr	r0, [sp, #56]	@ float
 2500 0464 A047     		blx	r4
 2501              	.LVL373:
 2502 0466 0499     		ldr	r1, [sp, #16]	@ float
 2503 0468 0A90     		str	r0, [sp, #40]
 2504 046a 1198     		ldr	r0, [sp, #68]	@ float
 2505 046c A047     		blx	r4
 2506              	.LVL374:
 2507 046e 0A9B     		ldr	r3, [sp, #40]
 2508 0470 0146     		mov	r1, r0
 2509 0472 1846     		mov	r0, r3
 2510 0474 A847     		blx	r5
 2511              	.LVL375:
 2512 0476 0699     		ldr	r1, [sp, #24]	@ float
 2513 0478 0A90     		str	r0, [sp, #40]
 2514 047a 5046     		mov	r0, r10
 2515 047c A047     		blx	r4
 2516              	.LVL376:
 2517 047e 0A9B     		ldr	r3, [sp, #40]
 2518 0480 0146     		mov	r1, r0
 2519 0482 1846     		mov	r0, r3
 2520 0484 A847     		blx	r5
 2521              	.LVL377:
1227:/home/tienluong/workspace/atlantis_fw/AsicFwS2/src/../include/matrix.h ****         dst[6]   = tmp[1]  * mat[12] + tmp[6]  * mat[14] + tmp[9]  * mat[15];
 2522              		.loc 1 1227 0
 2523 0486 0499     		ldr	r1, [sp, #16]	@ float
1226:/home/tienluong/workspace/atlantis_fw/AsicFwS2/src/../include/matrix.h ****         dst[3]  -= tmp[4]  * mat[11] + tmp[0]  * mat[9]  + tmp[3]  * mat[10];
 2524              		.loc 1 1226 0
 2525 0488 0D90     		str	r0, [sp, #52]
1227:/home/tienluong/workspace/atlantis_fw/AsicFwS2/src/../include/matrix.h ****         dst[6]   = tmp[1]  * mat[12] + tmp[6]  * mat[14] + tmp[9]  * mat[15];
 2526              		.loc 1 1227 0
 2527 048a 1098     		ldr	r0, [sp, #64]	@ float
 2528 048c A047     		blx	r4
 2529              	.LVL378:
 2530 048e 0699     		ldr	r1, [sp, #24]	@ float
 2531 0490 0A90     		str	r0, [sp, #40]
 2532 0492 5846     		mov	r0, fp
 2533 0494 A047     		blx	r4
 2534              	.LVL379:
 2535 0496 0A9A     		ldr	r2, [sp, #40]
 2536 0498 0146     		mov	r1, r0
 2537 049a 1046     		mov	r0, r2
 2538 049c A847     		blx	r5
 2539              	.LVL380:
 2540 049e 0299     		ldr	r1, [sp, #8]	@ float
 2541 04a0 0A90     		str	r0, [sp, #40]
 2542 04a2 0F98     		ldr	r0, [sp, #60]	@ float
 2543 04a4 A047     		blx	r4
 2544              	.LVL381:
 2545 04a6 0A9A     		ldr	r2, [sp, #40]
 2546 04a8 0146     		mov	r1, r0
 2547 04aa 1046     		mov	r0, r2
 2548 04ac A847     		blx	r5
 2549              	.LVL382:
 2550 04ae 0D9B     		ldr	r3, [sp, #52]
 2551 04b0 0146     		mov	r1, r0
 2552 04b2 1846     		mov	r0, r3
 2553 04b4 684B     		ldr	r3, .L98
 2554 04b6 9847     		blx	r3
 2555              	.LVL383:
1228:/home/tienluong/workspace/atlantis_fw/AsicFwS2/src/../include/matrix.h ****         dst[6]  -= tmp[0]  * mat[12] + tmp[7]  * mat[14] + tmp[8]  * mat[15];
 2556              		.loc 1 1228 0
 2557 04b8 0999     		ldr	r1, [sp, #36]	@ float
1227:/home/tienluong/workspace/atlantis_fw/AsicFwS2/src/../include/matrix.h ****         dst[6]   = tmp[1]  * mat[12] + tmp[6]  * mat[14] + tmp[9]  * mat[15];
 2558              		.loc 1 1227 0
 2559 04ba 1F90     		str	r0, [sp, #124]	@ float
1228:/home/tienluong/workspace/atlantis_fw/AsicFwS2/src/../include/matrix.h ****         dst[6]  -= tmp[0]  * mat[12] + tmp[7]  * mat[14] + tmp[8]  * mat[15];
 2560              		.loc 1 1228 0
 2561 04bc 5046     		mov	r0, r10
 2562 04be A047     		blx	r4
 2563              	.LVL384:
 2564 04c0 0599     		ldr	r1, [sp, #20]	@ float
 2565 04c2 0A90     		str	r0, [sp, #40]
 2566 04c4 0C98     		ldr	r0, [sp, #48]	@ float
 2567 04c6 A047     		blx	r4
 2568              	.LVL385:
 2569 04c8 0A9B     		ldr	r3, [sp, #40]
 2570 04ca 0146     		mov	r1, r0
 2571 04cc 1846     		mov	r0, r3
 2572 04ce A847     		blx	r5
 2573              	.LVL386:
 2574 04d0 0399     		ldr	r1, [sp, #12]	@ float
 2575 04d2 0A90     		str	r0, [sp, #40]
 2576 04d4 4046     		mov	r0, r8
 2577 04d6 A047     		blx	r4
 2578              	.LVL387:
 2579 04d8 0A9B     		ldr	r3, [sp, #40]
 2580 04da 0146     		mov	r1, r0
 2581 04dc 1846     		mov	r0, r3
 2582 04de A847     		blx	r5
 2583              	.LVL388:
1229:/home/tienluong/workspace/atlantis_fw/AsicFwS2/src/../include/matrix.h ****         dst[7]   = tmp[8]  * mat[11] + tmp[0]  * mat[8]  + tmp[7]  * mat[10];
 2584              		.loc 1 1229 0
 2585 04e0 0999     		ldr	r1, [sp, #36]	@ float
1228:/home/tienluong/workspace/atlantis_fw/AsicFwS2/src/../include/matrix.h ****         dst[6]  -= tmp[0]  * mat[12] + tmp[7]  * mat[14] + tmp[8]  * mat[15];
 2586              		.loc 1 1228 0
 2587 04e2 0D90     		str	r0, [sp, #52]
1229:/home/tienluong/workspace/atlantis_fw/AsicFwS2/src/../include/matrix.h ****         dst[7]   = tmp[8]  * mat[11] + tmp[0]  * mat[8]  + tmp[7]  * mat[10];
 2588              		.loc 1 1229 0
 2589 04e4 5846     		mov	r0, fp
 2590 04e6 A047     		blx	r4
 2591              	.LVL389:
 2592 04e8 0599     		ldr	r1, [sp, #20]	@ float
 2593 04ea 0A90     		str	r0, [sp, #40]
 2594 04ec 4846     		mov	r0, r9
 2595 04ee A047     		blx	r4
 2596              	.LVL390:
 2597 04f0 0A9A     		ldr	r2, [sp, #40]
 2598 04f2 0146     		mov	r1, r0
 2599 04f4 1046     		mov	r0, r2
 2600 04f6 A847     		blx	r5
 2601              	.LVL391:
 2602 04f8 0399     		ldr	r1, [sp, #12]	@ float
 2603 04fa 0A90     		str	r0, [sp, #40]
 2604 04fc 0B98     		ldr	r0, [sp, #44]	@ float
 2605 04fe A047     		blx	r4
 2606              	.LVL392:
 2607 0500 0A9A     		ldr	r2, [sp, #40]
 2608 0502 0146     		mov	r1, r0
 2609 0504 1046     		mov	r0, r2
 2610 0506 A847     		blx	r5
 2611              	.LVL393:
 2612 0508 0D9B     		ldr	r3, [sp, #52]
 2613 050a 0146     		mov	r1, r0
 2614 050c 1846     		mov	r0, r3
 2615 050e 524B     		ldr	r3, .L98
 2616 0510 9847     		blx	r3
 2617              	.LVL394:
1230:/home/tienluong/workspace/atlantis_fw/AsicFwS2/src/../include/matrix.h ****         dst[7]  -= tmp[6]  * mat[10] + tmp[9]  * mat[11] + tmp[1]  * mat[8];
 2618              		.loc 1 1230 0
 2619 0512 0499     		ldr	r1, [sp, #16]	@ float
1229:/home/tienluong/workspace/atlantis_fw/AsicFwS2/src/../include/matrix.h ****         dst[7]   = tmp[8]  * mat[11] + tmp[0]  * mat[8]  + tmp[7]  * mat[10];
 2620              		.loc 1 1229 0
 2621 0514 2290     		str	r0, [sp, #136]	@ float
1230:/home/tienluong/workspace/atlantis_fw/AsicFwS2/src/../include/matrix.h ****         dst[7]  -= tmp[6]  * mat[10] + tmp[9]  * mat[11] + tmp[1]  * mat[8];
 2622              		.loc 1 1230 0
 2623 0516 0B98     		ldr	r0, [sp, #44]	@ float
 2624 0518 A047     		blx	r4
 2625              	.LVL395:
 2626 051a 0899     		ldr	r1, [sp, #32]	@ float
 2627 051c 0A90     		str	r0, [sp, #40]
 2628 051e 5846     		mov	r0, fp
 2629 0520 A047     		blx	r4
 2630              	.LVL396:
 2631 0522 0A9B     		ldr	r3, [sp, #40]
 2632 0524 0146     		mov	r1, r0
 2633 0526 1846     		mov	r0, r3
 2634 0528 A847     		blx	r5
 2635              	.LVL397:
 2636 052a 0299     		ldr	r1, [sp, #8]	@ float
 2637 052c 8346     		mov	fp, r0
 2638              	.LVL398:
 2639 052e 4846     		mov	r0, r9
 2640 0530 A047     		blx	r4
 2641              	.LVL399:
 2642 0532 0146     		mov	r1, r0
 2643 0534 5846     		mov	r0, fp
 2644 0536 A847     		blx	r5
 2645              	.LVL400:
1231:/home/tienluong/workspace/atlantis_fw/AsicFwS2/src/../include/matrix.h ****         dst[10]  = tmp[2]  * mat[12] + tmp[7]  * mat[13] + tmp[10] * mat[15];
 2646              		.loc 1 1231 0
 2647 0538 0299     		ldr	r1, [sp, #8]	@ float
1230:/home/tienluong/workspace/atlantis_fw/AsicFwS2/src/../include/matrix.h ****         dst[7]  -= tmp[6]  * mat[10] + tmp[9]  * mat[11] + tmp[1]  * mat[8];
 2648              		.loc 1 1230 0
 2649 053a 8346     		mov	fp, r0
1231:/home/tienluong/workspace/atlantis_fw/AsicFwS2/src/../include/matrix.h ****         dst[10]  = tmp[2]  * mat[12] + tmp[7]  * mat[13] + tmp[10] * mat[15];
 2650              		.loc 1 1231 0
 2651 053c 0C98     		ldr	r0, [sp, #48]	@ float
 2652 053e A047     		blx	r4
 2653              	.LVL401:
 2654 0540 0499     		ldr	r1, [sp, #16]	@ float
 2655 0542 0A90     		str	r0, [sp, #40]
 2656 0544 4046     		mov	r0, r8
 2657 0546 A047     		blx	r4
 2658              	.LVL402:
 2659 0548 0A9B     		ldr	r3, [sp, #40]
 2660 054a 0146     		mov	r1, r0
 2661 054c 1846     		mov	r0, r3
 2662 054e A847     		blx	r5
 2663              	.LVL403:
 2664 0550 0899     		ldr	r1, [sp, #32]	@ float
 2665 0552 0A90     		str	r0, [sp, #40]
 2666 0554 5046     		mov	r0, r10
 2667 0556 A047     		blx	r4
 2668              	.LVL404:
 2669 0558 0A9B     		ldr	r3, [sp, #40]
 2670 055a 0146     		mov	r1, r0
 2671 055c 1846     		mov	r0, r3
 2672 055e A847     		blx	r5
 2673              	.LVL405:
 2674 0560 3D4B     		ldr	r3, .L98
 2675 0562 0146     		mov	r1, r0
 2676 0564 5846     		mov	r0, fp
 2677 0566 9847     		blx	r3
 2678              	.LVL406:
1232:/home/tienluong/workspace/atlantis_fw/AsicFwS2/src/../include/matrix.h ****         dst[10] -= tmp[3]  * mat[12] + tmp[6]  * mat[13] + tmp[11] * mat[15];
 2679              		.loc 1 1232 0
 2680 0568 0999     		ldr	r1, [sp, #36]	@ float
1231:/home/tienluong/workspace/atlantis_fw/AsicFwS2/src/../include/matrix.h ****         dst[10]  = tmp[2]  * mat[12] + tmp[7]  * mat[13] + tmp[10] * mat[15];
 2681              		.loc 1 1231 0
 2682 056a 2390     		str	r0, [sp, #140]	@ float
1232:/home/tienluong/workspace/atlantis_fw/AsicFwS2/src/../include/matrix.h ****         dst[10] -= tmp[3]  * mat[12] + tmp[6]  * mat[13] + tmp[11] * mat[15];
 2683              		.loc 1 1232 0
 2684 056c 0E98     		ldr	r0, [sp, #56]	@ float
 2685 056e A047     		blx	r4
 2686              	.LVL407:
 2687 0570 0799     		ldr	r1, [sp, #28]	@ float
 2688 0572 8246     		mov	r10, r0
 2689              	.LVL408:
 2690 0574 4846     		mov	r0, r9
 2691 0576 A047     		blx	r4
 2692              	.LVL409:
 2693 0578 0146     		mov	r1, r0
 2694 057a 5046     		mov	r0, r10
 2695 057c A847     		blx	r5
 2696              	.LVL410:
 2697 057e 0399     		ldr	r1, [sp, #12]	@ float
 2698 0580 8246     		mov	r10, r0
 2699 0582 3846     		mov	r0, r7
 2700 0584 A047     		blx	r4
 2701              	.LVL411:
 2702 0586 0146     		mov	r1, r0
 2703 0588 5046     		mov	r0, r10
 2704 058a A847     		blx	r5
 2705              	.LVL412:
1233:/home/tienluong/workspace/atlantis_fw/AsicFwS2/src/../include/matrix.h ****         dst[11]  = tmp[6]  * mat[9]  + tmp[11] * mat[11] + tmp[3]  * mat[8];
 2706              		.loc 1 1233 0
 2707 058c 0999     		ldr	r1, [sp, #36]	@ float
1232:/home/tienluong/workspace/atlantis_fw/AsicFwS2/src/../include/matrix.h ****         dst[10] -= tmp[3]  * mat[12] + tmp[6]  * mat[13] + tmp[11] * mat[15];
 2708              		.loc 1 1232 0
 2709 058e 8246     		mov	r10, r0
1233:/home/tienluong/workspace/atlantis_fw/AsicFwS2/src/../include/matrix.h ****         dst[11]  = tmp[6]  * mat[9]  + tmp[11] * mat[11] + tmp[3]  * mat[8];
 2710              		.loc 1 1233 0
 2711 0590 0F98     		ldr	r0, [sp, #60]	@ float
 2712 0592 A047     		blx	r4
 2713              	.LVL413:
 2714 0594 0799     		ldr	r1, [sp, #28]	@ float
 2715 0596 8346     		mov	fp, r0
 2716 0598 0C98     		ldr	r0, [sp, #48]	@ float
 2717 059a A047     		blx	r4
 2718              	.LVL414:
 2719 059c 0146     		mov	r1, r0
 2720 059e 5846     		mov	r0, fp
 2721 05a0 A847     		blx	r5
 2722              	.LVL415:
 2723 05a2 0399     		ldr	r1, [sp, #12]	@ float
 2724 05a4 8346     		mov	fp, r0
 2725 05a6 3046     		mov	r0, r6
 2726 05a8 A047     		blx	r4
 2727              	.LVL416:
 2728 05aa 0146     		mov	r1, r0
 2729 05ac 5846     		mov	r0, fp
 2730 05ae A847     		blx	r5
 2731              	.LVL417:
 2732 05b0 294B     		ldr	r3, .L98
 2733 05b2 0146     		mov	r1, r0
 2734 05b4 5046     		mov	r0, r10
 2735 05b6 9847     		blx	r3
 2736              	.LVL418:
1234:/home/tienluong/workspace/atlantis_fw/AsicFwS2/src/../include/matrix.h ****         dst[11] -= tmp[10] * mat[11] + tmp[2]  * mat[8]  + tmp[7]  * mat[9];
 2737              		.loc 1 1234 0
 2738 05b8 0699     		ldr	r1, [sp, #24]	@ float
1233:/home/tienluong/workspace/atlantis_fw/AsicFwS2/src/../include/matrix.h ****         dst[11]  = tmp[6]  * mat[9]  + tmp[11] * mat[11] + tmp[3]  * mat[8];
 2739              		.loc 1 1233 0
 2740 05ba 2690     		str	r0, [sp, #152]	@ float
1234:/home/tienluong/workspace/atlantis_fw/AsicFwS2/src/../include/matrix.h ****         dst[11] -= tmp[10] * mat[11] + tmp[2]  * mat[8]  + tmp[7]  * mat[9];
 2741              		.loc 1 1234 0
 2742 05bc 0C98     		ldr	r0, [sp, #48]	@ float
 2743 05be A047     		blx	r4
 2744              	.LVL419:
 2745 05c0 0499     		ldr	r1, [sp, #16]	@ float
 2746 05c2 8246     		mov	r10, r0
 2747 05c4 3046     		mov	r0, r6
 2748 05c6 A047     		blx	r4
 2749              	.LVL420:
 2750 05c8 0146     		mov	r1, r0
 2751 05ca 5046     		mov	r0, r10
 2752 05cc A847     		blx	r5
 2753              	.LVL421:
 2754 05ce 0899     		ldr	r1, [sp, #32]	@ float
 2755 05d0 8246     		mov	r10, r0
 2756 05d2 0F98     		ldr	r0, [sp, #60]	@ float
 2757 05d4 A047     		blx	r4
 2758              	.LVL422:
 2759 05d6 0146     		mov	r1, r0
 2760 05d8 5046     		mov	r0, r10
 2761 05da A847     		blx	r5
 2762              	.LVL423:
1235:/home/tienluong/workspace/atlantis_fw/AsicFwS2/src/../include/matrix.h ****         dst[14]  = tmp[5]  * mat[12] + tmp[8]  * mat[13] + tmp[11] * mat[14];
 2763              		.loc 1 1235 0
 2764 05dc 0499     		ldr	r1, [sp, #16]	@ float
1234:/home/tienluong/workspace/atlantis_fw/AsicFwS2/src/../include/matrix.h ****         dst[11] -= tmp[10] * mat[11] + tmp[2]  * mat[8]  + tmp[7]  * mat[9];
 2765              		.loc 1 1234 0
 2766 05de 8246     		mov	r10, r0
1235:/home/tienluong/workspace/atlantis_fw/AsicFwS2/src/../include/matrix.h ****         dst[14]  = tmp[5]  * mat[12] + tmp[8]  * mat[13] + tmp[11] * mat[14];
 2767              		.loc 1 1235 0
 2768 05e0 3846     		mov	r0, r7
 2769 05e2 A047     		blx	r4
 2770              	.LVL424:
 2771 05e4 0899     		ldr	r1, [sp, #32]	@ float
 2772 05e6 8346     		mov	fp, r0
 2773 05e8 0E98     		ldr	r0, [sp, #56]	@ float
 2774 05ea A047     		blx	r4
 2775              	.LVL425:
 2776 05ec 0146     		mov	r1, r0
 2777 05ee 5846     		mov	r0, fp
 2778 05f0 A847     		blx	r5
 2779              	.LVL426:
 2780 05f2 0699     		ldr	r1, [sp, #24]	@ float
 2781 05f4 8346     		mov	fp, r0
 2782 05f6 4846     		mov	r0, r9
 2783 05f8 A047     		blx	r4
 2784              	.LVL427:
 2785 05fa 0146     		mov	r1, r0
 2786 05fc 5846     		mov	r0, fp
 2787 05fe A847     		blx	r5
 2788              	.LVL428:
 2789 0600 154B     		ldr	r3, .L98
 2790 0602 0146     		mov	r1, r0
 2791 0604 5046     		mov	r0, r10
 2792 0606 9847     		blx	r3
 2793              	.LVL429:
 2794 0608 2790     		str	r0, [sp, #156]	@ float
1236:/home/tienluong/workspace/atlantis_fw/AsicFwS2/src/../include/matrix.h ****         dst[14] -= tmp[4]  * mat[12] + tmp[9]  * mat[13] + tmp[10] * mat[14];
 2795              		.loc 1 1236 0
 2796 060a 1198     		ldr	r0, [sp, #68]	@ float
 2797 060c 0999     		ldr	r1, [sp, #36]	@ float
 2798 060e A047     		blx	r4
 2799              	.LVL430:
 2800 0610 0799     		ldr	r1, [sp, #28]	@ float
 2801 0612 8146     		mov	r9, r0
 2802              	.LVL431:
 2803 0614 0B98     		ldr	r0, [sp, #44]	@ float
 2804 0616 A047     		blx	r4
 2805              	.LVL432:
 2806 0618 0146     		mov	r1, r0
 2807 061a 4846     		mov	r0, r9
 2808 061c A847     		blx	r5
 2809              	.LVL433:
 2810 061e 0599     		ldr	r1, [sp, #20]	@ float
 2811 0620 8146     		mov	r9, r0
 2812 0622 3046     		mov	r0, r6
 2813 0624 A047     		blx	r4
 2814              	.LVL434:
 2815 0626 0146     		mov	r1, r0
 2816 0628 4846     		mov	r0, r9
 2817 062a A847     		blx	r5
 2818              	.LVL435:
1237:/home/tienluong/workspace/atlantis_fw/AsicFwS2/src/../include/matrix.h ****         dst[15]  = tmp[10] * mat[10] + tmp[4]  * mat[8]  + tmp[9]  * mat[9];
 2819              		.loc 1 1237 0
 2820 062c 0999     		ldr	r1, [sp, #36]	@ float
1236:/home/tienluong/workspace/atlantis_fw/AsicFwS2/src/../include/matrix.h ****         dst[14] -= tmp[4]  * mat[12] + tmp[9]  * mat[13] + tmp[10] * mat[14];
 2821              		.loc 1 1236 0
 2822 062e 8146     		mov	r9, r0
1237:/home/tienluong/workspace/atlantis_fw/AsicFwS2/src/../include/matrix.h ****         dst[15]  = tmp[10] * mat[10] + tmp[4]  * mat[8]  + tmp[9]  * mat[9];
 2823              		.loc 1 1237 0
 2824 0630 1098     		ldr	r0, [sp, #64]	@ float
 2825 0632 A047     		blx	r4
 2826              	.LVL436:
 2827 0634 0799     		ldr	r1, [sp, #28]	@ float
 2828 0636 8246     		mov	r10, r0
 2829 0638 4046     		mov	r0, r8
 2830 063a A047     		blx	r4
 2831              	.LVL437:
 2832 063c 0146     		mov	r1, r0
 2833 063e 5046     		mov	r0, r10
 2834 0640 A847     		blx	r5
 2835              	.LVL438:
 2836 0642 0599     		ldr	r1, [sp, #20]	@ float
 2837 0644 8246     		mov	r10, r0
 2838 0646 3846     		mov	r0, r7
 2839 0648 A047     		blx	r4
 2840              	.LVL439:
 2841 064a 0146     		mov	r1, r0
 2842 064c 5046     		mov	r0, r10
 2843 064e A847     		blx	r5
 2844              	.LVL440:
 2845 0650 014B     		ldr	r3, .L98
 2846 0652 0146     		mov	r1, r0
 2847 0654 4846     		mov	r0, r9
 2848 0656 01E0     		b	.L99
 2849              	.L100:
 2850              		.align	2
 2851              	.L98:
 2852 0658 00000000 		.word	__aeabi_fsub
 2853              	.L99:
 2854 065c 9847     		blx	r3
 2855              	.LVL441:
1238:/home/tienluong/workspace/atlantis_fw/AsicFwS2/src/../include/matrix.h ****         dst[15] -= tmp[8]  * mat[9]  + tmp[11] * mat[10] + tmp[5]  * mat[8];
 2856              		.loc 1 1238 0
 2857 065e 0299     		ldr	r1, [sp, #8]	@ float
1237:/home/tienluong/workspace/atlantis_fw/AsicFwS2/src/../include/matrix.h ****         dst[15]  = tmp[10] * mat[10] + tmp[4]  * mat[8]  + tmp[9]  * mat[9];
 2858              		.loc 1 1237 0
 2859 0660 2A90     		str	r0, [sp, #168]	@ float
1238:/home/tienluong/workspace/atlantis_fw/AsicFwS2/src/../include/matrix.h ****         dst[15] -= tmp[8]  * mat[9]  + tmp[11] * mat[10] + tmp[5]  * mat[8];
 2860              		.loc 1 1238 0
 2861 0662 3846     		mov	r0, r7
 2862 0664 A047     		blx	r4
 2863              	.LVL442:
 2864 0666 0899     		ldr	r1, [sp, #32]	@ float
 2865 0668 0746     		mov	r7, r0
 2866 066a 1098     		ldr	r0, [sp, #64]	@ float
 2867 066c A047     		blx	r4
 2868              	.LVL443:
 2869 066e 0146     		mov	r1, r0
 2870 0670 3846     		mov	r0, r7
 2871 0672 A847     		blx	r5
 2872              	.LVL444:
 2873 0674 0699     		ldr	r1, [sp, #24]	@ float
 2874 0676 0746     		mov	r7, r0
 2875 0678 4046     		mov	r0, r8
 2876 067a A047     		blx	r4
 2877              	.LVL445:
 2878 067c 0146     		mov	r1, r0
 2879 067e 3846     		mov	r0, r7
 2880 0680 A847     		blx	r5
 2881              	.LVL446:
1239:/home/tienluong/workspace/atlantis_fw/AsicFwS2/src/../include/matrix.h **** 
 2882              		.loc 1 1239 0
 2883 0682 0699     		ldr	r1, [sp, #24]	@ float
1238:/home/tienluong/workspace/atlantis_fw/AsicFwS2/src/../include/matrix.h ****         dst[15] -= tmp[8]  * mat[9]  + tmp[11] * mat[10] + tmp[5]  * mat[8];
 2884              		.loc 1 1238 0
 2885 0684 0746     		mov	r7, r0
1239:/home/tienluong/workspace/atlantis_fw/AsicFwS2/src/../include/matrix.h **** 
 2886              		.loc 1 1239 0
 2887 0686 0B98     		ldr	r0, [sp, #44]	@ float
 2888 0688 A047     		blx	r4
 2889              	.LVL447:
 2890 068a 0299     		ldr	r1, [sp, #8]	@ float
 2891 068c 8046     		mov	r8, r0
 2892 068e 3046     		mov	r0, r6
 2893 0690 A047     		blx	r4
 2894              	.LVL448:
 2895 0692 0146     		mov	r1, r0
 2896 0694 4046     		mov	r0, r8
 2897 0696 A847     		blx	r5
 2898              	.LVL449:
 2899 0698 0899     		ldr	r1, [sp, #32]	@ float
 2900 069a 0646     		mov	r6, r0
 2901 069c 1198     		ldr	r0, [sp, #68]	@ float
 2902 069e A047     		blx	r4
 2903              	.LVL450:
 2904 06a0 0146     		mov	r1, r0
 2905 06a2 3046     		mov	r0, r6
 2906 06a4 A847     		blx	r5
 2907              	.LVL451:
 2908 06a6 0A4B     		ldr	r3, .L101
 2909              	.LBB378:
1242:/home/tienluong/workspace/atlantis_fw/AsicFwS2/src/../include/matrix.h ****     }
 2910              		.loc 1 1242 0
 2911 06a8 0025     		movs	r5, #0
 2912              	.LBE378:
1239:/home/tienluong/workspace/atlantis_fw/AsicFwS2/src/../include/matrix.h **** 
 2913              		.loc 1 1239 0
 2914 06aa 0146     		mov	r1, r0
 2915 06ac 3846     		mov	r0, r7
 2916 06ae 9847     		blx	r3
 2917              	.LVL452:
 2918 06b0 2B90     		str	r0, [sp, #172]	@ float
 2919              	.LVL453:
 2920              	.L90:
 2921              	.LBB379:
1242:/home/tienluong/workspace/atlantis_fw/AsicFwS2/src/../include/matrix.h ****     }
 2922              		.loc 1 1242 0 discriminator 3
 2923 06b2 1CAB     		add	r3, sp, #112
 2924 06b4 1A99     		ldr	r1, [sp, #104]	@ float
 2925 06b6 53F82500 		ldr	r0, [r3, r5, lsl #2]	@ float
 2926 06ba A047     		blx	r4
 2927              	.LVL454:
 2928 06bc 019B     		ldr	r3, [sp, #4]
 2929 06be 43F82500 		str	r0, [r3, r5, lsl #2]	@ float
 2930 06c2 0135     		adds	r5, r5, #1
 2931              	.LVL455:
 2932 06c4 102D     		cmp	r5, #16
 2933 06c6 F4D1     		bne	.L90
 2934              	.LBE379:
 2935              	.LBE380:
1243:/home/tienluong/workspace/atlantis_fw/AsicFwS2/src/../include/matrix.h **** };
 2936              		.loc 1 1243 0
 2937 06c8 2DB0     		add	sp, sp, #180
 2938              	.LCFI22:
 2939              		.cfi_def_cfa_offset 36
 2940              		@ sp needed
 2941 06ca BDE8F08F 		pop	{r4, r5, r6, r7, r8, r9, r10, fp, pc}
 2942              	.LVL456:
 2943              	.L102:
 2944 06ce 00BF     		.align	2
 2945              	.L101:
 2946 06d0 00000000 		.word	__aeabi_fsub
 2947              		.cfi_endproc
 2948              	.LFE2674:
 2950              		.section	.text._ZN4ltaf7inverseIfLi4ELb1EEENS_6MatrixIT_XT0_EXT0_EXT1_EEERKS3_,"axG",%progbits,_ZN
 2951              		.align	1
 2952              		.weak	_ZN4ltaf7inverseIfLi4ELb1EEENS_6MatrixIT_XT0_EXT0_EXT1_EEERKS3_
 2953              		.thumb
 2954              		.thumb_func
 2956              	_ZN4ltaf7inverseIfLi4ELb1EEENS_6MatrixIT_XT0_EXT0_EXT1_EEERKS3_:
 2957              	.LFB2603:
1247:/home/tienluong/workspace/atlantis_fw/AsicFwS2/src/../include/matrix.h **** {
 2958              		.loc 1 1247 0
 2959              		.cfi_startproc
 2960              		@ args = 0, pretend = 0, frame = 8
 2961              		@ frame_needed = 0, uses_anonymous_args = 0
 2962              	.LVL457:
 2963 0000 73B5     		push	{r0, r1, r4, r5, r6, lr}
 2964              	.LCFI23:
 2965              		.cfi_def_cfa_offset 24
 2966              		.cfi_offset 4, -16
 2967              		.cfi_offset 5, -12
 2968              		.cfi_offset 6, -8
 2969              		.cfi_offset 14, -4
 2970              	.LBB387:
 2971              	.LBB388:
 2972              	.LBB389:
 591:/home/tienluong/workspace/atlantis_fw/AsicFwS2/src/../include/matrix.h **** 
 2973              		.loc 1 591 0
 2974 0002 0D46     		mov	r5, r1
 2975              	.LBE389:
 2976              	.LBE388:
 2977              	.LBE387:
1247:/home/tienluong/workspace/atlantis_fw/AsicFwS2/src/../include/matrix.h **** {
 2978              		.loc 1 1247 0
 2979 0004 0646     		mov	r6, r0
 2980              	.LBB392:
 2981              	.LBB391:
 2982              	.LBB390:
 591:/home/tienluong/workspace/atlantis_fw/AsicFwS2/src/../include/matrix.h **** 
 2983              		.loc 1 591 0
 2984 0006 0446     		mov	r4, r0
 2985 0008 0FCD     		ldmia	r5!, {r0, r1, r2, r3}
 2986              	.LVL458:
 2987 000a 0FC4     		stmia	r4!, {r0, r1, r2, r3}
 2988              	.LVL459:
 2989 000c 0FCD     		ldmia	r5!, {r0, r1, r2, r3}
 2990              	.LVL460:
 2991 000e 0FC4     		stmia	r4!, {r0, r1, r2, r3}
 2992 0010 0FCD     		ldmia	r5!, {r0, r1, r2, r3}
 2993              	.LVL461:
 2994 0012 0FC4     		stmia	r4!, {r0, r1, r2, r3}
 2995 0014 95E80F00 		ldmia	r5, {r0, r1, r2, r3}
 2996 0018 84E80F00 		stmia	r4, {r0, r1, r2, r3}
 2997              	.LVL462:
 2998              	.LBE390:
 2999              	.LBE391:
1251:/home/tienluong/workspace/atlantis_fw/AsicFwS2/src/../include/matrix.h ****     return rval;
 3000              		.loc 1 1251 0
 3001 001c 01A8     		add	r0, sp, #4
 3002 001e 3146     		mov	r1, r6
 3003 0020 024B     		ldr	r3, .L104
 3004 0022 9847     		blx	r3
 3005              	.LVL463:
 3006              	.LBE392:
1253:/home/tienluong/workspace/atlantis_fw/AsicFwS2/src/../include/matrix.h **** 
 3007              		.loc 1 1253 0
 3008 0024 3046     		mov	r0, r6
 3009 0026 02B0     		add	sp, sp, #8
 3010              	.LCFI24:
 3011              		.cfi_def_cfa_offset 16
 3012              		@ sp needed
 3013 0028 70BD     		pop	{r4, r5, r6, pc}
 3014              	.LVL464:
 3015              	.L105:
 3016 002a 00BF     		.align	2
 3017              	.L104:
 3018 002c 00000000 		.word	_ZNK4ltaf20SquareMatrixInverterIfLi4EE3runEPf
 3019              		.cfi_endproc
 3020              	.LFE2603:
 3022              		.section	.text._ZN4ltaf7inverseIfLi4ELb0EEENS_6MatrixIT_XT0_EXT0_EXT1_EEERKS3_,"axG",%progbits,_ZN
 3023              		.align	1
 3024              		.weak	_ZN4ltaf7inverseIfLi4ELb0EEENS_6MatrixIT_XT0_EXT0_EXT1_EEERKS3_
 3025              		.thumb
 3026              		.thumb_func
 3028              	_ZN4ltaf7inverseIfLi4ELb0EEENS_6MatrixIT_XT0_EXT0_EXT1_EEERKS3_:
 3029              	.LFB2606:
1247:/home/tienluong/workspace/atlantis_fw/AsicFwS2/src/../include/matrix.h **** {
 3030              		.loc 1 1247 0
 3031              		.cfi_startproc
 3032              		@ args = 0, pretend = 0, frame = 8
 3033              		@ frame_needed = 0, uses_anonymous_args = 0
 3034              	.LVL465:
 3035 0000 73B5     		push	{r0, r1, r4, r5, r6, lr}
 3036              	.LCFI25:
 3037              		.cfi_def_cfa_offset 24
 3038              		.cfi_offset 4, -16
 3039              		.cfi_offset 5, -12
 3040              		.cfi_offset 6, -8
 3041              		.cfi_offset 14, -4
 3042              	.LBB399:
 3043              	.LBB400:
 3044              	.LBB401:
 593:/home/tienluong/workspace/atlantis_fw/AsicFwS2/src/../include/matrix.h **** 
 3045              		.loc 1 593 0
 3046 0002 0D46     		mov	r5, r1
 3047              	.LBE401:
 3048              	.LBE400:
 3049              	.LBE399:
1247:/home/tienluong/workspace/atlantis_fw/AsicFwS2/src/../include/matrix.h **** {
 3050              		.loc 1 1247 0
 3051 0004 0646     		mov	r6, r0
 3052              	.LBB404:
 3053              	.LBB403:
 3054              	.LBB402:
 593:/home/tienluong/workspace/atlantis_fw/AsicFwS2/src/../include/matrix.h **** 
 3055              		.loc 1 593 0
 3056 0006 0446     		mov	r4, r0
 3057 0008 0FCD     		ldmia	r5!, {r0, r1, r2, r3}
 3058              	.LVL466:
 3059 000a 0FC4     		stmia	r4!, {r0, r1, r2, r3}
 3060              	.LVL467:
 3061 000c 0FCD     		ldmia	r5!, {r0, r1, r2, r3}
 3062              	.LVL468:
 3063 000e 0FC4     		stmia	r4!, {r0, r1, r2, r3}
 3064 0010 0FCD     		ldmia	r5!, {r0, r1, r2, r3}
 3065              	.LVL469:
 3066 0012 0FC4     		stmia	r4!, {r0, r1, r2, r3}
 3067 0014 95E80F00 		ldmia	r5, {r0, r1, r2, r3}
 3068 0018 84E80F00 		stmia	r4, {r0, r1, r2, r3}
 3069              	.LVL470:
 3070              	.LBE402:
 3071              	.LBE403:
1251:/home/tienluong/workspace/atlantis_fw/AsicFwS2/src/../include/matrix.h ****     return rval;
 3072              		.loc 1 1251 0
 3073 001c 01A8     		add	r0, sp, #4
 3074 001e 3146     		mov	r1, r6
 3075 0020 024B     		ldr	r3, .L107
 3076 0022 9847     		blx	r3
 3077              	.LVL471:
 3078              	.LBE404:
1253:/home/tienluong/workspace/atlantis_fw/AsicFwS2/src/../include/matrix.h **** 
 3079              		.loc 1 1253 0
 3080 0024 3046     		mov	r0, r6
 3081 0026 02B0     		add	sp, sp, #8
 3082              	.LCFI26:
 3083              		.cfi_def_cfa_offset 16
 3084              		@ sp needed
 3085 0028 70BD     		pop	{r4, r5, r6, pc}
 3086              	.LVL472:
 3087              	.L108:
 3088 002a 00BF     		.align	2
 3089              	.L107:
 3090 002c 00000000 		.word	_ZNK4ltaf20SquareMatrixInverterIfLi4EE3runEPf
 3091              		.cfi_endproc
 3092              	.LFE2606:
 3094              		.global	__aeabi_ddiv
 3095              		.section	.text._ZNK4ltaf20SquareMatrixInverterIdLi2EE3runEPd,"axG",%progbits,_ZNK4ltaf20SquareMatr
 3096              		.align	1
 3097              		.weak	_ZNK4ltaf20SquareMatrixInverterIdLi2EE3runEPd
 3098              		.thumb
 3099              		.thumb_func
 3101              	_ZNK4ltaf20SquareMatrixInverterIdLi2EE3runEPd:
 3102              	.LFB2691:
1121:/home/tienluong/workspace/atlantis_fw/AsicFwS2/src/../include/matrix.h ****     {
 3103              		.loc 1 1121 0
 3104              		.cfi_startproc
 3105              		@ args = 0, pretend = 0, frame = 48
 3106              		@ frame_needed = 0, uses_anonymous_args = 0
 3107              	.LVL473:
 3108 0000 2DE9F04F 		push	{r4, r5, r6, r7, r8, r9, r10, fp, lr}
 3109              	.LCFI27:
 3110              		.cfi_def_cfa_offset 36
 3111              		.cfi_offset 4, -36
 3112              		.cfi_offset 5, -32
 3113              		.cfi_offset 6, -28
 3114              		.cfi_offset 7, -24
 3115              		.cfi_offset 8, -20
 3116              		.cfi_offset 9, -16
 3117              		.cfi_offset 10, -12
 3118              		.cfi_offset 11, -8
 3119              		.cfi_offset 14, -4
 3120 0004 8DB0     		sub	sp, sp, #52
 3121              	.LCFI28:
 3122              		.cfi_def_cfa_offset 88
 3123              	.LBB405:
1123:/home/tienluong/workspace/atlantis_fw/AsicFwS2/src/../include/matrix.h **** 
 3124              		.loc 1 1123 0
 3125 0006 D1E90023 		ldrd	r2, [r1]
 3126              	.LBE405:
1121:/home/tienluong/workspace/atlantis_fw/AsicFwS2/src/../include/matrix.h ****     {
 3127              		.loc 1 1121 0
 3128 000a 0C46     		mov	r4, r1
 3129              	.LBB407:
1123:/home/tienluong/workspace/atlantis_fw/AsicFwS2/src/../include/matrix.h **** 
 3130              		.loc 1 1123 0
 3131 000c CDE90023 		strd	r2, [sp]
 3132 0010 D1F808B0 		ldr	fp, [r1, #8]
 3133 0014 D1E90623 		ldrd	r2, [r1, #24]
 3134 0018 CF68     		ldr	r7, [r1, #12]
 3135 001a D1F810A0 		ldr	r10, [r1, #16]
 3136 001e 4E69     		ldr	r6, [r1, #20]
 3137              	.LVL474:
 3138 0020 1F4D     		ldr	r5, .L112
 3139 0022 DDE90001 		ldrd	r0, [sp]
 3140              	.LVL475:
 3141 0026 CDE90223 		strd	r2, [sp, #8]
 3142              	.LVL476:
 3143 002a A847     		blx	r5
 3144              	.LVL477:
 3145 002c 3346     		mov	r3, r6
 3146 002e 5246     		mov	r2, r10
1130:/home/tienluong/workspace/atlantis_fw/AsicFwS2/src/../include/matrix.h ****         tmp[3] = mat[0];
 3147              		.loc 1 1130 0
 3148 0030 06F10046 		add	r6, r6, #-2147483648
1123:/home/tienluong/workspace/atlantis_fw/AsicFwS2/src/../include/matrix.h **** 
 3149              		.loc 1 1123 0
 3150 0034 8046     		mov	r8, r0
 3151 0036 8946     		mov	r9, r1
 3152 0038 5846     		mov	r0, fp
 3153 003a 3946     		mov	r1, r7
 3154 003c A847     		blx	r5
 3155              	.LVL478:
 3156 003e DFF868C0 		ldr	ip, .L112+8
1129:/home/tienluong/workspace/atlantis_fw/AsicFwS2/src/../include/matrix.h ****         tmp[2] = -mat[2];
 3157              		.loc 1 1129 0
 3158 0042 07F10047 		add	r7, r7, #-2147483648
1123:/home/tienluong/workspace/atlantis_fw/AsicFwS2/src/../include/matrix.h **** 
 3159              		.loc 1 1123 0
 3160 0046 0246     		mov	r2, r0
 3161 0048 0B46     		mov	r3, r1
 3162 004a 4046     		mov	r0, r8
 3163 004c 4946     		mov	r1, r9
 3164 004e E047     		blx	ip
 3165              	.LVL479:
1125:/home/tienluong/workspace/atlantis_fw/AsicFwS2/src/../include/matrix.h **** 
 3166              		.loc 1 1125 0
 3167 0050 DFF858C0 		ldr	ip, .L112+12
1123:/home/tienluong/workspace/atlantis_fw/AsicFwS2/src/../include/matrix.h **** 
 3168              		.loc 1 1123 0
 3169 0054 0246     		mov	r2, r0
 3170 0056 0B46     		mov	r3, r1
1125:/home/tienluong/workspace/atlantis_fw/AsicFwS2/src/../include/matrix.h **** 
 3171              		.loc 1 1125 0
 3172 0058 0020     		movs	r0, #0
 3173 005a 1249     		ldr	r1, .L112+4
 3174 005c E047     		blx	ip
 3175              	.LVL480:
1128:/home/tienluong/workspace/atlantis_fw/AsicFwS2/src/../include/matrix.h ****         tmp[1] = -mat[1];
 3176              		.loc 1 1128 0
 3177 005e DDE90223 		ldrd	r2, [sp, #8]
1129:/home/tienluong/workspace/atlantis_fw/AsicFwS2/src/../include/matrix.h ****         tmp[2] = -mat[2];
 3178              		.loc 1 1129 0
 3179 0062 0797     		str	r7, [sp, #28]
 3180 0064 02AF     		add	r7, sp, #8
1130:/home/tienluong/workspace/atlantis_fw/AsicFwS2/src/../include/matrix.h ****         tmp[3] = mat[0];
 3181              		.loc 1 1130 0
 3182 0066 0996     		str	r6, [sp, #36]
 3183 0068 A4F10806 		sub	r6, r4, #8
 3184 006c 1834     		adds	r4, r4, #24
 3185              	.LVL481:
1128:/home/tienluong/workspace/atlantis_fw/AsicFwS2/src/../include/matrix.h ****         tmp[1] = -mat[1];
 3186              		.loc 1 1128 0
 3187 006e CDE90423 		strd	r2, [sp, #16]
1131:/home/tienluong/workspace/atlantis_fw/AsicFwS2/src/../include/matrix.h **** 
 3188              		.loc 1 1131 0
 3189 0072 DDE90023 		ldrd	r2, [sp]
1129:/home/tienluong/workspace/atlantis_fw/AsicFwS2/src/../include/matrix.h ****         tmp[2] = -mat[2];
 3190              		.loc 1 1129 0
 3191 0076 CDF818B0 		str	fp, [sp, #24]
1130:/home/tienluong/workspace/atlantis_fw/AsicFwS2/src/../include/matrix.h ****         tmp[3] = mat[0];
 3192              		.loc 1 1130 0
 3193 007a CDF820A0 		str	r10, [sp, #32]
1131:/home/tienluong/workspace/atlantis_fw/AsicFwS2/src/../include/matrix.h **** 
 3194              		.loc 1 1131 0
 3195 007e CDE90A23 		strd	r2, [sp, #40]
1125:/home/tienluong/workspace/atlantis_fw/AsicFwS2/src/../include/matrix.h **** 
 3196              		.loc 1 1125 0
 3197 0082 8046     		mov	r8, r0
 3198 0084 8946     		mov	r9, r1
 3199              	.LVL482:
 3200              	.L110:
 3201              	.LBB406:
1133:/home/tienluong/workspace/atlantis_fw/AsicFwS2/src/../include/matrix.h ****     }
 3202              		.loc 1 1133 0 discriminator 3
 3203 0086 F7E90201 		ldrd	r0, [r7, #8]!
 3204 008a 4246     		mov	r2, r8
 3205 008c 4B46     		mov	r3, r9
 3206 008e A847     		blx	r5
 3207              	.LVL483:
 3208 0090 E6E90201 		strd	r0, [r6, #8]!
 3209 0094 A642     		cmp	r6, r4
 3210 0096 F6D1     		bne	.L110
 3211              	.LBE406:
 3212              	.LBE407:
1134:/home/tienluong/workspace/atlantis_fw/AsicFwS2/src/../include/matrix.h **** };
 3213              		.loc 1 1134 0
 3214 0098 0DB0     		add	sp, sp, #52
 3215              	.LCFI29:
 3216              		.cfi_def_cfa_offset 36
 3217              		@ sp needed
 3218 009a BDE8F08F 		pop	{r4, r5, r6, r7, r8, r9, r10, fp, pc}
 3219              	.LVL484:
 3220              	.L113:
 3221 009e 00BF     		.align	2
 3222              	.L112:
 3223 00a0 00000000 		.word	__aeabi_dmul
 3224 00a4 0000F03F 		.word	1072693248
 3225 00a8 00000000 		.word	__aeabi_dsub
 3226 00ac 00000000 		.word	__aeabi_ddiv
 3227              		.cfi_endproc
 3228              	.LFE2691:
 3230              		.section	.text._ZN4ltaf7inverseIdLi2ELb1EEENS_6MatrixIT_XT0_EXT0_EXT1_EEERKS3_,"axG",%progbits,_ZN
 3231              		.align	1
 3232              		.weak	_ZN4ltaf7inverseIdLi2ELb1EEENS_6MatrixIT_XT0_EXT0_EXT1_EEERKS3_
 3233              		.thumb
 3234              		.thumb_func
 3236              	_ZN4ltaf7inverseIdLi2ELb1EEENS_6MatrixIT_XT0_EXT0_EXT1_EEERKS3_:
 3237              	.LFB2607:
1247:/home/tienluong/workspace/atlantis_fw/AsicFwS2/src/../include/matrix.h **** {
 3238              		.loc 1 1247 0
 3239              		.cfi_startproc
 3240              		@ args = 0, pretend = 0, frame = 8
 3241              		@ frame_needed = 0, uses_anonymous_args = 0
 3242              	.LVL485:
 3243 0000 73B5     		push	{r0, r1, r4, r5, r6, lr}
 3244              	.LCFI30:
 3245              		.cfi_def_cfa_offset 24
 3246              		.cfi_offset 4, -16
 3247              		.cfi_offset 5, -12
 3248              		.cfi_offset 6, -8
 3249              		.cfi_offset 14, -4
 3250              	.LBB414:
 3251              	.LBB415:
 3252              	.LBB416:
 591:/home/tienluong/workspace/atlantis_fw/AsicFwS2/src/../include/matrix.h **** 
 3253              		.loc 1 591 0
 3254 0002 0D46     		mov	r5, r1
 3255              	.LBE416:
 3256              	.LBE415:
 3257              	.LBE414:
1247:/home/tienluong/workspace/atlantis_fw/AsicFwS2/src/../include/matrix.h **** {
 3258              		.loc 1 1247 0
 3259 0004 0646     		mov	r6, r0
 3260              	.LBB419:
 3261              	.LBB418:
 3262              	.LBB417:
 591:/home/tienluong/workspace/atlantis_fw/AsicFwS2/src/../include/matrix.h **** 
 3263              		.loc 1 591 0
 3264 0006 0446     		mov	r4, r0
 3265 0008 0FCD     		ldmia	r5!, {r0, r1, r2, r3}
 3266              	.LVL486:
 3267 000a 0FC4     		stmia	r4!, {r0, r1, r2, r3}
 3268              	.LVL487:
 3269 000c 95E80F00 		ldmia	r5, {r0, r1, r2, r3}
 3270 0010 84E80F00 		stmia	r4, {r0, r1, r2, r3}
 3271              	.LVL488:
 3272              	.LBE417:
 3273              	.LBE418:
1251:/home/tienluong/workspace/atlantis_fw/AsicFwS2/src/../include/matrix.h ****     return rval;
 3274              		.loc 1 1251 0
 3275 0014 01A8     		add	r0, sp, #4
 3276 0016 3146     		mov	r1, r6
 3277 0018 024B     		ldr	r3, .L115
 3278 001a 9847     		blx	r3
 3279              	.LVL489:
 3280              	.LBE419:
1253:/home/tienluong/workspace/atlantis_fw/AsicFwS2/src/../include/matrix.h **** 
 3281              		.loc 1 1253 0
 3282 001c 3046     		mov	r0, r6
 3283 001e 02B0     		add	sp, sp, #8
 3284              	.LCFI31:
 3285              		.cfi_def_cfa_offset 16
 3286              		@ sp needed
 3287 0020 70BD     		pop	{r4, r5, r6, pc}
 3288              	.LVL490:
 3289              	.L116:
 3290 0022 00BF     		.align	2
 3291              	.L115:
 3292 0024 00000000 		.word	_ZNK4ltaf20SquareMatrixInverterIdLi2EE3runEPd
 3293              		.cfi_endproc
 3294              	.LFE2607:
 3296              		.section	.text._ZN4ltaf7inverseIdLi2ELb0EEENS_6MatrixIT_XT0_EXT0_EXT1_EEERKS3_,"axG",%progbits,_ZN
 3297              		.align	1
 3298              		.weak	_ZN4ltaf7inverseIdLi2ELb0EEENS_6MatrixIT_XT0_EXT0_EXT1_EEERKS3_
 3299              		.thumb
 3300              		.thumb_func
 3302              	_ZN4ltaf7inverseIdLi2ELb0EEENS_6MatrixIT_XT0_EXT0_EXT1_EEERKS3_:
 3303              	.LFB2610:
1247:/home/tienluong/workspace/atlantis_fw/AsicFwS2/src/../include/matrix.h **** {
 3304              		.loc 1 1247 0
 3305              		.cfi_startproc
 3306              		@ args = 0, pretend = 0, frame = 8
 3307              		@ frame_needed = 0, uses_anonymous_args = 0
 3308              	.LVL491:
 3309 0000 73B5     		push	{r0, r1, r4, r5, r6, lr}
 3310              	.LCFI32:
 3311              		.cfi_def_cfa_offset 24
 3312              		.cfi_offset 4, -16
 3313              		.cfi_offset 5, -12
 3314              		.cfi_offset 6, -8
 3315              		.cfi_offset 14, -4
 3316              	.LBB426:
 3317              	.LBB427:
 3318              	.LBB428:
 593:/home/tienluong/workspace/atlantis_fw/AsicFwS2/src/../include/matrix.h **** 
 3319              		.loc 1 593 0
 3320 0002 0D46     		mov	r5, r1
 3321              	.LBE428:
 3322              	.LBE427:
 3323              	.LBE426:
1247:/home/tienluong/workspace/atlantis_fw/AsicFwS2/src/../include/matrix.h **** {
 3324              		.loc 1 1247 0
 3325 0004 0646     		mov	r6, r0
 3326              	.LBB431:
 3327              	.LBB430:
 3328              	.LBB429:
 593:/home/tienluong/workspace/atlantis_fw/AsicFwS2/src/../include/matrix.h **** 
 3329              		.loc 1 593 0
 3330 0006 0446     		mov	r4, r0
 3331 0008 0FCD     		ldmia	r5!, {r0, r1, r2, r3}
 3332              	.LVL492:
 3333 000a 0FC4     		stmia	r4!, {r0, r1, r2, r3}
 3334              	.LVL493:
 3335 000c 95E80F00 		ldmia	r5, {r0, r1, r2, r3}
 3336 0010 84E80F00 		stmia	r4, {r0, r1, r2, r3}
 3337              	.LVL494:
 3338              	.LBE429:
 3339              	.LBE430:
1251:/home/tienluong/workspace/atlantis_fw/AsicFwS2/src/../include/matrix.h ****     return rval;
 3340              		.loc 1 1251 0
 3341 0014 01A8     		add	r0, sp, #4
 3342 0016 3146     		mov	r1, r6
 3343 0018 024B     		ldr	r3, .L118
 3344 001a 9847     		blx	r3
 3345              	.LVL495:
 3346              	.LBE431:
1253:/home/tienluong/workspace/atlantis_fw/AsicFwS2/src/../include/matrix.h **** 
 3347              		.loc 1 1253 0
 3348 001c 3046     		mov	r0, r6
 3349 001e 02B0     		add	sp, sp, #8
 3350              	.LCFI33:
 3351              		.cfi_def_cfa_offset 16
 3352              		@ sp needed
 3353 0020 70BD     		pop	{r4, r5, r6, pc}
 3354              	.LVL496:
 3355              	.L119:
 3356 0022 00BF     		.align	2
 3357              	.L118:
 3358 0024 00000000 		.word	_ZNK4ltaf20SquareMatrixInverterIdLi2EE3runEPd
 3359              		.cfi_endproc
 3360              	.LFE2610:
 3362              		.global	__aeabi_dadd
 3363              		.section	.text._ZNK4ltaf20SquareMatrixInverterIdLi3EE3runEPd,"axG",%progbits,_ZNK4ltaf20SquareMatr
 3364              		.align	1
 3365              		.weak	_ZNK4ltaf20SquareMatrixInverterIdLi3EE3runEPd
 3366              		.thumb
 3367              		.thumb_func
 3369              	_ZNK4ltaf20SquareMatrixInverterIdLi3EE3runEPd:
 3370              	.LFB2696:
1140:/home/tienluong/workspace/atlantis_fw/AsicFwS2/src/../include/matrix.h ****     {
 3371              		.loc 1 1140 0
 3372              		.cfi_startproc
 3373              		@ args = 0, pretend = 0, frame = 168
 3374              		@ frame_needed = 0, uses_anonymous_args = 0
 3375              	.LVL497:
 3376 0000 2DE9F04F 		push	{r4, r5, r6, r7, r8, r9, r10, fp, lr}
 3377              	.LCFI34:
 3378              		.cfi_def_cfa_offset 36
 3379              		.cfi_offset 4, -36
 3380              		.cfi_offset 5, -32
 3381              		.cfi_offset 6, -28
 3382              		.cfi_offset 7, -24
 3383              		.cfi_offset 8, -20
 3384              		.cfi_offset 9, -16
 3385              		.cfi_offset 10, -12
 3386              		.cfi_offset 11, -8
 3387              		.cfi_offset 14, -4
 3388 0004 ABB0     		sub	sp, sp, #172
 3389              	.LCFI35:
 3390              		.cfi_def_cfa_offset 208
 3391              	.LBB432:
1142:/home/tienluong/workspace/atlantis_fw/AsicFwS2/src/../include/matrix.h ****                       - mat[1] * ( mat[3] * mat[8] - mat[5] * mat[6] )
 3392              		.loc 1 1142 0
 3393 0006 D1E90023 		ldrd	r2, [r1]
 3394              	.LBE432:
1140:/home/tienluong/workspace/atlantis_fw/AsicFwS2/src/../include/matrix.h ****     {
 3395              		.loc 1 1140 0
 3396 000a 0D46     		mov	r5, r1
 3397              	.LBB434:
1142:/home/tienluong/workspace/atlantis_fw/AsicFwS2/src/../include/matrix.h ****                       - mat[1] * ( mat[3] * mat[8] - mat[5] * mat[6] )
 3398              		.loc 1 1142 0
 3399 000c CDE90023 		strd	r2, [sp]
 3400 0010 D1E90823 		ldrd	r2, [r1, #32]
 3401 0014 CDE90423 		strd	r2, [sp, #16]
 3402 0018 D1E91023 		ldrd	r2, [r1, #64]
 3403 001c CDE90623 		strd	r2, [sp, #24]
 3404 0020 D1E90E23 		ldrd	r2, [r1, #56]
 3405 0024 CDE90823 		strd	r2, [sp, #32]
 3406 0028 D1E90A23 		ldrd	r2, [r1, #40]
1144:/home/tienluong/workspace/atlantis_fw/AsicFwS2/src/../include/matrix.h **** 
 3407              		.loc 1 1144 0
 3408 002c 834C     		ldr	r4, .L123
1142:/home/tienluong/workspace/atlantis_fw/AsicFwS2/src/../include/matrix.h ****                       - mat[1] * ( mat[3] * mat[8] - mat[5] * mat[6] )
 3409              		.loc 1 1142 0
 3410 002e CDE90A23 		strd	r2, [sp, #40]
1144:/home/tienluong/workspace/atlantis_fw/AsicFwS2/src/../include/matrix.h **** 
 3411              		.loc 1 1144 0
 3412 0032 DDE90401 		ldrd	r0, [sp, #16]
 3413              	.LVL498:
 3414 0036 DDE90623 		ldrd	r2, [sp, #24]
 3415 003a A047     		blx	r4
 3416              	.LVL499:
 3417 003c DDE90A23 		ldrd	r2, [sp, #40]
 3418 0040 7F4E     		ldr	r6, .L123+4
 3419 0042 8046     		mov	r8, r0
 3420 0044 8946     		mov	r9, r1
 3421 0046 DDE90801 		ldrd	r0, [sp, #32]
 3422 004a A047     		blx	r4
 3423              	.LVL500:
 3424 004c 0246     		mov	r2, r0
 3425 004e 0B46     		mov	r3, r1
 3426 0050 4046     		mov	r0, r8
 3427 0052 4946     		mov	r1, r9
 3428 0054 B047     		blx	r6
 3429              	.LVL501:
1143:/home/tienluong/workspace/atlantis_fw/AsicFwS2/src/../include/matrix.h ****                       + mat[2] * ( mat[3] * mat[7] - mat[4] * mat[6] );
 3430              		.loc 1 1143 0
 3431 0056 D5E90623 		ldrd	r2, [r5, #24]
 3432 005a CDE90C23 		strd	r2, [sp, #48]
 3433 005e D5E90C23 		ldrd	r2, [r5, #48]
 3434 0062 CDE90E23 		strd	r2, [sp, #56]
1144:/home/tienluong/workspace/atlantis_fw/AsicFwS2/src/../include/matrix.h **** 
 3435              		.loc 1 1144 0
 3436 0066 DDE90623 		ldrd	r2, [sp, #24]
1143:/home/tienluong/workspace/atlantis_fw/AsicFwS2/src/../include/matrix.h ****                       + mat[2] * ( mat[3] * mat[7] - mat[4] * mat[6] );
 3437              		.loc 1 1143 0
 3438 006a D5E902AB 		ldrd	r10, [r5, #8]
1144:/home/tienluong/workspace/atlantis_fw/AsicFwS2/src/../include/matrix.h **** 
 3439              		.loc 1 1144 0
 3440 006e CDE91001 		strd	r0, [sp, #64]
 3441 0072 DDE90C01 		ldrd	r0, [sp, #48]
 3442 0076 A047     		blx	r4
 3443              	.LVL502:
 3444 0078 DDE90E23 		ldrd	r2, [sp, #56]
 3445 007c 8046     		mov	r8, r0
 3446 007e 8946     		mov	r9, r1
 3447 0080 DDE90A01 		ldrd	r0, [sp, #40]
 3448 0084 A047     		blx	r4
 3449              	.LVL503:
 3450 0086 0246     		mov	r2, r0
 3451 0088 0B46     		mov	r3, r1
 3452 008a 4046     		mov	r0, r8
 3453 008c 4946     		mov	r1, r9
 3454 008e B047     		blx	r6
 3455              	.LVL504:
 3456 0090 D5E90423 		ldrd	r2, [r5, #16]
 3457 0094 CDE90223 		strd	r2, [sp, #8]
 3458 0098 DDE90823 		ldrd	r2, [sp, #32]
 3459 009c 0746     		mov	r7, r0
 3460 009e 1591     		str	r1, [sp, #84]
 3461 00a0 DDE90C01 		ldrd	r0, [sp, #48]
 3462 00a4 A047     		blx	r4
 3463              	.LVL505:
 3464 00a6 DDE90E23 		ldrd	r2, [sp, #56]
 3465 00aa 8046     		mov	r8, r0
 3466 00ac 8946     		mov	r9, r1
 3467 00ae DDE90401 		ldrd	r0, [sp, #16]
 3468 00b2 A047     		blx	r4
 3469              	.LVL506:
 3470 00b4 0246     		mov	r2, r0
 3471 00b6 0B46     		mov	r3, r1
 3472 00b8 4046     		mov	r0, r8
 3473 00ba 4946     		mov	r1, r9
 3474 00bc B047     		blx	r6
 3475              	.LVL507:
 3476 00be DDE91023 		ldrd	r2, [sp, #64]
 3477 00c2 CDE91201 		strd	r0, [sp, #72]
 3478              	.LVL508:
 3479 00c6 DDE90001 		ldrd	r0, [sp]
 3480              	.LVL509:
 3481 00ca A047     		blx	r4
 3482              	.LVL510:
 3483 00cc 3A46     		mov	r2, r7
 3484 00ce 159B     		ldr	r3, [sp, #84]
 3485 00d0 8046     		mov	r8, r0
 3486 00d2 8946     		mov	r9, r1
 3487 00d4 5046     		mov	r0, r10
 3488 00d6 5946     		mov	r1, fp
 3489 00d8 A047     		blx	r4
 3490              	.LVL511:
 3491 00da 0246     		mov	r2, r0
 3492 00dc 0B46     		mov	r3, r1
 3493 00de 4046     		mov	r0, r8
 3494 00e0 4946     		mov	r1, r9
 3495 00e2 B047     		blx	r6
 3496              	.LVL512:
 3497 00e4 DDE91223 		ldrd	r2, [sp, #72]
 3498 00e8 8046     		mov	r8, r0
 3499 00ea 8946     		mov	r9, r1
 3500 00ec DDE90201 		ldrd	r0, [sp, #8]
 3501 00f0 A047     		blx	r4
 3502              	.LVL513:
 3503 00f2 DFF854C1 		ldr	ip, .L123+12
 3504 00f6 0246     		mov	r2, r0
 3505 00f8 0B46     		mov	r3, r1
 3506 00fa 4046     		mov	r0, r8
 3507 00fc 4946     		mov	r1, r9
 3508 00fe E047     		blx	ip
 3509              	.LVL514:
1146:/home/tienluong/workspace/atlantis_fw/AsicFwS2/src/../include/matrix.h **** 
 3510              		.loc 1 1146 0
 3511 0100 DFF848C1 		ldr	ip, .L123+16
1144:/home/tienluong/workspace/atlantis_fw/AsicFwS2/src/../include/matrix.h **** 
 3512              		.loc 1 1144 0
 3513 0104 0246     		mov	r2, r0
 3514 0106 0B46     		mov	r3, r1
1146:/home/tienluong/workspace/atlantis_fw/AsicFwS2/src/../include/matrix.h **** 
 3515              		.loc 1 1146 0
 3516 0108 0020     		movs	r0, #0
 3517 010a 4E49     		ldr	r1, .L123+8
 3518 010c E047     		blx	ip
 3519              	.LVL515:
1149:/home/tienluong/workspace/atlantis_fw/AsicFwS2/src/../include/matrix.h ****         tmp[1] = -( mat[1] * mat[8] - mat[2] * mat[7] );
 3520              		.loc 1 1149 0
 3521 010e DDE91023 		ldrd	r2, [sp, #64]
 3522 0112 CDE91823 		strd	r2, [sp, #96]
1150:/home/tienluong/workspace/atlantis_fw/AsicFwS2/src/../include/matrix.h ****         tmp[2] =  mat[1] * mat[5] - mat[2] * mat[4];
 3523              		.loc 1 1150 0
 3524 0116 DDE90623 		ldrd	r2, [sp, #24]
1146:/home/tienluong/workspace/atlantis_fw/AsicFwS2/src/../include/matrix.h **** 
 3525              		.loc 1 1146 0
 3526 011a CDE91601 		strd	r0, [sp, #88]
 3527              	.LVL516:
1150:/home/tienluong/workspace/atlantis_fw/AsicFwS2/src/../include/matrix.h ****         tmp[2] =  mat[1] * mat[5] - mat[2] * mat[4];
 3528              		.loc 1 1150 0
 3529 011e 5046     		mov	r0, r10
 3530              	.LVL517:
 3531 0120 5946     		mov	r1, fp
 3532 0122 A047     		blx	r4
 3533              	.LVL518:
 3534 0124 DDE90823 		ldrd	r2, [sp, #32]
 3535 0128 8046     		mov	r8, r0
 3536 012a 8946     		mov	r9, r1
 3537 012c DDE90201 		ldrd	r0, [sp, #8]
 3538 0130 A047     		blx	r4
 3539              	.LVL519:
 3540 0132 0246     		mov	r2, r0
 3541 0134 0B46     		mov	r3, r1
 3542 0136 4046     		mov	r0, r8
 3543 0138 4946     		mov	r1, r9
 3544 013a B047     		blx	r6
 3545              	.LVL520:
1151:/home/tienluong/workspace/atlantis_fw/AsicFwS2/src/../include/matrix.h ****         tmp[3] = -( mat[3] * mat[8] - mat[5] * mat[6] );
 3546              		.loc 1 1151 0
 3547 013c DDE90A23 		ldrd	r2, [sp, #40]
1150:/home/tienluong/workspace/atlantis_fw/AsicFwS2/src/../include/matrix.h ****         tmp[2] =  mat[1] * mat[5] - mat[2] * mat[4];
 3548              		.loc 1 1150 0
 3549 0140 01F10041 		add	r1, r1, #-2147483648
 3550 0144 1A90     		str	r0, [sp, #104]
1151:/home/tienluong/workspace/atlantis_fw/AsicFwS2/src/../include/matrix.h ****         tmp[3] = -( mat[3] * mat[8] - mat[5] * mat[6] );
 3551              		.loc 1 1151 0
 3552 0146 5046     		mov	r0, r10
1150:/home/tienluong/workspace/atlantis_fw/AsicFwS2/src/../include/matrix.h ****         tmp[2] =  mat[1] * mat[5] - mat[2] * mat[4];
 3553              		.loc 1 1150 0
 3554 0148 1B91     		str	r1, [sp, #108]
1151:/home/tienluong/workspace/atlantis_fw/AsicFwS2/src/../include/matrix.h ****         tmp[3] = -( mat[3] * mat[8] - mat[5] * mat[6] );
 3555              		.loc 1 1151 0
 3556 014a 5946     		mov	r1, fp
 3557 014c A047     		blx	r4
 3558              	.LVL521:
 3559 014e DDE90423 		ldrd	r2, [sp, #16]
 3560 0152 8046     		mov	r8, r0
 3561 0154 8946     		mov	r9, r1
 3562 0156 DDE90201 		ldrd	r0, [sp, #8]
 3563 015a A047     		blx	r4
 3564              	.LVL522:
 3565 015c 0246     		mov	r2, r0
 3566 015e 0B46     		mov	r3, r1
 3567 0160 4046     		mov	r0, r8
 3568 0162 4946     		mov	r1, r9
 3569 0164 B047     		blx	r6
 3570              	.LVL523:
1152:/home/tienluong/workspace/atlantis_fw/AsicFwS2/src/../include/matrix.h ****         tmp[4] =  mat[0] * mat[8] - mat[2] * mat[6];
 3571              		.loc 1 1152 0
 3572 0166 159B     		ldr	r3, [sp, #84]
 3573 0168 1E97     		str	r7, [sp, #120]
 3574 016a 16AF     		add	r7, sp, #88
 3575              	.LVL524:
1151:/home/tienluong/workspace/atlantis_fw/AsicFwS2/src/../include/matrix.h ****         tmp[3] = -( mat[3] * mat[8] - mat[5] * mat[6] );
 3576              		.loc 1 1151 0
 3577 016c CDE91C01 		strd	r0, [sp, #112]
1152:/home/tienluong/workspace/atlantis_fw/AsicFwS2/src/../include/matrix.h ****         tmp[4] =  mat[0] * mat[8] - mat[2] * mat[6];
 3578              		.loc 1 1152 0
 3579 0170 03F10041 		add	r1, r3, #-2147483648
1153:/home/tienluong/workspace/atlantis_fw/AsicFwS2/src/../include/matrix.h ****         tmp[5] = -( mat[0] * mat[5] - mat[3] * mat[2] );
 3580              		.loc 1 1153 0
 3581 0174 DDE90623 		ldrd	r2, [sp, #24]
1152:/home/tienluong/workspace/atlantis_fw/AsicFwS2/src/../include/matrix.h ****         tmp[4] =  mat[0] * mat[8] - mat[2] * mat[6];
 3582              		.loc 1 1152 0
 3583 0178 1F91     		str	r1, [sp, #124]
1153:/home/tienluong/workspace/atlantis_fw/AsicFwS2/src/../include/matrix.h ****         tmp[5] = -( mat[0] * mat[5] - mat[3] * mat[2] );
 3584              		.loc 1 1153 0
 3585 017a DDE90001 		ldrd	r0, [sp]
 3586 017e A047     		blx	r4
 3587              	.LVL525:
 3588 0180 DDE90E23 		ldrd	r2, [sp, #56]
 3589 0184 8046     		mov	r8, r0
 3590 0186 8946     		mov	r9, r1
 3591 0188 DDE90201 		ldrd	r0, [sp, #8]
 3592 018c A047     		blx	r4
 3593              	.LVL526:
 3594 018e 0246     		mov	r2, r0
 3595 0190 0B46     		mov	r3, r1
 3596 0192 4046     		mov	r0, r8
 3597 0194 4946     		mov	r1, r9
 3598 0196 B047     		blx	r6
 3599              	.LVL527:
1154:/home/tienluong/workspace/atlantis_fw/AsicFwS2/src/../include/matrix.h ****         tmp[6] =  mat[3] * mat[7] - mat[6] * mat[ 4];
 3600              		.loc 1 1154 0
 3601 0198 DDE90A23 		ldrd	r2, [sp, #40]
1153:/home/tienluong/workspace/atlantis_fw/AsicFwS2/src/../include/matrix.h ****         tmp[5] = -( mat[0] * mat[5] - mat[3] * mat[2] );
 3602              		.loc 1 1153 0
 3603 019c CDE92001 		strd	r0, [sp, #128]
1154:/home/tienluong/workspace/atlantis_fw/AsicFwS2/src/../include/matrix.h ****         tmp[6] =  mat[3] * mat[7] - mat[6] * mat[ 4];
 3604              		.loc 1 1154 0
 3605 01a0 DDE90001 		ldrd	r0, [sp]
 3606 01a4 A047     		blx	r4
 3607              	.LVL528:
 3608 01a6 DDE90223 		ldrd	r2, [sp, #8]
 3609 01aa 8046     		mov	r8, r0
 3610 01ac 8946     		mov	r9, r1
 3611 01ae DDE90C01 		ldrd	r0, [sp, #48]
 3612 01b2 A047     		blx	r4
 3613              	.LVL529:
 3614 01b4 0246     		mov	r2, r0
 3615 01b6 0B46     		mov	r3, r1
 3616 01b8 4046     		mov	r0, r8
 3617 01ba 4946     		mov	r1, r9
 3618 01bc B047     		blx	r6
 3619              	.LVL530:
1155:/home/tienluong/workspace/atlantis_fw/AsicFwS2/src/../include/matrix.h ****         tmp[7] = -( mat[0] * mat[7] - mat[6] * mat[1] );
 3620              		.loc 1 1155 0
 3621 01be DDE91223 		ldrd	r2, [sp, #72]
 3622 01c2 CDE92423 		strd	r2, [sp, #144]
1156:/home/tienluong/workspace/atlantis_fw/AsicFwS2/src/../include/matrix.h ****         tmp[8] =  mat[0] * mat[4] - mat[3] * mat[1];
 3623              		.loc 1 1156 0
 3624 01c6 DDE90823 		ldrd	r2, [sp, #32]
1154:/home/tienluong/workspace/atlantis_fw/AsicFwS2/src/../include/matrix.h ****         tmp[6] =  mat[3] * mat[7] - mat[6] * mat[ 4];
 3625              		.loc 1 1154 0
 3626 01ca 01F10041 		add	r1, r1, #-2147483648
 3627 01ce 2290     		str	r0, [sp, #136]
 3628 01d0 2391     		str	r1, [sp, #140]
1156:/home/tienluong/workspace/atlantis_fw/AsicFwS2/src/../include/matrix.h ****         tmp[8] =  mat[0] * mat[4] - mat[3] * mat[1];
 3629              		.loc 1 1156 0
 3630 01d2 DDE90001 		ldrd	r0, [sp]
 3631 01d6 A047     		blx	r4
 3632              	.LVL531:
 3633 01d8 5246     		mov	r2, r10
 3634 01da 5B46     		mov	r3, fp
 3635 01dc 8046     		mov	r8, r0
 3636 01de 8946     		mov	r9, r1
 3637 01e0 DDE90E01 		ldrd	r0, [sp, #56]
 3638 01e4 A047     		blx	r4
 3639              	.LVL532:
 3640 01e6 0246     		mov	r2, r0
 3641 01e8 0B46     		mov	r3, r1
 3642 01ea 4046     		mov	r0, r8
 3643 01ec 4946     		mov	r1, r9
 3644 01ee B047     		blx	r6
 3645              	.LVL533:
1157:/home/tienluong/workspace/atlantis_fw/AsicFwS2/src/../include/matrix.h **** 
 3646              		.loc 1 1157 0
 3647 01f0 DDE90423 		ldrd	r2, [sp, #16]
1156:/home/tienluong/workspace/atlantis_fw/AsicFwS2/src/../include/matrix.h ****         tmp[8] =  mat[0] * mat[4] - mat[3] * mat[1];
 3648              		.loc 1 1156 0
 3649 01f4 01F10041 		add	r1, r1, #-2147483648
 3650 01f8 2690     		str	r0, [sp, #152]
 3651 01fa 2791     		str	r1, [sp, #156]
1157:/home/tienluong/workspace/atlantis_fw/AsicFwS2/src/../include/matrix.h **** 
 3652              		.loc 1 1157 0
 3653 01fc DDE90001 		ldrd	r0, [sp]
 3654 0200 A047     		blx	r4
 3655              	.LVL534:
 3656 0202 5246     		mov	r2, r10
 3657 0204 5B46     		mov	r3, fp
 3658 0206 8046     		mov	r8, r0
 3659 0208 8946     		mov	r9, r1
 3660 020a DDE90C01 		ldrd	r0, [sp, #48]
 3661 020e A047     		blx	r4
 3662              	.LVL535:
 3663 0210 0246     		mov	r2, r0
 3664 0212 0B46     		mov	r3, r1
 3665 0214 4046     		mov	r0, r8
 3666 0216 4946     		mov	r1, r9
 3667 0218 B047     		blx	r6
 3668              	.LVL536:
 3669 021a A5F10806 		sub	r6, r5, #8
 3670 021e 4035     		adds	r5, r5, #64
 3671              	.LVL537:
 3672 0220 CDE92801 		strd	r0, [sp, #160]
 3673              	.LVL538:
 3674              	.L121:
 3675              	.LBB433:
1159:/home/tienluong/workspace/atlantis_fw/AsicFwS2/src/../include/matrix.h ****     }
 3676              		.loc 1 1159 0 discriminator 3
 3677 0224 F7E90201 		ldrd	r0, [r7, #8]!
 3678 0228 DDE91623 		ldrd	r2, [sp, #88]
 3679 022c A047     		blx	r4
 3680              	.LVL539:
 3681 022e E6E90201 		strd	r0, [r6, #8]!
 3682 0232 AE42     		cmp	r6, r5
 3683 0234 F6D1     		bne	.L121
 3684              	.LBE433:
 3685              	.LBE434:
1160:/home/tienluong/workspace/atlantis_fw/AsicFwS2/src/../include/matrix.h **** };
 3686              		.loc 1 1160 0
 3687 0236 2BB0     		add	sp, sp, #172
 3688              	.LCFI36:
 3689              		.cfi_def_cfa_offset 36
 3690              		@ sp needed
 3691 0238 BDE8F08F 		pop	{r4, r5, r6, r7, r8, r9, r10, fp, pc}
 3692              	.LVL540:
 3693              	.L124:
 3694              		.align	2
 3695              	.L123:
 3696 023c 00000000 		.word	__aeabi_dmul
 3697 0240 00000000 		.word	__aeabi_dsub
 3698 0244 0000F03F 		.word	1072693248
 3699 0248 00000000 		.word	__aeabi_dadd
 3700 024c 00000000 		.word	__aeabi_ddiv
 3701              		.cfi_endproc
 3702              	.LFE2696:
 3704              		.section	.text._ZN4ltaf7inverseIdLi3ELb1EEENS_6MatrixIT_XT0_EXT0_EXT1_EEERKS3_,"axG",%progbits,_ZN
 3705              		.align	1
 3706              		.weak	_ZN4ltaf7inverseIdLi3ELb1EEENS_6MatrixIT_XT0_EXT0_EXT1_EEERKS3_
 3707              		.thumb
 3708              		.thumb_func
 3710              	_ZN4ltaf7inverseIdLi3ELb1EEENS_6MatrixIT_XT0_EXT0_EXT1_EEERKS3_:
 3711              	.LFB2608:
1247:/home/tienluong/workspace/atlantis_fw/AsicFwS2/src/../include/matrix.h **** {
 3712              		.loc 1 1247 0
 3713              		.cfi_startproc
 3714              		@ args = 0, pretend = 0, frame = 8
 3715              		@ frame_needed = 0, uses_anonymous_args = 0
 3716              	.LVL541:
 3717 0000 13B5     		push	{r0, r1, r4, lr}
 3718              	.LCFI37:
 3719              		.cfi_def_cfa_offset 16
 3720              		.cfi_offset 4, -8
 3721              		.cfi_offset 14, -4
 3722              	.LBB441:
 3723              	.LBB442:
 3724              	.LBB443:
 591:/home/tienluong/workspace/atlantis_fw/AsicFwS2/src/../include/matrix.h **** 
 3725              		.loc 1 591 0
 3726 0002 4822     		movs	r2, #72
 3727              	.LBE443:
 3728              	.LBE442:
 3729              	.LBE441:
1247:/home/tienluong/workspace/atlantis_fw/AsicFwS2/src/../include/matrix.h **** {
 3730              		.loc 1 1247 0
 3731 0004 0446     		mov	r4, r0
 3732              	.LVL542:
 3733              	.LBB446:
 3734              	.LBB445:
 3735              	.LBB444:
 591:/home/tienluong/workspace/atlantis_fw/AsicFwS2/src/../include/matrix.h **** 
 3736              		.loc 1 591 0
 3737 0006 044B     		ldr	r3, .L126
 3738 0008 9847     		blx	r3
 3739              	.LVL543:
 3740              	.LBE444:
 3741              	.LBE445:
1251:/home/tienluong/workspace/atlantis_fw/AsicFwS2/src/../include/matrix.h ****     return rval;
 3742              		.loc 1 1251 0
 3743 000a 01A8     		add	r0, sp, #4
 3744 000c 2146     		mov	r1, r4
 3745 000e 034B     		ldr	r3, .L126+4
 3746 0010 9847     		blx	r3
 3747              	.LVL544:
 3748              	.LBE446:
1253:/home/tienluong/workspace/atlantis_fw/AsicFwS2/src/../include/matrix.h **** 
 3749              		.loc 1 1253 0
 3750 0012 2046     		mov	r0, r4
 3751 0014 02B0     		add	sp, sp, #8
 3752              	.LCFI38:
 3753              		.cfi_def_cfa_offset 8
 3754              		@ sp needed
 3755 0016 10BD     		pop	{r4, pc}
 3756              	.LVL545:
 3757              	.L127:
 3758              		.align	2
 3759              	.L126:
 3760 0018 00000000 		.word	memcpy
 3761 001c 00000000 		.word	_ZNK4ltaf20SquareMatrixInverterIdLi3EE3runEPd
 3762              		.cfi_endproc
 3763              	.LFE2608:
 3765              		.section	.text._ZN4ltaf7inverseIdLi3ELb0EEENS_6MatrixIT_XT0_EXT0_EXT1_EEERKS3_,"axG",%progbits,_ZN
 3766              		.align	1
 3767              		.weak	_ZN4ltaf7inverseIdLi3ELb0EEENS_6MatrixIT_XT0_EXT0_EXT1_EEERKS3_
 3768              		.thumb
 3769              		.thumb_func
 3771              	_ZN4ltaf7inverseIdLi3ELb0EEENS_6MatrixIT_XT0_EXT0_EXT1_EEERKS3_:
 3772              	.LFB2611:
1247:/home/tienluong/workspace/atlantis_fw/AsicFwS2/src/../include/matrix.h **** {
 3773              		.loc 1 1247 0
 3774              		.cfi_startproc
 3775              		@ args = 0, pretend = 0, frame = 8
 3776              		@ frame_needed = 0, uses_anonymous_args = 0
 3777              	.LVL546:
 3778 0000 13B5     		push	{r0, r1, r4, lr}
 3779              	.LCFI39:
 3780              		.cfi_def_cfa_offset 16
 3781              		.cfi_offset 4, -8
 3782              		.cfi_offset 14, -4
 3783              	.LBB453:
 3784              	.LBB454:
 3785              	.LBB455:
 593:/home/tienluong/workspace/atlantis_fw/AsicFwS2/src/../include/matrix.h **** 
 3786              		.loc 1 593 0
 3787 0002 4822     		movs	r2, #72
 3788              	.LBE455:
 3789              	.LBE454:
 3790              	.LBE453:
1247:/home/tienluong/workspace/atlantis_fw/AsicFwS2/src/../include/matrix.h **** {
 3791              		.loc 1 1247 0
 3792 0004 0446     		mov	r4, r0
 3793              	.LVL547:
 3794              	.LBB458:
 3795              	.LBB457:
 3796              	.LBB456:
 593:/home/tienluong/workspace/atlantis_fw/AsicFwS2/src/../include/matrix.h **** 
 3797              		.loc 1 593 0
 3798 0006 044B     		ldr	r3, .L129
 3799 0008 9847     		blx	r3
 3800              	.LVL548:
 3801              	.LBE456:
 3802              	.LBE457:
1251:/home/tienluong/workspace/atlantis_fw/AsicFwS2/src/../include/matrix.h ****     return rval;
 3803              		.loc 1 1251 0
 3804 000a 01A8     		add	r0, sp, #4
 3805 000c 2146     		mov	r1, r4
 3806 000e 034B     		ldr	r3, .L129+4
 3807 0010 9847     		blx	r3
 3808              	.LVL549:
 3809              	.LBE458:
1253:/home/tienluong/workspace/atlantis_fw/AsicFwS2/src/../include/matrix.h **** 
 3810              		.loc 1 1253 0
 3811 0012 2046     		mov	r0, r4
 3812 0014 02B0     		add	sp, sp, #8
 3813              	.LCFI40:
 3814              		.cfi_def_cfa_offset 8
 3815              		@ sp needed
 3816 0016 10BD     		pop	{r4, pc}
 3817              	.LVL550:
 3818              	.L130:
 3819              		.align	2
 3820              	.L129:
 3821 0018 00000000 		.word	memcpy
 3822 001c 00000000 		.word	_ZNK4ltaf20SquareMatrixInverterIdLi3EE3runEPd
 3823              		.cfi_endproc
 3824              	.LFE2611:
 3826              		.section	.text._ZNK4ltaf20SquareMatrixInverterIdLi4EE3runEPd,"axG",%progbits,_ZNK4ltaf20SquareMatr
 3827              		.align	1
 3828              		.weak	_ZNK4ltaf20SquareMatrixInverterIdLi4EE3runEPd
 3829              		.thumb
 3830              		.thumb_func
 3832              	_ZNK4ltaf20SquareMatrixInverterIdLi4EE3runEPd:
 3833              	.LFB2701:
1166:/home/tienluong/workspace/atlantis_fw/AsicFwS2/src/../include/matrix.h ****     {
 3834              		.loc 1 1166 0
 3835              		.cfi_startproc
 3836              		@ args = 0, pretend = 0, frame = 376
 3837              		@ frame_needed = 0, uses_anonymous_args = 0
 3838              	.LVL551:
 3839 0000 2DE9F04F 		push	{r4, r5, r6, r7, r8, r9, r10, fp, lr}
 3840              	.LCFI41:
 3841              		.cfi_def_cfa_offset 36
 3842              		.cfi_offset 4, -36
 3843              		.cfi_offset 5, -32
 3844              		.cfi_offset 6, -28
 3845              		.cfi_offset 7, -24
 3846              		.cfi_offset 8, -20
 3847              		.cfi_offset 9, -16
 3848              		.cfi_offset 10, -12
 3849              		.cfi_offset 11, -8
 3850              		.cfi_offset 14, -4
 3851 0004 DFB0     		sub	sp, sp, #380
 3852              	.LCFI42:
 3853              		.cfi_def_cfa_offset 416
 3854              	.LBB459:
1172:/home/tienluong/workspace/atlantis_fw/AsicFwS2/src/../include/matrix.h ****         tmp[1] = mat[11] * mat[14];
 3855              		.loc 1 1172 0
 3856 0006 D1E91423 		ldrd	r2, [r1, #80]
 3857              	.LBE459:
1166:/home/tienluong/workspace/atlantis_fw/AsicFwS2/src/../include/matrix.h ****     {
 3858              		.loc 1 1166 0
 3859 000a 8A46     		mov	r10, r1
 3860              	.LBB461:
1172:/home/tienluong/workspace/atlantis_fw/AsicFwS2/src/../include/matrix.h ****         tmp[1] = mat[11] * mat[14];
 3861              		.loc 1 1172 0
 3862 000c CDE90823 		strd	r2, [sp, #32]
 3863 0010 934C     		ldr	r4, .L134
 3864 0012 D1E91E23 		ldrd	r2, [r1, #120]
 3865 0016 DDE90801 		ldrd	r0, [sp, #32]
 3866              	.LVL552:
 3867 001a CDE90A23 		strd	r2, [sp, #40]
 3868 001e A047     		blx	r4
 3869              	.LVL553:
1173:/home/tienluong/workspace/atlantis_fw/AsicFwS2/src/../include/matrix.h ****         tmp[2] = mat[9] * mat[15];
 3870              		.loc 1 1173 0
 3871 0020 DAE91623 		ldrd	r2, [r10, #88]
 3872 0024 CDE90C23 		strd	r2, [sp, #48]
 3873 0028 DAE91C23 		ldrd	r2, [r10, #112]
 3874 002c CDE90E23 		strd	r2, [sp, #56]
1186:/home/tienluong/workspace/atlantis_fw/AsicFwS2/src/../include/matrix.h ****         dst[0]  -= tmp[1] * mat[5] + tmp[2] * mat[6] + tmp[5]  * mat[7];
 3875              		.loc 1 1186 0
 3876 0030 8C4D     		ldr	r5, .L134+4
1187:/home/tienluong/workspace/atlantis_fw/AsicFwS2/src/../include/matrix.h ****         dst[4]   = tmp[1] * mat[4] + tmp[6] * mat[6] + tmp[9]  * mat[7];
 3877              		.loc 1 1187 0
 3878 0032 DFF834B2 		ldr	fp, .L134+8
1172:/home/tienluong/workspace/atlantis_fw/AsicFwS2/src/../include/matrix.h ****         tmp[1] = mat[11] * mat[14];
 3879              		.loc 1 1172 0
 3880 0036 CDE92001 		strd	r0, [sp, #128]
 3881              	.LVL554:
1173:/home/tienluong/workspace/atlantis_fw/AsicFwS2/src/../include/matrix.h ****         tmp[2] = mat[9] * mat[15];
 3882              		.loc 1 1173 0
 3883 003a DDE90C01 		ldrd	r0, [sp, #48]
 3884              	.LVL555:
 3885 003e A047     		blx	r4
 3886              	.LVL556:
1174:/home/tienluong/workspace/atlantis_fw/AsicFwS2/src/../include/matrix.h ****         tmp[3] = mat[11] * mat[13];
 3887              		.loc 1 1174 0
 3888 0040 DAE91223 		ldrd	r2, [r10, #72]
 3889 0044 CDE91023 		strd	r2, [sp, #64]
1173:/home/tienluong/workspace/atlantis_fw/AsicFwS2/src/../include/matrix.h ****         tmp[2] = mat[9] * mat[15];
 3890              		.loc 1 1173 0
 3891 0048 CDE92201 		strd	r0, [sp, #136]
 3892              	.LVL557:
1174:/home/tienluong/workspace/atlantis_fw/AsicFwS2/src/../include/matrix.h ****         tmp[3] = mat[11] * mat[13];
 3893              		.loc 1 1174 0
 3894 004c 1046     		mov	r0, r2
 3895              	.LVL558:
 3896 004e 1946     		mov	r1, r3
 3897 0050 DDE90A23 		ldrd	r2, [sp, #40]
 3898 0054 A047     		blx	r4
 3899              	.LVL559:
1175:/home/tienluong/workspace/atlantis_fw/AsicFwS2/src/../include/matrix.h ****         tmp[4] = mat[9] * mat[14];
 3900              		.loc 1 1175 0
 3901 0056 DAE91A23 		ldrd	r2, [r10, #104]
 3902 005a CDE91223 		strd	r2, [sp, #72]
1174:/home/tienluong/workspace/atlantis_fw/AsicFwS2/src/../include/matrix.h ****         tmp[3] = mat[11] * mat[13];
 3903              		.loc 1 1174 0
 3904 005e CDE92401 		strd	r0, [sp, #144]
 3905              	.LVL560:
1175:/home/tienluong/workspace/atlantis_fw/AsicFwS2/src/../include/matrix.h ****         tmp[4] = mat[9] * mat[14];
 3906              		.loc 1 1175 0
 3907 0062 DDE90C01 		ldrd	r0, [sp, #48]
 3908              	.LVL561:
 3909 0066 A047     		blx	r4
 3910              	.LVL562:
1176:/home/tienluong/workspace/atlantis_fw/AsicFwS2/src/../include/matrix.h ****         tmp[5] = mat[10] * mat[13];
 3911              		.loc 1 1176 0
 3912 0068 DDE90E23 		ldrd	r2, [sp, #56]
1175:/home/tienluong/workspace/atlantis_fw/AsicFwS2/src/../include/matrix.h ****         tmp[4] = mat[9] * mat[14];
 3913              		.loc 1 1175 0
 3914 006c CDE92601 		strd	r0, [sp, #152]
 3915              	.LVL563:
1176:/home/tienluong/workspace/atlantis_fw/AsicFwS2/src/../include/matrix.h ****         tmp[5] = mat[10] * mat[13];
 3916              		.loc 1 1176 0
 3917 0070 DDE91001 		ldrd	r0, [sp, #64]
 3918              	.LVL564:
 3919 0074 A047     		blx	r4
 3920              	.LVL565:
1177:/home/tienluong/workspace/atlantis_fw/AsicFwS2/src/../include/matrix.h ****         tmp[6] = mat[8] * mat[15];
 3921              		.loc 1 1177 0
 3922 0076 DDE91223 		ldrd	r2, [sp, #72]
1176:/home/tienluong/workspace/atlantis_fw/AsicFwS2/src/../include/matrix.h ****         tmp[5] = mat[10] * mat[13];
 3923              		.loc 1 1176 0
 3924 007a CDE92801 		strd	r0, [sp, #160]
1177:/home/tienluong/workspace/atlantis_fw/AsicFwS2/src/../include/matrix.h ****         tmp[6] = mat[8] * mat[15];
 3925              		.loc 1 1177 0
 3926 007e DDE90801 		ldrd	r0, [sp, #32]
 3927 0082 A047     		blx	r4
 3928              	.LVL566:
1178:/home/tienluong/workspace/atlantis_fw/AsicFwS2/src/../include/matrix.h ****         tmp[7] = mat[11] * mat[12];
 3929              		.loc 1 1178 0
 3930 0084 DAE91023 		ldrd	r2, [r10, #64]
 3931 0088 CDE91423 		strd	r2, [sp, #80]
1177:/home/tienluong/workspace/atlantis_fw/AsicFwS2/src/../include/matrix.h ****         tmp[6] = mat[8] * mat[15];
 3932              		.loc 1 1177 0
 3933 008c CDE92A01 		strd	r0, [sp, #168]
1178:/home/tienluong/workspace/atlantis_fw/AsicFwS2/src/../include/matrix.h ****         tmp[7] = mat[11] * mat[12];
 3934              		.loc 1 1178 0
 3935 0090 1046     		mov	r0, r2
 3936 0092 1946     		mov	r1, r3
 3937 0094 DDE90A23 		ldrd	r2, [sp, #40]
 3938 0098 A047     		blx	r4
 3939              	.LVL567:
1179:/home/tienluong/workspace/atlantis_fw/AsicFwS2/src/../include/matrix.h ****         tmp[8] = mat[8] * mat[14];
 3940              		.loc 1 1179 0
 3941 009a DAE91823 		ldrd	r2, [r10, #96]
 3942 009e CDE91623 		strd	r2, [sp, #88]
1178:/home/tienluong/workspace/atlantis_fw/AsicFwS2/src/../include/matrix.h ****         tmp[7] = mat[11] * mat[12];
 3943              		.loc 1 1178 0
 3944 00a2 CDE92C01 		strd	r0, [sp, #176]
1179:/home/tienluong/workspace/atlantis_fw/AsicFwS2/src/../include/matrix.h ****         tmp[8] = mat[8] * mat[14];
 3945              		.loc 1 1179 0
 3946 00a6 DDE90C01 		ldrd	r0, [sp, #48]
 3947 00aa A047     		blx	r4
 3948              	.LVL568:
1180:/home/tienluong/workspace/atlantis_fw/AsicFwS2/src/../include/matrix.h ****         tmp[9] = mat[10] * mat[12];
 3949              		.loc 1 1180 0
 3950 00ac DDE90E23 		ldrd	r2, [sp, #56]
1179:/home/tienluong/workspace/atlantis_fw/AsicFwS2/src/../include/matrix.h ****         tmp[8] = mat[8] * mat[14];
 3951              		.loc 1 1179 0
 3952 00b0 CDE92E01 		strd	r0, [sp, #184]
1180:/home/tienluong/workspace/atlantis_fw/AsicFwS2/src/../include/matrix.h ****         tmp[9] = mat[10] * mat[12];
 3953              		.loc 1 1180 0
 3954 00b4 DDE91401 		ldrd	r0, [sp, #80]
 3955 00b8 A047     		blx	r4
 3956              	.LVL569:
1181:/home/tienluong/workspace/atlantis_fw/AsicFwS2/src/../include/matrix.h ****         tmp[10] = mat[8] * mat[13];
 3957              		.loc 1 1181 0
 3958 00ba DDE91623 		ldrd	r2, [sp, #88]
1180:/home/tienluong/workspace/atlantis_fw/AsicFwS2/src/../include/matrix.h ****         tmp[9] = mat[10] * mat[12];
 3959              		.loc 1 1180 0
 3960 00be CDE93001 		strd	r0, [sp, #192]
1181:/home/tienluong/workspace/atlantis_fw/AsicFwS2/src/../include/matrix.h ****         tmp[10] = mat[8] * mat[13];
 3961              		.loc 1 1181 0
 3962 00c2 DDE90801 		ldrd	r0, [sp, #32]
 3963 00c6 A047     		blx	r4
 3964              	.LVL570:
 3965 00c8 CDE93201 		strd	r0, [sp, #200]
1182:/home/tienluong/workspace/atlantis_fw/AsicFwS2/src/../include/matrix.h ****         tmp[11] = mat[9] * mat[12];
 3966              		.loc 1 1182 0
 3967 00cc DDE91401 		ldrd	r0, [sp, #80]
 3968 00d0 DDE91223 		ldrd	r2, [sp, #72]
 3969 00d4 A047     		blx	r4
 3970              	.LVL571:
1183:/home/tienluong/workspace/atlantis_fw/AsicFwS2/src/../include/matrix.h **** 
 3971              		.loc 1 1183 0
 3972 00d6 DDE91623 		ldrd	r2, [sp, #88]
1182:/home/tienluong/workspace/atlantis_fw/AsicFwS2/src/../include/matrix.h ****         tmp[11] = mat[9] * mat[12];
 3973              		.loc 1 1182 0
 3974 00da CDE93401 		strd	r0, [sp, #208]
1183:/home/tienluong/workspace/atlantis_fw/AsicFwS2/src/../include/matrix.h **** 
 3975              		.loc 1 1183 0
 3976 00de DDE91001 		ldrd	r0, [sp, #64]
 3977 00e2 A047     		blx	r4
 3978              	.LVL572:
1186:/home/tienluong/workspace/atlantis_fw/AsicFwS2/src/../include/matrix.h ****         dst[0]  -= tmp[1] * mat[5] + tmp[2] * mat[6] + tmp[5]  * mat[7];
 3979              		.loc 1 1186 0
 3980 00e4 DAE90A23 		ldrd	r2, [r10, #40]
 3981 00e8 CDE91823 		strd	r2, [sp, #96]
 3982 00ec DAE90C23 		ldrd	r2, [r10, #48]
 3983 00f0 CDE91A23 		strd	r2, [sp, #104]
 3984 00f4 DAE90E23 		ldrd	r2, [r10, #56]
 3985 00f8 CDE91C23 		strd	r2, [sp, #112]
 3986 00fc DDE91823 		ldrd	r2, [sp, #96]
1183:/home/tienluong/workspace/atlantis_fw/AsicFwS2/src/../include/matrix.h **** 
 3987              		.loc 1 1183 0
 3988 0100 CDE93601 		strd	r0, [sp, #216]
1186:/home/tienluong/workspace/atlantis_fw/AsicFwS2/src/../include/matrix.h ****         dst[0]  -= tmp[1] * mat[5] + tmp[2] * mat[6] + tmp[5]  * mat[7];
 3989              		.loc 1 1186 0
 3990 0104 DDE92001 		ldrd	r0, [sp, #128]
 3991 0108 A047     		blx	r4
 3992              	.LVL573:
 3993 010a DDE91A23 		ldrd	r2, [sp, #104]
 3994 010e 0646     		mov	r6, r0
 3995 0110 0F46     		mov	r7, r1
 3996 0112 DDE92601 		ldrd	r0, [sp, #152]
 3997 0116 A047     		blx	r4
 3998              	.LVL574:
 3999 0118 0246     		mov	r2, r0
 4000 011a 0B46     		mov	r3, r1
 4001 011c 3046     		mov	r0, r6
 4002 011e 3946     		mov	r1, r7
 4003 0120 A847     		blx	r5
 4004              	.LVL575:
 4005 0122 DDE91C23 		ldrd	r2, [sp, #112]
 4006 0126 0646     		mov	r6, r0
 4007 0128 0F46     		mov	r7, r1
 4008 012a DDE92801 		ldrd	r0, [sp, #160]
 4009 012e A047     		blx	r4
 4010              	.LVL576:
 4011 0130 0246     		mov	r2, r0
 4012 0132 0B46     		mov	r3, r1
 4013 0134 3046     		mov	r0, r6
 4014 0136 3946     		mov	r1, r7
 4015 0138 A847     		blx	r5
 4016              	.LVL577:
1187:/home/tienluong/workspace/atlantis_fw/AsicFwS2/src/../include/matrix.h ****         dst[4]   = tmp[1] * mat[4] + tmp[6] * mat[6] + tmp[9]  * mat[7];
 4017              		.loc 1 1187 0
 4018 013a DDE91823 		ldrd	r2, [sp, #96]
1186:/home/tienluong/workspace/atlantis_fw/AsicFwS2/src/../include/matrix.h ****         dst[0]  -= tmp[1] * mat[5] + tmp[2] * mat[6] + tmp[5]  * mat[7];
 4019              		.loc 1 1186 0
 4020 013e 8046     		mov	r8, r0
 4021 0140 8946     		mov	r9, r1
1187:/home/tienluong/workspace/atlantis_fw/AsicFwS2/src/../include/matrix.h ****         dst[4]   = tmp[1] * mat[4] + tmp[6] * mat[6] + tmp[9]  * mat[7];
 4022              		.loc 1 1187 0
 4023 0142 DDE92201 		ldrd	r0, [sp, #136]
 4024 0146 A047     		blx	r4
 4025              	.LVL578:
 4026 0148 DDE91A23 		ldrd	r2, [sp, #104]
 4027 014c 0646     		mov	r6, r0
 4028 014e 0F46     		mov	r7, r1
 4029 0150 DDE92401 		ldrd	r0, [sp, #144]
 4030 0154 A047     		blx	r4
 4031              	.LVL579:
 4032 0156 0246     		mov	r2, r0
 4033 0158 0B46     		mov	r3, r1
 4034 015a 3046     		mov	r0, r6
 4035 015c 3946     		mov	r1, r7
 4036 015e A847     		blx	r5
 4037              	.LVL580:
 4038 0160 DDE91C23 		ldrd	r2, [sp, #112]
 4039 0164 0646     		mov	r6, r0
 4040 0166 0F46     		mov	r7, r1
 4041 0168 DDE92A01 		ldrd	r0, [sp, #168]
 4042 016c A047     		blx	r4
 4043              	.LVL581:
 4044 016e 0246     		mov	r2, r0
 4045 0170 0B46     		mov	r3, r1
 4046 0172 3046     		mov	r0, r6
 4047 0174 3946     		mov	r1, r7
 4048 0176 A847     		blx	r5
 4049              	.LVL582:
 4050 0178 0246     		mov	r2, r0
 4051 017a 0B46     		mov	r3, r1
 4052 017c 4046     		mov	r0, r8
 4053 017e 4946     		mov	r1, r9
 4054 0180 D847     		blx	fp
 4055              	.LVL583:
 4056 0182 0246     		mov	r2, r0
 4057 0184 0B46     		mov	r3, r1
 4058 0186 CDE93801 		strd	r0, [sp, #224]
 4059 018a CDE93E23 		strd	r2, [sp, #248]
1188:/home/tienluong/workspace/atlantis_fw/AsicFwS2/src/../include/matrix.h ****         dst[4]  -= tmp[0] * mat[4] + tmp[7] * mat[6] + tmp[8]  * mat[7];
 4060              		.loc 1 1188 0
 4061 018e DAE90823 		ldrd	r2, [r10, #32]
 4062 0192 DDE92201 		ldrd	r0, [sp, #136]
 4063 0196 CDE91E23 		strd	r2, [sp, #120]
 4064 019a A047     		blx	r4
 4065              	.LVL584:
 4066 019c DDE91A23 		ldrd	r2, [sp, #104]
 4067 01a0 0646     		mov	r6, r0
 4068 01a2 0F46     		mov	r7, r1
 4069 01a4 DDE92C01 		ldrd	r0, [sp, #176]
 4070 01a8 A047     		blx	r4
 4071              	.LVL585:
 4072 01aa 0246     		mov	r2, r0
 4073 01ac 0B46     		mov	r3, r1
 4074 01ae 3046     		mov	r0, r6
 4075 01b0 3946     		mov	r1, r7
 4076 01b2 A847     		blx	r5
 4077              	.LVL586:
 4078 01b4 DDE91C23 		ldrd	r2, [sp, #112]
 4079 01b8 0646     		mov	r6, r0
 4080 01ba 0F46     		mov	r7, r1
 4081 01bc DDE93201 		ldrd	r0, [sp, #200]
 4082 01c0 A047     		blx	r4
 4083              	.LVL587:
 4084 01c2 0246     		mov	r2, r0
 4085 01c4 0B46     		mov	r3, r1
 4086 01c6 3046     		mov	r0, r6
 4087 01c8 3946     		mov	r1, r7
 4088 01ca A847     		blx	r5
 4089              	.LVL588:
1189:/home/tienluong/workspace/atlantis_fw/AsicFwS2/src/../include/matrix.h ****         dst[8]   = tmp[2] * mat[4] + tmp[7] * mat[5] + tmp[10] * mat[7];
 4090              		.loc 1 1189 0
 4091 01cc DDE91E23 		ldrd	r2, [sp, #120]
1188:/home/tienluong/workspace/atlantis_fw/AsicFwS2/src/../include/matrix.h ****         dst[4]  -= tmp[0] * mat[4] + tmp[7] * mat[6] + tmp[8]  * mat[7];
 4092              		.loc 1 1188 0
 4093 01d0 8046     		mov	r8, r0
 4094 01d2 8946     		mov	r9, r1
1189:/home/tienluong/workspace/atlantis_fw/AsicFwS2/src/../include/matrix.h ****         dst[8]   = tmp[2] * mat[4] + tmp[7] * mat[5] + tmp[10] * mat[7];
 4095              		.loc 1 1189 0
 4096 01d4 DDE92001 		ldrd	r0, [sp, #128]
 4097 01d8 A047     		blx	r4
 4098              	.LVL589:
 4099 01da DDE91A23 		ldrd	r2, [sp, #104]
 4100 01de 0646     		mov	r6, r0
 4101 01e0 0F46     		mov	r7, r1
 4102 01e2 DDE92E01 		ldrd	r0, [sp, #184]
 4103 01e6 A047     		blx	r4
 4104              	.LVL590:
 4105 01e8 0246     		mov	r2, r0
 4106 01ea 0B46     		mov	r3, r1
 4107 01ec 3046     		mov	r0, r6
 4108 01ee 3946     		mov	r1, r7
 4109 01f0 A847     		blx	r5
 4110              	.LVL591:
 4111 01f2 DDE91C23 		ldrd	r2, [sp, #112]
 4112 01f6 0646     		mov	r6, r0
 4113 01f8 0F46     		mov	r7, r1
 4114 01fa DDE93001 		ldrd	r0, [sp, #192]
 4115 01fe A047     		blx	r4
 4116              	.LVL592:
 4117 0200 0246     		mov	r2, r0
 4118 0202 0B46     		mov	r3, r1
 4119 0204 3046     		mov	r0, r6
 4120 0206 3946     		mov	r1, r7
 4121 0208 A847     		blx	r5
 4122              	.LVL593:
 4123 020a 0246     		mov	r2, r0
 4124 020c 0B46     		mov	r3, r1
 4125 020e 4046     		mov	r0, r8
 4126 0210 4946     		mov	r1, r9
 4127 0212 D847     		blx	fp
 4128              	.LVL594:
 4129 0214 CDE93A01 		strd	r0, [sp, #232]
 4130 0218 0246     		mov	r2, r0
 4131 021a 0B46     		mov	r3, r1
 4132 021c 46A9     		add	r1, sp, #280
 4133 021e C1E90023 		strd	r2, [r1]
1190:/home/tienluong/workspace/atlantis_fw/AsicFwS2/src/../include/matrix.h ****         dst[8]  -= tmp[3] * mat[4] + tmp[6] * mat[5] + tmp[11] * mat[7];
 4134              		.loc 1 1190 0
 4135 0222 DDE91E23 		ldrd	r2, [sp, #120]
 4136 0226 DDE92401 		ldrd	r0, [sp, #144]
 4137 022a A047     		blx	r4
 4138              	.LVL595:
 4139 022c DDE91823 		ldrd	r2, [sp, #96]
 4140 0230 0646     		mov	r6, r0
 4141 0232 0F46     		mov	r7, r1
 4142 0234 DDE92E01 		ldrd	r0, [sp, #184]
 4143 0238 A047     		blx	r4
 4144              	.LVL596:
 4145 023a 0246     		mov	r2, r0
 4146 023c 0B46     		mov	r3, r1
 4147 023e 3046     		mov	r0, r6
 4148 0240 3946     		mov	r1, r7
 4149 0242 A847     		blx	r5
 4150              	.LVL597:
 4151 0244 DDE91C23 		ldrd	r2, [sp, #112]
 4152 0248 0646     		mov	r6, r0
 4153 024a 0F46     		mov	r7, r1
 4154 024c DDE93401 		ldrd	r0, [sp, #208]
 4155 0250 A047     		blx	r4
 4156              	.LVL598:
 4157 0252 0246     		mov	r2, r0
 4158 0254 0B46     		mov	r3, r1
 4159 0256 3046     		mov	r0, r6
 4160 0258 3946     		mov	r1, r7
 4161 025a A847     		blx	r5
 4162              	.LVL599:
 4163 025c 06E0     		b	.L135
 4164              	.L136:
 4165 025e 00BF     		.align	2
 4166              	.L134:
 4167 0260 00000000 		.word	__aeabi_dmul
 4168 0264 00000000 		.word	__aeabi_dadd
 4169 0268 00000000 		.word	__aeabi_dsub
 4170              	.L135:
1191:/home/tienluong/workspace/atlantis_fw/AsicFwS2/src/../include/matrix.h ****         dst[12]  = tmp[5] * mat[4] + tmp[8] * mat[5] + tmp[11] * mat[6];
 4171              		.loc 1 1191 0
 4172 026c DDE91E23 		ldrd	r2, [sp, #120]
1190:/home/tienluong/workspace/atlantis_fw/AsicFwS2/src/../include/matrix.h ****         dst[8]  -= tmp[3] * mat[4] + tmp[6] * mat[5] + tmp[11] * mat[7];
 4173              		.loc 1 1190 0
 4174 0270 8046     		mov	r8, r0
 4175 0272 8946     		mov	r9, r1
1191:/home/tienluong/workspace/atlantis_fw/AsicFwS2/src/../include/matrix.h ****         dst[12]  = tmp[5] * mat[4] + tmp[8] * mat[5] + tmp[11] * mat[6];
 4176              		.loc 1 1191 0
 4177 0274 DDE92601 		ldrd	r0, [sp, #152]
 4178 0278 A047     		blx	r4
 4179              	.LVL600:
 4180 027a DDE91823 		ldrd	r2, [sp, #96]
 4181 027e 0646     		mov	r6, r0
 4182 0280 0F46     		mov	r7, r1
 4183 0282 DDE92C01 		ldrd	r0, [sp, #176]
 4184 0286 A047     		blx	r4
 4185              	.LVL601:
 4186 0288 0246     		mov	r2, r0
 4187 028a 0B46     		mov	r3, r1
 4188 028c 3046     		mov	r0, r6
 4189 028e 3946     		mov	r1, r7
 4190 0290 A847     		blx	r5
 4191              	.LVL602:
 4192 0292 DDE91C23 		ldrd	r2, [sp, #112]
 4193 0296 0646     		mov	r6, r0
 4194 0298 0F46     		mov	r7, r1
 4195 029a DDE93601 		ldrd	r0, [sp, #216]
 4196 029e A047     		blx	r4
 4197              	.LVL603:
 4198 02a0 0246     		mov	r2, r0
 4199 02a2 0B46     		mov	r3, r1
 4200 02a4 3046     		mov	r0, r6
 4201 02a6 3946     		mov	r1, r7
 4202 02a8 A847     		blx	r5
 4203              	.LVL604:
 4204 02aa 0246     		mov	r2, r0
 4205 02ac 0B46     		mov	r3, r1
 4206 02ae 4046     		mov	r0, r8
 4207 02b0 4946     		mov	r1, r9
 4208 02b2 D847     		blx	fp
 4209              	.LVL605:
 4210 02b4 CDE93C01 		strd	r0, [sp, #240]
 4211 02b8 0246     		mov	r2, r0
 4212 02ba 0B46     		mov	r3, r1
 4213 02bc 4EA9     		add	r1, sp, #312
 4214 02be C1E90023 		strd	r2, [r1]
1192:/home/tienluong/workspace/atlantis_fw/AsicFwS2/src/../include/matrix.h ****         dst[12] -= tmp[4] * mat[4] + tmp[9] * mat[5] + tmp[10] * mat[6];
 4215              		.loc 1 1192 0
 4216 02c2 DDE91E23 		ldrd	r2, [sp, #120]
 4217 02c6 DDE92A01 		ldrd	r0, [sp, #168]
 4218 02ca A047     		blx	r4
 4219              	.LVL606:
 4220 02cc DDE91823 		ldrd	r2, [sp, #96]
 4221 02d0 0646     		mov	r6, r0
 4222 02d2 0F46     		mov	r7, r1
 4223 02d4 DDE93001 		ldrd	r0, [sp, #192]
 4224 02d8 A047     		blx	r4
 4225              	.LVL607:
 4226 02da 0246     		mov	r2, r0
 4227 02dc 0B46     		mov	r3, r1
 4228 02de 3046     		mov	r0, r6
 4229 02e0 3946     		mov	r1, r7
 4230 02e2 A847     		blx	r5
 4231              	.LVL608:
 4232 02e4 DDE91A23 		ldrd	r2, [sp, #104]
 4233 02e8 0646     		mov	r6, r0
 4234 02ea 0F46     		mov	r7, r1
 4235 02ec DDE93601 		ldrd	r0, [sp, #216]
 4236 02f0 A047     		blx	r4
 4237              	.LVL609:
 4238 02f2 0246     		mov	r2, r0
 4239 02f4 0B46     		mov	r3, r1
 4240 02f6 3046     		mov	r0, r6
 4241 02f8 3946     		mov	r1, r7
 4242 02fa A847     		blx	r5
 4243              	.LVL610:
1193:/home/tienluong/workspace/atlantis_fw/AsicFwS2/src/../include/matrix.h **** 
 4244              		.loc 1 1193 0
 4245 02fc DDE91E23 		ldrd	r2, [sp, #120]
1192:/home/tienluong/workspace/atlantis_fw/AsicFwS2/src/../include/matrix.h ****         dst[12] -= tmp[4] * mat[4] + tmp[9] * mat[5] + tmp[10] * mat[6];
 4246              		.loc 1 1192 0
 4247 0300 8046     		mov	r8, r0
 4248 0302 8946     		mov	r9, r1
1193:/home/tienluong/workspace/atlantis_fw/AsicFwS2/src/../include/matrix.h **** 
 4249              		.loc 1 1193 0
 4250 0304 DDE92801 		ldrd	r0, [sp, #160]
 4251 0308 A047     		blx	r4
 4252              	.LVL611:
 4253 030a DDE91823 		ldrd	r2, [sp, #96]
 4254 030e 0646     		mov	r6, r0
 4255 0310 0F46     		mov	r7, r1
 4256 0312 DDE93201 		ldrd	r0, [sp, #200]
 4257 0316 A047     		blx	r4
 4258              	.LVL612:
 4259 0318 0246     		mov	r2, r0
 4260 031a 0B46     		mov	r3, r1
 4261 031c 3046     		mov	r0, r6
 4262 031e 3946     		mov	r1, r7
 4263 0320 A847     		blx	r5
 4264              	.LVL613:
 4265 0322 DDE91A23 		ldrd	r2, [sp, #104]
 4266 0326 0646     		mov	r6, r0
 4267 0328 0F46     		mov	r7, r1
 4268 032a DDE93401 		ldrd	r0, [sp, #208]
 4269 032e A047     		blx	r4
 4270              	.LVL614:
 4271 0330 0246     		mov	r2, r0
 4272 0332 0B46     		mov	r3, r1
 4273 0334 3046     		mov	r0, r6
 4274 0336 3946     		mov	r1, r7
 4275 0338 A847     		blx	r5
 4276              	.LVL615:
 4277 033a 0246     		mov	r2, r0
 4278 033c 0B46     		mov	r3, r1
 4279 033e 4046     		mov	r0, r8
 4280 0340 4946     		mov	r1, r9
 4281 0342 D847     		blx	fp
 4282              	.LVL616:
 4283 0344 56AB     		add	r3, sp, #344
 4284 0346 8046     		mov	r8, r0
 4285 0348 8946     		mov	r9, r1
 4286 034a C3E90089 		strd	r8, [r3]
1196:/home/tienluong/workspace/atlantis_fw/AsicFwS2/src/../include/matrix.h **** 
 4287              		.loc 1 1196 0
 4288 034e DAE90023 		ldrd	r2, [r10]
 4289 0352 CDE90023 		strd	r2, [sp]
 4290 0356 DAE90223 		ldrd	r2, [r10, #8]
 4291 035a CDE90223 		strd	r2, [sp, #8]
 4292 035e DAE90423 		ldrd	r2, [r10, #16]
 4293 0362 CDE90423 		strd	r2, [sp, #16]
 4294 0366 DAE90623 		ldrd	r2, [r10, #24]
 4295 036a CDE90623 		strd	r2, [sp, #24]
 4296              	.LVL617:
 4297 036e DDE90001 		ldrd	r0, [sp]
 4298 0372 DDE93823 		ldrd	r2, [sp, #224]
 4299              	.LVL618:
 4300 0376 A047     		blx	r4
 4301              	.LVL619:
 4302 0378 DDE93A23 		ldrd	r2, [sp, #232]
 4303 037c 0646     		mov	r6, r0
 4304 037e 0F46     		mov	r7, r1
 4305 0380 DDE90201 		ldrd	r0, [sp, #8]
 4306 0384 A047     		blx	r4
 4307              	.LVL620:
 4308 0386 0246     		mov	r2, r0
 4309 0388 0B46     		mov	r3, r1
 4310 038a 3046     		mov	r0, r6
 4311 038c 3946     		mov	r1, r7
 4312 038e A847     		blx	r5
 4313              	.LVL621:
 4314 0390 DDE93C23 		ldrd	r2, [sp, #240]
 4315 0394 0646     		mov	r6, r0
 4316 0396 0F46     		mov	r7, r1
 4317 0398 DDE90401 		ldrd	r0, [sp, #16]
 4318 039c A047     		blx	r4
 4319              	.LVL622:
 4320 039e 0246     		mov	r2, r0
 4321 03a0 0B46     		mov	r3, r1
 4322 03a2 3046     		mov	r0, r6
 4323 03a4 3946     		mov	r1, r7
 4324 03a6 A847     		blx	r5
 4325              	.LVL623:
 4326 03a8 4246     		mov	r2, r8
 4327 03aa 4B46     		mov	r3, r9
 4328 03ac 0646     		mov	r6, r0
 4329 03ae 0F46     		mov	r7, r1
 4330 03b0 DDE90601 		ldrd	r0, [sp, #24]
 4331 03b4 A047     		blx	r4
 4332              	.LVL624:
 4333 03b6 0246     		mov	r2, r0
 4334 03b8 0B46     		mov	r3, r1
 4335 03ba 3046     		mov	r0, r6
 4336 03bc 3946     		mov	r1, r7
 4337 03be A847     		blx	r5
 4338              	.LVL625:
1198:/home/tienluong/workspace/atlantis_fw/AsicFwS2/src/../include/matrix.h **** 
 4339              		.loc 1 1198 0
 4340 03c0 9D4E     		ldr	r6, .L137
1196:/home/tienluong/workspace/atlantis_fw/AsicFwS2/src/../include/matrix.h **** 
 4341              		.loc 1 1196 0
 4342 03c2 0246     		mov	r2, r0
 4343 03c4 0B46     		mov	r3, r1
1198:/home/tienluong/workspace/atlantis_fw/AsicFwS2/src/../include/matrix.h **** 
 4344              		.loc 1 1198 0
 4345 03c6 0020     		movs	r0, #0
 4346 03c8 9C49     		ldr	r1, .L137+4
 4347 03ca B047     		blx	r6
 4348              	.LVL626:
1200:/home/tienluong/workspace/atlantis_fw/AsicFwS2/src/../include/matrix.h ****         dst[1]  -= tmp[0] * mat[1] + tmp[3] * mat[2] + tmp[4]  * mat[3];
 4349              		.loc 1 1200 0
 4350 03cc DDE90223 		ldrd	r2, [sp, #8]
1198:/home/tienluong/workspace/atlantis_fw/AsicFwS2/src/../include/matrix.h **** 
 4351              		.loc 1 1198 0
 4352 03d0 CDE93801 		strd	r0, [sp, #224]
 4353              	.LVL627:
1200:/home/tienluong/workspace/atlantis_fw/AsicFwS2/src/../include/matrix.h ****         dst[1]  -= tmp[0] * mat[1] + tmp[3] * mat[2] + tmp[4]  * mat[3];
 4354              		.loc 1 1200 0
 4355 03d4 DDE92201 		ldrd	r0, [sp, #136]
 4356              	.LVL628:
 4357 03d8 A047     		blx	r4
 4358              	.LVL629:
 4359 03da DDE90423 		ldrd	r2, [sp, #16]
 4360 03de 0646     		mov	r6, r0
 4361 03e0 0F46     		mov	r7, r1
 4362 03e2 DDE92401 		ldrd	r0, [sp, #144]
 4363 03e6 A047     		blx	r4
 4364              	.LVL630:
 4365 03e8 0246     		mov	r2, r0
 4366 03ea 0B46     		mov	r3, r1
 4367 03ec 3046     		mov	r0, r6
 4368 03ee 3946     		mov	r1, r7
 4369 03f0 A847     		blx	r5
 4370              	.LVL631:
 4371 03f2 DDE90623 		ldrd	r2, [sp, #24]
 4372 03f6 0646     		mov	r6, r0
 4373 03f8 0F46     		mov	r7, r1
 4374 03fa DDE92A01 		ldrd	r0, [sp, #168]
 4375 03fe A047     		blx	r4
 4376              	.LVL632:
 4377 0400 0246     		mov	r2, r0
 4378 0402 0B46     		mov	r3, r1
 4379 0404 3046     		mov	r0, r6
 4380 0406 3946     		mov	r1, r7
 4381 0408 A847     		blx	r5
 4382              	.LVL633:
 4383 040a 8046     		mov	r8, r0
 4384 040c 8946     		mov	r9, r1
1201:/home/tienluong/workspace/atlantis_fw/AsicFwS2/src/../include/matrix.h ****         dst[5]   = tmp[0] * mat[0] + tmp[7] * mat[2] + tmp[8]  * mat[3];
 4385              		.loc 1 1201 0
 4386 040e DDE92001 		ldrd	r0, [sp, #128]
 4387 0412 DDE90223 		ldrd	r2, [sp, #8]
 4388 0416 A047     		blx	r4
 4389              	.LVL634:
 4390 0418 DDE90423 		ldrd	r2, [sp, #16]
 4391 041c 0646     		mov	r6, r0
 4392 041e 0F46     		mov	r7, r1
 4393 0420 DDE92601 		ldrd	r0, [sp, #152]
 4394 0424 A047     		blx	r4
 4395              	.LVL635:
 4396 0426 0246     		mov	r2, r0
 4397 0428 0B46     		mov	r3, r1
 4398 042a 3046     		mov	r0, r6
 4399 042c 3946     		mov	r1, r7
 4400 042e A847     		blx	r5
 4401              	.LVL636:
 4402 0430 DDE90623 		ldrd	r2, [sp, #24]
 4403 0434 0646     		mov	r6, r0
 4404 0436 0F46     		mov	r7, r1
 4405 0438 DDE92801 		ldrd	r0, [sp, #160]
 4406 043c A047     		blx	r4
 4407              	.LVL637:
 4408 043e 0246     		mov	r2, r0
 4409 0440 0B46     		mov	r3, r1
 4410 0442 3046     		mov	r0, r6
 4411 0444 3946     		mov	r1, r7
 4412 0446 A847     		blx	r5
 4413              	.LVL638:
 4414 0448 0246     		mov	r2, r0
 4415 044a 0B46     		mov	r3, r1
 4416 044c 4046     		mov	r0, r8
 4417 044e 4946     		mov	r1, r9
 4418 0450 D847     		blx	fp
 4419              	.LVL639:
 4420 0452 40AB     		add	r3, sp, #256
 4421 0454 C3E90001 		strd	r0, [r3]
1202:/home/tienluong/workspace/atlantis_fw/AsicFwS2/src/../include/matrix.h ****         dst[5]  -= tmp[1] * mat[0] + tmp[6] * mat[2] + tmp[9]  * mat[3];
 4422              		.loc 1 1202 0
 4423 0458 DDE90023 		ldrd	r2, [sp]
 4424 045c DDE92001 		ldrd	r0, [sp, #128]
 4425 0460 A047     		blx	r4
 4426              	.LVL640:
 4427 0462 DDE90423 		ldrd	r2, [sp, #16]
 4428 0466 0646     		mov	r6, r0
 4429 0468 0F46     		mov	r7, r1
 4430 046a DDE92E01 		ldrd	r0, [sp, #184]
 4431 046e A047     		blx	r4
 4432              	.LVL641:
 4433 0470 0246     		mov	r2, r0
 4434 0472 0B46     		mov	r3, r1
 4435 0474 3046     		mov	r0, r6
 4436 0476 3946     		mov	r1, r7
 4437 0478 A847     		blx	r5
 4438              	.LVL642:
 4439 047a DDE90623 		ldrd	r2, [sp, #24]
 4440 047e 0646     		mov	r6, r0
 4441 0480 0F46     		mov	r7, r1
 4442 0482 DDE93001 		ldrd	r0, [sp, #192]
 4443 0486 A047     		blx	r4
 4444              	.LVL643:
 4445 0488 0246     		mov	r2, r0
 4446 048a 0B46     		mov	r3, r1
 4447 048c 3046     		mov	r0, r6
 4448 048e 3946     		mov	r1, r7
 4449 0490 A847     		blx	r5
 4450              	.LVL644:
1203:/home/tienluong/workspace/atlantis_fw/AsicFwS2/src/../include/matrix.h ****         dst[9]   = tmp[3] * mat[0] + tmp[6] * mat[1] + tmp[11] * mat[3];
 4451              		.loc 1 1203 0
 4452 0492 DDE90023 		ldrd	r2, [sp]
1202:/home/tienluong/workspace/atlantis_fw/AsicFwS2/src/../include/matrix.h ****         dst[5]  -= tmp[1] * mat[0] + tmp[6] * mat[2] + tmp[9]  * mat[3];
 4453              		.loc 1 1202 0
 4454 0496 8046     		mov	r8, r0
 4455 0498 8946     		mov	r9, r1
1203:/home/tienluong/workspace/atlantis_fw/AsicFwS2/src/../include/matrix.h ****         dst[9]   = tmp[3] * mat[0] + tmp[6] * mat[1] + tmp[11] * mat[3];
 4456              		.loc 1 1203 0
 4457 049a DDE92201 		ldrd	r0, [sp, #136]
 4458 049e A047     		blx	r4
 4459              	.LVL645:
 4460 04a0 DDE90423 		ldrd	r2, [sp, #16]
 4461 04a4 0646     		mov	r6, r0
 4462 04a6 0F46     		mov	r7, r1
 4463 04a8 DDE92C01 		ldrd	r0, [sp, #176]
 4464 04ac A047     		blx	r4
 4465              	.LVL646:
 4466 04ae 0246     		mov	r2, r0
 4467 04b0 0B46     		mov	r3, r1
 4468 04b2 3046     		mov	r0, r6
 4469 04b4 3946     		mov	r1, r7
 4470 04b6 A847     		blx	r5
 4471              	.LVL647:
 4472 04b8 DDE90623 		ldrd	r2, [sp, #24]
 4473 04bc 0646     		mov	r6, r0
 4474 04be 0F46     		mov	r7, r1
 4475 04c0 DDE93201 		ldrd	r0, [sp, #200]
 4476 04c4 A047     		blx	r4
 4477              	.LVL648:
 4478 04c6 0246     		mov	r2, r0
 4479 04c8 0B46     		mov	r3, r1
 4480 04ca 3046     		mov	r0, r6
 4481 04cc 3946     		mov	r1, r7
 4482 04ce A847     		blx	r5
 4483              	.LVL649:
 4484 04d0 0246     		mov	r2, r0
 4485 04d2 0B46     		mov	r3, r1
 4486 04d4 4046     		mov	r0, r8
 4487 04d6 4946     		mov	r1, r9
 4488 04d8 D847     		blx	fp
 4489              	.LVL650:
 4490 04da 48AB     		add	r3, sp, #288
 4491 04dc C3E90001 		strd	r0, [r3]
1204:/home/tienluong/workspace/atlantis_fw/AsicFwS2/src/../include/matrix.h ****         dst[9]  -= tmp[2] * mat[0] + tmp[7] * mat[1] + tmp[10] * mat[3];
 4492              		.loc 1 1204 0
 4493 04e0 DDE90023 		ldrd	r2, [sp]
 4494 04e4 DDE92601 		ldrd	r0, [sp, #152]
 4495 04e8 A047     		blx	r4
 4496              	.LVL651:
 4497 04ea DDE90223 		ldrd	r2, [sp, #8]
 4498 04ee 0646     		mov	r6, r0
 4499 04f0 0F46     		mov	r7, r1
 4500 04f2 DDE92C01 		ldrd	r0, [sp, #176]
 4501 04f6 A047     		blx	r4
 4502              	.LVL652:
 4503 04f8 0246     		mov	r2, r0
 4504 04fa 0B46     		mov	r3, r1
 4505 04fc 3046     		mov	r0, r6
 4506 04fe 3946     		mov	r1, r7
 4507 0500 A847     		blx	r5
 4508              	.LVL653:
 4509 0502 DDE90623 		ldrd	r2, [sp, #24]
 4510 0506 0646     		mov	r6, r0
 4511 0508 0F46     		mov	r7, r1
 4512 050a DDE93601 		ldrd	r0, [sp, #216]
 4513 050e A047     		blx	r4
 4514              	.LVL654:
 4515 0510 0246     		mov	r2, r0
 4516 0512 0B46     		mov	r3, r1
 4517 0514 3046     		mov	r0, r6
 4518 0516 3946     		mov	r1, r7
 4519 0518 A847     		blx	r5
 4520              	.LVL655:
1205:/home/tienluong/workspace/atlantis_fw/AsicFwS2/src/../include/matrix.h ****         dst[13]  = tmp[4] * mat[0] + tmp[9] * mat[1] + tmp[10] * mat[2];
 4521              		.loc 1 1205 0
 4522 051a DDE90023 		ldrd	r2, [sp]
1204:/home/tienluong/workspace/atlantis_fw/AsicFwS2/src/../include/matrix.h ****         dst[9]  -= tmp[2] * mat[0] + tmp[7] * mat[1] + tmp[10] * mat[3];
 4523              		.loc 1 1204 0
 4524 051e 8046     		mov	r8, r0
 4525 0520 8946     		mov	r9, r1
1205:/home/tienluong/workspace/atlantis_fw/AsicFwS2/src/../include/matrix.h ****         dst[13]  = tmp[4] * mat[0] + tmp[9] * mat[1] + tmp[10] * mat[2];
 4526              		.loc 1 1205 0
 4527 0522 DDE92401 		ldrd	r0, [sp, #144]
 4528 0526 A047     		blx	r4
 4529              	.LVL656:
 4530 0528 DDE90223 		ldrd	r2, [sp, #8]
 4531 052c 0646     		mov	r6, r0
 4532 052e 0F46     		mov	r7, r1
 4533 0530 DDE92E01 		ldrd	r0, [sp, #184]
 4534 0534 A047     		blx	r4
 4535              	.LVL657:
 4536 0536 0246     		mov	r2, r0
 4537 0538 0B46     		mov	r3, r1
 4538 053a 3046     		mov	r0, r6
 4539 053c 3946     		mov	r1, r7
 4540 053e A847     		blx	r5
 4541              	.LVL658:
 4542 0540 DDE90623 		ldrd	r2, [sp, #24]
 4543 0544 0646     		mov	r6, r0
 4544 0546 0F46     		mov	r7, r1
 4545 0548 DDE93401 		ldrd	r0, [sp, #208]
 4546 054c A047     		blx	r4
 4547              	.LVL659:
 4548 054e 0246     		mov	r2, r0
 4549 0550 0B46     		mov	r3, r1
 4550 0552 3046     		mov	r0, r6
 4551 0554 3946     		mov	r1, r7
 4552 0556 A847     		blx	r5
 4553              	.LVL660:
 4554 0558 0246     		mov	r2, r0
 4555 055a 0B46     		mov	r3, r1
 4556 055c 4046     		mov	r0, r8
 4557 055e 4946     		mov	r1, r9
 4558 0560 D847     		blx	fp
 4559              	.LVL661:
 4560 0562 50AB     		add	r3, sp, #320
 4561 0564 C3E90001 		strd	r0, [r3]
1206:/home/tienluong/workspace/atlantis_fw/AsicFwS2/src/../include/matrix.h ****         dst[13] -= tmp[5] * mat[0] + tmp[8] * mat[1] + tmp[11] * mat[2];
 4562              		.loc 1 1206 0
 4563 0568 DDE90023 		ldrd	r2, [sp]
 4564 056c DDE92801 		ldrd	r0, [sp, #160]
 4565 0570 A047     		blx	r4
 4566              	.LVL662:
 4567 0572 DDE90223 		ldrd	r2, [sp, #8]
 4568 0576 0646     		mov	r6, r0
 4569 0578 0F46     		mov	r7, r1
 4570 057a DDE93201 		ldrd	r0, [sp, #200]
 4571 057e A047     		blx	r4
 4572              	.LVL663:
 4573 0580 0246     		mov	r2, r0
 4574 0582 0B46     		mov	r3, r1
 4575 0584 3046     		mov	r0, r6
 4576 0586 3946     		mov	r1, r7
 4577 0588 A847     		blx	r5
 4578              	.LVL664:
 4579 058a 0646     		mov	r6, r0
 4580 058c 0F46     		mov	r7, r1
 4581 058e DDE93401 		ldrd	r0, [sp, #208]
 4582 0592 DDE90423 		ldrd	r2, [sp, #16]
 4583 0596 A047     		blx	r4
 4584              	.LVL665:
 4585 0598 0246     		mov	r2, r0
 4586 059a 0B46     		mov	r3, r1
 4587 059c 3046     		mov	r0, r6
 4588 059e 3946     		mov	r1, r7
 4589 05a0 A847     		blx	r5
 4590              	.LVL666:
1207:/home/tienluong/workspace/atlantis_fw/AsicFwS2/src/../include/matrix.h **** 
 4591              		.loc 1 1207 0
 4592 05a2 DDE90023 		ldrd	r2, [sp]
1206:/home/tienluong/workspace/atlantis_fw/AsicFwS2/src/../include/matrix.h ****         dst[13] -= tmp[5] * mat[0] + tmp[8] * mat[1] + tmp[11] * mat[2];
 4593              		.loc 1 1206 0
 4594 05a6 8046     		mov	r8, r0
 4595 05a8 8946     		mov	r9, r1
1207:/home/tienluong/workspace/atlantis_fw/AsicFwS2/src/../include/matrix.h **** 
 4596              		.loc 1 1207 0
 4597 05aa DDE92A01 		ldrd	r0, [sp, #168]
 4598 05ae A047     		blx	r4
 4599              	.LVL667:
 4600 05b0 DDE90223 		ldrd	r2, [sp, #8]
 4601 05b4 0646     		mov	r6, r0
 4602 05b6 0F46     		mov	r7, r1
 4603 05b8 DDE93001 		ldrd	r0, [sp, #192]
 4604 05bc A047     		blx	r4
 4605              	.LVL668:
 4606 05be 0246     		mov	r2, r0
 4607 05c0 0B46     		mov	r3, r1
 4608 05c2 3046     		mov	r0, r6
 4609 05c4 3946     		mov	r1, r7
 4610 05c6 A847     		blx	r5
 4611              	.LVL669:
 4612 05c8 DDE90423 		ldrd	r2, [sp, #16]
 4613 05cc 0646     		mov	r6, r0
 4614 05ce 0F46     		mov	r7, r1
 4615 05d0 DDE93601 		ldrd	r0, [sp, #216]
 4616 05d4 A047     		blx	r4
 4617              	.LVL670:
 4618 05d6 0246     		mov	r2, r0
 4619 05d8 0B46     		mov	r3, r1
 4620 05da 3046     		mov	r0, r6
 4621 05dc 3946     		mov	r1, r7
 4622 05de A847     		blx	r5
 4623              	.LVL671:
 4624 05e0 0246     		mov	r2, r0
 4625 05e2 0B46     		mov	r3, r1
 4626 05e4 4046     		mov	r0, r8
 4627 05e6 4946     		mov	r1, r9
 4628 05e8 D847     		blx	fp
 4629              	.LVL672:
 4630 05ea 58AB     		add	r3, sp, #352
 4631 05ec C3E90001 		strd	r0, [r3]
1210:/home/tienluong/workspace/atlantis_fw/AsicFwS2/src/../include/matrix.h ****         tmp[1] = mat[3] * mat[6];
 4632              		.loc 1 1210 0
 4633 05f0 DDE91C23 		ldrd	r2, [sp, #112]
 4634 05f4 DDE90401 		ldrd	r0, [sp, #16]
 4635 05f8 A047     		blx	r4
 4636              	.LVL673:
1211:/home/tienluong/workspace/atlantis_fw/AsicFwS2/src/../include/matrix.h ****         tmp[2] = mat[1] * mat[7];
 4637              		.loc 1 1211 0
 4638 05fa DDE91A23 		ldrd	r2, [sp, #104]
1210:/home/tienluong/workspace/atlantis_fw/AsicFwS2/src/../include/matrix.h ****         tmp[1] = mat[3] * mat[6];
 4639              		.loc 1 1210 0
 4640 05fe CDE92001 		strd	r0, [sp, #128]
 4641              	.LVL674:
1211:/home/tienluong/workspace/atlantis_fw/AsicFwS2/src/../include/matrix.h ****         tmp[2] = mat[1] * mat[7];
 4642              		.loc 1 1211 0
 4643 0602 DDE90601 		ldrd	r0, [sp, #24]
 4644              	.LVL675:
 4645 0606 A047     		blx	r4
 4646              	.LVL676:
1212:/home/tienluong/workspace/atlantis_fw/AsicFwS2/src/../include/matrix.h ****         tmp[3] = mat[3] * mat[5];
 4647              		.loc 1 1212 0
 4648 0608 DDE91C23 		ldrd	r2, [sp, #112]
1211:/home/tienluong/workspace/atlantis_fw/AsicFwS2/src/../include/matrix.h ****         tmp[2] = mat[1] * mat[7];
 4649              		.loc 1 1211 0
 4650 060c CDE92201 		strd	r0, [sp, #136]
 4651              	.LVL677:
1212:/home/tienluong/workspace/atlantis_fw/AsicFwS2/src/../include/matrix.h ****         tmp[3] = mat[3] * mat[5];
 4652              		.loc 1 1212 0
 4653 0610 DDE90201 		ldrd	r0, [sp, #8]
 4654              	.LVL678:
 4655 0614 A047     		blx	r4
 4656              	.LVL679:
1213:/home/tienluong/workspace/atlantis_fw/AsicFwS2/src/../include/matrix.h ****         tmp[4] = mat[1] * mat[6];
 4657              		.loc 1 1213 0
 4658 0616 DDE91823 		ldrd	r2, [sp, #96]
1212:/home/tienluong/workspace/atlantis_fw/AsicFwS2/src/../include/matrix.h ****         tmp[3] = mat[3] * mat[5];
 4659              		.loc 1 1212 0
 4660 061a CDE92401 		strd	r0, [sp, #144]
 4661              	.LVL680:
1213:/home/tienluong/workspace/atlantis_fw/AsicFwS2/src/../include/matrix.h ****         tmp[4] = mat[1] * mat[6];
 4662              		.loc 1 1213 0
 4663 061e DDE90601 		ldrd	r0, [sp, #24]
 4664              	.LVL681:
 4665 0622 A047     		blx	r4
 4666              	.LVL682:
1214:/home/tienluong/workspace/atlantis_fw/AsicFwS2/src/../include/matrix.h ****         tmp[5] = mat[2] * mat[5];
 4667              		.loc 1 1214 0
 4668 0624 DDE91A23 		ldrd	r2, [sp, #104]
1213:/home/tienluong/workspace/atlantis_fw/AsicFwS2/src/../include/matrix.h ****         tmp[4] = mat[1] * mat[6];
 4669              		.loc 1 1213 0
 4670 0628 CDE92601 		strd	r0, [sp, #152]
 4671              	.LVL683:
1214:/home/tienluong/workspace/atlantis_fw/AsicFwS2/src/../include/matrix.h ****         tmp[5] = mat[2] * mat[5];
 4672              		.loc 1 1214 0
 4673 062c DDE90201 		ldrd	r0, [sp, #8]
 4674              	.LVL684:
 4675 0630 A047     		blx	r4
 4676              	.LVL685:
1215:/home/tienluong/workspace/atlantis_fw/AsicFwS2/src/../include/matrix.h ****         tmp[6] = mat[0] * mat[7];
 4677              		.loc 1 1215 0
 4678 0632 DDE91823 		ldrd	r2, [sp, #96]
 4679 0636 03E0     		b	.L138
 4680              	.L139:
 4681              		.align	2
 4682              	.L137:
 4683 0638 00000000 		.word	__aeabi_ddiv
 4684 063c 0000F03F 		.word	1072693248
 4685              	.L138:
1214:/home/tienluong/workspace/atlantis_fw/AsicFwS2/src/../include/matrix.h ****         tmp[5] = mat[2] * mat[5];
 4686              		.loc 1 1214 0
 4687 0640 CDE92801 		strd	r0, [sp, #160]
1215:/home/tienluong/workspace/atlantis_fw/AsicFwS2/src/../include/matrix.h ****         tmp[6] = mat[0] * mat[7];
 4688              		.loc 1 1215 0
 4689 0644 DDE90401 		ldrd	r0, [sp, #16]
 4690 0648 A047     		blx	r4
 4691              	.LVL686:
1216:/home/tienluong/workspace/atlantis_fw/AsicFwS2/src/../include/matrix.h ****         tmp[7] = mat[3] * mat[4];
 4692              		.loc 1 1216 0
 4693 064a DDE91C23 		ldrd	r2, [sp, #112]
1215:/home/tienluong/workspace/atlantis_fw/AsicFwS2/src/../include/matrix.h ****         tmp[6] = mat[0] * mat[7];
 4694              		.loc 1 1215 0
 4695 064e CDE92A01 		strd	r0, [sp, #168]
1216:/home/tienluong/workspace/atlantis_fw/AsicFwS2/src/../include/matrix.h ****         tmp[7] = mat[3] * mat[4];
 4696              		.loc 1 1216 0
 4697 0652 DDE90001 		ldrd	r0, [sp]
 4698 0656 A047     		blx	r4
 4699              	.LVL687:
1217:/home/tienluong/workspace/atlantis_fw/AsicFwS2/src/../include/matrix.h ****         tmp[8] = mat[0] * mat[6];
 4700              		.loc 1 1217 0
 4701 0658 DDE91E23 		ldrd	r2, [sp, #120]
1216:/home/tienluong/workspace/atlantis_fw/AsicFwS2/src/../include/matrix.h ****         tmp[7] = mat[3] * mat[4];
 4702              		.loc 1 1216 0
 4703 065c CDE91C01 		strd	r0, [sp, #112]
1217:/home/tienluong/workspace/atlantis_fw/AsicFwS2/src/../include/matrix.h ****         tmp[8] = mat[0] * mat[6];
 4704              		.loc 1 1217 0
 4705 0660 DDE90601 		ldrd	r0, [sp, #24]
 4706 0664 A047     		blx	r4
 4707              	.LVL688:
1218:/home/tienluong/workspace/atlantis_fw/AsicFwS2/src/../include/matrix.h ****         tmp[9] = mat[2] * mat[4];
 4708              		.loc 1 1218 0
 4709 0666 DDE91A23 		ldrd	r2, [sp, #104]
1217:/home/tienluong/workspace/atlantis_fw/AsicFwS2/src/../include/matrix.h ****         tmp[8] = mat[0] * mat[6];
 4710              		.loc 1 1217 0
 4711 066a CDE90601 		strd	r0, [sp, #24]
1218:/home/tienluong/workspace/atlantis_fw/AsicFwS2/src/../include/matrix.h ****         tmp[9] = mat[2] * mat[4];
 4712              		.loc 1 1218 0
 4713 066e DDE90001 		ldrd	r0, [sp]
 4714 0672 A047     		blx	r4
 4715              	.LVL689:
1219:/home/tienluong/workspace/atlantis_fw/AsicFwS2/src/../include/matrix.h ****         tmp[10] = mat[0] * mat[5];
 4716              		.loc 1 1219 0
 4717 0674 DDE91E23 		ldrd	r2, [sp, #120]
1218:/home/tienluong/workspace/atlantis_fw/AsicFwS2/src/../include/matrix.h ****         tmp[9] = mat[2] * mat[4];
 4718              		.loc 1 1218 0
 4719 0678 CDE91A01 		strd	r0, [sp, #104]
1219:/home/tienluong/workspace/atlantis_fw/AsicFwS2/src/../include/matrix.h ****         tmp[10] = mat[0] * mat[5];
 4720              		.loc 1 1219 0
 4721 067c DDE90401 		ldrd	r0, [sp, #16]
 4722 0680 A047     		blx	r4
 4723              	.LVL690:
1220:/home/tienluong/workspace/atlantis_fw/AsicFwS2/src/../include/matrix.h ****         tmp[11] = mat[1] * mat[4];
 4724              		.loc 1 1220 0
 4725 0682 DDE91823 		ldrd	r2, [sp, #96]
1219:/home/tienluong/workspace/atlantis_fw/AsicFwS2/src/../include/matrix.h ****         tmp[10] = mat[0] * mat[5];
 4726              		.loc 1 1219 0
 4727 0686 CDE90401 		strd	r0, [sp, #16]
1220:/home/tienluong/workspace/atlantis_fw/AsicFwS2/src/../include/matrix.h ****         tmp[11] = mat[1] * mat[4];
 4728              		.loc 1 1220 0
 4729 068a DDE90001 		ldrd	r0, [sp]
 4730 068e A047     		blx	r4
 4731              	.LVL691:
1221:/home/tienluong/workspace/atlantis_fw/AsicFwS2/src/../include/matrix.h **** 
 4732              		.loc 1 1221 0
 4733 0690 DDE91E23 		ldrd	r2, [sp, #120]
1220:/home/tienluong/workspace/atlantis_fw/AsicFwS2/src/../include/matrix.h ****         tmp[11] = mat[1] * mat[4];
 4734              		.loc 1 1220 0
 4735 0694 CDE90001 		strd	r0, [sp]
1221:/home/tienluong/workspace/atlantis_fw/AsicFwS2/src/../include/matrix.h **** 
 4736              		.loc 1 1221 0
 4737 0698 DDE90201 		ldrd	r0, [sp, #8]
 4738 069c A047     		blx	r4
 4739              	.LVL692:
1224:/home/tienluong/workspace/atlantis_fw/AsicFwS2/src/../include/matrix.h ****         dst[2]  -= tmp[1]  * mat[13] + tmp[2]  * mat[14] + tmp[5]  * mat[15];
 4740              		.loc 1 1224 0
 4741 069e DDE91223 		ldrd	r2, [sp, #72]
1221:/home/tienluong/workspace/atlantis_fw/AsicFwS2/src/../include/matrix.h **** 
 4742              		.loc 1 1221 0
 4743 06a2 CDE90201 		strd	r0, [sp, #8]
1224:/home/tienluong/workspace/atlantis_fw/AsicFwS2/src/../include/matrix.h ****         dst[2]  -= tmp[1]  * mat[13] + tmp[2]  * mat[14] + tmp[5]  * mat[15];
 4744              		.loc 1 1224 0
 4745 06a6 DDE92001 		ldrd	r0, [sp, #128]
 4746 06aa A047     		blx	r4
 4747              	.LVL693:
 4748 06ac DDE90E23 		ldrd	r2, [sp, #56]
 4749 06b0 0646     		mov	r6, r0
 4750 06b2 0F46     		mov	r7, r1
 4751 06b4 DDE92601 		ldrd	r0, [sp, #152]
 4752 06b8 A047     		blx	r4
 4753              	.LVL694:
 4754 06ba 0246     		mov	r2, r0
 4755 06bc 0B46     		mov	r3, r1
 4756 06be 3046     		mov	r0, r6
 4757 06c0 3946     		mov	r1, r7
 4758 06c2 A847     		blx	r5
 4759              	.LVL695:
 4760 06c4 DDE90A23 		ldrd	r2, [sp, #40]
 4761 06c8 0646     		mov	r6, r0
 4762 06ca 0F46     		mov	r7, r1
 4763 06cc DDE92801 		ldrd	r0, [sp, #160]
 4764 06d0 A047     		blx	r4
 4765              	.LVL696:
 4766 06d2 0246     		mov	r2, r0
 4767 06d4 0B46     		mov	r3, r1
 4768 06d6 3046     		mov	r0, r6
 4769 06d8 3946     		mov	r1, r7
 4770 06da A847     		blx	r5
 4771              	.LVL697:
1225:/home/tienluong/workspace/atlantis_fw/AsicFwS2/src/../include/matrix.h ****         dst[3]   = tmp[2]  * mat[10] + tmp[5]  * mat[11] + tmp[1]  * mat[9];
 4772              		.loc 1 1225 0
 4773 06dc DDE91223 		ldrd	r2, [sp, #72]
1224:/home/tienluong/workspace/atlantis_fw/AsicFwS2/src/../include/matrix.h ****         dst[2]  -= tmp[1]  * mat[13] + tmp[2]  * mat[14] + tmp[5]  * mat[15];
 4774              		.loc 1 1224 0
 4775 06e0 8046     		mov	r8, r0
 4776 06e2 8946     		mov	r9, r1
1225:/home/tienluong/workspace/atlantis_fw/AsicFwS2/src/../include/matrix.h ****         dst[3]   = tmp[2]  * mat[10] + tmp[5]  * mat[11] + tmp[1]  * mat[9];
 4777              		.loc 1 1225 0
 4778 06e4 DDE92201 		ldrd	r0, [sp, #136]
 4779 06e8 A047     		blx	r4
 4780              	.LVL698:
 4781 06ea 0646     		mov	r6, r0
 4782 06ec 0F46     		mov	r7, r1
 4783 06ee DDE92401 		ldrd	r0, [sp, #144]
 4784 06f2 DDE90E23 		ldrd	r2, [sp, #56]
 4785 06f6 A047     		blx	r4
 4786              	.LVL699:
 4787 06f8 0246     		mov	r2, r0
 4788 06fa 0B46     		mov	r3, r1
 4789 06fc 3046     		mov	r0, r6
 4790 06fe 3946     		mov	r1, r7
 4791 0700 A847     		blx	r5
 4792              	.LVL700:
 4793 0702 DDE90A23 		ldrd	r2, [sp, #40]
 4794 0706 0646     		mov	r6, r0
 4795 0708 0F46     		mov	r7, r1
 4796 070a DDE92A01 		ldrd	r0, [sp, #168]
 4797 070e A047     		blx	r4
 4798              	.LVL701:
 4799 0710 0246     		mov	r2, r0
 4800 0712 0B46     		mov	r3, r1
 4801 0714 3046     		mov	r0, r6
 4802 0716 3946     		mov	r1, r7
 4803 0718 A847     		blx	r5
 4804              	.LVL702:
 4805 071a 0246     		mov	r2, r0
 4806 071c 0B46     		mov	r3, r1
 4807 071e 4046     		mov	r0, r8
 4808 0720 4946     		mov	r1, r9
 4809 0722 D847     		blx	fp
 4810              	.LVL703:
 4811 0724 42AB     		add	r3, sp, #264
 4812 0726 C3E90001 		strd	r0, [r3]
1226:/home/tienluong/workspace/atlantis_fw/AsicFwS2/src/../include/matrix.h ****         dst[3]  -= tmp[4]  * mat[11] + tmp[0]  * mat[9]  + tmp[3]  * mat[10];
 4813              		.loc 1 1226 0
 4814 072a DDE90823 		ldrd	r2, [sp, #32]
 4815 072e DDE92401 		ldrd	r0, [sp, #144]
 4816 0732 A047     		blx	r4
 4817              	.LVL704:
 4818 0734 DDE90C23 		ldrd	r2, [sp, #48]
 4819 0738 0646     		mov	r6, r0
 4820 073a 0F46     		mov	r7, r1
 4821 073c DDE92A01 		ldrd	r0, [sp, #168]
 4822 0740 A047     		blx	r4
 4823              	.LVL705:
 4824 0742 0246     		mov	r2, r0
 4825 0744 0B46     		mov	r3, r1
 4826 0746 3046     		mov	r0, r6
 4827 0748 3946     		mov	r1, r7
 4828 074a A847     		blx	r5
 4829              	.LVL706:
 4830 074c DDE91023 		ldrd	r2, [sp, #64]
 4831 0750 0646     		mov	r6, r0
 4832 0752 0F46     		mov	r7, r1
 4833 0754 DDE92201 		ldrd	r0, [sp, #136]
 4834 0758 A047     		blx	r4
 4835              	.LVL707:
 4836 075a 0246     		mov	r2, r0
 4837 075c 0B46     		mov	r3, r1
 4838 075e 3046     		mov	r0, r6
 4839 0760 3946     		mov	r1, r7
 4840 0762 A847     		blx	r5
 4841              	.LVL708:
1227:/home/tienluong/workspace/atlantis_fw/AsicFwS2/src/../include/matrix.h ****         dst[6]   = tmp[1]  * mat[12] + tmp[6]  * mat[14] + tmp[9]  * mat[15];
 4842              		.loc 1 1227 0
 4843 0764 DDE90C23 		ldrd	r2, [sp, #48]
1226:/home/tienluong/workspace/atlantis_fw/AsicFwS2/src/../include/matrix.h ****         dst[3]  -= tmp[4]  * mat[11] + tmp[0]  * mat[9]  + tmp[3]  * mat[10];
 4844              		.loc 1 1226 0
 4845 0768 8046     		mov	r8, r0
 4846 076a 8946     		mov	r9, r1
1227:/home/tienluong/workspace/atlantis_fw/AsicFwS2/src/../include/matrix.h ****         dst[6]   = tmp[1]  * mat[12] + tmp[6]  * mat[14] + tmp[9]  * mat[15];
 4847              		.loc 1 1227 0
 4848 076c DDE92801 		ldrd	r0, [sp, #160]
 4849 0770 A047     		blx	r4
 4850              	.LVL709:
 4851 0772 DDE91023 		ldrd	r2, [sp, #64]
 4852 0776 0646     		mov	r6, r0
 4853 0778 0F46     		mov	r7, r1
 4854 077a DDE92001 		ldrd	r0, [sp, #128]
 4855 077e A047     		blx	r4
 4856              	.LVL710:
 4857 0780 0246     		mov	r2, r0
 4858 0782 0B46     		mov	r3, r1
 4859 0784 3046     		mov	r0, r6
 4860 0786 3946     		mov	r1, r7
 4861 0788 A847     		blx	r5
 4862              	.LVL711:
 4863 078a DDE90823 		ldrd	r2, [sp, #32]
 4864 078e 0646     		mov	r6, r0
 4865 0790 0F46     		mov	r7, r1
 4866 0792 DDE92601 		ldrd	r0, [sp, #152]
 4867 0796 A047     		blx	r4
 4868              	.LVL712:
 4869 0798 0246     		mov	r2, r0
 4870 079a 0B46     		mov	r3, r1
 4871 079c 3046     		mov	r0, r6
 4872 079e 3946     		mov	r1, r7
 4873 07a0 A847     		blx	r5
 4874              	.LVL713:
 4875 07a2 0246     		mov	r2, r0
 4876 07a4 0B46     		mov	r3, r1
 4877 07a6 4046     		mov	r0, r8
 4878 07a8 4946     		mov	r1, r9
 4879 07aa D847     		blx	fp
 4880              	.LVL714:
 4881 07ac 44AB     		add	r3, sp, #272
 4882 07ae C3E90001 		strd	r0, [r3]
1228:/home/tienluong/workspace/atlantis_fw/AsicFwS2/src/../include/matrix.h ****         dst[6]  -= tmp[0]  * mat[12] + tmp[7]  * mat[14] + tmp[8]  * mat[15];
 4883              		.loc 1 1228 0
 4884 07b2 DDE92201 		ldrd	r0, [sp, #136]
 4885 07b6 DDE91623 		ldrd	r2, [sp, #88]
 4886 07ba A047     		blx	r4
 4887              	.LVL715:
 4888 07bc DDE90E23 		ldrd	r2, [sp, #56]
 4889 07c0 0646     		mov	r6, r0
 4890 07c2 0F46     		mov	r7, r1
 4891 07c4 DDE91C01 		ldrd	r0, [sp, #112]
 4892 07c8 A047     		blx	r4
 4893              	.LVL716:
 4894 07ca 0246     		mov	r2, r0
 4895 07cc 0B46     		mov	r3, r1
 4896 07ce 3046     		mov	r0, r6
 4897 07d0 3946     		mov	r1, r7
 4898 07d2 A847     		blx	r5
 4899              	.LVL717:
 4900 07d4 DDE90A23 		ldrd	r2, [sp, #40]
 4901 07d8 0646     		mov	r6, r0
 4902 07da 0F46     		mov	r7, r1
 4903 07dc DDE90401 		ldrd	r0, [sp, #16]
 4904 07e0 A047     		blx	r4
 4905              	.LVL718:
 4906 07e2 0246     		mov	r2, r0
 4907 07e4 0B46     		mov	r3, r1
 4908 07e6 3046     		mov	r0, r6
 4909 07e8 3946     		mov	r1, r7
 4910 07ea A847     		blx	r5
 4911              	.LVL719:
1229:/home/tienluong/workspace/atlantis_fw/AsicFwS2/src/../include/matrix.h ****         dst[7]   = tmp[8]  * mat[11] + tmp[0]  * mat[8]  + tmp[7]  * mat[10];
 4912              		.loc 1 1229 0
 4913 07ec DDE91623 		ldrd	r2, [sp, #88]
1228:/home/tienluong/workspace/atlantis_fw/AsicFwS2/src/../include/matrix.h ****         dst[6]  -= tmp[0]  * mat[12] + tmp[7]  * mat[14] + tmp[8]  * mat[15];
 4914              		.loc 1 1228 0
 4915 07f0 8046     		mov	r8, r0
 4916 07f2 8946     		mov	r9, r1
1229:/home/tienluong/workspace/atlantis_fw/AsicFwS2/src/../include/matrix.h ****         dst[7]   = tmp[8]  * mat[11] + tmp[0]  * mat[8]  + tmp[7]  * mat[10];
 4917              		.loc 1 1229 0
 4918 07f4 DDE92001 		ldrd	r0, [sp, #128]
 4919 07f8 A047     		blx	r4
 4920              	.LVL720:
 4921 07fa DDE90E23 		ldrd	r2, [sp, #56]
 4922 07fe 0646     		mov	r6, r0
 4923 0800 0F46     		mov	r7, r1
 4924 0802 DDE90601 		ldrd	r0, [sp, #24]
 4925 0806 A047     		blx	r4
 4926              	.LVL721:
 4927 0808 0246     		mov	r2, r0
 4928 080a 0B46     		mov	r3, r1
 4929 080c 3046     		mov	r0, r6
 4930 080e 3946     		mov	r1, r7
 4931 0810 A847     		blx	r5
 4932              	.LVL722:
 4933 0812 DDE90A23 		ldrd	r2, [sp, #40]
 4934 0816 0646     		mov	r6, r0
 4935 0818 0F46     		mov	r7, r1
 4936 081a DDE91A01 		ldrd	r0, [sp, #104]
 4937 081e A047     		blx	r4
 4938              	.LVL723:
 4939 0820 0246     		mov	r2, r0
 4940 0822 0B46     		mov	r3, r1
 4941 0824 3046     		mov	r0, r6
 4942 0826 3946     		mov	r1, r7
 4943 0828 A847     		blx	r5
 4944              	.LVL724:
 4945 082a 0246     		mov	r2, r0
 4946 082c 0B46     		mov	r3, r1
 4947 082e 4046     		mov	r0, r8
 4948 0830 4946     		mov	r1, r9
 4949 0832 D847     		blx	fp
 4950              	.LVL725:
 4951 0834 4AAB     		add	r3, sp, #296
 4952 0836 C3E90001 		strd	r0, [r3]
1230:/home/tienluong/workspace/atlantis_fw/AsicFwS2/src/../include/matrix.h ****         dst[7]  -= tmp[6]  * mat[10] + tmp[9]  * mat[11] + tmp[1]  * mat[8];
 4953              		.loc 1 1230 0
 4954 083a DDE90C23 		ldrd	r2, [sp, #48]
 4955 083e DDE91A01 		ldrd	r0, [sp, #104]
 4956 0842 A047     		blx	r4
 4957              	.LVL726:
 4958 0844 DDE91423 		ldrd	r2, [sp, #80]
 4959 0848 0646     		mov	r6, r0
 4960 084a 0F46     		mov	r7, r1
 4961 084c DDE92001 		ldrd	r0, [sp, #128]
 4962 0850 A047     		blx	r4
 4963              	.LVL727:
 4964 0852 0246     		mov	r2, r0
 4965 0854 0B46     		mov	r3, r1
 4966 0856 3046     		mov	r0, r6
 4967 0858 3946     		mov	r1, r7
 4968 085a A847     		blx	r5
 4969              	.LVL728:
 4970 085c DDE90823 		ldrd	r2, [sp, #32]
 4971 0860 0646     		mov	r6, r0
 4972 0862 0F46     		mov	r7, r1
 4973 0864 DDE90601 		ldrd	r0, [sp, #24]
 4974 0868 A047     		blx	r4
 4975              	.LVL729:
 4976 086a 0246     		mov	r2, r0
 4977 086c 0B46     		mov	r3, r1
 4978 086e 3046     		mov	r0, r6
 4979 0870 3946     		mov	r1, r7
 4980 0872 A847     		blx	r5
 4981              	.LVL730:
1231:/home/tienluong/workspace/atlantis_fw/AsicFwS2/src/../include/matrix.h ****         dst[10]  = tmp[2]  * mat[12] + tmp[7]  * mat[13] + tmp[10] * mat[15];
 4982              		.loc 1 1231 0
 4983 0874 DDE90823 		ldrd	r2, [sp, #32]
1230:/home/tienluong/workspace/atlantis_fw/AsicFwS2/src/../include/matrix.h ****         dst[7]  -= tmp[6]  * mat[10] + tmp[9]  * mat[11] + tmp[1]  * mat[8];
 4984              		.loc 1 1230 0
 4985 0878 8046     		mov	r8, r0
 4986 087a 8946     		mov	r9, r1
1231:/home/tienluong/workspace/atlantis_fw/AsicFwS2/src/../include/matrix.h ****         dst[10]  = tmp[2]  * mat[12] + tmp[7]  * mat[13] + tmp[10] * mat[15];
 4987              		.loc 1 1231 0
 4988 087c DDE91C01 		ldrd	r0, [sp, #112]
 4989 0880 A047     		blx	r4
 4990              	.LVL731:
 4991 0882 DDE90C23 		ldrd	r2, [sp, #48]
 4992 0886 0646     		mov	r6, r0
 4993 0888 0F46     		mov	r7, r1
 4994 088a DDE90401 		ldrd	r0, [sp, #16]
 4995 088e A047     		blx	r4
 4996              	.LVL732:
 4997 0890 0246     		mov	r2, r0
 4998 0892 0B46     		mov	r3, r1
 4999 0894 3046     		mov	r0, r6
 5000 0896 3946     		mov	r1, r7
 5001 0898 A847     		blx	r5
 5002              	.LVL733:
 5003 089a DDE91423 		ldrd	r2, [sp, #80]
 5004 089e 0646     		mov	r6, r0
 5005 08a0 0F46     		mov	r7, r1
 5006 08a2 DDE92201 		ldrd	r0, [sp, #136]
 5007 08a6 A047     		blx	r4
 5008              	.LVL734:
 5009 08a8 0246     		mov	r2, r0
 5010 08aa 0B46     		mov	r3, r1
 5011 08ac 3046     		mov	r0, r6
 5012 08ae 3946     		mov	r1, r7
 5013 08b0 A847     		blx	r5
 5014              	.LVL735:
 5015 08b2 0246     		mov	r2, r0
 5016 08b4 0B46     		mov	r3, r1
 5017 08b6 4046     		mov	r0, r8
 5018 08b8 4946     		mov	r1, r9
 5019 08ba D847     		blx	fp
 5020              	.LVL736:
 5021 08bc 4CAB     		add	r3, sp, #304
 5022 08be C3E90001 		strd	r0, [r3]
1232:/home/tienluong/workspace/atlantis_fw/AsicFwS2/src/../include/matrix.h ****         dst[10] -= tmp[3]  * mat[12] + tmp[6]  * mat[13] + tmp[11] * mat[15];
 5023              		.loc 1 1232 0
 5024 08c2 DDE91623 		ldrd	r2, [sp, #88]
 5025 08c6 DDE92401 		ldrd	r0, [sp, #144]
 5026 08ca A047     		blx	r4
 5027              	.LVL737:
 5028 08cc DDE91223 		ldrd	r2, [sp, #72]
 5029 08d0 0646     		mov	r6, r0
 5030 08d2 0F46     		mov	r7, r1
 5031 08d4 DDE90601 		ldrd	r0, [sp, #24]
 5032 08d8 A047     		blx	r4
 5033              	.LVL738:
 5034 08da 0246     		mov	r2, r0
 5035 08dc 0B46     		mov	r3, r1
 5036 08de 3046     		mov	r0, r6
 5037 08e0 3946     		mov	r1, r7
 5038 08e2 A847     		blx	r5
 5039              	.LVL739:
 5040 08e4 DDE90A23 		ldrd	r2, [sp, #40]
 5041 08e8 0646     		mov	r6, r0
 5042 08ea 0F46     		mov	r7, r1
 5043 08ec DDE90001 		ldrd	r0, [sp]
 5044 08f0 A047     		blx	r4
 5045              	.LVL740:
 5046 08f2 0246     		mov	r2, r0
 5047 08f4 0B46     		mov	r3, r1
 5048 08f6 3046     		mov	r0, r6
 5049 08f8 3946     		mov	r1, r7
 5050 08fa A847     		blx	r5
 5051              	.LVL741:
1233:/home/tienluong/workspace/atlantis_fw/AsicFwS2/src/../include/matrix.h ****         dst[11]  = tmp[6]  * mat[9]  + tmp[11] * mat[11] + tmp[3]  * mat[8];
 5052              		.loc 1 1233 0
 5053 08fc DDE91623 		ldrd	r2, [sp, #88]
1232:/home/tienluong/workspace/atlantis_fw/AsicFwS2/src/../include/matrix.h ****         dst[10] -= tmp[3]  * mat[12] + tmp[6]  * mat[13] + tmp[11] * mat[15];
 5054              		.loc 1 1232 0
 5055 0900 8046     		mov	r8, r0
 5056 0902 8946     		mov	r9, r1
1233:/home/tienluong/workspace/atlantis_fw/AsicFwS2/src/../include/matrix.h ****         dst[11]  = tmp[6]  * mat[9]  + tmp[11] * mat[11] + tmp[3]  * mat[8];
 5057              		.loc 1 1233 0
 5058 0904 DDE92601 		ldrd	r0, [sp, #152]
 5059 0908 A047     		blx	r4
 5060              	.LVL742:
 5061 090a DDE91223 		ldrd	r2, [sp, #72]
 5062 090e 0646     		mov	r6, r0
 5063 0910 0F46     		mov	r7, r1
 5064 0912 DDE91C01 		ldrd	r0, [sp, #112]
 5065 0916 A047     		blx	r4
 5066              	.LVL743:
 5067 0918 0246     		mov	r2, r0
 5068 091a 0B46     		mov	r3, r1
 5069 091c 3046     		mov	r0, r6
 5070 091e 3946     		mov	r1, r7
 5071 0920 A847     		blx	r5
 5072              	.LVL744:
 5073 0922 DDE90A23 		ldrd	r2, [sp, #40]
 5074 0926 0646     		mov	r6, r0
 5075 0928 0F46     		mov	r7, r1
 5076 092a DDE90201 		ldrd	r0, [sp, #8]
 5077 092e A047     		blx	r4
 5078              	.LVL745:
 5079 0930 0246     		mov	r2, r0
 5080 0932 0B46     		mov	r3, r1
 5081 0934 3046     		mov	r0, r6
 5082 0936 3946     		mov	r1, r7
 5083 0938 A847     		blx	r5
 5084              	.LVL746:
 5085 093a 0246     		mov	r2, r0
 5086 093c 0B46     		mov	r3, r1
 5087 093e 4046     		mov	r0, r8
 5088 0940 4946     		mov	r1, r9
 5089 0942 D847     		blx	fp
 5090              	.LVL747:
 5091 0944 52AB     		add	r3, sp, #328
 5092 0946 C3E90001 		strd	r0, [r3]
1234:/home/tienluong/workspace/atlantis_fw/AsicFwS2/src/../include/matrix.h ****         dst[11] -= tmp[10] * mat[11] + tmp[2]  * mat[8]  + tmp[7]  * mat[9];
 5093              		.loc 1 1234 0
 5094 094a DDE91023 		ldrd	r2, [sp, #64]
 5095 094e DDE91C01 		ldrd	r0, [sp, #112]
 5096 0952 A047     		blx	r4
 5097              	.LVL748:
 5098 0954 DDE90C23 		ldrd	r2, [sp, #48]
 5099 0958 0646     		mov	r6, r0
 5100 095a 0F46     		mov	r7, r1
 5101 095c DDE90201 		ldrd	r0, [sp, #8]
 5102 0960 A047     		blx	r4
 5103              	.LVL749:
 5104 0962 0246     		mov	r2, r0
 5105 0964 0B46     		mov	r3, r1
 5106 0966 3046     		mov	r0, r6
 5107 0968 3946     		mov	r1, r7
 5108 096a A847     		blx	r5
 5109              	.LVL750:
 5110 096c DDE91423 		ldrd	r2, [sp, #80]
 5111 0970 0646     		mov	r6, r0
 5112 0972 0F46     		mov	r7, r1
 5113 0974 DDE92601 		ldrd	r0, [sp, #152]
 5114 0978 A047     		blx	r4
 5115              	.LVL751:
 5116 097a 0246     		mov	r2, r0
 5117 097c 0B46     		mov	r3, r1
 5118 097e 3046     		mov	r0, r6
 5119 0980 3946     		mov	r1, r7
 5120 0982 A847     		blx	r5
 5121              	.LVL752:
1235:/home/tienluong/workspace/atlantis_fw/AsicFwS2/src/../include/matrix.h ****         dst[14]  = tmp[5]  * mat[12] + tmp[8]  * mat[13] + tmp[11] * mat[14];
 5122              		.loc 1 1235 0
 5123 0984 DDE90C23 		ldrd	r2, [sp, #48]
1234:/home/tienluong/workspace/atlantis_fw/AsicFwS2/src/../include/matrix.h ****         dst[11] -= tmp[10] * mat[11] + tmp[2]  * mat[8]  + tmp[7]  * mat[9];
 5124              		.loc 1 1234 0
 5125 0988 8046     		mov	r8, r0
 5126 098a 8946     		mov	r9, r1
1235:/home/tienluong/workspace/atlantis_fw/AsicFwS2/src/../include/matrix.h ****         dst[14]  = tmp[5]  * mat[12] + tmp[8]  * mat[13] + tmp[11] * mat[14];
 5127              		.loc 1 1235 0
 5128 098c DDE90001 		ldrd	r0, [sp]
 5129 0990 A047     		blx	r4
 5130              	.LVL753:
 5131 0992 DDE91423 		ldrd	r2, [sp, #80]
 5132 0996 0646     		mov	r6, r0
 5133 0998 0F46     		mov	r7, r1
 5134 099a DDE92401 		ldrd	r0, [sp, #144]
 5135 099e A047     		blx	r4
 5136              	.LVL754:
 5137 09a0 0246     		mov	r2, r0
 5138 09a2 0B46     		mov	r3, r1
 5139 09a4 3046     		mov	r0, r6
 5140 09a6 3946     		mov	r1, r7
 5141 09a8 A847     		blx	r5
 5142              	.LVL755:
 5143 09aa DDE91023 		ldrd	r2, [sp, #64]
 5144 09ae 0646     		mov	r6, r0
 5145 09b0 0F46     		mov	r7, r1
 5146 09b2 DDE90601 		ldrd	r0, [sp, #24]
 5147 09b6 A047     		blx	r4
 5148              	.LVL756:
 5149 09b8 0246     		mov	r2, r0
 5150 09ba 0B46     		mov	r3, r1
 5151 09bc 3046     		mov	r0, r6
 5152 09be 3946     		mov	r1, r7
 5153 09c0 A847     		blx	r5
 5154              	.LVL757:
 5155 09c2 0246     		mov	r2, r0
 5156 09c4 0B46     		mov	r3, r1
 5157 09c6 4046     		mov	r0, r8
 5158 09c8 4946     		mov	r1, r9
 5159 09ca D847     		blx	fp
 5160              	.LVL758:
 5161 09cc 54AB     		add	r3, sp, #336
 5162 09ce C3E90001 		strd	r0, [r3]
1236:/home/tienluong/workspace/atlantis_fw/AsicFwS2/src/../include/matrix.h ****         dst[14] -= tmp[4]  * mat[12] + tmp[9]  * mat[13] + tmp[10] * mat[14];
 5163              		.loc 1 1236 0
 5164 09d2 DDE91623 		ldrd	r2, [sp, #88]
 5165 09d6 DDE92A01 		ldrd	r0, [sp, #168]
 5166 09da A047     		blx	r4
 5167              	.LVL759:
 5168 09dc DDE91223 		ldrd	r2, [sp, #72]
 5169 09e0 0646     		mov	r6, r0
 5170 09e2 0F46     		mov	r7, r1
 5171 09e4 DDE91A01 		ldrd	r0, [sp, #104]
 5172 09e8 A047     		blx	r4
 5173              	.LVL760:
 5174 09ea 0246     		mov	r2, r0
 5175 09ec 0B46     		mov	r3, r1
 5176 09ee 3046     		mov	r0, r6
 5177 09f0 3946     		mov	r1, r7
 5178 09f2 A847     		blx	r5
 5179              	.LVL761:
 5180 09f4 0646     		mov	r6, r0
 5181 09f6 0F46     		mov	r7, r1
 5182 09f8 DDE90201 		ldrd	r0, [sp, #8]
 5183 09fc DDE90E23 		ldrd	r2, [sp, #56]
 5184 0a00 A047     		blx	r4
 5185              	.LVL762:
 5186 0a02 0246     		mov	r2, r0
 5187 0a04 0B46     		mov	r3, r1
 5188 0a06 3046     		mov	r0, r6
 5189 0a08 3946     		mov	r1, r7
 5190 0a0a A847     		blx	r5
 5191              	.LVL763:
1237:/home/tienluong/workspace/atlantis_fw/AsicFwS2/src/../include/matrix.h ****         dst[15]  = tmp[10] * mat[10] + tmp[4]  * mat[8]  + tmp[9]  * mat[9];
 5192              		.loc 1 1237 0
 5193 0a0c DDE91623 		ldrd	r2, [sp, #88]
1236:/home/tienluong/workspace/atlantis_fw/AsicFwS2/src/../include/matrix.h ****         dst[14] -= tmp[4]  * mat[12] + tmp[9]  * mat[13] + tmp[10] * mat[14];
 5194              		.loc 1 1236 0
 5195 0a10 8046     		mov	r8, r0
 5196 0a12 8946     		mov	r9, r1
1237:/home/tienluong/workspace/atlantis_fw/AsicFwS2/src/../include/matrix.h ****         dst[15]  = tmp[10] * mat[10] + tmp[4]  * mat[8]  + tmp[9]  * mat[9];
 5197              		.loc 1 1237 0
 5198 0a14 DDE92801 		ldrd	r0, [sp, #160]
 5199 0a18 A047     		blx	r4
 5200              	.LVL764:
 5201 0a1a DDE91223 		ldrd	r2, [sp, #72]
 5202 0a1e 0646     		mov	r6, r0
 5203 0a20 0F46     		mov	r7, r1
 5204 0a22 DDE90401 		ldrd	r0, [sp, #16]
 5205 0a26 A047     		blx	r4
 5206              	.LVL765:
 5207 0a28 0246     		mov	r2, r0
 5208 0a2a 0B46     		mov	r3, r1
 5209 0a2c 3046     		mov	r0, r6
 5210 0a2e 3946     		mov	r1, r7
 5211 0a30 A847     		blx	r5
 5212              	.LVL766:
 5213 0a32 DDE90E23 		ldrd	r2, [sp, #56]
 5214 0a36 0646     		mov	r6, r0
 5215 0a38 0F46     		mov	r7, r1
 5216 0a3a DDE90001 		ldrd	r0, [sp]
 5217 0a3e A047     		blx	r4
 5218              	.LVL767:
 5219 0a40 0246     		mov	r2, r0
 5220 0a42 0B46     		mov	r3, r1
 5221 0a44 3046     		mov	r0, r6
 5222 0a46 3946     		mov	r1, r7
 5223 0a48 A847     		blx	r5
 5224              	.LVL768:
 5225 0a4a 0246     		mov	r2, r0
 5226 0a4c 0B46     		mov	r3, r1
 5227 0a4e 4046     		mov	r0, r8
 5228 0a50 4946     		mov	r1, r9
 5229 0a52 D847     		blx	fp
 5230              	.LVL769:
 5231 0a54 5AAB     		add	r3, sp, #360
 5232 0a56 C3E90001 		strd	r0, [r3]
1238:/home/tienluong/workspace/atlantis_fw/AsicFwS2/src/../include/matrix.h ****         dst[15] -= tmp[8]  * mat[9]  + tmp[11] * mat[10] + tmp[5]  * mat[8];
 5233              		.loc 1 1238 0
 5234 0a5a DDE90823 		ldrd	r2, [sp, #32]
 5235 0a5e DDE90001 		ldrd	r0, [sp]
 5236 0a62 A047     		blx	r4
 5237              	.LVL770:
 5238 0a64 DDE91423 		ldrd	r2, [sp, #80]
 5239 0a68 0646     		mov	r6, r0
 5240 0a6a 0F46     		mov	r7, r1
 5241 0a6c DDE92801 		ldrd	r0, [sp, #160]
 5242 0a70 A047     		blx	r4
 5243              	.LVL771:
 5244 0a72 0246     		mov	r2, r0
 5245 0a74 0B46     		mov	r3, r1
 5246 0a76 3046     		mov	r0, r6
 5247 0a78 3946     		mov	r1, r7
 5248 0a7a A847     		blx	r5
 5249              	.LVL772:
 5250 0a7c DDE91023 		ldrd	r2, [sp, #64]
 5251 0a80 0646     		mov	r6, r0
 5252 0a82 0F46     		mov	r7, r1
 5253 0a84 DDE90401 		ldrd	r0, [sp, #16]
 5254 0a88 A047     		blx	r4
 5255              	.LVL773:
 5256 0a8a 0246     		mov	r2, r0
 5257 0a8c 0B46     		mov	r3, r1
 5258 0a8e 3046     		mov	r0, r6
 5259 0a90 3946     		mov	r1, r7
 5260 0a92 A847     		blx	r5
 5261              	.LVL774:
1239:/home/tienluong/workspace/atlantis_fw/AsicFwS2/src/../include/matrix.h **** 
 5262              		.loc 1 1239 0
 5263 0a94 DDE91023 		ldrd	r2, [sp, #64]
1238:/home/tienluong/workspace/atlantis_fw/AsicFwS2/src/../include/matrix.h ****         dst[15] -= tmp[8]  * mat[9]  + tmp[11] * mat[10] + tmp[5]  * mat[8];
 5264              		.loc 1 1238 0
 5265 0a98 0646     		mov	r6, r0
 5266 0a9a 0F46     		mov	r7, r1
1239:/home/tienluong/workspace/atlantis_fw/AsicFwS2/src/../include/matrix.h **** 
 5267              		.loc 1 1239 0
 5268 0a9c DDE91A01 		ldrd	r0, [sp, #104]
 5269 0aa0 A047     		blx	r4
 5270              	.LVL775:
 5271 0aa2 DDE90823 		ldrd	r2, [sp, #32]
 5272 0aa6 8046     		mov	r8, r0
 5273 0aa8 8946     		mov	r9, r1
 5274 0aaa DDE90201 		ldrd	r0, [sp, #8]
 5275 0aae A047     		blx	r4
 5276              	.LVL776:
 5277 0ab0 0246     		mov	r2, r0
 5278 0ab2 0B46     		mov	r3, r1
 5279 0ab4 4046     		mov	r0, r8
 5280 0ab6 4946     		mov	r1, r9
 5281 0ab8 A847     		blx	r5
 5282              	.LVL777:
 5283 0aba DDE91423 		ldrd	r2, [sp, #80]
 5284 0abe 8046     		mov	r8, r0
 5285 0ac0 8946     		mov	r9, r1
 5286 0ac2 DDE92A01 		ldrd	r0, [sp, #168]
 5287 0ac6 A047     		blx	r4
 5288              	.LVL778:
 5289 0ac8 0246     		mov	r2, r0
 5290 0aca 0B46     		mov	r3, r1
 5291 0acc 4046     		mov	r0, r8
 5292 0ace 4946     		mov	r1, r9
 5293 0ad0 A847     		blx	r5
 5294              	.LVL779:
 5295 0ad2 AAF10805 		sub	r5, r10, #8
 5296 0ad6 0AF1780A 		add	r10, r10, #120
 5297              	.LVL780:
 5298 0ada 0B46     		mov	r3, r1
 5299 0adc 0246     		mov	r2, r0
 5300 0ade 3946     		mov	r1, r7
 5301 0ae0 3046     		mov	r0, r6
 5302 0ae2 D847     		blx	fp
 5303              	.LVL781:
 5304 0ae4 3CAE     		add	r6, sp, #240
 5305 0ae6 5CAB     		add	r3, sp, #368
 5306 0ae8 C3E90001 		strd	r0, [r3]
 5307              	.LVL782:
 5308              	.L132:
 5309              	.LBB460:
1242:/home/tienluong/workspace/atlantis_fw/AsicFwS2/src/../include/matrix.h ****     }
 5310              		.loc 1 1242 0 discriminator 3
 5311 0aec F6E90201 		ldrd	r0, [r6, #8]!
 5312 0af0 DDE93823 		ldrd	r2, [sp, #224]
 5313 0af4 A047     		blx	r4
 5314              	.LVL783:
 5315 0af6 E5E90201 		strd	r0, [r5, #8]!
 5316 0afa 5545     		cmp	r5, r10
 5317 0afc F6D1     		bne	.L132
 5318              	.LBE460:
 5319              	.LBE461:
1243:/home/tienluong/workspace/atlantis_fw/AsicFwS2/src/../include/matrix.h **** };
 5320              		.loc 1 1243 0
 5321 0afe 5FB0     		add	sp, sp, #380
 5322              	.LCFI43:
 5323              		.cfi_def_cfa_offset 36
 5324              		@ sp needed
 5325 0b00 BDE8F08F 		pop	{r4, r5, r6, r7, r8, r9, r10, fp, pc}
 5326              		.cfi_endproc
 5327              	.LFE2701:
 5329              		.section	.text._ZN4ltaf7inverseIdLi4ELb1EEENS_6MatrixIT_XT0_EXT0_EXT1_EEERKS3_,"axG",%progbits,_ZN
 5330              		.align	1
 5331              		.weak	_ZN4ltaf7inverseIdLi4ELb1EEENS_6MatrixIT_XT0_EXT0_EXT1_EEERKS3_
 5332              		.thumb
 5333              		.thumb_func
 5335              	_ZN4ltaf7inverseIdLi4ELb1EEENS_6MatrixIT_XT0_EXT0_EXT1_EEERKS3_:
 5336              	.LFB2609:
1247:/home/tienluong/workspace/atlantis_fw/AsicFwS2/src/../include/matrix.h **** {
 5337              		.loc 1 1247 0
 5338              		.cfi_startproc
 5339              		@ args = 0, pretend = 0, frame = 8
 5340              		@ frame_needed = 0, uses_anonymous_args = 0
 5341              	.LVL784:
 5342 0000 13B5     		push	{r0, r1, r4, lr}
 5343              	.LCFI44:
 5344              		.cfi_def_cfa_offset 16
 5345              		.cfi_offset 4, -8
 5346              		.cfi_offset 14, -4
 5347              	.LBB468:
 5348              	.LBB469:
 5349              	.LBB470:
 591:/home/tienluong/workspace/atlantis_fw/AsicFwS2/src/../include/matrix.h **** 
 5350              		.loc 1 591 0
 5351 0002 8022     		movs	r2, #128
 5352              	.LBE470:
 5353              	.LBE469:
 5354              	.LBE468:
1247:/home/tienluong/workspace/atlantis_fw/AsicFwS2/src/../include/matrix.h **** {
 5355              		.loc 1 1247 0
 5356 0004 0446     		mov	r4, r0
 5357              	.LVL785:
 5358              	.LBB473:
 5359              	.LBB472:
 5360              	.LBB471:
 591:/home/tienluong/workspace/atlantis_fw/AsicFwS2/src/../include/matrix.h **** 
 5361              		.loc 1 591 0
 5362 0006 044B     		ldr	r3, .L141
 5363 0008 9847     		blx	r3
 5364              	.LVL786:
 5365              	.LBE471:
 5366              	.LBE472:
1251:/home/tienluong/workspace/atlantis_fw/AsicFwS2/src/../include/matrix.h ****     return rval;
 5367              		.loc 1 1251 0
 5368 000a 01A8     		add	r0, sp, #4
 5369 000c 2146     		mov	r1, r4
 5370 000e 034B     		ldr	r3, .L141+4
 5371 0010 9847     		blx	r3
 5372              	.LVL787:
 5373              	.LBE473:
1253:/home/tienluong/workspace/atlantis_fw/AsicFwS2/src/../include/matrix.h **** 
 5374              		.loc 1 1253 0
 5375 0012 2046     		mov	r0, r4
 5376 0014 02B0     		add	sp, sp, #8
 5377              	.LCFI45:
 5378              		.cfi_def_cfa_offset 8
 5379              		@ sp needed
 5380 0016 10BD     		pop	{r4, pc}
 5381              	.LVL788:
 5382              	.L142:
 5383              		.align	2
 5384              	.L141:
 5385 0018 00000000 		.word	memcpy
 5386 001c 00000000 		.word	_ZNK4ltaf20SquareMatrixInverterIdLi4EE3runEPd
 5387              		.cfi_endproc
 5388              	.LFE2609:
 5390              		.section	.text._ZN4ltaf7inverseIdLi4ELb0EEENS_6MatrixIT_XT0_EXT0_EXT1_EEERKS3_,"axG",%progbits,_ZN
 5391              		.align	1
 5392              		.weak	_ZN4ltaf7inverseIdLi4ELb0EEENS_6MatrixIT_XT0_EXT0_EXT1_EEERKS3_
 5393              		.thumb
 5394              		.thumb_func
 5396              	_ZN4ltaf7inverseIdLi4ELb0EEENS_6MatrixIT_XT0_EXT0_EXT1_EEERKS3_:
 5397              	.LFB2612:
1247:/home/tienluong/workspace/atlantis_fw/AsicFwS2/src/../include/matrix.h **** {
 5398              		.loc 1 1247 0
 5399              		.cfi_startproc
 5400              		@ args = 0, pretend = 0, frame = 8
 5401              		@ frame_needed = 0, uses_anonymous_args = 0
 5402              	.LVL789:
 5403 0000 13B5     		push	{r0, r1, r4, lr}
 5404              	.LCFI46:
 5405              		.cfi_def_cfa_offset 16
 5406              		.cfi_offset 4, -8
 5407              		.cfi_offset 14, -4
 5408              	.LBB480:
 5409              	.LBB481:
 5410              	.LBB482:
 593:/home/tienluong/workspace/atlantis_fw/AsicFwS2/src/../include/matrix.h **** 
 5411              		.loc 1 593 0
 5412 0002 8022     		movs	r2, #128
 5413              	.LBE482:
 5414              	.LBE481:
 5415              	.LBE480:
1247:/home/tienluong/workspace/atlantis_fw/AsicFwS2/src/../include/matrix.h **** {
 5416              		.loc 1 1247 0
 5417 0004 0446     		mov	r4, r0
 5418              	.LVL790:
 5419              	.LBB485:
 5420              	.LBB484:
 5421              	.LBB483:
 593:/home/tienluong/workspace/atlantis_fw/AsicFwS2/src/../include/matrix.h **** 
 5422              		.loc 1 593 0
 5423 0006 044B     		ldr	r3, .L144
 5424 0008 9847     		blx	r3
 5425              	.LVL791:
 5426              	.LBE483:
 5427              	.LBE484:
1251:/home/tienluong/workspace/atlantis_fw/AsicFwS2/src/../include/matrix.h ****     return rval;
 5428              		.loc 1 1251 0
 5429 000a 01A8     		add	r0, sp, #4
 5430 000c 2146     		mov	r1, r4
 5431 000e 034B     		ldr	r3, .L144+4
 5432 0010 9847     		blx	r3
 5433              	.LVL792:
 5434              	.LBE485:
1253:/home/tienluong/workspace/atlantis_fw/AsicFwS2/src/../include/matrix.h **** 
 5435              		.loc 1 1253 0
 5436 0012 2046     		mov	r0, r4
 5437 0014 02B0     		add	sp, sp, #8
 5438              	.LCFI47:
 5439              		.cfi_def_cfa_offset 8
 5440              		@ sp needed
 5441 0016 10BD     		pop	{r4, pc}
 5442              	.LVL793:
 5443              	.L145:
 5444              		.align	2
 5445              	.L144:
 5446 0018 00000000 		.word	memcpy
 5447 001c 00000000 		.word	_ZNK4ltaf20SquareMatrixInverterIdLi4EE3runEPd
 5448              		.cfi_endproc
 5449              	.LFE2612:
 5451              		.section	.text._ZNK4ltaf17MatrixDeterminantIfLi3EEclEPKf,"axG",%progbits,_ZNK4ltaf17MatrixDetermin
 5452              		.align	1
 5453              		.weak	_ZNK4ltaf17MatrixDeterminantIfLi3EEclEPKf
 5454              		.thumb
 5455              		.thumb_func
 5457              	_ZNK4ltaf17MatrixDeterminantIfLi3EEclEPKf:
 5458              	.LFB2717:
1069:/home/tienluong/workspace/atlantis_fw/AsicFwS2/src/../include/matrix.h ****     {
 5459              		.loc 1 1069 0
 5460              		.cfi_startproc
 5461              		@ args = 0, pretend = 0, frame = 16
 5462              		@ frame_needed = 0, uses_anonymous_args = 0
 5463              	.LVL794:
 5464 0000 2DE9F04F 		push	{r4, r5, r6, r7, r8, r9, r10, fp, lr}
 5465              	.LCFI48:
 5466              		.cfi_def_cfa_offset 36
 5467              		.cfi_offset 4, -36
 5468              		.cfi_offset 5, -32
 5469              		.cfi_offset 6, -28
 5470              		.cfi_offset 7, -24
 5471              		.cfi_offset 8, -20
 5472              		.cfi_offset 9, -16
 5473              		.cfi_offset 10, -12
 5474              		.cfi_offset 11, -8
 5475              		.cfi_offset 14, -4
1073:/home/tienluong/workspace/atlantis_fw/AsicFwS2/src/../include/matrix.h ****     }
 5476              		.loc 1 1073 0
 5477 0004 0B6A     		ldr	r3, [r1, #32]	@ float
1069:/home/tienluong/workspace/atlantis_fw/AsicFwS2/src/../include/matrix.h ****     {
 5478              		.loc 1 1069 0
 5479 0006 85B0     		sub	sp, sp, #20
 5480              	.LCFI49:
 5481              		.cfi_def_cfa_offset 56
1073:/home/tienluong/workspace/atlantis_fw/AsicFwS2/src/../include/matrix.h ****     }
 5482              		.loc 1 1073 0
 5483 0008 D1F81080 		ldr	r8, [r1, #16]	@ float
1069:/home/tienluong/workspace/atlantis_fw/AsicFwS2/src/../include/matrix.h ****     {
 5484              		.loc 1 1069 0
 5485 000c 0D46     		mov	r5, r1
1073:/home/tienluong/workspace/atlantis_fw/AsicFwS2/src/../include/matrix.h ****     }
 5486              		.loc 1 1073 0
 5487 000e 1F4C     		ldr	r4, .L147
 5488 0010 4046     		mov	r0, r8
 5489              	.LVL795:
 5490 0012 D1F81C90 		ldr	r9, [r1, #28]	@ float
 5491 0016 D1F814B0 		ldr	fp, [r1, #20]	@ float
 5492 001a D1F80CA0 		ldr	r10, [r1, #12]	@ float
 5493 001e 8F69     		ldr	r7, [r1, #24]	@ float
 5494 0020 1946     		mov	r1, r3
 5495              	.LVL796:
 5496 0022 0393     		str	r3, [sp, #12]
 5497 0024 A047     		blx	r4
 5498              	.LVL797:
 5499 0026 5946     		mov	r1, fp
 5500 0028 194E     		ldr	r6, .L147+4
 5501 002a 0190     		str	r0, [sp, #4]
 5502 002c 4846     		mov	r0, r9
 5503 002e A047     		blx	r4
 5504              	.LVL798:
 5505 0030 019A     		ldr	r2, [sp, #4]
 5506 0032 0146     		mov	r1, r0
 5507 0034 1046     		mov	r0, r2
 5508 0036 B047     		blx	r6
 5509              	.LVL799:
 5510 0038 2968     		ldr	r1, [r5]	@ float
 5511 003a A047     		blx	r4
 5512              	.LVL800:
 5513 003c 039B     		ldr	r3, [sp, #12]
 5514 003e 1946     		mov	r1, r3
 5515 0040 0290     		str	r0, [sp, #8]
 5516 0042 5046     		mov	r0, r10
 5517 0044 A047     		blx	r4
 5518              	.LVL801:
 5519 0046 3946     		mov	r1, r7
 5520 0048 0190     		str	r0, [sp, #4]
 5521 004a 5846     		mov	r0, fp
 5522 004c A047     		blx	r4
 5523              	.LVL802:
 5524 004e 019B     		ldr	r3, [sp, #4]
 5525 0050 0146     		mov	r1, r0
 5526 0052 1846     		mov	r0, r3
 5527 0054 B047     		blx	r6
 5528              	.LVL803:
 5529 0056 6968     		ldr	r1, [r5, #4]	@ float
 5530 0058 A047     		blx	r4
 5531              	.LVL804:
 5532 005a 029A     		ldr	r2, [sp, #8]
 5533 005c 0146     		mov	r1, r0
 5534 005e 1046     		mov	r0, r2
 5535 0060 B047     		blx	r6
 5536              	.LVL805:
 5537 0062 4946     		mov	r1, r9
 5538 0064 8346     		mov	fp, r0
 5539 0066 5046     		mov	r0, r10
 5540 0068 A047     		blx	r4
 5541              	.LVL806:
 5542 006a 3946     		mov	r1, r7
 5543 006c 8146     		mov	r9, r0
 5544 006e 4046     		mov	r0, r8
 5545 0070 A047     		blx	r4
 5546              	.LVL807:
 5547 0072 0146     		mov	r1, r0
 5548 0074 4846     		mov	r0, r9
 5549 0076 B047     		blx	r6
 5550              	.LVL808:
 5551 0078 A968     		ldr	r1, [r5, #8]	@ float
 5552 007a A047     		blx	r4
 5553              	.LVL809:
 5554 007c 054B     		ldr	r3, .L147+8
 5555 007e 0146     		mov	r1, r0
 5556 0080 5846     		mov	r0, fp
 5557 0082 9847     		blx	r3
 5558              	.LVL810:
1074:/home/tienluong/workspace/atlantis_fw/AsicFwS2/src/../include/matrix.h **** };
 5559              		.loc 1 1074 0
 5560 0084 05B0     		add	sp, sp, #20
 5561              	.LCFI50:
 5562              		.cfi_def_cfa_offset 36
 5563              		@ sp needed
 5564 0086 BDE8F08F 		pop	{r4, r5, r6, r7, r8, r9, r10, fp, pc}
 5565              	.LVL811:
 5566              	.L148:
 5567 008a 00BF     		.align	2
 5568              	.L147:
 5569 008c 00000000 		.word	__aeabi_fmul
 5570 0090 00000000 		.word	__aeabi_fsub
 5571 0094 00000000 		.word	__aeabi_fadd
 5572              		.cfi_endproc
 5573              	.LFE2717:
 5575              		.section	.text._ZN4ltaf11determinantIfLi3ELb1EEET_RKNS_6MatrixIS1_XT0_EXT0_EXT1_EEE,"axG",%progbit
 5576              		.align	1
 5577              		.weak	_ZN4ltaf11determinantIfLi3ELb1EEET_RKNS_6MatrixIS1_XT0_EXT0_EXT1_EEE
 5578              		.thumb
 5579              		.thumb_func
 5581              	_ZN4ltaf11determinantIfLi3ELb1EEET_RKNS_6MatrixIS1_XT0_EXT0_EXT1_EEE:
 5582              	.LFB2614:
1256:/home/tienluong/workspace/atlantis_fw/AsicFwS2/src/../include/matrix.h **** {
 5583              		.loc 1 1256 0
 5584              		.cfi_startproc
 5585              		@ args = 0, pretend = 0, frame = 8
 5586              		@ frame_needed = 0, uses_anonymous_args = 0
 5587              	.LVL812:
 5588 0000 07B5     		push	{r0, r1, r2, lr}
 5589              	.LCFI51:
 5590              		.cfi_def_cfa_offset 16
 5591              		.cfi_offset 14, -4
 5592              	.LBB486:
1259:/home/tienluong/workspace/atlantis_fw/AsicFwS2/src/../include/matrix.h **** }
 5593              		.loc 1 1259 0
 5594 0002 034B     		ldr	r3, .L150
 5595              	.LBE486:
1256:/home/tienluong/workspace/atlantis_fw/AsicFwS2/src/../include/matrix.h **** {
 5596              		.loc 1 1256 0
 5597 0004 0146     		mov	r1, r0
 5598              	.LVL813:
 5599              	.LBB487:
1259:/home/tienluong/workspace/atlantis_fw/AsicFwS2/src/../include/matrix.h **** }
 5600              		.loc 1 1259 0
 5601 0006 01A8     		add	r0, sp, #4
 5602              	.LVL814:
 5603 0008 9847     		blx	r3
 5604              	.LVL815:
 5605              	.LBE487:
 5606              		.loc 1 1260 0
 5607 000a 03B0     		add	sp, sp, #12
 5608              	.LCFI52:
 5609              		.cfi_def_cfa_offset 4
 5610              		@ sp needed
 5611 000c 5DF804FB 		ldr	pc, [sp], #4
 5612              	.L151:
 5613              		.align	2
 5614              	.L150:
 5615 0010 00000000 		.word	_ZNK4ltaf17MatrixDeterminantIfLi3EEclEPKf
 5616              		.cfi_endproc
 5617              	.LFE2614:
 5619              		.section	.text._ZN4ltaf11determinantIfLi3ELb0EEET_RKNS_6MatrixIS1_XT0_EXT0_EXT1_EEE,"axG",%progbit
 5620              		.align	1
 5621              		.weak	_ZN4ltaf11determinantIfLi3ELb0EEET_RKNS_6MatrixIS1_XT0_EXT0_EXT1_EEE
 5622              		.thumb
 5623              		.thumb_func
 5625              	_ZN4ltaf11determinantIfLi3ELb0EEET_RKNS_6MatrixIS1_XT0_EXT0_EXT1_EEE:
 5626              	.LFB2617:
1256:/home/tienluong/workspace/atlantis_fw/AsicFwS2/src/../include/matrix.h **** {
 5627              		.loc 1 1256 0
 5628              		.cfi_startproc
 5629              		@ args = 0, pretend = 0, frame = 8
 5630              		@ frame_needed = 0, uses_anonymous_args = 0
 5631              	.LVL816:
 5632 0000 07B5     		push	{r0, r1, r2, lr}
 5633              	.LCFI53:
 5634              		.cfi_def_cfa_offset 16
 5635              		.cfi_offset 14, -4
 5636              	.LBB488:
1259:/home/tienluong/workspace/atlantis_fw/AsicFwS2/src/../include/matrix.h **** }
 5637              		.loc 1 1259 0
 5638 0002 034B     		ldr	r3, .L153
 5639              	.LBE488:
1256:/home/tienluong/workspace/atlantis_fw/AsicFwS2/src/../include/matrix.h **** {
 5640              		.loc 1 1256 0
 5641 0004 0146     		mov	r1, r0
 5642              	.LVL817:
 5643              	.LBB489:
1259:/home/tienluong/workspace/atlantis_fw/AsicFwS2/src/../include/matrix.h **** }
 5644              		.loc 1 1259 0
 5645 0006 01A8     		add	r0, sp, #4
 5646              	.LVL818:
 5647 0008 9847     		blx	r3
 5648              	.LVL819:
 5649              	.LBE489:
 5650              		.loc 1 1260 0
 5651 000a 03B0     		add	sp, sp, #12
 5652              	.LCFI54:
 5653              		.cfi_def_cfa_offset 4
 5654              		@ sp needed
 5655 000c 5DF804FB 		ldr	pc, [sp], #4
 5656              	.L154:
 5657              		.align	2
 5658              	.L153:
 5659 0010 00000000 		.word	_ZNK4ltaf17MatrixDeterminantIfLi3EEclEPKf
 5660              		.cfi_endproc
 5661              	.LFE2617:
 5663              		.section	.text._ZNK4ltaf17MatrixDeterminantIfLi4EEclEPKf,"axG",%progbits,_ZNK4ltaf17MatrixDetermin
 5664              		.align	1
 5665              		.weak	_ZNK4ltaf17MatrixDeterminantIfLi4EEclEPKf
 5666              		.thumb
 5667              		.thumb_func
 5669              	_ZNK4ltaf17MatrixDeterminantIfLi4EEclEPKf:
 5670              	.LFB2719:
1080:/home/tienluong/workspace/atlantis_fw/AsicFwS2/src/../include/matrix.h ****     {
 5671              		.loc 1 1080 0
 5672              		.cfi_startproc
 5673              		@ args = 0, pretend = 0, frame = 56
 5674              		@ frame_needed = 0, uses_anonymous_args = 0
 5675              	.LVL820:
 5676 0000 2DE9F04F 		push	{r4, r5, r6, r7, r8, r9, r10, fp, lr}
 5677              	.LCFI55:
 5678              		.cfi_def_cfa_offset 36
 5679              		.cfi_offset 4, -36
 5680              		.cfi_offset 5, -32
 5681              		.cfi_offset 6, -28
 5682              		.cfi_offset 7, -24
 5683              		.cfi_offset 8, -20
 5684              		.cfi_offset 9, -16
 5685              		.cfi_offset 10, -12
 5686              		.cfi_offset 11, -8
 5687              		.cfi_offset 14, -4
 5688              	.LBB490:
1086:/home/tienluong/workspace/atlantis_fw/AsicFwS2/src/../include/matrix.h ****         tmp[1] = mat[11] * mat[14];
 5689              		.loc 1 1086 0
 5690 0004 D1F828A0 		ldr	r10, [r1, #40]	@ float
 5691              	.LBE490:
1080:/home/tienluong/workspace/atlantis_fw/AsicFwS2/src/../include/matrix.h ****     {
 5692              		.loc 1 1080 0
 5693 0008 8FB0     		sub	sp, sp, #60
 5694              	.LCFI56:
 5695              		.cfi_def_cfa_offset 96
 5696              	.LBB491:
1086:/home/tienluong/workspace/atlantis_fw/AsicFwS2/src/../include/matrix.h ****         tmp[1] = mat[11] * mat[14];
 5697              		.loc 1 1086 0
 5698 000a CD6B     		ldr	r5, [r1, #60]	@ float
 5699              	.LBE491:
1080:/home/tienluong/workspace/atlantis_fw/AsicFwS2/src/../include/matrix.h ****     {
 5700              		.loc 1 1080 0
 5701 000c 0E46     		mov	r6, r1
 5702              	.LBB492:
1086:/home/tienluong/workspace/atlantis_fw/AsicFwS2/src/../include/matrix.h ****         tmp[1] = mat[11] * mat[14];
 5703              		.loc 1 1086 0
 5704 000e 824C     		ldr	r4, .L156
 5705 0010 2946     		mov	r1, r5
 5706              	.LVL821:
 5707 0012 5046     		mov	r0, r10
 5708              	.LVL822:
 5709 0014 A047     		blx	r4
 5710              	.LVL823:
1087:/home/tienluong/workspace/atlantis_fw/AsicFwS2/src/../include/matrix.h ****         tmp[2] = mat[9] * mat[15];
 5711              		.loc 1 1087 0
 5712 0016 F26A     		ldr	r2, [r6, #44]	@ float
 5713 0018 D6F838B0 		ldr	fp, [r6, #56]	@ float
 5714 001c 5946     		mov	r1, fp
 5715 001e 0392     		str	r2, [sp, #12]
1086:/home/tienluong/workspace/atlantis_fw/AsicFwS2/src/../include/matrix.h ****         tmp[1] = mat[11] * mat[14];
 5716              		.loc 1 1086 0
 5717 0020 0090     		str	r0, [sp]	@ float
 5718              	.LVL824:
1087:/home/tienluong/workspace/atlantis_fw/AsicFwS2/src/../include/matrix.h ****         tmp[2] = mat[9] * mat[15];
 5719              		.loc 1 1087 0
 5720 0022 1046     		mov	r0, r2
 5721              	.LVL825:
 5722 0024 A047     		blx	r4
 5723              	.LVL826:
1088:/home/tienluong/workspace/atlantis_fw/AsicFwS2/src/../include/matrix.h ****         tmp[3] = mat[11] * mat[13];
 5724              		.loc 1 1088 0
 5725 0026 776A     		ldr	r7, [r6, #36]	@ float
 5726 0028 2946     		mov	r1, r5
1087:/home/tienluong/workspace/atlantis_fw/AsicFwS2/src/../include/matrix.h ****         tmp[2] = mat[9] * mat[15];
 5727              		.loc 1 1087 0
 5728 002a 0190     		str	r0, [sp, #4]	@ float
 5729              	.LVL827:
1088:/home/tienluong/workspace/atlantis_fw/AsicFwS2/src/../include/matrix.h ****         tmp[3] = mat[11] * mat[13];
 5730              		.loc 1 1088 0
 5731 002c 3846     		mov	r0, r7
 5732              	.LVL828:
 5733 002e A047     		blx	r4
 5734              	.LVL829:
1089:/home/tienluong/workspace/atlantis_fw/AsicFwS2/src/../include/matrix.h ****         tmp[4] = mat[9] * mat[14];
 5735              		.loc 1 1089 0
 5736 0030 039A     		ldr	r2, [sp, #12]
 5737 0032 D6F83480 		ldr	r8, [r6, #52]	@ float
 5738 0036 4146     		mov	r1, r8
 5739 0038 0792     		str	r2, [sp, #28]
1088:/home/tienluong/workspace/atlantis_fw/AsicFwS2/src/../include/matrix.h ****         tmp[3] = mat[11] * mat[13];
 5740              		.loc 1 1088 0
 5741 003a 0290     		str	r0, [sp, #8]	@ float
 5742              	.LVL830:
1089:/home/tienluong/workspace/atlantis_fw/AsicFwS2/src/../include/matrix.h ****         tmp[4] = mat[9] * mat[14];
 5743              		.loc 1 1089 0
 5744 003c 1046     		mov	r0, r2
 5745              	.LVL831:
 5746 003e A047     		blx	r4
 5747              	.LVL832:
1090:/home/tienluong/workspace/atlantis_fw/AsicFwS2/src/../include/matrix.h ****         tmp[5] = mat[10] * mat[13];
 5748              		.loc 1 1090 0
 5749 0040 5946     		mov	r1, fp
1089:/home/tienluong/workspace/atlantis_fw/AsicFwS2/src/../include/matrix.h ****         tmp[4] = mat[9] * mat[14];
 5750              		.loc 1 1089 0
 5751 0042 0390     		str	r0, [sp, #12]	@ float
 5752              	.LVL833:
1090:/home/tienluong/workspace/atlantis_fw/AsicFwS2/src/../include/matrix.h ****         tmp[5] = mat[10] * mat[13];
 5753              		.loc 1 1090 0
 5754 0044 3846     		mov	r0, r7
 5755              	.LVL834:
 5756 0046 A047     		blx	r4
 5757              	.LVL835:
1091:/home/tienluong/workspace/atlantis_fw/AsicFwS2/src/../include/matrix.h ****         tmp[6] = mat[8] * mat[15];
 5758              		.loc 1 1091 0
 5759 0048 4146     		mov	r1, r8
1090:/home/tienluong/workspace/atlantis_fw/AsicFwS2/src/../include/matrix.h ****         tmp[5] = mat[10] * mat[13];
 5760              		.loc 1 1090 0
 5761 004a 0490     		str	r0, [sp, #16]	@ float
 5762              	.LVL836:
1091:/home/tienluong/workspace/atlantis_fw/AsicFwS2/src/../include/matrix.h ****         tmp[6] = mat[8] * mat[15];
 5763              		.loc 1 1091 0
 5764 004c 5046     		mov	r0, r10
 5765              	.LVL837:
 5766 004e A047     		blx	r4
 5767              	.LVL838:
1092:/home/tienluong/workspace/atlantis_fw/AsicFwS2/src/../include/matrix.h ****         tmp[7] = mat[11] * mat[12];
 5768              		.loc 1 1092 0
 5769 0050 D6F82090 		ldr	r9, [r6, #32]	@ float
 5770 0054 2946     		mov	r1, r5
1091:/home/tienluong/workspace/atlantis_fw/AsicFwS2/src/../include/matrix.h ****         tmp[6] = mat[8] * mat[15];
 5771              		.loc 1 1091 0
 5772 0056 0590     		str	r0, [sp, #20]	@ float
 5773              	.LVL839:
1092:/home/tienluong/workspace/atlantis_fw/AsicFwS2/src/../include/matrix.h ****         tmp[7] = mat[11] * mat[12];
 5774              		.loc 1 1092 0
 5775 0058 4846     		mov	r0, r9
 5776              	.LVL840:
 5777 005a A047     		blx	r4
 5778              	.LVL841:
1093:/home/tienluong/workspace/atlantis_fw/AsicFwS2/src/../include/matrix.h ****         tmp[8] = mat[8] * mat[14];
 5779              		.loc 1 1093 0
 5780 005c 079A     		ldr	r2, [sp, #28]
 5781 005e 356B     		ldr	r5, [r6, #48]	@ float
 5782 0060 2946     		mov	r1, r5
1092:/home/tienluong/workspace/atlantis_fw/AsicFwS2/src/../include/matrix.h ****         tmp[7] = mat[11] * mat[12];
 5783              		.loc 1 1092 0
 5784 0062 0690     		str	r0, [sp, #24]	@ float
 5785              	.LVL842:
1093:/home/tienluong/workspace/atlantis_fw/AsicFwS2/src/../include/matrix.h ****         tmp[8] = mat[8] * mat[14];
 5786              		.loc 1 1093 0
 5787 0064 1046     		mov	r0, r2
 5788              	.LVL843:
 5789 0066 A047     		blx	r4
 5790              	.LVL844:
1094:/home/tienluong/workspace/atlantis_fw/AsicFwS2/src/../include/matrix.h ****         tmp[9] = mat[10] * mat[12];
 5791              		.loc 1 1094 0
 5792 0068 5946     		mov	r1, fp
1093:/home/tienluong/workspace/atlantis_fw/AsicFwS2/src/../include/matrix.h ****         tmp[8] = mat[8] * mat[14];
 5793              		.loc 1 1093 0
 5794 006a 0790     		str	r0, [sp, #28]	@ float
 5795              	.LVL845:
1094:/home/tienluong/workspace/atlantis_fw/AsicFwS2/src/../include/matrix.h ****         tmp[9] = mat[10] * mat[12];
 5796              		.loc 1 1094 0
 5797 006c 4846     		mov	r0, r9
 5798              	.LVL846:
 5799 006e A047     		blx	r4
 5800              	.LVL847:
1095:/home/tienluong/workspace/atlantis_fw/AsicFwS2/src/../include/matrix.h ****         tmp[10] = mat[8] * mat[13];
 5801              		.loc 1 1095 0
 5802 0070 2946     		mov	r1, r5
1094:/home/tienluong/workspace/atlantis_fw/AsicFwS2/src/../include/matrix.h ****         tmp[9] = mat[10] * mat[12];
 5803              		.loc 1 1094 0
 5804 0072 0890     		str	r0, [sp, #32]	@ float
1095:/home/tienluong/workspace/atlantis_fw/AsicFwS2/src/../include/matrix.h ****         tmp[10] = mat[8] * mat[13];
 5805              		.loc 1 1095 0
 5806 0074 5046     		mov	r0, r10
 5807 0076 A047     		blx	r4
 5808              	.LVL848:
1096:/home/tienluong/workspace/atlantis_fw/AsicFwS2/src/../include/matrix.h ****         tmp[11] = mat[9] * mat[12];
 5809              		.loc 1 1096 0
 5810 0078 4146     		mov	r1, r8
1095:/home/tienluong/workspace/atlantis_fw/AsicFwS2/src/../include/matrix.h ****         tmp[10] = mat[8] * mat[13];
 5811              		.loc 1 1095 0
 5812 007a 0990     		str	r0, [sp, #36]	@ float
1096:/home/tienluong/workspace/atlantis_fw/AsicFwS2/src/../include/matrix.h ****         tmp[11] = mat[9] * mat[12];
 5813              		.loc 1 1096 0
 5814 007c 4846     		mov	r0, r9
 5815 007e A047     		blx	r4
 5816              	.LVL849:
1097:/home/tienluong/workspace/atlantis_fw/AsicFwS2/src/../include/matrix.h **** 
 5817              		.loc 1 1097 0
 5818 0080 2946     		mov	r1, r5
1100:/home/tienluong/workspace/atlantis_fw/AsicFwS2/src/../include/matrix.h ****         dst[0] -= tmp[1] * mat[5] + tmp[2] * mat[6] + tmp[5]  * mat[7];
 5819              		.loc 1 1100 0
 5820 0082 664D     		ldr	r5, .L156+4
1096:/home/tienluong/workspace/atlantis_fw/AsicFwS2/src/../include/matrix.h ****         tmp[11] = mat[9] * mat[12];
 5821              		.loc 1 1096 0
 5822 0084 0A90     		str	r0, [sp, #40]	@ float
1097:/home/tienluong/workspace/atlantis_fw/AsicFwS2/src/../include/matrix.h **** 
 5823              		.loc 1 1097 0
 5824 0086 3846     		mov	r0, r7
 5825 0088 A047     		blx	r4
 5826              	.LVL850:
1100:/home/tienluong/workspace/atlantis_fw/AsicFwS2/src/../include/matrix.h ****         dst[0] -= tmp[1] * mat[5] + tmp[2] * mat[6] + tmp[5]  * mat[7];
 5827              		.loc 1 1100 0
 5828 008a D6F81480 		ldr	r8, [r6, #20]	@ float
 5829 008e 4146     		mov	r1, r8
 5830 0090 B769     		ldr	r7, [r6, #24]	@ float
 5831 0092 D6F81CA0 		ldr	r10, [r6, #28]	@ float
1102:/home/tienluong/workspace/atlantis_fw/AsicFwS2/src/../include/matrix.h ****         dst[1] -= tmp[0] * mat[4] + tmp[7] * mat[6] + tmp[8]  * mat[7];
 5832              		.loc 1 1102 0
 5833 0096 D6F81090 		ldr	r9, [r6, #16]	@ float
1097:/home/tienluong/workspace/atlantis_fw/AsicFwS2/src/../include/matrix.h **** 
 5834              		.loc 1 1097 0
 5835 009a 0B90     		str	r0, [sp, #44]	@ float
 5836              	.LVL851:
1100:/home/tienluong/workspace/atlantis_fw/AsicFwS2/src/../include/matrix.h ****         dst[0] -= tmp[1] * mat[5] + tmp[2] * mat[6] + tmp[5]  * mat[7];
 5837              		.loc 1 1100 0
 5838 009c 0098     		ldr	r0, [sp]	@ float
 5839              	.LVL852:
 5840 009e A047     		blx	r4
 5841              	.LVL853:
 5842 00a0 3946     		mov	r1, r7
 5843 00a2 0C90     		str	r0, [sp, #48]
 5844 00a4 0398     		ldr	r0, [sp, #12]	@ float
 5845 00a6 A047     		blx	r4
 5846              	.LVL854:
 5847 00a8 0C9B     		ldr	r3, [sp, #48]
 5848 00aa 0146     		mov	r1, r0
 5849 00ac 1846     		mov	r0, r3
 5850 00ae A847     		blx	r5
 5851              	.LVL855:
 5852 00b0 5146     		mov	r1, r10
 5853 00b2 0C90     		str	r0, [sp, #48]
 5854 00b4 0498     		ldr	r0, [sp, #16]	@ float
 5855 00b6 A047     		blx	r4
 5856              	.LVL856:
 5857 00b8 0C9B     		ldr	r3, [sp, #48]
 5858 00ba 0146     		mov	r1, r0
 5859 00bc 1846     		mov	r0, r3
 5860 00be A847     		blx	r5
 5861              	.LVL857:
1101:/home/tienluong/workspace/atlantis_fw/AsicFwS2/src/../include/matrix.h ****         dst[1]  = tmp[1] * mat[4] + tmp[6] * mat[6] + tmp[9]  * mat[7];
 5862              		.loc 1 1101 0
 5863 00c0 4146     		mov	r1, r8
1100:/home/tienluong/workspace/atlantis_fw/AsicFwS2/src/../include/matrix.h ****         dst[0] -= tmp[1] * mat[5] + tmp[2] * mat[6] + tmp[5]  * mat[7];
 5864              		.loc 1 1100 0
 5865 00c2 0D90     		str	r0, [sp, #52]
1101:/home/tienluong/workspace/atlantis_fw/AsicFwS2/src/../include/matrix.h ****         dst[1]  = tmp[1] * mat[4] + tmp[6] * mat[6] + tmp[9]  * mat[7];
 5866              		.loc 1 1101 0
 5867 00c4 0198     		ldr	r0, [sp, #4]	@ float
 5868 00c6 A047     		blx	r4
 5869              	.LVL858:
 5870 00c8 3946     		mov	r1, r7
 5871 00ca 0C90     		str	r0, [sp, #48]
 5872 00cc 0298     		ldr	r0, [sp, #8]	@ float
 5873 00ce A047     		blx	r4
 5874              	.LVL859:
 5875 00d0 0C9A     		ldr	r2, [sp, #48]
 5876 00d2 0146     		mov	r1, r0
 5877 00d4 1046     		mov	r0, r2
 5878 00d6 A847     		blx	r5
 5879              	.LVL860:
 5880 00d8 5146     		mov	r1, r10
 5881 00da 0C90     		str	r0, [sp, #48]
 5882 00dc 0598     		ldr	r0, [sp, #20]	@ float
 5883 00de A047     		blx	r4
 5884              	.LVL861:
 5885 00e0 0C9A     		ldr	r2, [sp, #48]
 5886 00e2 0146     		mov	r1, r0
 5887 00e4 1046     		mov	r0, r2
 5888 00e6 A847     		blx	r5
 5889              	.LVL862:
 5890 00e8 0D9B     		ldr	r3, [sp, #52]
 5891 00ea 0146     		mov	r1, r0
 5892 00ec 1846     		mov	r0, r3
 5893 00ee 4C4B     		ldr	r3, .L156+8
 5894 00f0 9847     		blx	r3
 5895              	.LVL863:
1110:/home/tienluong/workspace/atlantis_fw/AsicFwS2/src/../include/matrix.h ****     }
 5896              		.loc 1 1110 0
 5897 00f2 3168     		ldr	r1, [r6]	@ float
 5898 00f4 A047     		blx	r4
 5899              	.LVL864:
1102:/home/tienluong/workspace/atlantis_fw/AsicFwS2/src/../include/matrix.h ****         dst[1] -= tmp[0] * mat[4] + tmp[7] * mat[6] + tmp[8]  * mat[7];
 5900              		.loc 1 1102 0
 5901 00f6 4946     		mov	r1, r9
1110:/home/tienluong/workspace/atlantis_fw/AsicFwS2/src/../include/matrix.h ****     }
 5902              		.loc 1 1110 0
 5903 00f8 0C90     		str	r0, [sp, #48]
1102:/home/tienluong/workspace/atlantis_fw/AsicFwS2/src/../include/matrix.h ****         dst[1] -= tmp[0] * mat[4] + tmp[7] * mat[6] + tmp[8]  * mat[7];
 5904              		.loc 1 1102 0
 5905 00fa 0198     		ldr	r0, [sp, #4]	@ float
 5906 00fc A047     		blx	r4
 5907              	.LVL865:
 5908 00fe 3946     		mov	r1, r7
 5909 0100 8346     		mov	fp, r0
 5910 0102 0698     		ldr	r0, [sp, #24]	@ float
 5911 0104 A047     		blx	r4
 5912              	.LVL866:
 5913 0106 0146     		mov	r1, r0
 5914 0108 5846     		mov	r0, fp
 5915 010a A847     		blx	r5
 5916              	.LVL867:
 5917 010c 5146     		mov	r1, r10
 5918 010e 8346     		mov	fp, r0
 5919 0110 0998     		ldr	r0, [sp, #36]	@ float
 5920 0112 A047     		blx	r4
 5921              	.LVL868:
 5922 0114 0146     		mov	r1, r0
 5923 0116 5846     		mov	r0, fp
 5924 0118 A847     		blx	r5
 5925              	.LVL869:
1103:/home/tienluong/workspace/atlantis_fw/AsicFwS2/src/../include/matrix.h ****         dst[2]  = tmp[2] * mat[4] + tmp[7] * mat[5] + tmp[10] * mat[7];
 5926              		.loc 1 1103 0
 5927 011a 4946     		mov	r1, r9
1102:/home/tienluong/workspace/atlantis_fw/AsicFwS2/src/../include/matrix.h ****         dst[1] -= tmp[0] * mat[4] + tmp[7] * mat[6] + tmp[8]  * mat[7];
 5928              		.loc 1 1102 0
 5929 011c 8346     		mov	fp, r0
1103:/home/tienluong/workspace/atlantis_fw/AsicFwS2/src/../include/matrix.h ****         dst[2]  = tmp[2] * mat[4] + tmp[7] * mat[5] + tmp[10] * mat[7];
 5930              		.loc 1 1103 0
 5931 011e 0098     		ldr	r0, [sp]	@ float
 5932 0120 A047     		blx	r4
 5933              	.LVL870:
 5934 0122 3946     		mov	r1, r7
 5935 0124 0090     		str	r0, [sp]
 5936              	.LVL871:
 5937 0126 0798     		ldr	r0, [sp, #28]	@ float
 5938 0128 A047     		blx	r4
 5939              	.LVL872:
 5940 012a 009A     		ldr	r2, [sp]
 5941 012c 0146     		mov	r1, r0
 5942 012e 1046     		mov	r0, r2
 5943 0130 A847     		blx	r5
 5944              	.LVL873:
 5945 0132 5146     		mov	r1, r10
 5946 0134 0090     		str	r0, [sp]
 5947 0136 0898     		ldr	r0, [sp, #32]	@ float
 5948 0138 A047     		blx	r4
 5949              	.LVL874:
 5950 013a 009A     		ldr	r2, [sp]
 5951 013c 0146     		mov	r1, r0
 5952 013e 1046     		mov	r0, r2
 5953 0140 A847     		blx	r5
 5954              	.LVL875:
 5955 0142 374B     		ldr	r3, .L156+8
 5956 0144 0146     		mov	r1, r0
 5957 0146 5846     		mov	r0, fp
 5958 0148 9847     		blx	r3
 5959              	.LVL876:
1110:/home/tienluong/workspace/atlantis_fw/AsicFwS2/src/../include/matrix.h ****     }
 5960              		.loc 1 1110 0
 5961 014a 7168     		ldr	r1, [r6, #4]	@ float
 5962 014c A047     		blx	r4
 5963              	.LVL877:
 5964 014e 0C9B     		ldr	r3, [sp, #48]
 5965 0150 0146     		mov	r1, r0
 5966 0152 1846     		mov	r0, r3
 5967 0154 A847     		blx	r5
 5968              	.LVL878:
1104:/home/tienluong/workspace/atlantis_fw/AsicFwS2/src/../include/matrix.h ****         dst[2] -= tmp[3] * mat[4] + tmp[6] * mat[5] + tmp[11] * mat[7];
 5969              		.loc 1 1104 0
 5970 0156 4946     		mov	r1, r9
1110:/home/tienluong/workspace/atlantis_fw/AsicFwS2/src/../include/matrix.h ****     }
 5971              		.loc 1 1110 0
 5972 0158 8346     		mov	fp, r0
1104:/home/tienluong/workspace/atlantis_fw/AsicFwS2/src/../include/matrix.h ****         dst[2] -= tmp[3] * mat[4] + tmp[6] * mat[5] + tmp[11] * mat[7];
 5973              		.loc 1 1104 0
 5974 015a 0298     		ldr	r0, [sp, #8]	@ float
 5975 015c A047     		blx	r4
 5976              	.LVL879:
 5977 015e 4146     		mov	r1, r8
 5978 0160 0090     		str	r0, [sp]
 5979 0162 0798     		ldr	r0, [sp, #28]	@ float
 5980 0164 A047     		blx	r4
 5981              	.LVL880:
 5982 0166 009B     		ldr	r3, [sp]
 5983 0168 0146     		mov	r1, r0
 5984 016a 1846     		mov	r0, r3
 5985 016c A847     		blx	r5
 5986              	.LVL881:
 5987 016e 5146     		mov	r1, r10
 5988 0170 0090     		str	r0, [sp]
 5989 0172 0A98     		ldr	r0, [sp, #40]	@ float
 5990 0174 A047     		blx	r4
 5991              	.LVL882:
 5992 0176 009B     		ldr	r3, [sp]
 5993 0178 0146     		mov	r1, r0
 5994 017a 1846     		mov	r0, r3
 5995 017c A847     		blx	r5
 5996              	.LVL883:
1105:/home/tienluong/workspace/atlantis_fw/AsicFwS2/src/../include/matrix.h ****         dst[3]  = tmp[5] * mat[4] + tmp[8] * mat[5] + tmp[11] * mat[6];
 5997              		.loc 1 1105 0
 5998 017e 4946     		mov	r1, r9
1104:/home/tienluong/workspace/atlantis_fw/AsicFwS2/src/../include/matrix.h ****         dst[2] -= tmp[3] * mat[4] + tmp[6] * mat[5] + tmp[11] * mat[7];
 5999              		.loc 1 1104 0
 6000 0180 0190     		str	r0, [sp, #4]
 6001              	.LVL884:
1105:/home/tienluong/workspace/atlantis_fw/AsicFwS2/src/../include/matrix.h ****         dst[3]  = tmp[5] * mat[4] + tmp[8] * mat[5] + tmp[11] * mat[6];
 6002              		.loc 1 1105 0
 6003 0182 0398     		ldr	r0, [sp, #12]	@ float
 6004 0184 A047     		blx	r4
 6005              	.LVL885:
 6006 0186 4146     		mov	r1, r8
 6007 0188 0090     		str	r0, [sp]
 6008 018a 0698     		ldr	r0, [sp, #24]	@ float
 6009 018c A047     		blx	r4
 6010              	.LVL886:
 6011 018e 009A     		ldr	r2, [sp]
 6012 0190 0146     		mov	r1, r0
 6013 0192 1046     		mov	r0, r2
 6014 0194 A847     		blx	r5
 6015              	.LVL887:
 6016 0196 5146     		mov	r1, r10
 6017 0198 0090     		str	r0, [sp]
 6018 019a 0B98     		ldr	r0, [sp, #44]	@ float
 6019 019c A047     		blx	r4
 6020              	.LVL888:
 6021 019e 009A     		ldr	r2, [sp]
 6022 01a0 0146     		mov	r1, r0
 6023 01a2 1046     		mov	r0, r2
 6024 01a4 A847     		blx	r5
 6025              	.LVL889:
 6026 01a6 019B     		ldr	r3, [sp, #4]
 6027 01a8 0146     		mov	r1, r0
 6028 01aa 1846     		mov	r0, r3
 6029 01ac 1C4B     		ldr	r3, .L156+8
 6030 01ae 9847     		blx	r3
 6031              	.LVL890:
1110:/home/tienluong/workspace/atlantis_fw/AsicFwS2/src/../include/matrix.h ****     }
 6032              		.loc 1 1110 0
 6033 01b0 B168     		ldr	r1, [r6, #8]	@ float
 6034 01b2 A047     		blx	r4
 6035              	.LVL891:
 6036 01b4 0146     		mov	r1, r0
 6037 01b6 5846     		mov	r0, fp
 6038 01b8 A847     		blx	r5
 6039              	.LVL892:
1106:/home/tienluong/workspace/atlantis_fw/AsicFwS2/src/../include/matrix.h ****         dst[3] -= tmp[4] * mat[4] + tmp[9] * mat[5] + tmp[10] * mat[6];
 6040              		.loc 1 1106 0
 6041 01ba 4946     		mov	r1, r9
1110:/home/tienluong/workspace/atlantis_fw/AsicFwS2/src/../include/matrix.h ****     }
 6042              		.loc 1 1110 0
 6043 01bc 8246     		mov	r10, r0
 6044              	.LVL893:
1106:/home/tienluong/workspace/atlantis_fw/AsicFwS2/src/../include/matrix.h ****         dst[3] -= tmp[4] * mat[4] + tmp[9] * mat[5] + tmp[10] * mat[6];
 6045              		.loc 1 1106 0
 6046 01be 0598     		ldr	r0, [sp, #20]	@ float
 6047 01c0 A047     		blx	r4
 6048              	.LVL894:
 6049 01c2 4146     		mov	r1, r8
 6050 01c4 8346     		mov	fp, r0
 6051 01c6 0898     		ldr	r0, [sp, #32]	@ float
 6052 01c8 A047     		blx	r4
 6053              	.LVL895:
 6054 01ca 0146     		mov	r1, r0
 6055 01cc 5846     		mov	r0, fp
 6056 01ce A847     		blx	r5
 6057              	.LVL896:
 6058 01d0 3946     		mov	r1, r7
 6059 01d2 8346     		mov	fp, r0
 6060 01d4 0B98     		ldr	r0, [sp, #44]	@ float
 6061 01d6 A047     		blx	r4
 6062              	.LVL897:
 6063 01d8 0146     		mov	r1, r0
 6064 01da 5846     		mov	r0, fp
 6065 01dc A847     		blx	r5
 6066              	.LVL898:
1107:/home/tienluong/workspace/atlantis_fw/AsicFwS2/src/../include/matrix.h **** 
 6067              		.loc 1 1107 0
 6068 01de 4946     		mov	r1, r9
1106:/home/tienluong/workspace/atlantis_fw/AsicFwS2/src/../include/matrix.h ****         dst[3] -= tmp[4] * mat[4] + tmp[9] * mat[5] + tmp[10] * mat[6];
 6069              		.loc 1 1106 0
 6070 01e0 8346     		mov	fp, r0
1107:/home/tienluong/workspace/atlantis_fw/AsicFwS2/src/../include/matrix.h **** 
 6071              		.loc 1 1107 0
 6072 01e2 0498     		ldr	r0, [sp, #16]	@ float
 6073 01e4 A047     		blx	r4
 6074              	.LVL899:
 6075 01e6 4146     		mov	r1, r8
 6076 01e8 8146     		mov	r9, r0
 6077              	.LVL900:
 6078 01ea 0998     		ldr	r0, [sp, #36]	@ float
 6079 01ec A047     		blx	r4
 6080              	.LVL901:
 6081 01ee 0146     		mov	r1, r0
 6082 01f0 4846     		mov	r0, r9
 6083 01f2 A847     		blx	r5
 6084              	.LVL902:
 6085 01f4 3946     		mov	r1, r7
 6086 01f6 8046     		mov	r8, r0
 6087 01f8 0A98     		ldr	r0, [sp, #40]	@ float
 6088 01fa A047     		blx	r4
 6089              	.LVL903:
 6090 01fc 0146     		mov	r1, r0
 6091 01fe 4046     		mov	r0, r8
 6092 0200 A847     		blx	r5
 6093              	.LVL904:
 6094 0202 074B     		ldr	r3, .L156+8
 6095 0204 0146     		mov	r1, r0
 6096 0206 5846     		mov	r0, fp
 6097 0208 9847     		blx	r3
 6098              	.LVL905:
1110:/home/tienluong/workspace/atlantis_fw/AsicFwS2/src/../include/matrix.h ****     }
 6099              		.loc 1 1110 0
 6100 020a F168     		ldr	r1, [r6, #12]	@ float
 6101 020c A047     		blx	r4
 6102              	.LVL906:
 6103 020e 0146     		mov	r1, r0
 6104 0210 5046     		mov	r0, r10
 6105 0212 A847     		blx	r5
 6106              	.LVL907:
 6107              	.LBE492:
1111:/home/tienluong/workspace/atlantis_fw/AsicFwS2/src/../include/matrix.h **** };
 6108              		.loc 1 1111 0
 6109 0214 0FB0     		add	sp, sp, #60
 6110              	.LCFI57:
 6111              		.cfi_def_cfa_offset 36
 6112              		@ sp needed
 6113 0216 05E0     		b	.L157
 6114              	.L158:
 6115              		.align	2
 6116              	.L156:
 6117 0218 00000000 		.word	__aeabi_fmul
 6118 021c 00000000 		.word	__aeabi_fadd
 6119 0220 00000000 		.word	__aeabi_fsub
 6120              	.L157:
 6121 0224 BDE8F08F 		pop	{r4, r5, r6, r7, r8, r9, r10, fp, pc}
 6122              		.cfi_endproc
 6123              	.LFE2719:
 6125              		.section	.text._ZN4ltaf11determinantIfLi4ELb1EEET_RKNS_6MatrixIS1_XT0_EXT0_EXT1_EEE,"axG",%progbit
 6126              		.align	1
 6127              		.weak	_ZN4ltaf11determinantIfLi4ELb1EEET_RKNS_6MatrixIS1_XT0_EXT0_EXT1_EEE
 6128              		.thumb
 6129              		.thumb_func
 6131              	_ZN4ltaf11determinantIfLi4ELb1EEET_RKNS_6MatrixIS1_XT0_EXT0_EXT1_EEE:
 6132              	.LFB2615:
1256:/home/tienluong/workspace/atlantis_fw/AsicFwS2/src/../include/matrix.h **** {
 6133              		.loc 1 1256 0
 6134              		.cfi_startproc
 6135              		@ args = 0, pretend = 0, frame = 8
 6136              		@ frame_needed = 0, uses_anonymous_args = 0
 6137              	.LVL908:
 6138 0000 07B5     		push	{r0, r1, r2, lr}
 6139              	.LCFI58:
 6140              		.cfi_def_cfa_offset 16
 6141              		.cfi_offset 14, -4
 6142              	.LBB493:
1259:/home/tienluong/workspace/atlantis_fw/AsicFwS2/src/../include/matrix.h **** }
 6143              		.loc 1 1259 0
 6144 0002 034B     		ldr	r3, .L160
 6145              	.LBE493:
1256:/home/tienluong/workspace/atlantis_fw/AsicFwS2/src/../include/matrix.h **** {
 6146              		.loc 1 1256 0
 6147 0004 0146     		mov	r1, r0
 6148              	.LVL909:
 6149              	.LBB494:
1259:/home/tienluong/workspace/atlantis_fw/AsicFwS2/src/../include/matrix.h **** }
 6150              		.loc 1 1259 0
 6151 0006 01A8     		add	r0, sp, #4
 6152              	.LVL910:
 6153 0008 9847     		blx	r3
 6154              	.LVL911:
 6155              	.LBE494:
 6156              		.loc 1 1260 0
 6157 000a 03B0     		add	sp, sp, #12
 6158              	.LCFI59:
 6159              		.cfi_def_cfa_offset 4
 6160              		@ sp needed
 6161 000c 5DF804FB 		ldr	pc, [sp], #4
 6162              	.L161:
 6163              		.align	2
 6164              	.L160:
 6165 0010 00000000 		.word	_ZNK4ltaf17MatrixDeterminantIfLi4EEclEPKf
 6166              		.cfi_endproc
 6167              	.LFE2615:
 6169              		.section	.text._ZN4ltaf11determinantIfLi4ELb0EEET_RKNS_6MatrixIS1_XT0_EXT0_EXT1_EEE,"axG",%progbit
 6170              		.align	1
 6171              		.weak	_ZN4ltaf11determinantIfLi4ELb0EEET_RKNS_6MatrixIS1_XT0_EXT0_EXT1_EEE
 6172              		.thumb
 6173              		.thumb_func
 6175              	_ZN4ltaf11determinantIfLi4ELb0EEET_RKNS_6MatrixIS1_XT0_EXT0_EXT1_EEE:
 6176              	.LFB2618:
1256:/home/tienluong/workspace/atlantis_fw/AsicFwS2/src/../include/matrix.h **** {
 6177              		.loc 1 1256 0
 6178              		.cfi_startproc
 6179              		@ args = 0, pretend = 0, frame = 8
 6180              		@ frame_needed = 0, uses_anonymous_args = 0
 6181              	.LVL912:
 6182 0000 07B5     		push	{r0, r1, r2, lr}
 6183              	.LCFI60:
 6184              		.cfi_def_cfa_offset 16
 6185              		.cfi_offset 14, -4
 6186              	.LBB495:
1259:/home/tienluong/workspace/atlantis_fw/AsicFwS2/src/../include/matrix.h **** }
 6187              		.loc 1 1259 0
 6188 0002 034B     		ldr	r3, .L163
 6189              	.LBE495:
1256:/home/tienluong/workspace/atlantis_fw/AsicFwS2/src/../include/matrix.h **** {
 6190              		.loc 1 1256 0
 6191 0004 0146     		mov	r1, r0
 6192              	.LVL913:
 6193              	.LBB496:
1259:/home/tienluong/workspace/atlantis_fw/AsicFwS2/src/../include/matrix.h **** }
 6194              		.loc 1 1259 0
 6195 0006 01A8     		add	r0, sp, #4
 6196              	.LVL914:
 6197 0008 9847     		blx	r3
 6198              	.LVL915:
 6199              	.LBE496:
 6200              		.loc 1 1260 0
 6201 000a 03B0     		add	sp, sp, #12
 6202              	.LCFI61:
 6203              		.cfi_def_cfa_offset 4
 6204              		@ sp needed
 6205 000c 5DF804FB 		ldr	pc, [sp], #4
 6206              	.L164:
 6207              		.align	2
 6208              	.L163:
 6209 0010 00000000 		.word	_ZNK4ltaf17MatrixDeterminantIfLi4EEclEPKf
 6210              		.cfi_endproc
 6211              	.LFE2618:
 6213              		.section	.text._ZNK4ltaf17MatrixDeterminantIdLi3EEclEPKd,"axG",%progbits,_ZNK4ltaf17MatrixDetermin
 6214              		.align	1
 6215              		.weak	_ZNK4ltaf17MatrixDeterminantIdLi3EEclEPKd
 6216              		.thumb
 6217              		.thumb_func
 6219              	_ZNK4ltaf17MatrixDeterminantIdLi3EEclEPKd:
 6220              	.LFB2726:
1069:/home/tienluong/workspace/atlantis_fw/AsicFwS2/src/../include/matrix.h ****     {
 6221              		.loc 1 1069 0
 6222              		.cfi_startproc
 6223              		@ args = 0, pretend = 0, frame = 48
 6224              		@ frame_needed = 0, uses_anonymous_args = 0
 6225              	.LVL916:
 6226 0000 2DE9F047 		push	{r4, r5, r6, r7, r8, r9, r10, lr}
 6227              	.LCFI62:
 6228              		.cfi_def_cfa_offset 32
 6229              		.cfi_offset 4, -32
 6230              		.cfi_offset 5, -28
 6231              		.cfi_offset 6, -24
 6232              		.cfi_offset 7, -20
 6233              		.cfi_offset 8, -16
 6234              		.cfi_offset 9, -12
 6235              		.cfi_offset 10, -8
 6236              		.cfi_offset 14, -4
 6237 0004 8CB0     		sub	sp, sp, #48
 6238              	.LCFI63:
 6239              		.cfi_def_cfa_offset 80
1073:/home/tienluong/workspace/atlantis_fw/AsicFwS2/src/../include/matrix.h ****     }
 6240              		.loc 1 1073 0
 6241 0006 D1E90823 		ldrd	r2, [r1, #32]
1069:/home/tienluong/workspace/atlantis_fw/AsicFwS2/src/../include/matrix.h ****     {
 6242              		.loc 1 1069 0
 6243 000a 0D46     		mov	r5, r1
1073:/home/tienluong/workspace/atlantis_fw/AsicFwS2/src/../include/matrix.h ****     }
 6244              		.loc 1 1073 0
 6245 000c CDE90023 		strd	r2, [sp]
 6246 0010 D1E90E23 		ldrd	r2, [r1, #56]
 6247 0014 CDE90223 		strd	r2, [sp, #8]
 6248 0018 D1E90A23 		ldrd	r2, [r1, #40]
 6249 001c CDE90423 		strd	r2, [sp, #16]
 6250 0020 D1E90623 		ldrd	r2, [r1, #24]
 6251 0024 D1E91089 		ldrd	r8, [r1, #64]
 6252 0028 CDE90623 		strd	r2, [sp, #24]
 6253 002c D1E90C23 		ldrd	r2, [r1, #48]
 6254 0030 294C     		ldr	r4, .L166
 6255 0032 CDE90823 		strd	r2, [sp, #32]
 6256 0036 4246     		mov	r2, r8
 6257 0038 DDE90001 		ldrd	r0, [sp]
 6258              	.LVL917:
 6259 003c 4B46     		mov	r3, r9
 6260 003e A047     		blx	r4
 6261              	.LVL918:
 6262 0040 DDE90423 		ldrd	r2, [sp, #16]
 6263 0044 DFF898A0 		ldr	r10, .L166+8
 6264 0048 0646     		mov	r6, r0
 6265 004a 0F46     		mov	r7, r1
 6266 004c DDE90201 		ldrd	r0, [sp, #8]
 6267 0050 A047     		blx	r4
 6268              	.LVL919:
 6269 0052 0246     		mov	r2, r0
 6270 0054 0B46     		mov	r3, r1
 6271 0056 3046     		mov	r0, r6
 6272 0058 3946     		mov	r1, r7
 6273 005a D047     		blx	r10
 6274              	.LVL920:
 6275 005c D5E90023 		ldrd	r2, [r5]
 6276 0060 A047     		blx	r4
 6277              	.LVL921:
 6278 0062 4246     		mov	r2, r8
 6279 0064 4B46     		mov	r3, r9
 6280 0066 CDE90A01 		strd	r0, [sp, #40]
 6281 006a DDE90601 		ldrd	r0, [sp, #24]
 6282 006e A047     		blx	r4
 6283              	.LVL922:
 6284 0070 DDE90823 		ldrd	r2, [sp, #32]
 6285 0074 0646     		mov	r6, r0
 6286 0076 0F46     		mov	r7, r1
 6287 0078 DDE90401 		ldrd	r0, [sp, #16]
 6288 007c A047     		blx	r4
 6289              	.LVL923:
 6290 007e 0246     		mov	r2, r0
 6291 0080 0B46     		mov	r3, r1
 6292 0082 3046     		mov	r0, r6
 6293 0084 3946     		mov	r1, r7
 6294 0086 D047     		blx	r10
 6295              	.LVL924:
 6296 0088 D5E90223 		ldrd	r2, [r5, #8]
 6297 008c A047     		blx	r4
 6298              	.LVL925:
 6299 008e 0246     		mov	r2, r0
 6300 0090 0B46     		mov	r3, r1
 6301 0092 DDE90A01 		ldrd	r0, [sp, #40]
 6302 0096 D047     		blx	r10
 6303              	.LVL926:
 6304 0098 DDE90223 		ldrd	r2, [sp, #8]
 6305 009c 0646     		mov	r6, r0
 6306 009e 0F46     		mov	r7, r1
 6307 00a0 DDE90601 		ldrd	r0, [sp, #24]
 6308 00a4 A047     		blx	r4
 6309              	.LVL927:
 6310 00a6 DDE90823 		ldrd	r2, [sp, #32]
 6311 00aa 8046     		mov	r8, r0
 6312 00ac 8946     		mov	r9, r1
 6313 00ae DDE90001 		ldrd	r0, [sp]
 6314 00b2 A047     		blx	r4
 6315              	.LVL928:
 6316 00b4 0246     		mov	r2, r0
 6317 00b6 0B46     		mov	r3, r1
 6318 00b8 4046     		mov	r0, r8
 6319 00ba 4946     		mov	r1, r9
 6320 00bc D047     		blx	r10
 6321              	.LVL929:
 6322 00be D5E90423 		ldrd	r2, [r5, #16]
 6323 00c2 A047     		blx	r4
 6324              	.LVL930:
 6325 00c4 054C     		ldr	r4, .L166+4
 6326 00c6 0246     		mov	r2, r0
 6327 00c8 0B46     		mov	r3, r1
 6328 00ca 3046     		mov	r0, r6
 6329 00cc 3946     		mov	r1, r7
 6330 00ce A047     		blx	r4
 6331              	.LVL931:
1074:/home/tienluong/workspace/atlantis_fw/AsicFwS2/src/../include/matrix.h **** };
 6332              		.loc 1 1074 0
 6333 00d0 0CB0     		add	sp, sp, #48
 6334              	.LCFI64:
 6335              		.cfi_def_cfa_offset 32
 6336              		@ sp needed
 6337 00d2 BDE8F087 		pop	{r4, r5, r6, r7, r8, r9, r10, pc}
 6338              	.LVL932:
 6339              	.L167:
 6340 00d6 00BF     		.align	2
 6341              	.L166:
 6342 00d8 00000000 		.word	__aeabi_dmul
 6343 00dc 00000000 		.word	__aeabi_dadd
 6344 00e0 00000000 		.word	__aeabi_dsub
 6345              		.cfi_endproc
 6346              	.LFE2726:
 6348              		.section	.text._ZN4ltaf11determinantIdLi3ELb1EEET_RKNS_6MatrixIS1_XT0_EXT0_EXT1_EEE,"axG",%progbit
 6349              		.align	1
 6350              		.weak	_ZN4ltaf11determinantIdLi3ELb1EEET_RKNS_6MatrixIS1_XT0_EXT0_EXT1_EEE
 6351              		.thumb
 6352              		.thumb_func
 6354              	_ZN4ltaf11determinantIdLi3ELb1EEET_RKNS_6MatrixIS1_XT0_EXT0_EXT1_EEE:
 6355              	.LFB2620:
1256:/home/tienluong/workspace/atlantis_fw/AsicFwS2/src/../include/matrix.h **** {
 6356              		.loc 1 1256 0
 6357              		.cfi_startproc
 6358              		@ args = 0, pretend = 0, frame = 8
 6359              		@ frame_needed = 0, uses_anonymous_args = 0
 6360              	.LVL933:
 6361 0000 07B5     		push	{r0, r1, r2, lr}
 6362              	.LCFI65:
 6363              		.cfi_def_cfa_offset 16
 6364              		.cfi_offset 14, -4
 6365              	.LBB497:
1259:/home/tienluong/workspace/atlantis_fw/AsicFwS2/src/../include/matrix.h **** }
 6366              		.loc 1 1259 0
 6367 0002 034B     		ldr	r3, .L169
 6368              	.LBE497:
1256:/home/tienluong/workspace/atlantis_fw/AsicFwS2/src/../include/matrix.h **** {
 6369              		.loc 1 1256 0
 6370 0004 0146     		mov	r1, r0
 6371              	.LVL934:
 6372              	.LBB498:
1259:/home/tienluong/workspace/atlantis_fw/AsicFwS2/src/../include/matrix.h **** }
 6373              		.loc 1 1259 0
 6374 0006 01A8     		add	r0, sp, #4
 6375              	.LVL935:
 6376 0008 9847     		blx	r3
 6377              	.LVL936:
 6378              	.LBE498:
 6379              		.loc 1 1260 0
 6380 000a 03B0     		add	sp, sp, #12
 6381              	.LCFI66:
 6382              		.cfi_def_cfa_offset 4
 6383              		@ sp needed
 6384 000c 5DF804FB 		ldr	pc, [sp], #4
 6385              	.L170:
 6386              		.align	2
 6387              	.L169:
 6388 0010 00000000 		.word	_ZNK4ltaf17MatrixDeterminantIdLi3EEclEPKd
 6389              		.cfi_endproc
 6390              	.LFE2620:
 6392              		.section	.text._ZN4ltaf11determinantIdLi3ELb0EEET_RKNS_6MatrixIS1_XT0_EXT0_EXT1_EEE,"axG",%progbit
 6393              		.align	1
 6394              		.weak	_ZN4ltaf11determinantIdLi3ELb0EEET_RKNS_6MatrixIS1_XT0_EXT0_EXT1_EEE
 6395              		.thumb
 6396              		.thumb_func
 6398              	_ZN4ltaf11determinantIdLi3ELb0EEET_RKNS_6MatrixIS1_XT0_EXT0_EXT1_EEE:
 6399              	.LFB2623:
1256:/home/tienluong/workspace/atlantis_fw/AsicFwS2/src/../include/matrix.h **** {
 6400              		.loc 1 1256 0
 6401              		.cfi_startproc
 6402              		@ args = 0, pretend = 0, frame = 8
 6403              		@ frame_needed = 0, uses_anonymous_args = 0
 6404              	.LVL937:
 6405 0000 07B5     		push	{r0, r1, r2, lr}
 6406              	.LCFI67:
 6407              		.cfi_def_cfa_offset 16
 6408              		.cfi_offset 14, -4
 6409              	.LBB499:
1259:/home/tienluong/workspace/atlantis_fw/AsicFwS2/src/../include/matrix.h **** }
 6410              		.loc 1 1259 0
 6411 0002 034B     		ldr	r3, .L172
 6412              	.LBE499:
1256:/home/tienluong/workspace/atlantis_fw/AsicFwS2/src/../include/matrix.h **** {
 6413              		.loc 1 1256 0
 6414 0004 0146     		mov	r1, r0
 6415              	.LVL938:
 6416              	.LBB500:
1259:/home/tienluong/workspace/atlantis_fw/AsicFwS2/src/../include/matrix.h **** }
 6417              		.loc 1 1259 0
 6418 0006 01A8     		add	r0, sp, #4
 6419              	.LVL939:
 6420 0008 9847     		blx	r3
 6421              	.LVL940:
 6422              	.LBE500:
 6423              		.loc 1 1260 0
 6424 000a 03B0     		add	sp, sp, #12
 6425              	.LCFI68:
 6426              		.cfi_def_cfa_offset 4
 6427              		@ sp needed
 6428 000c 5DF804FB 		ldr	pc, [sp], #4
 6429              	.L173:
 6430              		.align	2
 6431              	.L172:
 6432 0010 00000000 		.word	_ZNK4ltaf17MatrixDeterminantIdLi3EEclEPKd
 6433              		.cfi_endproc
 6434              	.LFE2623:
 6436              		.section	.text._ZNK4ltaf17MatrixDeterminantIdLi4EEclEPKd,"axG",%progbits,_ZNK4ltaf17MatrixDetermin
 6437              		.align	1
 6438              		.weak	_ZNK4ltaf17MatrixDeterminantIdLi4EEclEPKd
 6439              		.thumb
 6440              		.thumb_func
 6442              	_ZNK4ltaf17MatrixDeterminantIdLi4EEclEPKd:
 6443              	.LFB2728:
1080:/home/tienluong/workspace/atlantis_fw/AsicFwS2/src/../include/matrix.h ****     {
 6444              		.loc 1 1080 0
 6445              		.cfi_startproc
 6446              		@ args = 0, pretend = 0, frame = 128
 6447              		@ frame_needed = 0, uses_anonymous_args = 0
 6448              	.LVL941:
 6449 0000 2DE9F04F 		push	{r4, r5, r6, r7, r8, r9, r10, fp, lr}
 6450              	.LCFI69:
 6451              		.cfi_def_cfa_offset 36
 6452              		.cfi_offset 4, -36
 6453              		.cfi_offset 5, -32
 6454              		.cfi_offset 6, -28
 6455              		.cfi_offset 7, -24
 6456              		.cfi_offset 8, -20
 6457              		.cfi_offset 9, -16
 6458              		.cfi_offset 10, -12
 6459              		.cfi_offset 11, -8
 6460              		.cfi_offset 14, -4
 6461 0004 A1B0     		sub	sp, sp, #132
 6462              	.LCFI70:
 6463              		.cfi_def_cfa_offset 168
 6464              	.LBB501:
1086:/home/tienluong/workspace/atlantis_fw/AsicFwS2/src/../include/matrix.h ****         tmp[1] = mat[11] * mat[14];
 6465              		.loc 1 1086 0
 6466 0006 D1E91E67 		ldrd	r6, [r1, #120]
 6467              	.LBE501:
1080:/home/tienluong/workspace/atlantis_fw/AsicFwS2/src/../include/matrix.h ****     {
 6468              		.loc 1 1080 0
 6469 000a 8A46     		mov	r10, r1
 6470              	.LBB502:
1086:/home/tienluong/workspace/atlantis_fw/AsicFwS2/src/../include/matrix.h ****         tmp[1] = mat[11] * mat[14];
 6471              		.loc 1 1086 0
 6472 000c D1E91423 		ldrd	r2, [r1, #80]
 6473 0010 984C     		ldr	r4, .L175
 6474 0012 1046     		mov	r0, r2
 6475              	.LVL942:
 6476 0014 CDE90023 		strd	r2, [sp]
 6477 0018 1946     		mov	r1, r3
 6478              	.LVL943:
 6479 001a 3246     		mov	r2, r6
 6480 001c 3B46     		mov	r3, r7
 6481 001e A047     		blx	r4
 6482              	.LVL944:
1087:/home/tienluong/workspace/atlantis_fw/AsicFwS2/src/../include/matrix.h ****         tmp[2] = mat[9] * mat[15];
 6483              		.loc 1 1087 0
 6484 0020 DAE91623 		ldrd	r2, [r10, #88]
 6485 0024 CDE90223 		strd	r2, [sp, #8]
 6486 0028 DAE91C23 		ldrd	r2, [r10, #112]
 6487 002c CDE90423 		strd	r2, [sp, #16]
1100:/home/tienluong/workspace/atlantis_fw/AsicFwS2/src/../include/matrix.h ****         dst[0] -= tmp[1] * mat[5] + tmp[2] * mat[6] + tmp[5]  * mat[7];
 6488              		.loc 1 1100 0
 6489 0030 914D     		ldr	r5, .L175+4
1101:/home/tienluong/workspace/atlantis_fw/AsicFwS2/src/../include/matrix.h ****         dst[1]  = tmp[1] * mat[4] + tmp[6] * mat[6] + tmp[9]  * mat[7];
 6490              		.loc 1 1101 0
 6491 0032 DFF848B2 		ldr	fp, .L175+8
1086:/home/tienluong/workspace/atlantis_fw/AsicFwS2/src/../include/matrix.h ****         tmp[1] = mat[11] * mat[14];
 6492              		.loc 1 1086 0
 6493 0036 CDE90A01 		strd	r0, [sp, #40]
 6494              	.LVL945:
1087:/home/tienluong/workspace/atlantis_fw/AsicFwS2/src/../include/matrix.h ****         tmp[2] = mat[9] * mat[15];
 6495              		.loc 1 1087 0
 6496 003a DDE90201 		ldrd	r0, [sp, #8]
 6497              	.LVL946:
 6498 003e A047     		blx	r4
 6499              	.LVL947:
1088:/home/tienluong/workspace/atlantis_fw/AsicFwS2/src/../include/matrix.h ****         tmp[3] = mat[11] * mat[13];
 6500              		.loc 1 1088 0
 6501 0040 DAE91223 		ldrd	r2, [r10, #72]
 6502 0044 CDE90623 		strd	r2, [sp, #24]
1087:/home/tienluong/workspace/atlantis_fw/AsicFwS2/src/../include/matrix.h ****         tmp[2] = mat[9] * mat[15];
 6503              		.loc 1 1087 0
 6504 0048 CDE90C01 		strd	r0, [sp, #48]
 6505              	.LVL948:
1088:/home/tienluong/workspace/atlantis_fw/AsicFwS2/src/../include/matrix.h ****         tmp[3] = mat[11] * mat[13];
 6506              		.loc 1 1088 0
 6507 004c 1046     		mov	r0, r2
 6508              	.LVL949:
 6509 004e 1946     		mov	r1, r3
 6510 0050 3246     		mov	r2, r6
 6511 0052 3B46     		mov	r3, r7
 6512 0054 A047     		blx	r4
 6513              	.LVL950:
1089:/home/tienluong/workspace/atlantis_fw/AsicFwS2/src/../include/matrix.h ****         tmp[4] = mat[9] * mat[14];
 6514              		.loc 1 1089 0
 6515 0056 DAE91A23 		ldrd	r2, [r10, #104]
 6516 005a CDE90823 		strd	r2, [sp, #32]
1088:/home/tienluong/workspace/atlantis_fw/AsicFwS2/src/../include/matrix.h ****         tmp[3] = mat[11] * mat[13];
 6517              		.loc 1 1088 0
 6518 005e CDE90E01 		strd	r0, [sp, #56]
 6519              	.LVL951:
1089:/home/tienluong/workspace/atlantis_fw/AsicFwS2/src/../include/matrix.h ****         tmp[4] = mat[9] * mat[14];
 6520              		.loc 1 1089 0
 6521 0062 DDE90201 		ldrd	r0, [sp, #8]
 6522              	.LVL952:
 6523 0066 A047     		blx	r4
 6524              	.LVL953:
1090:/home/tienluong/workspace/atlantis_fw/AsicFwS2/src/../include/matrix.h ****         tmp[5] = mat[10] * mat[13];
 6525              		.loc 1 1090 0
 6526 0068 DDE90423 		ldrd	r2, [sp, #16]
1089:/home/tienluong/workspace/atlantis_fw/AsicFwS2/src/../include/matrix.h ****         tmp[4] = mat[9] * mat[14];
 6527              		.loc 1 1089 0
 6528 006c CDE91001 		strd	r0, [sp, #64]
 6529              	.LVL954:
1090:/home/tienluong/workspace/atlantis_fw/AsicFwS2/src/../include/matrix.h ****         tmp[5] = mat[10] * mat[13];
 6530              		.loc 1 1090 0
 6531 0070 DDE90601 		ldrd	r0, [sp, #24]
 6532              	.LVL955:
 6533 0074 A047     		blx	r4
 6534              	.LVL956:
1091:/home/tienluong/workspace/atlantis_fw/AsicFwS2/src/../include/matrix.h ****         tmp[6] = mat[8] * mat[15];
 6535              		.loc 1 1091 0
 6536 0076 DDE90823 		ldrd	r2, [sp, #32]
1090:/home/tienluong/workspace/atlantis_fw/AsicFwS2/src/../include/matrix.h ****         tmp[5] = mat[10] * mat[13];
 6537              		.loc 1 1090 0
 6538 007a CDE91201 		strd	r0, [sp, #72]
1091:/home/tienluong/workspace/atlantis_fw/AsicFwS2/src/../include/matrix.h ****         tmp[6] = mat[8] * mat[15];
 6539              		.loc 1 1091 0
 6540 007e DDE90001 		ldrd	r0, [sp]
 6541 0082 A047     		blx	r4
 6542              	.LVL957:
1092:/home/tienluong/workspace/atlantis_fw/AsicFwS2/src/../include/matrix.h ****         tmp[7] = mat[11] * mat[12];
 6543              		.loc 1 1092 0
 6544 0084 DAE91089 		ldrd	r8, [r10, #64]
 6545 0088 3246     		mov	r2, r6
 6546 008a 3B46     		mov	r3, r7
1091:/home/tienluong/workspace/atlantis_fw/AsicFwS2/src/../include/matrix.h ****         tmp[6] = mat[8] * mat[15];
 6547              		.loc 1 1091 0
 6548 008c CDE91401 		strd	r0, [sp, #80]
1092:/home/tienluong/workspace/atlantis_fw/AsicFwS2/src/../include/matrix.h ****         tmp[7] = mat[11] * mat[12];
 6549              		.loc 1 1092 0
 6550 0090 4046     		mov	r0, r8
 6551 0092 4946     		mov	r1, r9
 6552 0094 A047     		blx	r4
 6553              	.LVL958:
1093:/home/tienluong/workspace/atlantis_fw/AsicFwS2/src/../include/matrix.h ****         tmp[8] = mat[8] * mat[14];
 6554              		.loc 1 1093 0
 6555 0096 DAE91867 		ldrd	r6, [r10, #96]
 6556 009a 3246     		mov	r2, r6
 6557 009c 3B46     		mov	r3, r7
1092:/home/tienluong/workspace/atlantis_fw/AsicFwS2/src/../include/matrix.h ****         tmp[7] = mat[11] * mat[12];
 6558              		.loc 1 1092 0
 6559 009e CDE91601 		strd	r0, [sp, #88]
1093:/home/tienluong/workspace/atlantis_fw/AsicFwS2/src/../include/matrix.h ****         tmp[8] = mat[8] * mat[14];
 6560              		.loc 1 1093 0
 6561 00a2 DDE90201 		ldrd	r0, [sp, #8]
 6562 00a6 A047     		blx	r4
 6563              	.LVL959:
1094:/home/tienluong/workspace/atlantis_fw/AsicFwS2/src/../include/matrix.h ****         tmp[9] = mat[10] * mat[12];
 6564              		.loc 1 1094 0
 6565 00a8 DDE90423 		ldrd	r2, [sp, #16]
1093:/home/tienluong/workspace/atlantis_fw/AsicFwS2/src/../include/matrix.h ****         tmp[8] = mat[8] * mat[14];
 6566              		.loc 1 1093 0
 6567 00ac CDE91801 		strd	r0, [sp, #96]
1094:/home/tienluong/workspace/atlantis_fw/AsicFwS2/src/../include/matrix.h ****         tmp[9] = mat[10] * mat[12];
 6568              		.loc 1 1094 0
 6569 00b0 4046     		mov	r0, r8
 6570 00b2 4946     		mov	r1, r9
 6571 00b4 A047     		blx	r4
 6572              	.LVL960:
1095:/home/tienluong/workspace/atlantis_fw/AsicFwS2/src/../include/matrix.h ****         tmp[10] = mat[8] * mat[13];
 6573              		.loc 1 1095 0
 6574 00b6 3246     		mov	r2, r6
 6575 00b8 3B46     		mov	r3, r7
1094:/home/tienluong/workspace/atlantis_fw/AsicFwS2/src/../include/matrix.h ****         tmp[9] = mat[10] * mat[12];
 6576              		.loc 1 1094 0
 6577 00ba CDE91A01 		strd	r0, [sp, #104]
1095:/home/tienluong/workspace/atlantis_fw/AsicFwS2/src/../include/matrix.h ****         tmp[10] = mat[8] * mat[13];
 6578              		.loc 1 1095 0
 6579 00be DDE90001 		ldrd	r0, [sp]
 6580 00c2 A047     		blx	r4
 6581              	.LVL961:
1096:/home/tienluong/workspace/atlantis_fw/AsicFwS2/src/../include/matrix.h ****         tmp[11] = mat[9] * mat[12];
 6582              		.loc 1 1096 0
 6583 00c4 DDE90823 		ldrd	r2, [sp, #32]
1095:/home/tienluong/workspace/atlantis_fw/AsicFwS2/src/../include/matrix.h ****         tmp[10] = mat[8] * mat[13];
 6584              		.loc 1 1095 0
 6585 00c8 CDE91C01 		strd	r0, [sp, #112]
1096:/home/tienluong/workspace/atlantis_fw/AsicFwS2/src/../include/matrix.h ****         tmp[11] = mat[9] * mat[12];
 6586              		.loc 1 1096 0
 6587 00cc 4046     		mov	r0, r8
 6588 00ce 4946     		mov	r1, r9
 6589 00d0 A047     		blx	r4
 6590              	.LVL962:
1097:/home/tienluong/workspace/atlantis_fw/AsicFwS2/src/../include/matrix.h **** 
 6591              		.loc 1 1097 0
 6592 00d2 3246     		mov	r2, r6
 6593 00d4 3B46     		mov	r3, r7
1096:/home/tienluong/workspace/atlantis_fw/AsicFwS2/src/../include/matrix.h ****         tmp[11] = mat[9] * mat[12];
 6594              		.loc 1 1096 0
 6595 00d6 CDE90801 		strd	r0, [sp, #32]
1097:/home/tienluong/workspace/atlantis_fw/AsicFwS2/src/../include/matrix.h **** 
 6596              		.loc 1 1097 0
 6597 00da DDE90601 		ldrd	r0, [sp, #24]
 6598 00de A047     		blx	r4
 6599              	.LVL963:
1100:/home/tienluong/workspace/atlantis_fw/AsicFwS2/src/../include/matrix.h ****         dst[0] -= tmp[1] * mat[5] + tmp[2] * mat[6] + tmp[5]  * mat[7];
 6600              		.loc 1 1100 0
 6601 00e0 DAE90A23 		ldrd	r2, [r10, #40]
1097:/home/tienluong/workspace/atlantis_fw/AsicFwS2/src/../include/matrix.h **** 
 6602              		.loc 1 1097 0
 6603 00e4 CDE90601 		strd	r0, [sp, #24]
1100:/home/tienluong/workspace/atlantis_fw/AsicFwS2/src/../include/matrix.h ****         dst[0] -= tmp[1] * mat[5] + tmp[2] * mat[6] + tmp[5]  * mat[7];
 6604              		.loc 1 1100 0
 6605 00e8 CDE90023 		strd	r2, [sp]
 6606 00ec DAE90C23 		ldrd	r2, [r10, #48]
 6607 00f0 CDE90223 		strd	r2, [sp, #8]
1102:/home/tienluong/workspace/atlantis_fw/AsicFwS2/src/../include/matrix.h ****         dst[1] -= tmp[0] * mat[4] + tmp[7] * mat[6] + tmp[8]  * mat[7];
 6608              		.loc 1 1102 0
 6609 00f4 DAE90823 		ldrd	r2, [r10, #32]
 6610 00f8 CDE90423 		strd	r2, [sp, #16]
1100:/home/tienluong/workspace/atlantis_fw/AsicFwS2/src/../include/matrix.h ****         dst[0] -= tmp[1] * mat[5] + tmp[2] * mat[6] + tmp[5]  * mat[7];
 6611              		.loc 1 1100 0
 6612 00fc DDE90A01 		ldrd	r0, [sp, #40]
 6613 0100 DDE90023 		ldrd	r2, [sp]
 6614 0104 A047     		blx	r4
 6615              	.LVL964:
 6616 0106 DDE90223 		ldrd	r2, [sp, #8]
 6617 010a DAE90E89 		ldrd	r8, [r10, #56]
 6618              	.LVL965:
 6619 010e 0646     		mov	r6, r0
 6620 0110 0F46     		mov	r7, r1
 6621 0112 DDE91001 		ldrd	r0, [sp, #64]
 6622 0116 A047     		blx	r4
 6623              	.LVL966:
 6624 0118 0246     		mov	r2, r0
 6625 011a 0B46     		mov	r3, r1
 6626 011c 3046     		mov	r0, r6
 6627 011e 3946     		mov	r1, r7
 6628 0120 A847     		blx	r5
 6629              	.LVL967:
 6630 0122 4246     		mov	r2, r8
 6631 0124 4B46     		mov	r3, r9
 6632 0126 0646     		mov	r6, r0
 6633 0128 0F46     		mov	r7, r1
 6634 012a DDE91201 		ldrd	r0, [sp, #72]
 6635 012e A047     		blx	r4
 6636              	.LVL968:
 6637 0130 0246     		mov	r2, r0
 6638 0132 0B46     		mov	r3, r1
 6639 0134 3046     		mov	r0, r6
 6640 0136 3946     		mov	r1, r7
 6641 0138 A847     		blx	r5
 6642              	.LVL969:
1101:/home/tienluong/workspace/atlantis_fw/AsicFwS2/src/../include/matrix.h ****         dst[1]  = tmp[1] * mat[4] + tmp[6] * mat[6] + tmp[9]  * mat[7];
 6643              		.loc 1 1101 0
 6644 013a DDE90023 		ldrd	r2, [sp]
1100:/home/tienluong/workspace/atlantis_fw/AsicFwS2/src/../include/matrix.h ****         dst[0] -= tmp[1] * mat[5] + tmp[2] * mat[6] + tmp[5]  * mat[7];
 6645              		.loc 1 1100 0
 6646 013e CDE91E01 		strd	r0, [sp, #120]
1101:/home/tienluong/workspace/atlantis_fw/AsicFwS2/src/../include/matrix.h ****         dst[1]  = tmp[1] * mat[4] + tmp[6] * mat[6] + tmp[9]  * mat[7];
 6647              		.loc 1 1101 0
 6648 0142 DDE90C01 		ldrd	r0, [sp, #48]
 6649 0146 A047     		blx	r4
 6650              	.LVL970:
 6651 0148 DDE90223 		ldrd	r2, [sp, #8]
 6652 014c 0646     		mov	r6, r0
 6653 014e 0F46     		mov	r7, r1
 6654 0150 DDE90E01 		ldrd	r0, [sp, #56]
 6655 0154 A047     		blx	r4
 6656              	.LVL971:
 6657 0156 0246     		mov	r2, r0
 6658 0158 0B46     		mov	r3, r1
 6659 015a 3046     		mov	r0, r6
 6660 015c 3946     		mov	r1, r7
 6661 015e A847     		blx	r5
 6662              	.LVL972:
 6663 0160 4246     		mov	r2, r8
 6664 0162 4B46     		mov	r3, r9
 6665 0164 0646     		mov	r6, r0
 6666 0166 0F46     		mov	r7, r1
 6667 0168 DDE91401 		ldrd	r0, [sp, #80]
 6668 016c A047     		blx	r4
 6669              	.LVL973:
 6670 016e 0246     		mov	r2, r0
 6671 0170 0B46     		mov	r3, r1
 6672 0172 3046     		mov	r0, r6
 6673 0174 3946     		mov	r1, r7
 6674 0176 A847     		blx	r5
 6675              	.LVL974:
 6676 0178 0246     		mov	r2, r0
 6677 017a 0B46     		mov	r3, r1
 6678 017c DDE91E01 		ldrd	r0, [sp, #120]
 6679 0180 D847     		blx	fp
 6680              	.LVL975:
1110:/home/tienluong/workspace/atlantis_fw/AsicFwS2/src/../include/matrix.h ****     }
 6681              		.loc 1 1110 0
 6682 0182 DAE90023 		ldrd	r2, [r10]
 6683 0186 A047     		blx	r4
 6684              	.LVL976:
1102:/home/tienluong/workspace/atlantis_fw/AsicFwS2/src/../include/matrix.h ****         dst[1] -= tmp[0] * mat[4] + tmp[7] * mat[6] + tmp[8]  * mat[7];
 6685              		.loc 1 1102 0
 6686 0188 DDE90423 		ldrd	r2, [sp, #16]
1110:/home/tienluong/workspace/atlantis_fw/AsicFwS2/src/../include/matrix.h ****     }
 6687              		.loc 1 1110 0
 6688 018c CDE91E01 		strd	r0, [sp, #120]
1102:/home/tienluong/workspace/atlantis_fw/AsicFwS2/src/../include/matrix.h ****         dst[1] -= tmp[0] * mat[4] + tmp[7] * mat[6] + tmp[8]  * mat[7];
 6689              		.loc 1 1102 0
 6690 0190 DDE90C01 		ldrd	r0, [sp, #48]
 6691 0194 A047     		blx	r4
 6692              	.LVL977:
 6693 0196 DDE90223 		ldrd	r2, [sp, #8]
 6694 019a 0646     		mov	r6, r0
 6695 019c 0F46     		mov	r7, r1
 6696 019e DDE91601 		ldrd	r0, [sp, #88]
 6697 01a2 A047     		blx	r4
 6698              	.LVL978:
 6699 01a4 0246     		mov	r2, r0
 6700 01a6 0B46     		mov	r3, r1
 6701 01a8 3046     		mov	r0, r6
 6702 01aa 3946     		mov	r1, r7
 6703 01ac A847     		blx	r5
 6704              	.LVL979:
 6705 01ae 4246     		mov	r2, r8
 6706 01b0 4B46     		mov	r3, r9
 6707 01b2 0646     		mov	r6, r0
 6708 01b4 0F46     		mov	r7, r1
 6709 01b6 DDE91C01 		ldrd	r0, [sp, #112]
 6710 01ba A047     		blx	r4
 6711              	.LVL980:
 6712 01bc 0246     		mov	r2, r0
 6713 01be 0B46     		mov	r3, r1
 6714 01c0 3046     		mov	r0, r6
 6715 01c2 3946     		mov	r1, r7
 6716 01c4 A847     		blx	r5
 6717              	.LVL981:
1103:/home/tienluong/workspace/atlantis_fw/AsicFwS2/src/../include/matrix.h ****         dst[2]  = tmp[2] * mat[4] + tmp[7] * mat[5] + tmp[10] * mat[7];
 6718              		.loc 1 1103 0
 6719 01c6 DDE90423 		ldrd	r2, [sp, #16]
1102:/home/tienluong/workspace/atlantis_fw/AsicFwS2/src/../include/matrix.h ****         dst[1] -= tmp[0] * mat[4] + tmp[7] * mat[6] + tmp[8]  * mat[7];
 6720              		.loc 1 1102 0
 6721 01ca CDE90C01 		strd	r0, [sp, #48]
 6722              	.LVL982:
1103:/home/tienluong/workspace/atlantis_fw/AsicFwS2/src/../include/matrix.h ****         dst[2]  = tmp[2] * mat[4] + tmp[7] * mat[5] + tmp[10] * mat[7];
 6723              		.loc 1 1103 0
 6724 01ce DDE90A01 		ldrd	r0, [sp, #40]
 6725 01d2 A047     		blx	r4
 6726              	.LVL983:
 6727 01d4 DDE90223 		ldrd	r2, [sp, #8]
 6728 01d8 0646     		mov	r6, r0
 6729 01da 0F46     		mov	r7, r1
 6730 01dc DDE91801 		ldrd	r0, [sp, #96]
 6731 01e0 A047     		blx	r4
 6732              	.LVL984:
 6733 01e2 0246     		mov	r2, r0
 6734 01e4 0B46     		mov	r3, r1
 6735 01e6 3046     		mov	r0, r6
 6736 01e8 3946     		mov	r1, r7
 6737 01ea A847     		blx	r5
 6738              	.LVL985:
 6739 01ec 4246     		mov	r2, r8
 6740 01ee 4B46     		mov	r3, r9
 6741 01f0 0646     		mov	r6, r0
 6742 01f2 0F46     		mov	r7, r1
 6743 01f4 DDE91A01 		ldrd	r0, [sp, #104]
 6744 01f8 A047     		blx	r4
 6745              	.LVL986:
 6746 01fa 0246     		mov	r2, r0
 6747 01fc 0B46     		mov	r3, r1
 6748 01fe 3046     		mov	r0, r6
 6749 0200 3946     		mov	r1, r7
 6750 0202 A847     		blx	r5
 6751              	.LVL987:
 6752 0204 0246     		mov	r2, r0
 6753 0206 0B46     		mov	r3, r1
 6754 0208 DDE90C01 		ldrd	r0, [sp, #48]
 6755 020c D847     		blx	fp
 6756              	.LVL988:
1110:/home/tienluong/workspace/atlantis_fw/AsicFwS2/src/../include/matrix.h ****     }
 6757              		.loc 1 1110 0
 6758 020e DAE90223 		ldrd	r2, [r10, #8]
 6759 0212 A047     		blx	r4
 6760              	.LVL989:
 6761 0214 0246     		mov	r2, r0
 6762 0216 0B46     		mov	r3, r1
 6763 0218 DDE91E01 		ldrd	r0, [sp, #120]
 6764 021c A847     		blx	r5
 6765              	.LVL990:
1104:/home/tienluong/workspace/atlantis_fw/AsicFwS2/src/../include/matrix.h ****         dst[2] -= tmp[3] * mat[4] + tmp[6] * mat[5] + tmp[11] * mat[7];
 6766              		.loc 1 1104 0
 6767 021e DDE90423 		ldrd	r2, [sp, #16]
1110:/home/tienluong/workspace/atlantis_fw/AsicFwS2/src/../include/matrix.h ****     }
 6768              		.loc 1 1110 0
 6769 0222 CDE90A01 		strd	r0, [sp, #40]
 6770              	.LVL991:
1104:/home/tienluong/workspace/atlantis_fw/AsicFwS2/src/../include/matrix.h ****         dst[2] -= tmp[3] * mat[4] + tmp[6] * mat[5] + tmp[11] * mat[7];
 6771              		.loc 1 1104 0
 6772 0226 DDE90E01 		ldrd	r0, [sp, #56]
 6773 022a A047     		blx	r4
 6774              	.LVL992:
 6775 022c DDE90023 		ldrd	r2, [sp]
 6776 0230 0646     		mov	r6, r0
 6777 0232 0F46     		mov	r7, r1
 6778 0234 DDE91801 		ldrd	r0, [sp, #96]
 6779 0238 A047     		blx	r4
 6780              	.LVL993:
 6781 023a 0246     		mov	r2, r0
 6782 023c 0B46     		mov	r3, r1
 6783 023e 3046     		mov	r0, r6
 6784 0240 3946     		mov	r1, r7
 6785 0242 A847     		blx	r5
 6786              	.LVL994:
 6787 0244 4246     		mov	r2, r8
 6788 0246 4B46     		mov	r3, r9
 6789 0248 0646     		mov	r6, r0
 6790 024a 0F46     		mov	r7, r1
 6791 024c DDE90801 		ldrd	r0, [sp, #32]
 6792 0250 A047     		blx	r4
 6793              	.LVL995:
 6794 0252 0246     		mov	r2, r0
 6795 0254 0B46     		mov	r3, r1
 6796 0256 3046     		mov	r0, r6
 6797 0258 3946     		mov	r1, r7
 6798 025a A847     		blx	r5
 6799              	.LVL996:
1105:/home/tienluong/workspace/atlantis_fw/AsicFwS2/src/../include/matrix.h ****         dst[3]  = tmp[5] * mat[4] + tmp[8] * mat[5] + tmp[11] * mat[6];
 6800              		.loc 1 1105 0
 6801 025c DDE90423 		ldrd	r2, [sp, #16]
1104:/home/tienluong/workspace/atlantis_fw/AsicFwS2/src/../include/matrix.h ****         dst[2] -= tmp[3] * mat[4] + tmp[6] * mat[5] + tmp[11] * mat[7];
 6802              		.loc 1 1104 0
 6803 0260 CDE90C01 		strd	r0, [sp, #48]
1105:/home/tienluong/workspace/atlantis_fw/AsicFwS2/src/../include/matrix.h ****         dst[3]  = tmp[5] * mat[4] + tmp[8] * mat[5] + tmp[11] * mat[6];
 6804              		.loc 1 1105 0
 6805 0264 DDE91001 		ldrd	r0, [sp, #64]
 6806 0268 A047     		blx	r4
 6807              	.LVL997:
 6808 026a DDE90023 		ldrd	r2, [sp]
 6809 026e 0646     		mov	r6, r0
 6810 0270 0F46     		mov	r7, r1
 6811 0272 05E0     		b	.L176
 6812              	.L177:
 6813              		.align	2
 6814              	.L175:
 6815 0274 00000000 		.word	__aeabi_dmul
 6816 0278 00000000 		.word	__aeabi_dadd
 6817 027c 00000000 		.word	__aeabi_dsub
 6818              	.L176:
 6819 0280 DDE91601 		ldrd	r0, [sp, #88]
 6820 0284 A047     		blx	r4
 6821              	.LVL998:
 6822 0286 0246     		mov	r2, r0
 6823 0288 0B46     		mov	r3, r1
 6824 028a 3046     		mov	r0, r6
 6825 028c 3946     		mov	r1, r7
 6826 028e A847     		blx	r5
 6827              	.LVL999:
 6828 0290 4246     		mov	r2, r8
 6829 0292 4B46     		mov	r3, r9
 6830 0294 0646     		mov	r6, r0
 6831 0296 0F46     		mov	r7, r1
 6832 0298 DDE90601 		ldrd	r0, [sp, #24]
 6833 029c A047     		blx	r4
 6834              	.LVL1000:
 6835 029e 0246     		mov	r2, r0
 6836 02a0 0B46     		mov	r3, r1
 6837 02a2 3046     		mov	r0, r6
 6838 02a4 3946     		mov	r1, r7
 6839 02a6 A847     		blx	r5
 6840              	.LVL1001:
 6841 02a8 0246     		mov	r2, r0
 6842 02aa 0B46     		mov	r3, r1
 6843 02ac DDE90C01 		ldrd	r0, [sp, #48]
 6844 02b0 D847     		blx	fp
 6845              	.LVL1002:
1110:/home/tienluong/workspace/atlantis_fw/AsicFwS2/src/../include/matrix.h ****     }
 6846              		.loc 1 1110 0
 6847 02b2 DAE90423 		ldrd	r2, [r10, #16]
 6848 02b6 A047     		blx	r4
 6849              	.LVL1003:
 6850 02b8 0246     		mov	r2, r0
 6851 02ba 0B46     		mov	r3, r1
 6852 02bc DDE90A01 		ldrd	r0, [sp, #40]
 6853 02c0 A847     		blx	r5
 6854              	.LVL1004:
1106:/home/tienluong/workspace/atlantis_fw/AsicFwS2/src/../include/matrix.h ****         dst[3] -= tmp[4] * mat[4] + tmp[9] * mat[5] + tmp[10] * mat[6];
 6855              		.loc 1 1106 0
 6856 02c2 DDE90423 		ldrd	r2, [sp, #16]
1110:/home/tienluong/workspace/atlantis_fw/AsicFwS2/src/../include/matrix.h ****     }
 6857              		.loc 1 1110 0
 6858 02c6 CDE90A01 		strd	r0, [sp, #40]
1106:/home/tienluong/workspace/atlantis_fw/AsicFwS2/src/../include/matrix.h ****         dst[3] -= tmp[4] * mat[4] + tmp[9] * mat[5] + tmp[10] * mat[6];
 6859              		.loc 1 1106 0
 6860 02ca DDE91401 		ldrd	r0, [sp, #80]
 6861 02ce A047     		blx	r4
 6862              	.LVL1005:
 6863 02d0 DDE90023 		ldrd	r2, [sp]
 6864 02d4 0646     		mov	r6, r0
 6865 02d6 0F46     		mov	r7, r1
 6866 02d8 DDE91A01 		ldrd	r0, [sp, #104]
 6867 02dc A047     		blx	r4
 6868              	.LVL1006:
 6869 02de 0246     		mov	r2, r0
 6870 02e0 0B46     		mov	r3, r1
 6871 02e2 3046     		mov	r0, r6
 6872 02e4 3946     		mov	r1, r7
 6873 02e6 A847     		blx	r5
 6874              	.LVL1007:
 6875 02e8 DDE90223 		ldrd	r2, [sp, #8]
 6876 02ec 0646     		mov	r6, r0
 6877 02ee 0F46     		mov	r7, r1
 6878 02f0 DDE90601 		ldrd	r0, [sp, #24]
 6879 02f4 A047     		blx	r4
 6880              	.LVL1008:
 6881 02f6 0246     		mov	r2, r0
 6882 02f8 0B46     		mov	r3, r1
 6883 02fa 3046     		mov	r0, r6
 6884 02fc 3946     		mov	r1, r7
 6885 02fe A847     		blx	r5
 6886              	.LVL1009:
1107:/home/tienluong/workspace/atlantis_fw/AsicFwS2/src/../include/matrix.h **** 
 6887              		.loc 1 1107 0
 6888 0300 DDE90423 		ldrd	r2, [sp, #16]
1106:/home/tienluong/workspace/atlantis_fw/AsicFwS2/src/../include/matrix.h ****         dst[3] -= tmp[4] * mat[4] + tmp[9] * mat[5] + tmp[10] * mat[6];
 6889              		.loc 1 1106 0
 6890 0304 8046     		mov	r8, r0
 6891              	.LVL1010:
 6892 0306 8946     		mov	r9, r1
1107:/home/tienluong/workspace/atlantis_fw/AsicFwS2/src/../include/matrix.h **** 
 6893              		.loc 1 1107 0
 6894 0308 DDE91201 		ldrd	r0, [sp, #72]
 6895 030c A047     		blx	r4
 6896              	.LVL1011:
 6897 030e DDE90023 		ldrd	r2, [sp]
 6898 0312 0646     		mov	r6, r0
 6899 0314 0F46     		mov	r7, r1
 6900 0316 DDE91C01 		ldrd	r0, [sp, #112]
 6901 031a A047     		blx	r4
 6902              	.LVL1012:
 6903 031c 0246     		mov	r2, r0
 6904 031e 0B46     		mov	r3, r1
 6905 0320 3046     		mov	r0, r6
 6906 0322 3946     		mov	r1, r7
 6907 0324 A847     		blx	r5
 6908              	.LVL1013:
 6909 0326 0646     		mov	r6, r0
 6910 0328 0F46     		mov	r7, r1
 6911 032a DDE90801 		ldrd	r0, [sp, #32]
 6912 032e DDE90223 		ldrd	r2, [sp, #8]
 6913 0332 A047     		blx	r4
 6914              	.LVL1014:
 6915 0334 0246     		mov	r2, r0
 6916 0336 0B46     		mov	r3, r1
 6917 0338 3046     		mov	r0, r6
 6918 033a 3946     		mov	r1, r7
 6919 033c A847     		blx	r5
 6920              	.LVL1015:
 6921 033e 0246     		mov	r2, r0
 6922 0340 0B46     		mov	r3, r1
 6923 0342 4046     		mov	r0, r8
 6924 0344 4946     		mov	r1, r9
 6925 0346 D847     		blx	fp
 6926              	.LVL1016:
1110:/home/tienluong/workspace/atlantis_fw/AsicFwS2/src/../include/matrix.h ****     }
 6927              		.loc 1 1110 0
 6928 0348 DAE90623 		ldrd	r2, [r10, #24]
 6929 034c A047     		blx	r4
 6930              	.LVL1017:
 6931 034e 0246     		mov	r2, r0
 6932 0350 0B46     		mov	r3, r1
 6933 0352 DDE90A01 		ldrd	r0, [sp, #40]
 6934 0356 A847     		blx	r5
 6935              	.LVL1018:
 6936              	.LBE502:
1111:/home/tienluong/workspace/atlantis_fw/AsicFwS2/src/../include/matrix.h **** };
 6937              		.loc 1 1111 0
 6938 0358 21B0     		add	sp, sp, #132
 6939              	.LCFI71:
 6940              		.cfi_def_cfa_offset 36
 6941              	.LVL1019:
 6942              		@ sp needed
 6943 035a BDE8F08F 		pop	{r4, r5, r6, r7, r8, r9, r10, fp, pc}
 6944              		.cfi_endproc
 6945              	.LFE2728:
 6947 035e 00BF     		.section	.text._ZN4ltaf11determinantIdLi4ELb1EEET_RKNS_6MatrixIS1_XT0_EXT0_EXT1_EEE,"axG",%progbit
 6948              		.align	1
 6949              		.weak	_ZN4ltaf11determinantIdLi4ELb1EEET_RKNS_6MatrixIS1_XT0_EXT0_EXT1_EEE
 6950              		.thumb
 6951              		.thumb_func
 6953              	_ZN4ltaf11determinantIdLi4ELb1EEET_RKNS_6MatrixIS1_XT0_EXT0_EXT1_EEE:
 6954              	.LFB2621:
1256:/home/tienluong/workspace/atlantis_fw/AsicFwS2/src/../include/matrix.h **** {
 6955              		.loc 1 1256 0
 6956              		.cfi_startproc
 6957              		@ args = 0, pretend = 0, frame = 8
 6958              		@ frame_needed = 0, uses_anonymous_args = 0
 6959              	.LVL1020:
 6960 0000 07B5     		push	{r0, r1, r2, lr}
 6961              	.LCFI72:
 6962              		.cfi_def_cfa_offset 16
 6963              		.cfi_offset 14, -4
 6964              	.LBB503:
1259:/home/tienluong/workspace/atlantis_fw/AsicFwS2/src/../include/matrix.h **** }
 6965              		.loc 1 1259 0
 6966 0002 034B     		ldr	r3, .L179
 6967              	.LBE503:
1256:/home/tienluong/workspace/atlantis_fw/AsicFwS2/src/../include/matrix.h **** {
 6968              		.loc 1 1256 0
 6969 0004 0146     		mov	r1, r0
 6970              	.LVL1021:
 6971              	.LBB504:
1259:/home/tienluong/workspace/atlantis_fw/AsicFwS2/src/../include/matrix.h **** }
 6972              		.loc 1 1259 0
 6973 0006 01A8     		add	r0, sp, #4
 6974              	.LVL1022:
 6975 0008 9847     		blx	r3
 6976              	.LVL1023:
 6977              	.LBE504:
 6978              		.loc 1 1260 0
 6979 000a 03B0     		add	sp, sp, #12
 6980              	.LCFI73:
 6981              		.cfi_def_cfa_offset 4
 6982              		@ sp needed
 6983 000c 5DF804FB 		ldr	pc, [sp], #4
 6984              	.L180:
 6985              		.align	2
 6986              	.L179:
 6987 0010 00000000 		.word	_ZNK4ltaf17MatrixDeterminantIdLi4EEclEPKd
 6988              		.cfi_endproc
 6989              	.LFE2621:
 6991              		.section	.text._ZN4ltaf11determinantIdLi4ELb0EEET_RKNS_6MatrixIS1_XT0_EXT0_EXT1_EEE,"axG",%progbit
 6992              		.align	1
 6993              		.weak	_ZN4ltaf11determinantIdLi4ELb0EEET_RKNS_6MatrixIS1_XT0_EXT0_EXT1_EEE
 6994              		.thumb
 6995              		.thumb_func
 6997              	_ZN4ltaf11determinantIdLi4ELb0EEET_RKNS_6MatrixIS1_XT0_EXT0_EXT1_EEE:
 6998              	.LFB2624:
1256:/home/tienluong/workspace/atlantis_fw/AsicFwS2/src/../include/matrix.h **** {
 6999              		.loc 1 1256 0
 7000              		.cfi_startproc
 7001              		@ args = 0, pretend = 0, frame = 8
 7002              		@ frame_needed = 0, uses_anonymous_args = 0
 7003              	.LVL1024:
 7004 0000 07B5     		push	{r0, r1, r2, lr}
 7005              	.LCFI74:
 7006              		.cfi_def_cfa_offset 16
 7007              		.cfi_offset 14, -4
 7008              	.LBB505:
1259:/home/tienluong/workspace/atlantis_fw/AsicFwS2/src/../include/matrix.h **** }
 7009              		.loc 1 1259 0
 7010 0002 034B     		ldr	r3, .L182
 7011              	.LBE505:
1256:/home/tienluong/workspace/atlantis_fw/AsicFwS2/src/../include/matrix.h **** {
 7012              		.loc 1 1256 0
 7013 0004 0146     		mov	r1, r0
 7014              	.LVL1025:
 7015              	.LBB506:
1259:/home/tienluong/workspace/atlantis_fw/AsicFwS2/src/../include/matrix.h **** }
 7016              		.loc 1 1259 0
 7017 0006 01A8     		add	r0, sp, #4
 7018              	.LVL1026:
 7019 0008 9847     		blx	r3
 7020              	.LVL1027:
 7021              	.LBE506:
 7022              		.loc 1 1260 0
 7023 000a 03B0     		add	sp, sp, #12
 7024              	.LCFI75:
 7025              		.cfi_def_cfa_offset 4
 7026              		@ sp needed
 7027 000c 5DF804FB 		ldr	pc, [sp], #4
 7028              	.L183:
 7029              		.align	2
 7030              	.L182:
 7031 0010 00000000 		.word	_ZNK4ltaf17MatrixDeterminantIdLi4EEclEPKd
 7032              		.cfi_endproc
 7033              	.LFE2624:
 7035              		.section	.rodata._ZZNK4ltaf5Line2IfE7xGivenYEfE12__FUNCTION__,"a",%progbits
 7036              		.set	.LANCHOR0,. + 0
 7039              	_ZZNK4ltaf5Line2IfE7xGivenYEfE12__FUNCTION__:
 7040 0000 78476976 		.ascii	"xGivenY\000"
 7040      656E5900 
 7041              		.section	.rodata._ZZNK4ltaf5Line2IfE7yGivenXEfE12__FUNCTION__,"a",%progbits
 7042              		.set	.LANCHOR1,. + 0
 7045              	_ZZNK4ltaf5Line2IfE7yGivenXEfE12__FUNCTION__:
 7046 0000 79476976 		.ascii	"yGivenX\000"
 7046      656E5800 
 7047              		.text
 7048              	.Letext0:
 7049              		.file 5 "/opt/toolchains/gcc-arm-none-eabi-4_9-2015q1/arm-none-eabi/include/c++/4.9.3/cstdlib"
 7050              		.file 6 "/opt/toolchains/gcc-arm-none-eabi-4_9-2015q1/arm-none-eabi/include/c++/4.9.3/type_traits"
 7051              		.file 7 "/opt/toolchains/gcc-arm-none-eabi-4_9-2015q1/arm-none-eabi/include/c++/4.9.3/bits/excepti
 7052              		.file 8 "/opt/toolchains/gcc-arm-none-eabi-4_9-2015q1/arm-none-eabi/include/c++/4.9.3/arm-none-eab
 7053              		.file 9 "/opt/toolchains/gcc-arm-none-eabi-4_9-2015q1/arm-none-eabi/include/c++/4.9.3/bits/stl_pai
 7054              		.file 10 "/opt/toolchains/gcc-arm-none-eabi-4_9-2015q1/arm-none-eabi/include/c++/4.9.3/new"
 7055              		.file 11 "/opt/toolchains/gcc-arm-none-eabi-4_9-2015q1/arm-none-eabi/include/c++/4.9.3/cwchar"
 7056              		.file 12 "/opt/toolchains/gcc-arm-none-eabi-4_9-2015q1/arm-none-eabi/include/c++/4.9.3/cstdint"
 7057              		.file 13 "/opt/toolchains/gcc-arm-none-eabi-4_9-2015q1/arm-none-eabi/include/c++/4.9.3/clocale"
 7058              		.file 14 "/opt/toolchains/gcc-arm-none-eabi-4_9-2015q1/arm-none-eabi/include/c++/4.9.3/debug/debug
 7059              		.file 15 "/opt/toolchains/gcc-arm-none-eabi-4_9-2015q1/arm-none-eabi/include/c++/4.9.3/bits/random
 7060              		.file 16 "/opt/toolchains/gcc-arm-none-eabi-4_9-2015q1/arm-none-eabi/include/c++/4.9.3/bits/alloca
 7061              		.file 17 "/opt/toolchains/gcc-arm-none-eabi-4_9-2015q1/arm-none-eabi/include/c++/4.9.3/bits/ptr_tr
 7062              		.file 18 "/opt/toolchains/gcc-arm-none-eabi-4_9-2015q1/arm-none-eabi/include/c++/4.9.3/bits/alloc_
 7063              		.file 19 "/opt/toolchains/gcc-arm-none-eabi-4_9-2015q1/arm-none-eabi/include/c++/4.9.3/bits/stl_ve
 7064              		.file 20 "/opt/toolchains/gcc-arm-none-eabi-4_9-2015q1/arm-none-eabi/include/c++/4.9.3/bits/vector
 7065              		.file 21 "/opt/toolchains/gcc-arm-none-eabi-4_9-2015q1/arm-none-eabi/include/c++/4.9.3/initializer
 7066              		.file 22 "/opt/toolchains/gcc-arm-none-eabi-4_9-2015q1/arm-none-eabi/include/c++/4.9.3/bits/stl_it
 7067              		.file 23 "/opt/toolchains/gcc-arm-none-eabi-4_9-2015q1/arm-none-eabi/include/machine/_default_type
 7068              		.file 24 "/opt/toolchains/gcc-arm-none-eabi-4_9-2015q1/lib/gcc/arm-none-eabi/4.9.3/include/stddef.
 7069              		.file 25 "/opt/toolchains/gcc-arm-none-eabi-4_9-2015q1/lib/gcc/arm-none-eabi/4.9.3/include/stdarg.
 7070              		.file 26 "<built-in>"
 7071              		.file 27 "/opt/toolchains/gcc-arm-none-eabi-4_9-2015q1/arm-none-eabi/include/sys/lock.h"
 7072              		.file 28 "/opt/toolchains/gcc-arm-none-eabi-4_9-2015q1/arm-none-eabi/include/sys/_types.h"
 7073              		.file 29 "/opt/toolchains/gcc-arm-none-eabi-4_9-2015q1/arm-none-eabi/include/sys/reent.h"
 7074              		.file 30 "/opt/toolchains/gcc-arm-none-eabi-4_9-2015q1/arm-none-eabi/include/stdint.h"
 7075              		.file 31 "/opt/toolchains/gcc-arm-none-eabi-4_9-2015q1/arm-none-eabi/include/stdlib.h"
 7076              		.file 32 "/opt/toolchains/gcc-arm-none-eabi-4_9-2015q1/arm-none-eabi/include/c++/4.9.3/bits/cpp_ty
 7077              		.file 33 "/opt/toolchains/gcc-arm-none-eabi-4_9-2015q1/arm-none-eabi/include/c++/4.9.3/bits/predef
 7078              		.file 34 "/opt/toolchains/gcc-arm-none-eabi-4_9-2015q1/arm-none-eabi/include/c++/4.9.3/ext/numeric
 7079              		.file 35 "/opt/toolchains/gcc-arm-none-eabi-4_9-2015q1/arm-none-eabi/include/c++/4.9.3/ext/new_all
 7080              		.file 36 "/opt/toolchains/gcc-arm-none-eabi-4_9-2015q1/arm-none-eabi/include/c++/4.9.3/ext/alloc_t
 7081              		.file 37 "/opt/toolchains/gcc-arm-none-eabi-4_9-2015q1/arm-none-eabi/include/c++/4.9.3/bits/stl_it
 7082              		.file 38 "/opt/toolchains/gcc-arm-none-eabi-4_9-2015q1/arm-none-eabi/include/math.h"
 7083              		.file 39 "/opt/toolchains/gcc-arm-none-eabi-4_9-2015q1/arm-none-eabi/include/wchar.h"
 7084              		.file 40 "/opt/toolchains/gcc-arm-none-eabi-4_9-2015q1/arm-none-eabi/include/locale.h"
DEFINED SYMBOLS
                            *ABS*:00000000 line2.cpp
     /tmp/ccKPvBTS.s:22     .text._ZNK4ltaf20SquareMatrixInverterIfLi2EE3runEPf.isra.1:00000000 $t
     /tmp/ccKPvBTS.s:26     .text._ZNK4ltaf20SquareMatrixInverterIfLi2EE3runEPf.isra.1:00000000 _ZNK4ltaf20SquareMatrixInverterIfLi2EE3runEPf.isra.1
     /tmp/ccKPvBTS.s:127    .text._ZNK4ltaf20SquareMatrixInverterIfLi2EE3runEPf.isra.1:00000064 $d
     /tmp/ccKPvBTS.s:134    .text._ZN4ltaf7inverseIfLi2ELb1EEENS_6MatrixIT_XT0_EXT0_EXT1_EEERKS3_:00000000 $t
     /tmp/ccKPvBTS.s:139    .text._ZN4ltaf7inverseIfLi2ELb1EEENS_6MatrixIT_XT0_EXT0_EXT1_EEERKS3_:00000000 _ZN4ltaf7inverseIfLi2ELb1EEENS_6MatrixIT_XT0_EXT0_EXT1_EEERKS3_
     /tmp/ccKPvBTS.s:177    .text._ZN4ltaf7inverseIfLi2ELb1EEENS_6MatrixIT_XT0_EXT0_EXT1_EEERKS3_:00000014 $d
     /tmp/ccKPvBTS.s:182    .text._ZN4ltaf7inverseIfLi2ELb0EEENS_6MatrixIT_XT0_EXT0_EXT1_EEERKS3_:00000000 $t
     /tmp/ccKPvBTS.s:187    .text._ZN4ltaf7inverseIfLi2ELb0EEENS_6MatrixIT_XT0_EXT0_EXT1_EEERKS3_:00000000 _ZN4ltaf7inverseIfLi2ELb0EEENS_6MatrixIT_XT0_EXT0_EXT1_EEERKS3_
     /tmp/ccKPvBTS.s:225    .text._ZN4ltaf7inverseIfLi2ELb0EEENS_6MatrixIT_XT0_EXT0_EXT1_EEERKS3_:00000014 $d
     /tmp/ccKPvBTS.s:230    .text._ZN4ltaf11determinantIfLi2ELb1EEET_RKNS_6MatrixIS1_XT0_EXT0_EXT1_EEE:00000000 $t
     /tmp/ccKPvBTS.s:235    .text._ZN4ltaf11determinantIfLi2ELb1EEET_RKNS_6MatrixIS1_XT0_EXT0_EXT1_EEE:00000000 _ZN4ltaf11determinantIfLi2ELb1EEET_RKNS_6MatrixIS1_XT0_EXT0_EXT1_EEE
     /tmp/ccKPvBTS.s:280    .text._ZN4ltaf11determinantIfLi2ELb1EEET_RKNS_6MatrixIS1_XT0_EXT0_EXT1_EEE:00000020 $d
     /tmp/ccKPvBTS.s:286    .text._ZN4ltaf11determinantIfLi2ELb0EEET_RKNS_6MatrixIS1_XT0_EXT0_EXT1_EEE:00000000 $t
     /tmp/ccKPvBTS.s:291    .text._ZN4ltaf11determinantIfLi2ELb0EEET_RKNS_6MatrixIS1_XT0_EXT0_EXT1_EEE:00000000 _ZN4ltaf11determinantIfLi2ELb0EEET_RKNS_6MatrixIS1_XT0_EXT0_EXT1_EEE
     /tmp/ccKPvBTS.s:336    .text._ZN4ltaf11determinantIfLi2ELb0EEET_RKNS_6MatrixIS1_XT0_EXT0_EXT1_EEE:00000020 $d
     /tmp/ccKPvBTS.s:344    .text._ZN4ltaf11determinantIdLi2ELb1EEET_RKNS_6MatrixIS1_XT0_EXT0_EXT1_EEE:00000000 $t
     /tmp/ccKPvBTS.s:349    .text._ZN4ltaf11determinantIdLi2ELb1EEET_RKNS_6MatrixIS1_XT0_EXT0_EXT1_EEE:00000000 _ZN4ltaf11determinantIdLi2ELb1EEET_RKNS_6MatrixIS1_XT0_EXT0_EXT1_EEE
     /tmp/ccKPvBTS.s:399    .text._ZN4ltaf11determinantIdLi2ELb1EEET_RKNS_6MatrixIS1_XT0_EXT0_EXT1_EEE:0000002c $d
     /tmp/ccKPvBTS.s:405    .text._ZN4ltaf11determinantIdLi2ELb0EEET_RKNS_6MatrixIS1_XT0_EXT0_EXT1_EEE:00000000 $t
     /tmp/ccKPvBTS.s:410    .text._ZN4ltaf11determinantIdLi2ELb0EEET_RKNS_6MatrixIS1_XT0_EXT0_EXT1_EEE:00000000 _ZN4ltaf11determinantIdLi2ELb0EEET_RKNS_6MatrixIS1_XT0_EXT0_EXT1_EEE
     /tmp/ccKPvBTS.s:460    .text._ZN4ltaf11determinantIdLi2ELb0EEET_RKNS_6MatrixIS1_XT0_EXT0_EXT1_EEE:0000002c $d
     /tmp/ccKPvBTS.s:468    .text._ZNK4ltaf5Line2IfE7xGivenYEf:00000000 $t
     /tmp/ccKPvBTS.s:473    .text._ZNK4ltaf5Line2IfE7xGivenYEf:00000000 _ZNK4ltaf5Line2IfE7xGivenYEf
     /tmp/ccKPvBTS.s:543    .text._ZNK4ltaf5Line2IfE7xGivenYEf:00000038 $d
     /tmp/ccKPvBTS.s:554    .text._ZNK4ltaf5Line2IfE7yGivenXEf:00000000 $t
     /tmp/ccKPvBTS.s:559    .text._ZNK4ltaf5Line2IfE7yGivenXEf:00000000 _ZNK4ltaf5Line2IfE7yGivenXEf
     /tmp/ccKPvBTS.s:627    .text._ZNK4ltaf5Line2IfE7yGivenXEf:00000038 $d
     /tmp/ccKPvBTS.s:642    .text._ZN4ltaf12IntersectBoxERKNS_5Line2IfEEffiiRNS_4Vec2IfEES6_:00000000 $t
     /tmp/ccKPvBTS.s:647    .text._ZN4ltaf12IntersectBoxERKNS_5Line2IfEEffiiRNS_4Vec2IfEES6_:00000000 _ZN4ltaf12IntersectBoxERKNS_5Line2IfEEffiiRNS_4Vec2IfEES6_
     /tmp/ccKPvBTS.s:1146   .text._ZN4ltaf12IntersectBoxERKNS_5Line2IfEEffiiRNS_4Vec2IfEES6_:000001d0 $d
     /tmp/ccKPvBTS.s:1158   .text._ZNK4ltaf20SquareMatrixInverterIfLi3EE3runEPf:00000000 $t
     /tmp/ccKPvBTS.s:1163   .text._ZNK4ltaf20SquareMatrixInverterIfLi3EE3runEPf:00000000 _ZNK4ltaf20SquareMatrixInverterIfLi3EE3runEPf
     /tmp/ccKPvBTS.s:1450   .text._ZNK4ltaf20SquareMatrixInverterIfLi3EE3runEPf:00000168 $d
     /tmp/ccKPvBTS.s:1458   .text._ZN4ltaf7inverseIfLi3ELb1EEENS_6MatrixIT_XT0_EXT0_EXT1_EEERKS3_:00000000 $t
     /tmp/ccKPvBTS.s:1463   .text._ZN4ltaf7inverseIfLi3ELb1EEENS_6MatrixIT_XT0_EXT0_EXT1_EEERKS3_:00000000 _ZN4ltaf7inverseIfLi3ELb1EEENS_6MatrixIT_XT0_EXT0_EXT1_EEERKS3_
     /tmp/ccKPvBTS.s:1528   .text._ZN4ltaf7inverseIfLi3ELb1EEENS_6MatrixIT_XT0_EXT0_EXT1_EEERKS3_:00000024 $d
     /tmp/ccKPvBTS.s:1533   .text._ZN4ltaf7inverseIfLi3ELb0EEENS_6MatrixIT_XT0_EXT0_EXT1_EEERKS3_:00000000 $t
     /tmp/ccKPvBTS.s:1538   .text._ZN4ltaf7inverseIfLi3ELb0EEENS_6MatrixIT_XT0_EXT0_EXT1_EEERKS3_:00000000 _ZN4ltaf7inverseIfLi3ELb0EEENS_6MatrixIT_XT0_EXT0_EXT1_EEERKS3_
     /tmp/ccKPvBTS.s:1603   .text._ZN4ltaf7inverseIfLi3ELb0EEENS_6MatrixIT_XT0_EXT0_EXT1_EEERKS3_:00000024 $d
     /tmp/ccKPvBTS.s:1608   .text._ZNK4ltaf20SquareMatrixInverterIfLi4EE3runEPf:00000000 $t
     /tmp/ccKPvBTS.s:1613   .text._ZNK4ltaf20SquareMatrixInverterIfLi4EE3runEPf:00000000 _ZNK4ltaf20SquareMatrixInverterIfLi4EE3runEPf
     /tmp/ccKPvBTS.s:2039   .text._ZNK4ltaf20SquareMatrixInverterIfLi4EE3runEPf:00000210 $d
     /tmp/ccKPvBTS.s:2044   .text._ZNK4ltaf20SquareMatrixInverterIfLi4EE3runEPf:0000021c $t
     /tmp/ccKPvBTS.s:2487   .text._ZNK4ltaf20SquareMatrixInverterIfLi4EE3runEPf:00000450 $d
     /tmp/ccKPvBTS.s:2490   .text._ZNK4ltaf20SquareMatrixInverterIfLi4EE3runEPf:00000458 $t
     /tmp/ccKPvBTS.s:2852   .text._ZNK4ltaf20SquareMatrixInverterIfLi4EE3runEPf:00000658 $d
     /tmp/ccKPvBTS.s:2854   .text._ZNK4ltaf20SquareMatrixInverterIfLi4EE3runEPf:0000065c $t
     /tmp/ccKPvBTS.s:2946   .text._ZNK4ltaf20SquareMatrixInverterIfLi4EE3runEPf:000006d0 $d
     /tmp/ccKPvBTS.s:2951   .text._ZN4ltaf7inverseIfLi4ELb1EEENS_6MatrixIT_XT0_EXT0_EXT1_EEERKS3_:00000000 $t
     /tmp/ccKPvBTS.s:2956   .text._ZN4ltaf7inverseIfLi4ELb1EEENS_6MatrixIT_XT0_EXT0_EXT1_EEERKS3_:00000000 _ZN4ltaf7inverseIfLi4ELb1EEENS_6MatrixIT_XT0_EXT0_EXT1_EEERKS3_
     /tmp/ccKPvBTS.s:3018   .text._ZN4ltaf7inverseIfLi4ELb1EEENS_6MatrixIT_XT0_EXT0_EXT1_EEERKS3_:0000002c $d
     /tmp/ccKPvBTS.s:3023   .text._ZN4ltaf7inverseIfLi4ELb0EEENS_6MatrixIT_XT0_EXT0_EXT1_EEERKS3_:00000000 $t
     /tmp/ccKPvBTS.s:3028   .text._ZN4ltaf7inverseIfLi4ELb0EEENS_6MatrixIT_XT0_EXT0_EXT1_EEERKS3_:00000000 _ZN4ltaf7inverseIfLi4ELb0EEENS_6MatrixIT_XT0_EXT0_EXT1_EEERKS3_
     /tmp/ccKPvBTS.s:3090   .text._ZN4ltaf7inverseIfLi4ELb0EEENS_6MatrixIT_XT0_EXT0_EXT1_EEERKS3_:0000002c $d
     /tmp/ccKPvBTS.s:3096   .text._ZNK4ltaf20SquareMatrixInverterIdLi2EE3runEPd:00000000 $t
     /tmp/ccKPvBTS.s:3101   .text._ZNK4ltaf20SquareMatrixInverterIdLi2EE3runEPd:00000000 _ZNK4ltaf20SquareMatrixInverterIdLi2EE3runEPd
     /tmp/ccKPvBTS.s:3223   .text._ZNK4ltaf20SquareMatrixInverterIdLi2EE3runEPd:000000a0 $d
     /tmp/ccKPvBTS.s:3231   .text._ZN4ltaf7inverseIdLi2ELb1EEENS_6MatrixIT_XT0_EXT0_EXT1_EEERKS3_:00000000 $t
     /tmp/ccKPvBTS.s:3236   .text._ZN4ltaf7inverseIdLi2ELb1EEENS_6MatrixIT_XT0_EXT0_EXT1_EEERKS3_:00000000 _ZN4ltaf7inverseIdLi2ELb1EEENS_6MatrixIT_XT0_EXT0_EXT1_EEERKS3_
     /tmp/ccKPvBTS.s:3292   .text._ZN4ltaf7inverseIdLi2ELb1EEENS_6MatrixIT_XT0_EXT0_EXT1_EEERKS3_:00000024 $d
     /tmp/ccKPvBTS.s:3297   .text._ZN4ltaf7inverseIdLi2ELb0EEENS_6MatrixIT_XT0_EXT0_EXT1_EEERKS3_:00000000 $t
     /tmp/ccKPvBTS.s:3302   .text._ZN4ltaf7inverseIdLi2ELb0EEENS_6MatrixIT_XT0_EXT0_EXT1_EEERKS3_:00000000 _ZN4ltaf7inverseIdLi2ELb0EEENS_6MatrixIT_XT0_EXT0_EXT1_EEERKS3_
     /tmp/ccKPvBTS.s:3358   .text._ZN4ltaf7inverseIdLi2ELb0EEENS_6MatrixIT_XT0_EXT0_EXT1_EEERKS3_:00000024 $d
     /tmp/ccKPvBTS.s:3364   .text._ZNK4ltaf20SquareMatrixInverterIdLi3EE3runEPd:00000000 $t
     /tmp/ccKPvBTS.s:3369   .text._ZNK4ltaf20SquareMatrixInverterIdLi3EE3runEPd:00000000 _ZNK4ltaf20SquareMatrixInverterIdLi3EE3runEPd
     /tmp/ccKPvBTS.s:3696   .text._ZNK4ltaf20SquareMatrixInverterIdLi3EE3runEPd:0000023c $d
     /tmp/ccKPvBTS.s:3705   .text._ZN4ltaf7inverseIdLi3ELb1EEENS_6MatrixIT_XT0_EXT0_EXT1_EEERKS3_:00000000 $t
     /tmp/ccKPvBTS.s:3710   .text._ZN4ltaf7inverseIdLi3ELb1EEENS_6MatrixIT_XT0_EXT0_EXT1_EEERKS3_:00000000 _ZN4ltaf7inverseIdLi3ELb1EEENS_6MatrixIT_XT0_EXT0_EXT1_EEERKS3_
     /tmp/ccKPvBTS.s:3760   .text._ZN4ltaf7inverseIdLi3ELb1EEENS_6MatrixIT_XT0_EXT0_EXT1_EEERKS3_:00000018 $d
     /tmp/ccKPvBTS.s:3766   .text._ZN4ltaf7inverseIdLi3ELb0EEENS_6MatrixIT_XT0_EXT0_EXT1_EEERKS3_:00000000 $t
     /tmp/ccKPvBTS.s:3771   .text._ZN4ltaf7inverseIdLi3ELb0EEENS_6MatrixIT_XT0_EXT0_EXT1_EEERKS3_:00000000 _ZN4ltaf7inverseIdLi3ELb0EEENS_6MatrixIT_XT0_EXT0_EXT1_EEERKS3_
     /tmp/ccKPvBTS.s:3821   .text._ZN4ltaf7inverseIdLi3ELb0EEENS_6MatrixIT_XT0_EXT0_EXT1_EEERKS3_:00000018 $d
     /tmp/ccKPvBTS.s:3827   .text._ZNK4ltaf20SquareMatrixInverterIdLi4EE3runEPd:00000000 $t
     /tmp/ccKPvBTS.s:3832   .text._ZNK4ltaf20SquareMatrixInverterIdLi4EE3runEPd:00000000 _ZNK4ltaf20SquareMatrixInverterIdLi4EE3runEPd
     /tmp/ccKPvBTS.s:4167   .text._ZNK4ltaf20SquareMatrixInverterIdLi4EE3runEPd:00000260 $d
     /tmp/ccKPvBTS.s:4172   .text._ZNK4ltaf20SquareMatrixInverterIdLi4EE3runEPd:0000026c $t
     /tmp/ccKPvBTS.s:4683   .text._ZNK4ltaf20SquareMatrixInverterIdLi4EE3runEPd:00000638 $d
     /tmp/ccKPvBTS.s:4687   .text._ZNK4ltaf20SquareMatrixInverterIdLi4EE3runEPd:00000640 $t
     /tmp/ccKPvBTS.s:5330   .text._ZN4ltaf7inverseIdLi4ELb1EEENS_6MatrixIT_XT0_EXT0_EXT1_EEERKS3_:00000000 $t
     /tmp/ccKPvBTS.s:5335   .text._ZN4ltaf7inverseIdLi4ELb1EEENS_6MatrixIT_XT0_EXT0_EXT1_EEERKS3_:00000000 _ZN4ltaf7inverseIdLi4ELb1EEENS_6MatrixIT_XT0_EXT0_EXT1_EEERKS3_
     /tmp/ccKPvBTS.s:5385   .text._ZN4ltaf7inverseIdLi4ELb1EEENS_6MatrixIT_XT0_EXT0_EXT1_EEERKS3_:00000018 $d
     /tmp/ccKPvBTS.s:5391   .text._ZN4ltaf7inverseIdLi4ELb0EEENS_6MatrixIT_XT0_EXT0_EXT1_EEERKS3_:00000000 $t
     /tmp/ccKPvBTS.s:5396   .text._ZN4ltaf7inverseIdLi4ELb0EEENS_6MatrixIT_XT0_EXT0_EXT1_EEERKS3_:00000000 _ZN4ltaf7inverseIdLi4ELb0EEENS_6MatrixIT_XT0_EXT0_EXT1_EEERKS3_
     /tmp/ccKPvBTS.s:5446   .text._ZN4ltaf7inverseIdLi4ELb0EEENS_6MatrixIT_XT0_EXT0_EXT1_EEERKS3_:00000018 $d
     /tmp/ccKPvBTS.s:5452   .text._ZNK4ltaf17MatrixDeterminantIfLi3EEclEPKf:00000000 $t
     /tmp/ccKPvBTS.s:5457   .text._ZNK4ltaf17MatrixDeterminantIfLi3EEclEPKf:00000000 _ZNK4ltaf17MatrixDeterminantIfLi3EEclEPKf
     /tmp/ccKPvBTS.s:5569   .text._ZNK4ltaf17MatrixDeterminantIfLi3EEclEPKf:0000008c $d
     /tmp/ccKPvBTS.s:5576   .text._ZN4ltaf11determinantIfLi3ELb1EEET_RKNS_6MatrixIS1_XT0_EXT0_EXT1_EEE:00000000 $t
     /tmp/ccKPvBTS.s:5581   .text._ZN4ltaf11determinantIfLi3ELb1EEET_RKNS_6MatrixIS1_XT0_EXT0_EXT1_EEE:00000000 _ZN4ltaf11determinantIfLi3ELb1EEET_RKNS_6MatrixIS1_XT0_EXT0_EXT1_EEE
     /tmp/ccKPvBTS.s:5615   .text._ZN4ltaf11determinantIfLi3ELb1EEET_RKNS_6MatrixIS1_XT0_EXT0_EXT1_EEE:00000010 $d
     /tmp/ccKPvBTS.s:5620   .text._ZN4ltaf11determinantIfLi3ELb0EEET_RKNS_6MatrixIS1_XT0_EXT0_EXT1_EEE:00000000 $t
     /tmp/ccKPvBTS.s:5625   .text._ZN4ltaf11determinantIfLi3ELb0EEET_RKNS_6MatrixIS1_XT0_EXT0_EXT1_EEE:00000000 _ZN4ltaf11determinantIfLi3ELb0EEET_RKNS_6MatrixIS1_XT0_EXT0_EXT1_EEE
     /tmp/ccKPvBTS.s:5659   .text._ZN4ltaf11determinantIfLi3ELb0EEET_RKNS_6MatrixIS1_XT0_EXT0_EXT1_EEE:00000010 $d
     /tmp/ccKPvBTS.s:5664   .text._ZNK4ltaf17MatrixDeterminantIfLi4EEclEPKf:00000000 $t
     /tmp/ccKPvBTS.s:5669   .text._ZNK4ltaf17MatrixDeterminantIfLi4EEclEPKf:00000000 _ZNK4ltaf17MatrixDeterminantIfLi4EEclEPKf
     /tmp/ccKPvBTS.s:6117   .text._ZNK4ltaf17MatrixDeterminantIfLi4EEclEPKf:00000218 $d
     /tmp/ccKPvBTS.s:6121   .text._ZNK4ltaf17MatrixDeterminantIfLi4EEclEPKf:00000224 $t
     /tmp/ccKPvBTS.s:6126   .text._ZN4ltaf11determinantIfLi4ELb1EEET_RKNS_6MatrixIS1_XT0_EXT0_EXT1_EEE:00000000 $t
     /tmp/ccKPvBTS.s:6131   .text._ZN4ltaf11determinantIfLi4ELb1EEET_RKNS_6MatrixIS1_XT0_EXT0_EXT1_EEE:00000000 _ZN4ltaf11determinantIfLi4ELb1EEET_RKNS_6MatrixIS1_XT0_EXT0_EXT1_EEE
     /tmp/ccKPvBTS.s:6165   .text._ZN4ltaf11determinantIfLi4ELb1EEET_RKNS_6MatrixIS1_XT0_EXT0_EXT1_EEE:00000010 $d
     /tmp/ccKPvBTS.s:6170   .text._ZN4ltaf11determinantIfLi4ELb0EEET_RKNS_6MatrixIS1_XT0_EXT0_EXT1_EEE:00000000 $t
     /tmp/ccKPvBTS.s:6175   .text._ZN4ltaf11determinantIfLi4ELb0EEET_RKNS_6MatrixIS1_XT0_EXT0_EXT1_EEE:00000000 _ZN4ltaf11determinantIfLi4ELb0EEET_RKNS_6MatrixIS1_XT0_EXT0_EXT1_EEE
     /tmp/ccKPvBTS.s:6209   .text._ZN4ltaf11determinantIfLi4ELb0EEET_RKNS_6MatrixIS1_XT0_EXT0_EXT1_EEE:00000010 $d
     /tmp/ccKPvBTS.s:6214   .text._ZNK4ltaf17MatrixDeterminantIdLi3EEclEPKd:00000000 $t
     /tmp/ccKPvBTS.s:6219   .text._ZNK4ltaf17MatrixDeterminantIdLi3EEclEPKd:00000000 _ZNK4ltaf17MatrixDeterminantIdLi3EEclEPKd
     /tmp/ccKPvBTS.s:6342   .text._ZNK4ltaf17MatrixDeterminantIdLi3EEclEPKd:000000d8 $d
     /tmp/ccKPvBTS.s:6349   .text._ZN4ltaf11determinantIdLi3ELb1EEET_RKNS_6MatrixIS1_XT0_EXT0_EXT1_EEE:00000000 $t
     /tmp/ccKPvBTS.s:6354   .text._ZN4ltaf11determinantIdLi3ELb1EEET_RKNS_6MatrixIS1_XT0_EXT0_EXT1_EEE:00000000 _ZN4ltaf11determinantIdLi3ELb1EEET_RKNS_6MatrixIS1_XT0_EXT0_EXT1_EEE
     /tmp/ccKPvBTS.s:6388   .text._ZN4ltaf11determinantIdLi3ELb1EEET_RKNS_6MatrixIS1_XT0_EXT0_EXT1_EEE:00000010 $d
     /tmp/ccKPvBTS.s:6393   .text._ZN4ltaf11determinantIdLi3ELb0EEET_RKNS_6MatrixIS1_XT0_EXT0_EXT1_EEE:00000000 $t
     /tmp/ccKPvBTS.s:6398   .text._ZN4ltaf11determinantIdLi3ELb0EEET_RKNS_6MatrixIS1_XT0_EXT0_EXT1_EEE:00000000 _ZN4ltaf11determinantIdLi3ELb0EEET_RKNS_6MatrixIS1_XT0_EXT0_EXT1_EEE
     /tmp/ccKPvBTS.s:6432   .text._ZN4ltaf11determinantIdLi3ELb0EEET_RKNS_6MatrixIS1_XT0_EXT0_EXT1_EEE:00000010 $d
     /tmp/ccKPvBTS.s:6437   .text._ZNK4ltaf17MatrixDeterminantIdLi4EEclEPKd:00000000 $t
     /tmp/ccKPvBTS.s:6442   .text._ZNK4ltaf17MatrixDeterminantIdLi4EEclEPKd:00000000 _ZNK4ltaf17MatrixDeterminantIdLi4EEclEPKd
     /tmp/ccKPvBTS.s:6815   .text._ZNK4ltaf17MatrixDeterminantIdLi4EEclEPKd:00000274 $d
     /tmp/ccKPvBTS.s:6819   .text._ZNK4ltaf17MatrixDeterminantIdLi4EEclEPKd:00000280 $t
     /tmp/ccKPvBTS.s:6948   .text._ZN4ltaf11determinantIdLi4ELb1EEET_RKNS_6MatrixIS1_XT0_EXT0_EXT1_EEE:00000000 $t
     /tmp/ccKPvBTS.s:6953   .text._ZN4ltaf11determinantIdLi4ELb1EEET_RKNS_6MatrixIS1_XT0_EXT0_EXT1_EEE:00000000 _ZN4ltaf11determinantIdLi4ELb1EEET_RKNS_6MatrixIS1_XT0_EXT0_EXT1_EEE
     /tmp/ccKPvBTS.s:6987   .text._ZN4ltaf11determinantIdLi4ELb1EEET_RKNS_6MatrixIS1_XT0_EXT0_EXT1_EEE:00000010 $d
     /tmp/ccKPvBTS.s:6992   .text._ZN4ltaf11determinantIdLi4ELb0EEET_RKNS_6MatrixIS1_XT0_EXT0_EXT1_EEE:00000000 $t
     /tmp/ccKPvBTS.s:6997   .text._ZN4ltaf11determinantIdLi4ELb0EEET_RKNS_6MatrixIS1_XT0_EXT0_EXT1_EEE:00000000 _ZN4ltaf11determinantIdLi4ELb0EEET_RKNS_6MatrixIS1_XT0_EXT0_EXT1_EEE
     /tmp/ccKPvBTS.s:7031   .text._ZN4ltaf11determinantIdLi4ELb0EEET_RKNS_6MatrixIS1_XT0_EXT0_EXT1_EEE:00000010 $d
     /tmp/ccKPvBTS.s:7039   .rodata._ZZNK4ltaf5Line2IfE7xGivenYEfE12__FUNCTION__:00000000 _ZZNK4ltaf5Line2IfE7xGivenYEfE12__FUNCTION__
     /tmp/ccKPvBTS.s:7045   .rodata._ZZNK4ltaf5Line2IfE7yGivenXEfE12__FUNCTION__:00000000 _ZZNK4ltaf5Line2IfE7yGivenXEfE12__FUNCTION__
                     .debug_frame:00000010 $d

UNDEFINED SYMBOLS
__aeabi_fmul
__aeabi_fsub
__aeabi_fdiv
__aeabi_dmul
__aeabi_dsub
__aeabi_fcmpgt
__aeabi_fadd
assert_failed
__aeabi_i2f
__aeabi_fcmplt
__aeabi_f2iz
__aeabi_fcmpge
__aeabi_ddiv
__aeabi_dadd
memcpy
