   1              		.syntax unified
   2              		.cpu cortex-r4
   3              		.fpu softvfp
   4              		.eabi_attribute 20, 1
   5              		.eabi_attribute 21, 1
   6              		.eabi_attribute 23, 3
   7              		.eabi_attribute 24, 1
   8              		.eabi_attribute 25, 1
   9              		.eabi_attribute 26, 1
  10              		.eabi_attribute 30, 4
  11              		.eabi_attribute 34, 1
  12              		.eabi_attribute 18, 4
  13              		.thumb
  14              		.file	"af_roi_transfer.cpp"
  15              		.text
  16              	.Ltext0:
  17              		.cfi_sections	.debug_frame
  18              		.global	__aeabi_fmul
  19              		.global	__aeabi_fsub
  20              		.global	__aeabi_fdiv
  21              		.section	.text._ZNK4ltaf20SquareMatrixInverterIfLi2EE3runEPf.isra.4,"ax",%progbits
  22              		.align	1
  23              		.thumb
  24              		.thumb_func
  26              	_ZNK4ltaf20SquareMatrixInverterIfLi2EE3runEPf.isra.4:
  27              	.LFB4189:
  28              		.file 1 "/home/tienluong/workspace/atlantis_fw/AsicFwS2/include/matrix.h"
   1:/home/tienluong/workspace/atlantis_fw/AsicFwS2/include/matrix.h **** // we want to have support for the following:
   2:/home/tienluong/workspace/atlantis_fw/AsicFwS2/include/matrix.h **** // matrix3x3f, matrix4x4f, vec2f, vec3f, vec4f
   3:/home/tienluong/workspace/atlantis_fw/AsicFwS2/include/matrix.h **** // plus, minus, multiplication, inverse, transpose
   4:/home/tienluong/workspace/atlantis_fw/AsicFwS2/include/matrix.h **** 
   5:/home/tienluong/workspace/atlantis_fw/AsicFwS2/include/matrix.h **** #ifndef __MATRIX_H__
   6:/home/tienluong/workspace/atlantis_fw/AsicFwS2/include/matrix.h **** #define __MATRIX_H__
   7:/home/tienluong/workspace/atlantis_fw/AsicFwS2/include/matrix.h **** 
   8:/home/tienluong/workspace/atlantis_fw/AsicFwS2/include/matrix.h **** #ifdef __cplusplus
   9:/home/tienluong/workspace/atlantis_fw/AsicFwS2/include/matrix.h **** 
  10:/home/tienluong/workspace/atlantis_fw/AsicFwS2/include/matrix.h **** #include <cstdlib>
  11:/home/tienluong/workspace/atlantis_fw/AsicFwS2/include/matrix.h **** #include <algorithm> // has compile problem...
  12:/home/tienluong/workspace/atlantis_fw/AsicFwS2/include/matrix.h **** #include <cmath>
  13:/home/tienluong/workspace/atlantis_fw/AsicFwS2/include/matrix.h **** 
  14:/home/tienluong/workspace/atlantis_fw/AsicFwS2/include/matrix.h **** namespace ltaf { // lt auto focus
  15:/home/tienluong/workspace/atlantis_fw/AsicFwS2/include/matrix.h **** 
  16:/home/tienluong/workspace/atlantis_fw/AsicFwS2/include/matrix.h **** // -----------------------------------------------------------
  17:/home/tienluong/workspace/atlantis_fw/AsicFwS2/include/matrix.h **** // 			Vec2 class
  18:/home/tienluong/workspace/atlantis_fw/AsicFwS2/include/matrix.h **** // -----------------------------------------------------------
  19:/home/tienluong/workspace/atlantis_fw/AsicFwS2/include/matrix.h **** template<typename T>
  20:/home/tienluong/workspace/atlantis_fw/AsicFwS2/include/matrix.h **** class Vec2
  21:/home/tienluong/workspace/atlantis_fw/AsicFwS2/include/matrix.h **** {
  22:/home/tienluong/workspace/atlantis_fw/AsicFwS2/include/matrix.h **** public:
  23:/home/tienluong/workspace/atlantis_fw/AsicFwS2/include/matrix.h ****     Vec2() {}
  24:/home/tienluong/workspace/atlantis_fw/AsicFwS2/include/matrix.h ****     Vec2( T t ) : _x( t ), _y( t ) {}
  25:/home/tienluong/workspace/atlantis_fw/AsicFwS2/include/matrix.h ****     Vec2( T x, T y ) : _x( x ), _y( y ) {}
  26:/home/tienluong/workspace/atlantis_fw/AsicFwS2/include/matrix.h ****     Vec2( const Vec2 & t ) : _x( t._x ), _y( t._y ) {}
  27:/home/tienluong/workspace/atlantis_fw/AsicFwS2/include/matrix.h **** 
  28:/home/tienluong/workspace/atlantis_fw/AsicFwS2/include/matrix.h ****     template<typename U>
  29:/home/tienluong/workspace/atlantis_fw/AsicFwS2/include/matrix.h ****     explicit Vec2( const Vec2<U> & t )
  30:/home/tienluong/workspace/atlantis_fw/AsicFwS2/include/matrix.h ****         : _x( static_cast<T>( t.x() ) )
  31:/home/tienluong/workspace/atlantis_fw/AsicFwS2/include/matrix.h ****         , _y( static_cast<T>( t.y() ) ) {}
  32:/home/tienluong/workspace/atlantis_fw/AsicFwS2/include/matrix.h **** 
  33:/home/tienluong/workspace/atlantis_fw/AsicFwS2/include/matrix.h ****     Vec2 & operator=( const Vec2 & t )
  34:/home/tienluong/workspace/atlantis_fw/AsicFwS2/include/matrix.h ****     { _x = t._x; _y = t._y; return *this; }
  35:/home/tienluong/workspace/atlantis_fw/AsicFwS2/include/matrix.h **** 
  36:/home/tienluong/workspace/atlantis_fw/AsicFwS2/include/matrix.h ****     Vec2 & operator/=( const Vec2 & t )
  37:/home/tienluong/workspace/atlantis_fw/AsicFwS2/include/matrix.h ****     { _x /= t._x; _y /= t._y; return *this; }
  38:/home/tienluong/workspace/atlantis_fw/AsicFwS2/include/matrix.h **** 
  39:/home/tienluong/workspace/atlantis_fw/AsicFwS2/include/matrix.h ****     Vec2 & operator%=( const Vec2 & t )
  40:/home/tienluong/workspace/atlantis_fw/AsicFwS2/include/matrix.h ****     { _x %= t._x; _y %= t._y; return *this; }
  41:/home/tienluong/workspace/atlantis_fw/AsicFwS2/include/matrix.h **** 
  42:/home/tienluong/workspace/atlantis_fw/AsicFwS2/include/matrix.h ****     Vec2 & operator*=( const Vec2 & t )
  43:/home/tienluong/workspace/atlantis_fw/AsicFwS2/include/matrix.h ****     { _x *= t._x; _y *= t._y; return *this; }
  44:/home/tienluong/workspace/atlantis_fw/AsicFwS2/include/matrix.h **** 
  45:/home/tienluong/workspace/atlantis_fw/AsicFwS2/include/matrix.h ****     Vec2 & operator+=( const Vec2 & t )
  46:/home/tienluong/workspace/atlantis_fw/AsicFwS2/include/matrix.h ****     { _x += t._x; _y += t._y; return *this; }
  47:/home/tienluong/workspace/atlantis_fw/AsicFwS2/include/matrix.h **** 
  48:/home/tienluong/workspace/atlantis_fw/AsicFwS2/include/matrix.h ****     Vec2 & operator-=( const Vec2 & t )
  49:/home/tienluong/workspace/atlantis_fw/AsicFwS2/include/matrix.h ****     { _x -= t._x; _y -= t._y; return *this; }
  50:/home/tienluong/workspace/atlantis_fw/AsicFwS2/include/matrix.h **** 
  51:/home/tienluong/workspace/atlantis_fw/AsicFwS2/include/matrix.h ****     Vec2 & operator&=( const Vec2 & t )
  52:/home/tienluong/workspace/atlantis_fw/AsicFwS2/include/matrix.h ****     { _x &= t._x; _y &= t._y; return *this; }
  53:/home/tienluong/workspace/atlantis_fw/AsicFwS2/include/matrix.h **** 
  54:/home/tienluong/workspace/atlantis_fw/AsicFwS2/include/matrix.h ****     Vec2 & operator|=( const Vec2 & t )
  55:/home/tienluong/workspace/atlantis_fw/AsicFwS2/include/matrix.h ****     { _x |= t._x; _y |= t._y; return *this; }
  56:/home/tienluong/workspace/atlantis_fw/AsicFwS2/include/matrix.h **** 
  57:/home/tienluong/workspace/atlantis_fw/AsicFwS2/include/matrix.h ****     Vec2 & operator>>=( int t )
  58:/home/tienluong/workspace/atlantis_fw/AsicFwS2/include/matrix.h ****     { _x >>= t; _y >>= t; return *this; }
  59:/home/tienluong/workspace/atlantis_fw/AsicFwS2/include/matrix.h **** 
  60:/home/tienluong/workspace/atlantis_fw/AsicFwS2/include/matrix.h ****     Vec2 & operator<<=( int t )
  61:/home/tienluong/workspace/atlantis_fw/AsicFwS2/include/matrix.h ****     { _x <<= t; _y <<= t; return *this; }
  62:/home/tienluong/workspace/atlantis_fw/AsicFwS2/include/matrix.h **** 
  63:/home/tienluong/workspace/atlantis_fw/AsicFwS2/include/matrix.h ****     Vec2 operator-() const { return { -_x, -_y}; }
  64:/home/tienluong/workspace/atlantis_fw/AsicFwS2/include/matrix.h **** 
  65:/home/tienluong/workspace/atlantis_fw/AsicFwS2/include/matrix.h ****     template<typename U> Vec2<typename std::common_type<T, U>::type>
  66:/home/tienluong/workspace/atlantis_fw/AsicFwS2/include/matrix.h ****     operator+( const Vec2<U> & t ) const { return { _x + t.x(), _y + t.y() }; }
  67:/home/tienluong/workspace/atlantis_fw/AsicFwS2/include/matrix.h **** 
  68:/home/tienluong/workspace/atlantis_fw/AsicFwS2/include/matrix.h ****     template<typename U> Vec2<typename std::common_type<T, U>::type>
  69:/home/tienluong/workspace/atlantis_fw/AsicFwS2/include/matrix.h ****     operator-( const Vec2<U> & t ) const { return { _x - t.x(), _y - t.y() }; }
  70:/home/tienluong/workspace/atlantis_fw/AsicFwS2/include/matrix.h **** 
  71:/home/tienluong/workspace/atlantis_fw/AsicFwS2/include/matrix.h ****     template<typename U> Vec2<typename std::common_type<T, U>::type>
  72:/home/tienluong/workspace/atlantis_fw/AsicFwS2/include/matrix.h ****     operator*( const Vec2<U> & t ) const { return { _x * t.x(), _y * t.y() }; }
  73:/home/tienluong/workspace/atlantis_fw/AsicFwS2/include/matrix.h **** 
  74:/home/tienluong/workspace/atlantis_fw/AsicFwS2/include/matrix.h ****     template<typename U> Vec2<typename std::common_type<T, U>::type>
  75:/home/tienluong/workspace/atlantis_fw/AsicFwS2/include/matrix.h ****     operator/( const Vec2<U> & t ) const { return { _x / t.x(), _y / t.y() }; }
  76:/home/tienluong/workspace/atlantis_fw/AsicFwS2/include/matrix.h **** 
  77:/home/tienluong/workspace/atlantis_fw/AsicFwS2/include/matrix.h ****     template < typename U,
  78:/home/tienluong/workspace/atlantis_fw/AsicFwS2/include/matrix.h ****                typename = typename std::enable_if < std::is_integral<T>::value && std::is_integral<
  79:/home/tienluong/workspace/atlantis_fw/AsicFwS2/include/matrix.h ****     Vec2<typename std::common_type<T, U>::type>
  80:/home/tienluong/workspace/atlantis_fw/AsicFwS2/include/matrix.h ****     operator%( const Vec2<U> & t ) const { return { _x % t.x(), _y % t.y() }; }
  81:/home/tienluong/workspace/atlantis_fw/AsicFwS2/include/matrix.h **** 
  82:/home/tienluong/workspace/atlantis_fw/AsicFwS2/include/matrix.h ****     template < typename U,
  83:/home/tienluong/workspace/atlantis_fw/AsicFwS2/include/matrix.h ****                typename = typename std::enable_if < std::is_arithmetic<U>::value >::type >
  84:/home/tienluong/workspace/atlantis_fw/AsicFwS2/include/matrix.h ****     Vec2<typename std::common_type<T, U>::type>
  85:/home/tienluong/workspace/atlantis_fw/AsicFwS2/include/matrix.h ****     operator+( U t ) const { return { _x + t, _y + t }; }
  86:/home/tienluong/workspace/atlantis_fw/AsicFwS2/include/matrix.h **** 
  87:/home/tienluong/workspace/atlantis_fw/AsicFwS2/include/matrix.h ****     template < typename U,
  88:/home/tienluong/workspace/atlantis_fw/AsicFwS2/include/matrix.h ****                typename = typename std::enable_if < std::is_arithmetic<U>::value >::type >
  89:/home/tienluong/workspace/atlantis_fw/AsicFwS2/include/matrix.h ****     Vec2<typename std::common_type<T, U>::type>
  90:/home/tienluong/workspace/atlantis_fw/AsicFwS2/include/matrix.h ****     operator-( U t ) const { return { _x - t, _y - t }; }
  91:/home/tienluong/workspace/atlantis_fw/AsicFwS2/include/matrix.h **** 
  92:/home/tienluong/workspace/atlantis_fw/AsicFwS2/include/matrix.h ****     template < typename U,
  93:/home/tienluong/workspace/atlantis_fw/AsicFwS2/include/matrix.h ****                typename = typename std::enable_if < std::is_arithmetic<U>::value >::type >
  94:/home/tienluong/workspace/atlantis_fw/AsicFwS2/include/matrix.h ****     Vec2<typename std::common_type<T, U>::type>
  95:/home/tienluong/workspace/atlantis_fw/AsicFwS2/include/matrix.h ****     operator*( U t ) const { return { _x * t, _y * t }; }
  96:/home/tienluong/workspace/atlantis_fw/AsicFwS2/include/matrix.h **** 
  97:/home/tienluong/workspace/atlantis_fw/AsicFwS2/include/matrix.h ****     template < typename U,
  98:/home/tienluong/workspace/atlantis_fw/AsicFwS2/include/matrix.h ****                typename = typename std::enable_if < std::is_arithmetic<U>::value >::type >
  99:/home/tienluong/workspace/atlantis_fw/AsicFwS2/include/matrix.h ****     Vec2<typename std::common_type<T, U>::type>
 100:/home/tienluong/workspace/atlantis_fw/AsicFwS2/include/matrix.h ****     operator/( U t ) const { return { _x / t, _y / t }; }
 101:/home/tienluong/workspace/atlantis_fw/AsicFwS2/include/matrix.h **** 
 102:/home/tienluong/workspace/atlantis_fw/AsicFwS2/include/matrix.h ****     template < typename U,
 103:/home/tienluong/workspace/atlantis_fw/AsicFwS2/include/matrix.h ****                typename = typename std::enable_if < std::is_integral<T>::value && std::is_integral<
 104:/home/tienluong/workspace/atlantis_fw/AsicFwS2/include/matrix.h ****     Vec2<typename std::common_type<T, U>::type>
 105:/home/tienluong/workspace/atlantis_fw/AsicFwS2/include/matrix.h ****     operator%( U t ) const { return { _x % t, _y % t }; }
 106:/home/tienluong/workspace/atlantis_fw/AsicFwS2/include/matrix.h **** 
 107:/home/tienluong/workspace/atlantis_fw/AsicFwS2/include/matrix.h ****     T min() const { return std::min( _x, _y ); }
 108:/home/tienluong/workspace/atlantis_fw/AsicFwS2/include/matrix.h ****     T max() const { return std::max( _x, _y ); }
 109:/home/tienluong/workspace/atlantis_fw/AsicFwS2/include/matrix.h ****     T sum() const { return _x + _y; }
 110:/home/tienluong/workspace/atlantis_fw/AsicFwS2/include/matrix.h ****     T dot( const Vec2<T> & t ) const { return _x * t.x() + _y * t.y(); }
 111:/home/tienluong/workspace/atlantis_fw/AsicFwS2/include/matrix.h **** 
 112:/home/tienluong/workspace/atlantis_fw/AsicFwS2/include/matrix.h ****     Vec2 abs() const { return { std::abs( _x ), std::abs( _y ) }; }
 113:/home/tienluong/workspace/atlantis_fw/AsicFwS2/include/matrix.h ****     
 114:/home/tienluong/workspace/atlantis_fw/AsicFwS2/include/matrix.h ****     const T & x() const { return _x; }
 115:/home/tienluong/workspace/atlantis_fw/AsicFwS2/include/matrix.h ****     const T & y() const { return _y; }
 116:/home/tienluong/workspace/atlantis_fw/AsicFwS2/include/matrix.h **** 
 117:/home/tienluong/workspace/atlantis_fw/AsicFwS2/include/matrix.h ****     void setX( T x ) { _x = x; }
 118:/home/tienluong/workspace/atlantis_fw/AsicFwS2/include/matrix.h ****     void setY( T y ) { _y = y; }
 119:/home/tienluong/workspace/atlantis_fw/AsicFwS2/include/matrix.h **** 
 120:/home/tienluong/workspace/atlantis_fw/AsicFwS2/include/matrix.h **** private:
 121:/home/tienluong/workspace/atlantis_fw/AsicFwS2/include/matrix.h **** 	T _x, _y;
 122:/home/tienluong/workspace/atlantis_fw/AsicFwS2/include/matrix.h **** };
 123:/home/tienluong/workspace/atlantis_fw/AsicFwS2/include/matrix.h **** 
 124:/home/tienluong/workspace/atlantis_fw/AsicFwS2/include/matrix.h **** 
 125:/home/tienluong/workspace/atlantis_fw/AsicFwS2/include/matrix.h **** // basic add/sub/mul/div operators
 126:/home/tienluong/workspace/atlantis_fw/AsicFwS2/include/matrix.h **** template < typename T, typename U,
 127:/home/tienluong/workspace/atlantis_fw/AsicFwS2/include/matrix.h ****            typename = typename std::enable_if < std::is_arithmetic<T>::value >::type >
 128:/home/tienluong/workspace/atlantis_fw/AsicFwS2/include/matrix.h **** Vec2<typename std::common_type<T, U>::type>
 129:/home/tienluong/workspace/atlantis_fw/AsicFwS2/include/matrix.h **** operator+( T a, const Vec2<U> & b ) { return b + a; }
 130:/home/tienluong/workspace/atlantis_fw/AsicFwS2/include/matrix.h **** 
 131:/home/tienluong/workspace/atlantis_fw/AsicFwS2/include/matrix.h **** template < typename T, typename U,
 132:/home/tienluong/workspace/atlantis_fw/AsicFwS2/include/matrix.h ****            typename = typename std::enable_if < std::is_arithmetic<T>::value >::type >
 133:/home/tienluong/workspace/atlantis_fw/AsicFwS2/include/matrix.h **** Vec2<typename std::common_type<T, U>::type>
 134:/home/tienluong/workspace/atlantis_fw/AsicFwS2/include/matrix.h **** operator*( T a, const Vec2<U> & b ) { return b * a; }
 135:/home/tienluong/workspace/atlantis_fw/AsicFwS2/include/matrix.h **** 
 136:/home/tienluong/workspace/atlantis_fw/AsicFwS2/include/matrix.h **** template < typename T, typename U,
 137:/home/tienluong/workspace/atlantis_fw/AsicFwS2/include/matrix.h ****            typename = typename std::enable_if < std::is_arithmetic<T>::value >::type >
 138:/home/tienluong/workspace/atlantis_fw/AsicFwS2/include/matrix.h **** Vec2<typename std::common_type<T, U>::type>
 139:/home/tienluong/workspace/atlantis_fw/AsicFwS2/include/matrix.h **** operator-( T a, const Vec2<U> & b ) { return Vec2<T>( a ) - b; }
 140:/home/tienluong/workspace/atlantis_fw/AsicFwS2/include/matrix.h **** 
 141:/home/tienluong/workspace/atlantis_fw/AsicFwS2/include/matrix.h **** template < typename T, typename U,
 142:/home/tienluong/workspace/atlantis_fw/AsicFwS2/include/matrix.h ****            typename = typename std::enable_if < std::is_arithmetic<T>::value >::type >
 143:/home/tienluong/workspace/atlantis_fw/AsicFwS2/include/matrix.h **** Vec2<typename std::common_type<T, U>::type>
 144:/home/tienluong/workspace/atlantis_fw/AsicFwS2/include/matrix.h **** operator/( T a, const Vec2<U> & b ) { return Vec2<T>( a ) / b; }
 145:/home/tienluong/workspace/atlantis_fw/AsicFwS2/include/matrix.h **** 
 146:/home/tienluong/workspace/atlantis_fw/AsicFwS2/include/matrix.h **** // basic math functions
 147:/home/tienluong/workspace/atlantis_fw/AsicFwS2/include/matrix.h **** template<typename T>
 148:/home/tienluong/workspace/atlantis_fw/AsicFwS2/include/matrix.h **** T min( const Vec2<T> & t ) { return t.min(); }
 149:/home/tienluong/workspace/atlantis_fw/AsicFwS2/include/matrix.h **** 
 150:/home/tienluong/workspace/atlantis_fw/AsicFwS2/include/matrix.h **** template<typename T>
 151:/home/tienluong/workspace/atlantis_fw/AsicFwS2/include/matrix.h **** T max( const Vec2<T> & t ) { return t.max(); }
 152:/home/tienluong/workspace/atlantis_fw/AsicFwS2/include/matrix.h **** 
 153:/home/tienluong/workspace/atlantis_fw/AsicFwS2/include/matrix.h **** template<typename T>
 154:/home/tienluong/workspace/atlantis_fw/AsicFwS2/include/matrix.h **** T sum( const Vec2<T> & t ) { return t.sum(); }
 155:/home/tienluong/workspace/atlantis_fw/AsicFwS2/include/matrix.h **** 
 156:/home/tienluong/workspace/atlantis_fw/AsicFwS2/include/matrix.h **** template<typename T>
 157:/home/tienluong/workspace/atlantis_fw/AsicFwS2/include/matrix.h **** T dot( const Vec2<T> & a, const Vec2<T> & b ) { return a.dot( b ); }
 158:/home/tienluong/workspace/atlantis_fw/AsicFwS2/include/matrix.h **** 
 159:/home/tienluong/workspace/atlantis_fw/AsicFwS2/include/matrix.h **** template<typename T>
 160:/home/tienluong/workspace/atlantis_fw/AsicFwS2/include/matrix.h **** Vec2<T> min( const Vec2<T> & a, const Vec2<T> & b )
 161:/home/tienluong/workspace/atlantis_fw/AsicFwS2/include/matrix.h **** { return { std::min( a.x(), b.x() ), std::min( a.y(), b.y() ) }; }
 162:/home/tienluong/workspace/atlantis_fw/AsicFwS2/include/matrix.h **** 
 163:/home/tienluong/workspace/atlantis_fw/AsicFwS2/include/matrix.h **** template<typename T>
 164:/home/tienluong/workspace/atlantis_fw/AsicFwS2/include/matrix.h **** Vec2<T> abs( const Vec2<T> & t ) { return t.abs(); }
 165:/home/tienluong/workspace/atlantis_fw/AsicFwS2/include/matrix.h **** 
 166:/home/tienluong/workspace/atlantis_fw/AsicFwS2/include/matrix.h **** // template<typename T>
 167:/home/tienluong/workspace/atlantis_fw/AsicFwS2/include/matrix.h **** // Vec2<T> sign( const Vec2<T> & t ) { return t.sign(); }
 168:/home/tienluong/workspace/atlantis_fw/AsicFwS2/include/matrix.h **** 
 169:/home/tienluong/workspace/atlantis_fw/AsicFwS2/include/matrix.h **** template<typename T>
 170:/home/tienluong/workspace/atlantis_fw/AsicFwS2/include/matrix.h **** typename std::enable_if<std::is_floating_point<T>::value, T>::type
 171:/home/tienluong/workspace/atlantis_fw/AsicFwS2/include/matrix.h **** length( const Vec2<T> & a )
 172:/home/tienluong/workspace/atlantis_fw/AsicFwS2/include/matrix.h **** { return std::sqrt( dot( a, a ) ); }
 173:/home/tienluong/workspace/atlantis_fw/AsicFwS2/include/matrix.h **** 
 174:/home/tienluong/workspace/atlantis_fw/AsicFwS2/include/matrix.h **** template<typename T>
 175:/home/tienluong/workspace/atlantis_fw/AsicFwS2/include/matrix.h **** typename std::enable_if<std::is_floating_point<T>::value, Vec2<T> >::type
 176:/home/tienluong/workspace/atlantis_fw/AsicFwS2/include/matrix.h **** sqrt( const Vec2<T> & a )
 177:/home/tienluong/workspace/atlantis_fw/AsicFwS2/include/matrix.h **** { return { std::sqrt( a.x() ), std::sqrt( a.y() ) }; }
 178:/home/tienluong/workspace/atlantis_fw/AsicFwS2/include/matrix.h **** 
 179:/home/tienluong/workspace/atlantis_fw/AsicFwS2/include/matrix.h **** template<typename T>
 180:/home/tienluong/workspace/atlantis_fw/AsicFwS2/include/matrix.h **** typename std::enable_if<std::is_floating_point<T>::value, T>::type
 181:/home/tienluong/workspace/atlantis_fw/AsicFwS2/include/matrix.h **** squaredSum( const Vec2<T> & a )
 182:/home/tienluong/workspace/atlantis_fw/AsicFwS2/include/matrix.h **** { return dot( a, a ); }
 183:/home/tienluong/workspace/atlantis_fw/AsicFwS2/include/matrix.h **** 
 184:/home/tienluong/workspace/atlantis_fw/AsicFwS2/include/matrix.h **** template<typename T>
 185:/home/tienluong/workspace/atlantis_fw/AsicFwS2/include/matrix.h **** typename std::enable_if<std::is_floating_point<T>::value, Vec2<T> >::type
 186:/home/tienluong/workspace/atlantis_fw/AsicFwS2/include/matrix.h **** normalize( const Vec2<T> & a )
 187:/home/tienluong/workspace/atlantis_fw/AsicFwS2/include/matrix.h **** {
 188:/home/tienluong/workspace/atlantis_fw/AsicFwS2/include/matrix.h ****     return a / length( a );
 189:/home/tienluong/workspace/atlantis_fw/AsicFwS2/include/matrix.h **** }
 190:/home/tienluong/workspace/atlantis_fw/AsicFwS2/include/matrix.h **** 
 191:/home/tienluong/workspace/atlantis_fw/AsicFwS2/include/matrix.h **** // template<typename T>
 192:/home/tienluong/workspace/atlantis_fw/AsicFwS2/include/matrix.h **** // typename std::enable_if<std::is_floating_point<T>::value, Vec2<T> >::type
 193:/home/tienluong/workspace/atlantis_fw/AsicFwS2/include/matrix.h **** // pow( const Vec2<T> & a, const Vec2<T> & b )
 194:/home/tienluong/workspace/atlantis_fw/AsicFwS2/include/matrix.h **** // { return { std::pow( a.x(), b.x() ), std::pow( a.y(), b.y() ) }; }
 195:/home/tienluong/workspace/atlantis_fw/AsicFwS2/include/matrix.h **** 
 196:/home/tienluong/workspace/atlantis_fw/AsicFwS2/include/matrix.h **** // template<typename T>
 197:/home/tienluong/workspace/atlantis_fw/AsicFwS2/include/matrix.h **** // typename std::enable_if<std::is_floating_point<T>::value, Vec2<T> >::type
 198:/home/tienluong/workspace/atlantis_fw/AsicFwS2/include/matrix.h **** // pow( const Vec2<T> & a, T  b )
 199:/home/tienluong/workspace/atlantis_fw/AsicFwS2/include/matrix.h **** // { return { std::pow( a.x(), b ), std::pow( a.y(), b ) }; }
 200:/home/tienluong/workspace/atlantis_fw/AsicFwS2/include/matrix.h **** 
 201:/home/tienluong/workspace/atlantis_fw/AsicFwS2/include/matrix.h **** // template<typename T>
 202:/home/tienluong/workspace/atlantis_fw/AsicFwS2/include/matrix.h **** // typename std::enable_if<std::is_floating_point<T>::value, Vec2<T> >::type
 203:/home/tienluong/workspace/atlantis_fw/AsicFwS2/include/matrix.h **** // pow( T a, const Vec2<T> & b )
 204:/home/tienluong/workspace/atlantis_fw/AsicFwS2/include/matrix.h **** // { return { std::pow( a, b.x() ), std::pow( a, b.y() ) }; }
 205:/home/tienluong/workspace/atlantis_fw/AsicFwS2/include/matrix.h **** 
 206:/home/tienluong/workspace/atlantis_fw/AsicFwS2/include/matrix.h **** // template<typename T>
 207:/home/tienluong/workspace/atlantis_fw/AsicFwS2/include/matrix.h **** // typename std::enable_if<std::is_floating_point<T>::value, Vec2<T> >::type
 208:/home/tienluong/workspace/atlantis_fw/AsicFwS2/include/matrix.h **** // floor( const Vec2<T> & a )
 209:/home/tienluong/workspace/atlantis_fw/AsicFwS2/include/matrix.h **** // { return { std::floor( a.x() ), std::floor( a.y() ) }; }
 210:/home/tienluong/workspace/atlantis_fw/AsicFwS2/include/matrix.h **** 
 211:/home/tienluong/workspace/atlantis_fw/AsicFwS2/include/matrix.h **** // template<typename T>
 212:/home/tienluong/workspace/atlantis_fw/AsicFwS2/include/matrix.h **** // typename std::enable_if<std::is_floating_point<T>::value, Vec2<T> >::type
 213:/home/tienluong/workspace/atlantis_fw/AsicFwS2/include/matrix.h **** // ceil( const Vec2<T> & a )
 214:/home/tienluong/workspace/atlantis_fw/AsicFwS2/include/matrix.h **** // { return { std::ceil( a.x() ), std::ceil( a.y() ) }; }
 215:/home/tienluong/workspace/atlantis_fw/AsicFwS2/include/matrix.h **** 
 216:/home/tienluong/workspace/atlantis_fw/AsicFwS2/include/matrix.h **** 
 217:/home/tienluong/workspace/atlantis_fw/AsicFwS2/include/matrix.h **** 
 218:/home/tienluong/workspace/atlantis_fw/AsicFwS2/include/matrix.h **** 
 219:/home/tienluong/workspace/atlantis_fw/AsicFwS2/include/matrix.h **** 
 220:/home/tienluong/workspace/atlantis_fw/AsicFwS2/include/matrix.h **** // -----------------------------------------------------------
 221:/home/tienluong/workspace/atlantis_fw/AsicFwS2/include/matrix.h **** // 			Vec3 class
 222:/home/tienluong/workspace/atlantis_fw/AsicFwS2/include/matrix.h **** // -----------------------------------------------------------
 223:/home/tienluong/workspace/atlantis_fw/AsicFwS2/include/matrix.h **** template<typename T>
 224:/home/tienluong/workspace/atlantis_fw/AsicFwS2/include/matrix.h **** class Vec3
 225:/home/tienluong/workspace/atlantis_fw/AsicFwS2/include/matrix.h **** {
 226:/home/tienluong/workspace/atlantis_fw/AsicFwS2/include/matrix.h **** public:
 227:/home/tienluong/workspace/atlantis_fw/AsicFwS2/include/matrix.h ****     Vec3() {}
 228:/home/tienluong/workspace/atlantis_fw/AsicFwS2/include/matrix.h ****     Vec3( T t ) : _x( t ), _y( t ), _z( t ) {}
 229:/home/tienluong/workspace/atlantis_fw/AsicFwS2/include/matrix.h ****     Vec3( T x, T y, T z ) : _x( x ), _y( y ), _z( z ) {}
 230:/home/tienluong/workspace/atlantis_fw/AsicFwS2/include/matrix.h ****     Vec3( const Vec3 & t ) : _x( t._x ), _y( t._y ), _z( t._z ) {}
 231:/home/tienluong/workspace/atlantis_fw/AsicFwS2/include/matrix.h **** 
 232:/home/tienluong/workspace/atlantis_fw/AsicFwS2/include/matrix.h ****     template<typename U>
 233:/home/tienluong/workspace/atlantis_fw/AsicFwS2/include/matrix.h ****     explicit Vec3( const Vec3<U> & t )
 234:/home/tienluong/workspace/atlantis_fw/AsicFwS2/include/matrix.h ****         : _x( static_cast<T>( t.x() ) )
 235:/home/tienluong/workspace/atlantis_fw/AsicFwS2/include/matrix.h ****         , _y( static_cast<T>( t.y() ) )
 236:/home/tienluong/workspace/atlantis_fw/AsicFwS2/include/matrix.h ****         , _z( static_cast<T>( t.z() ) ) {}
 237:/home/tienluong/workspace/atlantis_fw/AsicFwS2/include/matrix.h **** 
 238:/home/tienluong/workspace/atlantis_fw/AsicFwS2/include/matrix.h ****     Vec3 & operator=( const Vec3 & t )
 239:/home/tienluong/workspace/atlantis_fw/AsicFwS2/include/matrix.h ****     { _x = t._x; _y = t._y; _z = t._z; return *this; }
 240:/home/tienluong/workspace/atlantis_fw/AsicFwS2/include/matrix.h **** 
 241:/home/tienluong/workspace/atlantis_fw/AsicFwS2/include/matrix.h ****     Vec3 & operator/=( const Vec3 & t )
 242:/home/tienluong/workspace/atlantis_fw/AsicFwS2/include/matrix.h ****     { _x /= t._x; _y /= t._y; _z /= t._z; return *this; }
 243:/home/tienluong/workspace/atlantis_fw/AsicFwS2/include/matrix.h **** 
 244:/home/tienluong/workspace/atlantis_fw/AsicFwS2/include/matrix.h ****     Vec3 & operator%=( const Vec3 & t )
 245:/home/tienluong/workspace/atlantis_fw/AsicFwS2/include/matrix.h ****     { _x %= t._x; _y %= t._y; _z %= t._z; return *this; }
 246:/home/tienluong/workspace/atlantis_fw/AsicFwS2/include/matrix.h **** 
 247:/home/tienluong/workspace/atlantis_fw/AsicFwS2/include/matrix.h ****     Vec3 & operator*=( const Vec3 & t )
 248:/home/tienluong/workspace/atlantis_fw/AsicFwS2/include/matrix.h ****     { _x *= t._x; _y *= t._y; _z *= t._z; return *this; }
 249:/home/tienluong/workspace/atlantis_fw/AsicFwS2/include/matrix.h **** 
 250:/home/tienluong/workspace/atlantis_fw/AsicFwS2/include/matrix.h ****     Vec3 & operator+=( const Vec3 & t )
 251:/home/tienluong/workspace/atlantis_fw/AsicFwS2/include/matrix.h ****     { _x += t._x; _y += t._y; _z += t._z; return *this; }
 252:/home/tienluong/workspace/atlantis_fw/AsicFwS2/include/matrix.h **** 
 253:/home/tienluong/workspace/atlantis_fw/AsicFwS2/include/matrix.h ****     Vec3 & operator-=( const Vec3 & t )
 254:/home/tienluong/workspace/atlantis_fw/AsicFwS2/include/matrix.h ****     { _x -= t._x; _y -= t._y; _z -= t._z; return *this; }
 255:/home/tienluong/workspace/atlantis_fw/AsicFwS2/include/matrix.h **** 
 256:/home/tienluong/workspace/atlantis_fw/AsicFwS2/include/matrix.h ****     Vec3 & operator&=( const Vec3 & t )
 257:/home/tienluong/workspace/atlantis_fw/AsicFwS2/include/matrix.h ****     { _x &= t._x; _y &= t._y; _z &= t._z; return *this; }
 258:/home/tienluong/workspace/atlantis_fw/AsicFwS2/include/matrix.h **** 
 259:/home/tienluong/workspace/atlantis_fw/AsicFwS2/include/matrix.h ****     Vec3 & operator|=( const Vec3 & t )
 260:/home/tienluong/workspace/atlantis_fw/AsicFwS2/include/matrix.h ****     { _x |= t._x; _y |= t._y; _z |= t._z; return *this; }
 261:/home/tienluong/workspace/atlantis_fw/AsicFwS2/include/matrix.h **** 
 262:/home/tienluong/workspace/atlantis_fw/AsicFwS2/include/matrix.h ****     Vec3 & operator>>=( int t )
 263:/home/tienluong/workspace/atlantis_fw/AsicFwS2/include/matrix.h ****     { _x >>= t; _y >>= t; _z >>= t; return *this; }
 264:/home/tienluong/workspace/atlantis_fw/AsicFwS2/include/matrix.h **** 
 265:/home/tienluong/workspace/atlantis_fw/AsicFwS2/include/matrix.h ****     Vec3 & operator<<=( int t )
 266:/home/tienluong/workspace/atlantis_fw/AsicFwS2/include/matrix.h ****     { _x <<= t; _y <<= t; _z <<= t; return *this; }
 267:/home/tienluong/workspace/atlantis_fw/AsicFwS2/include/matrix.h **** 
 268:/home/tienluong/workspace/atlantis_fw/AsicFwS2/include/matrix.h ****     Vec3 operator-() const { return { -_x, -_y, -_z }; }
 269:/home/tienluong/workspace/atlantis_fw/AsicFwS2/include/matrix.h **** 
 270:/home/tienluong/workspace/atlantis_fw/AsicFwS2/include/matrix.h ****     template<typename U > 
 271:/home/tienluong/workspace/atlantis_fw/AsicFwS2/include/matrix.h ****     Vec3<typename std::common_type<T, U>::type>
 272:/home/tienluong/workspace/atlantis_fw/AsicFwS2/include/matrix.h ****     operator+( const Vec3<U> & t ) const { return { _x + t.x(), _y + t.y(), _z + t.z() }; }
 273:/home/tienluong/workspace/atlantis_fw/AsicFwS2/include/matrix.h **** 
 274:/home/tienluong/workspace/atlantis_fw/AsicFwS2/include/matrix.h ****     template<typename U> Vec3<typename std::common_type<T, U>::type>
 275:/home/tienluong/workspace/atlantis_fw/AsicFwS2/include/matrix.h ****     operator-( const Vec3<U> & t ) const { return { _x - t.x(), _y - t.y(), _z - t.z() }; }
 276:/home/tienluong/workspace/atlantis_fw/AsicFwS2/include/matrix.h **** 
 277:/home/tienluong/workspace/atlantis_fw/AsicFwS2/include/matrix.h ****     template<typename U> Vec3<typename std::common_type<T, U>::type>
 278:/home/tienluong/workspace/atlantis_fw/AsicFwS2/include/matrix.h ****     operator*( const Vec3<U> & t ) const { return { _x * t.x(), _y * t.y(), _z * t.z() }; }
 279:/home/tienluong/workspace/atlantis_fw/AsicFwS2/include/matrix.h **** 
 280:/home/tienluong/workspace/atlantis_fw/AsicFwS2/include/matrix.h ****     template<typename U> Vec3<typename std::common_type<T, U>::type>
 281:/home/tienluong/workspace/atlantis_fw/AsicFwS2/include/matrix.h ****     operator/( const Vec3<U> & t ) const { return { _x / t.x(), _y / t.y(), _z / t.z() }; }
 282:/home/tienluong/workspace/atlantis_fw/AsicFwS2/include/matrix.h **** 
 283:/home/tienluong/workspace/atlantis_fw/AsicFwS2/include/matrix.h ****     template < typename U,
 284:/home/tienluong/workspace/atlantis_fw/AsicFwS2/include/matrix.h ****                typename = typename std::enable_if < std::is_integral<T>::value && std::is_integral<
 285:/home/tienluong/workspace/atlantis_fw/AsicFwS2/include/matrix.h ****     Vec3<typename std::common_type<T, U>::type>
 286:/home/tienluong/workspace/atlantis_fw/AsicFwS2/include/matrix.h ****     operator%( const Vec3<U> & t ) const { return { _x % t.x(), _y % t.y(), _z % t.z() }; }
 287:/home/tienluong/workspace/atlantis_fw/AsicFwS2/include/matrix.h **** 
 288:/home/tienluong/workspace/atlantis_fw/AsicFwS2/include/matrix.h ****     template < typename U,
 289:/home/tienluong/workspace/atlantis_fw/AsicFwS2/include/matrix.h ****                typename = typename std::enable_if < std::is_arithmetic<U>::value >::type >
 290:/home/tienluong/workspace/atlantis_fw/AsicFwS2/include/matrix.h ****     Vec3<typename std::common_type<T, U>::type>
 291:/home/tienluong/workspace/atlantis_fw/AsicFwS2/include/matrix.h ****     operator+( U t ) const { return { _x + t, _y + t, _z + t }; }
 292:/home/tienluong/workspace/atlantis_fw/AsicFwS2/include/matrix.h **** 
 293:/home/tienluong/workspace/atlantis_fw/AsicFwS2/include/matrix.h ****     template < typename U,
 294:/home/tienluong/workspace/atlantis_fw/AsicFwS2/include/matrix.h ****                typename = typename std::enable_if < std::is_arithmetic<U>::value >::type >
 295:/home/tienluong/workspace/atlantis_fw/AsicFwS2/include/matrix.h ****     Vec3<typename std::common_type<T, U>::type>
 296:/home/tienluong/workspace/atlantis_fw/AsicFwS2/include/matrix.h ****     operator-( U t ) const { return { _x - t, _y - t, _z - t }; }
 297:/home/tienluong/workspace/atlantis_fw/AsicFwS2/include/matrix.h **** 
 298:/home/tienluong/workspace/atlantis_fw/AsicFwS2/include/matrix.h ****     template < typename U,
 299:/home/tienluong/workspace/atlantis_fw/AsicFwS2/include/matrix.h ****                typename = typename std::enable_if < std::is_arithmetic<U>::value >::type >
 300:/home/tienluong/workspace/atlantis_fw/AsicFwS2/include/matrix.h ****     Vec3<typename std::common_type<T, U>::type>
 301:/home/tienluong/workspace/atlantis_fw/AsicFwS2/include/matrix.h ****     operator*( U t ) const { return { _x * t, _y * t, _z * t }; }
 302:/home/tienluong/workspace/atlantis_fw/AsicFwS2/include/matrix.h **** 
 303:/home/tienluong/workspace/atlantis_fw/AsicFwS2/include/matrix.h ****     template < typename U,
 304:/home/tienluong/workspace/atlantis_fw/AsicFwS2/include/matrix.h ****                typename = typename std::enable_if < std::is_arithmetic<U>::value >::type >
 305:/home/tienluong/workspace/atlantis_fw/AsicFwS2/include/matrix.h ****     Vec3<typename std::common_type<T, U>::type>
 306:/home/tienluong/workspace/atlantis_fw/AsicFwS2/include/matrix.h ****     operator/( U t ) const { return { _x / t, _y / t, _z / t }; }
 307:/home/tienluong/workspace/atlantis_fw/AsicFwS2/include/matrix.h **** 
 308:/home/tienluong/workspace/atlantis_fw/AsicFwS2/include/matrix.h ****     template < typename U,
 309:/home/tienluong/workspace/atlantis_fw/AsicFwS2/include/matrix.h ****                typename = typename std::enable_if < std::is_integral<T>::value && std::is_integral<
 310:/home/tienluong/workspace/atlantis_fw/AsicFwS2/include/matrix.h ****     Vec3<typename std::common_type<T, U>::type>
 311:/home/tienluong/workspace/atlantis_fw/AsicFwS2/include/matrix.h ****     operator%( U t ) const { return { _x % t, _y % t, _z % t }; }
 312:/home/tienluong/workspace/atlantis_fw/AsicFwS2/include/matrix.h ****     Vec3<bool> operator==( const Vec3 & t ) const { return { _x == t._x, _y == t._y, _z == t._z }; 
 313:/home/tienluong/workspace/atlantis_fw/AsicFwS2/include/matrix.h ****     Vec3<bool> operator!=( const Vec3 & t ) const { return { _x != t._x, _y != t._y, _z != t._z }; 
 314:/home/tienluong/workspace/atlantis_fw/AsicFwS2/include/matrix.h ****     Vec3<bool> operator>=( const Vec3 & t ) const { return { _x >= t._x, _y >= t._y, _z >= t._z }; 
 315:/home/tienluong/workspace/atlantis_fw/AsicFwS2/include/matrix.h ****     Vec3<bool> operator>( const Vec3 & t )  const { return { _x >  t._x, _y >  t._y, _z >  t._z }; 
 316:/home/tienluong/workspace/atlantis_fw/AsicFwS2/include/matrix.h ****     Vec3<bool> operator<=( const Vec3 & t ) const { return { _x <= t._x, _y <= t._y, _z <= t._z }; 
 317:/home/tienluong/workspace/atlantis_fw/AsicFwS2/include/matrix.h ****     Vec3<bool> operator<( const Vec3 & t )  const { return { _x <  t._x, _y <  t._y, _z <  t._z }; 
 318:/home/tienluong/workspace/atlantis_fw/AsicFwS2/include/matrix.h **** 
 319:/home/tienluong/workspace/atlantis_fw/AsicFwS2/include/matrix.h ****     T min() const { return std::min( std::min( _x, _y ), _z ); }
 320:/home/tienluong/workspace/atlantis_fw/AsicFwS2/include/matrix.h ****     T max() const { return std::max( std::max( _x, _y ), _z ); }
 321:/home/tienluong/workspace/atlantis_fw/AsicFwS2/include/matrix.h ****     T sum() const { return _x + _y + _z; }
 322:/home/tienluong/workspace/atlantis_fw/AsicFwS2/include/matrix.h ****     T dot( const Vec3<T> & t ) const { return _x * t.x() + _y * t.y() + _z * t.z(); }
 323:/home/tienluong/workspace/atlantis_fw/AsicFwS2/include/matrix.h **** 
 324:/home/tienluong/workspace/atlantis_fw/AsicFwS2/include/matrix.h ****     // cross product in right-hand side coordinate (i.e. if this=(1,0,0), t=(0,1,0), out=(0,0,1)).
 325:/home/tienluong/workspace/atlantis_fw/AsicFwS2/include/matrix.h ****     Vec3<T> cross( const Vec3<T> & t ) const
 326:/home/tienluong/workspace/atlantis_fw/AsicFwS2/include/matrix.h ****     { return Vec3<T> {_y * t.z() - _z * t.y(), _z * t.x() - _x * t.z(), _x * t.y() - _y * t.x()};}
 327:/home/tienluong/workspace/atlantis_fw/AsicFwS2/include/matrix.h **** 
 328:/home/tienluong/workspace/atlantis_fw/AsicFwS2/include/matrix.h ****     Vec3 abs() const { return { std::abs( _x ), std::abs( _y ), std::abs( _z ) }; }
 329:/home/tienluong/workspace/atlantis_fw/AsicFwS2/include/matrix.h **** 
 330:/home/tienluong/workspace/atlantis_fw/AsicFwS2/include/matrix.h ****     const T & x() const { return _x; }
 331:/home/tienluong/workspace/atlantis_fw/AsicFwS2/include/matrix.h ****     const T & y() const { return _y; }
 332:/home/tienluong/workspace/atlantis_fw/AsicFwS2/include/matrix.h ****     const T & z() const { return _z; }
 333:/home/tienluong/workspace/atlantis_fw/AsicFwS2/include/matrix.h **** 
 334:/home/tienluong/workspace/atlantis_fw/AsicFwS2/include/matrix.h ****     void setX( T x ) { _x = x; }
 335:/home/tienluong/workspace/atlantis_fw/AsicFwS2/include/matrix.h ****     void setY( T y ) { _y = y; }
 336:/home/tienluong/workspace/atlantis_fw/AsicFwS2/include/matrix.h ****     void setZ( T z ) { _z = z; }
 337:/home/tienluong/workspace/atlantis_fw/AsicFwS2/include/matrix.h **** 
 338:/home/tienluong/workspace/atlantis_fw/AsicFwS2/include/matrix.h ****     Vec3 & normalize()
 339:/home/tienluong/workspace/atlantis_fw/AsicFwS2/include/matrix.h ****     {
 340:/home/tienluong/workspace/atlantis_fw/AsicFwS2/include/matrix.h ****         T len = length(*this);
 341:/home/tienluong/workspace/atlantis_fw/AsicFwS2/include/matrix.h ****         _x /= len;
 342:/home/tienluong/workspace/atlantis_fw/AsicFwS2/include/matrix.h ****         _y /= len;
 343:/home/tienluong/workspace/atlantis_fw/AsicFwS2/include/matrix.h ****         _z /= len;
 344:/home/tienluong/workspace/atlantis_fw/AsicFwS2/include/matrix.h ****         return *this;
 345:/home/tienluong/workspace/atlantis_fw/AsicFwS2/include/matrix.h ****     }
 346:/home/tienluong/workspace/atlantis_fw/AsicFwS2/include/matrix.h **** 
 347:/home/tienluong/workspace/atlantis_fw/AsicFwS2/include/matrix.h **** private:
 348:/home/tienluong/workspace/atlantis_fw/AsicFwS2/include/matrix.h ****     T _x, _y, _z;
 349:/home/tienluong/workspace/atlantis_fw/AsicFwS2/include/matrix.h **** };
 350:/home/tienluong/workspace/atlantis_fw/AsicFwS2/include/matrix.h **** 
 351:/home/tienluong/workspace/atlantis_fw/AsicFwS2/include/matrix.h **** // basic math functions
 352:/home/tienluong/workspace/atlantis_fw/AsicFwS2/include/matrix.h **** template<typename T>
 353:/home/tienluong/workspace/atlantis_fw/AsicFwS2/include/matrix.h **** T min( const Vec3<T> & t ) { return t.min(); }
 354:/home/tienluong/workspace/atlantis_fw/AsicFwS2/include/matrix.h **** 
 355:/home/tienluong/workspace/atlantis_fw/AsicFwS2/include/matrix.h **** template<typename T>
 356:/home/tienluong/workspace/atlantis_fw/AsicFwS2/include/matrix.h **** T max( const Vec3<T> & t ) { return t.max(); }
 357:/home/tienluong/workspace/atlantis_fw/AsicFwS2/include/matrix.h **** 
 358:/home/tienluong/workspace/atlantis_fw/AsicFwS2/include/matrix.h **** template<typename T>
 359:/home/tienluong/workspace/atlantis_fw/AsicFwS2/include/matrix.h **** T sum( const Vec3<T> & t ) { return t.sum(); }
 360:/home/tienluong/workspace/atlantis_fw/AsicFwS2/include/matrix.h **** 
 361:/home/tienluong/workspace/atlantis_fw/AsicFwS2/include/matrix.h **** template<typename T>
 362:/home/tienluong/workspace/atlantis_fw/AsicFwS2/include/matrix.h **** T dot( const Vec3<T> & a, const Vec3<T> & b ) { return a.dot( b ); }
 363:/home/tienluong/workspace/atlantis_fw/AsicFwS2/include/matrix.h **** 
 364:/home/tienluong/workspace/atlantis_fw/AsicFwS2/include/matrix.h **** template<typename T>
 365:/home/tienluong/workspace/atlantis_fw/AsicFwS2/include/matrix.h **** Vec3<T> cross( const Vec3<T> & a, const Vec3<T> & b ) { return a.cross( b ); }
 366:/home/tienluong/workspace/atlantis_fw/AsicFwS2/include/matrix.h **** 
 367:/home/tienluong/workspace/atlantis_fw/AsicFwS2/include/matrix.h **** template<typename T>
 368:/home/tienluong/workspace/atlantis_fw/AsicFwS2/include/matrix.h **** Vec3<T> min( const Vec3<T> & a, const Vec3<T> & b )
 369:/home/tienluong/workspace/atlantis_fw/AsicFwS2/include/matrix.h **** { return { std::min( a.x(), b.x() ), std::min( a.y(), b.y() ), std::min( a.z(), b.z() ) }; }
 370:/home/tienluong/workspace/atlantis_fw/AsicFwS2/include/matrix.h **** 
 371:/home/tienluong/workspace/atlantis_fw/AsicFwS2/include/matrix.h **** // template<typename T, typename U>
 372:/home/tienluong/workspace/atlantis_fw/AsicFwS2/include/matrix.h **** // typename std::enable_if<std::is_arithmetic<U>::value, Vec3<T> >::type
 373:/home/tienluong/workspace/atlantis_fw/AsicFwS2/include/matrix.h **** // min( U a, const Vec3<T> & b )
 374:/home/tienluong/workspace/atlantis_fw/AsicFwS2/include/matrix.h **** // { return min( Vec3<T>( a ), b ); }
 375:/home/tienluong/workspace/atlantis_fw/AsicFwS2/include/matrix.h **** 
 376:/home/tienluong/workspace/atlantis_fw/AsicFwS2/include/matrix.h **** // template<typename T, typename U>
 377:/home/tienluong/workspace/atlantis_fw/AsicFwS2/include/matrix.h **** // typename std::enable_if<std::is_arithmetic<U>::value, Vec3<T> >::type
 378:/home/tienluong/workspace/atlantis_fw/AsicFwS2/include/matrix.h **** // min( const Vec3<T> & a, U b )
 379:/home/tienluong/workspace/atlantis_fw/AsicFwS2/include/matrix.h **** // { return min( a, Vec3<T>( b ) ); }
 380:/home/tienluong/workspace/atlantis_fw/AsicFwS2/include/matrix.h **** 
 381:/home/tienluong/workspace/atlantis_fw/AsicFwS2/include/matrix.h **** // template<typename T>
 382:/home/tienluong/workspace/atlantis_fw/AsicFwS2/include/matrix.h **** // Vec3<T> max( const Vec3<T> & a, const Vec3<T> & b )
 383:/home/tienluong/workspace/atlantis_fw/AsicFwS2/include/matrix.h **** // { return { max( a.x(), b.x() ), max( a.y(), b.y() ), max( a.z(), b.z() ) }; }
 384:/home/tienluong/workspace/atlantis_fw/AsicFwS2/include/matrix.h **** 
 385:/home/tienluong/workspace/atlantis_fw/AsicFwS2/include/matrix.h **** // template<typename T, typename U>
 386:/home/tienluong/workspace/atlantis_fw/AsicFwS2/include/matrix.h **** // typename std::enable_if<std::is_arithmetic<U>::value, Vec3<T> >::type
 387:/home/tienluong/workspace/atlantis_fw/AsicFwS2/include/matrix.h **** // max( U a, const Vec3<T> & b )
 388:/home/tienluong/workspace/atlantis_fw/AsicFwS2/include/matrix.h **** // { return max( Vec3<T>( a ), b ); }
 389:/home/tienluong/workspace/atlantis_fw/AsicFwS2/include/matrix.h **** 
 390:/home/tienluong/workspace/atlantis_fw/AsicFwS2/include/matrix.h **** // template<typename T, typename U>
 391:/home/tienluong/workspace/atlantis_fw/AsicFwS2/include/matrix.h **** // typename std::enable_if<std::is_arithmetic<U>::value, Vec3<T> >::type
 392:/home/tienluong/workspace/atlantis_fw/AsicFwS2/include/matrix.h **** // max( const Vec3<T> & a, U b )
 393:/home/tienluong/workspace/atlantis_fw/AsicFwS2/include/matrix.h **** // { return max( a, Vec3<T>( b ) ); }
 394:/home/tienluong/workspace/atlantis_fw/AsicFwS2/include/matrix.h **** 
 395:/home/tienluong/workspace/atlantis_fw/AsicFwS2/include/matrix.h **** // template<typename T>
 396:/home/tienluong/workspace/atlantis_fw/AsicFwS2/include/matrix.h **** // Vec3<T> clamp( const Vec3<T> & t, const Vec3<T> & min_t, const Vec3<T> & max_t )
 397:/home/tienluong/workspace/atlantis_fw/AsicFwS2/include/matrix.h **** // { return min( max( t, min_t ), max_t ); }
 398:/home/tienluong/workspace/atlantis_fw/AsicFwS2/include/matrix.h **** 
 399:/home/tienluong/workspace/atlantis_fw/AsicFwS2/include/matrix.h **** // template<typename T, typename U>
 400:/home/tienluong/workspace/atlantis_fw/AsicFwS2/include/matrix.h **** // typename std::enable_if<std::is_arithmetic<U>::value, Vec3<T> >::type
 401:/home/tienluong/workspace/atlantis_fw/AsicFwS2/include/matrix.h **** // clamp( const Vec3<T> & t, U min_t, const Vec3<T> & max_t )
 402:/home/tienluong/workspace/atlantis_fw/AsicFwS2/include/matrix.h **** // { return clamp( t, Vec3<T>( min_t ), max_t ); }
 403:/home/tienluong/workspace/atlantis_fw/AsicFwS2/include/matrix.h **** 
 404:/home/tienluong/workspace/atlantis_fw/AsicFwS2/include/matrix.h **** // template<typename T, typename U>
 405:/home/tienluong/workspace/atlantis_fw/AsicFwS2/include/matrix.h **** // typename std::enable_if<std::is_arithmetic<U>::value, Vec3<T> >::type
 406:/home/tienluong/workspace/atlantis_fw/AsicFwS2/include/matrix.h **** // clamp( const Vec3<T> & t, const Vec3<T> & min_t, U max_t )
 407:/home/tienluong/workspace/atlantis_fw/AsicFwS2/include/matrix.h **** // { return clamp( t, min_t, Vec3<T>( max_t ) ); }
 408:/home/tienluong/workspace/atlantis_fw/AsicFwS2/include/matrix.h **** 
 409:/home/tienluong/workspace/atlantis_fw/AsicFwS2/include/matrix.h **** // template<typename T, typename U, typename V>
 410:/home/tienluong/workspace/atlantis_fw/AsicFwS2/include/matrix.h **** // typename std::enable_if < std::is_arithmetic<U>::value && std::is_arithmetic<V>::value, Vec3<T> 
 411:/home/tienluong/workspace/atlantis_fw/AsicFwS2/include/matrix.h **** // clamp( const Vec3<T> & t, U min_t, V max_t )
 412:/home/tienluong/workspace/atlantis_fw/AsicFwS2/include/matrix.h **** // { return clamp( t, Vec3<T>( min_t ), Vec3<T>( max_t ) ); }
 413:/home/tienluong/workspace/atlantis_fw/AsicFwS2/include/matrix.h **** 
 414:/home/tienluong/workspace/atlantis_fw/AsicFwS2/include/matrix.h **** template<typename T>
 415:/home/tienluong/workspace/atlantis_fw/AsicFwS2/include/matrix.h **** Vec3<T> abs( const Vec3<T> & t ) { return t.abs(); }
 416:/home/tienluong/workspace/atlantis_fw/AsicFwS2/include/matrix.h **** 
 417:/home/tienluong/workspace/atlantis_fw/AsicFwS2/include/matrix.h **** // template<typename T>
 418:/home/tienluong/workspace/atlantis_fw/AsicFwS2/include/matrix.h **** // Vec3<T> sign( const Vec3<T> & t ) { return t.sign(); }
 419:/home/tienluong/workspace/atlantis_fw/AsicFwS2/include/matrix.h **** 
 420:/home/tienluong/workspace/atlantis_fw/AsicFwS2/include/matrix.h **** template<typename T>
 421:/home/tienluong/workspace/atlantis_fw/AsicFwS2/include/matrix.h **** typename std::enable_if<std::is_floating_point<T>::value, T>::type
 422:/home/tienluong/workspace/atlantis_fw/AsicFwS2/include/matrix.h **** length( const Vec3<T> & a )
 423:/home/tienluong/workspace/atlantis_fw/AsicFwS2/include/matrix.h **** { return std::sqrt( dot( a, a ) ); }
 424:/home/tienluong/workspace/atlantis_fw/AsicFwS2/include/matrix.h **** 
 425:/home/tienluong/workspace/atlantis_fw/AsicFwS2/include/matrix.h **** template<typename T>
 426:/home/tienluong/workspace/atlantis_fw/AsicFwS2/include/matrix.h **** typename std::enable_if<std::is_floating_point<T>::value, Vec3<T> >::type
 427:/home/tienluong/workspace/atlantis_fw/AsicFwS2/include/matrix.h **** sqrt( const Vec3<T> & a )
 428:/home/tienluong/workspace/atlantis_fw/AsicFwS2/include/matrix.h **** { return { std::sqrt( a.x() ), std::sqrt( a.y() ), std::sqrt( a.z() ) }; }
 429:/home/tienluong/workspace/atlantis_fw/AsicFwS2/include/matrix.h **** 
 430:/home/tienluong/workspace/atlantis_fw/AsicFwS2/include/matrix.h **** template<typename T>
 431:/home/tienluong/workspace/atlantis_fw/AsicFwS2/include/matrix.h **** typename std::enable_if<std::is_floating_point<T>::value, T>::type
 432:/home/tienluong/workspace/atlantis_fw/AsicFwS2/include/matrix.h **** squaredSum( const Vec3<T> & a )
 433:/home/tienluong/workspace/atlantis_fw/AsicFwS2/include/matrix.h **** { return dot( a, a ); }
 434:/home/tienluong/workspace/atlantis_fw/AsicFwS2/include/matrix.h **** 
 435:/home/tienluong/workspace/atlantis_fw/AsicFwS2/include/matrix.h **** template<typename T>
 436:/home/tienluong/workspace/atlantis_fw/AsicFwS2/include/matrix.h **** typename std::enable_if<std::is_floating_point<T>::value, Vec3<T> >::type
 437:/home/tienluong/workspace/atlantis_fw/AsicFwS2/include/matrix.h **** normalize( const Vec3<T> & a )
 438:/home/tienluong/workspace/atlantis_fw/AsicFwS2/include/matrix.h **** {
 439:/home/tienluong/workspace/atlantis_fw/AsicFwS2/include/matrix.h ****     return a / length( a );
 440:/home/tienluong/workspace/atlantis_fw/AsicFwS2/include/matrix.h **** }
 441:/home/tienluong/workspace/atlantis_fw/AsicFwS2/include/matrix.h **** 
 442:/home/tienluong/workspace/atlantis_fw/AsicFwS2/include/matrix.h **** // template<typename T>
 443:/home/tienluong/workspace/atlantis_fw/AsicFwS2/include/matrix.h **** // typename std::enable_if<std::is_floating_point<T>::value, Vec3<T> >::type
 444:/home/tienluong/workspace/atlantis_fw/AsicFwS2/include/matrix.h **** // pow( const Vec3<T> & a, const Vec3<T> & b )
 445:/home/tienluong/workspace/atlantis_fw/AsicFwS2/include/matrix.h **** // { return { std::pow( a.x(), b.x() ), std::pow( a.y(), b.y() ), std::pow( a.z(), b.z() ) }; }
 446:/home/tienluong/workspace/atlantis_fw/AsicFwS2/include/matrix.h **** 
 447:/home/tienluong/workspace/atlantis_fw/AsicFwS2/include/matrix.h **** // template<typename T>
 448:/home/tienluong/workspace/atlantis_fw/AsicFwS2/include/matrix.h **** // typename std::enable_if<std::is_floating_point<T>::value, Vec3<T> >::type
 449:/home/tienluong/workspace/atlantis_fw/AsicFwS2/include/matrix.h **** // pow( const Vec3<T> & a, T  b )
 450:/home/tienluong/workspace/atlantis_fw/AsicFwS2/include/matrix.h **** // { return { std::pow( a.x(), b ), std::pow( a.y(), b ), std::pow( a.z(), b ) }; }
 451:/home/tienluong/workspace/atlantis_fw/AsicFwS2/include/matrix.h **** 
 452:/home/tienluong/workspace/atlantis_fw/AsicFwS2/include/matrix.h **** // template<typename T>
 453:/home/tienluong/workspace/atlantis_fw/AsicFwS2/include/matrix.h **** // typename std::enable_if<std::is_floating_point<T>::value, Vec3<T> >::type
 454:/home/tienluong/workspace/atlantis_fw/AsicFwS2/include/matrix.h **** // pow( T a, const Vec3<T> & b )
 455:/home/tienluong/workspace/atlantis_fw/AsicFwS2/include/matrix.h **** // { return { std::pow( a, b.x() ), std::pow( a, b.y() ), std::pow( a, b.z() ) }; }
 456:/home/tienluong/workspace/atlantis_fw/AsicFwS2/include/matrix.h **** 
 457:/home/tienluong/workspace/atlantis_fw/AsicFwS2/include/matrix.h **** // template<typename T>
 458:/home/tienluong/workspace/atlantis_fw/AsicFwS2/include/matrix.h **** // typename std::enable_if<std::is_floating_point<T>::value, Vec3<T> >::type
 459:/home/tienluong/workspace/atlantis_fw/AsicFwS2/include/matrix.h **** // floor( const Vec3<T> & a )
 460:/home/tienluong/workspace/atlantis_fw/AsicFwS2/include/matrix.h **** // { return { std::floor( a.x() ), std::floor( a.y() ), std::floor( a.z() ) }; }
 461:/home/tienluong/workspace/atlantis_fw/AsicFwS2/include/matrix.h **** 
 462:/home/tienluong/workspace/atlantis_fw/AsicFwS2/include/matrix.h **** // template<typename T>
 463:/home/tienluong/workspace/atlantis_fw/AsicFwS2/include/matrix.h **** // typename std::enable_if<std::is_floating_point<T>::value, Vec3<T> >::type
 464:/home/tienluong/workspace/atlantis_fw/AsicFwS2/include/matrix.h **** // ceil( const Vec3<T> & a )
 465:/home/tienluong/workspace/atlantis_fw/AsicFwS2/include/matrix.h **** // { return { std::ceil( a.x() ), std::ceil( a.y() ), std::ceil( a.z() ) }; }
 466:/home/tienluong/workspace/atlantis_fw/AsicFwS2/include/matrix.h **** 
 467:/home/tienluong/workspace/atlantis_fw/AsicFwS2/include/matrix.h **** 
 468:/home/tienluong/workspace/atlantis_fw/AsicFwS2/include/matrix.h **** // -----------------------------------------------------------
 469:/home/tienluong/workspace/atlantis_fw/AsicFwS2/include/matrix.h **** // 			Vec4 class
 470:/home/tienluong/workspace/atlantis_fw/AsicFwS2/include/matrix.h **** // -----------------------------------------------------------
 471:/home/tienluong/workspace/atlantis_fw/AsicFwS2/include/matrix.h **** template<typename T>
 472:/home/tienluong/workspace/atlantis_fw/AsicFwS2/include/matrix.h **** class Vec4
 473:/home/tienluong/workspace/atlantis_fw/AsicFwS2/include/matrix.h **** {
 474:/home/tienluong/workspace/atlantis_fw/AsicFwS2/include/matrix.h **** public:
 475:/home/tienluong/workspace/atlantis_fw/AsicFwS2/include/matrix.h ****     Vec4() {}
 476:/home/tienluong/workspace/atlantis_fw/AsicFwS2/include/matrix.h ****     Vec4( T t ) : _x( t ), _y( t ), _z( t ), _a( t ) {}
 477:/home/tienluong/workspace/atlantis_fw/AsicFwS2/include/matrix.h ****     Vec4( T x, T y, T z, T a ) : _x( x ), _y( y ), _z( z ), _a ( a ){}
 478:/home/tienluong/workspace/atlantis_fw/AsicFwS2/include/matrix.h ****     Vec4( const Vec4 & t ) : _x( t._x ), _y( t._y ), _z( t._z ), _a( t._a ) {}
 479:/home/tienluong/workspace/atlantis_fw/AsicFwS2/include/matrix.h **** 
 480:/home/tienluong/workspace/atlantis_fw/AsicFwS2/include/matrix.h ****     template<typename U>
 481:/home/tienluong/workspace/atlantis_fw/AsicFwS2/include/matrix.h ****     explicit Vec4( const Vec4<U> & t )
 482:/home/tienluong/workspace/atlantis_fw/AsicFwS2/include/matrix.h ****         : _x( static_cast<T>( t.x() ) )
 483:/home/tienluong/workspace/atlantis_fw/AsicFwS2/include/matrix.h ****         , _y( static_cast<T>( t.y() ) )
 484:/home/tienluong/workspace/atlantis_fw/AsicFwS2/include/matrix.h ****         , _z( static_cast<T>( t.z() ) )
 485:/home/tienluong/workspace/atlantis_fw/AsicFwS2/include/matrix.h ****         , _a( static_cast<T>( t.a() ) ) {}
 486:/home/tienluong/workspace/atlantis_fw/AsicFwS2/include/matrix.h **** 
 487:/home/tienluong/workspace/atlantis_fw/AsicFwS2/include/matrix.h ****     Vec4 & operator=( const Vec4 & t )
 488:/home/tienluong/workspace/atlantis_fw/AsicFwS2/include/matrix.h ****     { _x = t._x; _y = t._y; _z = t._z; _a = t._a; return *this; }
 489:/home/tienluong/workspace/atlantis_fw/AsicFwS2/include/matrix.h **** 
 490:/home/tienluong/workspace/atlantis_fw/AsicFwS2/include/matrix.h ****     Vec4 & operator/=( const Vec4 & t )
 491:/home/tienluong/workspace/atlantis_fw/AsicFwS2/include/matrix.h ****     { _x /= t._x; _y /= t._y; _z /= t._z; _a /= t._a; return *this; }
 492:/home/tienluong/workspace/atlantis_fw/AsicFwS2/include/matrix.h **** 
 493:/home/tienluong/workspace/atlantis_fw/AsicFwS2/include/matrix.h ****     Vec4 & operator%=( const Vec4 & t )
 494:/home/tienluong/workspace/atlantis_fw/AsicFwS2/include/matrix.h ****     { _x %= t._x; _y %= t._y; _z %= t._z; _a %= t._a; return *this; }
 495:/home/tienluong/workspace/atlantis_fw/AsicFwS2/include/matrix.h **** 
 496:/home/tienluong/workspace/atlantis_fw/AsicFwS2/include/matrix.h ****     Vec4 & operator*=( const Vec4 & t )
 497:/home/tienluong/workspace/atlantis_fw/AsicFwS2/include/matrix.h ****     { _x *= t._x; _y *= t._y; _z *= t._z; _a *= t._a; return *this; }
 498:/home/tienluong/workspace/atlantis_fw/AsicFwS2/include/matrix.h **** 
 499:/home/tienluong/workspace/atlantis_fw/AsicFwS2/include/matrix.h ****     Vec4 & operator+=( const Vec4 & t )
 500:/home/tienluong/workspace/atlantis_fw/AsicFwS2/include/matrix.h ****     { _x += t._x; _y += t._y; _z += t._z; _a += t._a; return *this; }
 501:/home/tienluong/workspace/atlantis_fw/AsicFwS2/include/matrix.h **** 
 502:/home/tienluong/workspace/atlantis_fw/AsicFwS2/include/matrix.h ****     Vec4 & operator-=( const Vec4 & t )
 503:/home/tienluong/workspace/atlantis_fw/AsicFwS2/include/matrix.h ****     { _x -= t._x; _y -= t._y; _z -= t._z; _a -= t._a; return *this; }
 504:/home/tienluong/workspace/atlantis_fw/AsicFwS2/include/matrix.h **** 
 505:/home/tienluong/workspace/atlantis_fw/AsicFwS2/include/matrix.h ****     Vec4 operator-() const { return { -_x, -_y, _z, _a}; }
 506:/home/tienluong/workspace/atlantis_fw/AsicFwS2/include/matrix.h **** 
 507:/home/tienluong/workspace/atlantis_fw/AsicFwS2/include/matrix.h ****     Vec4<bool> operator==( const Vec4 & t ) const { return { _x == t._x, _y == t._y, _z == t._z, _a
 508:/home/tienluong/workspace/atlantis_fw/AsicFwS2/include/matrix.h ****     Vec4<bool> operator!=( const Vec4 & t ) const { return { _x != t._x, _y != t._y, _z != t._z, _a
 509:/home/tienluong/workspace/atlantis_fw/AsicFwS2/include/matrix.h ****     Vec4<bool> operator>=( const Vec4 & t ) const { return { _x >= t._x, _y >= t._y, _z >= t._z, _a
 510:/home/tienluong/workspace/atlantis_fw/AsicFwS2/include/matrix.h ****     Vec4<bool> operator>( const  Vec4 & t )  const { return { _x >  t._x, _y >  t._y, _z > t._z, _a
 511:/home/tienluong/workspace/atlantis_fw/AsicFwS2/include/matrix.h ****     Vec4<bool> operator<=( const Vec4 & t ) const { return { _x <= t._x, _y <= t._y, _z <= t._z, _a
 512:/home/tienluong/workspace/atlantis_fw/AsicFwS2/include/matrix.h ****     Vec4<bool> operator<( const  Vec4 & t )  const { return { _x <  t._x, _y <  t._y, _z <  t._z, _
 513:/home/tienluong/workspace/atlantis_fw/AsicFwS2/include/matrix.h **** 
 514:/home/tienluong/workspace/atlantis_fw/AsicFwS2/include/matrix.h ****     T min() const { return std::min( std::min( std::min( _x, _y ), _z ), _a); }
 515:/home/tienluong/workspace/atlantis_fw/AsicFwS2/include/matrix.h ****     T max() const { return std::max( std::max( std::max( _x, _y ), _z ), _a); }
 516:/home/tienluong/workspace/atlantis_fw/AsicFwS2/include/matrix.h ****     T sum() const { return _x + _y + _z + _a; }
 517:/home/tienluong/workspace/atlantis_fw/AsicFwS2/include/matrix.h ****     T dot( const Vec4<T> & t ) const { return _x * t.x() + _y * t.y() + _z * t.z() + _a * t.a(); }
 518:/home/tienluong/workspace/atlantis_fw/AsicFwS2/include/matrix.h **** 
 519:/home/tienluong/workspace/atlantis_fw/AsicFwS2/include/matrix.h ****     Vec4 abs() const { return { std::abs( _x ), std::abs( _y ), std::abs( _z ), std::abs( _a ) }; }
 520:/home/tienluong/workspace/atlantis_fw/AsicFwS2/include/matrix.h **** 
 521:/home/tienluong/workspace/atlantis_fw/AsicFwS2/include/matrix.h ****     const T & x() const { return _x; }
 522:/home/tienluong/workspace/atlantis_fw/AsicFwS2/include/matrix.h ****     const T & y() const { return _y; }
 523:/home/tienluong/workspace/atlantis_fw/AsicFwS2/include/matrix.h ****     const T & z() const { return _z; }
 524:/home/tienluong/workspace/atlantis_fw/AsicFwS2/include/matrix.h ****     const T & a() const { return _a; }
 525:/home/tienluong/workspace/atlantis_fw/AsicFwS2/include/matrix.h **** 
 526:/home/tienluong/workspace/atlantis_fw/AsicFwS2/include/matrix.h ****     void setX( T x ) { _x = x; }
 527:/home/tienluong/workspace/atlantis_fw/AsicFwS2/include/matrix.h ****     void setY( T y ) { _y = y; }
 528:/home/tienluong/workspace/atlantis_fw/AsicFwS2/include/matrix.h ****     void setZ( T z ) { _z = z; }
 529:/home/tienluong/workspace/atlantis_fw/AsicFwS2/include/matrix.h **** 	void setA( T a ) { _a = a; }
 530:/home/tienluong/workspace/atlantis_fw/AsicFwS2/include/matrix.h **** private:
 531:/home/tienluong/workspace/atlantis_fw/AsicFwS2/include/matrix.h ****     T _x, _y, _z, _a;
 532:/home/tienluong/workspace/atlantis_fw/AsicFwS2/include/matrix.h **** };
 533:/home/tienluong/workspace/atlantis_fw/AsicFwS2/include/matrix.h **** 
 534:/home/tienluong/workspace/atlantis_fw/AsicFwS2/include/matrix.h **** 
 535:/home/tienluong/workspace/atlantis_fw/AsicFwS2/include/matrix.h **** using Vec2f = Vec2<float>;
 536:/home/tienluong/workspace/atlantis_fw/AsicFwS2/include/matrix.h **** using Vec2d = Vec2<double>;
 537:/home/tienluong/workspace/atlantis_fw/AsicFwS2/include/matrix.h **** using Vec3u16 = Vec3<std::uint16_t>;
 538:/home/tienluong/workspace/atlantis_fw/AsicFwS2/include/matrix.h **** using Vec3f = Vec3<float>;
 539:/home/tienluong/workspace/atlantis_fw/AsicFwS2/include/matrix.h **** using Vec3d = Vec3<double>;
 540:/home/tienluong/workspace/atlantis_fw/AsicFwS2/include/matrix.h **** using Vec4f = Vec4<float>;
 541:/home/tienluong/workspace/atlantis_fw/AsicFwS2/include/matrix.h **** using Vec4d = Vec4<double>;
 542:/home/tienluong/workspace/atlantis_fw/AsicFwS2/include/matrix.h **** 
 543:/home/tienluong/workspace/atlantis_fw/AsicFwS2/include/matrix.h **** 
 544:/home/tienluong/workspace/atlantis_fw/AsicFwS2/include/matrix.h **** // -----------------------------------------------------------
 545:/home/tienluong/workspace/atlantis_fw/AsicFwS2/include/matrix.h **** // 			Matrix class
 546:/home/tienluong/workspace/atlantis_fw/AsicFwS2/include/matrix.h **** // -----------------------------------------------------------
 547:/home/tienluong/workspace/atlantis_fw/AsicFwS2/include/matrix.h **** namespace Internal
 548:/home/tienluong/workspace/atlantis_fw/AsicFwS2/include/matrix.h **** {
 549:/home/tienluong/workspace/atlantis_fw/AsicFwS2/include/matrix.h **** 
 550:/home/tienluong/workspace/atlantis_fw/AsicFwS2/include/matrix.h **** template<typename T, int R, int C>
 551:/home/tienluong/workspace/atlantis_fw/AsicFwS2/include/matrix.h **** class MatrixStorage
 552:/home/tienluong/workspace/atlantis_fw/AsicFwS2/include/matrix.h **** {
 553:/home/tienluong/workspace/atlantis_fw/AsicFwS2/include/matrix.h **** public:
 554:/home/tienluong/workspace/atlantis_fw/AsicFwS2/include/matrix.h ****     MatrixStorage() {}
 555:/home/tienluong/workspace/atlantis_fw/AsicFwS2/include/matrix.h **** protected:
 556:/home/tienluong/workspace/atlantis_fw/AsicFwS2/include/matrix.h ****     T _data[R * C];
 557:/home/tienluong/workspace/atlantis_fw/AsicFwS2/include/matrix.h **** };
 558:/home/tienluong/workspace/atlantis_fw/AsicFwS2/include/matrix.h **** 
 559:/home/tienluong/workspace/atlantis_fw/AsicFwS2/include/matrix.h **** #if 0
 560:/home/tienluong/workspace/atlantis_fw/AsicFwS2/include/matrix.h **** /// Some Matrix types require aligned storage due to SIMD acceleration
 561:/home/tienluong/workspace/atlantis_fw/AsicFwS2/include/matrix.h **** template<>
 562:/home/tienluong/workspace/atlantis_fw/AsicFwS2/include/matrix.h **** class MatrixStorage<float, 4, 4>
 563:/home/tienluong/workspace/atlantis_fw/AsicFwS2/include/matrix.h **** {
 564:/home/tienluong/workspace/atlantis_fw/AsicFwS2/include/matrix.h **** public:
 565:/home/tienluong/workspace/atlantis_fw/AsicFwS2/include/matrix.h ****     MatrixStorage() {}
 566:/home/tienluong/workspace/atlantis_fw/AsicFwS2/include/matrix.h **** protected:
 567:/home/tienluong/workspace/atlantis_fw/AsicFwS2/include/matrix.h ****     alignas( 16 ) float _data[16];
 568:/home/tienluong/workspace/atlantis_fw/AsicFwS2/include/matrix.h **** };
 569:/home/tienluong/workspace/atlantis_fw/AsicFwS2/include/matrix.h **** #endif
 570:/home/tienluong/workspace/atlantis_fw/AsicFwS2/include/matrix.h **** } // Internal namespace
 571:/home/tienluong/workspace/atlantis_fw/AsicFwS2/include/matrix.h **** 
 572:/home/tienluong/workspace/atlantis_fw/AsicFwS2/include/matrix.h **** template<typename T, int R, int C, bool RowMajor = true>
 573:/home/tienluong/workspace/atlantis_fw/AsicFwS2/include/matrix.h **** class Matrix : public Internal::MatrixStorage<T, R, C>
 574:/home/tienluong/workspace/atlantis_fw/AsicFwS2/include/matrix.h **** {
 575:/home/tienluong/workspace/atlantis_fw/AsicFwS2/include/matrix.h ****     //static_assert( std::is_floating_point<T>::value, "Matrix template class requires floating poi
 576:/home/tienluong/workspace/atlantis_fw/AsicFwS2/include/matrix.h ****     static constexpr int kSize = R * C;
 577:/home/tienluong/workspace/atlantis_fw/AsicFwS2/include/matrix.h **** 
 578:/home/tienluong/workspace/atlantis_fw/AsicFwS2/include/matrix.h ****     static inline constexpr int Idx( int row, int col )
 579:/home/tienluong/workspace/atlantis_fw/AsicFwS2/include/matrix.h ****     {
 580:/home/tienluong/workspace/atlantis_fw/AsicFwS2/include/matrix.h ****         return RowMajor ? row * C + col : col * R + row;
 581:/home/tienluong/workspace/atlantis_fw/AsicFwS2/include/matrix.h ****     }
 582:/home/tienluong/workspace/atlantis_fw/AsicFwS2/include/matrix.h **** 
 583:/home/tienluong/workspace/atlantis_fw/AsicFwS2/include/matrix.h **** public:
 584:/home/tienluong/workspace/atlantis_fw/AsicFwS2/include/matrix.h ****     using ScalarType = T;
 585:/home/tienluong/workspace/atlantis_fw/AsicFwS2/include/matrix.h **** 
 586:/home/tienluong/workspace/atlantis_fw/AsicFwS2/include/matrix.h ****     static constexpr int kRows = R;
 587:/home/tienluong/workspace/atlantis_fw/AsicFwS2/include/matrix.h ****     static constexpr int kCols = C;
 588:/home/tienluong/workspace/atlantis_fw/AsicFwS2/include/matrix.h **** 
 589:/home/tienluong/workspace/atlantis_fw/AsicFwS2/include/matrix.h ****     Matrix() { }
 590:/home/tienluong/workspace/atlantis_fw/AsicFwS2/include/matrix.h **** 
 591:/home/tienluong/workspace/atlantis_fw/AsicFwS2/include/matrix.h ****     Matrix( const Matrix<T, R, C, true> & src ) { *this = src; }
 592:/home/tienluong/workspace/atlantis_fw/AsicFwS2/include/matrix.h **** 
 593:/home/tienluong/workspace/atlantis_fw/AsicFwS2/include/matrix.h ****     Matrix( const Matrix<T, R, C, false> & src ) { *this = src; }
 594:/home/tienluong/workspace/atlantis_fw/AsicFwS2/include/matrix.h **** 
 595:/home/tienluong/workspace/atlantis_fw/AsicFwS2/include/matrix.h ****     /// Input in row-major order.
 596:/home/tienluong/workspace/atlantis_fw/AsicFwS2/include/matrix.h ****     Matrix( std::initializer_list<T> list ) { *this = list; }
 597:/home/tienluong/workspace/atlantis_fw/AsicFwS2/include/matrix.h **** 
 598:/home/tienluong/workspace/atlantis_fw/AsicFwS2/include/matrix.h ****     /// Input in row-major order.
 599:/home/tienluong/workspace/atlantis_fw/AsicFwS2/include/matrix.h ****     explicit Matrix( const std::vector<T> & data ) { *this = data; }
 600:/home/tienluong/workspace/atlantis_fw/AsicFwS2/include/matrix.h **** 
 601:/home/tienluong/workspace/atlantis_fw/AsicFwS2/include/matrix.h ****     /// Input in row-major order.
 602:/home/tienluong/workspace/atlantis_fw/AsicFwS2/include/matrix.h ****     explicit Matrix( const T * ptr )
 603:/home/tienluong/workspace/atlantis_fw/AsicFwS2/include/matrix.h ****     {
 604:/home/tienluong/workspace/atlantis_fw/AsicFwS2/include/matrix.h ****         for( int i = 0; i < R; ++i )
 605:/home/tienluong/workspace/atlantis_fw/AsicFwS2/include/matrix.h ****         {
 606:/home/tienluong/workspace/atlantis_fw/AsicFwS2/include/matrix.h ****             for( int j = 0; j < C; ++j )
 607:/home/tienluong/workspace/atlantis_fw/AsicFwS2/include/matrix.h ****             { this->_data[Idx( i, j )] = ptr[i * C + j]; }
 608:/home/tienluong/workspace/atlantis_fw/AsicFwS2/include/matrix.h ****         }
 609:/home/tienluong/workspace/atlantis_fw/AsicFwS2/include/matrix.h ****     }
 610:/home/tienluong/workspace/atlantis_fw/AsicFwS2/include/matrix.h **** 
 611:/home/tienluong/workspace/atlantis_fw/AsicFwS2/include/matrix.h ****     // generic size/type converting constructor
 612:/home/tienluong/workspace/atlantis_fw/AsicFwS2/include/matrix.h ****     // performs matrix truncation/expansion if necessary
 613:/home/tienluong/workspace/atlantis_fw/AsicFwS2/include/matrix.h ****     template<typename U, int M, int N, bool D>
 614:/home/tienluong/workspace/atlantis_fw/AsicFwS2/include/matrix.h ****     explicit Matrix( const Matrix<U, M, N, D> & src )
 615:/home/tienluong/workspace/atlantis_fw/AsicFwS2/include/matrix.h ****     {
 616:/home/tienluong/workspace/atlantis_fw/AsicFwS2/include/matrix.h ****         constexpr int kMinRow = M < R ? M : R;
 617:/home/tienluong/workspace/atlantis_fw/AsicFwS2/include/matrix.h ****         constexpr int kMinCol = N < C ? N : C;
 618:/home/tienluong/workspace/atlantis_fw/AsicFwS2/include/matrix.h ****         for( int i = 0; i < kMinRow; ++i )
 619:/home/tienluong/workspace/atlantis_fw/AsicFwS2/include/matrix.h ****         {
 620:/home/tienluong/workspace/atlantis_fw/AsicFwS2/include/matrix.h ****             for( int j = 0; j < kMinCol; ++j )
 621:/home/tienluong/workspace/atlantis_fw/AsicFwS2/include/matrix.h ****             { this->_data[Idx( i, j )] = static_cast<T>( src( i, j ) ); }
 622:/home/tienluong/workspace/atlantis_fw/AsicFwS2/include/matrix.h ****             for( int j = kMinCol; j < C; ++j )
 623:/home/tienluong/workspace/atlantis_fw/AsicFwS2/include/matrix.h ****             { this->_data[Idx( i, j )] = i == j ? T{1} : T{0}; }
 624:/home/tienluong/workspace/atlantis_fw/AsicFwS2/include/matrix.h ****         }
 625:/home/tienluong/workspace/atlantis_fw/AsicFwS2/include/matrix.h ****         for( int i = kMinRow; i < R; ++i )
 626:/home/tienluong/workspace/atlantis_fw/AsicFwS2/include/matrix.h ****         {
 627:/home/tienluong/workspace/atlantis_fw/AsicFwS2/include/matrix.h ****             for( int j = 0; j < C; ++j )
 628:/home/tienluong/workspace/atlantis_fw/AsicFwS2/include/matrix.h ****             { this->_data[Idx( i, j )] = i == j ? T{1} : T{0}; }
 629:/home/tienluong/workspace/atlantis_fw/AsicFwS2/include/matrix.h ****         }
 630:/home/tienluong/workspace/atlantis_fw/AsicFwS2/include/matrix.h ****     }
 631:/home/tienluong/workspace/atlantis_fw/AsicFwS2/include/matrix.h **** 
 632:/home/tienluong/workspace/atlantis_fw/AsicFwS2/include/matrix.h ****     template<int M, int N, bool D>
 633:/home/tienluong/workspace/atlantis_fw/AsicFwS2/include/matrix.h ****     Matrix & operator=( const Matrix<T, M, N, D> & src )
 634:/home/tienluong/workspace/atlantis_fw/AsicFwS2/include/matrix.h ****     {
 635:/home/tienluong/workspace/atlantis_fw/AsicFwS2/include/matrix.h ****         static_assert( R == M && C == N, "matrix size mismatch!" );
 636:/home/tienluong/workspace/atlantis_fw/AsicFwS2/include/matrix.h ****         if( RowMajor == D )
 637:/home/tienluong/workspace/atlantis_fw/AsicFwS2/include/matrix.h ****         {
 638:/home/tienluong/workspace/atlantis_fw/AsicFwS2/include/matrix.h ****             // same element ordering, just copy the elements
 639:/home/tienluong/workspace/atlantis_fw/AsicFwS2/include/matrix.h ****             const T * src_ptr = src.data();
 640:/home/tienluong/workspace/atlantis_fw/AsicFwS2/include/matrix.h ****             for( int i = 0; i < kSize; ++i ) { this->_data[i] = src_ptr[i]; }
 641:/home/tienluong/workspace/atlantis_fw/AsicFwS2/include/matrix.h ****         }
 642:/home/tienluong/workspace/atlantis_fw/AsicFwS2/include/matrix.h ****         else
 643:/home/tienluong/workspace/atlantis_fw/AsicFwS2/include/matrix.h ****         {
 644:/home/tienluong/workspace/atlantis_fw/AsicFwS2/include/matrix.h ****             // different element ordering requires a transpose
 645:/home/tienluong/workspace/atlantis_fw/AsicFwS2/include/matrix.h ****             for( int i = 0; i < R; ++i )
 646:/home/tienluong/workspace/atlantis_fw/AsicFwS2/include/matrix.h ****             {
 647:/home/tienluong/workspace/atlantis_fw/AsicFwS2/include/matrix.h ****                 for( int j = 0; j < C; ++j )
 648:/home/tienluong/workspace/atlantis_fw/AsicFwS2/include/matrix.h ****                 { this->_data[Idx( i, j )] = src( i, j ); }
 649:/home/tienluong/workspace/atlantis_fw/AsicFwS2/include/matrix.h ****             }
 650:/home/tienluong/workspace/atlantis_fw/AsicFwS2/include/matrix.h ****         }
 651:/home/tienluong/workspace/atlantis_fw/AsicFwS2/include/matrix.h ****         return *this;
 652:/home/tienluong/workspace/atlantis_fw/AsicFwS2/include/matrix.h ****     }
 653:/home/tienluong/workspace/atlantis_fw/AsicFwS2/include/matrix.h **** 
 654:/home/tienluong/workspace/atlantis_fw/AsicFwS2/include/matrix.h ****     /// Input in row-major order.
 655:/home/tienluong/workspace/atlantis_fw/AsicFwS2/include/matrix.h ****     Matrix & operator=( const std::vector<T> & src )
 656:/home/tienluong/workspace/atlantis_fw/AsicFwS2/include/matrix.h ****     {
 657:/home/tienluong/workspace/atlantis_fw/AsicFwS2/include/matrix.h ****         //if( src.size() != kSize )
 658:/home/tienluong/workspace/atlantis_fw/AsicFwS2/include/matrix.h ****         //{ LT_THROW( "source data and matrix size mismatch!" ); }
 659:/home/tienluong/workspace/atlantis_fw/AsicFwS2/include/matrix.h **** 
 660:/home/tienluong/workspace/atlantis_fw/AsicFwS2/include/matrix.h ****         auto it = src.begin();
 661:/home/tienluong/workspace/atlantis_fw/AsicFwS2/include/matrix.h ****         for( int i = 0; i < R; ++i )
 662:/home/tienluong/workspace/atlantis_fw/AsicFwS2/include/matrix.h ****         {
 663:/home/tienluong/workspace/atlantis_fw/AsicFwS2/include/matrix.h ****             for( int j = 0; j < C; ++j, ++it )
 664:/home/tienluong/workspace/atlantis_fw/AsicFwS2/include/matrix.h ****             { this->_data[Idx( i, j )] = *it; }
 665:/home/tienluong/workspace/atlantis_fw/AsicFwS2/include/matrix.h ****         }
 666:/home/tienluong/workspace/atlantis_fw/AsicFwS2/include/matrix.h **** 
 667:/home/tienluong/workspace/atlantis_fw/AsicFwS2/include/matrix.h ****         return *this;
 668:/home/tienluong/workspace/atlantis_fw/AsicFwS2/include/matrix.h ****     }
 669:/home/tienluong/workspace/atlantis_fw/AsicFwS2/include/matrix.h **** 
 670:/home/tienluong/workspace/atlantis_fw/AsicFwS2/include/matrix.h ****     /// Input in row-major order.
 671:/home/tienluong/workspace/atlantis_fw/AsicFwS2/include/matrix.h ****     Matrix & operator=( const std::initializer_list<T> src )
 672:/home/tienluong/workspace/atlantis_fw/AsicFwS2/include/matrix.h ****     {
 673:/home/tienluong/workspace/atlantis_fw/AsicFwS2/include/matrix.h ****         //if( src.size() != kSize )
 674:/home/tienluong/workspace/atlantis_fw/AsicFwS2/include/matrix.h ****         //{ LT_THROW( "source data and matrix size mismatch!" ); }
 675:/home/tienluong/workspace/atlantis_fw/AsicFwS2/include/matrix.h **** 
 676:/home/tienluong/workspace/atlantis_fw/AsicFwS2/include/matrix.h ****         auto it = src.begin();
 677:/home/tienluong/workspace/atlantis_fw/AsicFwS2/include/matrix.h ****         for( int i = 0; i < R; ++i )
 678:/home/tienluong/workspace/atlantis_fw/AsicFwS2/include/matrix.h ****         {
 679:/home/tienluong/workspace/atlantis_fw/AsicFwS2/include/matrix.h ****             for( int j = 0; j < C; ++j, ++it )
 680:/home/tienluong/workspace/atlantis_fw/AsicFwS2/include/matrix.h ****             { this->_data[Idx( i, j )] = *it; }
 681:/home/tienluong/workspace/atlantis_fw/AsicFwS2/include/matrix.h ****         }
 682:/home/tienluong/workspace/atlantis_fw/AsicFwS2/include/matrix.h **** 
 683:/home/tienluong/workspace/atlantis_fw/AsicFwS2/include/matrix.h ****         return *this;
 684:/home/tienluong/workspace/atlantis_fw/AsicFwS2/include/matrix.h ****     }
 685:/home/tienluong/workspace/atlantis_fw/AsicFwS2/include/matrix.h **** 
 686:/home/tienluong/workspace/atlantis_fw/AsicFwS2/include/matrix.h ****     Matrix & operator=( T scalar )
 687:/home/tienluong/workspace/atlantis_fw/AsicFwS2/include/matrix.h ****     {
 688:/home/tienluong/workspace/atlantis_fw/AsicFwS2/include/matrix.h ****         for( int i = 0; i < kSize; ++i ) { this->_data[i] = scalar; }
 689:/home/tienluong/workspace/atlantis_fw/AsicFwS2/include/matrix.h ****         return *this;
 690:/home/tienluong/workspace/atlantis_fw/AsicFwS2/include/matrix.h ****     }
 691:/home/tienluong/workspace/atlantis_fw/AsicFwS2/include/matrix.h **** 
 692:/home/tienluong/workspace/atlantis_fw/AsicFwS2/include/matrix.h ****     template<typename U, int M, int N, bool D>
 693:/home/tienluong/workspace/atlantis_fw/AsicFwS2/include/matrix.h ****     bool operator==( const Matrix<U, M, N, D> & mat ) const
 694:/home/tienluong/workspace/atlantis_fw/AsicFwS2/include/matrix.h ****     {
 695:/home/tienluong/workspace/atlantis_fw/AsicFwS2/include/matrix.h ****         static_assert( R == M && C == N, "matrix size mismatch!" );
 696:/home/tienluong/workspace/atlantis_fw/AsicFwS2/include/matrix.h ****         for( int i = 0; i < R; ++i )
 697:/home/tienluong/workspace/atlantis_fw/AsicFwS2/include/matrix.h ****         {
 698:/home/tienluong/workspace/atlantis_fw/AsicFwS2/include/matrix.h ****             for( int j = 0; j < C; ++j )
 699:/home/tienluong/workspace/atlantis_fw/AsicFwS2/include/matrix.h ****             { if( this->_data[Idx( i, j )] != mat( i, j ) ) { return false; } }
 700:/home/tienluong/workspace/atlantis_fw/AsicFwS2/include/matrix.h ****         }
 701:/home/tienluong/workspace/atlantis_fw/AsicFwS2/include/matrix.h ****         return true;
 702:/home/tienluong/workspace/atlantis_fw/AsicFwS2/include/matrix.h ****     }
 703:/home/tienluong/workspace/atlantis_fw/AsicFwS2/include/matrix.h **** 
 704:/home/tienluong/workspace/atlantis_fw/AsicFwS2/include/matrix.h ****     template<typename U, int M, int N, bool D>
 705:/home/tienluong/workspace/atlantis_fw/AsicFwS2/include/matrix.h ****     bool operator!=( const Matrix<U, M, N, D> & mat ) const
 706:/home/tienluong/workspace/atlantis_fw/AsicFwS2/include/matrix.h ****     { return !( *this == mat ); }
 707:/home/tienluong/workspace/atlantis_fw/AsicFwS2/include/matrix.h **** 
 708:/home/tienluong/workspace/atlantis_fw/AsicFwS2/include/matrix.h ****     const T * data() const { return this->_data; }
 709:/home/tienluong/workspace/atlantis_fw/AsicFwS2/include/matrix.h ****     T * data() { return this->_data; }
 710:/home/tienluong/workspace/atlantis_fw/AsicFwS2/include/matrix.h **** 
 711:/home/tienluong/workspace/atlantis_fw/AsicFwS2/include/matrix.h ****     T & operator()( int r, int c ) { return this->_data[Idx( r, c )]; }
 712:/home/tienluong/workspace/atlantis_fw/AsicFwS2/include/matrix.h ****     const T & operator()( int r, int c ) const { return this->_data[Idx( r, c )]; }
 713:/home/tienluong/workspace/atlantis_fw/AsicFwS2/include/matrix.h **** 
 714:/home/tienluong/workspace/atlantis_fw/AsicFwS2/include/matrix.h ****     template<int M, int N, bool D>
 715:/home/tienluong/workspace/atlantis_fw/AsicFwS2/include/matrix.h ****     Matrix<T, R, N> operator*( const Matrix<T, M, N, D> & mat ) const
 716:/home/tienluong/workspace/atlantis_fw/AsicFwS2/include/matrix.h ****     {
 717:/home/tienluong/workspace/atlantis_fw/AsicFwS2/include/matrix.h ****         static_assert( C == M, "invalid matrix product!" );
 718:/home/tienluong/workspace/atlantis_fw/AsicFwS2/include/matrix.h ****         Matrix<T, R, N> rval;
 719:/home/tienluong/workspace/atlantis_fw/AsicFwS2/include/matrix.h **** 
 720:/home/tienluong/workspace/atlantis_fw/AsicFwS2/include/matrix.h ****         // XXX: is this code actually more SIMD-friendly than a naive implementation?
 721:/home/tienluong/workspace/atlantis_fw/AsicFwS2/include/matrix.h ****         for( int i = 0; i < R; ++i )
 722:/home/tienluong/workspace/atlantis_fw/AsicFwS2/include/matrix.h ****         {
 723:/home/tienluong/workspace/atlantis_fw/AsicFwS2/include/matrix.h ****             // set 1st row
 724:/home/tienluong/workspace/atlantis_fw/AsicFwS2/include/matrix.h ****             for( int j = 0; j < N; ++j )
 725:/home/tienluong/workspace/atlantis_fw/AsicFwS2/include/matrix.h ****             { rval( i, j ) = this->_data[Idx( i, 0 )] * mat( 0, j ); }
 726:/home/tienluong/workspace/atlantis_fw/AsicFwS2/include/matrix.h ****             // accum n-th row
 727:/home/tienluong/workspace/atlantis_fw/AsicFwS2/include/matrix.h ****             for( int k = 1; k < M; ++k )
 728:/home/tienluong/workspace/atlantis_fw/AsicFwS2/include/matrix.h ****             {
 729:/home/tienluong/workspace/atlantis_fw/AsicFwS2/include/matrix.h ****                 for( int j = 0; j < N; ++j )
 730:/home/tienluong/workspace/atlantis_fw/AsicFwS2/include/matrix.h ****                 { rval( i, j ) += this->_data[Idx( i, k )] * mat( k, j ); }
 731:/home/tienluong/workspace/atlantis_fw/AsicFwS2/include/matrix.h ****             }
 732:/home/tienluong/workspace/atlantis_fw/AsicFwS2/include/matrix.h ****         }
 733:/home/tienluong/workspace/atlantis_fw/AsicFwS2/include/matrix.h ****         return rval;
 734:/home/tienluong/workspace/atlantis_fw/AsicFwS2/include/matrix.h ****     }
 735:/home/tienluong/workspace/atlantis_fw/AsicFwS2/include/matrix.h **** 
 736:/home/tienluong/workspace/atlantis_fw/AsicFwS2/include/matrix.h ****     template<int M, int N, bool D>
 737:/home/tienluong/workspace/atlantis_fw/AsicFwS2/include/matrix.h ****     Matrix & operator *=( const Matrix<T, M, N, D> & mat )
 738:/home/tienluong/workspace/atlantis_fw/AsicFwS2/include/matrix.h ****     {
 739:/home/tienluong/workspace/atlantis_fw/AsicFwS2/include/matrix.h ****         *this = *this * mat;
 740:/home/tienluong/workspace/atlantis_fw/AsicFwS2/include/matrix.h ****         return *this;
 741:/home/tienluong/workspace/atlantis_fw/AsicFwS2/include/matrix.h ****     }
 742:/home/tienluong/workspace/atlantis_fw/AsicFwS2/include/matrix.h **** 
 743:/home/tienluong/workspace/atlantis_fw/AsicFwS2/include/matrix.h ****     template<int M, int N, bool D>
 744:/home/tienluong/workspace/atlantis_fw/AsicFwS2/include/matrix.h ****     Matrix & operator +=( const Matrix<T, M, N, D> & mat )
 745:/home/tienluong/workspace/atlantis_fw/AsicFwS2/include/matrix.h ****     {
 746:/home/tienluong/workspace/atlantis_fw/AsicFwS2/include/matrix.h ****         static_assert( R == M && C == N, "matrix size mismatch!" );
 747:/home/tienluong/workspace/atlantis_fw/AsicFwS2/include/matrix.h ****         for( int i = 0; i < R; ++i )
 748:/home/tienluong/workspace/atlantis_fw/AsicFwS2/include/matrix.h ****         {
 749:/home/tienluong/workspace/atlantis_fw/AsicFwS2/include/matrix.h ****             for( int j = 0; j < C; ++j )
 750:/home/tienluong/workspace/atlantis_fw/AsicFwS2/include/matrix.h ****             { this->_data[Idx( i, j )] += mat( i, j ); }
 751:/home/tienluong/workspace/atlantis_fw/AsicFwS2/include/matrix.h ****         }
 752:/home/tienluong/workspace/atlantis_fw/AsicFwS2/include/matrix.h ****         return *this;
 753:/home/tienluong/workspace/atlantis_fw/AsicFwS2/include/matrix.h ****     }
 754:/home/tienluong/workspace/atlantis_fw/AsicFwS2/include/matrix.h **** 
 755:/home/tienluong/workspace/atlantis_fw/AsicFwS2/include/matrix.h ****     template<int M, int N, bool D>
 756:/home/tienluong/workspace/atlantis_fw/AsicFwS2/include/matrix.h ****     Matrix & operator -=( const Matrix<T, M, N, D> & mat )
 757:/home/tienluong/workspace/atlantis_fw/AsicFwS2/include/matrix.h ****     {
 758:/home/tienluong/workspace/atlantis_fw/AsicFwS2/include/matrix.h ****         static_assert( R == M && C == N, "matrix size mismatch!" );
 759:/home/tienluong/workspace/atlantis_fw/AsicFwS2/include/matrix.h ****         for( int i = 0; i < R; ++i )
 760:/home/tienluong/workspace/atlantis_fw/AsicFwS2/include/matrix.h ****         {
 761:/home/tienluong/workspace/atlantis_fw/AsicFwS2/include/matrix.h ****             for( int j = 0; j < C; ++j )
 762:/home/tienluong/workspace/atlantis_fw/AsicFwS2/include/matrix.h ****             { this->_data[Idx( i, j )] -= mat( i, j ); }
 763:/home/tienluong/workspace/atlantis_fw/AsicFwS2/include/matrix.h ****         }
 764:/home/tienluong/workspace/atlantis_fw/AsicFwS2/include/matrix.h ****         return *this;
 765:/home/tienluong/workspace/atlantis_fw/AsicFwS2/include/matrix.h ****     }
 766:/home/tienluong/workspace/atlantis_fw/AsicFwS2/include/matrix.h **** 
 767:/home/tienluong/workspace/atlantis_fw/AsicFwS2/include/matrix.h ****     Matrix & operator *=( T scalar )
 768:/home/tienluong/workspace/atlantis_fw/AsicFwS2/include/matrix.h ****     {
 769:/home/tienluong/workspace/atlantis_fw/AsicFwS2/include/matrix.h ****         for( int i = 0; i < kSize; ++i ) { this->_data[i] *= scalar; }
 770:/home/tienluong/workspace/atlantis_fw/AsicFwS2/include/matrix.h ****         return *this;
 771:/home/tienluong/workspace/atlantis_fw/AsicFwS2/include/matrix.h ****     }
 772:/home/tienluong/workspace/atlantis_fw/AsicFwS2/include/matrix.h **** 
 773:/home/tienluong/workspace/atlantis_fw/AsicFwS2/include/matrix.h ****     Matrix & operator +=( T scalar )
 774:/home/tienluong/workspace/atlantis_fw/AsicFwS2/include/matrix.h ****     {
 775:/home/tienluong/workspace/atlantis_fw/AsicFwS2/include/matrix.h ****         for( int i = 0; i < kSize; ++i ) { this->_data[i] += scalar; }
 776:/home/tienluong/workspace/atlantis_fw/AsicFwS2/include/matrix.h ****         return *this;
 777:/home/tienluong/workspace/atlantis_fw/AsicFwS2/include/matrix.h ****     }
 778:/home/tienluong/workspace/atlantis_fw/AsicFwS2/include/matrix.h **** 
 779:/home/tienluong/workspace/atlantis_fw/AsicFwS2/include/matrix.h ****     Matrix & operator /=( T scalar )
 780:/home/tienluong/workspace/atlantis_fw/AsicFwS2/include/matrix.h ****     {
 781:/home/tienluong/workspace/atlantis_fw/AsicFwS2/include/matrix.h ****         scalar = 1.0f / scalar;
 782:/home/tienluong/workspace/atlantis_fw/AsicFwS2/include/matrix.h ****         for( int i = 0; i < kSize; ++i ) { this->_data[i] *= scalar; }
 783:/home/tienluong/workspace/atlantis_fw/AsicFwS2/include/matrix.h ****         return *this;
 784:/home/tienluong/workspace/atlantis_fw/AsicFwS2/include/matrix.h ****     }
 785:/home/tienluong/workspace/atlantis_fw/AsicFwS2/include/matrix.h **** 
 786:/home/tienluong/workspace/atlantis_fw/AsicFwS2/include/matrix.h ****     Matrix & operator -=( T scalar )
 787:/home/tienluong/workspace/atlantis_fw/AsicFwS2/include/matrix.h ****     {
 788:/home/tienluong/workspace/atlantis_fw/AsicFwS2/include/matrix.h ****         for( int i = 0; i < kSize; ++i ) { this->_data[i] -= scalar; }
 789:/home/tienluong/workspace/atlantis_fw/AsicFwS2/include/matrix.h ****         return *this;
 790:/home/tienluong/workspace/atlantis_fw/AsicFwS2/include/matrix.h ****     }
 791:/home/tienluong/workspace/atlantis_fw/AsicFwS2/include/matrix.h **** 
 792:/home/tienluong/workspace/atlantis_fw/AsicFwS2/include/matrix.h ****     template<int M, int N, bool D>
 793:/home/tienluong/workspace/atlantis_fw/AsicFwS2/include/matrix.h ****     Matrix operator+( const Matrix<T, M, N, D> & mat ) const
 794:/home/tienluong/workspace/atlantis_fw/AsicFwS2/include/matrix.h ****     { Matrix rval{*this}; rval += mat; return rval; }
 795:/home/tienluong/workspace/atlantis_fw/AsicFwS2/include/matrix.h **** 
 796:/home/tienluong/workspace/atlantis_fw/AsicFwS2/include/matrix.h ****     template<int M, int N, bool D>
 797:/home/tienluong/workspace/atlantis_fw/AsicFwS2/include/matrix.h ****     Matrix operator-( const Matrix<T, M, N, D> & mat ) const
 798:/home/tienluong/workspace/atlantis_fw/AsicFwS2/include/matrix.h ****     { Matrix rval{*this}; rval -= mat; return rval; }
 799:/home/tienluong/workspace/atlantis_fw/AsicFwS2/include/matrix.h **** 
 800:/home/tienluong/workspace/atlantis_fw/AsicFwS2/include/matrix.h ****     Matrix operator*( T scalar ) const
 801:/home/tienluong/workspace/atlantis_fw/AsicFwS2/include/matrix.h ****     { Matrix rval{*this}; rval *= scalar; return rval; }
 802:/home/tienluong/workspace/atlantis_fw/AsicFwS2/include/matrix.h **** 
 803:/home/tienluong/workspace/atlantis_fw/AsicFwS2/include/matrix.h ****     Matrix operator+( T scalar ) const
 804:/home/tienluong/workspace/atlantis_fw/AsicFwS2/include/matrix.h ****     { Matrix rval{*this}; rval += scalar; return rval; }
 805:/home/tienluong/workspace/atlantis_fw/AsicFwS2/include/matrix.h **** 
 806:/home/tienluong/workspace/atlantis_fw/AsicFwS2/include/matrix.h ****     Matrix operator-( T scalar ) const
 807:/home/tienluong/workspace/atlantis_fw/AsicFwS2/include/matrix.h ****     { Matrix rval{*this}; rval -= scalar; return rval; }
 808:/home/tienluong/workspace/atlantis_fw/AsicFwS2/include/matrix.h **** 
 809:/home/tienluong/workspace/atlantis_fw/AsicFwS2/include/matrix.h ****     Matrix operator/( T scalar ) const
 810:/home/tienluong/workspace/atlantis_fw/AsicFwS2/include/matrix.h ****     { Matrix rval{*this}; rval /= scalar; return rval; }
 811:/home/tienluong/workspace/atlantis_fw/AsicFwS2/include/matrix.h **** 
 812:/home/tienluong/workspace/atlantis_fw/AsicFwS2/include/matrix.h ****     Matrix<T, 1, C> row( int i ) const
 813:/home/tienluong/workspace/atlantis_fw/AsicFwS2/include/matrix.h ****     {
 814:/home/tienluong/workspace/atlantis_fw/AsicFwS2/include/matrix.h ****         Matrix<T, 1, C> rval;
 815:/home/tienluong/workspace/atlantis_fw/AsicFwS2/include/matrix.h ****         for( int j = 0; j < C; ++j ) { rval( 0, j ) = this->_data[Idx( i, j )]; }
 816:/home/tienluong/workspace/atlantis_fw/AsicFwS2/include/matrix.h ****         return rval;
 817:/home/tienluong/workspace/atlantis_fw/AsicFwS2/include/matrix.h ****     }
 818:/home/tienluong/workspace/atlantis_fw/AsicFwS2/include/matrix.h **** 
 819:/home/tienluong/workspace/atlantis_fw/AsicFwS2/include/matrix.h ****     Matrix<T, 1, C> column( int i ) const
 820:/home/tienluong/workspace/atlantis_fw/AsicFwS2/include/matrix.h ****     {
 821:/home/tienluong/workspace/atlantis_fw/AsicFwS2/include/matrix.h ****         Matrix<T, R, 1> rval;
 822:/home/tienluong/workspace/atlantis_fw/AsicFwS2/include/matrix.h ****         for( int j = 0; j < R; ++j ) { rval( j, 0 ) = this->_data[Idx( j, i )]; }
 823:/home/tienluong/workspace/atlantis_fw/AsicFwS2/include/matrix.h ****         return rval;
 824:/home/tienluong/workspace/atlantis_fw/AsicFwS2/include/matrix.h ****     }
 825:/home/tienluong/workspace/atlantis_fw/AsicFwS2/include/matrix.h **** 
 826:/home/tienluong/workspace/atlantis_fw/AsicFwS2/include/matrix.h ****     Matrix & swapRow( int i, int j )
 827:/home/tienluong/workspace/atlantis_fw/AsicFwS2/include/matrix.h ****     {
 828:/home/tienluong/workspace/atlantis_fw/AsicFwS2/include/matrix.h ****         using std::swap;
 829:/home/tienluong/workspace/atlantis_fw/AsicFwS2/include/matrix.h ****         for( int k = 0; k < C; ++k )
 830:/home/tienluong/workspace/atlantis_fw/AsicFwS2/include/matrix.h ****         { swap( this->_data[Idx( i, k )], this->_data[Idx( j, k )] ); }
 831:/home/tienluong/workspace/atlantis_fw/AsicFwS2/include/matrix.h ****         return *this;
 832:/home/tienluong/workspace/atlantis_fw/AsicFwS2/include/matrix.h ****     }
 833:/home/tienluong/workspace/atlantis_fw/AsicFwS2/include/matrix.h **** 
 834:/home/tienluong/workspace/atlantis_fw/AsicFwS2/include/matrix.h ****     Matrix & swapColumn( int i, int j )
 835:/home/tienluong/workspace/atlantis_fw/AsicFwS2/include/matrix.h ****     {
 836:/home/tienluong/workspace/atlantis_fw/AsicFwS2/include/matrix.h ****         using std::swap;
 837:/home/tienluong/workspace/atlantis_fw/AsicFwS2/include/matrix.h ****         for( int k = 0; k < R; ++k )
 838:/home/tienluong/workspace/atlantis_fw/AsicFwS2/include/matrix.h ****         { swap( this->_data[Idx( k, i )], this->_data[Idx( k, j )] ); }
 839:/home/tienluong/workspace/atlantis_fw/AsicFwS2/include/matrix.h ****         return *this;
 840:/home/tienluong/workspace/atlantis_fw/AsicFwS2/include/matrix.h ****     }
 841:/home/tienluong/workspace/atlantis_fw/AsicFwS2/include/matrix.h **** 
 842:/home/tienluong/workspace/atlantis_fw/AsicFwS2/include/matrix.h ****     T sum() const
 843:/home/tienluong/workspace/atlantis_fw/AsicFwS2/include/matrix.h ****     {
 844:/home/tienluong/workspace/atlantis_fw/AsicFwS2/include/matrix.h ****         T sum = this->_data[0];
 845:/home/tienluong/workspace/atlantis_fw/AsicFwS2/include/matrix.h ****         for( int j = 1; j < kSize; ++j ) { sum += this->_data[j]; }
 846:/home/tienluong/workspace/atlantis_fw/AsicFwS2/include/matrix.h ****         return sum;
 847:/home/tienluong/workspace/atlantis_fw/AsicFwS2/include/matrix.h ****     }
 848:/home/tienluong/workspace/atlantis_fw/AsicFwS2/include/matrix.h **** 
 849:/home/tienluong/workspace/atlantis_fw/AsicFwS2/include/matrix.h ****     Matrix & setIdentity()
 850:/home/tienluong/workspace/atlantis_fw/AsicFwS2/include/matrix.h ****     {
 851:/home/tienluong/workspace/atlantis_fw/AsicFwS2/include/matrix.h ****         for( int i = 0; i < R; ++i )
 852:/home/tienluong/workspace/atlantis_fw/AsicFwS2/include/matrix.h ****         {
 853:/home/tienluong/workspace/atlantis_fw/AsicFwS2/include/matrix.h ****             for( int j = 0; j < C; ++j )
 854:/home/tienluong/workspace/atlantis_fw/AsicFwS2/include/matrix.h ****             { this->_data[Idx( i, j )] = i == j ? T{1} : T{0}; }
 855:/home/tienluong/workspace/atlantis_fw/AsicFwS2/include/matrix.h ****         }
 856:/home/tienluong/workspace/atlantis_fw/AsicFwS2/include/matrix.h ****         return *this;
 857:/home/tienluong/workspace/atlantis_fw/AsicFwS2/include/matrix.h ****     }
 858:/home/tienluong/workspace/atlantis_fw/AsicFwS2/include/matrix.h **** 
 859:/home/tienluong/workspace/atlantis_fw/AsicFwS2/include/matrix.h ****     const Matrix < T, C, R, !RowMajor > & transpose() const
 860:/home/tienluong/workspace/atlantis_fw/AsicFwS2/include/matrix.h ****     {
 861:/home/tienluong/workspace/atlantis_fw/AsicFwS2/include/matrix.h ****         return *reinterpret_cast < const Matrix < T, C, R, !RowMajor > * >( this );
 862:/home/tienluong/workspace/atlantis_fw/AsicFwS2/include/matrix.h ****     }
 863:/home/tienluong/workspace/atlantis_fw/AsicFwS2/include/matrix.h **** 
 864:/home/tienluong/workspace/atlantis_fw/AsicFwS2/include/matrix.h ****     // friend std::ostream & operator<<( std::ostream & os, const Matrix & m )
 865:/home/tienluong/workspace/atlantis_fw/AsicFwS2/include/matrix.h ****     // {
 866:/home/tienluong/workspace/atlantis_fw/AsicFwS2/include/matrix.h ****     //     std::stringstream sb;
 867:/home/tienluong/workspace/atlantis_fw/AsicFwS2/include/matrix.h ****     //     sb << std::endl << "[ ";
 868:/home/tienluong/workspace/atlantis_fw/AsicFwS2/include/matrix.h ****     //     for( int i = 0; i < R; ++i )
 869:/home/tienluong/workspace/atlantis_fw/AsicFwS2/include/matrix.h ****     //     {
 870:/home/tienluong/workspace/atlantis_fw/AsicFwS2/include/matrix.h ****     //         for( int j = 0; j < C; ++j ) { sb << m( i, j ) << " "; }
 871:/home/tienluong/workspace/atlantis_fw/AsicFwS2/include/matrix.h ****     //         if( i != R - 1 ) { sb << std::endl; }
 872:/home/tienluong/workspace/atlantis_fw/AsicFwS2/include/matrix.h ****     //     }
 873:/home/tienluong/workspace/atlantis_fw/AsicFwS2/include/matrix.h ****     //     sb << "]" << std::endl;
 874:/home/tienluong/workspace/atlantis_fw/AsicFwS2/include/matrix.h ****     //     return os << sb.rdbuf();
 875:/home/tienluong/workspace/atlantis_fw/AsicFwS2/include/matrix.h ****     // }
 876:/home/tienluong/workspace/atlantis_fw/AsicFwS2/include/matrix.h **** 
 877:/home/tienluong/workspace/atlantis_fw/AsicFwS2/include/matrix.h ****     static constexpr bool IsRowMajor() { return RowMajor; }
 878:/home/tienluong/workspace/atlantis_fw/AsicFwS2/include/matrix.h **** 
 879:/home/tienluong/workspace/atlantis_fw/AsicFwS2/include/matrix.h ****     static Matrix Identity()
 880:/home/tienluong/workspace/atlantis_fw/AsicFwS2/include/matrix.h ****     {
 881:/home/tienluong/workspace/atlantis_fw/AsicFwS2/include/matrix.h ****         Matrix rval;
 882:/home/tienluong/workspace/atlantis_fw/AsicFwS2/include/matrix.h ****         return rval.setIdentity();
 883:/home/tienluong/workspace/atlantis_fw/AsicFwS2/include/matrix.h ****     }
 884:/home/tienluong/workspace/atlantis_fw/AsicFwS2/include/matrix.h **** };
 885:/home/tienluong/workspace/atlantis_fw/AsicFwS2/include/matrix.h **** 
 886:/home/tienluong/workspace/atlantis_fw/AsicFwS2/include/matrix.h **** template<typename T, int R, int C, bool D>
 887:/home/tienluong/workspace/atlantis_fw/AsicFwS2/include/matrix.h **** Matrix < T, C, R, !D > transpose( const Matrix<T, R, C, D> & mat )
 888:/home/tienluong/workspace/atlantis_fw/AsicFwS2/include/matrix.h **** {
 889:/home/tienluong/workspace/atlantis_fw/AsicFwS2/include/matrix.h ****     // simply copy the data and flip the matrix ordering
 890:/home/tienluong/workspace/atlantis_fw/AsicFwS2/include/matrix.h ****     Matrix < T, C, R, !D > rval;
 891:/home/tienluong/workspace/atlantis_fw/AsicFwS2/include/matrix.h ****     T * dst = rval.data();
 892:/home/tienluong/workspace/atlantis_fw/AsicFwS2/include/matrix.h ****     const T * src = mat.data();
 893:/home/tienluong/workspace/atlantis_fw/AsicFwS2/include/matrix.h ****     for( int i = 0; i < R * C; ++i ) { dst[i] = src[i]; }
 894:/home/tienluong/workspace/atlantis_fw/AsicFwS2/include/matrix.h ****     return rval;
 895:/home/tienluong/workspace/atlantis_fw/AsicFwS2/include/matrix.h **** }
 896:/home/tienluong/workspace/atlantis_fw/AsicFwS2/include/matrix.h **** 
 897:/home/tienluong/workspace/atlantis_fw/AsicFwS2/include/matrix.h **** template<typename T, int N, bool D>
 898:/home/tienluong/workspace/atlantis_fw/AsicFwS2/include/matrix.h **** Matrix<T, N, N, D> inverse( const Matrix<T, N, N, D> & mat );
 899:/home/tienluong/workspace/atlantis_fw/AsicFwS2/include/matrix.h **** 
 900:/home/tienluong/workspace/atlantis_fw/AsicFwS2/include/matrix.h **** template<typename T, int N, bool D>
 901:/home/tienluong/workspace/atlantis_fw/AsicFwS2/include/matrix.h **** T determinant( const Matrix<T, N, N, D> & mat );
 902:/home/tienluong/workspace/atlantis_fw/AsicFwS2/include/matrix.h **** 
 903:/home/tienluong/workspace/atlantis_fw/AsicFwS2/include/matrix.h **** // scalar-matrix operators
 904:/home/tienluong/workspace/atlantis_fw/AsicFwS2/include/matrix.h **** template<typename T, typename U, int R, int C, bool D>
 905:/home/tienluong/workspace/atlantis_fw/AsicFwS2/include/matrix.h **** typename std::enable_if<std::is_arithmetic<T>::value, Matrix<U, R, C, D> >::type
 906:/home/tienluong/workspace/atlantis_fw/AsicFwS2/include/matrix.h **** operator+( T a, const Matrix<U, R, C, D> & b ) { return b + a; }
 907:/home/tienluong/workspace/atlantis_fw/AsicFwS2/include/matrix.h **** 
 908:/home/tienluong/workspace/atlantis_fw/AsicFwS2/include/matrix.h **** template<typename T, typename U, int R, int C, bool D>
 909:/home/tienluong/workspace/atlantis_fw/AsicFwS2/include/matrix.h **** typename std::enable_if<std::is_arithmetic<T>::value, Matrix<U, R, C, D> >::type
 910:/home/tienluong/workspace/atlantis_fw/AsicFwS2/include/matrix.h **** operator-( T a, const Matrix<U, R, C, D> & b )
 911:/home/tienluong/workspace/atlantis_fw/AsicFwS2/include/matrix.h **** {
 912:/home/tienluong/workspace/atlantis_fw/AsicFwS2/include/matrix.h ****     Matrix<U, R, C, D> rval;
 913:/home/tienluong/workspace/atlantis_fw/AsicFwS2/include/matrix.h ****     for( int i = 0; i < R; ++i )
 914:/home/tienluong/workspace/atlantis_fw/AsicFwS2/include/matrix.h ****     { for( int j = 0; j < C; ++j ) { rval( i, j ) = U( a ) - b( i, j ); } }
 915:/home/tienluong/workspace/atlantis_fw/AsicFwS2/include/matrix.h ****     return rval;
 916:/home/tienluong/workspace/atlantis_fw/AsicFwS2/include/matrix.h **** }
 917:/home/tienluong/workspace/atlantis_fw/AsicFwS2/include/matrix.h **** 
 918:/home/tienluong/workspace/atlantis_fw/AsicFwS2/include/matrix.h **** template<typename T, typename U, int R, int C, bool D>
 919:/home/tienluong/workspace/atlantis_fw/AsicFwS2/include/matrix.h **** typename std::enable_if<std::is_arithmetic<T>::value, Matrix<U, R, C, D> >::type
 920:/home/tienluong/workspace/atlantis_fw/AsicFwS2/include/matrix.h **** operator*( T a, const Matrix<U, R, C, D> & b ) { return b * a; }
 921:/home/tienluong/workspace/atlantis_fw/AsicFwS2/include/matrix.h **** 
 922:/home/tienluong/workspace/atlantis_fw/AsicFwS2/include/matrix.h **** using Matrix2x2f = Matrix<float, 2, 2>;
 923:/home/tienluong/workspace/atlantis_fw/AsicFwS2/include/matrix.h **** using Matrix3x3f = Matrix<float, 3, 3>;
 924:/home/tienluong/workspace/atlantis_fw/AsicFwS2/include/matrix.h **** using Matrix4x4f = Matrix<float, 4, 4>;
 925:/home/tienluong/workspace/atlantis_fw/AsicFwS2/include/matrix.h **** using Matrix2x2d = Matrix<double, 2, 2>;
 926:/home/tienluong/workspace/atlantis_fw/AsicFwS2/include/matrix.h **** using Matrix3x3d = Matrix<double, 3, 3>;
 927:/home/tienluong/workspace/atlantis_fw/AsicFwS2/include/matrix.h **** using Matrix4x4d = Matrix<double, 4, 4>;
 928:/home/tienluong/workspace/atlantis_fw/AsicFwS2/include/matrix.h **** 
 929:/home/tienluong/workspace/atlantis_fw/AsicFwS2/include/matrix.h **** // optimized implementation of matrix-vector operations
 930:/home/tienluong/workspace/atlantis_fw/AsicFwS2/include/matrix.h **** // mind the order of color channels in memory is BGRA, i.e.,
 931:/home/tienluong/workspace/atlantis_fw/AsicFwS2/include/matrix.h **** // blue channel corresponds to the first matrix dimension!
 932:/home/tienluong/workspace/atlantis_fw/AsicFwS2/include/matrix.h **** 
 933:/home/tienluong/workspace/atlantis_fw/AsicFwS2/include/matrix.h **** template<bool D>
 934:/home/tienluong/workspace/atlantis_fw/AsicFwS2/include/matrix.h **** Vec4f operator*( const Matrix<float, 4, 4, D> & mat, const Vec4f & vec )
 935:/home/tienluong/workspace/atlantis_fw/AsicFwS2/include/matrix.h **** {
 936:/home/tienluong/workspace/atlantis_fw/AsicFwS2/include/matrix.h ****     return
 937:/home/tienluong/workspace/atlantis_fw/AsicFwS2/include/matrix.h ****     {
 938:/home/tienluong/workspace/atlantis_fw/AsicFwS2/include/matrix.h ****         mat( 0, 0 ) * vec.x() + mat( 0, 1 ) * vec.y() + mat( 0, 2 ) * vec.z() + mat( 0, 3 ) * vec.a
 939:/home/tienluong/workspace/atlantis_fw/AsicFwS2/include/matrix.h ****         mat( 1, 0 ) * vec.x() + mat( 1, 1 ) * vec.y() + mat( 1, 2 ) * vec.z() + mat( 1, 3 ) * vec.a
 940:/home/tienluong/workspace/atlantis_fw/AsicFwS2/include/matrix.h ****         mat( 2, 0 ) * vec.x() + mat( 2, 1 ) * vec.y() + mat( 2, 2 ) * vec.z() + mat( 2, 3 ) * vec.a
 941:/home/tienluong/workspace/atlantis_fw/AsicFwS2/include/matrix.h ****         mat( 3, 0 ) * vec.x() + mat( 3, 1 ) * vec.y() + mat( 3, 2 ) * vec.z() + mat( 3, 3 ) * vec.a
 942:/home/tienluong/workspace/atlantis_fw/AsicFwS2/include/matrix.h ****     };
 943:/home/tienluong/workspace/atlantis_fw/AsicFwS2/include/matrix.h **** }
 944:/home/tienluong/workspace/atlantis_fw/AsicFwS2/include/matrix.h **** 
 945:/home/tienluong/workspace/atlantis_fw/AsicFwS2/include/matrix.h **** template<bool D>
 946:/home/tienluong/workspace/atlantis_fw/AsicFwS2/include/matrix.h **** Vec4f operator*( const Vec4f & vec, const Matrix<float, 4, 4, D> & mat )
 947:/home/tienluong/workspace/atlantis_fw/AsicFwS2/include/matrix.h **** {
 948:/home/tienluong/workspace/atlantis_fw/AsicFwS2/include/matrix.h ****     return
 949:/home/tienluong/workspace/atlantis_fw/AsicFwS2/include/matrix.h ****     {
 950:/home/tienluong/workspace/atlantis_fw/AsicFwS2/include/matrix.h ****         mat( 0, 0 ) * vec.x() + mat( 1, 0 ) * vec.y() + mat( 2, 0 ) * vec.z() + mat( 3, 0 ) * vec.a
 951:/home/tienluong/workspace/atlantis_fw/AsicFwS2/include/matrix.h ****         mat( 0, 1 ) * vec.x() + mat( 1, 1 ) * vec.y() + mat( 2, 1 ) * vec.z() + mat( 3, 1 ) * vec.a
 952:/home/tienluong/workspace/atlantis_fw/AsicFwS2/include/matrix.h ****         mat( 0, 2 ) * vec.x() + mat( 1, 2 ) * vec.y() + mat( 2, 2 ) * vec.z() + mat( 3, 2 ) * vec.a
 953:/home/tienluong/workspace/atlantis_fw/AsicFwS2/include/matrix.h ****         mat( 0, 3 ) * vec.x() + mat( 1, 3 ) * vec.y() + mat( 2, 3 ) * vec.z() + mat( 3, 3 ) * vec.a
 954:/home/tienluong/workspace/atlantis_fw/AsicFwS2/include/matrix.h ****     };
 955:/home/tienluong/workspace/atlantis_fw/AsicFwS2/include/matrix.h **** }
 956:/home/tienluong/workspace/atlantis_fw/AsicFwS2/include/matrix.h **** 
 957:/home/tienluong/workspace/atlantis_fw/AsicFwS2/include/matrix.h **** // Vec3 left- and right-hand side multiplication operator
 958:/home/tienluong/workspace/atlantis_fw/AsicFwS2/include/matrix.h **** template<typename T, typename U, bool D>
 959:/home/tienluong/workspace/atlantis_fw/AsicFwS2/include/matrix.h **** Vec3<typename std::common_type<T, U>::type> operator*( const Matrix<T, 3, 3, D> & mat, const Vec3<U
 960:/home/tienluong/workspace/atlantis_fw/AsicFwS2/include/matrix.h **** {
 961:/home/tienluong/workspace/atlantis_fw/AsicFwS2/include/matrix.h ****     return
 962:/home/tienluong/workspace/atlantis_fw/AsicFwS2/include/matrix.h ****     {
 963:/home/tienluong/workspace/atlantis_fw/AsicFwS2/include/matrix.h ****         mat( 0, 0 ) * vec.x() + mat( 0, 1 ) * vec.y() + mat( 0, 2 ) * vec.z(),
 964:/home/tienluong/workspace/atlantis_fw/AsicFwS2/include/matrix.h ****         mat( 1, 0 ) * vec.x() + mat( 1, 1 ) * vec.y() + mat( 1, 2 ) * vec.z(),
 965:/home/tienluong/workspace/atlantis_fw/AsicFwS2/include/matrix.h ****         mat( 2, 0 ) * vec.x() + mat( 2, 1 ) * vec.y() + mat( 2, 2 ) * vec.z()
 966:/home/tienluong/workspace/atlantis_fw/AsicFwS2/include/matrix.h ****     };
 967:/home/tienluong/workspace/atlantis_fw/AsicFwS2/include/matrix.h **** }
 968:/home/tienluong/workspace/atlantis_fw/AsicFwS2/include/matrix.h **** 
 969:/home/tienluong/workspace/atlantis_fw/AsicFwS2/include/matrix.h **** template<typename T, typename U, bool D>
 970:/home/tienluong/workspace/atlantis_fw/AsicFwS2/include/matrix.h **** Vec3<typename std::common_type<T, U>::type> operator*( const Vec3<T> & vec, const Matrix<U, 3, 3, D
 971:/home/tienluong/workspace/atlantis_fw/AsicFwS2/include/matrix.h **** {
 972:/home/tienluong/workspace/atlantis_fw/AsicFwS2/include/matrix.h ****     return
 973:/home/tienluong/workspace/atlantis_fw/AsicFwS2/include/matrix.h ****     {
 974:/home/tienluong/workspace/atlantis_fw/AsicFwS2/include/matrix.h ****         mat( 0, 0 ) * vec.x() + mat( 1, 0 ) * vec.y() + mat( 2, 0 ) * vec.z(),
 975:/home/tienluong/workspace/atlantis_fw/AsicFwS2/include/matrix.h ****         mat( 0, 1 ) * vec.x() + mat( 1, 1 ) * vec.y() + mat( 2, 1 ) * vec.z(),
 976:/home/tienluong/workspace/atlantis_fw/AsicFwS2/include/matrix.h ****         mat( 0, 2 ) * vec.x() + mat( 1, 2 ) * vec.y() + mat( 2, 2 ) * vec.z()
 977:/home/tienluong/workspace/atlantis_fw/AsicFwS2/include/matrix.h ****     };
 978:/home/tienluong/workspace/atlantis_fw/AsicFwS2/include/matrix.h **** }
 979:/home/tienluong/workspace/atlantis_fw/AsicFwS2/include/matrix.h **** 
 980:/home/tienluong/workspace/atlantis_fw/AsicFwS2/include/matrix.h **** 
 981:/home/tienluong/workspace/atlantis_fw/AsicFwS2/include/matrix.h **** // mat3x3 and vec2 special multiplication operation used in roitransfer
 982:/home/tienluong/workspace/atlantis_fw/AsicFwS2/include/matrix.h **** /// Return H * p for 2D p, p is made homogeneous, division in the end.
 983:/home/tienluong/workspace/atlantis_fw/AsicFwS2/include/matrix.h **** template<typename T, typename U, bool D>
 984:/home/tienluong/workspace/atlantis_fw/AsicFwS2/include/matrix.h **** Vec2<typename std::common_type<T, U>::type> operator*( const Matrix<T, 3, 3, D> & h, const Vec2<U> 
 985:/home/tienluong/workspace/atlantis_fw/AsicFwS2/include/matrix.h **** {
 986:/home/tienluong/workspace/atlantis_fw/AsicFwS2/include/matrix.h ****     T w_inv = T{1} / ( h(2, 0) * p.x() + h(2, 1) * p.y() + h(2, 2) );
 987:/home/tienluong/workspace/atlantis_fw/AsicFwS2/include/matrix.h ****     return  { 
 988:/home/tienluong/workspace/atlantis_fw/AsicFwS2/include/matrix.h ****                 ( h(0, 0) * p.x() + h(0, 1) * p.y() + h(0, 2) ) * w_inv,
 989:/home/tienluong/workspace/atlantis_fw/AsicFwS2/include/matrix.h ****                 ( h(1, 0) * p.x() + h(1, 1) * p.y() + h(1, 2) ) * w_inv
 990:/home/tienluong/workspace/atlantis_fw/AsicFwS2/include/matrix.h ****             };
 991:/home/tienluong/workspace/atlantis_fw/AsicFwS2/include/matrix.h **** }
 992:/home/tienluong/workspace/atlantis_fw/AsicFwS2/include/matrix.h **** 
 993:/home/tienluong/workspace/atlantis_fw/AsicFwS2/include/matrix.h **** 
 994:/home/tienluong/workspace/atlantis_fw/AsicFwS2/include/matrix.h **** 
 995:/home/tienluong/workspace/atlantis_fw/AsicFwS2/include/matrix.h **** // Vec2 multiplication operator
 996:/home/tienluong/workspace/atlantis_fw/AsicFwS2/include/matrix.h **** //right hand
 997:/home/tienluong/workspace/atlantis_fw/AsicFwS2/include/matrix.h **** template<typename T, typename U, bool D>
 998:/home/tienluong/workspace/atlantis_fw/AsicFwS2/include/matrix.h **** Vec2<typename std::common_type<T, U>::type> operator*( const Matrix<T, 2, 2, D> & mat, const Vec2<U
 999:/home/tienluong/workspace/atlantis_fw/AsicFwS2/include/matrix.h **** {
1000:/home/tienluong/workspace/atlantis_fw/AsicFwS2/include/matrix.h ****     return
1001:/home/tienluong/workspace/atlantis_fw/AsicFwS2/include/matrix.h ****     {
1002:/home/tienluong/workspace/atlantis_fw/AsicFwS2/include/matrix.h ****         mat( 0, 0 ) * vec.x() + mat( 0, 1 ) * vec.y(),
1003:/home/tienluong/workspace/atlantis_fw/AsicFwS2/include/matrix.h ****         mat( 1, 0 ) * vec.x() + mat( 1, 1 ) * vec.y()
1004:/home/tienluong/workspace/atlantis_fw/AsicFwS2/include/matrix.h ****     };
1005:/home/tienluong/workspace/atlantis_fw/AsicFwS2/include/matrix.h **** }
1006:/home/tienluong/workspace/atlantis_fw/AsicFwS2/include/matrix.h **** //left hand
1007:/home/tienluong/workspace/atlantis_fw/AsicFwS2/include/matrix.h **** template<typename T, typename U, bool D>
1008:/home/tienluong/workspace/atlantis_fw/AsicFwS2/include/matrix.h **** Vec2<typename std::common_type<T, U>::type> operator*( const Vec2<U> & vec, const Matrix<T, 2, 2, D
1009:/home/tienluong/workspace/atlantis_fw/AsicFwS2/include/matrix.h **** {
1010:/home/tienluong/workspace/atlantis_fw/AsicFwS2/include/matrix.h ****     return
1011:/home/tienluong/workspace/atlantis_fw/AsicFwS2/include/matrix.h ****     {
1012:/home/tienluong/workspace/atlantis_fw/AsicFwS2/include/matrix.h ****         mat( 0, 0 ) * vec.x() + mat( 1, 0 ) * vec.y(),
1013:/home/tienluong/workspace/atlantis_fw/AsicFwS2/include/matrix.h ****         mat( 0, 1 ) * vec.x() + mat( 1, 1 ) * vec.y()
1014:/home/tienluong/workspace/atlantis_fw/AsicFwS2/include/matrix.h ****     };
1015:/home/tienluong/workspace/atlantis_fw/AsicFwS2/include/matrix.h **** }
1016:/home/tienluong/workspace/atlantis_fw/AsicFwS2/include/matrix.h **** 
1017:/home/tienluong/workspace/atlantis_fw/AsicFwS2/include/matrix.h **** // Create a diagonal matrix from a vector
1018:/home/tienluong/workspace/atlantis_fw/AsicFwS2/include/matrix.h **** inline Matrix4x4f diagonal( const Vec4f & vec )
1019:/home/tienluong/workspace/atlantis_fw/AsicFwS2/include/matrix.h **** {
1020:/home/tienluong/workspace/atlantis_fw/AsicFwS2/include/matrix.h ****     return
1021:/home/tienluong/workspace/atlantis_fw/AsicFwS2/include/matrix.h ****     {
1022:/home/tienluong/workspace/atlantis_fw/AsicFwS2/include/matrix.h ****         vec.x(), 0.0f, 0.0f, 0.0f,
1023:/home/tienluong/workspace/atlantis_fw/AsicFwS2/include/matrix.h ****         0.0f, vec.y(), 0.0f, 0.0f,
1024:/home/tienluong/workspace/atlantis_fw/AsicFwS2/include/matrix.h ****         0.0f, 0.0f, vec.z(), 0.0f,
1025:/home/tienluong/workspace/atlantis_fw/AsicFwS2/include/matrix.h ****         0.0f, 0.0f, 0.0f, vec.a()
1026:/home/tienluong/workspace/atlantis_fw/AsicFwS2/include/matrix.h ****     };
1027:/home/tienluong/workspace/atlantis_fw/AsicFwS2/include/matrix.h **** }
1028:/home/tienluong/workspace/atlantis_fw/AsicFwS2/include/matrix.h **** 
1029:/home/tienluong/workspace/atlantis_fw/AsicFwS2/include/matrix.h **** template<typename T>
1030:/home/tienluong/workspace/atlantis_fw/AsicFwS2/include/matrix.h **** Matrix<T, 3, 3> diagonal( const Vec3<T> & vec )
1031:/home/tienluong/workspace/atlantis_fw/AsicFwS2/include/matrix.h **** {
1032:/home/tienluong/workspace/atlantis_fw/AsicFwS2/include/matrix.h ****     return
1033:/home/tienluong/workspace/atlantis_fw/AsicFwS2/include/matrix.h ****     {
1034:/home/tienluong/workspace/atlantis_fw/AsicFwS2/include/matrix.h ****         vec.x(), T{0}, T{0},
1035:/home/tienluong/workspace/atlantis_fw/AsicFwS2/include/matrix.h ****         T{0}, vec.y(), T{0},
1036:/home/tienluong/workspace/atlantis_fw/AsicFwS2/include/matrix.h ****         T{0}, T{0}, vec.z()
1037:/home/tienluong/workspace/atlantis_fw/AsicFwS2/include/matrix.h ****     };
1038:/home/tienluong/workspace/atlantis_fw/AsicFwS2/include/matrix.h **** }
1039:/home/tienluong/workspace/atlantis_fw/AsicFwS2/include/matrix.h **** 
1040:/home/tienluong/workspace/atlantis_fw/AsicFwS2/include/matrix.h **** template<typename T>
1041:/home/tienluong/workspace/atlantis_fw/AsicFwS2/include/matrix.h **** Matrix<T, 2, 2> diagonal( const Vec2<T> & vec )
1042:/home/tienluong/workspace/atlantis_fw/AsicFwS2/include/matrix.h **** {
1043:/home/tienluong/workspace/atlantis_fw/AsicFwS2/include/matrix.h ****     return
1044:/home/tienluong/workspace/atlantis_fw/AsicFwS2/include/matrix.h ****     {
1045:/home/tienluong/workspace/atlantis_fw/AsicFwS2/include/matrix.h ****         vec.x(), T{0},
1046:/home/tienluong/workspace/atlantis_fw/AsicFwS2/include/matrix.h ****         T{0}, vec.y(),
1047:/home/tienluong/workspace/atlantis_fw/AsicFwS2/include/matrix.h ****     };
1048:/home/tienluong/workspace/atlantis_fw/AsicFwS2/include/matrix.h **** }
1049:/home/tienluong/workspace/atlantis_fw/AsicFwS2/include/matrix.h **** 
1050:/home/tienluong/workspace/atlantis_fw/AsicFwS2/include/matrix.h **** // ------------------------------------
1051:/home/tienluong/workspace/atlantis_fw/AsicFwS2/include/matrix.h **** // determinant, inverse, etc
1052:/home/tienluong/workspace/atlantis_fw/AsicFwS2/include/matrix.h **** // ------------------------------------
1053:/home/tienluong/workspace/atlantis_fw/AsicFwS2/include/matrix.h **** 
1054:/home/tienluong/workspace/atlantis_fw/AsicFwS2/include/matrix.h **** template<typename T, int N>
1055:/home/tienluong/workspace/atlantis_fw/AsicFwS2/include/matrix.h **** struct MatrixDeterminant { };
1056:/home/tienluong/workspace/atlantis_fw/AsicFwS2/include/matrix.h **** 
1057:/home/tienluong/workspace/atlantis_fw/AsicFwS2/include/matrix.h **** template<typename T>
1058:/home/tienluong/workspace/atlantis_fw/AsicFwS2/include/matrix.h **** struct MatrixDeterminant<T, 2>
1059:/home/tienluong/workspace/atlantis_fw/AsicFwS2/include/matrix.h **** {
1060:/home/tienluong/workspace/atlantis_fw/AsicFwS2/include/matrix.h ****     T operator()( const T * mat ) const
1061:/home/tienluong/workspace/atlantis_fw/AsicFwS2/include/matrix.h ****     {
1062:/home/tienluong/workspace/atlantis_fw/AsicFwS2/include/matrix.h ****         return mat[0] * mat[3] - mat[1] * mat[2];
1063:/home/tienluong/workspace/atlantis_fw/AsicFwS2/include/matrix.h ****     }
1064:/home/tienluong/workspace/atlantis_fw/AsicFwS2/include/matrix.h **** };
1065:/home/tienluong/workspace/atlantis_fw/AsicFwS2/include/matrix.h **** 
1066:/home/tienluong/workspace/atlantis_fw/AsicFwS2/include/matrix.h **** template<typename T>
1067:/home/tienluong/workspace/atlantis_fw/AsicFwS2/include/matrix.h **** struct MatrixDeterminant<T, 3>
1068:/home/tienluong/workspace/atlantis_fw/AsicFwS2/include/matrix.h **** {
1069:/home/tienluong/workspace/atlantis_fw/AsicFwS2/include/matrix.h ****     T operator()( const T * mat ) const
1070:/home/tienluong/workspace/atlantis_fw/AsicFwS2/include/matrix.h ****     {
1071:/home/tienluong/workspace/atlantis_fw/AsicFwS2/include/matrix.h ****         return + mat[0] * ( mat[4] * mat[8] - mat[7] * mat[5] )
1072:/home/tienluong/workspace/atlantis_fw/AsicFwS2/include/matrix.h ****                - mat[1] * ( mat[3] * mat[8] - mat[5] * mat[6] )
1073:/home/tienluong/workspace/atlantis_fw/AsicFwS2/include/matrix.h ****                + mat[2] * ( mat[3] * mat[7] - mat[4] * mat[6] );
1074:/home/tienluong/workspace/atlantis_fw/AsicFwS2/include/matrix.h ****     }
1075:/home/tienluong/workspace/atlantis_fw/AsicFwS2/include/matrix.h **** };
1076:/home/tienluong/workspace/atlantis_fw/AsicFwS2/include/matrix.h **** 
1077:/home/tienluong/workspace/atlantis_fw/AsicFwS2/include/matrix.h **** template<typename T>
1078:/home/tienluong/workspace/atlantis_fw/AsicFwS2/include/matrix.h **** struct MatrixDeterminant<T, 4>
1079:/home/tienluong/workspace/atlantis_fw/AsicFwS2/include/matrix.h **** {
1080:/home/tienluong/workspace/atlantis_fw/AsicFwS2/include/matrix.h ****     T operator()( const T * mat ) const
1081:/home/tienluong/workspace/atlantis_fw/AsicFwS2/include/matrix.h ****     {
1082:/home/tienluong/workspace/atlantis_fw/AsicFwS2/include/matrix.h ****         T dst[4];
1083:/home/tienluong/workspace/atlantis_fw/AsicFwS2/include/matrix.h ****         T tmp[12];
1084:/home/tienluong/workspace/atlantis_fw/AsicFwS2/include/matrix.h **** 
1085:/home/tienluong/workspace/atlantis_fw/AsicFwS2/include/matrix.h ****         // calculate pairs for first 8 elements (cofactors)
1086:/home/tienluong/workspace/atlantis_fw/AsicFwS2/include/matrix.h ****         tmp[0] = mat[10] * mat[15];
1087:/home/tienluong/workspace/atlantis_fw/AsicFwS2/include/matrix.h ****         tmp[1] = mat[11] * mat[14];
1088:/home/tienluong/workspace/atlantis_fw/AsicFwS2/include/matrix.h ****         tmp[2] = mat[9] * mat[15];
1089:/home/tienluong/workspace/atlantis_fw/AsicFwS2/include/matrix.h ****         tmp[3] = mat[11] * mat[13];
1090:/home/tienluong/workspace/atlantis_fw/AsicFwS2/include/matrix.h ****         tmp[4] = mat[9] * mat[14];
1091:/home/tienluong/workspace/atlantis_fw/AsicFwS2/include/matrix.h ****         tmp[5] = mat[10] * mat[13];
1092:/home/tienluong/workspace/atlantis_fw/AsicFwS2/include/matrix.h ****         tmp[6] = mat[8] * mat[15];
1093:/home/tienluong/workspace/atlantis_fw/AsicFwS2/include/matrix.h ****         tmp[7] = mat[11] * mat[12];
1094:/home/tienluong/workspace/atlantis_fw/AsicFwS2/include/matrix.h ****         tmp[8] = mat[8] * mat[14];
1095:/home/tienluong/workspace/atlantis_fw/AsicFwS2/include/matrix.h ****         tmp[9] = mat[10] * mat[12];
1096:/home/tienluong/workspace/atlantis_fw/AsicFwS2/include/matrix.h ****         tmp[10] = mat[8] * mat[13];
1097:/home/tienluong/workspace/atlantis_fw/AsicFwS2/include/matrix.h ****         tmp[11] = mat[9] * mat[12];
1098:/home/tienluong/workspace/atlantis_fw/AsicFwS2/include/matrix.h **** 
1099:/home/tienluong/workspace/atlantis_fw/AsicFwS2/include/matrix.h ****         // calculate first 8 elements (cofactors)
1100:/home/tienluong/workspace/atlantis_fw/AsicFwS2/include/matrix.h ****         dst[0]  = tmp[0] * mat[5] + tmp[3] * mat[6] + tmp[4]  * mat[7];
1101:/home/tienluong/workspace/atlantis_fw/AsicFwS2/include/matrix.h ****         dst[0] -= tmp[1] * mat[5] + tmp[2] * mat[6] + tmp[5]  * mat[7];
1102:/home/tienluong/workspace/atlantis_fw/AsicFwS2/include/matrix.h ****         dst[1]  = tmp[1] * mat[4] + tmp[6] * mat[6] + tmp[9]  * mat[7];
1103:/home/tienluong/workspace/atlantis_fw/AsicFwS2/include/matrix.h ****         dst[1] -= tmp[0] * mat[4] + tmp[7] * mat[6] + tmp[8]  * mat[7];
1104:/home/tienluong/workspace/atlantis_fw/AsicFwS2/include/matrix.h ****         dst[2]  = tmp[2] * mat[4] + tmp[7] * mat[5] + tmp[10] * mat[7];
1105:/home/tienluong/workspace/atlantis_fw/AsicFwS2/include/matrix.h ****         dst[2] -= tmp[3] * mat[4] + tmp[6] * mat[5] + tmp[11] * mat[7];
1106:/home/tienluong/workspace/atlantis_fw/AsicFwS2/include/matrix.h ****         dst[3]  = tmp[5] * mat[4] + tmp[8] * mat[5] + tmp[11] * mat[6];
1107:/home/tienluong/workspace/atlantis_fw/AsicFwS2/include/matrix.h ****         dst[3] -= tmp[4] * mat[4] + tmp[9] * mat[5] + tmp[10] * mat[6];
1108:/home/tienluong/workspace/atlantis_fw/AsicFwS2/include/matrix.h **** 
1109:/home/tienluong/workspace/atlantis_fw/AsicFwS2/include/matrix.h ****         // calculate determinant
1110:/home/tienluong/workspace/atlantis_fw/AsicFwS2/include/matrix.h ****         return mat[0] * dst[0] + mat[1] * dst[1] + mat[2] * dst[2] + mat[3] * dst[3];
1111:/home/tienluong/workspace/atlantis_fw/AsicFwS2/include/matrix.h ****     }
1112:/home/tienluong/workspace/atlantis_fw/AsicFwS2/include/matrix.h **** };
1113:/home/tienluong/workspace/atlantis_fw/AsicFwS2/include/matrix.h **** 
1114:/home/tienluong/workspace/atlantis_fw/AsicFwS2/include/matrix.h **** 
1115:/home/tienluong/workspace/atlantis_fw/AsicFwS2/include/matrix.h **** template<typename T, int N>
1116:/home/tienluong/workspace/atlantis_fw/AsicFwS2/include/matrix.h **** struct SquareMatrixInverter { };
1117:/home/tienluong/workspace/atlantis_fw/AsicFwS2/include/matrix.h **** 
1118:/home/tienluong/workspace/atlantis_fw/AsicFwS2/include/matrix.h **** template<typename T>
1119:/home/tienluong/workspace/atlantis_fw/AsicFwS2/include/matrix.h **** struct SquareMatrixInverter<T, 2>
1120:/home/tienluong/workspace/atlantis_fw/AsicFwS2/include/matrix.h **** {
1121:/home/tienluong/workspace/atlantis_fw/AsicFwS2/include/matrix.h ****     void run( T * mat ) const
  29              		.loc 1 1121 0
  30              		.cfi_startproc
  31              		@ args = 0, pretend = 0, frame = 16
  32              		@ frame_needed = 0, uses_anonymous_args = 0
  33              	.LVL0:
  34 0000 2DE9FF47 		push	{r0, r1, r2, r3, r4, r5, r6, r7, r8, r9, r10, lr}
  35              	.LCFI0:
  36              		.cfi_def_cfa_offset 48
  37              		.cfi_offset 4, -32
  38              		.cfi_offset 5, -28
  39              		.cfi_offset 6, -24
  40              		.cfi_offset 7, -20
  41              		.cfi_offset 8, -16
  42              		.cfi_offset 9, -12
  43              		.cfi_offset 10, -8
  44              		.cfi_offset 14, -4
  45              	.LBB150:
1122:/home/tienluong/workspace/atlantis_fw/AsicFwS2/include/matrix.h ****     {
1123:/home/tienluong/workspace/atlantis_fw/AsicFwS2/include/matrix.h ****         const T det = mat[0] * mat[3] - mat[1] * mat[2];
  46              		.loc 1 1123 0
  47 0004 D0F80C90 		ldr	r9, [r0, #12]	@ float
  48              	.LBE150:
1121:/home/tienluong/workspace/atlantis_fw/AsicFwS2/include/matrix.h ****     {
  49              		.loc 1 1121 0
  50 0008 0546     		mov	r5, r0
  51              	.LBB153:
  52              		.loc 1 1123 0
  53 000a D0F80080 		ldr	r8, [r0]	@ float
  54 000e 4946     		mov	r1, r9
  55 0010 4768     		ldr	r7, [r0, #4]	@ float
  56 0012 8468     		ldr	r4, [r0, #8]	@ float
  57              	.LVL1:
  58 0014 4046     		mov	r0, r8
  59              	.LVL2:
  60 0016 134E     		ldr	r6, .L5
  61 0018 B047     		blx	r6
  62              	.LVL3:
  63 001a 2146     		mov	r1, r4
1124:/home/tienluong/workspace/atlantis_fw/AsicFwS2/include/matrix.h **** 
1125:/home/tienluong/workspace/atlantis_fw/AsicFwS2/include/matrix.h ****         const T invdet = T{1} / det;
1126:/home/tienluong/workspace/atlantis_fw/AsicFwS2/include/matrix.h **** 
1127:/home/tienluong/workspace/atlantis_fw/AsicFwS2/include/matrix.h ****         T tmp[4];
1128:/home/tienluong/workspace/atlantis_fw/AsicFwS2/include/matrix.h ****         tmp[0] = mat[3];
1129:/home/tienluong/workspace/atlantis_fw/AsicFwS2/include/matrix.h ****         tmp[1] = -mat[1];
1130:/home/tienluong/workspace/atlantis_fw/AsicFwS2/include/matrix.h ****         tmp[2] = -mat[2];
  64              		.loc 1 1130 0
  65 001c 04F10044 		add	r4, r4, #-2147483648
  66              	.LVL4:
1123:/home/tienluong/workspace/atlantis_fw/AsicFwS2/include/matrix.h **** 
  67              		.loc 1 1123 0
  68 0020 8246     		mov	r10, r0
  69 0022 3846     		mov	r0, r7
  70 0024 B047     		blx	r6
  71              	.LVL5:
  72 0026 104B     		ldr	r3, .L5+4
1129:/home/tienluong/workspace/atlantis_fw/AsicFwS2/include/matrix.h ****         tmp[2] = -mat[2];
  73              		.loc 1 1129 0
  74 0028 07F10047 		add	r7, r7, #-2147483648
1123:/home/tienluong/workspace/atlantis_fw/AsicFwS2/include/matrix.h **** 
  75              		.loc 1 1123 0
  76 002c 0146     		mov	r1, r0
  77 002e 5046     		mov	r0, r10
  78 0030 9847     		blx	r3
  79              	.LVL6:
1125:/home/tienluong/workspace/atlantis_fw/AsicFwS2/include/matrix.h **** 
  80              		.loc 1 1125 0
  81 0032 0E4B     		ldr	r3, .L5+8
1123:/home/tienluong/workspace/atlantis_fw/AsicFwS2/include/matrix.h **** 
  82              		.loc 1 1123 0
  83 0034 0146     		mov	r1, r0
1125:/home/tienluong/workspace/atlantis_fw/AsicFwS2/include/matrix.h **** 
  84              		.loc 1 1125 0
  85 0036 4FF07E50 		mov	r0, #1065353216
  86 003a 9847     		blx	r3
  87              	.LVL7:
  88              		.loc 1 1130 0
  89 003c 0294     		str	r4, [sp, #8]	@ float
  90              	.LBB151:
1131:/home/tienluong/workspace/atlantis_fw/AsicFwS2/include/matrix.h ****         tmp[3] = mat[0];
1132:/home/tienluong/workspace/atlantis_fw/AsicFwS2/include/matrix.h **** 
1133:/home/tienluong/workspace/atlantis_fw/AsicFwS2/include/matrix.h ****         for( int i = 0; i < 4; ++i ) { mat[i] = tmp[i] * invdet; }
  91              		.loc 1 1133 0
  92 003e 0024     		movs	r4, #0
  93              	.LBE151:
1128:/home/tienluong/workspace/atlantis_fw/AsicFwS2/include/matrix.h ****         tmp[1] = -mat[1];
  94              		.loc 1 1128 0
  95 0040 CDF80090 		str	r9, [sp]	@ float
1129:/home/tienluong/workspace/atlantis_fw/AsicFwS2/include/matrix.h ****         tmp[2] = -mat[2];
  96              		.loc 1 1129 0
  97 0044 0197     		str	r7, [sp, #4]	@ float
1131:/home/tienluong/workspace/atlantis_fw/AsicFwS2/include/matrix.h ****         tmp[3] = mat[0];
  98              		.loc 1 1131 0
  99 0046 CDF80C80 		str	r8, [sp, #12]	@ float
1125:/home/tienluong/workspace/atlantis_fw/AsicFwS2/include/matrix.h **** 
 100              		.loc 1 1125 0
 101 004a 8246     		mov	r10, r0
 102              	.LVL8:
 103              	.L2:
 104              	.LBB152:
 105              		.loc 1 1133 0
 106 004c 5DF82400 		ldr	r0, [sp, r4, lsl #2]	@ float
 107 0050 5146     		mov	r1, r10
 108 0052 B047     		blx	r6
 109              	.LVL9:
 110 0054 45F82400 		str	r0, [r5, r4, lsl #2]	@ float
 111 0058 0134     		adds	r4, r4, #1
 112              	.LVL10:
 113 005a 042C     		cmp	r4, #4
 114 005c F6D1     		bne	.L2
 115              	.LBE152:
 116              	.LBE153:
1134:/home/tienluong/workspace/atlantis_fw/AsicFwS2/include/matrix.h ****     }
 117              		.loc 1 1134 0
 118 005e 04B0     		add	sp, sp, #16
 119              	.LCFI1:
 120              		.cfi_def_cfa_offset 32
 121              		@ sp needed
 122 0060 BDE8F087 		pop	{r4, r5, r6, r7, r8, r9, r10, pc}
 123              	.LVL11:
 124              	.L6:
 125              		.align	2
 126              	.L5:
 127 0064 00000000 		.word	__aeabi_fmul
 128 0068 00000000 		.word	__aeabi_fsub
 129 006c 00000000 		.word	__aeabi_fdiv
 130              		.cfi_endproc
 131              	.LFE4189:
 133              		.section	.text._ZN4ltaf7inverseIfLi2ELb1EEENS_6MatrixIT_XT0_EXT0_EXT1_EEERKS3_,"axG",%progbits,_ZN
 134              		.align	1
 135              		.weak	_ZN4ltaf7inverseIfLi2ELb1EEENS_6MatrixIT_XT0_EXT0_EXT1_EEERKS3_
 136              		.thumb
 137              		.thumb_func
 139              	_ZN4ltaf7inverseIfLi2ELb1EEENS_6MatrixIT_XT0_EXT0_EXT1_EEERKS3_:
 140              	.LFB3905:
1135:/home/tienluong/workspace/atlantis_fw/AsicFwS2/include/matrix.h **** };
1136:/home/tienluong/workspace/atlantis_fw/AsicFwS2/include/matrix.h **** 
1137:/home/tienluong/workspace/atlantis_fw/AsicFwS2/include/matrix.h **** template<typename T>
1138:/home/tienluong/workspace/atlantis_fw/AsicFwS2/include/matrix.h **** struct SquareMatrixInverter<T, 3>
1139:/home/tienluong/workspace/atlantis_fw/AsicFwS2/include/matrix.h **** {
1140:/home/tienluong/workspace/atlantis_fw/AsicFwS2/include/matrix.h ****     void run( T * mat ) const
1141:/home/tienluong/workspace/atlantis_fw/AsicFwS2/include/matrix.h ****     {
1142:/home/tienluong/workspace/atlantis_fw/AsicFwS2/include/matrix.h ****         const T det = + mat[0] * ( mat[4] * mat[8] - mat[7] * mat[5] )
1143:/home/tienluong/workspace/atlantis_fw/AsicFwS2/include/matrix.h ****                       - mat[1] * ( mat[3] * mat[8] - mat[5] * mat[6] )
1144:/home/tienluong/workspace/atlantis_fw/AsicFwS2/include/matrix.h ****                       + mat[2] * ( mat[3] * mat[7] - mat[4] * mat[6] );
1145:/home/tienluong/workspace/atlantis_fw/AsicFwS2/include/matrix.h **** 
1146:/home/tienluong/workspace/atlantis_fw/AsicFwS2/include/matrix.h ****         const T invdet = T{1} / det;
1147:/home/tienluong/workspace/atlantis_fw/AsicFwS2/include/matrix.h **** 
1148:/home/tienluong/workspace/atlantis_fw/AsicFwS2/include/matrix.h ****         T tmp[9];
1149:/home/tienluong/workspace/atlantis_fw/AsicFwS2/include/matrix.h ****         tmp[0] =  mat[4] * mat[8] - mat[7] * mat[5];
1150:/home/tienluong/workspace/atlantis_fw/AsicFwS2/include/matrix.h ****         tmp[1] = -( mat[1] * mat[8] - mat[2] * mat[7] );
1151:/home/tienluong/workspace/atlantis_fw/AsicFwS2/include/matrix.h ****         tmp[2] =  mat[1] * mat[5] - mat[2] * mat[4];
1152:/home/tienluong/workspace/atlantis_fw/AsicFwS2/include/matrix.h ****         tmp[3] = -( mat[3] * mat[8] - mat[5] * mat[6] );
1153:/home/tienluong/workspace/atlantis_fw/AsicFwS2/include/matrix.h ****         tmp[4] =  mat[0] * mat[8] - mat[2] * mat[6];
1154:/home/tienluong/workspace/atlantis_fw/AsicFwS2/include/matrix.h ****         tmp[5] = -( mat[0] * mat[5] - mat[3] * mat[2] );
1155:/home/tienluong/workspace/atlantis_fw/AsicFwS2/include/matrix.h ****         tmp[6] =  mat[3] * mat[7] - mat[6] * mat[ 4];
1156:/home/tienluong/workspace/atlantis_fw/AsicFwS2/include/matrix.h ****         tmp[7] = -( mat[0] * mat[7] - mat[6] * mat[1] );
1157:/home/tienluong/workspace/atlantis_fw/AsicFwS2/include/matrix.h ****         tmp[8] =  mat[0] * mat[4] - mat[3] * mat[1];
1158:/home/tienluong/workspace/atlantis_fw/AsicFwS2/include/matrix.h **** 
1159:/home/tienluong/workspace/atlantis_fw/AsicFwS2/include/matrix.h ****         for( int i = 0; i < 9; ++i ) { mat[i] = tmp[i] * invdet; }
1160:/home/tienluong/workspace/atlantis_fw/AsicFwS2/include/matrix.h ****     }
1161:/home/tienluong/workspace/atlantis_fw/AsicFwS2/include/matrix.h **** };
1162:/home/tienluong/workspace/atlantis_fw/AsicFwS2/include/matrix.h **** 
1163:/home/tienluong/workspace/atlantis_fw/AsicFwS2/include/matrix.h **** template<typename T>
1164:/home/tienluong/workspace/atlantis_fw/AsicFwS2/include/matrix.h **** struct SquareMatrixInverter<T, 4>
1165:/home/tienluong/workspace/atlantis_fw/AsicFwS2/include/matrix.h **** {
1166:/home/tienluong/workspace/atlantis_fw/AsicFwS2/include/matrix.h ****     void run( T * mat ) const
1167:/home/tienluong/workspace/atlantis_fw/AsicFwS2/include/matrix.h ****     {
1168:/home/tienluong/workspace/atlantis_fw/AsicFwS2/include/matrix.h ****         T dst[16];
1169:/home/tienluong/workspace/atlantis_fw/AsicFwS2/include/matrix.h ****         T tmp[12];
1170:/home/tienluong/workspace/atlantis_fw/AsicFwS2/include/matrix.h **** 
1171:/home/tienluong/workspace/atlantis_fw/AsicFwS2/include/matrix.h ****         // calculate pairs for first 8 elements (cofactors)
1172:/home/tienluong/workspace/atlantis_fw/AsicFwS2/include/matrix.h ****         tmp[0] = mat[10] * mat[15];
1173:/home/tienluong/workspace/atlantis_fw/AsicFwS2/include/matrix.h ****         tmp[1] = mat[11] * mat[14];
1174:/home/tienluong/workspace/atlantis_fw/AsicFwS2/include/matrix.h ****         tmp[2] = mat[9] * mat[15];
1175:/home/tienluong/workspace/atlantis_fw/AsicFwS2/include/matrix.h ****         tmp[3] = mat[11] * mat[13];
1176:/home/tienluong/workspace/atlantis_fw/AsicFwS2/include/matrix.h ****         tmp[4] = mat[9] * mat[14];
1177:/home/tienluong/workspace/atlantis_fw/AsicFwS2/include/matrix.h ****         tmp[5] = mat[10] * mat[13];
1178:/home/tienluong/workspace/atlantis_fw/AsicFwS2/include/matrix.h ****         tmp[6] = mat[8] * mat[15];
1179:/home/tienluong/workspace/atlantis_fw/AsicFwS2/include/matrix.h ****         tmp[7] = mat[11] * mat[12];
1180:/home/tienluong/workspace/atlantis_fw/AsicFwS2/include/matrix.h ****         tmp[8] = mat[8] * mat[14];
1181:/home/tienluong/workspace/atlantis_fw/AsicFwS2/include/matrix.h ****         tmp[9] = mat[10] * mat[12];
1182:/home/tienluong/workspace/atlantis_fw/AsicFwS2/include/matrix.h ****         tmp[10] = mat[8] * mat[13];
1183:/home/tienluong/workspace/atlantis_fw/AsicFwS2/include/matrix.h ****         tmp[11] = mat[9] * mat[12];
1184:/home/tienluong/workspace/atlantis_fw/AsicFwS2/include/matrix.h **** 
1185:/home/tienluong/workspace/atlantis_fw/AsicFwS2/include/matrix.h ****         // calculate first 8 elements (cofactors)
1186:/home/tienluong/workspace/atlantis_fw/AsicFwS2/include/matrix.h ****         dst[0]   = tmp[0] * mat[5] + tmp[3] * mat[6] + tmp[4]  * mat[7];
1187:/home/tienluong/workspace/atlantis_fw/AsicFwS2/include/matrix.h ****         dst[0]  -= tmp[1] * mat[5] + tmp[2] * mat[6] + tmp[5]  * mat[7];
1188:/home/tienluong/workspace/atlantis_fw/AsicFwS2/include/matrix.h ****         dst[4]   = tmp[1] * mat[4] + tmp[6] * mat[6] + tmp[9]  * mat[7];
1189:/home/tienluong/workspace/atlantis_fw/AsicFwS2/include/matrix.h ****         dst[4]  -= tmp[0] * mat[4] + tmp[7] * mat[6] + tmp[8]  * mat[7];
1190:/home/tienluong/workspace/atlantis_fw/AsicFwS2/include/matrix.h ****         dst[8]   = tmp[2] * mat[4] + tmp[7] * mat[5] + tmp[10] * mat[7];
1191:/home/tienluong/workspace/atlantis_fw/AsicFwS2/include/matrix.h ****         dst[8]  -= tmp[3] * mat[4] + tmp[6] * mat[5] + tmp[11] * mat[7];
1192:/home/tienluong/workspace/atlantis_fw/AsicFwS2/include/matrix.h ****         dst[12]  = tmp[5] * mat[4] + tmp[8] * mat[5] + tmp[11] * mat[6];
1193:/home/tienluong/workspace/atlantis_fw/AsicFwS2/include/matrix.h ****         dst[12] -= tmp[4] * mat[4] + tmp[9] * mat[5] + tmp[10] * mat[6];
1194:/home/tienluong/workspace/atlantis_fw/AsicFwS2/include/matrix.h **** 
1195:/home/tienluong/workspace/atlantis_fw/AsicFwS2/include/matrix.h ****         // calculate determinant
1196:/home/tienluong/workspace/atlantis_fw/AsicFwS2/include/matrix.h ****         const T det = mat[0] * dst[0] + mat[1] * dst[4] + mat[2] * dst[8] + mat[3] * dst[12];
1197:/home/tienluong/workspace/atlantis_fw/AsicFwS2/include/matrix.h **** 
1198:/home/tienluong/workspace/atlantis_fw/AsicFwS2/include/matrix.h ****         const T inv_det = T{1} / det;
1199:/home/tienluong/workspace/atlantis_fw/AsicFwS2/include/matrix.h **** 
1200:/home/tienluong/workspace/atlantis_fw/AsicFwS2/include/matrix.h ****         dst[1]   = tmp[1] * mat[1] + tmp[2] * mat[2] + tmp[5]  * mat[3];
1201:/home/tienluong/workspace/atlantis_fw/AsicFwS2/include/matrix.h ****         dst[1]  -= tmp[0] * mat[1] + tmp[3] * mat[2] + tmp[4]  * mat[3];
1202:/home/tienluong/workspace/atlantis_fw/AsicFwS2/include/matrix.h ****         dst[5]   = tmp[0] * mat[0] + tmp[7] * mat[2] + tmp[8]  * mat[3];
1203:/home/tienluong/workspace/atlantis_fw/AsicFwS2/include/matrix.h ****         dst[5]  -= tmp[1] * mat[0] + tmp[6] * mat[2] + tmp[9]  * mat[3];
1204:/home/tienluong/workspace/atlantis_fw/AsicFwS2/include/matrix.h ****         dst[9]   = tmp[3] * mat[0] + tmp[6] * mat[1] + tmp[11] * mat[3];
1205:/home/tienluong/workspace/atlantis_fw/AsicFwS2/include/matrix.h ****         dst[9]  -= tmp[2] * mat[0] + tmp[7] * mat[1] + tmp[10] * mat[3];
1206:/home/tienluong/workspace/atlantis_fw/AsicFwS2/include/matrix.h ****         dst[13]  = tmp[4] * mat[0] + tmp[9] * mat[1] + tmp[10] * mat[2];
1207:/home/tienluong/workspace/atlantis_fw/AsicFwS2/include/matrix.h ****         dst[13] -= tmp[5] * mat[0] + tmp[8] * mat[1] + tmp[11] * mat[2];
1208:/home/tienluong/workspace/atlantis_fw/AsicFwS2/include/matrix.h **** 
1209:/home/tienluong/workspace/atlantis_fw/AsicFwS2/include/matrix.h ****         // calculate pairs for second 8 elements (cofactors)
1210:/home/tienluong/workspace/atlantis_fw/AsicFwS2/include/matrix.h ****         tmp[0] = mat[2] * mat[7];
1211:/home/tienluong/workspace/atlantis_fw/AsicFwS2/include/matrix.h ****         tmp[1] = mat[3] * mat[6];
1212:/home/tienluong/workspace/atlantis_fw/AsicFwS2/include/matrix.h ****         tmp[2] = mat[1] * mat[7];
1213:/home/tienluong/workspace/atlantis_fw/AsicFwS2/include/matrix.h ****         tmp[3] = mat[3] * mat[5];
1214:/home/tienluong/workspace/atlantis_fw/AsicFwS2/include/matrix.h ****         tmp[4] = mat[1] * mat[6];
1215:/home/tienluong/workspace/atlantis_fw/AsicFwS2/include/matrix.h ****         tmp[5] = mat[2] * mat[5];
1216:/home/tienluong/workspace/atlantis_fw/AsicFwS2/include/matrix.h ****         tmp[6] = mat[0] * mat[7];
1217:/home/tienluong/workspace/atlantis_fw/AsicFwS2/include/matrix.h ****         tmp[7] = mat[3] * mat[4];
1218:/home/tienluong/workspace/atlantis_fw/AsicFwS2/include/matrix.h ****         tmp[8] = mat[0] * mat[6];
1219:/home/tienluong/workspace/atlantis_fw/AsicFwS2/include/matrix.h ****         tmp[9] = mat[2] * mat[4];
1220:/home/tienluong/workspace/atlantis_fw/AsicFwS2/include/matrix.h ****         tmp[10] = mat[0] * mat[5];
1221:/home/tienluong/workspace/atlantis_fw/AsicFwS2/include/matrix.h ****         tmp[11] = mat[1] * mat[4];
1222:/home/tienluong/workspace/atlantis_fw/AsicFwS2/include/matrix.h **** 
1223:/home/tienluong/workspace/atlantis_fw/AsicFwS2/include/matrix.h ****         // calculate second 8 elements (cofactors)
1224:/home/tienluong/workspace/atlantis_fw/AsicFwS2/include/matrix.h ****         dst[2]   = tmp[0]  * mat[13] + tmp[3]  * mat[14] + tmp[4]  * mat[15];
1225:/home/tienluong/workspace/atlantis_fw/AsicFwS2/include/matrix.h ****         dst[2]  -= tmp[1]  * mat[13] + tmp[2]  * mat[14] + tmp[5]  * mat[15];
1226:/home/tienluong/workspace/atlantis_fw/AsicFwS2/include/matrix.h ****         dst[3]   = tmp[2]  * mat[10] + tmp[5]  * mat[11] + tmp[1]  * mat[9];
1227:/home/tienluong/workspace/atlantis_fw/AsicFwS2/include/matrix.h ****         dst[3]  -= tmp[4]  * mat[11] + tmp[0]  * mat[9]  + tmp[3]  * mat[10];
1228:/home/tienluong/workspace/atlantis_fw/AsicFwS2/include/matrix.h ****         dst[6]   = tmp[1]  * mat[12] + tmp[6]  * mat[14] + tmp[9]  * mat[15];
1229:/home/tienluong/workspace/atlantis_fw/AsicFwS2/include/matrix.h ****         dst[6]  -= tmp[0]  * mat[12] + tmp[7]  * mat[14] + tmp[8]  * mat[15];
1230:/home/tienluong/workspace/atlantis_fw/AsicFwS2/include/matrix.h ****         dst[7]   = tmp[8]  * mat[11] + tmp[0]  * mat[8]  + tmp[7]  * mat[10];
1231:/home/tienluong/workspace/atlantis_fw/AsicFwS2/include/matrix.h ****         dst[7]  -= tmp[6]  * mat[10] + tmp[9]  * mat[11] + tmp[1]  * mat[8];
1232:/home/tienluong/workspace/atlantis_fw/AsicFwS2/include/matrix.h ****         dst[10]  = tmp[2]  * mat[12] + tmp[7]  * mat[13] + tmp[10] * mat[15];
1233:/home/tienluong/workspace/atlantis_fw/AsicFwS2/include/matrix.h ****         dst[10] -= tmp[3]  * mat[12] + tmp[6]  * mat[13] + tmp[11] * mat[15];
1234:/home/tienluong/workspace/atlantis_fw/AsicFwS2/include/matrix.h ****         dst[11]  = tmp[6]  * mat[9]  + tmp[11] * mat[11] + tmp[3]  * mat[8];
1235:/home/tienluong/workspace/atlantis_fw/AsicFwS2/include/matrix.h ****         dst[11] -= tmp[10] * mat[11] + tmp[2]  * mat[8]  + tmp[7]  * mat[9];
1236:/home/tienluong/workspace/atlantis_fw/AsicFwS2/include/matrix.h ****         dst[14]  = tmp[5]  * mat[12] + tmp[8]  * mat[13] + tmp[11] * mat[14];
1237:/home/tienluong/workspace/atlantis_fw/AsicFwS2/include/matrix.h ****         dst[14] -= tmp[4]  * mat[12] + tmp[9]  * mat[13] + tmp[10] * mat[14];
1238:/home/tienluong/workspace/atlantis_fw/AsicFwS2/include/matrix.h ****         dst[15]  = tmp[10] * mat[10] + tmp[4]  * mat[8]  + tmp[9]  * mat[9];
1239:/home/tienluong/workspace/atlantis_fw/AsicFwS2/include/matrix.h ****         dst[15] -= tmp[8]  * mat[9]  + tmp[11] * mat[10] + tmp[5]  * mat[8];
1240:/home/tienluong/workspace/atlantis_fw/AsicFwS2/include/matrix.h **** 
1241:/home/tienluong/workspace/atlantis_fw/AsicFwS2/include/matrix.h ****         // calculate matrix inverse
1242:/home/tienluong/workspace/atlantis_fw/AsicFwS2/include/matrix.h ****         for( int i = 0; i < 16; i++ ) { mat[i] = dst[i] * inv_det; }
1243:/home/tienluong/workspace/atlantis_fw/AsicFwS2/include/matrix.h ****     }
1244:/home/tienluong/workspace/atlantis_fw/AsicFwS2/include/matrix.h **** };
1245:/home/tienluong/workspace/atlantis_fw/AsicFwS2/include/matrix.h **** 
1246:/home/tienluong/workspace/atlantis_fw/AsicFwS2/include/matrix.h **** template<typename T, int N, bool D>
1247:/home/tienluong/workspace/atlantis_fw/AsicFwS2/include/matrix.h **** Matrix<T, N, N, D> inverse( const Matrix<T, N, N, D> & mat )
 141              		.loc 1 1247 0
 142              		.cfi_startproc
 143              		@ args = 0, pretend = 0, frame = 0
 144              		@ frame_needed = 0, uses_anonymous_args = 0
 145              	.LVL12:
 146 0000 10B5     		push	{r4, lr}
 147              	.LCFI2:
 148              		.cfi_def_cfa_offset 8
 149              		.cfi_offset 4, -8
 150              		.cfi_offset 14, -4
 151              		.loc 1 1247 0
 152 0002 0446     		mov	r4, r0
 153              	.LVL13:
 154              	.LBB160:
 155              	.LBB161:
 156              	.LBB162:
 591:/home/tienluong/workspace/atlantis_fw/AsicFwS2/include/matrix.h **** 
 157              		.loc 1 591 0
 158 0004 0FC9     		ldmia	r1, {r0, r1, r2, r3}
 159              	.LVL14:
 160 0006 84E80F00 		stmia	r4, {r0, r1, r2, r3}
 161              	.LVL15:
 162              	.LBE162:
 163              	.LBE161:
1248:/home/tienluong/workspace/atlantis_fw/AsicFwS2/include/matrix.h **** {
1249:/home/tienluong/workspace/atlantis_fw/AsicFwS2/include/matrix.h ****     Matrix<T, N, N, D> rval( mat );
1250:/home/tienluong/workspace/atlantis_fw/AsicFwS2/include/matrix.h ****     SquareMatrixInverter<T, N> inverter;
1251:/home/tienluong/workspace/atlantis_fw/AsicFwS2/include/matrix.h ****     inverter.run( rval.data() );
 164              		.loc 1 1251 0
 165 000a 2046     		mov	r0, r4
 166 000c 014B     		ldr	r3, .L8
 167 000e 9847     		blx	r3
 168              	.LVL16:
 169              	.LBE160:
1252:/home/tienluong/workspace/atlantis_fw/AsicFwS2/include/matrix.h ****     return rval;
1253:/home/tienluong/workspace/atlantis_fw/AsicFwS2/include/matrix.h **** }
 170              		.loc 1 1253 0
 171 0010 2046     		mov	r0, r4
 172 0012 10BD     		pop	{r4, pc}
 173              	.LVL17:
 174              	.L9:
 175              		.align	2
 176              	.L8:
 177 0014 00000000 		.word	_ZNK4ltaf20SquareMatrixInverterIfLi2EE3runEPf.isra.4
 178              		.cfi_endproc
 179              	.LFE3905:
 181              		.section	.text._ZN4ltaf7inverseIfLi2ELb0EEENS_6MatrixIT_XT0_EXT0_EXT1_EEERKS3_,"axG",%progbits,_ZN
 182              		.align	1
 183              		.weak	_ZN4ltaf7inverseIfLi2ELb0EEENS_6MatrixIT_XT0_EXT0_EXT1_EEERKS3_
 184              		.thumb
 185              		.thumb_func
 187              	_ZN4ltaf7inverseIfLi2ELb0EEENS_6MatrixIT_XT0_EXT0_EXT1_EEERKS3_:
 188              	.LFB3908:
1247:/home/tienluong/workspace/atlantis_fw/AsicFwS2/include/matrix.h **** {
 189              		.loc 1 1247 0
 190              		.cfi_startproc
 191              		@ args = 0, pretend = 0, frame = 0
 192              		@ frame_needed = 0, uses_anonymous_args = 0
 193              	.LVL18:
 194 0000 10B5     		push	{r4, lr}
 195              	.LCFI3:
 196              		.cfi_def_cfa_offset 8
 197              		.cfi_offset 4, -8
 198              		.cfi_offset 14, -4
1247:/home/tienluong/workspace/atlantis_fw/AsicFwS2/include/matrix.h **** {
 199              		.loc 1 1247 0
 200 0002 0446     		mov	r4, r0
 201              	.LVL19:
 202              	.LBB169:
 203              	.LBB170:
 204              	.LBB171:
 593:/home/tienluong/workspace/atlantis_fw/AsicFwS2/include/matrix.h **** 
 205              		.loc 1 593 0
 206 0004 0FC9     		ldmia	r1, {r0, r1, r2, r3}
 207              	.LVL20:
 208 0006 84E80F00 		stmia	r4, {r0, r1, r2, r3}
 209              	.LVL21:
 210              	.LBE171:
 211              	.LBE170:
1251:/home/tienluong/workspace/atlantis_fw/AsicFwS2/include/matrix.h ****     return rval;
 212              		.loc 1 1251 0
 213 000a 2046     		mov	r0, r4
 214 000c 014B     		ldr	r3, .L11
 215 000e 9847     		blx	r3
 216              	.LVL22:
 217              	.LBE169:
 218              		.loc 1 1253 0
 219 0010 2046     		mov	r0, r4
 220 0012 10BD     		pop	{r4, pc}
 221              	.LVL23:
 222              	.L12:
 223              		.align	2
 224              	.L11:
 225 0014 00000000 		.word	_ZNK4ltaf20SquareMatrixInverterIfLi2EE3runEPf.isra.4
 226              		.cfi_endproc
 227              	.LFE3908:
 229              		.section	.text._ZN4ltaf11determinantIfLi2ELb1EEET_RKNS_6MatrixIS1_XT0_EXT0_EXT1_EEE,"axG",%progbit
 230              		.align	1
 231              		.weak	_ZN4ltaf11determinantIfLi2ELb1EEET_RKNS_6MatrixIS1_XT0_EXT0_EXT1_EEE
 232              		.thumb
 233              		.thumb_func
 235              	_ZN4ltaf11determinantIfLi2ELb1EEET_RKNS_6MatrixIS1_XT0_EXT0_EXT1_EEE:
 236              	.LFB3917:
1254:/home/tienluong/workspace/atlantis_fw/AsicFwS2/include/matrix.h **** 
1255:/home/tienluong/workspace/atlantis_fw/AsicFwS2/include/matrix.h **** template<typename T, int N, bool D>
1256:/home/tienluong/workspace/atlantis_fw/AsicFwS2/include/matrix.h **** T determinant( const Matrix<T, N, N, D> & mat )
 237              		.loc 1 1256 0
 238              		.cfi_startproc
 239              		@ args = 0, pretend = 0, frame = 0
 240              		@ frame_needed = 0, uses_anonymous_args = 0
 241              	.LVL24:
 242 0000 70B5     		push	{r4, r5, r6, lr}
 243              	.LCFI4:
 244              		.cfi_def_cfa_offset 16
 245              		.cfi_offset 4, -16
 246              		.cfi_offset 5, -12
 247              		.cfi_offset 6, -8
 248              		.cfi_offset 14, -4
 249              		.loc 1 1256 0
 250 0002 0446     		mov	r4, r0
 251              	.LBB177:
 252              	.LBB178:
 253              	.LBB179:
1062:/home/tienluong/workspace/atlantis_fw/AsicFwS2/include/matrix.h ****     }
 254              		.loc 1 1062 0
 255 0004 064D     		ldr	r5, .L14
 256 0006 0068     		ldr	r0, [r0]	@ float
 257              	.LVL25:
 258 0008 E168     		ldr	r1, [r4, #12]	@ float
 259 000a A847     		blx	r5
 260              	.LVL26:
 261 000c A168     		ldr	r1, [r4, #8]	@ float
 262 000e 0646     		mov	r6, r0
 263 0010 6068     		ldr	r0, [r4, #4]	@ float
 264 0012 A847     		blx	r5
 265              	.LVL27:
 266 0014 034B     		ldr	r3, .L14+4
 267 0016 0146     		mov	r1, r0
 268 0018 3046     		mov	r0, r6
 269 001a 9847     		blx	r3
 270              	.LVL28:
 271              	.LBE179:
 272              	.LBE178:
 273              	.LBE177:
1257:/home/tienluong/workspace/atlantis_fw/AsicFwS2/include/matrix.h **** {
1258:/home/tienluong/workspace/atlantis_fw/AsicFwS2/include/matrix.h ****     MatrixDeterminant<T, N> det;
1259:/home/tienluong/workspace/atlantis_fw/AsicFwS2/include/matrix.h ****     return det( mat.data() );
1260:/home/tienluong/workspace/atlantis_fw/AsicFwS2/include/matrix.h **** }
 274              		.loc 1 1260 0
 275 001c 70BD     		pop	{r4, r5, r6, pc}
 276              	.LVL29:
 277              	.L15:
 278 001e 00BF     		.align	2
 279              	.L14:
 280 0020 00000000 		.word	__aeabi_fmul
 281 0024 00000000 		.word	__aeabi_fsub
 282              		.cfi_endproc
 283              	.LFE3917:
 285              		.section	.text._ZN4ltaf11determinantIfLi2ELb0EEET_RKNS_6MatrixIS1_XT0_EXT0_EXT1_EEE,"axG",%progbit
 286              		.align	1
 287              		.weak	_ZN4ltaf11determinantIfLi2ELb0EEET_RKNS_6MatrixIS1_XT0_EXT0_EXT1_EEE
 288              		.thumb
 289              		.thumb_func
 291              	_ZN4ltaf11determinantIfLi2ELb0EEET_RKNS_6MatrixIS1_XT0_EXT0_EXT1_EEE:
 292              	.LFB3920:
1256:/home/tienluong/workspace/atlantis_fw/AsicFwS2/include/matrix.h **** {
 293              		.loc 1 1256 0
 294              		.cfi_startproc
 295              		@ args = 0, pretend = 0, frame = 0
 296              		@ frame_needed = 0, uses_anonymous_args = 0
 297              	.LVL30:
 298 0000 70B5     		push	{r4, r5, r6, lr}
 299              	.LCFI5:
 300              		.cfi_def_cfa_offset 16
 301              		.cfi_offset 4, -16
 302              		.cfi_offset 5, -12
 303              		.cfi_offset 6, -8
 304              		.cfi_offset 14, -4
1256:/home/tienluong/workspace/atlantis_fw/AsicFwS2/include/matrix.h **** {
 305              		.loc 1 1256 0
 306 0002 0446     		mov	r4, r0
 307              	.LBB185:
 308              	.LBB186:
 309              	.LBB187:
1062:/home/tienluong/workspace/atlantis_fw/AsicFwS2/include/matrix.h ****     }
 310              		.loc 1 1062 0
 311 0004 064D     		ldr	r5, .L17
 312 0006 0068     		ldr	r0, [r0]	@ float
 313              	.LVL31:
 314 0008 E168     		ldr	r1, [r4, #12]	@ float
 315 000a A847     		blx	r5
 316              	.LVL32:
 317 000c A168     		ldr	r1, [r4, #8]	@ float
 318 000e 0646     		mov	r6, r0
 319 0010 6068     		ldr	r0, [r4, #4]	@ float
 320 0012 A847     		blx	r5
 321              	.LVL33:
 322 0014 034B     		ldr	r3, .L17+4
 323 0016 0146     		mov	r1, r0
 324 0018 3046     		mov	r0, r6
 325 001a 9847     		blx	r3
 326              	.LVL34:
 327              	.LBE187:
 328              	.LBE186:
 329              	.LBE185:
 330              		.loc 1 1260 0
 331 001c 70BD     		pop	{r4, r5, r6, pc}
 332              	.LVL35:
 333              	.L18:
 334 001e 00BF     		.align	2
 335              	.L17:
 336 0020 00000000 		.word	__aeabi_fmul
 337 0024 00000000 		.word	__aeabi_fsub
 338              		.cfi_endproc
 339              	.LFE3920:
 341              		.global	__aeabi_dmul
 342              		.global	__aeabi_dsub
 343              		.section	.text._ZN4ltaf11determinantIdLi2ELb1EEET_RKNS_6MatrixIS1_XT0_EXT0_EXT1_EEE,"axG",%progbit
 344              		.align	1
 345              		.weak	_ZN4ltaf11determinantIdLi2ELb1EEET_RKNS_6MatrixIS1_XT0_EXT0_EXT1_EEE
 346              		.thumb
 347              		.thumb_func
 349              	_ZN4ltaf11determinantIdLi2ELb1EEET_RKNS_6MatrixIS1_XT0_EXT0_EXT1_EEE:
 350              	.LFB3923:
1256:/home/tienluong/workspace/atlantis_fw/AsicFwS2/include/matrix.h **** {
 351              		.loc 1 1256 0
 352              		.cfi_startproc
 353              		@ args = 0, pretend = 0, frame = 0
 354              		@ frame_needed = 0, uses_anonymous_args = 0
 355              	.LVL36:
 356 0000 F8B5     		push	{r3, r4, r5, r6, r7, lr}
 357              	.LCFI6:
 358              		.cfi_def_cfa_offset 24
 359              		.cfi_offset 3, -24
 360              		.cfi_offset 4, -20
 361              		.cfi_offset 5, -16
 362              		.cfi_offset 6, -12
 363              		.cfi_offset 7, -8
 364              		.cfi_offset 14, -4
1256:/home/tienluong/workspace/atlantis_fw/AsicFwS2/include/matrix.h **** {
 365              		.loc 1 1256 0
 366 0002 0446     		mov	r4, r0
 367              	.LBB193:
 368              	.LBB194:
 369              	.LBB195:
1062:/home/tienluong/workspace/atlantis_fw/AsicFwS2/include/matrix.h ****     }
 370              		.loc 1 1062 0
 371 0004 094D     		ldr	r5, .L20
 372 0006 D0E90001 		ldrd	r0, [r0]
 373              	.LVL37:
 374 000a D4E90623 		ldrd	r2, [r4, #24]
 375 000e A847     		blx	r5
 376              	.LVL38:
 377 0010 D4E90423 		ldrd	r2, [r4, #16]
 378 0014 0646     		mov	r6, r0
 379 0016 0F46     		mov	r7, r1
 380 0018 D4E90201 		ldrd	r0, [r4, #8]
 381 001c A847     		blx	r5
 382              	.LVL39:
 383 001e 044C     		ldr	r4, .L20+4
 384              	.LVL40:
 385 0020 0246     		mov	r2, r0
 386 0022 0B46     		mov	r3, r1
 387 0024 3046     		mov	r0, r6
 388 0026 3946     		mov	r1, r7
 389 0028 A047     		blx	r4
 390              	.LVL41:
 391              	.LBE195:
 392              	.LBE194:
 393              	.LBE193:
 394              		.loc 1 1260 0
 395 002a F8BD     		pop	{r3, r4, r5, r6, r7, pc}
 396              	.L21:
 397              		.align	2
 398              	.L20:
 399 002c 00000000 		.word	__aeabi_dmul
 400 0030 00000000 		.word	__aeabi_dsub
 401              		.cfi_endproc
 402              	.LFE3923:
 404              		.section	.text._ZN4ltaf11determinantIdLi2ELb0EEET_RKNS_6MatrixIS1_XT0_EXT0_EXT1_EEE,"axG",%progbit
 405              		.align	1
 406              		.weak	_ZN4ltaf11determinantIdLi2ELb0EEET_RKNS_6MatrixIS1_XT0_EXT0_EXT1_EEE
 407              		.thumb
 408              		.thumb_func
 410              	_ZN4ltaf11determinantIdLi2ELb0EEET_RKNS_6MatrixIS1_XT0_EXT0_EXT1_EEE:
 411              	.LFB3926:
1256:/home/tienluong/workspace/atlantis_fw/AsicFwS2/include/matrix.h **** {
 412              		.loc 1 1256 0
 413              		.cfi_startproc
 414              		@ args = 0, pretend = 0, frame = 0
 415              		@ frame_needed = 0, uses_anonymous_args = 0
 416              	.LVL42:
 417 0000 F8B5     		push	{r3, r4, r5, r6, r7, lr}
 418              	.LCFI7:
 419              		.cfi_def_cfa_offset 24
 420              		.cfi_offset 3, -24
 421              		.cfi_offset 4, -20
 422              		.cfi_offset 5, -16
 423              		.cfi_offset 6, -12
 424              		.cfi_offset 7, -8
 425              		.cfi_offset 14, -4
1256:/home/tienluong/workspace/atlantis_fw/AsicFwS2/include/matrix.h **** {
 426              		.loc 1 1256 0
 427 0002 0446     		mov	r4, r0
 428              	.LBB201:
 429              	.LBB202:
 430              	.LBB203:
1062:/home/tienluong/workspace/atlantis_fw/AsicFwS2/include/matrix.h ****     }
 431              		.loc 1 1062 0
 432 0004 094D     		ldr	r5, .L23
 433 0006 D0E90001 		ldrd	r0, [r0]
 434              	.LVL43:
 435 000a D4E90623 		ldrd	r2, [r4, #24]
 436 000e A847     		blx	r5
 437              	.LVL44:
 438 0010 D4E90423 		ldrd	r2, [r4, #16]
 439 0014 0646     		mov	r6, r0
 440 0016 0F46     		mov	r7, r1
 441 0018 D4E90201 		ldrd	r0, [r4, #8]
 442 001c A847     		blx	r5
 443              	.LVL45:
 444 001e 044C     		ldr	r4, .L23+4
 445              	.LVL46:
 446 0020 0246     		mov	r2, r0
 447 0022 0B46     		mov	r3, r1
 448 0024 3046     		mov	r0, r6
 449 0026 3946     		mov	r1, r7
 450 0028 A047     		blx	r4
 451              	.LVL47:
 452              	.LBE203:
 453              	.LBE202:
 454              	.LBE201:
 455              		.loc 1 1260 0
 456 002a F8BD     		pop	{r3, r4, r5, r6, r7, pc}
 457              	.L24:
 458              		.align	2
 459              	.L23:
 460 002c 00000000 		.word	__aeabi_dmul
 461 0030 00000000 		.word	__aeabi_dsub
 462              		.cfi_endproc
 463              	.LFE3926:
 465              		.global	__aeabi_ui2f
 466              		.global	__aeabi_f2d
 467              		.global	__aeabi_i2f
 468              		.global	__aeabi_fcmplt
 469              		.global	__aeabi_fadd
 470              		.global	__aeabi_fcmpgt
 471              		.global	__aeabi_f2iz
 472              		.section	.text._ZN15af_roi_transfer3runEm,"ax",%progbits
 473              		.align	1
 474              		.global	_ZN15af_roi_transfer3runEm
 475              		.thumb
 476              		.thumb_func
 478              	_ZN15af_roi_transfer3runEm:
 479              	.LFB3877:
 480              		.file 2 "/home/tienluong/workspace/atlantis_fw/AsicFwS2/src/af_roi_transfer.cpp"
   1:/home/tienluong/workspace/atlantis_fw/AsicFwS2/src/af_roi_transfer.cpp **** /*******************************************************************************
   2:/home/tienluong/workspace/atlantis_fw/AsicFwS2/src/af_roi_transfer.cpp ****  * Copyright (c) 2016, The LightCo
   3:/home/tienluong/workspace/atlantis_fw/AsicFwS2/src/af_roi_transfer.cpp ****  * All rights reserved.
   4:/home/tienluong/workspace/atlantis_fw/AsicFwS2/src/af_roi_transfer.cpp ****  * Redistribution and use in source and binary forms, with or without
   5:/home/tienluong/workspace/atlantis_fw/AsicFwS2/src/af_roi_transfer.cpp ****  * modification, are strictly prohibited without prior permission
   6:/home/tienluong/workspace/atlantis_fw/AsicFwS2/src/af_roi_transfer.cpp ****  * of The LightCo.
   7:/home/tienluong/workspace/atlantis_fw/AsicFwS2/src/af_roi_transfer.cpp ****  *
   8:/home/tienluong/workspace/atlantis_fw/AsicFwS2/src/af_roi_transfer.cpp ****  * @file    af_roi_transfer.cpp
   9:/home/tienluong/workspace/atlantis_fw/AsicFwS2/src/af_roi_transfer.cpp ****  * @author  The LightCo
  10:/home/tienluong/workspace/atlantis_fw/AsicFwS2/src/af_roi_transfer.cpp ****  * @version V1.0.0
  11:/home/tienluong/workspace/atlantis_fw/AsicFwS2/src/af_roi_transfer.cpp ****  * @date    Sep-15-2016
  12:/home/tienluong/workspace/atlantis_fw/AsicFwS2/src/af_roi_transfer.cpp ****  * @brief   Implements ROI transfer
  13:/home/tienluong/workspace/atlantis_fw/AsicFwS2/src/af_roi_transfer.cpp ****  *
  14:/home/tienluong/workspace/atlantis_fw/AsicFwS2/src/af_roi_transfer.cpp ****  ******************************************************************************/
  15:/home/tienluong/workspace/atlantis_fw/AsicFwS2/src/af_roi_transfer.cpp **** 
  16:/home/tienluong/workspace/atlantis_fw/AsicFwS2/src/af_roi_transfer.cpp **** #include <memory>
  17:/home/tienluong/workspace/atlantis_fw/AsicFwS2/src/af_roi_transfer.cpp **** #include "os.h"
  18:/home/tienluong/workspace/atlantis_fw/AsicFwS2/src/af_roi_transfer.cpp **** #include "operator_new.h"
  19:/home/tienluong/workspace/atlantis_fw/AsicFwS2/src/af_roi_transfer.cpp **** #include "log.h"
  20:/home/tienluong/workspace/atlantis_fw/AsicFwS2/src/af_roi_transfer.cpp **** #include "cortex_r4.h"
  21:/home/tienluong/workspace/atlantis_fw/AsicFwS2/src/af_roi_transfer.cpp **** #include "actuator.h"
  22:/home/tienluong/workspace/atlantis_fw/AsicFwS2/src/af_roi_transfer.cpp **** #include "roitransfer.h"
  23:/home/tienluong/workspace/atlantis_fw/AsicFwS2/src/af_roi_transfer.cpp **** #include "contrast_sweep_manager.h"
  24:/home/tienluong/workspace/atlantis_fw/AsicFwS2/src/af_roi_transfer.cpp **** #include "calib_data_manager.h"
  25:/home/tienluong/workspace/atlantis_fw/AsicFwS2/src/af_roi_transfer.cpp **** #include "optical_zoom_manager.h"
  26:/home/tienluong/workspace/atlantis_fw/AsicFwS2/src/af_roi_transfer.cpp **** #include "af_roi_transfer.h"
  27:/home/tienluong/workspace/atlantis_fw/AsicFwS2/src/af_roi_transfer.cpp **** 
  28:/home/tienluong/workspace/atlantis_fw/AsicFwS2/src/af_roi_transfer.cpp **** 
  29:/home/tienluong/workspace/atlantis_fw/AsicFwS2/src/af_roi_transfer.cpp **** #define SLOGF_ID                SLOG_ID_AF
  30:/home/tienluong/workspace/atlantis_fw/AsicFwS2/src/af_roi_transfer.cpp **** 
  31:/home/tienluong/workspace/atlantis_fw/AsicFwS2/src/af_roi_transfer.cpp **** extern "C" uint32_t af_roi_transfer_execute(uint32_t cam_channel_bitmask) {
  32:/home/tienluong/workspace/atlantis_fw/AsicFwS2/src/af_roi_transfer.cpp ****     optical_zoom_manager::instance().wait_for_mirrors_move_done();
  33:/home/tienluong/workspace/atlantis_fw/AsicFwS2/src/af_roi_transfer.cpp ****     af_roi_transfer afrt;
  34:/home/tienluong/workspace/atlantis_fw/AsicFwS2/src/af_roi_transfer.cpp ****     return afrt.run(cam_channel_bitmask);
  35:/home/tienluong/workspace/atlantis_fw/AsicFwS2/src/af_roi_transfer.cpp **** }
  36:/home/tienluong/workspace/atlantis_fw/AsicFwS2/src/af_roi_transfer.cpp **** 
  37:/home/tienluong/workspace/atlantis_fw/AsicFwS2/src/af_roi_transfer.cpp **** std::uint32_t af_roi_transfer::run(std::uint32_t cam_channel_bitmask) {
 481              		.loc 2 37 0
 482              		.cfi_startproc
 483              		@ args = 0, pretend = 0, frame = 184
 484              		@ frame_needed = 0, uses_anonymous_args = 0
 485              	.LVL48:
 486 0000 2DE9F04F 		push	{r4, r5, r6, r7, r8, r9, r10, fp, lr}
 487              	.LCFI8:
 488              		.cfi_def_cfa_offset 36
 489              		.cfi_offset 4, -36
 490              		.cfi_offset 5, -32
 491              		.cfi_offset 6, -28
 492              		.cfi_offset 7, -24
 493              		.cfi_offset 8, -20
 494              		.cfi_offset 9, -16
 495              		.cfi_offset 10, -12
 496              		.cfi_offset 11, -8
 497              		.cfi_offset 14, -4
 498              	.LBB204:
 499              	.LBB205:
  38:/home/tienluong/workspace/atlantis_fw/AsicFwS2/src/af_roi_transfer.cpp **** 
  39:/home/tienluong/workspace/atlantis_fw/AsicFwS2/src/af_roi_transfer.cpp ****     // Transfer ROI to requested camera modules
  40:/home/tienluong/workspace/atlantis_fw/AsicFwS2/src/af_roi_transfer.cpp ****     for (std::size_t i = 0; i < MAX_NUM_CAM_CH; ++i) {
 500              		.loc 2 40 0
 501 0004 0025     		movs	r5, #0
 502              	.LBE205:
 503              	.LBE204:
  37:/home/tienluong/workspace/atlantis_fw/AsicFwS2/src/af_roi_transfer.cpp **** 
 504              		.loc 2 37 0
 505 0006 B5B0     		sub	sp, sp, #212
 506              	.LCFI9:
 507              		.cfi_def_cfa_offset 248
  37:/home/tienluong/workspace/atlantis_fw/AsicFwS2/src/af_roi_transfer.cpp **** 
 508              		.loc 2 37 0
 509 0008 0991     		str	r1, [sp, #36]
 510              	.LVL49:
 511              	.L32:
 512              	.LBB212:
 513              	.LBB211:
 514              	.LBB206:
  41:/home/tienluong/workspace/atlantis_fw/AsicFwS2/src/af_roi_transfer.cpp ****         if ((cam_channel_bitmask & (1 << i)) != 0) {
 515              		.loc 2 41 0
 516 000a 0123     		movs	r3, #1
 517 000c 099A     		ldr	r2, [sp, #36]
 518 000e AB40     		lsls	r3, r3, r5
 519 0010 1342     		tst	r3, r2
 520 0012 00F0F380 		beq	.L26
 521              	.LBB207:
  42:/home/tienluong/workspace/atlantis_fw/AsicFwS2/src/af_roi_transfer.cpp ****             // Channel i refinement
  43:/home/tienluong/workspace/atlantis_fw/AsicFwS2/src/af_roi_transfer.cpp ****             SLOGF(SLOG_INFO, "ROI transfer of cam ch %d", (int)i);
 522              		.loc 2 43 0
 523 0016 0821     		movs	r1, #8
 524 0018 864A     		ldr	r2, .L44
 525 001a 2B20     		movs	r0, #43
 526 001c 2B46     		mov	r3, r5
 527 001e 864C     		ldr	r4, .L44+4
 528 0020 A047     		blx	r4
 529              	.LVL50:
 530 0022 681C     		adds	r0, r5, #1
  44:/home/tienluong/workspace/atlantis_fw/AsicFwS2/src/af_roi_transfer.cpp ****             cam_typedef_t *pcam = chan_to_object(i+1);
 531              		.loc 2 44 0
 532 0024 854B     		ldr	r3, .L44+8
 533 0026 C0B2     		uxtb	r0, r0
 534 0028 9847     		blx	r3
 535              	.LVL51:
  45:/home/tienluong/workspace/atlantis_fw/AsicFwS2/src/af_roi_transfer.cpp ****             std::uint8_t ref_mod_idx = light_system->settings->roi_transfer.ref_mod_idx;
 536              		.loc 2 45 0
 537 002a 854B     		ldr	r3, .L44+12
 538 002c D3F800B0 		ldr	fp, [r3]
 539 0030 DBF80830 		ldr	r3, [fp, #8]
  46:/home/tienluong/workspace/atlantis_fw/AsicFwS2/src/af_roi_transfer.cpp ****             std::uint16_t left_x = light_system->settings->roi_transfer.ref_mod_roi.left_x;
  47:/home/tienluong/workspace/atlantis_fw/AsicFwS2/src/af_roi_transfer.cpp ****             std::uint16_t top_y = light_system->settings->roi_transfer.ref_mod_roi.top_y;
  48:/home/tienluong/workspace/atlantis_fw/AsicFwS2/src/af_roi_transfer.cpp ****             std::uint16_t width = light_system->settings->roi_transfer.ref_mod_roi.width;
 540              		.loc 2 48 0
 541 0034 B3F89A20 		ldrh	r2, [r3, #154]
 542 0038 0692     		str	r2, [sp, #24]
  49:/home/tienluong/workspace/atlantis_fw/AsicFwS2/src/af_roi_transfer.cpp ****             std::uint16_t height = light_system->settings->roi_transfer.ref_mod_roi.height;
 543              		.loc 2 49 0
 544 003a B3F89C20 		ldrh	r2, [r3, #156]
 545 003e 0792     		str	r2, [sp, #28]
  50:/home/tienluong/workspace/atlantis_fw/AsicFwS2/src/af_roi_transfer.cpp ****             std::uint16_t roi_center_x = left_x + width/2;
  51:/home/tienluong/workspace/atlantis_fw/AsicFwS2/src/af_roi_transfer.cpp ****             std::uint16_t roi_center_y = top_y + height/2;
  52:/home/tienluong/workspace/atlantis_fw/AsicFwS2/src/af_roi_transfer.cpp ****             ltaf::ModuleName ref_mod = static_cast<ltaf::ModuleName>(ref_mod_idx-1);
 546              		.loc 2 52 0
 547 0040 93F89460 		ldrb	r6, [r3, #148]	@ zero_extendqisi2
  50:/home/tienluong/workspace/atlantis_fw/AsicFwS2/src/af_roi_transfer.cpp ****             std::uint16_t roi_center_x = left_x + width/2;
 548              		.loc 2 50 0
 549 0044 069A     		ldr	r2, [sp, #24]
 550              		.loc 2 52 0
 551 0046 013E     		subs	r6, r6, #1
  50:/home/tienluong/workspace/atlantis_fw/AsicFwS2/src/af_roi_transfer.cpp ****             std::uint16_t roi_center_x = left_x + width/2;
 552              		.loc 2 50 0
 553 0048 B3F89680 		ldrh	r8, [r3, #150]
  51:/home/tienluong/workspace/atlantis_fw/AsicFwS2/src/af_roi_transfer.cpp ****             ltaf::ModuleName ref_mod = static_cast<ltaf::ModuleName>(ref_mod_idx-1);
 554              		.loc 2 51 0
 555 004c B3F89870 		ldrh	r7, [r3, #152]
 556              		.loc 2 52 0
 557 0050 F3B2     		uxtb	r3, r6
  50:/home/tienluong/workspace/atlantis_fw/AsicFwS2/src/af_roi_transfer.cpp ****             std::uint16_t roi_center_x = left_x + width/2;
 558              		.loc 2 50 0
 559 0052 4FEA520A 		lsr	r10, r2, #1
  51:/home/tienluong/workspace/atlantis_fw/AsicFwS2/src/af_roi_transfer.cpp ****             ltaf::ModuleName ref_mod = static_cast<ltaf::ModuleName>(ref_mod_idx-1);
 560              		.loc 2 51 0
 561 0056 079A     		ldr	r2, [sp, #28]
  50:/home/tienluong/workspace/atlantis_fw/AsicFwS2/src/af_roi_transfer.cpp ****             std::uint16_t roi_center_x = left_x + width/2;
 562              		.loc 2 50 0
 563 0058 D044     		add	r8, r8, r10
 564              		.loc 2 52 0
 565 005a 0A93     		str	r3, [sp, #40]
  53:/home/tienluong/workspace/atlantis_fw/AsicFwS2/src/af_roi_transfer.cpp ****             ltaf::ModuleName src_mod = static_cast<ltaf::ModuleName>(module_to_idx(pcam->info.modul
 566              		.loc 2 53 0
 567 005c 794B     		ldr	r3, .L44+16
  50:/home/tienluong/workspace/atlantis_fw/AsicFwS2/src/af_roi_transfer.cpp ****             std::uint16_t roi_center_x = left_x + width/2;
 568              		.loc 2 50 0
 569 005e 1FFA88F8 		uxth	r8, r8
  51:/home/tienluong/workspace/atlantis_fw/AsicFwS2/src/af_roi_transfer.cpp ****             ltaf::ModuleName ref_mod = static_cast<ltaf::ModuleName>(ref_mod_idx-1);
 570              		.loc 2 51 0
 571 0062 5208     		lsrs	r2, r2, #1
 572 0064 1744     		add	r7, r7, r2
 573 0066 0892     		str	r2, [sp, #32]
 574 0068 BFB2     		uxth	r7, r7
  44:/home/tienluong/workspace/atlantis_fw/AsicFwS2/src/af_roi_transfer.cpp ****             std::uint8_t ref_mod_idx = light_system->settings->roi_transfer.ref_mod_idx;
 575              		.loc 2 44 0
 576 006a 0446     		mov	r4, r0
 577              	.LVL52:
 578              		.loc 2 53 0
 579 006c 90F82900 		ldrb	r0, [r0, #41]	@ zero_extendqisi2
 580              	.LVL53:
 581 0070 9847     		blx	r3
 582              	.LVL54:
  54:/home/tienluong/workspace/atlantis_fw/AsicFwS2/src/af_roi_transfer.cpp ****             // Compute mirror hallcode
  55:/home/tienluong/workspace/atlantis_fw/AsicFwS2/src/af_roi_transfer.cpp ****             std::uint16_t mirror_hc = 0;
 583              		.loc 2 55 0
 584 0072 0023     		movs	r3, #0
 585 0074 ADF83630 		strh	r3, [sp, #54]	@ movhi
 586              	.LBB208:
  56:/home/tienluong/workspace/atlantis_fw/AsicFwS2/src/af_roi_transfer.cpp ****             if (pcam->optical->mirr != nullptr) {
 587              		.loc 2 56 0
 588 0078 6368     		ldr	r3, [r4, #4]
 589              	.LBE208:
  53:/home/tienluong/workspace/atlantis_fw/AsicFwS2/src/af_roi_transfer.cpp ****             // Compute mirror hallcode
 590              		.loc 2 53 0
 591 007a 0138     		subs	r0, r0, #1
 592 007c 5FFA80F9 		uxtb	r9, r0
 593              	.LVL55:
 594              	.LBB210:
 595              		.loc 2 56 0
 596 0080 5868     		ldr	r0, [r3, #4]
 597 0082 18B1     		cbz	r0, .L27
 598              	.LVL56:
 599              	.LBB209:
  57:/home/tienluong/workspace/atlantis_fw/AsicFwS2/src/af_roi_transfer.cpp ****                 actuator_t *mirr = static_cast<actuator_t *>(pcam->optical->mirr);
  58:/home/tienluong/workspace/atlantis_fw/AsicFwS2/src/af_roi_transfer.cpp ****                 actuator_read_position(mirr, &mirror_hc);
 600              		.loc 2 58 0
 601 0084 0DF13601 		add	r1, sp, #54
 602 0088 6F4B     		ldr	r3, .L44+20
 603 008a 9847     		blx	r3
 604              	.LVL57:
 605              	.L27:
 606              	.LBE209:
 607              	.LBE210:
  59:/home/tienluong/workspace/atlantis_fw/AsicFwS2/src/af_roi_transfer.cpp ****             }
  60:/home/tienluong/workspace/atlantis_fw/AsicFwS2/src/af_roi_transfer.cpp ****             ltaf::Vec2f src_roi_center = ltaf::transferROI(ref_mod, src_mod,
  61:/home/tienluong/workspace/atlantis_fw/AsicFwS2/src/af_roi_transfer.cpp ****                     calib_data_manager::instance().geometric_calib(), ltaf::Vec2f(roi_center_x, roi
 608              		.loc 2 61 0
 609 008c 6F4B     		ldr	r3, .L44+24
 610 008e 9847     		blx	r3
 611              	.LVL58:
  62:/home/tienluong/workspace/atlantis_fw/AsicFwS2/src/af_roi_transfer.cpp ****                     light_system->settings->roi_transfer.distance_mm, mirror_hc);
 612              		.loc 2 62 0
 613 0090 6F4E     		ldr	r6, .L44+28
  61:/home/tienluong/workspace/atlantis_fw/AsicFwS2/src/af_roi_transfer.cpp ****                     light_system->settings->roi_transfer.distance_mm, mirror_hc);
 614              		.loc 2 61 0
 615 0092 0B90     		str	r0, [sp, #44]
 616              	.LVL59:
 617              		.loc 2 62 0
 618 0094 4046     		mov	r0, r8
 619              	.LVL60:
 620 0096 B047     		blx	r6
 621              	.LVL61:
 622 0098 1290     		str	r0, [sp, #72]	@ float
 623 009a 3846     		mov	r0, r7
 624 009c B047     		blx	r6
 625              	.LVL62:
 626 009e 12AF     		add	r7, sp, #72
 627              	.LVL63:
 628 00a0 0097     		str	r7, [sp]
 629 00a2 DBF80810 		ldr	r1, [fp, #8]
  63:/home/tienluong/workspace/atlantis_fw/AsicFwS2/src/af_roi_transfer.cpp **** 
  64:/home/tienluong/workspace/atlantis_fw/AsicFwS2/src/af_roi_transfer.cpp ****             SLOGF(SLOG_DEBUG, "ROI transfer to %X (mirror hc: %d): %f %f", (int)pcam->info.module,
  65:/home/tienluong/workspace/atlantis_fw/AsicFwS2/src/af_roi_transfer.cpp ****                     (int)mirror_hc, src_roi_center.x(), src_roi_center.y());
 630              		.loc 2 65 0
 631 00a6 DFF890B1 		ldr	fp, .L44+4
  62:/home/tienluong/workspace/atlantis_fw/AsicFwS2/src/af_roi_transfer.cpp **** 
 632              		.loc 2 62 0
 633 00aa 1390     		str	r0, [sp, #76]	@ float
 634 00ac D1F89000 		ldr	r0, [r1, #144]
 635 00b0 B047     		blx	r6
 636              	.LVL64:
 637 00b2 BDF83620 		ldrh	r2, [sp, #54]
 638 00b6 0A99     		ldr	r1, [sp, #40]
 639 00b8 0292     		str	r2, [sp, #8]
 640 00ba 4A46     		mov	r2, r9
 641 00bc 0B9B     		ldr	r3, [sp, #44]
 642 00be 654E     		ldr	r6, .L44+32
 643 00c0 0190     		str	r0, [sp, #4]	@ float
 644 00c2 0EA8     		add	r0, sp, #56
 645 00c4 B047     		blx	r6
 646              	.LVL65:
  64:/home/tienluong/workspace/atlantis_fw/AsicFwS2/src/af_roi_transfer.cpp ****                     (int)mirror_hc, src_roi_center.x(), src_roi_center.y());
 647              		.loc 2 64 0
 648 00c6 94F82980 		ldrb	r8, [r4, #41]	@ zero_extendqisi2
 649              	.LVL66:
 650 00ca BDF83630 		ldrh	r3, [sp, #54]
 651 00ce 624E     		ldr	r6, .L44+36
 652 00d0 0093     		str	r3, [sp]
 653 00d2 0E98     		ldr	r0, [sp, #56]	@ float
 654 00d4 B047     		blx	r6
 655              	.LVL67:
 656 00d6 CDE90201 		strd	r0, [sp, #8]
 657 00da 0F98     		ldr	r0, [sp, #60]	@ float
 658 00dc B047     		blx	r6
 659              	.LVL68:
 660              		.loc 2 65 0
 661 00de 4346     		mov	r3, r8
 662 00e0 5E4A     		ldr	r2, .L44+40
  66:/home/tienluong/workspace/atlantis_fw/AsicFwS2/src/af_roi_transfer.cpp **** 
  67:/home/tienluong/workspace/atlantis_fw/AsicFwS2/src/af_roi_transfer.cpp ****             constexpr float calib_img_width{4160.0f};
  68:/home/tienluong/workspace/atlantis_fw/AsicFwS2/src/af_roi_transfer.cpp ****             constexpr float calib_img_height{3120.0f};
  69:/home/tienluong/workspace/atlantis_fw/AsicFwS2/src/af_roi_transfer.cpp ****             float src_left_x = src_roi_center.x() - width/2;
 663              		.loc 2 69 0
 664 00e2 5F4E     		ldr	r6, .L44+44
 665 00e4 DFF8A881 		ldr	r8, .L44+92
  64:/home/tienluong/workspace/atlantis_fw/AsicFwS2/src/af_roi_transfer.cpp ****                     (int)mirror_hc, src_roi_center.x(), src_roi_center.y());
 666              		.loc 2 64 0
 667 00e8 CDE90401 		strd	r0, [sp, #16]
  65:/home/tienluong/workspace/atlantis_fw/AsicFwS2/src/af_roi_transfer.cpp **** 
 668              		.loc 2 65 0
 669 00ec 1021     		movs	r1, #16
 670 00ee 2B20     		movs	r0, #43
 671 00f0 D847     		blx	fp
 672              	.LVL69:
 673              		.loc 2 69 0
 674 00f2 5046     		mov	r0, r10
 675 00f4 B047     		blx	r6
 676              	.LVL70:
 677 00f6 0146     		mov	r1, r0
 678 00f8 0E98     		ldr	r0, [sp, #56]	@ float
 679 00fa C047     		blx	r8
 680              	.LVL71:
  70:/home/tienluong/workspace/atlantis_fw/AsicFwS2/src/af_roi_transfer.cpp ****             if (src_left_x < 0.0f)
 681              		.loc 2 70 0
 682 00fc 0021     		movs	r1, #0
 683 00fe 594B     		ldr	r3, .L44+48
  69:/home/tienluong/workspace/atlantis_fw/AsicFwS2/src/af_roi_transfer.cpp ****             if (src_left_x < 0.0f)
 684              		.loc 2 69 0
 685 0100 8146     		mov	r9, r0
 686              	.LVL72:
 687              		.loc 2 70 0
 688 0102 9847     		blx	r3
 689              	.LVL73:
 690 0104 78B9     		cbnz	r0, .L33
  71:/home/tienluong/workspace/atlantis_fw/AsicFwS2/src/af_roi_transfer.cpp ****                 src_left_x = 0.0f;
  72:/home/tienluong/workspace/atlantis_fw/AsicFwS2/src/af_roi_transfer.cpp ****             else if (src_left_x + width > calib_img_width)
 691              		.loc 2 72 0
 692 0106 0698     		ldr	r0, [sp, #24]
 693 0108 B047     		blx	r6
 694              	.LVL74:
 695 010a 574B     		ldr	r3, .L44+52
 696 010c 8246     		mov	r10, r0
 697 010e 4846     		mov	r0, r9
 698 0110 5146     		mov	r1, r10
 699 0112 9847     		blx	r3
 700              	.LVL75:
 701 0114 5549     		ldr	r1, .L44+56
 702 0116 564B     		ldr	r3, .L44+60
 703 0118 9847     		blx	r3
 704              	.LVL76:
 705 011a 30B1     		cbz	r0, .L28
  73:/home/tienluong/workspace/atlantis_fw/AsicFwS2/src/af_roi_transfer.cpp ****                 src_left_x = calib_img_width - width;
 706              		.loc 2 73 0
 707 011c 5348     		ldr	r0, .L44+56
 708 011e 5146     		mov	r1, r10
 709 0120 C047     		blx	r8
 710              	.LVL77:
 711 0122 8146     		mov	r9, r0
 712              	.LVL78:
 713 0124 01E0     		b	.L28
 714              	.LVL79:
 715              	.L33:
  71:/home/tienluong/workspace/atlantis_fw/AsicFwS2/src/af_roi_transfer.cpp ****                 src_left_x = 0.0f;
 716              		.loc 2 71 0
 717 0126 4FF00009 		mov	r9, #0
 718              	.LVL80:
 719              	.L28:
  74:/home/tienluong/workspace/atlantis_fw/AsicFwS2/src/af_roi_transfer.cpp ****             float src_top_y = src_roi_center.y() - height/2;
 720              		.loc 2 74 0
 721 012a 4D4B     		ldr	r3, .L44+44
 722 012c 0898     		ldr	r0, [sp, #32]
 723 012e 0893     		str	r3, [sp, #32]
 724 0130 9847     		blx	r3
 725              	.LVL81:
 726 0132 DFF85CA1 		ldr	r10, .L44+92
 727 0136 0146     		mov	r1, r0
 728 0138 0F98     		ldr	r0, [sp, #60]	@ float
 729 013a D047     		blx	r10
 730              	.LVL82:
  75:/home/tienluong/workspace/atlantis_fw/AsicFwS2/src/af_roi_transfer.cpp ****             if (src_top_y < 0.0f)
 731              		.loc 2 75 0
 732 013c 0021     		movs	r1, #0
 733 013e 494A     		ldr	r2, .L44+48
  74:/home/tienluong/workspace/atlantis_fw/AsicFwS2/src/af_roi_transfer.cpp ****             float src_top_y = src_roi_center.y() - height/2;
 734              		.loc 2 74 0
 735 0140 8046     		mov	r8, r0
 736              	.LVL83:
 737              		.loc 2 75 0
 738 0142 9047     		blx	r2
 739              	.LVL84:
 740 0144 90B9     		cbnz	r0, .L34
  76:/home/tienluong/workspace/atlantis_fw/AsicFwS2/src/af_roi_transfer.cpp ****                 src_top_y = 0.0f;
  77:/home/tienluong/workspace/atlantis_fw/AsicFwS2/src/af_roi_transfer.cpp ****             else if (src_top_y + height > calib_img_height)
 741              		.loc 2 77 0
 742 0146 089B     		ldr	r3, [sp, #32]
 743 0148 0798     		ldr	r0, [sp, #28]
 744 014a 9847     		blx	r3
 745              	.LVL85:
 746 014c 464A     		ldr	r2, .L44+52
 747 014e 0346     		mov	r3, r0
 748 0150 4046     		mov	r0, r8
 749 0152 1946     		mov	r1, r3
 750 0154 0893     		str	r3, [sp, #32]
 751 0156 9047     		blx	r2
 752              	.LVL86:
 753 0158 4649     		ldr	r1, .L44+64
 754 015a 454A     		ldr	r2, .L44+60
 755 015c 9047     		blx	r2
 756              	.LVL87:
 757 015e 089B     		ldr	r3, [sp, #32]
 758 0160 30B1     		cbz	r0, .L30
  78:/home/tienluong/workspace/atlantis_fw/AsicFwS2/src/af_roi_transfer.cpp ****                 src_top_y = calib_img_height - height;
 759              		.loc 2 78 0
 760 0162 4448     		ldr	r0, .L44+64
 761 0164 1946     		mov	r1, r3
 762 0166 D047     		blx	r10
 763              	.LVL88:
 764 0168 8046     		mov	r8, r0
 765              	.LVL89:
 766 016a 01E0     		b	.L30
 767              	.LVL90:
 768              	.L34:
  76:/home/tienluong/workspace/atlantis_fw/AsicFwS2/src/af_roi_transfer.cpp ****                 src_top_y = 0.0f;
 769              		.loc 2 76 0
 770 016c 4FF00008 		mov	r8, #0
 771              	.LVL91:
 772              	.L30:
  79:/home/tienluong/workspace/atlantis_fw/AsicFwS2/src/af_roi_transfer.cpp ****             // Save ROI center in calibration coordinates ratio for later storing in light header
  80:/home/tienluong/workspace/atlantis_fw/AsicFwS2/src/af_roi_transfer.cpp ****             rectangle src_roi(src_left_x, src_top_y, width, height);
 773              		.loc 2 80 0
 774 0170 DFF820A1 		ldr	r10, .L44+96
 775 0174 4846     		mov	r0, r9
 776 0176 D047     		blx	r10
 777              	.LVL92:
 778 0178 0FFA80F9 		sxth	r9, r0
 779              	.LVL93:
 780 017c 4046     		mov	r0, r8
 781 017e D047     		blx	r10
 782              	.LVL94:
 783 0180 079B     		ldr	r3, [sp, #28]
 784 0182 DFF814C1 		ldr	ip, .L44+100
 785 0186 4946     		mov	r1, r9
 786 0188 0093     		str	r3, [sp]
 787 018a 069B     		ldr	r3, [sp, #24]
  81:/home/tienluong/workspace/atlantis_fw/AsicFwS2/src/af_roi_transfer.cpp ****             pcam->cam_common_data.roi_center_x = (src_roi.left_x() + src_roi.width()/2) / calib_img
 788              		.loc 2 81 0
 789 018c DFF80C81 		ldr	r8, .L44+104
 790              	.LVL95:
  80:/home/tienluong/workspace/atlantis_fw/AsicFwS2/src/af_roi_transfer.cpp ****             pcam->cam_common_data.roi_center_x = (src_roi.left_x() + src_roi.width()/2) / calib_img
 791              		.loc 2 80 0
 792 0190 02B2     		sxth	r2, r0
 793 0192 10A8     		add	r0, sp, #64
 794 0194 E047     		blx	ip
 795              	.LVL96:
 796              		.loc 2 81 0
 797 0196 BDF94030 		ldrsh	r3, [sp, #64]
 798 019a BDF84400 		ldrh	r0, [sp, #68]
 799 019e 03EB5000 		add	r0, r3, r0, lsr #1
 800 01a2 B047     		blx	r6
 801              	.LVL97:
 802 01a4 3149     		ldr	r1, .L44+56
 803 01a6 C047     		blx	r8
 804              	.LVL98:
  82:/home/tienluong/workspace/atlantis_fw/AsicFwS2/src/af_roi_transfer.cpp ****             pcam->cam_common_data.roi_center_y = (src_roi.top_y() + src_roi.height()/2) / calib_img
 805              		.loc 2 82 0
 806 01a8 BDF94230 		ldrsh	r3, [sp, #66]
  81:/home/tienluong/workspace/atlantis_fw/AsicFwS2/src/af_roi_transfer.cpp ****             pcam->cam_common_data.roi_center_x = (src_roi.left_x() + src_roi.width()/2) / calib_img
 807              		.loc 2 81 0
 808 01ac 6061     		str	r0, [r4, #20]	@ float
 809              	.LVL99:
 810              		.loc 2 82 0
 811 01ae BDF84600 		ldrh	r0, [sp, #70]
 812 01b2 03EB5000 		add	r0, r3, r0, lsr #1
 813 01b6 B047     		blx	r6
 814              	.LVL100:
 815 01b8 2E49     		ldr	r1, .L44+64
 816 01ba C047     		blx	r8
 817              	.LVL101:
  83:/home/tienluong/workspace/atlantis_fw/AsicFwS2/src/af_roi_transfer.cpp ****             // Save ROI in sensor coordinates for contrast refinement
  84:/home/tienluong/workspace/atlantis_fw/AsicFwS2/src/af_roi_transfer.cpp ****             rectangle abs_src_roi = calib_rectangle_to_abs(src_roi, pcam->image->flip);
 818              		.loc 2 84 0
 819 01bc 2368     		ldr	r3, [r4]
 820 01be 10A9     		add	r1, sp, #64
 821              	.LVL102:
 822 01c0 93F84420 		ldrb	r2, [r3, #68]	@ zero_extendqisi2
 823 01c4 2C4B     		ldr	r3, .L44+68
  82:/home/tienluong/workspace/atlantis_fw/AsicFwS2/src/af_roi_transfer.cpp ****             pcam->cam_common_data.roi_center_y = (src_roi.top_y() + src_roi.height()/2) / calib_img
 824              		.loc 2 82 0
 825 01c6 A061     		str	r0, [r4, #24]	@ float
 826              		.loc 2 84 0
 827 01c8 3846     		mov	r0, r7
 828 01ca 9847     		blx	r3
 829              	.LVL103:
 830 01cc BDF84810 		ldrh	r1, [sp, #72]
 831              	.LVL104:
  85:/home/tienluong/workspace/atlantis_fw/AsicFwS2/src/af_roi_transfer.cpp ****             pcam->cam_common_data.roi_rectangle.left_x = abs_src_roi.left_x();
 832              		.loc 2 85 0
 833 01d0 A181     		strh	r1, [r4, #12]	@ movhi
  86:/home/tienluong/workspace/atlantis_fw/AsicFwS2/src/af_roi_transfer.cpp ****             pcam->cam_common_data.roi_rectangle.top_y = abs_src_roi.top_y();
  87:/home/tienluong/workspace/atlantis_fw/AsicFwS2/src/af_roi_transfer.cpp ****             pcam->cam_common_data.roi_rectangle.width = abs_src_roi.width();
  88:/home/tienluong/workspace/atlantis_fw/AsicFwS2/src/af_roi_transfer.cpp ****             pcam->cam_common_data.roi_rectangle.height = abs_src_roi.height();
  89:/home/tienluong/workspace/atlantis_fw/AsicFwS2/src/af_roi_transfer.cpp ****             SLOGF(SLOG_DEBUG, "Abs ROI of %X: %u %u %u %u", (int)pcam->info.module,
 834              		.loc 2 89 0
 835 01d2 09B2     		sxth	r1, r1
 836 01d4 BDF84A20 		ldrh	r2, [sp, #74]
 837              	.LVL105:
  86:/home/tienluong/workspace/atlantis_fw/AsicFwS2/src/af_roi_transfer.cpp ****             pcam->cam_common_data.roi_rectangle.top_y = abs_src_roi.top_y();
 838              		.loc 2 86 0
 839 01d8 E281     		strh	r2, [r4, #14]	@ movhi
 840              		.loc 2 89 0
 841 01da 12B2     		sxth	r2, r2
 842 01dc 94F82930 		ldrb	r3, [r4, #41]	@ zero_extendqisi2
 843 01e0 BDF84C60 		ldrh	r6, [sp, #76]
 844              	.LVL106:
  87:/home/tienluong/workspace/atlantis_fw/AsicFwS2/src/af_roi_transfer.cpp ****             pcam->cam_common_data.roi_rectangle.height = abs_src_roi.height();
 845              		.loc 2 87 0
 846 01e4 2682     		strh	r6, [r4, #16]	@ movhi
 847 01e6 BDF84E00 		ldrh	r0, [sp, #78]
 848              	.LVL107:
  88:/home/tienluong/workspace/atlantis_fw/AsicFwS2/src/af_roi_transfer.cpp ****             SLOGF(SLOG_DEBUG, "Abs ROI of %X: %u %u %u %u", (int)pcam->info.module,
 849              		.loc 2 88 0
 850 01ea 6082     		strh	r0, [r4, #18]	@ movhi
 851              		.loc 2 89 0
 852 01ec 0091     		str	r1, [sp]
  90:/home/tienluong/workspace/atlantis_fw/AsicFwS2/src/af_roi_transfer.cpp ****                     pcam->cam_common_data.roi_rectangle.left_x, pcam->cam_common_data.roi_rectangle
  91:/home/tienluong/workspace/atlantis_fw/AsicFwS2/src/af_roi_transfer.cpp ****                     pcam->cam_common_data.roi_rectangle.width, pcam->cam_common_data.roi_rectangle.
 853              		.loc 2 91 0
 854 01ee 1021     		movs	r1, #16
  89:/home/tienluong/workspace/atlantis_fw/AsicFwS2/src/af_roi_transfer.cpp ****                     pcam->cam_common_data.roi_rectangle.left_x, pcam->cam_common_data.roi_rectangle
 855              		.loc 2 89 0
 856 01f0 0192     		str	r2, [sp, #4]
 857 01f2 0390     		str	r0, [sp, #12]
 858              		.loc 2 91 0
 859 01f4 2B20     		movs	r0, #43
  89:/home/tienluong/workspace/atlantis_fw/AsicFwS2/src/af_roi_transfer.cpp ****                     pcam->cam_common_data.roi_rectangle.left_x, pcam->cam_common_data.roi_rectangle
 860              		.loc 2 89 0
 861 01f6 0296     		str	r6, [sp, #8]
 862              		.loc 2 91 0
 863 01f8 204A     		ldr	r2, .L44+72
 864 01fa D847     		blx	fp
 865              	.LVL108:
 866              	.L26:
 867              	.LBE207:
 868              	.LBE206:
  40:/home/tienluong/workspace/atlantis_fw/AsicFwS2/src/af_roi_transfer.cpp ****         if ((cam_channel_bitmask & (1 << i)) != 0) {
 869              		.loc 2 40 0 discriminator 2
 870 01fc 0135     		adds	r5, r5, #1
 871              	.LVL109:
 872 01fe 062D     		cmp	r5, #6
 873 0200 7FF403AF 		bne	.L32
 874              	.LBE211:
  92:/home/tienluong/workspace/atlantis_fw/AsicFwS2/src/af_roi_transfer.cpp ****         }
  93:/home/tienluong/workspace/atlantis_fw/AsicFwS2/src/af_roi_transfer.cpp ****     }
  94:/home/tienluong/workspace/atlantis_fw/AsicFwS2/src/af_roi_transfer.cpp ****     contrast_sweep_manager csm;
 875              		.loc 2 94 0
 876 0204 12A8     		add	r0, sp, #72
 877 0206 1E4B     		ldr	r3, .L44+76
 878 0208 9847     		blx	r3
 879              	.LVL110:
  95:/home/tienluong/workspace/atlantis_fw/AsicFwS2/src/af_roi_transfer.cpp ****     csm.init_refinement(cam_channel_bitmask, light_system->settings->roi_transfer.distance_mm);
 880              		.loc 2 95 0
 881 020a 0D4B     		ldr	r3, .L44+12
 882 020c 0999     		ldr	r1, [sp, #36]
 883 020e 12A8     		add	r0, sp, #72
 884 0210 1B68     		ldr	r3, [r3]
 885 0212 9B68     		ldr	r3, [r3, #8]
 886 0214 D3F89020 		ldr	r2, [r3, #144]
 887 0218 1A4B     		ldr	r3, .L44+80
 888 021a 9847     		blx	r3
 889              	.LVL111:
  96:/home/tienluong/workspace/atlantis_fw/AsicFwS2/src/af_roi_transfer.cpp ****     return csm.execute_sweep();
 890              		.loc 2 96 0
 891 021c 12A8     		add	r0, sp, #72
 892 021e 1A4B     		ldr	r3, .L44+84
 893 0220 9847     		blx	r3
 894              	.LVL112:
 895 0222 1A4B     		ldr	r3, .L44+88
 896 0224 0446     		mov	r4, r0
 897 0226 12A8     		add	r0, sp, #72
 898 0228 9847     		blx	r3
 899              	.LVL113:
 900              	.LBE212:
  97:/home/tienluong/workspace/atlantis_fw/AsicFwS2/src/af_roi_transfer.cpp **** }
 901              		.loc 2 97 0
 902 022a 2046     		mov	r0, r4
 903 022c 35B0     		add	sp, sp, #212
 904              	.LCFI10:
 905              		.cfi_def_cfa_offset 36
 906              		@ sp needed
 907 022e BDE8F08F 		pop	{r4, r5, r6, r7, r8, r9, r10, fp, pc}
 908              	.LVL114:
 909              	.L45:
 910 0232 00BF     		.align	2
 911              	.L44:
 912 0234 00000000 		.word	.LC0
 913 0238 00000000 		.word	slogf
 914 023c 00000000 		.word	chan_to_object
 915 0240 00000000 		.word	light_system
 916 0244 00000000 		.word	module_to_idx
 917 0248 00000000 		.word	actuator_read_position
 918 024c 00000000 		.word	_ZN18calib_data_manager8instanceEv
 919 0250 00000000 		.word	__aeabi_ui2f
 920 0254 00000000 		.word	_ZN4ltaf11transferROIENS_10ModuleNameES0_RKNS_16CalibDataManagerERKNS_4Vec2IfEEft
 921 0258 00000000 		.word	__aeabi_f2d
 922 025c 1A000000 		.word	.LC1
 923 0260 00000000 		.word	__aeabi_i2f
 924 0264 00000000 		.word	__aeabi_fcmplt
 925 0268 00000000 		.word	__aeabi_fadd
 926 026c 00008245 		.word	1166147584
 927 0270 00000000 		.word	__aeabi_fcmpgt
 928 0274 00004345 		.word	1162018816
 929 0278 00000000 		.word	_Z22calib_rectangle_to_absRK9rectangle9flip_mode
 930 027c 44000000 		.word	.LC2
 931 0280 00000000 		.word	_ZN22contrast_sweep_managerC1Ev
 932 0284 00000000 		.word	_ZN22contrast_sweep_manager15init_refinementEmm
 933 0288 00000000 		.word	_ZN22contrast_sweep_manager13execute_sweepEv
 934 028c 00000000 		.word	_ZN22contrast_sweep_managerD1Ev
 935 0290 00000000 		.word	__aeabi_fsub
 936 0294 00000000 		.word	__aeabi_f2iz
 937 0298 00000000 		.word	_ZN9rectangleC1Esstt
 938 029c 00000000 		.word	__aeabi_fdiv
 939              		.cfi_endproc
 940              	.LFE3877:
 942              		.section	.text.af_roi_transfer_execute,"ax",%progbits
 943              		.align	1
 944              		.global	af_roi_transfer_execute
 945              		.thumb
 946              		.thumb_func
 948              	af_roi_transfer_execute:
 949              	.LFB3876:
  31:/home/tienluong/workspace/atlantis_fw/AsicFwS2/src/af_roi_transfer.cpp ****     optical_zoom_manager::instance().wait_for_mirrors_move_done();
 950              		.loc 2 31 0
 951              		.cfi_startproc
 952              		@ args = 0, pretend = 0, frame = 8
 953              		@ frame_needed = 0, uses_anonymous_args = 0
 954              	.LVL115:
 955 0000 13B5     		push	{r0, r1, r4, lr}
 956              	.LCFI11:
 957              		.cfi_def_cfa_offset 16
 958              		.cfi_offset 4, -8
 959              		.cfi_offset 14, -4
 960              	.LBB213:
  32:/home/tienluong/workspace/atlantis_fw/AsicFwS2/src/af_roi_transfer.cpp ****     af_roi_transfer afrt;
 961              		.loc 2 32 0
 962 0002 054B     		ldr	r3, .L47
 963              	.LBE213:
  31:/home/tienluong/workspace/atlantis_fw/AsicFwS2/src/af_roi_transfer.cpp ****     optical_zoom_manager::instance().wait_for_mirrors_move_done();
 964              		.loc 2 31 0
 965 0004 0446     		mov	r4, r0
 966              	.LBB214:
  32:/home/tienluong/workspace/atlantis_fw/AsicFwS2/src/af_roi_transfer.cpp ****     af_roi_transfer afrt;
 967              		.loc 2 32 0
 968 0006 0548     		ldr	r0, .L47+4
 969              	.LVL116:
 970 0008 9847     		blx	r3
 971              	.LVL117:
  34:/home/tienluong/workspace/atlantis_fw/AsicFwS2/src/af_roi_transfer.cpp **** }
 972              		.loc 2 34 0
 973 000a 01A8     		add	r0, sp, #4
 974 000c 2146     		mov	r1, r4
 975 000e 044B     		ldr	r3, .L47+8
 976 0010 9847     		blx	r3
 977              	.LVL118:
 978              	.LBE214:
  35:/home/tienluong/workspace/atlantis_fw/AsicFwS2/src/af_roi_transfer.cpp **** 
 979              		.loc 2 35 0
 980 0012 02B0     		add	sp, sp, #8
 981              	.LCFI12:
 982              		.cfi_def_cfa_offset 8
 983              		@ sp needed
 984 0014 10BD     		pop	{r4, pc}
 985              	.LVL119:
 986              	.L48:
 987 0016 00BF     		.align	2
 988              	.L47:
 989 0018 00000000 		.word	_ZN20optical_zoom_manager26wait_for_mirrors_move_doneEv
 990 001c 00000000 		.word	_ZN20optical_zoom_manager9instance_E
 991 0020 00000000 		.word	_ZN15af_roi_transfer3runEm
 992              		.cfi_endproc
 993              	.LFE3876:
 995              		.section	.text._ZNK4ltaf20SquareMatrixInverterIfLi3EE3runEPf,"axG",%progbits,_ZNK4ltaf20SquareMatr
 996              		.align	1
 997              		.weak	_ZNK4ltaf20SquareMatrixInverterIfLi3EE3runEPf
 998              		.thumb
 999              		.thumb_func
 1001              	_ZNK4ltaf20SquareMatrixInverterIfLi3EE3runEPf:
 1002              	.LFB4048:
1140:/home/tienluong/workspace/atlantis_fw/AsicFwS2/include/matrix.h ****     {
 1003              		.loc 1 1140 0
 1004              		.cfi_startproc
 1005              		@ args = 0, pretend = 0, frame = 72
 1006              		@ frame_needed = 0, uses_anonymous_args = 0
 1007              	.LVL120:
 1008 0000 2DE9F04F 		push	{r4, r5, r6, r7, r8, r9, r10, fp, lr}
 1009              	.LCFI13:
 1010              		.cfi_def_cfa_offset 36
 1011              		.cfi_offset 4, -36
 1012              		.cfi_offset 5, -32
 1013              		.cfi_offset 6, -28
 1014              		.cfi_offset 7, -24
 1015              		.cfi_offset 8, -20
 1016              		.cfi_offset 9, -16
 1017              		.cfi_offset 10, -12
 1018              		.cfi_offset 11, -8
 1019              		.cfi_offset 14, -4
 1020 0004 93B0     		sub	sp, sp, #76
 1021              	.LCFI14:
 1022              		.cfi_def_cfa_offset 112
 1023              	.LBB215:
1142:/home/tienluong/workspace/atlantis_fw/AsicFwS2/include/matrix.h ****                       - mat[1] * ( mat[3] * mat[8] - mat[5] * mat[6] )
 1024              		.loc 1 1142 0
 1025 0006 0B69     		ldr	r3, [r1, #16]	@ float
 1026              	.LBE215:
1140:/home/tienluong/workspace/atlantis_fw/AsicFwS2/include/matrix.h ****     {
 1027              		.loc 1 1140 0
 1028 0008 8946     		mov	r9, r1
 1029              	.LBB218:
1142:/home/tienluong/workspace/atlantis_fw/AsicFwS2/include/matrix.h ****                       - mat[1] * ( mat[3] * mat[8] - mat[5] * mat[6] )
 1030              		.loc 1 1142 0
 1031 000a D1F820A0 		ldr	r10, [r1, #32]	@ float
 1032 000e 0093     		str	r3, [sp]	@ float
 1033 0010 CB69     		ldr	r3, [r1, #28]	@ float
1144:/home/tienluong/workspace/atlantis_fw/AsicFwS2/include/matrix.h **** 
 1034              		.loc 1 1144 0
 1035 0012 554C     		ldr	r4, .L52
1142:/home/tienluong/workspace/atlantis_fw/AsicFwS2/include/matrix.h ****                       - mat[1] * ( mat[3] * mat[8] - mat[5] * mat[6] )
 1036              		.loc 1 1142 0
 1037 0014 0F68     		ldr	r7, [r1]	@ float
 1038 0016 0193     		str	r3, [sp, #4]	@ float
1144:/home/tienluong/workspace/atlantis_fw/AsicFwS2/include/matrix.h **** 
 1039              		.loc 1 1144 0
 1040 0018 0098     		ldr	r0, [sp]	@ float
 1041              	.LVL121:
1142:/home/tienluong/workspace/atlantis_fw/AsicFwS2/include/matrix.h ****                       - mat[1] * ( mat[3] * mat[8] - mat[5] * mat[6] )
 1042              		.loc 1 1142 0
 1043 001a 4B69     		ldr	r3, [r1, #20]	@ float
1144:/home/tienluong/workspace/atlantis_fw/AsicFwS2/include/matrix.h **** 
 1044              		.loc 1 1144 0
 1045 001c 5146     		mov	r1, r10
 1046              	.LVL122:
1142:/home/tienluong/workspace/atlantis_fw/AsicFwS2/include/matrix.h ****                       - mat[1] * ( mat[3] * mat[8] - mat[5] * mat[6] )
 1047              		.loc 1 1142 0
 1048 001e 0293     		str	r3, [sp, #8]	@ float
1144:/home/tienluong/workspace/atlantis_fw/AsicFwS2/include/matrix.h **** 
 1049              		.loc 1 1144 0
 1050 0020 A047     		blx	r4
 1051              	.LVL123:
 1052 0022 0299     		ldr	r1, [sp, #8]	@ float
 1053 0024 514D     		ldr	r5, .L52+4
 1054 0026 0646     		mov	r6, r0
 1055 0028 0198     		ldr	r0, [sp, #4]	@ float
 1056 002a A047     		blx	r4
 1057              	.LVL124:
 1058 002c 0146     		mov	r1, r0
 1059 002e 3046     		mov	r0, r6
 1060 0030 A847     		blx	r5
 1061              	.LVL125:
1143:/home/tienluong/workspace/atlantis_fw/AsicFwS2/include/matrix.h ****                       + mat[2] * ( mat[3] * mat[7] - mat[4] * mat[6] );
 1062              		.loc 1 1143 0
 1063 0032 D9F80C30 		ldr	r3, [r9, #12]	@ float
 1064 0036 0393     		str	r3, [sp, #12]	@ float
1144:/home/tienluong/workspace/atlantis_fw/AsicFwS2/include/matrix.h **** 
 1065              		.loc 1 1144 0
 1066 0038 5146     		mov	r1, r10
1143:/home/tienluong/workspace/atlantis_fw/AsicFwS2/include/matrix.h ****                       + mat[2] * ( mat[3] * mat[7] - mat[4] * mat[6] );
 1067              		.loc 1 1143 0
 1068 003a D9F81830 		ldr	r3, [r9, #24]	@ float
 1069 003e 0493     		str	r3, [sp, #16]	@ float
 1070 0040 D9F80460 		ldr	r6, [r9, #4]	@ float
1144:/home/tienluong/workspace/atlantis_fw/AsicFwS2/include/matrix.h **** 
 1071              		.loc 1 1144 0
 1072 0044 8346     		mov	fp, r0
 1073 0046 0398     		ldr	r0, [sp, #12]	@ float
 1074 0048 A047     		blx	r4
 1075              	.LVL126:
 1076 004a 0499     		ldr	r1, [sp, #16]	@ float
 1077 004c 8046     		mov	r8, r0
 1078 004e 0298     		ldr	r0, [sp, #8]	@ float
 1079 0050 A047     		blx	r4
 1080              	.LVL127:
 1081 0052 0146     		mov	r1, r0
 1082 0054 4046     		mov	r0, r8
 1083 0056 A847     		blx	r5
 1084              	.LVL128:
 1085 0058 0199     		ldr	r1, [sp, #4]	@ float
 1086 005a D9F80880 		ldr	r8, [r9, #8]	@ float
 1087 005e 0590     		str	r0, [sp, #20]	@ float
 1088 0060 0398     		ldr	r0, [sp, #12]	@ float
 1089 0062 A047     		blx	r4
 1090              	.LVL129:
 1091 0064 0499     		ldr	r1, [sp, #16]	@ float
 1092 0066 0690     		str	r0, [sp, #24]
 1093 0068 0098     		ldr	r0, [sp]	@ float
 1094 006a A047     		blx	r4
 1095              	.LVL130:
 1096 006c 069A     		ldr	r2, [sp, #24]
 1097 006e 0146     		mov	r1, r0
 1098 0070 1046     		mov	r0, r2
 1099 0072 A847     		blx	r5
 1100              	.LVL131:
 1101 0074 5946     		mov	r1, fp
 1102 0076 0690     		str	r0, [sp, #24]	@ float
 1103              	.LVL132:
 1104 0078 3846     		mov	r0, r7
 1105              	.LVL133:
 1106 007a A047     		blx	r4
 1107              	.LVL134:
 1108 007c 0599     		ldr	r1, [sp, #20]	@ float
 1109 007e 0790     		str	r0, [sp, #28]
 1110 0080 3046     		mov	r0, r6
 1111 0082 A047     		blx	r4
 1112              	.LVL135:
 1113 0084 079A     		ldr	r2, [sp, #28]
 1114 0086 0146     		mov	r1, r0
 1115 0088 1046     		mov	r0, r2
 1116 008a A847     		blx	r5
 1117              	.LVL136:
 1118 008c 0699     		ldr	r1, [sp, #24]	@ float
 1119 008e 0790     		str	r0, [sp, #28]
 1120 0090 4046     		mov	r0, r8
 1121 0092 A047     		blx	r4
 1122              	.LVL137:
 1123 0094 079A     		ldr	r2, [sp, #28]
 1124 0096 0146     		mov	r1, r0
 1125 0098 1046     		mov	r0, r2
 1126 009a 354A     		ldr	r2, .L52+8
 1127 009c 9047     		blx	r2
 1128              	.LVL138:
1146:/home/tienluong/workspace/atlantis_fw/AsicFwS2/include/matrix.h **** 
 1129              		.loc 1 1146 0
 1130 009e 354A     		ldr	r2, .L52+12
1144:/home/tienluong/workspace/atlantis_fw/AsicFwS2/include/matrix.h **** 
 1131              		.loc 1 1144 0
 1132 00a0 0146     		mov	r1, r0
1146:/home/tienluong/workspace/atlantis_fw/AsicFwS2/include/matrix.h **** 
 1133              		.loc 1 1146 0
 1134 00a2 4FF07E50 		mov	r0, #1065353216
 1135 00a6 9047     		blx	r2
 1136              	.LVL139:
1150:/home/tienluong/workspace/atlantis_fw/AsicFwS2/include/matrix.h ****         tmp[2] =  mat[1] * mat[5] - mat[2] * mat[4];
 1137              		.loc 1 1150 0
 1138 00a8 5146     		mov	r1, r10
1149:/home/tienluong/workspace/atlantis_fw/AsicFwS2/include/matrix.h ****         tmp[1] = -( mat[1] * mat[8] - mat[2] * mat[7] );
 1139              		.loc 1 1149 0
 1140 00aa CDF824B0 		str	fp, [sp, #36]	@ float
1146:/home/tienluong/workspace/atlantis_fw/AsicFwS2/include/matrix.h **** 
 1141              		.loc 1 1146 0
 1142 00ae 0790     		str	r0, [sp, #28]	@ float
 1143              	.LVL140:
1150:/home/tienluong/workspace/atlantis_fw/AsicFwS2/include/matrix.h ****         tmp[2] =  mat[1] * mat[5] - mat[2] * mat[4];
 1144              		.loc 1 1150 0
 1145 00b0 3046     		mov	r0, r6
 1146              	.LVL141:
 1147 00b2 A047     		blx	r4
 1148              	.LVL142:
 1149 00b4 0199     		ldr	r1, [sp, #4]	@ float
 1150 00b6 8346     		mov	fp, r0
 1151              	.LVL143:
 1152 00b8 4046     		mov	r0, r8
 1153 00ba A047     		blx	r4
 1154              	.LVL144:
 1155 00bc 0146     		mov	r1, r0
 1156 00be 5846     		mov	r0, fp
 1157 00c0 A847     		blx	r5
 1158              	.LVL145:
1151:/home/tienluong/workspace/atlantis_fw/AsicFwS2/include/matrix.h ****         tmp[3] = -( mat[3] * mat[8] - mat[5] * mat[6] );
 1159              		.loc 1 1151 0
 1160 00c2 0299     		ldr	r1, [sp, #8]	@ float
1150:/home/tienluong/workspace/atlantis_fw/AsicFwS2/include/matrix.h ****         tmp[2] =  mat[1] * mat[5] - mat[2] * mat[4];
 1161              		.loc 1 1150 0
 1162 00c4 00F10040 		add	r0, r0, #-2147483648
 1163 00c8 0A90     		str	r0, [sp, #40]	@ float
1151:/home/tienluong/workspace/atlantis_fw/AsicFwS2/include/matrix.h ****         tmp[3] = -( mat[3] * mat[8] - mat[5] * mat[6] );
 1164              		.loc 1 1151 0
 1165 00ca 3046     		mov	r0, r6
 1166 00cc A047     		blx	r4
 1167              	.LVL146:
 1168 00ce 0099     		ldr	r1, [sp]	@ float
 1169 00d0 8346     		mov	fp, r0
 1170 00d2 4046     		mov	r0, r8
 1171 00d4 A047     		blx	r4
 1172              	.LVL147:
 1173 00d6 0146     		mov	r1, r0
 1174 00d8 5846     		mov	r0, fp
 1175 00da A847     		blx	r5
 1176              	.LVL148:
1152:/home/tienluong/workspace/atlantis_fw/AsicFwS2/include/matrix.h ****         tmp[4] =  mat[0] * mat[8] - mat[2] * mat[6];
 1177              		.loc 1 1152 0
 1178 00dc 059B     		ldr	r3, [sp, #20]
1153:/home/tienluong/workspace/atlantis_fw/AsicFwS2/include/matrix.h ****         tmp[5] = -( mat[0] * mat[5] - mat[3] * mat[2] );
 1179              		.loc 1 1153 0
 1180 00de 5146     		mov	r1, r10
1152:/home/tienluong/workspace/atlantis_fw/AsicFwS2/include/matrix.h ****         tmp[4] =  mat[0] * mat[8] - mat[2] * mat[6];
 1181              		.loc 1 1152 0
 1182 00e0 03F10042 		add	r2, r3, #-2147483648
 1183 00e4 0C92     		str	r2, [sp, #48]	@ float
1151:/home/tienluong/workspace/atlantis_fw/AsicFwS2/include/matrix.h ****         tmp[3] = -( mat[3] * mat[8] - mat[5] * mat[6] );
 1184              		.loc 1 1151 0
 1185 00e6 0B90     		str	r0, [sp, #44]	@ float
1153:/home/tienluong/workspace/atlantis_fw/AsicFwS2/include/matrix.h ****         tmp[5] = -( mat[0] * mat[5] - mat[3] * mat[2] );
 1186              		.loc 1 1153 0
 1187 00e8 3846     		mov	r0, r7
 1188 00ea A047     		blx	r4
 1189              	.LVL149:
 1190 00ec 0499     		ldr	r1, [sp, #16]	@ float
 1191 00ee 8246     		mov	r10, r0
 1192 00f0 4046     		mov	r0, r8
 1193 00f2 A047     		blx	r4
 1194              	.LVL150:
 1195 00f4 0146     		mov	r1, r0
 1196 00f6 5046     		mov	r0, r10
 1197 00f8 A847     		blx	r5
 1198              	.LVL151:
1154:/home/tienluong/workspace/atlantis_fw/AsicFwS2/include/matrix.h ****         tmp[6] =  mat[3] * mat[7] - mat[6] * mat[ 4];
 1199              		.loc 1 1154 0
 1200 00fa 0299     		ldr	r1, [sp, #8]	@ float
1153:/home/tienluong/workspace/atlantis_fw/AsicFwS2/include/matrix.h ****         tmp[5] = -( mat[0] * mat[5] - mat[3] * mat[2] );
 1201              		.loc 1 1153 0
 1202 00fc 0D90     		str	r0, [sp, #52]	@ float
1154:/home/tienluong/workspace/atlantis_fw/AsicFwS2/include/matrix.h ****         tmp[6] =  mat[3] * mat[7] - mat[6] * mat[ 4];
 1203              		.loc 1 1154 0
 1204 00fe 3846     		mov	r0, r7
 1205 0100 A047     		blx	r4
 1206              	.LVL152:
 1207 0102 4146     		mov	r1, r8
 1208 0104 8246     		mov	r10, r0
 1209 0106 0398     		ldr	r0, [sp, #12]	@ float
 1210 0108 A047     		blx	r4
 1211              	.LVL153:
 1212 010a 0146     		mov	r1, r0
 1213 010c 5046     		mov	r0, r10
 1214 010e A847     		blx	r5
 1215              	.LVL154:
1155:/home/tienluong/workspace/atlantis_fw/AsicFwS2/include/matrix.h ****         tmp[7] = -( mat[0] * mat[7] - mat[6] * mat[1] );
 1216              		.loc 1 1155 0
 1217 0110 069B     		ldr	r3, [sp, #24]	@ float
1156:/home/tienluong/workspace/atlantis_fw/AsicFwS2/include/matrix.h ****         tmp[8] =  mat[0] * mat[4] - mat[3] * mat[1];
 1218              		.loc 1 1156 0
 1219 0112 0199     		ldr	r1, [sp, #4]	@ float
1155:/home/tienluong/workspace/atlantis_fw/AsicFwS2/include/matrix.h ****         tmp[7] = -( mat[0] * mat[7] - mat[6] * mat[1] );
 1220              		.loc 1 1155 0
 1221 0114 0F93     		str	r3, [sp, #60]	@ float
1154:/home/tienluong/workspace/atlantis_fw/AsicFwS2/include/matrix.h ****         tmp[6] =  mat[3] * mat[7] - mat[6] * mat[ 4];
 1222              		.loc 1 1154 0
 1223 0116 00F10040 		add	r0, r0, #-2147483648
 1224 011a 0E90     		str	r0, [sp, #56]	@ float
1156:/home/tienluong/workspace/atlantis_fw/AsicFwS2/include/matrix.h ****         tmp[8] =  mat[0] * mat[4] - mat[3] * mat[1];
 1225              		.loc 1 1156 0
 1226 011c 3846     		mov	r0, r7
 1227 011e A047     		blx	r4
 1228              	.LVL155:
 1229 0120 3146     		mov	r1, r6
 1230 0122 8046     		mov	r8, r0
 1231 0124 0498     		ldr	r0, [sp, #16]	@ float
 1232 0126 A047     		blx	r4
 1233              	.LVL156:
 1234 0128 0146     		mov	r1, r0
 1235 012a 4046     		mov	r0, r8
 1236 012c A847     		blx	r5
 1237              	.LVL157:
1157:/home/tienluong/workspace/atlantis_fw/AsicFwS2/include/matrix.h **** 
 1238              		.loc 1 1157 0
 1239 012e 0099     		ldr	r1, [sp]	@ float
1156:/home/tienluong/workspace/atlantis_fw/AsicFwS2/include/matrix.h ****         tmp[8] =  mat[0] * mat[4] - mat[3] * mat[1];
 1240              		.loc 1 1156 0
 1241 0130 00F10040 		add	r0, r0, #-2147483648
 1242 0134 1090     		str	r0, [sp, #64]	@ float
1157:/home/tienluong/workspace/atlantis_fw/AsicFwS2/include/matrix.h **** 
 1243              		.loc 1 1157 0
 1244 0136 3846     		mov	r0, r7
 1245 0138 A047     		blx	r4
 1246              	.LVL158:
 1247 013a 3146     		mov	r1, r6
 1248 013c 0746     		mov	r7, r0
 1249 013e 0398     		ldr	r0, [sp, #12]	@ float
 1250 0140 A047     		blx	r4
 1251              	.LVL159:
 1252 0142 0146     		mov	r1, r0
 1253 0144 3846     		mov	r0, r7
 1254 0146 A847     		blx	r5
 1255              	.LVL160:
 1256              	.LBB216:
1159:/home/tienluong/workspace/atlantis_fw/AsicFwS2/include/matrix.h ****     }
 1257              		.loc 1 1159 0
 1258 0148 0025     		movs	r5, #0
 1259              	.LBE216:
1157:/home/tienluong/workspace/atlantis_fw/AsicFwS2/include/matrix.h **** 
 1260              		.loc 1 1157 0
 1261 014a 1190     		str	r0, [sp, #68]	@ float
 1262              	.LVL161:
 1263              	.L50:
 1264              	.LBB217:
1159:/home/tienluong/workspace/atlantis_fw/AsicFwS2/include/matrix.h ****     }
 1265              		.loc 1 1159 0 discriminator 3
 1266 014c 09AA     		add	r2, sp, #36
 1267 014e 0799     		ldr	r1, [sp, #28]	@ float
 1268 0150 52F82500 		ldr	r0, [r2, r5, lsl #2]	@ float
 1269 0154 A047     		blx	r4
 1270              	.LVL162:
 1271 0156 49F82500 		str	r0, [r9, r5, lsl #2]	@ float
 1272 015a 0135     		adds	r5, r5, #1
 1273              	.LVL163:
 1274 015c 092D     		cmp	r5, #9
 1275 015e F5D1     		bne	.L50
 1276              	.LBE217:
 1277              	.LBE218:
1160:/home/tienluong/workspace/atlantis_fw/AsicFwS2/include/matrix.h **** };
 1278              		.loc 1 1160 0
 1279 0160 13B0     		add	sp, sp, #76
 1280              	.LCFI15:
 1281              		.cfi_def_cfa_offset 36
 1282              		@ sp needed
 1283 0162 BDE8F08F 		pop	{r4, r5, r6, r7, r8, r9, r10, fp, pc}
 1284              	.LVL164:
 1285              	.L53:
 1286 0166 00BF     		.align	2
 1287              	.L52:
 1288 0168 00000000 		.word	__aeabi_fmul
 1289 016c 00000000 		.word	__aeabi_fsub
 1290 0170 00000000 		.word	__aeabi_fadd
 1291 0174 00000000 		.word	__aeabi_fdiv
 1292              		.cfi_endproc
 1293              	.LFE4048:
 1295              		.section	.text._ZN4ltaf7inverseIfLi3ELb1EEENS_6MatrixIT_XT0_EXT0_EXT1_EEERKS3_,"axG",%progbits,_ZN
 1296              		.align	1
 1297              		.weak	_ZN4ltaf7inverseIfLi3ELb1EEENS_6MatrixIT_XT0_EXT0_EXT1_EEERKS3_
 1298              		.thumb
 1299              		.thumb_func
 1301              	_ZN4ltaf7inverseIfLi3ELb1EEENS_6MatrixIT_XT0_EXT0_EXT1_EEERKS3_:
 1302              	.LFB3906:
1247:/home/tienluong/workspace/atlantis_fw/AsicFwS2/include/matrix.h **** {
 1303              		.loc 1 1247 0
 1304              		.cfi_startproc
 1305              		@ args = 0, pretend = 0, frame = 8
 1306              		@ frame_needed = 0, uses_anonymous_args = 0
 1307              	.LVL165:
 1308 0000 73B5     		push	{r0, r1, r4, r5, r6, lr}
 1309              	.LCFI16:
 1310              		.cfi_def_cfa_offset 24
 1311              		.cfi_offset 4, -16
 1312              		.cfi_offset 5, -12
 1313              		.cfi_offset 6, -8
 1314              		.cfi_offset 14, -4
 1315              	.LBB225:
 1316              	.LBB226:
 1317              	.LBB227:
 591:/home/tienluong/workspace/atlantis_fw/AsicFwS2/include/matrix.h **** 
 1318              		.loc 1 591 0
 1319 0002 0D46     		mov	r5, r1
 1320              	.LBE227:
 1321              	.LBE226:
 1322              	.LBE225:
1247:/home/tienluong/workspace/atlantis_fw/AsicFwS2/include/matrix.h **** {
 1323              		.loc 1 1247 0
 1324 0004 0646     		mov	r6, r0
 1325              	.LBB232:
 1326              	.LBB230:
 1327              	.LBB228:
 591:/home/tienluong/workspace/atlantis_fw/AsicFwS2/include/matrix.h **** 
 1328              		.loc 1 591 0
 1329 0006 0446     		mov	r4, r0
 1330 0008 0FCD     		ldmia	r5!, {r0, r1, r2, r3}
 1331              	.LVL166:
 1332 000a 0FC4     		stmia	r4!, {r0, r1, r2, r3}
 1333              	.LVL167:
 1334 000c 0FCD     		ldmia	r5!, {r0, r1, r2, r3}
 1335              	.LVL168:
 1336 000e 0FC4     		stmia	r4!, {r0, r1, r2, r3}
 1337 0010 2B68     		ldr	r3, [r5]
 1338              	.LBE228:
 1339              	.LBE230:
1251:/home/tienluong/workspace/atlantis_fw/AsicFwS2/include/matrix.h ****     return rval;
 1340              		.loc 1 1251 0
 1341 0012 01A8     		add	r0, sp, #4
 1342              	.LBB231:
 1343              	.LBB229:
 591:/home/tienluong/workspace/atlantis_fw/AsicFwS2/include/matrix.h **** 
 1344              		.loc 1 591 0
 1345 0014 2360     		str	r3, [r4]
 1346              	.LVL169:
 1347              	.LBE229:
 1348              	.LBE231:
1251:/home/tienluong/workspace/atlantis_fw/AsicFwS2/include/matrix.h ****     return rval;
 1349              		.loc 1 1251 0
 1350 0016 3146     		mov	r1, r6
 1351 0018 024B     		ldr	r3, .L55
 1352 001a 9847     		blx	r3
 1353              	.LVL170:
 1354              	.LBE232:
1253:/home/tienluong/workspace/atlantis_fw/AsicFwS2/include/matrix.h **** 
 1355              		.loc 1 1253 0
 1356 001c 3046     		mov	r0, r6
 1357 001e 02B0     		add	sp, sp, #8
 1358              	.LCFI17:
 1359              		.cfi_def_cfa_offset 16
 1360              		@ sp needed
 1361 0020 70BD     		pop	{r4, r5, r6, pc}
 1362              	.LVL171:
 1363              	.L56:
 1364 0022 00BF     		.align	2
 1365              	.L55:
 1366 0024 00000000 		.word	_ZNK4ltaf20SquareMatrixInverterIfLi3EE3runEPf
 1367              		.cfi_endproc
 1368              	.LFE3906:
 1370              		.section	.text._ZN4ltaf7inverseIfLi3ELb0EEENS_6MatrixIT_XT0_EXT0_EXT1_EEERKS3_,"axG",%progbits,_ZN
 1371              		.align	1
 1372              		.weak	_ZN4ltaf7inverseIfLi3ELb0EEENS_6MatrixIT_XT0_EXT0_EXT1_EEERKS3_
 1373              		.thumb
 1374              		.thumb_func
 1376              	_ZN4ltaf7inverseIfLi3ELb0EEENS_6MatrixIT_XT0_EXT0_EXT1_EEERKS3_:
 1377              	.LFB3909:
1247:/home/tienluong/workspace/atlantis_fw/AsicFwS2/include/matrix.h **** {
 1378              		.loc 1 1247 0
 1379              		.cfi_startproc
 1380              		@ args = 0, pretend = 0, frame = 8
 1381              		@ frame_needed = 0, uses_anonymous_args = 0
 1382              	.LVL172:
 1383 0000 73B5     		push	{r0, r1, r4, r5, r6, lr}
 1384              	.LCFI18:
 1385              		.cfi_def_cfa_offset 24
 1386              		.cfi_offset 4, -16
 1387              		.cfi_offset 5, -12
 1388              		.cfi_offset 6, -8
 1389              		.cfi_offset 14, -4
 1390              	.LBB239:
 1391              	.LBB240:
 1392              	.LBB241:
 593:/home/tienluong/workspace/atlantis_fw/AsicFwS2/include/matrix.h **** 
 1393              		.loc 1 593 0
 1394 0002 0D46     		mov	r5, r1
 1395              	.LBE241:
 1396              	.LBE240:
 1397              	.LBE239:
1247:/home/tienluong/workspace/atlantis_fw/AsicFwS2/include/matrix.h **** {
 1398              		.loc 1 1247 0
 1399 0004 0646     		mov	r6, r0
 1400              	.LBB246:
 1401              	.LBB244:
 1402              	.LBB242:
 593:/home/tienluong/workspace/atlantis_fw/AsicFwS2/include/matrix.h **** 
 1403              		.loc 1 593 0
 1404 0006 0446     		mov	r4, r0
 1405 0008 0FCD     		ldmia	r5!, {r0, r1, r2, r3}
 1406              	.LVL173:
 1407 000a 0FC4     		stmia	r4!, {r0, r1, r2, r3}
 1408              	.LVL174:
 1409 000c 0FCD     		ldmia	r5!, {r0, r1, r2, r3}
 1410              	.LVL175:
 1411 000e 0FC4     		stmia	r4!, {r0, r1, r2, r3}
 1412 0010 2B68     		ldr	r3, [r5]
 1413              	.LBE242:
 1414              	.LBE244:
1251:/home/tienluong/workspace/atlantis_fw/AsicFwS2/include/matrix.h ****     return rval;
 1415              		.loc 1 1251 0
 1416 0012 01A8     		add	r0, sp, #4
 1417              	.LBB245:
 1418              	.LBB243:
 593:/home/tienluong/workspace/atlantis_fw/AsicFwS2/include/matrix.h **** 
 1419              		.loc 1 593 0
 1420 0014 2360     		str	r3, [r4]
 1421              	.LVL176:
 1422              	.LBE243:
 1423              	.LBE245:
1251:/home/tienluong/workspace/atlantis_fw/AsicFwS2/include/matrix.h ****     return rval;
 1424              		.loc 1 1251 0
 1425 0016 3146     		mov	r1, r6
 1426 0018 024B     		ldr	r3, .L58
 1427 001a 9847     		blx	r3
 1428              	.LVL177:
 1429              	.LBE246:
1253:/home/tienluong/workspace/atlantis_fw/AsicFwS2/include/matrix.h **** 
 1430              		.loc 1 1253 0
 1431 001c 3046     		mov	r0, r6
 1432 001e 02B0     		add	sp, sp, #8
 1433              	.LCFI19:
 1434              		.cfi_def_cfa_offset 16
 1435              		@ sp needed
 1436 0020 70BD     		pop	{r4, r5, r6, pc}
 1437              	.LVL178:
 1438              	.L59:
 1439 0022 00BF     		.align	2
 1440              	.L58:
 1441 0024 00000000 		.word	_ZNK4ltaf20SquareMatrixInverterIfLi3EE3runEPf
 1442              		.cfi_endproc
 1443              	.LFE3909:
 1445              		.section	.text._ZNK4ltaf20SquareMatrixInverterIfLi4EE3runEPf,"axG",%progbits,_ZNK4ltaf20SquareMatr
 1446              		.align	1
 1447              		.weak	_ZNK4ltaf20SquareMatrixInverterIfLi4EE3runEPf
 1448              		.thumb
 1449              		.thumb_func
 1451              	_ZNK4ltaf20SquareMatrixInverterIfLi4EE3runEPf:
 1452              	.LFB4050:
1166:/home/tienluong/workspace/atlantis_fw/AsicFwS2/include/matrix.h ****     {
 1453              		.loc 1 1166 0
 1454              		.cfi_startproc
 1455              		@ args = 0, pretend = 0, frame = 176
 1456              		@ frame_needed = 0, uses_anonymous_args = 0
 1457              	.LVL179:
 1458 0000 2DE9F04F 		push	{r4, r5, r6, r7, r8, r9, r10, fp, lr}
 1459              	.LCFI20:
 1460              		.cfi_def_cfa_offset 36
 1461              		.cfi_offset 4, -36
 1462              		.cfi_offset 5, -32
 1463              		.cfi_offset 6, -28
 1464              		.cfi_offset 7, -24
 1465              		.cfi_offset 8, -20
 1466              		.cfi_offset 9, -16
 1467              		.cfi_offset 10, -12
 1468              		.cfi_offset 11, -8
 1469              		.cfi_offset 14, -4
 1470 0004 ADB0     		sub	sp, sp, #180
 1471              	.LCFI21:
 1472              		.cfi_def_cfa_offset 216
 1473              	.LBB247:
1172:/home/tienluong/workspace/atlantis_fw/AsicFwS2/include/matrix.h ****         tmp[1] = mat[11] * mat[14];
 1474              		.loc 1 1172 0
 1475 0006 8B6A     		ldr	r3, [r1, #40]	@ float
 1476 0008 0293     		str	r3, [sp, #8]	@ float
 1477 000a CB6B     		ldr	r3, [r1, #60]	@ float
 1478 000c 804C     		ldr	r4, .L63
 1479              	.LBE247:
1166:/home/tienluong/workspace/atlantis_fw/AsicFwS2/include/matrix.h ****     {
 1480              		.loc 1 1166 0
 1481 000e 0191     		str	r1, [sp, #4]
 1482              	.LBB250:
1172:/home/tienluong/workspace/atlantis_fw/AsicFwS2/include/matrix.h ****         tmp[1] = mat[11] * mat[14];
 1483              		.loc 1 1172 0
 1484 0010 1946     		mov	r1, r3
 1485              	.LVL180:
 1486 0012 0298     		ldr	r0, [sp, #8]	@ float
 1487              	.LVL181:
 1488 0014 0393     		str	r3, [sp, #12]	@ float
 1489 0016 A047     		blx	r4
 1490              	.LVL182:
1173:/home/tienluong/workspace/atlantis_fw/AsicFwS2/include/matrix.h ****         tmp[2] = mat[9] * mat[15];
 1491              		.loc 1 1173 0
 1492 0018 019B     		ldr	r3, [sp, #4]
1186:/home/tienluong/workspace/atlantis_fw/AsicFwS2/include/matrix.h ****         dst[0]  -= tmp[1] * mat[5] + tmp[2] * mat[6] + tmp[5]  * mat[7];
 1493              		.loc 1 1186 0
 1494 001a 7E4D     		ldr	r5, .L63+4
1173:/home/tienluong/workspace/atlantis_fw/AsicFwS2/include/matrix.h ****         tmp[2] = mat[9] * mat[15];
 1495              		.loc 1 1173 0
 1496 001c DB6A     		ldr	r3, [r3, #44]	@ float
 1497 001e 0493     		str	r3, [sp, #16]	@ float
 1498 0020 019B     		ldr	r3, [sp, #4]
 1499 0022 9B6B     		ldr	r3, [r3, #56]	@ float
 1500 0024 1946     		mov	r1, r3
 1501 0026 0593     		str	r3, [sp, #20]	@ float
1172:/home/tienluong/workspace/atlantis_fw/AsicFwS2/include/matrix.h ****         tmp[1] = mat[11] * mat[14];
 1502              		.loc 1 1172 0
 1503 0028 0E90     		str	r0, [sp, #56]	@ float
 1504              	.LVL183:
1173:/home/tienluong/workspace/atlantis_fw/AsicFwS2/include/matrix.h ****         tmp[2] = mat[9] * mat[15];
 1505              		.loc 1 1173 0
 1506 002a 0498     		ldr	r0, [sp, #16]	@ float
 1507              	.LVL184:
 1508 002c A047     		blx	r4
 1509              	.LVL185:
1174:/home/tienluong/workspace/atlantis_fw/AsicFwS2/include/matrix.h ****         tmp[3] = mat[11] * mat[13];
 1510              		.loc 1 1174 0
 1511 002e 019B     		ldr	r3, [sp, #4]
 1512 0030 0399     		ldr	r1, [sp, #12]	@ float
 1513 0032 5B6A     		ldr	r3, [r3, #36]	@ float
 1514 0034 0693     		str	r3, [sp, #24]	@ float
1173:/home/tienluong/workspace/atlantis_fw/AsicFwS2/include/matrix.h ****         tmp[2] = mat[9] * mat[15];
 1515              		.loc 1 1173 0
 1516 0036 0F90     		str	r0, [sp, #60]	@ float
 1517              	.LVL186:
1174:/home/tienluong/workspace/atlantis_fw/AsicFwS2/include/matrix.h ****         tmp[3] = mat[11] * mat[13];
 1518              		.loc 1 1174 0
 1519 0038 1846     		mov	r0, r3
 1520              	.LVL187:
 1521 003a A047     		blx	r4
 1522              	.LVL188:
1175:/home/tienluong/workspace/atlantis_fw/AsicFwS2/include/matrix.h ****         tmp[4] = mat[9] * mat[14];
 1523              		.loc 1 1175 0
 1524 003c 019B     		ldr	r3, [sp, #4]
 1525 003e 5B6B     		ldr	r3, [r3, #52]	@ float
 1526 0040 1946     		mov	r1, r3
 1527 0042 0793     		str	r3, [sp, #28]	@ float
1174:/home/tienluong/workspace/atlantis_fw/AsicFwS2/include/matrix.h ****         tmp[3] = mat[11] * mat[13];
 1528              		.loc 1 1174 0
 1529 0044 1090     		str	r0, [sp, #64]	@ float
 1530              	.LVL189:
1175:/home/tienluong/workspace/atlantis_fw/AsicFwS2/include/matrix.h ****         tmp[4] = mat[9] * mat[14];
 1531              		.loc 1 1175 0
 1532 0046 0498     		ldr	r0, [sp, #16]	@ float
 1533              	.LVL190:
 1534 0048 A047     		blx	r4
 1535              	.LVL191:
1176:/home/tienluong/workspace/atlantis_fw/AsicFwS2/include/matrix.h ****         tmp[5] = mat[10] * mat[13];
 1536              		.loc 1 1176 0
 1537 004a 0599     		ldr	r1, [sp, #20]	@ float
1175:/home/tienluong/workspace/atlantis_fw/AsicFwS2/include/matrix.h ****         tmp[4] = mat[9] * mat[14];
 1538              		.loc 1 1175 0
 1539 004c 1190     		str	r0, [sp, #68]	@ float
 1540              	.LVL192:
1176:/home/tienluong/workspace/atlantis_fw/AsicFwS2/include/matrix.h ****         tmp[5] = mat[10] * mat[13];
 1541              		.loc 1 1176 0
 1542 004e 0698     		ldr	r0, [sp, #24]	@ float
 1543              	.LVL193:
 1544 0050 A047     		blx	r4
 1545              	.LVL194:
1177:/home/tienluong/workspace/atlantis_fw/AsicFwS2/include/matrix.h ****         tmp[6] = mat[8] * mat[15];
 1546              		.loc 1 1177 0
 1547 0052 0799     		ldr	r1, [sp, #28]	@ float
1176:/home/tienluong/workspace/atlantis_fw/AsicFwS2/include/matrix.h ****         tmp[5] = mat[10] * mat[13];
 1548              		.loc 1 1176 0
 1549 0054 1290     		str	r0, [sp, #72]	@ float
 1550              	.LVL195:
1177:/home/tienluong/workspace/atlantis_fw/AsicFwS2/include/matrix.h ****         tmp[6] = mat[8] * mat[15];
 1551              		.loc 1 1177 0
 1552 0056 0298     		ldr	r0, [sp, #8]	@ float
 1553              	.LVL196:
 1554 0058 A047     		blx	r4
 1555              	.LVL197:
1178:/home/tienluong/workspace/atlantis_fw/AsicFwS2/include/matrix.h ****         tmp[7] = mat[11] * mat[12];
 1556              		.loc 1 1178 0
 1557 005a 019B     		ldr	r3, [sp, #4]
 1558 005c 0399     		ldr	r1, [sp, #12]	@ float
 1559 005e 1B6A     		ldr	r3, [r3, #32]	@ float
 1560 0060 0893     		str	r3, [sp, #32]	@ float
1177:/home/tienluong/workspace/atlantis_fw/AsicFwS2/include/matrix.h ****         tmp[6] = mat[8] * mat[15];
 1561              		.loc 1 1177 0
 1562 0062 1390     		str	r0, [sp, #76]	@ float
 1563              	.LVL198:
1178:/home/tienluong/workspace/atlantis_fw/AsicFwS2/include/matrix.h ****         tmp[7] = mat[11] * mat[12];
 1564              		.loc 1 1178 0
 1565 0064 1846     		mov	r0, r3
 1566              	.LVL199:
 1567 0066 A047     		blx	r4
 1568              	.LVL200:
1179:/home/tienluong/workspace/atlantis_fw/AsicFwS2/include/matrix.h ****         tmp[8] = mat[8] * mat[14];
 1569              		.loc 1 1179 0
 1570 0068 019B     		ldr	r3, [sp, #4]
 1571 006a 1B6B     		ldr	r3, [r3, #48]	@ float
 1572 006c 1946     		mov	r1, r3
 1573 006e 0993     		str	r3, [sp, #36]	@ float
1178:/home/tienluong/workspace/atlantis_fw/AsicFwS2/include/matrix.h ****         tmp[7] = mat[11] * mat[12];
 1574              		.loc 1 1178 0
 1575 0070 1490     		str	r0, [sp, #80]	@ float
 1576              	.LVL201:
1179:/home/tienluong/workspace/atlantis_fw/AsicFwS2/include/matrix.h ****         tmp[8] = mat[8] * mat[14];
 1577              		.loc 1 1179 0
 1578 0072 0498     		ldr	r0, [sp, #16]	@ float
 1579              	.LVL202:
 1580 0074 A047     		blx	r4
 1581              	.LVL203:
1180:/home/tienluong/workspace/atlantis_fw/AsicFwS2/include/matrix.h ****         tmp[9] = mat[10] * mat[12];
 1582              		.loc 1 1180 0
 1583 0076 0599     		ldr	r1, [sp, #20]	@ float
1179:/home/tienluong/workspace/atlantis_fw/AsicFwS2/include/matrix.h ****         tmp[8] = mat[8] * mat[14];
 1584              		.loc 1 1179 0
 1585 0078 1590     		str	r0, [sp, #84]	@ float
 1586              	.LVL204:
1180:/home/tienluong/workspace/atlantis_fw/AsicFwS2/include/matrix.h ****         tmp[9] = mat[10] * mat[12];
 1587              		.loc 1 1180 0
 1588 007a 0898     		ldr	r0, [sp, #32]	@ float
 1589              	.LVL205:
 1590 007c A047     		blx	r4
 1591              	.LVL206:
1181:/home/tienluong/workspace/atlantis_fw/AsicFwS2/include/matrix.h ****         tmp[10] = mat[8] * mat[13];
 1592              		.loc 1 1181 0
 1593 007e 0999     		ldr	r1, [sp, #36]	@ float
1180:/home/tienluong/workspace/atlantis_fw/AsicFwS2/include/matrix.h ****         tmp[9] = mat[10] * mat[12];
 1594              		.loc 1 1180 0
 1595 0080 1690     		str	r0, [sp, #88]	@ float
1181:/home/tienluong/workspace/atlantis_fw/AsicFwS2/include/matrix.h ****         tmp[10] = mat[8] * mat[13];
 1596              		.loc 1 1181 0
 1597 0082 0298     		ldr	r0, [sp, #8]	@ float
 1598 0084 A047     		blx	r4
 1599              	.LVL207:
1182:/home/tienluong/workspace/atlantis_fw/AsicFwS2/include/matrix.h ****         tmp[11] = mat[9] * mat[12];
 1600              		.loc 1 1182 0
 1601 0086 0799     		ldr	r1, [sp, #28]	@ float
1181:/home/tienluong/workspace/atlantis_fw/AsicFwS2/include/matrix.h ****         tmp[10] = mat[8] * mat[13];
 1602              		.loc 1 1181 0
 1603 0088 1790     		str	r0, [sp, #92]	@ float
1182:/home/tienluong/workspace/atlantis_fw/AsicFwS2/include/matrix.h ****         tmp[11] = mat[9] * mat[12];
 1604              		.loc 1 1182 0
 1605 008a 0898     		ldr	r0, [sp, #32]	@ float
 1606 008c A047     		blx	r4
 1607              	.LVL208:
1183:/home/tienluong/workspace/atlantis_fw/AsicFwS2/include/matrix.h **** 
 1608              		.loc 1 1183 0
 1609 008e 0999     		ldr	r1, [sp, #36]	@ float
1182:/home/tienluong/workspace/atlantis_fw/AsicFwS2/include/matrix.h ****         tmp[11] = mat[9] * mat[12];
 1610              		.loc 1 1182 0
 1611 0090 1890     		str	r0, [sp, #96]	@ float
1183:/home/tienluong/workspace/atlantis_fw/AsicFwS2/include/matrix.h **** 
 1612              		.loc 1 1183 0
 1613 0092 0698     		ldr	r0, [sp, #24]	@ float
 1614 0094 A047     		blx	r4
 1615              	.LVL209:
1186:/home/tienluong/workspace/atlantis_fw/AsicFwS2/include/matrix.h ****         dst[0]  -= tmp[1] * mat[5] + tmp[2] * mat[6] + tmp[5]  * mat[7];
 1616              		.loc 1 1186 0
 1617 0096 019B     		ldr	r3, [sp, #4]
 1618 0098 5B69     		ldr	r3, [r3, #20]	@ float
 1619 009a 0A93     		str	r3, [sp, #40]	@ float
 1620 009c 019B     		ldr	r3, [sp, #4]
 1621 009e 0A99     		ldr	r1, [sp, #40]	@ float
 1622 00a0 9B69     		ldr	r3, [r3, #24]	@ float
 1623 00a2 0B93     		str	r3, [sp, #44]	@ float
 1624 00a4 019B     		ldr	r3, [sp, #4]
 1625 00a6 DB69     		ldr	r3, [r3, #28]	@ float
 1626 00a8 0C93     		str	r3, [sp, #48]	@ float
1183:/home/tienluong/workspace/atlantis_fw/AsicFwS2/include/matrix.h **** 
 1627              		.loc 1 1183 0
 1628 00aa 1990     		str	r0, [sp, #100]	@ float
1186:/home/tienluong/workspace/atlantis_fw/AsicFwS2/include/matrix.h ****         dst[0]  -= tmp[1] * mat[5] + tmp[2] * mat[6] + tmp[5]  * mat[7];
 1629              		.loc 1 1186 0
 1630 00ac 0E98     		ldr	r0, [sp, #56]	@ float
 1631 00ae A047     		blx	r4
 1632              	.LVL210:
 1633 00b0 0B99     		ldr	r1, [sp, #44]	@ float
 1634 00b2 0646     		mov	r6, r0
 1635 00b4 1198     		ldr	r0, [sp, #68]	@ float
 1636 00b6 A047     		blx	r4
 1637              	.LVL211:
 1638 00b8 0146     		mov	r1, r0
 1639 00ba 3046     		mov	r0, r6
 1640 00bc A847     		blx	r5
 1641              	.LVL212:
 1642 00be 0C99     		ldr	r1, [sp, #48]	@ float
 1643 00c0 0646     		mov	r6, r0
 1644 00c2 1298     		ldr	r0, [sp, #72]	@ float
 1645 00c4 A047     		blx	r4
 1646              	.LVL213:
 1647 00c6 0146     		mov	r1, r0
 1648 00c8 3046     		mov	r0, r6
 1649 00ca A847     		blx	r5
 1650              	.LVL214:
1187:/home/tienluong/workspace/atlantis_fw/AsicFwS2/include/matrix.h ****         dst[4]   = tmp[1] * mat[4] + tmp[6] * mat[6] + tmp[9]  * mat[7];
 1651              		.loc 1 1187 0
 1652 00cc 0A99     		ldr	r1, [sp, #40]	@ float
1186:/home/tienluong/workspace/atlantis_fw/AsicFwS2/include/matrix.h ****         dst[0]  -= tmp[1] * mat[5] + tmp[2] * mat[6] + tmp[5]  * mat[7];
 1653              		.loc 1 1186 0
 1654 00ce 0646     		mov	r6, r0
1187:/home/tienluong/workspace/atlantis_fw/AsicFwS2/include/matrix.h ****         dst[4]   = tmp[1] * mat[4] + tmp[6] * mat[6] + tmp[9]  * mat[7];
 1655              		.loc 1 1187 0
 1656 00d0 0F98     		ldr	r0, [sp, #60]	@ float
 1657 00d2 A047     		blx	r4
 1658              	.LVL215:
 1659 00d4 0746     		mov	r7, r0
 1660 00d6 1098     		ldr	r0, [sp, #64]	@ float
 1661 00d8 0B99     		ldr	r1, [sp, #44]	@ float
 1662 00da A047     		blx	r4
 1663              	.LVL216:
 1664 00dc 0146     		mov	r1, r0
 1665 00de 3846     		mov	r0, r7
 1666 00e0 A847     		blx	r5
 1667              	.LVL217:
 1668 00e2 0C99     		ldr	r1, [sp, #48]	@ float
 1669 00e4 0746     		mov	r7, r0
 1670 00e6 1398     		ldr	r0, [sp, #76]	@ float
 1671 00e8 A047     		blx	r4
 1672              	.LVL218:
 1673 00ea 0146     		mov	r1, r0
 1674 00ec 3846     		mov	r0, r7
 1675 00ee A847     		blx	r5
 1676              	.LVL219:
 1677 00f0 494B     		ldr	r3, .L63+8
 1678 00f2 0146     		mov	r1, r0
 1679 00f4 3046     		mov	r0, r6
 1680 00f6 9847     		blx	r3
 1681              	.LVL220:
1188:/home/tienluong/workspace/atlantis_fw/AsicFwS2/include/matrix.h ****         dst[4]  -= tmp[0] * mat[4] + tmp[7] * mat[6] + tmp[8]  * mat[7];
 1682              		.loc 1 1188 0
 1683 00f8 019B     		ldr	r3, [sp, #4]
 1684 00fa 1B69     		ldr	r3, [r3, #16]	@ float
 1685 00fc 1946     		mov	r1, r3
 1686 00fe 0D93     		str	r3, [sp, #52]	@ float
1187:/home/tienluong/workspace/atlantis_fw/AsicFwS2/include/matrix.h ****         dst[4]   = tmp[1] * mat[4] + tmp[6] * mat[6] + tmp[9]  * mat[7];
 1687              		.loc 1 1187 0
 1688 0100 1C90     		str	r0, [sp, #112]	@ float
 1689 0102 1A90     		str	r0, [sp, #104]
1188:/home/tienluong/workspace/atlantis_fw/AsicFwS2/include/matrix.h ****         dst[4]  -= tmp[0] * mat[4] + tmp[7] * mat[6] + tmp[8]  * mat[7];
 1690              		.loc 1 1188 0
 1691 0104 0F98     		ldr	r0, [sp, #60]	@ float
 1692 0106 A047     		blx	r4
 1693              	.LVL221:
 1694 0108 0B99     		ldr	r1, [sp, #44]	@ float
 1695 010a 0646     		mov	r6, r0
 1696 010c 1498     		ldr	r0, [sp, #80]	@ float
 1697 010e A047     		blx	r4
 1698              	.LVL222:
 1699 0110 0146     		mov	r1, r0
 1700 0112 3046     		mov	r0, r6
 1701 0114 A847     		blx	r5
 1702              	.LVL223:
 1703 0116 0C99     		ldr	r1, [sp, #48]	@ float
 1704 0118 0646     		mov	r6, r0
 1705 011a 1798     		ldr	r0, [sp, #92]	@ float
 1706 011c A047     		blx	r4
 1707              	.LVL224:
 1708 011e 0146     		mov	r1, r0
 1709 0120 3046     		mov	r0, r6
 1710 0122 A847     		blx	r5
 1711              	.LVL225:
1189:/home/tienluong/workspace/atlantis_fw/AsicFwS2/include/matrix.h ****         dst[8]   = tmp[2] * mat[4] + tmp[7] * mat[5] + tmp[10] * mat[7];
 1712              		.loc 1 1189 0
 1713 0124 0D99     		ldr	r1, [sp, #52]	@ float
1188:/home/tienluong/workspace/atlantis_fw/AsicFwS2/include/matrix.h ****         dst[4]  -= tmp[0] * mat[4] + tmp[7] * mat[6] + tmp[8]  * mat[7];
 1714              		.loc 1 1188 0
 1715 0126 0646     		mov	r6, r0
1189:/home/tienluong/workspace/atlantis_fw/AsicFwS2/include/matrix.h ****         dst[8]   = tmp[2] * mat[4] + tmp[7] * mat[5] + tmp[10] * mat[7];
 1716              		.loc 1 1189 0
 1717 0128 0E98     		ldr	r0, [sp, #56]	@ float
 1718 012a A047     		blx	r4
 1719              	.LVL226:
 1720 012c 0B99     		ldr	r1, [sp, #44]	@ float
 1721 012e 0746     		mov	r7, r0
 1722 0130 1598     		ldr	r0, [sp, #84]	@ float
 1723 0132 A047     		blx	r4
 1724              	.LVL227:
 1725 0134 0146     		mov	r1, r0
 1726 0136 3846     		mov	r0, r7
 1727 0138 A847     		blx	r5
 1728              	.LVL228:
 1729 013a 0C99     		ldr	r1, [sp, #48]	@ float
 1730 013c 0746     		mov	r7, r0
 1731 013e 1698     		ldr	r0, [sp, #88]	@ float
 1732 0140 A047     		blx	r4
 1733              	.LVL229:
 1734 0142 0146     		mov	r1, r0
 1735 0144 3846     		mov	r0, r7
 1736 0146 A847     		blx	r5
 1737              	.LVL230:
 1738 0148 334B     		ldr	r3, .L63+8
 1739 014a 0146     		mov	r1, r0
 1740 014c 3046     		mov	r0, r6
 1741 014e 9847     		blx	r3
 1742              	.LVL231:
 1743 0150 2090     		str	r0, [sp, #128]	@ float
1190:/home/tienluong/workspace/atlantis_fw/AsicFwS2/include/matrix.h ****         dst[8]  -= tmp[3] * mat[4] + tmp[6] * mat[5] + tmp[11] * mat[7];
 1744              		.loc 1 1190 0
 1745 0152 0D99     		ldr	r1, [sp, #52]	@ float
1189:/home/tienluong/workspace/atlantis_fw/AsicFwS2/include/matrix.h ****         dst[8]   = tmp[2] * mat[4] + tmp[7] * mat[5] + tmp[10] * mat[7];
 1746              		.loc 1 1189 0
 1747 0154 1B90     		str	r0, [sp, #108]
1190:/home/tienluong/workspace/atlantis_fw/AsicFwS2/include/matrix.h ****         dst[8]  -= tmp[3] * mat[4] + tmp[6] * mat[5] + tmp[11] * mat[7];
 1748              		.loc 1 1190 0
 1749 0156 1098     		ldr	r0, [sp, #64]	@ float
 1750 0158 A047     		blx	r4
 1751              	.LVL232:
 1752 015a 0A99     		ldr	r1, [sp, #40]	@ float
 1753 015c 0646     		mov	r6, r0
 1754 015e 1598     		ldr	r0, [sp, #84]	@ float
 1755 0160 A047     		blx	r4
 1756              	.LVL233:
 1757 0162 0146     		mov	r1, r0
 1758 0164 3046     		mov	r0, r6
 1759 0166 A847     		blx	r5
 1760              	.LVL234:
 1761 0168 0C99     		ldr	r1, [sp, #48]	@ float
 1762 016a 0646     		mov	r6, r0
 1763 016c 1898     		ldr	r0, [sp, #96]	@ float
 1764 016e A047     		blx	r4
 1765              	.LVL235:
 1766 0170 0146     		mov	r1, r0
 1767 0172 3046     		mov	r0, r6
 1768 0174 A847     		blx	r5
 1769              	.LVL236:
1191:/home/tienluong/workspace/atlantis_fw/AsicFwS2/include/matrix.h ****         dst[12]  = tmp[5] * mat[4] + tmp[8] * mat[5] + tmp[11] * mat[6];
 1770              		.loc 1 1191 0
 1771 0176 0D99     		ldr	r1, [sp, #52]	@ float
1190:/home/tienluong/workspace/atlantis_fw/AsicFwS2/include/matrix.h ****         dst[8]  -= tmp[3] * mat[4] + tmp[6] * mat[5] + tmp[11] * mat[7];
 1772              		.loc 1 1190 0
 1773 0178 0646     		mov	r6, r0
1191:/home/tienluong/workspace/atlantis_fw/AsicFwS2/include/matrix.h ****         dst[12]  = tmp[5] * mat[4] + tmp[8] * mat[5] + tmp[11] * mat[6];
 1774              		.loc 1 1191 0
 1775 017a 1198     		ldr	r0, [sp, #68]	@ float
 1776 017c A047     		blx	r4
 1777              	.LVL237:
 1778 017e 0A99     		ldr	r1, [sp, #40]	@ float
 1779 0180 0746     		mov	r7, r0
 1780 0182 1498     		ldr	r0, [sp, #80]	@ float
 1781 0184 A047     		blx	r4
 1782              	.LVL238:
 1783 0186 0146     		mov	r1, r0
 1784 0188 3846     		mov	r0, r7
 1785 018a A847     		blx	r5
 1786              	.LVL239:
 1787 018c 0C99     		ldr	r1, [sp, #48]	@ float
 1788 018e 0746     		mov	r7, r0
 1789 0190 1998     		ldr	r0, [sp, #100]	@ float
 1790 0192 A047     		blx	r4
 1791              	.LVL240:
 1792 0194 0146     		mov	r1, r0
 1793 0196 3846     		mov	r0, r7
 1794 0198 A847     		blx	r5
 1795              	.LVL241:
 1796 019a 1F4B     		ldr	r3, .L63+8
 1797 019c 0146     		mov	r1, r0
 1798 019e 3046     		mov	r0, r6
 1799 01a0 9847     		blx	r3
 1800              	.LVL242:
1192:/home/tienluong/workspace/atlantis_fw/AsicFwS2/include/matrix.h ****         dst[12] -= tmp[4] * mat[4] + tmp[9] * mat[5] + tmp[10] * mat[6];
 1801              		.loc 1 1192 0
 1802 01a2 0D99     		ldr	r1, [sp, #52]	@ float
1191:/home/tienluong/workspace/atlantis_fw/AsicFwS2/include/matrix.h ****         dst[12]  = tmp[5] * mat[4] + tmp[8] * mat[5] + tmp[11] * mat[6];
 1803              		.loc 1 1191 0
 1804 01a4 8346     		mov	fp, r0
 1805 01a6 2490     		str	r0, [sp, #144]	@ float
1192:/home/tienluong/workspace/atlantis_fw/AsicFwS2/include/matrix.h ****         dst[12] -= tmp[4] * mat[4] + tmp[9] * mat[5] + tmp[10] * mat[6];
 1806              		.loc 1 1192 0
 1807 01a8 1398     		ldr	r0, [sp, #76]	@ float
 1808 01aa A047     		blx	r4
 1809              	.LVL243:
 1810 01ac 0A99     		ldr	r1, [sp, #40]	@ float
 1811 01ae 0646     		mov	r6, r0
 1812 01b0 1698     		ldr	r0, [sp, #88]	@ float
 1813 01b2 A047     		blx	r4
 1814              	.LVL244:
 1815 01b4 0146     		mov	r1, r0
 1816 01b6 3046     		mov	r0, r6
 1817 01b8 A847     		blx	r5
 1818              	.LVL245:
 1819 01ba 0B99     		ldr	r1, [sp, #44]	@ float
 1820 01bc 0646     		mov	r6, r0
 1821 01be 1998     		ldr	r0, [sp, #100]	@ float
 1822 01c0 A047     		blx	r4
 1823              	.LVL246:
 1824 01c2 0146     		mov	r1, r0
 1825 01c4 3046     		mov	r0, r6
 1826 01c6 A847     		blx	r5
 1827              	.LVL247:
1193:/home/tienluong/workspace/atlantis_fw/AsicFwS2/include/matrix.h **** 
 1828              		.loc 1 1193 0
 1829 01c8 0D99     		ldr	r1, [sp, #52]	@ float
1192:/home/tienluong/workspace/atlantis_fw/AsicFwS2/include/matrix.h ****         dst[12] -= tmp[4] * mat[4] + tmp[9] * mat[5] + tmp[10] * mat[6];
 1830              		.loc 1 1192 0
 1831 01ca 0646     		mov	r6, r0
1193:/home/tienluong/workspace/atlantis_fw/AsicFwS2/include/matrix.h **** 
 1832              		.loc 1 1193 0
 1833 01cc 1298     		ldr	r0, [sp, #72]	@ float
 1834 01ce A047     		blx	r4
 1835              	.LVL248:
 1836 01d0 0A99     		ldr	r1, [sp, #40]	@ float
 1837 01d2 0746     		mov	r7, r0
 1838 01d4 1798     		ldr	r0, [sp, #92]	@ float
 1839 01d6 A047     		blx	r4
 1840              	.LVL249:
 1841 01d8 0146     		mov	r1, r0
 1842 01da 3846     		mov	r0, r7
 1843 01dc A847     		blx	r5
 1844              	.LVL250:
 1845 01de 0B99     		ldr	r1, [sp, #44]	@ float
 1846 01e0 0746     		mov	r7, r0
 1847 01e2 1898     		ldr	r0, [sp, #96]	@ float
 1848 01e4 A047     		blx	r4
 1849              	.LVL251:
 1850 01e6 0146     		mov	r1, r0
 1851 01e8 3846     		mov	r0, r7
 1852 01ea A847     		blx	r5
 1853              	.LVL252:
 1854 01ec 0A4B     		ldr	r3, .L63+8
 1855 01ee 0146     		mov	r1, r0
 1856 01f0 3046     		mov	r0, r6
 1857 01f2 9847     		blx	r3
 1858              	.LVL253:
1196:/home/tienluong/workspace/atlantis_fw/AsicFwS2/include/matrix.h **** 
 1859              		.loc 1 1196 0
 1860 01f4 019B     		ldr	r3, [sp, #4]
 1861 01f6 1A9A     		ldr	r2, [sp, #104]
 1862 01f8 1146     		mov	r1, r2
 1863 01fa 1F68     		ldr	r7, [r3]	@ float
 1864 01fc 5E68     		ldr	r6, [r3, #4]	@ float
 1865 01fe D3F80880 		ldr	r8, [r3, #8]	@ float
 1866 0202 D3F80C90 		ldr	r9, [r3, #12]	@ float
1193:/home/tienluong/workspace/atlantis_fw/AsicFwS2/include/matrix.h **** 
 1867              		.loc 1 1193 0
 1868 0206 8246     		mov	r10, r0
 1869              	.LVL254:
 1870 0208 2890     		str	r0, [sp, #160]	@ float
1196:/home/tienluong/workspace/atlantis_fw/AsicFwS2/include/matrix.h **** 
 1871              		.loc 1 1196 0
 1872 020a 3846     		mov	r0, r7
 1873 020c 06E0     		b	.L64
 1874              	.L65:
 1875 020e 00BF     		.align	2
 1876              	.L63:
 1877 0210 00000000 		.word	__aeabi_fmul
 1878 0214 00000000 		.word	__aeabi_fadd
 1879 0218 00000000 		.word	__aeabi_fsub
 1880              	.L64:
 1881              	.LVL255:
 1882 021c A047     		blx	r4
 1883              	.LVL256:
 1884 021e 1B9B     		ldr	r3, [sp, #108]
 1885 0220 1946     		mov	r1, r3
 1886 0222 1A90     		str	r0, [sp, #104]
 1887              	.LVL257:
 1888 0224 3046     		mov	r0, r6
 1889 0226 A047     		blx	r4
 1890              	.LVL258:
 1891 0228 1A9A     		ldr	r2, [sp, #104]
 1892 022a 0146     		mov	r1, r0
 1893 022c 1046     		mov	r0, r2
 1894 022e A847     		blx	r5
 1895              	.LVL259:
 1896 0230 5946     		mov	r1, fp
 1897 0232 1A90     		str	r0, [sp, #104]
 1898 0234 4046     		mov	r0, r8
 1899 0236 A047     		blx	r4
 1900              	.LVL260:
 1901 0238 1A9B     		ldr	r3, [sp, #104]
 1902 023a 0146     		mov	r1, r0
 1903 023c 1846     		mov	r0, r3
 1904 023e A847     		blx	r5
 1905              	.LVL261:
 1906 0240 5146     		mov	r1, r10
 1907 0242 8346     		mov	fp, r0
 1908 0244 4846     		mov	r0, r9
 1909 0246 A047     		blx	r4
 1910              	.LVL262:
 1911 0248 0146     		mov	r1, r0
 1912 024a 5846     		mov	r0, fp
 1913 024c A847     		blx	r5
 1914              	.LVL263:
1198:/home/tienluong/workspace/atlantis_fw/AsicFwS2/include/matrix.h **** 
 1915              		.loc 1 1198 0
 1916 024e 804B     		ldr	r3, .L66
1196:/home/tienluong/workspace/atlantis_fw/AsicFwS2/include/matrix.h **** 
 1917              		.loc 1 1196 0
 1918 0250 0146     		mov	r1, r0
1198:/home/tienluong/workspace/atlantis_fw/AsicFwS2/include/matrix.h **** 
 1919              		.loc 1 1198 0
 1920 0252 4FF07E50 		mov	r0, #1065353216
 1921 0256 9847     		blx	r3
 1922              	.LVL264:
1200:/home/tienluong/workspace/atlantis_fw/AsicFwS2/include/matrix.h ****         dst[1]  -= tmp[0] * mat[1] + tmp[3] * mat[2] + tmp[4]  * mat[3];
 1923              		.loc 1 1200 0
 1924 0258 3146     		mov	r1, r6
1198:/home/tienluong/workspace/atlantis_fw/AsicFwS2/include/matrix.h **** 
 1925              		.loc 1 1198 0
 1926 025a 1A90     		str	r0, [sp, #104]	@ float
 1927              	.LVL265:
1200:/home/tienluong/workspace/atlantis_fw/AsicFwS2/include/matrix.h ****         dst[1]  -= tmp[0] * mat[1] + tmp[3] * mat[2] + tmp[4]  * mat[3];
 1928              		.loc 1 1200 0
 1929 025c 0F98     		ldr	r0, [sp, #60]	@ float
 1930              	.LVL266:
 1931 025e A047     		blx	r4
 1932              	.LVL267:
 1933 0260 4146     		mov	r1, r8
 1934 0262 8246     		mov	r10, r0
 1935 0264 1098     		ldr	r0, [sp, #64]	@ float
 1936 0266 A047     		blx	r4
 1937              	.LVL268:
 1938 0268 0146     		mov	r1, r0
 1939 026a 5046     		mov	r0, r10
 1940 026c A847     		blx	r5
 1941              	.LVL269:
 1942 026e 4946     		mov	r1, r9
 1943 0270 8246     		mov	r10, r0
 1944 0272 1398     		ldr	r0, [sp, #76]	@ float
 1945 0274 A047     		blx	r4
 1946              	.LVL270:
 1947 0276 0146     		mov	r1, r0
 1948 0278 5046     		mov	r0, r10
 1949 027a A847     		blx	r5
 1950              	.LVL271:
1201:/home/tienluong/workspace/atlantis_fw/AsicFwS2/include/matrix.h ****         dst[5]   = tmp[0] * mat[0] + tmp[7] * mat[2] + tmp[8]  * mat[3];
 1951              		.loc 1 1201 0
 1952 027c 3146     		mov	r1, r6
1200:/home/tienluong/workspace/atlantis_fw/AsicFwS2/include/matrix.h ****         dst[1]  -= tmp[0] * mat[1] + tmp[3] * mat[2] + tmp[4]  * mat[3];
 1953              		.loc 1 1200 0
 1954 027e 8246     		mov	r10, r0
1201:/home/tienluong/workspace/atlantis_fw/AsicFwS2/include/matrix.h ****         dst[5]   = tmp[0] * mat[0] + tmp[7] * mat[2] + tmp[8]  * mat[3];
 1955              		.loc 1 1201 0
 1956 0280 0E98     		ldr	r0, [sp, #56]	@ float
 1957 0282 A047     		blx	r4
 1958              	.LVL272:
 1959 0284 4146     		mov	r1, r8
 1960 0286 8346     		mov	fp, r0
 1961 0288 1198     		ldr	r0, [sp, #68]	@ float
 1962 028a A047     		blx	r4
 1963              	.LVL273:
 1964 028c 0146     		mov	r1, r0
 1965 028e 5846     		mov	r0, fp
 1966 0290 A847     		blx	r5
 1967              	.LVL274:
 1968 0292 4946     		mov	r1, r9
 1969 0294 8346     		mov	fp, r0
 1970 0296 1298     		ldr	r0, [sp, #72]	@ float
 1971 0298 A047     		blx	r4
 1972              	.LVL275:
 1973 029a 0146     		mov	r1, r0
 1974 029c 5846     		mov	r0, fp
 1975 029e A847     		blx	r5
 1976              	.LVL276:
 1977 02a0 6C4B     		ldr	r3, .L66+4
 1978 02a2 0146     		mov	r1, r0
 1979 02a4 5046     		mov	r0, r10
 1980 02a6 9847     		blx	r3
 1981              	.LVL277:
1202:/home/tienluong/workspace/atlantis_fw/AsicFwS2/include/matrix.h ****         dst[5]  -= tmp[1] * mat[0] + tmp[6] * mat[2] + tmp[9]  * mat[3];
 1982              		.loc 1 1202 0
 1983 02a8 3946     		mov	r1, r7
1201:/home/tienluong/workspace/atlantis_fw/AsicFwS2/include/matrix.h ****         dst[5]   = tmp[0] * mat[0] + tmp[7] * mat[2] + tmp[8]  * mat[3];
 1984              		.loc 1 1201 0
 1985 02aa 1D90     		str	r0, [sp, #116]	@ float
1202:/home/tienluong/workspace/atlantis_fw/AsicFwS2/include/matrix.h ****         dst[5]  -= tmp[1] * mat[0] + tmp[6] * mat[2] + tmp[9]  * mat[3];
 1986              		.loc 1 1202 0
 1987 02ac 0E98     		ldr	r0, [sp, #56]	@ float
 1988 02ae A047     		blx	r4
 1989              	.LVL278:
 1990 02b0 4146     		mov	r1, r8
 1991 02b2 8246     		mov	r10, r0
 1992 02b4 1598     		ldr	r0, [sp, #84]	@ float
 1993 02b6 A047     		blx	r4
 1994              	.LVL279:
 1995 02b8 0146     		mov	r1, r0
 1996 02ba 5046     		mov	r0, r10
 1997 02bc A847     		blx	r5
 1998              	.LVL280:
 1999 02be 4946     		mov	r1, r9
 2000 02c0 8246     		mov	r10, r0
 2001 02c2 1698     		ldr	r0, [sp, #88]	@ float
 2002 02c4 A047     		blx	r4
 2003              	.LVL281:
 2004 02c6 0146     		mov	r1, r0
 2005 02c8 5046     		mov	r0, r10
 2006 02ca A847     		blx	r5
 2007              	.LVL282:
1203:/home/tienluong/workspace/atlantis_fw/AsicFwS2/include/matrix.h ****         dst[9]   = tmp[3] * mat[0] + tmp[6] * mat[1] + tmp[11] * mat[3];
 2008              		.loc 1 1203 0
 2009 02cc 3946     		mov	r1, r7
1202:/home/tienluong/workspace/atlantis_fw/AsicFwS2/include/matrix.h ****         dst[5]  -= tmp[1] * mat[0] + tmp[6] * mat[2] + tmp[9]  * mat[3];
 2010              		.loc 1 1202 0
 2011 02ce 8246     		mov	r10, r0
1203:/home/tienluong/workspace/atlantis_fw/AsicFwS2/include/matrix.h ****         dst[9]   = tmp[3] * mat[0] + tmp[6] * mat[1] + tmp[11] * mat[3];
 2012              		.loc 1 1203 0
 2013 02d0 0F98     		ldr	r0, [sp, #60]	@ float
 2014 02d2 A047     		blx	r4
 2015              	.LVL283:
 2016 02d4 4146     		mov	r1, r8
 2017 02d6 8346     		mov	fp, r0
 2018 02d8 1498     		ldr	r0, [sp, #80]	@ float
 2019 02da A047     		blx	r4
 2020              	.LVL284:
 2021 02dc 0146     		mov	r1, r0
 2022 02de 5846     		mov	r0, fp
 2023 02e0 A847     		blx	r5
 2024              	.LVL285:
 2025 02e2 4946     		mov	r1, r9
 2026 02e4 8346     		mov	fp, r0
 2027 02e6 1798     		ldr	r0, [sp, #92]	@ float
 2028 02e8 A047     		blx	r4
 2029              	.LVL286:
 2030 02ea 0146     		mov	r1, r0
 2031 02ec 5846     		mov	r0, fp
 2032 02ee A847     		blx	r5
 2033              	.LVL287:
 2034 02f0 584B     		ldr	r3, .L66+4
 2035 02f2 0146     		mov	r1, r0
 2036 02f4 5046     		mov	r0, r10
 2037 02f6 9847     		blx	r3
 2038              	.LVL288:
1204:/home/tienluong/workspace/atlantis_fw/AsicFwS2/include/matrix.h ****         dst[9]  -= tmp[2] * mat[0] + tmp[7] * mat[1] + tmp[10] * mat[3];
 2039              		.loc 1 1204 0
 2040 02f8 3946     		mov	r1, r7
1203:/home/tienluong/workspace/atlantis_fw/AsicFwS2/include/matrix.h ****         dst[9]   = tmp[3] * mat[0] + tmp[6] * mat[1] + tmp[11] * mat[3];
 2041              		.loc 1 1203 0
 2042 02fa 2190     		str	r0, [sp, #132]	@ float
1204:/home/tienluong/workspace/atlantis_fw/AsicFwS2/include/matrix.h ****         dst[9]  -= tmp[2] * mat[0] + tmp[7] * mat[1] + tmp[10] * mat[3];
 2043              		.loc 1 1204 0
 2044 02fc 1198     		ldr	r0, [sp, #68]	@ float
 2045 02fe A047     		blx	r4
 2046              	.LVL289:
 2047 0300 3146     		mov	r1, r6
 2048 0302 8246     		mov	r10, r0
 2049 0304 1498     		ldr	r0, [sp, #80]	@ float
 2050 0306 A047     		blx	r4
 2051              	.LVL290:
 2052 0308 0146     		mov	r1, r0
 2053 030a 5046     		mov	r0, r10
 2054 030c A847     		blx	r5
 2055              	.LVL291:
 2056 030e 4946     		mov	r1, r9
 2057 0310 8246     		mov	r10, r0
 2058 0312 1998     		ldr	r0, [sp, #100]	@ float
 2059 0314 A047     		blx	r4
 2060              	.LVL292:
 2061 0316 0146     		mov	r1, r0
 2062 0318 5046     		mov	r0, r10
 2063 031a A847     		blx	r5
 2064              	.LVL293:
1205:/home/tienluong/workspace/atlantis_fw/AsicFwS2/include/matrix.h ****         dst[13]  = tmp[4] * mat[0] + tmp[9] * mat[1] + tmp[10] * mat[2];
 2065              		.loc 1 1205 0
 2066 031c 3946     		mov	r1, r7
1204:/home/tienluong/workspace/atlantis_fw/AsicFwS2/include/matrix.h ****         dst[9]  -= tmp[2] * mat[0] + tmp[7] * mat[1] + tmp[10] * mat[3];
 2067              		.loc 1 1204 0
 2068 031e 8246     		mov	r10, r0
1205:/home/tienluong/workspace/atlantis_fw/AsicFwS2/include/matrix.h ****         dst[13]  = tmp[4] * mat[0] + tmp[9] * mat[1] + tmp[10] * mat[2];
 2069              		.loc 1 1205 0
 2070 0320 1098     		ldr	r0, [sp, #64]	@ float
 2071 0322 A047     		blx	r4
 2072              	.LVL294:
 2073 0324 3146     		mov	r1, r6
 2074 0326 8346     		mov	fp, r0
 2075 0328 1598     		ldr	r0, [sp, #84]	@ float
 2076 032a A047     		blx	r4
 2077              	.LVL295:
 2078 032c 0146     		mov	r1, r0
 2079 032e 5846     		mov	r0, fp
 2080 0330 A847     		blx	r5
 2081              	.LVL296:
 2082 0332 4946     		mov	r1, r9
 2083 0334 8346     		mov	fp, r0
 2084 0336 1898     		ldr	r0, [sp, #96]	@ float
 2085 0338 A047     		blx	r4
 2086              	.LVL297:
 2087 033a 0146     		mov	r1, r0
 2088 033c 5846     		mov	r0, fp
 2089 033e A847     		blx	r5
 2090              	.LVL298:
 2091 0340 444B     		ldr	r3, .L66+4
 2092 0342 0146     		mov	r1, r0
 2093 0344 5046     		mov	r0, r10
 2094 0346 9847     		blx	r3
 2095              	.LVL299:
1206:/home/tienluong/workspace/atlantis_fw/AsicFwS2/include/matrix.h ****         dst[13] -= tmp[5] * mat[0] + tmp[8] * mat[1] + tmp[11] * mat[2];
 2096              		.loc 1 1206 0
 2097 0348 3946     		mov	r1, r7
1205:/home/tienluong/workspace/atlantis_fw/AsicFwS2/include/matrix.h ****         dst[13]  = tmp[4] * mat[0] + tmp[9] * mat[1] + tmp[10] * mat[2];
 2098              		.loc 1 1205 0
 2099 034a 2590     		str	r0, [sp, #148]	@ float
1206:/home/tienluong/workspace/atlantis_fw/AsicFwS2/include/matrix.h ****         dst[13] -= tmp[5] * mat[0] + tmp[8] * mat[1] + tmp[11] * mat[2];
 2100              		.loc 1 1206 0
 2101 034c 1298     		ldr	r0, [sp, #72]	@ float
 2102 034e A047     		blx	r4
 2103              	.LVL300:
 2104 0350 3146     		mov	r1, r6
 2105 0352 8246     		mov	r10, r0
 2106 0354 1798     		ldr	r0, [sp, #92]	@ float
 2107 0356 A047     		blx	r4
 2108              	.LVL301:
 2109 0358 0146     		mov	r1, r0
 2110 035a 5046     		mov	r0, r10
 2111 035c A847     		blx	r5
 2112              	.LVL302:
 2113 035e 4146     		mov	r1, r8
 2114 0360 8246     		mov	r10, r0
 2115 0362 1898     		ldr	r0, [sp, #96]	@ float
 2116 0364 A047     		blx	r4
 2117              	.LVL303:
 2118 0366 0146     		mov	r1, r0
 2119 0368 5046     		mov	r0, r10
 2120 036a A847     		blx	r5
 2121              	.LVL304:
1207:/home/tienluong/workspace/atlantis_fw/AsicFwS2/include/matrix.h **** 
 2122              		.loc 1 1207 0
 2123 036c 3946     		mov	r1, r7
1206:/home/tienluong/workspace/atlantis_fw/AsicFwS2/include/matrix.h ****         dst[13] -= tmp[5] * mat[0] + tmp[8] * mat[1] + tmp[11] * mat[2];
 2124              		.loc 1 1206 0
 2125 036e 8246     		mov	r10, r0
1207:/home/tienluong/workspace/atlantis_fw/AsicFwS2/include/matrix.h **** 
 2126              		.loc 1 1207 0
 2127 0370 1398     		ldr	r0, [sp, #76]	@ float
 2128 0372 A047     		blx	r4
 2129              	.LVL305:
 2130 0374 3146     		mov	r1, r6
 2131 0376 8346     		mov	fp, r0
 2132 0378 1698     		ldr	r0, [sp, #88]	@ float
 2133 037a A047     		blx	r4
 2134              	.LVL306:
 2135 037c 0146     		mov	r1, r0
 2136 037e 5846     		mov	r0, fp
 2137 0380 A847     		blx	r5
 2138              	.LVL307:
 2139 0382 4146     		mov	r1, r8
 2140 0384 8346     		mov	fp, r0
 2141 0386 1998     		ldr	r0, [sp, #100]	@ float
 2142 0388 A047     		blx	r4
 2143              	.LVL308:
 2144 038a 0146     		mov	r1, r0
 2145 038c 5846     		mov	r0, fp
 2146 038e A847     		blx	r5
 2147              	.LVL309:
 2148 0390 304B     		ldr	r3, .L66+4
 2149 0392 0146     		mov	r1, r0
 2150 0394 5046     		mov	r0, r10
 2151 0396 9847     		blx	r3
 2152              	.LVL310:
 2153 0398 2990     		str	r0, [sp, #164]	@ float
1210:/home/tienluong/workspace/atlantis_fw/AsicFwS2/include/matrix.h ****         tmp[1] = mat[3] * mat[6];
 2154              		.loc 1 1210 0
 2155 039a 4046     		mov	r0, r8
 2156 039c 0C99     		ldr	r1, [sp, #48]	@ float
 2157 039e A047     		blx	r4
 2158              	.LVL311:
1211:/home/tienluong/workspace/atlantis_fw/AsicFwS2/include/matrix.h ****         tmp[2] = mat[1] * mat[7];
 2159              		.loc 1 1211 0
 2160 03a0 0B99     		ldr	r1, [sp, #44]	@ float
1210:/home/tienluong/workspace/atlantis_fw/AsicFwS2/include/matrix.h ****         tmp[1] = mat[3] * mat[6];
 2161              		.loc 1 1210 0
 2162 03a2 8346     		mov	fp, r0
 2163              	.LVL312:
1211:/home/tienluong/workspace/atlantis_fw/AsicFwS2/include/matrix.h ****         tmp[2] = mat[1] * mat[7];
 2164              		.loc 1 1211 0
 2165 03a4 4846     		mov	r0, r9
 2166              	.LVL313:
 2167 03a6 A047     		blx	r4
 2168              	.LVL314:
1212:/home/tienluong/workspace/atlantis_fw/AsicFwS2/include/matrix.h ****         tmp[3] = mat[3] * mat[5];
 2169              		.loc 1 1212 0
 2170 03a8 0C99     		ldr	r1, [sp, #48]	@ float
1211:/home/tienluong/workspace/atlantis_fw/AsicFwS2/include/matrix.h ****         tmp[2] = mat[1] * mat[7];
 2171              		.loc 1 1211 0
 2172 03aa 8246     		mov	r10, r0
 2173              	.LVL315:
1212:/home/tienluong/workspace/atlantis_fw/AsicFwS2/include/matrix.h ****         tmp[3] = mat[3] * mat[5];
 2174              		.loc 1 1212 0
 2175 03ac 3046     		mov	r0, r6
 2176              	.LVL316:
 2177 03ae A047     		blx	r4
 2178              	.LVL317:
1213:/home/tienluong/workspace/atlantis_fw/AsicFwS2/include/matrix.h ****         tmp[4] = mat[1] * mat[6];
 2179              		.loc 1 1213 0
 2180 03b0 0A99     		ldr	r1, [sp, #40]	@ float
1212:/home/tienluong/workspace/atlantis_fw/AsicFwS2/include/matrix.h ****         tmp[3] = mat[3] * mat[5];
 2181              		.loc 1 1212 0
 2182 03b2 0E90     		str	r0, [sp, #56]	@ float
 2183              	.LVL318:
1213:/home/tienluong/workspace/atlantis_fw/AsicFwS2/include/matrix.h ****         tmp[4] = mat[1] * mat[6];
 2184              		.loc 1 1213 0
 2185 03b4 4846     		mov	r0, r9
 2186              	.LVL319:
 2187 03b6 A047     		blx	r4
 2188              	.LVL320:
1214:/home/tienluong/workspace/atlantis_fw/AsicFwS2/include/matrix.h ****         tmp[5] = mat[2] * mat[5];
 2189              		.loc 1 1214 0
 2190 03b8 0B99     		ldr	r1, [sp, #44]	@ float
1213:/home/tienluong/workspace/atlantis_fw/AsicFwS2/include/matrix.h ****         tmp[4] = mat[1] * mat[6];
 2191              		.loc 1 1213 0
 2192 03ba 0F90     		str	r0, [sp, #60]	@ float
 2193              	.LVL321:
1214:/home/tienluong/workspace/atlantis_fw/AsicFwS2/include/matrix.h ****         tmp[5] = mat[2] * mat[5];
 2194              		.loc 1 1214 0
 2195 03bc 3046     		mov	r0, r6
 2196              	.LVL322:
 2197 03be A047     		blx	r4
 2198              	.LVL323:
1215:/home/tienluong/workspace/atlantis_fw/AsicFwS2/include/matrix.h ****         tmp[6] = mat[0] * mat[7];
 2199              		.loc 1 1215 0
 2200 03c0 0A99     		ldr	r1, [sp, #40]	@ float
1214:/home/tienluong/workspace/atlantis_fw/AsicFwS2/include/matrix.h ****         tmp[5] = mat[2] * mat[5];
 2201              		.loc 1 1214 0
 2202 03c2 1090     		str	r0, [sp, #64]	@ float
 2203              	.LVL324:
1215:/home/tienluong/workspace/atlantis_fw/AsicFwS2/include/matrix.h ****         tmp[6] = mat[0] * mat[7];
 2204              		.loc 1 1215 0
 2205 03c4 4046     		mov	r0, r8
 2206              	.LVL325:
 2207 03c6 A047     		blx	r4
 2208              	.LVL326:
1216:/home/tienluong/workspace/atlantis_fw/AsicFwS2/include/matrix.h ****         tmp[7] = mat[3] * mat[4];
 2209              		.loc 1 1216 0
 2210 03c8 0C99     		ldr	r1, [sp, #48]	@ float
1215:/home/tienluong/workspace/atlantis_fw/AsicFwS2/include/matrix.h ****         tmp[6] = mat[0] * mat[7];
 2211              		.loc 1 1215 0
 2212 03ca 1190     		str	r0, [sp, #68]	@ float
 2213              	.LVL327:
1216:/home/tienluong/workspace/atlantis_fw/AsicFwS2/include/matrix.h ****         tmp[7] = mat[3] * mat[4];
 2214              		.loc 1 1216 0
 2215 03cc 3846     		mov	r0, r7
 2216              	.LVL328:
 2217 03ce A047     		blx	r4
 2218              	.LVL329:
1217:/home/tienluong/workspace/atlantis_fw/AsicFwS2/include/matrix.h ****         tmp[8] = mat[0] * mat[6];
 2219              		.loc 1 1217 0
 2220 03d0 0D99     		ldr	r1, [sp, #52]	@ float
1216:/home/tienluong/workspace/atlantis_fw/AsicFwS2/include/matrix.h ****         tmp[7] = mat[3] * mat[4];
 2221              		.loc 1 1216 0
 2222 03d2 0C90     		str	r0, [sp, #48]	@ float
 2223              	.LVL330:
1217:/home/tienluong/workspace/atlantis_fw/AsicFwS2/include/matrix.h ****         tmp[8] = mat[0] * mat[6];
 2224              		.loc 1 1217 0
 2225 03d4 4846     		mov	r0, r9
 2226              	.LVL331:
 2227 03d6 A047     		blx	r4
 2228              	.LVL332:
1218:/home/tienluong/workspace/atlantis_fw/AsicFwS2/include/matrix.h ****         tmp[9] = mat[2] * mat[4];
 2229              		.loc 1 1218 0
 2230 03d8 0B99     		ldr	r1, [sp, #44]	@ float
1217:/home/tienluong/workspace/atlantis_fw/AsicFwS2/include/matrix.h ****         tmp[8] = mat[0] * mat[6];
 2231              		.loc 1 1217 0
 2232 03da 8146     		mov	r9, r0
 2233              	.LVL333:
1218:/home/tienluong/workspace/atlantis_fw/AsicFwS2/include/matrix.h ****         tmp[9] = mat[2] * mat[4];
 2234              		.loc 1 1218 0
 2235 03dc 3846     		mov	r0, r7
 2236              	.LVL334:
 2237 03de A047     		blx	r4
 2238              	.LVL335:
1219:/home/tienluong/workspace/atlantis_fw/AsicFwS2/include/matrix.h ****         tmp[10] = mat[0] * mat[5];
 2239              		.loc 1 1219 0
 2240 03e0 0D99     		ldr	r1, [sp, #52]	@ float
1218:/home/tienluong/workspace/atlantis_fw/AsicFwS2/include/matrix.h ****         tmp[9] = mat[2] * mat[4];
 2241              		.loc 1 1218 0
 2242 03e2 0B90     		str	r0, [sp, #44]	@ float
1219:/home/tienluong/workspace/atlantis_fw/AsicFwS2/include/matrix.h ****         tmp[10] = mat[0] * mat[5];
 2243              		.loc 1 1219 0
 2244 03e4 4046     		mov	r0, r8
 2245 03e6 A047     		blx	r4
 2246              	.LVL336:
1220:/home/tienluong/workspace/atlantis_fw/AsicFwS2/include/matrix.h ****         tmp[11] = mat[1] * mat[4];
 2247              		.loc 1 1220 0
 2248 03e8 0A99     		ldr	r1, [sp, #40]	@ float
1219:/home/tienluong/workspace/atlantis_fw/AsicFwS2/include/matrix.h ****         tmp[10] = mat[0] * mat[5];
 2249              		.loc 1 1219 0
 2250 03ea 8046     		mov	r8, r0
1220:/home/tienluong/workspace/atlantis_fw/AsicFwS2/include/matrix.h ****         tmp[11] = mat[1] * mat[4];
 2251              		.loc 1 1220 0
 2252 03ec 3846     		mov	r0, r7
 2253 03ee A047     		blx	r4
 2254              	.LVL337:
1221:/home/tienluong/workspace/atlantis_fw/AsicFwS2/include/matrix.h **** 
 2255              		.loc 1 1221 0
 2256 03f0 0D99     		ldr	r1, [sp, #52]	@ float
1220:/home/tienluong/workspace/atlantis_fw/AsicFwS2/include/matrix.h ****         tmp[11] = mat[1] * mat[4];
 2257              		.loc 1 1220 0
 2258 03f2 0746     		mov	r7, r0
1221:/home/tienluong/workspace/atlantis_fw/AsicFwS2/include/matrix.h **** 
 2259              		.loc 1 1221 0
 2260 03f4 3046     		mov	r0, r6
 2261 03f6 A047     		blx	r4
 2262              	.LVL338:
1224:/home/tienluong/workspace/atlantis_fw/AsicFwS2/include/matrix.h ****         dst[2]  -= tmp[1]  * mat[13] + tmp[2]  * mat[14] + tmp[5]  * mat[15];
 2263              		.loc 1 1224 0
 2264 03f8 0799     		ldr	r1, [sp, #28]	@ float
1221:/home/tienluong/workspace/atlantis_fw/AsicFwS2/include/matrix.h **** 
 2265              		.loc 1 1221 0
 2266 03fa 0646     		mov	r6, r0
1224:/home/tienluong/workspace/atlantis_fw/AsicFwS2/include/matrix.h ****         dst[2]  -= tmp[1]  * mat[13] + tmp[2]  * mat[14] + tmp[5]  * mat[15];
 2267              		.loc 1 1224 0
 2268 03fc 5846     		mov	r0, fp
 2269 03fe A047     		blx	r4
 2270              	.LVL339:
 2271 0400 0599     		ldr	r1, [sp, #20]	@ float
 2272 0402 0A90     		str	r0, [sp, #40]
 2273 0404 0F98     		ldr	r0, [sp, #60]	@ float
 2274 0406 A047     		blx	r4
 2275              	.LVL340:
 2276 0408 0A9B     		ldr	r3, [sp, #40]
 2277 040a 0146     		mov	r1, r0
 2278 040c 1846     		mov	r0, r3
 2279 040e A847     		blx	r5
 2280              	.LVL341:
 2281 0410 0A90     		str	r0, [sp, #40]
 2282 0412 1098     		ldr	r0, [sp, #64]	@ float
 2283 0414 0399     		ldr	r1, [sp, #12]	@ float
 2284 0416 A047     		blx	r4
 2285              	.LVL342:
 2286 0418 0A9B     		ldr	r3, [sp, #40]
 2287 041a 0146     		mov	r1, r0
 2288 041c 1846     		mov	r0, r3
 2289 041e A847     		blx	r5
 2290              	.LVL343:
1225:/home/tienluong/workspace/atlantis_fw/AsicFwS2/include/matrix.h ****         dst[3]   = tmp[2]  * mat[10] + tmp[5]  * mat[11] + tmp[1]  * mat[9];
 2291              		.loc 1 1225 0
 2292 0420 0799     		ldr	r1, [sp, #28]	@ float
1224:/home/tienluong/workspace/atlantis_fw/AsicFwS2/include/matrix.h ****         dst[2]  -= tmp[1]  * mat[13] + tmp[2]  * mat[14] + tmp[5]  * mat[15];
 2293              		.loc 1 1224 0
 2294 0422 0D90     		str	r0, [sp, #52]
1225:/home/tienluong/workspace/atlantis_fw/AsicFwS2/include/matrix.h ****         dst[3]   = tmp[2]  * mat[10] + tmp[5]  * mat[11] + tmp[1]  * mat[9];
 2295              		.loc 1 1225 0
 2296 0424 5046     		mov	r0, r10
 2297 0426 A047     		blx	r4
 2298              	.LVL344:
 2299 0428 0599     		ldr	r1, [sp, #20]	@ float
 2300 042a 0A90     		str	r0, [sp, #40]
 2301 042c 0E98     		ldr	r0, [sp, #56]	@ float
 2302 042e A047     		blx	r4
 2303              	.LVL345:
 2304 0430 0A9A     		ldr	r2, [sp, #40]
 2305 0432 0146     		mov	r1, r0
 2306 0434 1046     		mov	r0, r2
 2307 0436 A847     		blx	r5
 2308              	.LVL346:
 2309 0438 0399     		ldr	r1, [sp, #12]	@ float
 2310 043a 0A90     		str	r0, [sp, #40]
 2311 043c 1198     		ldr	r0, [sp, #68]	@ float
 2312 043e A047     		blx	r4
 2313              	.LVL347:
 2314 0440 0A9A     		ldr	r2, [sp, #40]
 2315 0442 0146     		mov	r1, r0
 2316 0444 1046     		mov	r0, r2
 2317 0446 A847     		blx	r5
 2318              	.LVL348:
 2319 0448 0D9B     		ldr	r3, [sp, #52]
 2320 044a 0146     		mov	r1, r0
 2321 044c 04E0     		b	.L67
 2322              	.L68:
 2323 044e 00BF     		.align	2
 2324              	.L66:
 2325 0450 00000000 		.word	__aeabi_fdiv
 2326 0454 00000000 		.word	__aeabi_fsub
 2327              	.L67:
 2328 0458 1846     		mov	r0, r3
 2329 045a 7F4B     		ldr	r3, .L69
 2330 045c 9847     		blx	r3
 2331              	.LVL349:
1226:/home/tienluong/workspace/atlantis_fw/AsicFwS2/include/matrix.h ****         dst[3]  -= tmp[4]  * mat[11] + tmp[0]  * mat[9]  + tmp[3]  * mat[10];
 2332              		.loc 1 1226 0
 2333 045e 0299     		ldr	r1, [sp, #8]	@ float
1225:/home/tienluong/workspace/atlantis_fw/AsicFwS2/include/matrix.h ****         dst[3]   = tmp[2]  * mat[10] + tmp[5]  * mat[11] + tmp[1]  * mat[9];
 2334              		.loc 1 1225 0
 2335 0460 1E90     		str	r0, [sp, #120]	@ float
1226:/home/tienluong/workspace/atlantis_fw/AsicFwS2/include/matrix.h ****         dst[3]  -= tmp[4]  * mat[11] + tmp[0]  * mat[9]  + tmp[3]  * mat[10];
 2336              		.loc 1 1226 0
 2337 0462 0E98     		ldr	r0, [sp, #56]	@ float
 2338 0464 A047     		blx	r4
 2339              	.LVL350:
 2340 0466 0499     		ldr	r1, [sp, #16]	@ float
 2341 0468 0A90     		str	r0, [sp, #40]
 2342 046a 1198     		ldr	r0, [sp, #68]	@ float
 2343 046c A047     		blx	r4
 2344              	.LVL351:
 2345 046e 0A9B     		ldr	r3, [sp, #40]
 2346 0470 0146     		mov	r1, r0
 2347 0472 1846     		mov	r0, r3
 2348 0474 A847     		blx	r5
 2349              	.LVL352:
 2350 0476 0699     		ldr	r1, [sp, #24]	@ float
 2351 0478 0A90     		str	r0, [sp, #40]
 2352 047a 5046     		mov	r0, r10
 2353 047c A047     		blx	r4
 2354              	.LVL353:
 2355 047e 0A9B     		ldr	r3, [sp, #40]
 2356 0480 0146     		mov	r1, r0
 2357 0482 1846     		mov	r0, r3
 2358 0484 A847     		blx	r5
 2359              	.LVL354:
1227:/home/tienluong/workspace/atlantis_fw/AsicFwS2/include/matrix.h ****         dst[6]   = tmp[1]  * mat[12] + tmp[6]  * mat[14] + tmp[9]  * mat[15];
 2360              		.loc 1 1227 0
 2361 0486 0499     		ldr	r1, [sp, #16]	@ float
1226:/home/tienluong/workspace/atlantis_fw/AsicFwS2/include/matrix.h ****         dst[3]  -= tmp[4]  * mat[11] + tmp[0]  * mat[9]  + tmp[3]  * mat[10];
 2362              		.loc 1 1226 0
 2363 0488 0D90     		str	r0, [sp, #52]
1227:/home/tienluong/workspace/atlantis_fw/AsicFwS2/include/matrix.h ****         dst[6]   = tmp[1]  * mat[12] + tmp[6]  * mat[14] + tmp[9]  * mat[15];
 2364              		.loc 1 1227 0
 2365 048a 1098     		ldr	r0, [sp, #64]	@ float
 2366 048c A047     		blx	r4
 2367              	.LVL355:
 2368 048e 0699     		ldr	r1, [sp, #24]	@ float
 2369 0490 0A90     		str	r0, [sp, #40]
 2370 0492 5846     		mov	r0, fp
 2371 0494 A047     		blx	r4
 2372              	.LVL356:
 2373 0496 0A9A     		ldr	r2, [sp, #40]
 2374 0498 0146     		mov	r1, r0
 2375 049a 1046     		mov	r0, r2
 2376 049c A847     		blx	r5
 2377              	.LVL357:
 2378 049e 0299     		ldr	r1, [sp, #8]	@ float
 2379 04a0 0A90     		str	r0, [sp, #40]
 2380 04a2 0F98     		ldr	r0, [sp, #60]	@ float
 2381 04a4 A047     		blx	r4
 2382              	.LVL358:
 2383 04a6 0A9A     		ldr	r2, [sp, #40]
 2384 04a8 0146     		mov	r1, r0
 2385 04aa 1046     		mov	r0, r2
 2386 04ac A847     		blx	r5
 2387              	.LVL359:
 2388 04ae 0D9B     		ldr	r3, [sp, #52]
 2389 04b0 0146     		mov	r1, r0
 2390 04b2 1846     		mov	r0, r3
 2391 04b4 684B     		ldr	r3, .L69
 2392 04b6 9847     		blx	r3
 2393              	.LVL360:
1228:/home/tienluong/workspace/atlantis_fw/AsicFwS2/include/matrix.h ****         dst[6]  -= tmp[0]  * mat[12] + tmp[7]  * mat[14] + tmp[8]  * mat[15];
 2394              		.loc 1 1228 0
 2395 04b8 0999     		ldr	r1, [sp, #36]	@ float
1227:/home/tienluong/workspace/atlantis_fw/AsicFwS2/include/matrix.h ****         dst[6]   = tmp[1]  * mat[12] + tmp[6]  * mat[14] + tmp[9]  * mat[15];
 2396              		.loc 1 1227 0
 2397 04ba 1F90     		str	r0, [sp, #124]	@ float
1228:/home/tienluong/workspace/atlantis_fw/AsicFwS2/include/matrix.h ****         dst[6]  -= tmp[0]  * mat[12] + tmp[7]  * mat[14] + tmp[8]  * mat[15];
 2398              		.loc 1 1228 0
 2399 04bc 5046     		mov	r0, r10
 2400 04be A047     		blx	r4
 2401              	.LVL361:
 2402 04c0 0599     		ldr	r1, [sp, #20]	@ float
 2403 04c2 0A90     		str	r0, [sp, #40]
 2404 04c4 0C98     		ldr	r0, [sp, #48]	@ float
 2405 04c6 A047     		blx	r4
 2406              	.LVL362:
 2407 04c8 0A9B     		ldr	r3, [sp, #40]
 2408 04ca 0146     		mov	r1, r0
 2409 04cc 1846     		mov	r0, r3
 2410 04ce A847     		blx	r5
 2411              	.LVL363:
 2412 04d0 0399     		ldr	r1, [sp, #12]	@ float
 2413 04d2 0A90     		str	r0, [sp, #40]
 2414 04d4 4046     		mov	r0, r8
 2415 04d6 A047     		blx	r4
 2416              	.LVL364:
 2417 04d8 0A9B     		ldr	r3, [sp, #40]
 2418 04da 0146     		mov	r1, r0
 2419 04dc 1846     		mov	r0, r3
 2420 04de A847     		blx	r5
 2421              	.LVL365:
1229:/home/tienluong/workspace/atlantis_fw/AsicFwS2/include/matrix.h ****         dst[7]   = tmp[8]  * mat[11] + tmp[0]  * mat[8]  + tmp[7]  * mat[10];
 2422              		.loc 1 1229 0
 2423 04e0 0999     		ldr	r1, [sp, #36]	@ float
1228:/home/tienluong/workspace/atlantis_fw/AsicFwS2/include/matrix.h ****         dst[6]  -= tmp[0]  * mat[12] + tmp[7]  * mat[14] + tmp[8]  * mat[15];
 2424              		.loc 1 1228 0
 2425 04e2 0D90     		str	r0, [sp, #52]
1229:/home/tienluong/workspace/atlantis_fw/AsicFwS2/include/matrix.h ****         dst[7]   = tmp[8]  * mat[11] + tmp[0]  * mat[8]  + tmp[7]  * mat[10];
 2426              		.loc 1 1229 0
 2427 04e4 5846     		mov	r0, fp
 2428 04e6 A047     		blx	r4
 2429              	.LVL366:
 2430 04e8 0599     		ldr	r1, [sp, #20]	@ float
 2431 04ea 0A90     		str	r0, [sp, #40]
 2432 04ec 4846     		mov	r0, r9
 2433 04ee A047     		blx	r4
 2434              	.LVL367:
 2435 04f0 0A9A     		ldr	r2, [sp, #40]
 2436 04f2 0146     		mov	r1, r0
 2437 04f4 1046     		mov	r0, r2
 2438 04f6 A847     		blx	r5
 2439              	.LVL368:
 2440 04f8 0399     		ldr	r1, [sp, #12]	@ float
 2441 04fa 0A90     		str	r0, [sp, #40]
 2442 04fc 0B98     		ldr	r0, [sp, #44]	@ float
 2443 04fe A047     		blx	r4
 2444              	.LVL369:
 2445 0500 0A9A     		ldr	r2, [sp, #40]
 2446 0502 0146     		mov	r1, r0
 2447 0504 1046     		mov	r0, r2
 2448 0506 A847     		blx	r5
 2449              	.LVL370:
 2450 0508 0D9B     		ldr	r3, [sp, #52]
 2451 050a 0146     		mov	r1, r0
 2452 050c 1846     		mov	r0, r3
 2453 050e 524B     		ldr	r3, .L69
 2454 0510 9847     		blx	r3
 2455              	.LVL371:
1230:/home/tienluong/workspace/atlantis_fw/AsicFwS2/include/matrix.h ****         dst[7]  -= tmp[6]  * mat[10] + tmp[9]  * mat[11] + tmp[1]  * mat[8];
 2456              		.loc 1 1230 0
 2457 0512 0499     		ldr	r1, [sp, #16]	@ float
1229:/home/tienluong/workspace/atlantis_fw/AsicFwS2/include/matrix.h ****         dst[7]   = tmp[8]  * mat[11] + tmp[0]  * mat[8]  + tmp[7]  * mat[10];
 2458              		.loc 1 1229 0
 2459 0514 2290     		str	r0, [sp, #136]	@ float
1230:/home/tienluong/workspace/atlantis_fw/AsicFwS2/include/matrix.h ****         dst[7]  -= tmp[6]  * mat[10] + tmp[9]  * mat[11] + tmp[1]  * mat[8];
 2460              		.loc 1 1230 0
 2461 0516 0B98     		ldr	r0, [sp, #44]	@ float
 2462 0518 A047     		blx	r4
 2463              	.LVL372:
 2464 051a 0899     		ldr	r1, [sp, #32]	@ float
 2465 051c 0A90     		str	r0, [sp, #40]
 2466 051e 5846     		mov	r0, fp
 2467 0520 A047     		blx	r4
 2468              	.LVL373:
 2469 0522 0A9B     		ldr	r3, [sp, #40]
 2470 0524 0146     		mov	r1, r0
 2471 0526 1846     		mov	r0, r3
 2472 0528 A847     		blx	r5
 2473              	.LVL374:
 2474 052a 0299     		ldr	r1, [sp, #8]	@ float
 2475 052c 8346     		mov	fp, r0
 2476              	.LVL375:
 2477 052e 4846     		mov	r0, r9
 2478 0530 A047     		blx	r4
 2479              	.LVL376:
 2480 0532 0146     		mov	r1, r0
 2481 0534 5846     		mov	r0, fp
 2482 0536 A847     		blx	r5
 2483              	.LVL377:
1231:/home/tienluong/workspace/atlantis_fw/AsicFwS2/include/matrix.h ****         dst[10]  = tmp[2]  * mat[12] + tmp[7]  * mat[13] + tmp[10] * mat[15];
 2484              		.loc 1 1231 0
 2485 0538 0299     		ldr	r1, [sp, #8]	@ float
1230:/home/tienluong/workspace/atlantis_fw/AsicFwS2/include/matrix.h ****         dst[7]  -= tmp[6]  * mat[10] + tmp[9]  * mat[11] + tmp[1]  * mat[8];
 2486              		.loc 1 1230 0
 2487 053a 8346     		mov	fp, r0
1231:/home/tienluong/workspace/atlantis_fw/AsicFwS2/include/matrix.h ****         dst[10]  = tmp[2]  * mat[12] + tmp[7]  * mat[13] + tmp[10] * mat[15];
 2488              		.loc 1 1231 0
 2489 053c 0C98     		ldr	r0, [sp, #48]	@ float
 2490 053e A047     		blx	r4
 2491              	.LVL378:
 2492 0540 0499     		ldr	r1, [sp, #16]	@ float
 2493 0542 0A90     		str	r0, [sp, #40]
 2494 0544 4046     		mov	r0, r8
 2495 0546 A047     		blx	r4
 2496              	.LVL379:
 2497 0548 0A9B     		ldr	r3, [sp, #40]
 2498 054a 0146     		mov	r1, r0
 2499 054c 1846     		mov	r0, r3
 2500 054e A847     		blx	r5
 2501              	.LVL380:
 2502 0550 0899     		ldr	r1, [sp, #32]	@ float
 2503 0552 0A90     		str	r0, [sp, #40]
 2504 0554 5046     		mov	r0, r10
 2505 0556 A047     		blx	r4
 2506              	.LVL381:
 2507 0558 0A9B     		ldr	r3, [sp, #40]
 2508 055a 0146     		mov	r1, r0
 2509 055c 1846     		mov	r0, r3
 2510 055e A847     		blx	r5
 2511              	.LVL382:
 2512 0560 3D4B     		ldr	r3, .L69
 2513 0562 0146     		mov	r1, r0
 2514 0564 5846     		mov	r0, fp
 2515 0566 9847     		blx	r3
 2516              	.LVL383:
1232:/home/tienluong/workspace/atlantis_fw/AsicFwS2/include/matrix.h ****         dst[10] -= tmp[3]  * mat[12] + tmp[6]  * mat[13] + tmp[11] * mat[15];
 2517              		.loc 1 1232 0
 2518 0568 0999     		ldr	r1, [sp, #36]	@ float
1231:/home/tienluong/workspace/atlantis_fw/AsicFwS2/include/matrix.h ****         dst[10]  = tmp[2]  * mat[12] + tmp[7]  * mat[13] + tmp[10] * mat[15];
 2519              		.loc 1 1231 0
 2520 056a 2390     		str	r0, [sp, #140]	@ float
1232:/home/tienluong/workspace/atlantis_fw/AsicFwS2/include/matrix.h ****         dst[10] -= tmp[3]  * mat[12] + tmp[6]  * mat[13] + tmp[11] * mat[15];
 2521              		.loc 1 1232 0
 2522 056c 0E98     		ldr	r0, [sp, #56]	@ float
 2523 056e A047     		blx	r4
 2524              	.LVL384:
 2525 0570 0799     		ldr	r1, [sp, #28]	@ float
 2526 0572 8246     		mov	r10, r0
 2527              	.LVL385:
 2528 0574 4846     		mov	r0, r9
 2529 0576 A047     		blx	r4
 2530              	.LVL386:
 2531 0578 0146     		mov	r1, r0
 2532 057a 5046     		mov	r0, r10
 2533 057c A847     		blx	r5
 2534              	.LVL387:
 2535 057e 0399     		ldr	r1, [sp, #12]	@ float
 2536 0580 8246     		mov	r10, r0
 2537 0582 3846     		mov	r0, r7
 2538 0584 A047     		blx	r4
 2539              	.LVL388:
 2540 0586 0146     		mov	r1, r0
 2541 0588 5046     		mov	r0, r10
 2542 058a A847     		blx	r5
 2543              	.LVL389:
1233:/home/tienluong/workspace/atlantis_fw/AsicFwS2/include/matrix.h ****         dst[11]  = tmp[6]  * mat[9]  + tmp[11] * mat[11] + tmp[3]  * mat[8];
 2544              		.loc 1 1233 0
 2545 058c 0999     		ldr	r1, [sp, #36]	@ float
1232:/home/tienluong/workspace/atlantis_fw/AsicFwS2/include/matrix.h ****         dst[10] -= tmp[3]  * mat[12] + tmp[6]  * mat[13] + tmp[11] * mat[15];
 2546              		.loc 1 1232 0
 2547 058e 8246     		mov	r10, r0
1233:/home/tienluong/workspace/atlantis_fw/AsicFwS2/include/matrix.h ****         dst[11]  = tmp[6]  * mat[9]  + tmp[11] * mat[11] + tmp[3]  * mat[8];
 2548              		.loc 1 1233 0
 2549 0590 0F98     		ldr	r0, [sp, #60]	@ float
 2550 0592 A047     		blx	r4
 2551              	.LVL390:
 2552 0594 0799     		ldr	r1, [sp, #28]	@ float
 2553 0596 8346     		mov	fp, r0
 2554 0598 0C98     		ldr	r0, [sp, #48]	@ float
 2555 059a A047     		blx	r4
 2556              	.LVL391:
 2557 059c 0146     		mov	r1, r0
 2558 059e 5846     		mov	r0, fp
 2559 05a0 A847     		blx	r5
 2560              	.LVL392:
 2561 05a2 0399     		ldr	r1, [sp, #12]	@ float
 2562 05a4 8346     		mov	fp, r0
 2563 05a6 3046     		mov	r0, r6
 2564 05a8 A047     		blx	r4
 2565              	.LVL393:
 2566 05aa 0146     		mov	r1, r0
 2567 05ac 5846     		mov	r0, fp
 2568 05ae A847     		blx	r5
 2569              	.LVL394:
 2570 05b0 294B     		ldr	r3, .L69
 2571 05b2 0146     		mov	r1, r0
 2572 05b4 5046     		mov	r0, r10
 2573 05b6 9847     		blx	r3
 2574              	.LVL395:
1234:/home/tienluong/workspace/atlantis_fw/AsicFwS2/include/matrix.h ****         dst[11] -= tmp[10] * mat[11] + tmp[2]  * mat[8]  + tmp[7]  * mat[9];
 2575              		.loc 1 1234 0
 2576 05b8 0699     		ldr	r1, [sp, #24]	@ float
1233:/home/tienluong/workspace/atlantis_fw/AsicFwS2/include/matrix.h ****         dst[11]  = tmp[6]  * mat[9]  + tmp[11] * mat[11] + tmp[3]  * mat[8];
 2577              		.loc 1 1233 0
 2578 05ba 2690     		str	r0, [sp, #152]	@ float
1234:/home/tienluong/workspace/atlantis_fw/AsicFwS2/include/matrix.h ****         dst[11] -= tmp[10] * mat[11] + tmp[2]  * mat[8]  + tmp[7]  * mat[9];
 2579              		.loc 1 1234 0
 2580 05bc 0C98     		ldr	r0, [sp, #48]	@ float
 2581 05be A047     		blx	r4
 2582              	.LVL396:
 2583 05c0 0499     		ldr	r1, [sp, #16]	@ float
 2584 05c2 8246     		mov	r10, r0
 2585 05c4 3046     		mov	r0, r6
 2586 05c6 A047     		blx	r4
 2587              	.LVL397:
 2588 05c8 0146     		mov	r1, r0
 2589 05ca 5046     		mov	r0, r10
 2590 05cc A847     		blx	r5
 2591              	.LVL398:
 2592 05ce 0899     		ldr	r1, [sp, #32]	@ float
 2593 05d0 8246     		mov	r10, r0
 2594 05d2 0F98     		ldr	r0, [sp, #60]	@ float
 2595 05d4 A047     		blx	r4
 2596              	.LVL399:
 2597 05d6 0146     		mov	r1, r0
 2598 05d8 5046     		mov	r0, r10
 2599 05da A847     		blx	r5
 2600              	.LVL400:
1235:/home/tienluong/workspace/atlantis_fw/AsicFwS2/include/matrix.h ****         dst[14]  = tmp[5]  * mat[12] + tmp[8]  * mat[13] + tmp[11] * mat[14];
 2601              		.loc 1 1235 0
 2602 05dc 0499     		ldr	r1, [sp, #16]	@ float
1234:/home/tienluong/workspace/atlantis_fw/AsicFwS2/include/matrix.h ****         dst[11] -= tmp[10] * mat[11] + tmp[2]  * mat[8]  + tmp[7]  * mat[9];
 2603              		.loc 1 1234 0
 2604 05de 8246     		mov	r10, r0
1235:/home/tienluong/workspace/atlantis_fw/AsicFwS2/include/matrix.h ****         dst[14]  = tmp[5]  * mat[12] + tmp[8]  * mat[13] + tmp[11] * mat[14];
 2605              		.loc 1 1235 0
 2606 05e0 3846     		mov	r0, r7
 2607 05e2 A047     		blx	r4
 2608              	.LVL401:
 2609 05e4 0899     		ldr	r1, [sp, #32]	@ float
 2610 05e6 8346     		mov	fp, r0
 2611 05e8 0E98     		ldr	r0, [sp, #56]	@ float
 2612 05ea A047     		blx	r4
 2613              	.LVL402:
 2614 05ec 0146     		mov	r1, r0
 2615 05ee 5846     		mov	r0, fp
 2616 05f0 A847     		blx	r5
 2617              	.LVL403:
 2618 05f2 0699     		ldr	r1, [sp, #24]	@ float
 2619 05f4 8346     		mov	fp, r0
 2620 05f6 4846     		mov	r0, r9
 2621 05f8 A047     		blx	r4
 2622              	.LVL404:
 2623 05fa 0146     		mov	r1, r0
 2624 05fc 5846     		mov	r0, fp
 2625 05fe A847     		blx	r5
 2626              	.LVL405:
 2627 0600 154B     		ldr	r3, .L69
 2628 0602 0146     		mov	r1, r0
 2629 0604 5046     		mov	r0, r10
 2630 0606 9847     		blx	r3
 2631              	.LVL406:
 2632 0608 2790     		str	r0, [sp, #156]	@ float
1236:/home/tienluong/workspace/atlantis_fw/AsicFwS2/include/matrix.h ****         dst[14] -= tmp[4]  * mat[12] + tmp[9]  * mat[13] + tmp[10] * mat[14];
 2633              		.loc 1 1236 0
 2634 060a 1198     		ldr	r0, [sp, #68]	@ float
 2635 060c 0999     		ldr	r1, [sp, #36]	@ float
 2636 060e A047     		blx	r4
 2637              	.LVL407:
 2638 0610 0799     		ldr	r1, [sp, #28]	@ float
 2639 0612 8146     		mov	r9, r0
 2640              	.LVL408:
 2641 0614 0B98     		ldr	r0, [sp, #44]	@ float
 2642 0616 A047     		blx	r4
 2643              	.LVL409:
 2644 0618 0146     		mov	r1, r0
 2645 061a 4846     		mov	r0, r9
 2646 061c A847     		blx	r5
 2647              	.LVL410:
 2648 061e 0599     		ldr	r1, [sp, #20]	@ float
 2649 0620 8146     		mov	r9, r0
 2650 0622 3046     		mov	r0, r6
 2651 0624 A047     		blx	r4
 2652              	.LVL411:
 2653 0626 0146     		mov	r1, r0
 2654 0628 4846     		mov	r0, r9
 2655 062a A847     		blx	r5
 2656              	.LVL412:
1237:/home/tienluong/workspace/atlantis_fw/AsicFwS2/include/matrix.h ****         dst[15]  = tmp[10] * mat[10] + tmp[4]  * mat[8]  + tmp[9]  * mat[9];
 2657              		.loc 1 1237 0
 2658 062c 0999     		ldr	r1, [sp, #36]	@ float
1236:/home/tienluong/workspace/atlantis_fw/AsicFwS2/include/matrix.h ****         dst[14] -= tmp[4]  * mat[12] + tmp[9]  * mat[13] + tmp[10] * mat[14];
 2659              		.loc 1 1236 0
 2660 062e 8146     		mov	r9, r0
1237:/home/tienluong/workspace/atlantis_fw/AsicFwS2/include/matrix.h ****         dst[15]  = tmp[10] * mat[10] + tmp[4]  * mat[8]  + tmp[9]  * mat[9];
 2661              		.loc 1 1237 0
 2662 0630 1098     		ldr	r0, [sp, #64]	@ float
 2663 0632 A047     		blx	r4
 2664              	.LVL413:
 2665 0634 0799     		ldr	r1, [sp, #28]	@ float
 2666 0636 8246     		mov	r10, r0
 2667 0638 4046     		mov	r0, r8
 2668 063a A047     		blx	r4
 2669              	.LVL414:
 2670 063c 0146     		mov	r1, r0
 2671 063e 5046     		mov	r0, r10
 2672 0640 A847     		blx	r5
 2673              	.LVL415:
 2674 0642 0599     		ldr	r1, [sp, #20]	@ float
 2675 0644 8246     		mov	r10, r0
 2676 0646 3846     		mov	r0, r7
 2677 0648 A047     		blx	r4
 2678              	.LVL416:
 2679 064a 0146     		mov	r1, r0
 2680 064c 5046     		mov	r0, r10
 2681 064e A847     		blx	r5
 2682              	.LVL417:
 2683 0650 014B     		ldr	r3, .L69
 2684 0652 0146     		mov	r1, r0
 2685 0654 4846     		mov	r0, r9
 2686 0656 01E0     		b	.L70
 2687              	.L71:
 2688              		.align	2
 2689              	.L69:
 2690 0658 00000000 		.word	__aeabi_fsub
 2691              	.L70:
 2692 065c 9847     		blx	r3
 2693              	.LVL418:
1238:/home/tienluong/workspace/atlantis_fw/AsicFwS2/include/matrix.h ****         dst[15] -= tmp[8]  * mat[9]  + tmp[11] * mat[10] + tmp[5]  * mat[8];
 2694              		.loc 1 1238 0
 2695 065e 0299     		ldr	r1, [sp, #8]	@ float
1237:/home/tienluong/workspace/atlantis_fw/AsicFwS2/include/matrix.h ****         dst[15]  = tmp[10] * mat[10] + tmp[4]  * mat[8]  + tmp[9]  * mat[9];
 2696              		.loc 1 1237 0
 2697 0660 2A90     		str	r0, [sp, #168]	@ float
1238:/home/tienluong/workspace/atlantis_fw/AsicFwS2/include/matrix.h ****         dst[15] -= tmp[8]  * mat[9]  + tmp[11] * mat[10] + tmp[5]  * mat[8];
 2698              		.loc 1 1238 0
 2699 0662 3846     		mov	r0, r7
 2700 0664 A047     		blx	r4
 2701              	.LVL419:
 2702 0666 0899     		ldr	r1, [sp, #32]	@ float
 2703 0668 0746     		mov	r7, r0
 2704 066a 1098     		ldr	r0, [sp, #64]	@ float
 2705 066c A047     		blx	r4
 2706              	.LVL420:
 2707 066e 0146     		mov	r1, r0
 2708 0670 3846     		mov	r0, r7
 2709 0672 A847     		blx	r5
 2710              	.LVL421:
 2711 0674 0699     		ldr	r1, [sp, #24]	@ float
 2712 0676 0746     		mov	r7, r0
 2713 0678 4046     		mov	r0, r8
 2714 067a A047     		blx	r4
 2715              	.LVL422:
 2716 067c 0146     		mov	r1, r0
 2717 067e 3846     		mov	r0, r7
 2718 0680 A847     		blx	r5
 2719              	.LVL423:
1239:/home/tienluong/workspace/atlantis_fw/AsicFwS2/include/matrix.h **** 
 2720              		.loc 1 1239 0
 2721 0682 0699     		ldr	r1, [sp, #24]	@ float
1238:/home/tienluong/workspace/atlantis_fw/AsicFwS2/include/matrix.h ****         dst[15] -= tmp[8]  * mat[9]  + tmp[11] * mat[10] + tmp[5]  * mat[8];
 2722              		.loc 1 1238 0
 2723 0684 0746     		mov	r7, r0
1239:/home/tienluong/workspace/atlantis_fw/AsicFwS2/include/matrix.h **** 
 2724              		.loc 1 1239 0
 2725 0686 0B98     		ldr	r0, [sp, #44]	@ float
 2726 0688 A047     		blx	r4
 2727              	.LVL424:
 2728 068a 0299     		ldr	r1, [sp, #8]	@ float
 2729 068c 8046     		mov	r8, r0
 2730 068e 3046     		mov	r0, r6
 2731 0690 A047     		blx	r4
 2732              	.LVL425:
 2733 0692 0146     		mov	r1, r0
 2734 0694 4046     		mov	r0, r8
 2735 0696 A847     		blx	r5
 2736              	.LVL426:
 2737 0698 0899     		ldr	r1, [sp, #32]	@ float
 2738 069a 0646     		mov	r6, r0
 2739 069c 1198     		ldr	r0, [sp, #68]	@ float
 2740 069e A047     		blx	r4
 2741              	.LVL427:
 2742 06a0 0146     		mov	r1, r0
 2743 06a2 3046     		mov	r0, r6
 2744 06a4 A847     		blx	r5
 2745              	.LVL428:
 2746 06a6 0A4B     		ldr	r3, .L72
 2747              	.LBB248:
1242:/home/tienluong/workspace/atlantis_fw/AsicFwS2/include/matrix.h ****     }
 2748              		.loc 1 1242 0
 2749 06a8 0025     		movs	r5, #0
 2750              	.LBE248:
1239:/home/tienluong/workspace/atlantis_fw/AsicFwS2/include/matrix.h **** 
 2751              		.loc 1 1239 0
 2752 06aa 0146     		mov	r1, r0
 2753 06ac 3846     		mov	r0, r7
 2754 06ae 9847     		blx	r3
 2755              	.LVL429:
 2756 06b0 2B90     		str	r0, [sp, #172]	@ float
 2757              	.LVL430:
 2758              	.L61:
 2759              	.LBB249:
1242:/home/tienluong/workspace/atlantis_fw/AsicFwS2/include/matrix.h ****     }
 2760              		.loc 1 1242 0 discriminator 3
 2761 06b2 1CAB     		add	r3, sp, #112
 2762 06b4 1A99     		ldr	r1, [sp, #104]	@ float
 2763 06b6 53F82500 		ldr	r0, [r3, r5, lsl #2]	@ float
 2764 06ba A047     		blx	r4
 2765              	.LVL431:
 2766 06bc 019B     		ldr	r3, [sp, #4]
 2767 06be 43F82500 		str	r0, [r3, r5, lsl #2]	@ float
 2768 06c2 0135     		adds	r5, r5, #1
 2769              	.LVL432:
 2770 06c4 102D     		cmp	r5, #16
 2771 06c6 F4D1     		bne	.L61
 2772              	.LBE249:
 2773              	.LBE250:
1243:/home/tienluong/workspace/atlantis_fw/AsicFwS2/include/matrix.h **** };
 2774              		.loc 1 1243 0
 2775 06c8 2DB0     		add	sp, sp, #180
 2776              	.LCFI22:
 2777              		.cfi_def_cfa_offset 36
 2778              		@ sp needed
 2779 06ca BDE8F08F 		pop	{r4, r5, r6, r7, r8, r9, r10, fp, pc}
 2780              	.LVL433:
 2781              	.L73:
 2782 06ce 00BF     		.align	2
 2783              	.L72:
 2784 06d0 00000000 		.word	__aeabi_fsub
 2785              		.cfi_endproc
 2786              	.LFE4050:
 2788              		.section	.text._ZN4ltaf7inverseIfLi4ELb1EEENS_6MatrixIT_XT0_EXT0_EXT1_EEERKS3_,"axG",%progbits,_ZN
 2789              		.align	1
 2790              		.weak	_ZN4ltaf7inverseIfLi4ELb1EEENS_6MatrixIT_XT0_EXT0_EXT1_EEERKS3_
 2791              		.thumb
 2792              		.thumb_func
 2794              	_ZN4ltaf7inverseIfLi4ELb1EEENS_6MatrixIT_XT0_EXT0_EXT1_EEERKS3_:
 2795              	.LFB3907:
1247:/home/tienluong/workspace/atlantis_fw/AsicFwS2/include/matrix.h **** {
 2796              		.loc 1 1247 0
 2797              		.cfi_startproc
 2798              		@ args = 0, pretend = 0, frame = 8
 2799              		@ frame_needed = 0, uses_anonymous_args = 0
 2800              	.LVL434:
 2801 0000 73B5     		push	{r0, r1, r4, r5, r6, lr}
 2802              	.LCFI23:
 2803              		.cfi_def_cfa_offset 24
 2804              		.cfi_offset 4, -16
 2805              		.cfi_offset 5, -12
 2806              		.cfi_offset 6, -8
 2807              		.cfi_offset 14, -4
 2808              	.LBB257:
 2809              	.LBB258:
 2810              	.LBB259:
 591:/home/tienluong/workspace/atlantis_fw/AsicFwS2/include/matrix.h **** 
 2811              		.loc 1 591 0
 2812 0002 0D46     		mov	r5, r1
 2813              	.LBE259:
 2814              	.LBE258:
 2815              	.LBE257:
1247:/home/tienluong/workspace/atlantis_fw/AsicFwS2/include/matrix.h **** {
 2816              		.loc 1 1247 0
 2817 0004 0646     		mov	r6, r0
 2818              	.LBB262:
 2819              	.LBB261:
 2820              	.LBB260:
 591:/home/tienluong/workspace/atlantis_fw/AsicFwS2/include/matrix.h **** 
 2821              		.loc 1 591 0
 2822 0006 0446     		mov	r4, r0
 2823 0008 0FCD     		ldmia	r5!, {r0, r1, r2, r3}
 2824              	.LVL435:
 2825 000a 0FC4     		stmia	r4!, {r0, r1, r2, r3}
 2826              	.LVL436:
 2827 000c 0FCD     		ldmia	r5!, {r0, r1, r2, r3}
 2828              	.LVL437:
 2829 000e 0FC4     		stmia	r4!, {r0, r1, r2, r3}
 2830 0010 0FCD     		ldmia	r5!, {r0, r1, r2, r3}
 2831              	.LVL438:
 2832 0012 0FC4     		stmia	r4!, {r0, r1, r2, r3}
 2833 0014 95E80F00 		ldmia	r5, {r0, r1, r2, r3}
 2834 0018 84E80F00 		stmia	r4, {r0, r1, r2, r3}
 2835              	.LVL439:
 2836              	.LBE260:
 2837              	.LBE261:
1251:/home/tienluong/workspace/atlantis_fw/AsicFwS2/include/matrix.h ****     return rval;
 2838              		.loc 1 1251 0
 2839 001c 01A8     		add	r0, sp, #4
 2840 001e 3146     		mov	r1, r6
 2841 0020 024B     		ldr	r3, .L75
 2842 0022 9847     		blx	r3
 2843              	.LVL440:
 2844              	.LBE262:
1253:/home/tienluong/workspace/atlantis_fw/AsicFwS2/include/matrix.h **** 
 2845              		.loc 1 1253 0
 2846 0024 3046     		mov	r0, r6
 2847 0026 02B0     		add	sp, sp, #8
 2848              	.LCFI24:
 2849              		.cfi_def_cfa_offset 16
 2850              		@ sp needed
 2851 0028 70BD     		pop	{r4, r5, r6, pc}
 2852              	.LVL441:
 2853              	.L76:
 2854 002a 00BF     		.align	2
 2855              	.L75:
 2856 002c 00000000 		.word	_ZNK4ltaf20SquareMatrixInverterIfLi4EE3runEPf
 2857              		.cfi_endproc
 2858              	.LFE3907:
 2860              		.section	.text._ZN4ltaf7inverseIfLi4ELb0EEENS_6MatrixIT_XT0_EXT0_EXT1_EEERKS3_,"axG",%progbits,_ZN
 2861              		.align	1
 2862              		.weak	_ZN4ltaf7inverseIfLi4ELb0EEENS_6MatrixIT_XT0_EXT0_EXT1_EEERKS3_
 2863              		.thumb
 2864              		.thumb_func
 2866              	_ZN4ltaf7inverseIfLi4ELb0EEENS_6MatrixIT_XT0_EXT0_EXT1_EEERKS3_:
 2867              	.LFB3910:
1247:/home/tienluong/workspace/atlantis_fw/AsicFwS2/include/matrix.h **** {
 2868              		.loc 1 1247 0
 2869              		.cfi_startproc
 2870              		@ args = 0, pretend = 0, frame = 8
 2871              		@ frame_needed = 0, uses_anonymous_args = 0
 2872              	.LVL442:
 2873 0000 73B5     		push	{r0, r1, r4, r5, r6, lr}
 2874              	.LCFI25:
 2875              		.cfi_def_cfa_offset 24
 2876              		.cfi_offset 4, -16
 2877              		.cfi_offset 5, -12
 2878              		.cfi_offset 6, -8
 2879              		.cfi_offset 14, -4
 2880              	.LBB269:
 2881              	.LBB270:
 2882              	.LBB271:
 593:/home/tienluong/workspace/atlantis_fw/AsicFwS2/include/matrix.h **** 
 2883              		.loc 1 593 0
 2884 0002 0D46     		mov	r5, r1
 2885              	.LBE271:
 2886              	.LBE270:
 2887              	.LBE269:
1247:/home/tienluong/workspace/atlantis_fw/AsicFwS2/include/matrix.h **** {
 2888              		.loc 1 1247 0
 2889 0004 0646     		mov	r6, r0
 2890              	.LBB274:
 2891              	.LBB273:
 2892              	.LBB272:
 593:/home/tienluong/workspace/atlantis_fw/AsicFwS2/include/matrix.h **** 
 2893              		.loc 1 593 0
 2894 0006 0446     		mov	r4, r0
 2895 0008 0FCD     		ldmia	r5!, {r0, r1, r2, r3}
 2896              	.LVL443:
 2897 000a 0FC4     		stmia	r4!, {r0, r1, r2, r3}
 2898              	.LVL444:
 2899 000c 0FCD     		ldmia	r5!, {r0, r1, r2, r3}
 2900              	.LVL445:
 2901 000e 0FC4     		stmia	r4!, {r0, r1, r2, r3}
 2902 0010 0FCD     		ldmia	r5!, {r0, r1, r2, r3}
 2903              	.LVL446:
 2904 0012 0FC4     		stmia	r4!, {r0, r1, r2, r3}
 2905 0014 95E80F00 		ldmia	r5, {r0, r1, r2, r3}
 2906 0018 84E80F00 		stmia	r4, {r0, r1, r2, r3}
 2907              	.LVL447:
 2908              	.LBE272:
 2909              	.LBE273:
1251:/home/tienluong/workspace/atlantis_fw/AsicFwS2/include/matrix.h ****     return rval;
 2910              		.loc 1 1251 0
 2911 001c 01A8     		add	r0, sp, #4
 2912 001e 3146     		mov	r1, r6
 2913 0020 024B     		ldr	r3, .L78
 2914 0022 9847     		blx	r3
 2915              	.LVL448:
 2916              	.LBE274:
1253:/home/tienluong/workspace/atlantis_fw/AsicFwS2/include/matrix.h **** 
 2917              		.loc 1 1253 0
 2918 0024 3046     		mov	r0, r6
 2919 0026 02B0     		add	sp, sp, #8
 2920              	.LCFI26:
 2921              		.cfi_def_cfa_offset 16
 2922              		@ sp needed
 2923 0028 70BD     		pop	{r4, r5, r6, pc}
 2924              	.LVL449:
 2925              	.L79:
 2926 002a 00BF     		.align	2
 2927              	.L78:
 2928 002c 00000000 		.word	_ZNK4ltaf20SquareMatrixInverterIfLi4EE3runEPf
 2929              		.cfi_endproc
 2930              	.LFE3910:
 2932              		.global	__aeabi_ddiv
 2933              		.section	.text._ZNK4ltaf20SquareMatrixInverterIdLi2EE3runEPd,"axG",%progbits,_ZNK4ltaf20SquareMatr
 2934              		.align	1
 2935              		.weak	_ZNK4ltaf20SquareMatrixInverterIdLi2EE3runEPd
 2936              		.thumb
 2937              		.thumb_func
 2939              	_ZNK4ltaf20SquareMatrixInverterIdLi2EE3runEPd:
 2940              	.LFB4067:
1121:/home/tienluong/workspace/atlantis_fw/AsicFwS2/include/matrix.h ****     {
 2941              		.loc 1 1121 0
 2942              		.cfi_startproc
 2943              		@ args = 0, pretend = 0, frame = 48
 2944              		@ frame_needed = 0, uses_anonymous_args = 0
 2945              	.LVL450:
 2946 0000 2DE9F04F 		push	{r4, r5, r6, r7, r8, r9, r10, fp, lr}
 2947              	.LCFI27:
 2948              		.cfi_def_cfa_offset 36
 2949              		.cfi_offset 4, -36
 2950              		.cfi_offset 5, -32
 2951              		.cfi_offset 6, -28
 2952              		.cfi_offset 7, -24
 2953              		.cfi_offset 8, -20
 2954              		.cfi_offset 9, -16
 2955              		.cfi_offset 10, -12
 2956              		.cfi_offset 11, -8
 2957              		.cfi_offset 14, -4
 2958 0004 8DB0     		sub	sp, sp, #52
 2959              	.LCFI28:
 2960              		.cfi_def_cfa_offset 88
 2961              	.LBB275:
1123:/home/tienluong/workspace/atlantis_fw/AsicFwS2/include/matrix.h **** 
 2962              		.loc 1 1123 0
 2963 0006 D1E90023 		ldrd	r2, [r1]
 2964              	.LBE275:
1121:/home/tienluong/workspace/atlantis_fw/AsicFwS2/include/matrix.h ****     {
 2965              		.loc 1 1121 0
 2966 000a 0C46     		mov	r4, r1
 2967              	.LBB277:
1123:/home/tienluong/workspace/atlantis_fw/AsicFwS2/include/matrix.h **** 
 2968              		.loc 1 1123 0
 2969 000c CDE90023 		strd	r2, [sp]
 2970 0010 D1F808B0 		ldr	fp, [r1, #8]
 2971 0014 D1E90623 		ldrd	r2, [r1, #24]
 2972 0018 CF68     		ldr	r7, [r1, #12]
 2973 001a D1F810A0 		ldr	r10, [r1, #16]
 2974 001e 4E69     		ldr	r6, [r1, #20]
 2975              	.LVL451:
 2976 0020 1F4D     		ldr	r5, .L83
 2977 0022 DDE90001 		ldrd	r0, [sp]
 2978              	.LVL452:
 2979 0026 CDE90223 		strd	r2, [sp, #8]
 2980              	.LVL453:
 2981 002a A847     		blx	r5
 2982              	.LVL454:
 2983 002c 3346     		mov	r3, r6
 2984 002e 5246     		mov	r2, r10
1130:/home/tienluong/workspace/atlantis_fw/AsicFwS2/include/matrix.h ****         tmp[3] = mat[0];
 2985              		.loc 1 1130 0
 2986 0030 06F10046 		add	r6, r6, #-2147483648
1123:/home/tienluong/workspace/atlantis_fw/AsicFwS2/include/matrix.h **** 
 2987              		.loc 1 1123 0
 2988 0034 8046     		mov	r8, r0
 2989 0036 8946     		mov	r9, r1
 2990 0038 5846     		mov	r0, fp
 2991 003a 3946     		mov	r1, r7
 2992 003c A847     		blx	r5
 2993              	.LVL455:
 2994 003e DFF868C0 		ldr	ip, .L83+8
1129:/home/tienluong/workspace/atlantis_fw/AsicFwS2/include/matrix.h ****         tmp[2] = -mat[2];
 2995              		.loc 1 1129 0
 2996 0042 07F10047 		add	r7, r7, #-2147483648
1123:/home/tienluong/workspace/atlantis_fw/AsicFwS2/include/matrix.h **** 
 2997              		.loc 1 1123 0
 2998 0046 0246     		mov	r2, r0
 2999 0048 0B46     		mov	r3, r1
 3000 004a 4046     		mov	r0, r8
 3001 004c 4946     		mov	r1, r9
 3002 004e E047     		blx	ip
 3003              	.LVL456:
1125:/home/tienluong/workspace/atlantis_fw/AsicFwS2/include/matrix.h **** 
 3004              		.loc 1 1125 0
 3005 0050 DFF858C0 		ldr	ip, .L83+12
1123:/home/tienluong/workspace/atlantis_fw/AsicFwS2/include/matrix.h **** 
 3006              		.loc 1 1123 0
 3007 0054 0246     		mov	r2, r0
 3008 0056 0B46     		mov	r3, r1
1125:/home/tienluong/workspace/atlantis_fw/AsicFwS2/include/matrix.h **** 
 3009              		.loc 1 1125 0
 3010 0058 0020     		movs	r0, #0
 3011 005a 1249     		ldr	r1, .L83+4
 3012 005c E047     		blx	ip
 3013              	.LVL457:
1128:/home/tienluong/workspace/atlantis_fw/AsicFwS2/include/matrix.h ****         tmp[1] = -mat[1];
 3014              		.loc 1 1128 0
 3015 005e DDE90223 		ldrd	r2, [sp, #8]
1129:/home/tienluong/workspace/atlantis_fw/AsicFwS2/include/matrix.h ****         tmp[2] = -mat[2];
 3016              		.loc 1 1129 0
 3017 0062 0797     		str	r7, [sp, #28]
 3018 0064 02AF     		add	r7, sp, #8
1130:/home/tienluong/workspace/atlantis_fw/AsicFwS2/include/matrix.h ****         tmp[3] = mat[0];
 3019              		.loc 1 1130 0
 3020 0066 0996     		str	r6, [sp, #36]
 3021 0068 A4F10806 		sub	r6, r4, #8
 3022 006c 1834     		adds	r4, r4, #24
 3023              	.LVL458:
1128:/home/tienluong/workspace/atlantis_fw/AsicFwS2/include/matrix.h ****         tmp[1] = -mat[1];
 3024              		.loc 1 1128 0
 3025 006e CDE90423 		strd	r2, [sp, #16]
1131:/home/tienluong/workspace/atlantis_fw/AsicFwS2/include/matrix.h **** 
 3026              		.loc 1 1131 0
 3027 0072 DDE90023 		ldrd	r2, [sp]
1129:/home/tienluong/workspace/atlantis_fw/AsicFwS2/include/matrix.h ****         tmp[2] = -mat[2];
 3028              		.loc 1 1129 0
 3029 0076 CDF818B0 		str	fp, [sp, #24]
1130:/home/tienluong/workspace/atlantis_fw/AsicFwS2/include/matrix.h ****         tmp[3] = mat[0];
 3030              		.loc 1 1130 0
 3031 007a CDF820A0 		str	r10, [sp, #32]
1131:/home/tienluong/workspace/atlantis_fw/AsicFwS2/include/matrix.h **** 
 3032              		.loc 1 1131 0
 3033 007e CDE90A23 		strd	r2, [sp, #40]
1125:/home/tienluong/workspace/atlantis_fw/AsicFwS2/include/matrix.h **** 
 3034              		.loc 1 1125 0
 3035 0082 8046     		mov	r8, r0
 3036 0084 8946     		mov	r9, r1
 3037              	.LVL459:
 3038              	.L81:
 3039              	.LBB276:
1133:/home/tienluong/workspace/atlantis_fw/AsicFwS2/include/matrix.h ****     }
 3040              		.loc 1 1133 0 discriminator 3
 3041 0086 F7E90201 		ldrd	r0, [r7, #8]!
 3042 008a 4246     		mov	r2, r8
 3043 008c 4B46     		mov	r3, r9
 3044 008e A847     		blx	r5
 3045              	.LVL460:
 3046 0090 E6E90201 		strd	r0, [r6, #8]!
 3047 0094 A642     		cmp	r6, r4
 3048 0096 F6D1     		bne	.L81
 3049              	.LBE276:
 3050              	.LBE277:
1134:/home/tienluong/workspace/atlantis_fw/AsicFwS2/include/matrix.h **** };
 3051              		.loc 1 1134 0
 3052 0098 0DB0     		add	sp, sp, #52
 3053              	.LCFI29:
 3054              		.cfi_def_cfa_offset 36
 3055              		@ sp needed
 3056 009a BDE8F08F 		pop	{r4, r5, r6, r7, r8, r9, r10, fp, pc}
 3057              	.LVL461:
 3058              	.L84:
 3059 009e 00BF     		.align	2
 3060              	.L83:
 3061 00a0 00000000 		.word	__aeabi_dmul
 3062 00a4 0000F03F 		.word	1072693248
 3063 00a8 00000000 		.word	__aeabi_dsub
 3064 00ac 00000000 		.word	__aeabi_ddiv
 3065              		.cfi_endproc
 3066              	.LFE4067:
 3068              		.section	.text._ZN4ltaf7inverseIdLi2ELb1EEENS_6MatrixIT_XT0_EXT0_EXT1_EEERKS3_,"axG",%progbits,_ZN
 3069              		.align	1
 3070              		.weak	_ZN4ltaf7inverseIdLi2ELb1EEENS_6MatrixIT_XT0_EXT0_EXT1_EEERKS3_
 3071              		.thumb
 3072              		.thumb_func
 3074              	_ZN4ltaf7inverseIdLi2ELb1EEENS_6MatrixIT_XT0_EXT0_EXT1_EEERKS3_:
 3075              	.LFB3911:
1247:/home/tienluong/workspace/atlantis_fw/AsicFwS2/include/matrix.h **** {
 3076              		.loc 1 1247 0
 3077              		.cfi_startproc
 3078              		@ args = 0, pretend = 0, frame = 8
 3079              		@ frame_needed = 0, uses_anonymous_args = 0
 3080              	.LVL462:
 3081 0000 73B5     		push	{r0, r1, r4, r5, r6, lr}
 3082              	.LCFI30:
 3083              		.cfi_def_cfa_offset 24
 3084              		.cfi_offset 4, -16
 3085              		.cfi_offset 5, -12
 3086              		.cfi_offset 6, -8
 3087              		.cfi_offset 14, -4
 3088              	.LBB284:
 3089              	.LBB285:
 3090              	.LBB286:
 591:/home/tienluong/workspace/atlantis_fw/AsicFwS2/include/matrix.h **** 
 3091              		.loc 1 591 0
 3092 0002 0D46     		mov	r5, r1
 3093              	.LBE286:
 3094              	.LBE285:
 3095              	.LBE284:
1247:/home/tienluong/workspace/atlantis_fw/AsicFwS2/include/matrix.h **** {
 3096              		.loc 1 1247 0
 3097 0004 0646     		mov	r6, r0
 3098              	.LBB289:
 3099              	.LBB288:
 3100              	.LBB287:
 591:/home/tienluong/workspace/atlantis_fw/AsicFwS2/include/matrix.h **** 
 3101              		.loc 1 591 0
 3102 0006 0446     		mov	r4, r0
 3103 0008 0FCD     		ldmia	r5!, {r0, r1, r2, r3}
 3104              	.LVL463:
 3105 000a 0FC4     		stmia	r4!, {r0, r1, r2, r3}
 3106              	.LVL464:
 3107 000c 95E80F00 		ldmia	r5, {r0, r1, r2, r3}
 3108 0010 84E80F00 		stmia	r4, {r0, r1, r2, r3}
 3109              	.LVL465:
 3110              	.LBE287:
 3111              	.LBE288:
1251:/home/tienluong/workspace/atlantis_fw/AsicFwS2/include/matrix.h ****     return rval;
 3112              		.loc 1 1251 0
 3113 0014 01A8     		add	r0, sp, #4
 3114 0016 3146     		mov	r1, r6
 3115 0018 024B     		ldr	r3, .L86
 3116 001a 9847     		blx	r3
 3117              	.LVL466:
 3118              	.LBE289:
1253:/home/tienluong/workspace/atlantis_fw/AsicFwS2/include/matrix.h **** 
 3119              		.loc 1 1253 0
 3120 001c 3046     		mov	r0, r6
 3121 001e 02B0     		add	sp, sp, #8
 3122              	.LCFI31:
 3123              		.cfi_def_cfa_offset 16
 3124              		@ sp needed
 3125 0020 70BD     		pop	{r4, r5, r6, pc}
 3126              	.LVL467:
 3127              	.L87:
 3128 0022 00BF     		.align	2
 3129              	.L86:
 3130 0024 00000000 		.word	_ZNK4ltaf20SquareMatrixInverterIdLi2EE3runEPd
 3131              		.cfi_endproc
 3132              	.LFE3911:
 3134              		.section	.text._ZN4ltaf7inverseIdLi2ELb0EEENS_6MatrixIT_XT0_EXT0_EXT1_EEERKS3_,"axG",%progbits,_ZN
 3135              		.align	1
 3136              		.weak	_ZN4ltaf7inverseIdLi2ELb0EEENS_6MatrixIT_XT0_EXT0_EXT1_EEERKS3_
 3137              		.thumb
 3138              		.thumb_func
 3140              	_ZN4ltaf7inverseIdLi2ELb0EEENS_6MatrixIT_XT0_EXT0_EXT1_EEERKS3_:
 3141              	.LFB3914:
1247:/home/tienluong/workspace/atlantis_fw/AsicFwS2/include/matrix.h **** {
 3142              		.loc 1 1247 0
 3143              		.cfi_startproc
 3144              		@ args = 0, pretend = 0, frame = 8
 3145              		@ frame_needed = 0, uses_anonymous_args = 0
 3146              	.LVL468:
 3147 0000 73B5     		push	{r0, r1, r4, r5, r6, lr}
 3148              	.LCFI32:
 3149              		.cfi_def_cfa_offset 24
 3150              		.cfi_offset 4, -16
 3151              		.cfi_offset 5, -12
 3152              		.cfi_offset 6, -8
 3153              		.cfi_offset 14, -4
 3154              	.LBB296:
 3155              	.LBB297:
 3156              	.LBB298:
 593:/home/tienluong/workspace/atlantis_fw/AsicFwS2/include/matrix.h **** 
 3157              		.loc 1 593 0
 3158 0002 0D46     		mov	r5, r1
 3159              	.LBE298:
 3160              	.LBE297:
 3161              	.LBE296:
1247:/home/tienluong/workspace/atlantis_fw/AsicFwS2/include/matrix.h **** {
 3162              		.loc 1 1247 0
 3163 0004 0646     		mov	r6, r0
 3164              	.LBB301:
 3165              	.LBB300:
 3166              	.LBB299:
 593:/home/tienluong/workspace/atlantis_fw/AsicFwS2/include/matrix.h **** 
 3167              		.loc 1 593 0
 3168 0006 0446     		mov	r4, r0
 3169 0008 0FCD     		ldmia	r5!, {r0, r1, r2, r3}
 3170              	.LVL469:
 3171 000a 0FC4     		stmia	r4!, {r0, r1, r2, r3}
 3172              	.LVL470:
 3173 000c 95E80F00 		ldmia	r5, {r0, r1, r2, r3}
 3174 0010 84E80F00 		stmia	r4, {r0, r1, r2, r3}
 3175              	.LVL471:
 3176              	.LBE299:
 3177              	.LBE300:
1251:/home/tienluong/workspace/atlantis_fw/AsicFwS2/include/matrix.h ****     return rval;
 3178              		.loc 1 1251 0
 3179 0014 01A8     		add	r0, sp, #4
 3180 0016 3146     		mov	r1, r6
 3181 0018 024B     		ldr	r3, .L89
 3182 001a 9847     		blx	r3
 3183              	.LVL472:
 3184              	.LBE301:
1253:/home/tienluong/workspace/atlantis_fw/AsicFwS2/include/matrix.h **** 
 3185              		.loc 1 1253 0
 3186 001c 3046     		mov	r0, r6
 3187 001e 02B0     		add	sp, sp, #8
 3188              	.LCFI33:
 3189              		.cfi_def_cfa_offset 16
 3190              		@ sp needed
 3191 0020 70BD     		pop	{r4, r5, r6, pc}
 3192              	.LVL473:
 3193              	.L90:
 3194 0022 00BF     		.align	2
 3195              	.L89:
 3196 0024 00000000 		.word	_ZNK4ltaf20SquareMatrixInverterIdLi2EE3runEPd
 3197              		.cfi_endproc
 3198              	.LFE3914:
 3200              		.global	__aeabi_dadd
 3201              		.section	.text._ZNK4ltaf20SquareMatrixInverterIdLi3EE3runEPd,"axG",%progbits,_ZNK4ltaf20SquareMatr
 3202              		.align	1
 3203              		.weak	_ZNK4ltaf20SquareMatrixInverterIdLi3EE3runEPd
 3204              		.thumb
 3205              		.thumb_func
 3207              	_ZNK4ltaf20SquareMatrixInverterIdLi3EE3runEPd:
 3208              	.LFB4072:
1140:/home/tienluong/workspace/atlantis_fw/AsicFwS2/include/matrix.h ****     {
 3209              		.loc 1 1140 0
 3210              		.cfi_startproc
 3211              		@ args = 0, pretend = 0, frame = 168
 3212              		@ frame_needed = 0, uses_anonymous_args = 0
 3213              	.LVL474:
 3214 0000 2DE9F04F 		push	{r4, r5, r6, r7, r8, r9, r10, fp, lr}
 3215              	.LCFI34:
 3216              		.cfi_def_cfa_offset 36
 3217              		.cfi_offset 4, -36
 3218              		.cfi_offset 5, -32
 3219              		.cfi_offset 6, -28
 3220              		.cfi_offset 7, -24
 3221              		.cfi_offset 8, -20
 3222              		.cfi_offset 9, -16
 3223              		.cfi_offset 10, -12
 3224              		.cfi_offset 11, -8
 3225              		.cfi_offset 14, -4
 3226 0004 ABB0     		sub	sp, sp, #172
 3227              	.LCFI35:
 3228              		.cfi_def_cfa_offset 208
 3229              	.LBB302:
1142:/home/tienluong/workspace/atlantis_fw/AsicFwS2/include/matrix.h ****                       - mat[1] * ( mat[3] * mat[8] - mat[5] * mat[6] )
 3230              		.loc 1 1142 0
 3231 0006 D1E90023 		ldrd	r2, [r1]
 3232              	.LBE302:
1140:/home/tienluong/workspace/atlantis_fw/AsicFwS2/include/matrix.h ****     {
 3233              		.loc 1 1140 0
 3234 000a 0D46     		mov	r5, r1
 3235              	.LBB304:
1142:/home/tienluong/workspace/atlantis_fw/AsicFwS2/include/matrix.h ****                       - mat[1] * ( mat[3] * mat[8] - mat[5] * mat[6] )
 3236              		.loc 1 1142 0
 3237 000c CDE90023 		strd	r2, [sp]
 3238 0010 D1E90823 		ldrd	r2, [r1, #32]
 3239 0014 CDE90423 		strd	r2, [sp, #16]
 3240 0018 D1E91023 		ldrd	r2, [r1, #64]
 3241 001c CDE90623 		strd	r2, [sp, #24]
 3242 0020 D1E90E23 		ldrd	r2, [r1, #56]
 3243 0024 CDE90823 		strd	r2, [sp, #32]
 3244 0028 D1E90A23 		ldrd	r2, [r1, #40]
1144:/home/tienluong/workspace/atlantis_fw/AsicFwS2/include/matrix.h **** 
 3245              		.loc 1 1144 0
 3246 002c 834C     		ldr	r4, .L94
1142:/home/tienluong/workspace/atlantis_fw/AsicFwS2/include/matrix.h ****                       - mat[1] * ( mat[3] * mat[8] - mat[5] * mat[6] )
 3247              		.loc 1 1142 0
 3248 002e CDE90A23 		strd	r2, [sp, #40]
1144:/home/tienluong/workspace/atlantis_fw/AsicFwS2/include/matrix.h **** 
 3249              		.loc 1 1144 0
 3250 0032 DDE90401 		ldrd	r0, [sp, #16]
 3251              	.LVL475:
 3252 0036 DDE90623 		ldrd	r2, [sp, #24]
 3253 003a A047     		blx	r4
 3254              	.LVL476:
 3255 003c DDE90A23 		ldrd	r2, [sp, #40]
 3256 0040 7F4E     		ldr	r6, .L94+4
 3257 0042 8046     		mov	r8, r0
 3258 0044 8946     		mov	r9, r1
 3259 0046 DDE90801 		ldrd	r0, [sp, #32]
 3260 004a A047     		blx	r4
 3261              	.LVL477:
 3262 004c 0246     		mov	r2, r0
 3263 004e 0B46     		mov	r3, r1
 3264 0050 4046     		mov	r0, r8
 3265 0052 4946     		mov	r1, r9
 3266 0054 B047     		blx	r6
 3267              	.LVL478:
1143:/home/tienluong/workspace/atlantis_fw/AsicFwS2/include/matrix.h ****                       + mat[2] * ( mat[3] * mat[7] - mat[4] * mat[6] );
 3268              		.loc 1 1143 0
 3269 0056 D5E90623 		ldrd	r2, [r5, #24]
 3270 005a CDE90C23 		strd	r2, [sp, #48]
 3271 005e D5E90C23 		ldrd	r2, [r5, #48]
 3272 0062 CDE90E23 		strd	r2, [sp, #56]
1144:/home/tienluong/workspace/atlantis_fw/AsicFwS2/include/matrix.h **** 
 3273              		.loc 1 1144 0
 3274 0066 DDE90623 		ldrd	r2, [sp, #24]
1143:/home/tienluong/workspace/atlantis_fw/AsicFwS2/include/matrix.h ****                       + mat[2] * ( mat[3] * mat[7] - mat[4] * mat[6] );
 3275              		.loc 1 1143 0
 3276 006a D5E902AB 		ldrd	r10, [r5, #8]
1144:/home/tienluong/workspace/atlantis_fw/AsicFwS2/include/matrix.h **** 
 3277              		.loc 1 1144 0
 3278 006e CDE91001 		strd	r0, [sp, #64]
 3279 0072 DDE90C01 		ldrd	r0, [sp, #48]
 3280 0076 A047     		blx	r4
 3281              	.LVL479:
 3282 0078 DDE90E23 		ldrd	r2, [sp, #56]
 3283 007c 8046     		mov	r8, r0
 3284 007e 8946     		mov	r9, r1
 3285 0080 DDE90A01 		ldrd	r0, [sp, #40]
 3286 0084 A047     		blx	r4
 3287              	.LVL480:
 3288 0086 0246     		mov	r2, r0
 3289 0088 0B46     		mov	r3, r1
 3290 008a 4046     		mov	r0, r8
 3291 008c 4946     		mov	r1, r9
 3292 008e B047     		blx	r6
 3293              	.LVL481:
 3294 0090 D5E90423 		ldrd	r2, [r5, #16]
 3295 0094 CDE90223 		strd	r2, [sp, #8]
 3296 0098 DDE90823 		ldrd	r2, [sp, #32]
 3297 009c 0746     		mov	r7, r0
 3298 009e 1591     		str	r1, [sp, #84]
 3299 00a0 DDE90C01 		ldrd	r0, [sp, #48]
 3300 00a4 A047     		blx	r4
 3301              	.LVL482:
 3302 00a6 DDE90E23 		ldrd	r2, [sp, #56]
 3303 00aa 8046     		mov	r8, r0
 3304 00ac 8946     		mov	r9, r1
 3305 00ae DDE90401 		ldrd	r0, [sp, #16]
 3306 00b2 A047     		blx	r4
 3307              	.LVL483:
 3308 00b4 0246     		mov	r2, r0
 3309 00b6 0B46     		mov	r3, r1
 3310 00b8 4046     		mov	r0, r8
 3311 00ba 4946     		mov	r1, r9
 3312 00bc B047     		blx	r6
 3313              	.LVL484:
 3314 00be DDE91023 		ldrd	r2, [sp, #64]
 3315 00c2 CDE91201 		strd	r0, [sp, #72]
 3316              	.LVL485:
 3317 00c6 DDE90001 		ldrd	r0, [sp]
 3318              	.LVL486:
 3319 00ca A047     		blx	r4
 3320              	.LVL487:
 3321 00cc 3A46     		mov	r2, r7
 3322 00ce 159B     		ldr	r3, [sp, #84]
 3323 00d0 8046     		mov	r8, r0
 3324 00d2 8946     		mov	r9, r1
 3325 00d4 5046     		mov	r0, r10
 3326 00d6 5946     		mov	r1, fp
 3327 00d8 A047     		blx	r4
 3328              	.LVL488:
 3329 00da 0246     		mov	r2, r0
 3330 00dc 0B46     		mov	r3, r1
 3331 00de 4046     		mov	r0, r8
 3332 00e0 4946     		mov	r1, r9
 3333 00e2 B047     		blx	r6
 3334              	.LVL489:
 3335 00e4 DDE91223 		ldrd	r2, [sp, #72]
 3336 00e8 8046     		mov	r8, r0
 3337 00ea 8946     		mov	r9, r1
 3338 00ec DDE90201 		ldrd	r0, [sp, #8]
 3339 00f0 A047     		blx	r4
 3340              	.LVL490:
 3341 00f2 DFF854C1 		ldr	ip, .L94+12
 3342 00f6 0246     		mov	r2, r0
 3343 00f8 0B46     		mov	r3, r1
 3344 00fa 4046     		mov	r0, r8
 3345 00fc 4946     		mov	r1, r9
 3346 00fe E047     		blx	ip
 3347              	.LVL491:
1146:/home/tienluong/workspace/atlantis_fw/AsicFwS2/include/matrix.h **** 
 3348              		.loc 1 1146 0
 3349 0100 DFF848C1 		ldr	ip, .L94+16
1144:/home/tienluong/workspace/atlantis_fw/AsicFwS2/include/matrix.h **** 
 3350              		.loc 1 1144 0
 3351 0104 0246     		mov	r2, r0
 3352 0106 0B46     		mov	r3, r1
1146:/home/tienluong/workspace/atlantis_fw/AsicFwS2/include/matrix.h **** 
 3353              		.loc 1 1146 0
 3354 0108 0020     		movs	r0, #0
 3355 010a 4E49     		ldr	r1, .L94+8
 3356 010c E047     		blx	ip
 3357              	.LVL492:
1149:/home/tienluong/workspace/atlantis_fw/AsicFwS2/include/matrix.h ****         tmp[1] = -( mat[1] * mat[8] - mat[2] * mat[7] );
 3358              		.loc 1 1149 0
 3359 010e DDE91023 		ldrd	r2, [sp, #64]
 3360 0112 CDE91823 		strd	r2, [sp, #96]
1150:/home/tienluong/workspace/atlantis_fw/AsicFwS2/include/matrix.h ****         tmp[2] =  mat[1] * mat[5] - mat[2] * mat[4];
 3361              		.loc 1 1150 0
 3362 0116 DDE90623 		ldrd	r2, [sp, #24]
1146:/home/tienluong/workspace/atlantis_fw/AsicFwS2/include/matrix.h **** 
 3363              		.loc 1 1146 0
 3364 011a CDE91601 		strd	r0, [sp, #88]
 3365              	.LVL493:
1150:/home/tienluong/workspace/atlantis_fw/AsicFwS2/include/matrix.h ****         tmp[2] =  mat[1] * mat[5] - mat[2] * mat[4];
 3366              		.loc 1 1150 0
 3367 011e 5046     		mov	r0, r10
 3368              	.LVL494:
 3369 0120 5946     		mov	r1, fp
 3370 0122 A047     		blx	r4
 3371              	.LVL495:
 3372 0124 DDE90823 		ldrd	r2, [sp, #32]
 3373 0128 8046     		mov	r8, r0
 3374 012a 8946     		mov	r9, r1
 3375 012c DDE90201 		ldrd	r0, [sp, #8]
 3376 0130 A047     		blx	r4
 3377              	.LVL496:
 3378 0132 0246     		mov	r2, r0
 3379 0134 0B46     		mov	r3, r1
 3380 0136 4046     		mov	r0, r8
 3381 0138 4946     		mov	r1, r9
 3382 013a B047     		blx	r6
 3383              	.LVL497:
1151:/home/tienluong/workspace/atlantis_fw/AsicFwS2/include/matrix.h ****         tmp[3] = -( mat[3] * mat[8] - mat[5] * mat[6] );
 3384              		.loc 1 1151 0
 3385 013c DDE90A23 		ldrd	r2, [sp, #40]
1150:/home/tienluong/workspace/atlantis_fw/AsicFwS2/include/matrix.h ****         tmp[2] =  mat[1] * mat[5] - mat[2] * mat[4];
 3386              		.loc 1 1150 0
 3387 0140 01F10041 		add	r1, r1, #-2147483648
 3388 0144 1A90     		str	r0, [sp, #104]
1151:/home/tienluong/workspace/atlantis_fw/AsicFwS2/include/matrix.h ****         tmp[3] = -( mat[3] * mat[8] - mat[5] * mat[6] );
 3389              		.loc 1 1151 0
 3390 0146 5046     		mov	r0, r10
1150:/home/tienluong/workspace/atlantis_fw/AsicFwS2/include/matrix.h ****         tmp[2] =  mat[1] * mat[5] - mat[2] * mat[4];
 3391              		.loc 1 1150 0
 3392 0148 1B91     		str	r1, [sp, #108]
1151:/home/tienluong/workspace/atlantis_fw/AsicFwS2/include/matrix.h ****         tmp[3] = -( mat[3] * mat[8] - mat[5] * mat[6] );
 3393              		.loc 1 1151 0
 3394 014a 5946     		mov	r1, fp
 3395 014c A047     		blx	r4
 3396              	.LVL498:
 3397 014e DDE90423 		ldrd	r2, [sp, #16]
 3398 0152 8046     		mov	r8, r0
 3399 0154 8946     		mov	r9, r1
 3400 0156 DDE90201 		ldrd	r0, [sp, #8]
 3401 015a A047     		blx	r4
 3402              	.LVL499:
 3403 015c 0246     		mov	r2, r0
 3404 015e 0B46     		mov	r3, r1
 3405 0160 4046     		mov	r0, r8
 3406 0162 4946     		mov	r1, r9
 3407 0164 B047     		blx	r6
 3408              	.LVL500:
1152:/home/tienluong/workspace/atlantis_fw/AsicFwS2/include/matrix.h ****         tmp[4] =  mat[0] * mat[8] - mat[2] * mat[6];
 3409              		.loc 1 1152 0
 3410 0166 159B     		ldr	r3, [sp, #84]
 3411 0168 1E97     		str	r7, [sp, #120]
 3412 016a 16AF     		add	r7, sp, #88
 3413              	.LVL501:
1151:/home/tienluong/workspace/atlantis_fw/AsicFwS2/include/matrix.h ****         tmp[3] = -( mat[3] * mat[8] - mat[5] * mat[6] );
 3414              		.loc 1 1151 0
 3415 016c CDE91C01 		strd	r0, [sp, #112]
1152:/home/tienluong/workspace/atlantis_fw/AsicFwS2/include/matrix.h ****         tmp[4] =  mat[0] * mat[8] - mat[2] * mat[6];
 3416              		.loc 1 1152 0
 3417 0170 03F10041 		add	r1, r3, #-2147483648
1153:/home/tienluong/workspace/atlantis_fw/AsicFwS2/include/matrix.h ****         tmp[5] = -( mat[0] * mat[5] - mat[3] * mat[2] );
 3418              		.loc 1 1153 0
 3419 0174 DDE90623 		ldrd	r2, [sp, #24]
1152:/home/tienluong/workspace/atlantis_fw/AsicFwS2/include/matrix.h ****         tmp[4] =  mat[0] * mat[8] - mat[2] * mat[6];
 3420              		.loc 1 1152 0
 3421 0178 1F91     		str	r1, [sp, #124]
1153:/home/tienluong/workspace/atlantis_fw/AsicFwS2/include/matrix.h ****         tmp[5] = -( mat[0] * mat[5] - mat[3] * mat[2] );
 3422              		.loc 1 1153 0
 3423 017a DDE90001 		ldrd	r0, [sp]
 3424 017e A047     		blx	r4
 3425              	.LVL502:
 3426 0180 DDE90E23 		ldrd	r2, [sp, #56]
 3427 0184 8046     		mov	r8, r0
 3428 0186 8946     		mov	r9, r1
 3429 0188 DDE90201 		ldrd	r0, [sp, #8]
 3430 018c A047     		blx	r4
 3431              	.LVL503:
 3432 018e 0246     		mov	r2, r0
 3433 0190 0B46     		mov	r3, r1
 3434 0192 4046     		mov	r0, r8
 3435 0194 4946     		mov	r1, r9
 3436 0196 B047     		blx	r6
 3437              	.LVL504:
1154:/home/tienluong/workspace/atlantis_fw/AsicFwS2/include/matrix.h ****         tmp[6] =  mat[3] * mat[7] - mat[6] * mat[ 4];
 3438              		.loc 1 1154 0
 3439 0198 DDE90A23 		ldrd	r2, [sp, #40]
1153:/home/tienluong/workspace/atlantis_fw/AsicFwS2/include/matrix.h ****         tmp[5] = -( mat[0] * mat[5] - mat[3] * mat[2] );
 3440              		.loc 1 1153 0
 3441 019c CDE92001 		strd	r0, [sp, #128]
1154:/home/tienluong/workspace/atlantis_fw/AsicFwS2/include/matrix.h ****         tmp[6] =  mat[3] * mat[7] - mat[6] * mat[ 4];
 3442              		.loc 1 1154 0
 3443 01a0 DDE90001 		ldrd	r0, [sp]
 3444 01a4 A047     		blx	r4
 3445              	.LVL505:
 3446 01a6 DDE90223 		ldrd	r2, [sp, #8]
 3447 01aa 8046     		mov	r8, r0
 3448 01ac 8946     		mov	r9, r1
 3449 01ae DDE90C01 		ldrd	r0, [sp, #48]
 3450 01b2 A047     		blx	r4
 3451              	.LVL506:
 3452 01b4 0246     		mov	r2, r0
 3453 01b6 0B46     		mov	r3, r1
 3454 01b8 4046     		mov	r0, r8
 3455 01ba 4946     		mov	r1, r9
 3456 01bc B047     		blx	r6
 3457              	.LVL507:
1155:/home/tienluong/workspace/atlantis_fw/AsicFwS2/include/matrix.h ****         tmp[7] = -( mat[0] * mat[7] - mat[6] * mat[1] );
 3458              		.loc 1 1155 0
 3459 01be DDE91223 		ldrd	r2, [sp, #72]
 3460 01c2 CDE92423 		strd	r2, [sp, #144]
1156:/home/tienluong/workspace/atlantis_fw/AsicFwS2/include/matrix.h ****         tmp[8] =  mat[0] * mat[4] - mat[3] * mat[1];
 3461              		.loc 1 1156 0
 3462 01c6 DDE90823 		ldrd	r2, [sp, #32]
1154:/home/tienluong/workspace/atlantis_fw/AsicFwS2/include/matrix.h ****         tmp[6] =  mat[3] * mat[7] - mat[6] * mat[ 4];
 3463              		.loc 1 1154 0
 3464 01ca 01F10041 		add	r1, r1, #-2147483648
 3465 01ce 2290     		str	r0, [sp, #136]
 3466 01d0 2391     		str	r1, [sp, #140]
1156:/home/tienluong/workspace/atlantis_fw/AsicFwS2/include/matrix.h ****         tmp[8] =  mat[0] * mat[4] - mat[3] * mat[1];
 3467              		.loc 1 1156 0
 3468 01d2 DDE90001 		ldrd	r0, [sp]
 3469 01d6 A047     		blx	r4
 3470              	.LVL508:
 3471 01d8 5246     		mov	r2, r10
 3472 01da 5B46     		mov	r3, fp
 3473 01dc 8046     		mov	r8, r0
 3474 01de 8946     		mov	r9, r1
 3475 01e0 DDE90E01 		ldrd	r0, [sp, #56]
 3476 01e4 A047     		blx	r4
 3477              	.LVL509:
 3478 01e6 0246     		mov	r2, r0
 3479 01e8 0B46     		mov	r3, r1
 3480 01ea 4046     		mov	r0, r8
 3481 01ec 4946     		mov	r1, r9
 3482 01ee B047     		blx	r6
 3483              	.LVL510:
1157:/home/tienluong/workspace/atlantis_fw/AsicFwS2/include/matrix.h **** 
 3484              		.loc 1 1157 0
 3485 01f0 DDE90423 		ldrd	r2, [sp, #16]
1156:/home/tienluong/workspace/atlantis_fw/AsicFwS2/include/matrix.h ****         tmp[8] =  mat[0] * mat[4] - mat[3] * mat[1];
 3486              		.loc 1 1156 0
 3487 01f4 01F10041 		add	r1, r1, #-2147483648
 3488 01f8 2690     		str	r0, [sp, #152]
 3489 01fa 2791     		str	r1, [sp, #156]
1157:/home/tienluong/workspace/atlantis_fw/AsicFwS2/include/matrix.h **** 
 3490              		.loc 1 1157 0
 3491 01fc DDE90001 		ldrd	r0, [sp]
 3492 0200 A047     		blx	r4
 3493              	.LVL511:
 3494 0202 5246     		mov	r2, r10
 3495 0204 5B46     		mov	r3, fp
 3496 0206 8046     		mov	r8, r0
 3497 0208 8946     		mov	r9, r1
 3498 020a DDE90C01 		ldrd	r0, [sp, #48]
 3499 020e A047     		blx	r4
 3500              	.LVL512:
 3501 0210 0246     		mov	r2, r0
 3502 0212 0B46     		mov	r3, r1
 3503 0214 4046     		mov	r0, r8
 3504 0216 4946     		mov	r1, r9
 3505 0218 B047     		blx	r6
 3506              	.LVL513:
 3507 021a A5F10806 		sub	r6, r5, #8
 3508 021e 4035     		adds	r5, r5, #64
 3509              	.LVL514:
 3510 0220 CDE92801 		strd	r0, [sp, #160]
 3511              	.LVL515:
 3512              	.L92:
 3513              	.LBB303:
1159:/home/tienluong/workspace/atlantis_fw/AsicFwS2/include/matrix.h ****     }
 3514              		.loc 1 1159 0 discriminator 3
 3515 0224 F7E90201 		ldrd	r0, [r7, #8]!
 3516 0228 DDE91623 		ldrd	r2, [sp, #88]
 3517 022c A047     		blx	r4
 3518              	.LVL516:
 3519 022e E6E90201 		strd	r0, [r6, #8]!
 3520 0232 AE42     		cmp	r6, r5
 3521 0234 F6D1     		bne	.L92
 3522              	.LBE303:
 3523              	.LBE304:
1160:/home/tienluong/workspace/atlantis_fw/AsicFwS2/include/matrix.h **** };
 3524              		.loc 1 1160 0
 3525 0236 2BB0     		add	sp, sp, #172
 3526              	.LCFI36:
 3527              		.cfi_def_cfa_offset 36
 3528              		@ sp needed
 3529 0238 BDE8F08F 		pop	{r4, r5, r6, r7, r8, r9, r10, fp, pc}
 3530              	.LVL517:
 3531              	.L95:
 3532              		.align	2
 3533              	.L94:
 3534 023c 00000000 		.word	__aeabi_dmul
 3535 0240 00000000 		.word	__aeabi_dsub
 3536 0244 0000F03F 		.word	1072693248
 3537 0248 00000000 		.word	__aeabi_dadd
 3538 024c 00000000 		.word	__aeabi_ddiv
 3539              		.cfi_endproc
 3540              	.LFE4072:
 3542              		.section	.text._ZN4ltaf7inverseIdLi3ELb1EEENS_6MatrixIT_XT0_EXT0_EXT1_EEERKS3_,"axG",%progbits,_ZN
 3543              		.align	1
 3544              		.weak	_ZN4ltaf7inverseIdLi3ELb1EEENS_6MatrixIT_XT0_EXT0_EXT1_EEERKS3_
 3545              		.thumb
 3546              		.thumb_func
 3548              	_ZN4ltaf7inverseIdLi3ELb1EEENS_6MatrixIT_XT0_EXT0_EXT1_EEERKS3_:
 3549              	.LFB3912:
1247:/home/tienluong/workspace/atlantis_fw/AsicFwS2/include/matrix.h **** {
 3550              		.loc 1 1247 0
 3551              		.cfi_startproc
 3552              		@ args = 0, pretend = 0, frame = 8
 3553              		@ frame_needed = 0, uses_anonymous_args = 0
 3554              	.LVL518:
 3555 0000 13B5     		push	{r0, r1, r4, lr}
 3556              	.LCFI37:
 3557              		.cfi_def_cfa_offset 16
 3558              		.cfi_offset 4, -8
 3559              		.cfi_offset 14, -4
 3560              	.LBB311:
 3561              	.LBB312:
 3562              	.LBB313:
 591:/home/tienluong/workspace/atlantis_fw/AsicFwS2/include/matrix.h **** 
 3563              		.loc 1 591 0
 3564 0002 4822     		movs	r2, #72
 3565              	.LBE313:
 3566              	.LBE312:
 3567              	.LBE311:
1247:/home/tienluong/workspace/atlantis_fw/AsicFwS2/include/matrix.h **** {
 3568              		.loc 1 1247 0
 3569 0004 0446     		mov	r4, r0
 3570              	.LVL519:
 3571              	.LBB316:
 3572              	.LBB315:
 3573              	.LBB314:
 591:/home/tienluong/workspace/atlantis_fw/AsicFwS2/include/matrix.h **** 
 3574              		.loc 1 591 0
 3575 0006 044B     		ldr	r3, .L97
 3576 0008 9847     		blx	r3
 3577              	.LVL520:
 3578              	.LBE314:
 3579              	.LBE315:
1251:/home/tienluong/workspace/atlantis_fw/AsicFwS2/include/matrix.h ****     return rval;
 3580              		.loc 1 1251 0
 3581 000a 01A8     		add	r0, sp, #4
 3582 000c 2146     		mov	r1, r4
 3583 000e 034B     		ldr	r3, .L97+4
 3584 0010 9847     		blx	r3
 3585              	.LVL521:
 3586              	.LBE316:
1253:/home/tienluong/workspace/atlantis_fw/AsicFwS2/include/matrix.h **** 
 3587              		.loc 1 1253 0
 3588 0012 2046     		mov	r0, r4
 3589 0014 02B0     		add	sp, sp, #8
 3590              	.LCFI38:
 3591              		.cfi_def_cfa_offset 8
 3592              		@ sp needed
 3593 0016 10BD     		pop	{r4, pc}
 3594              	.LVL522:
 3595              	.L98:
 3596              		.align	2
 3597              	.L97:
 3598 0018 00000000 		.word	memcpy
 3599 001c 00000000 		.word	_ZNK4ltaf20SquareMatrixInverterIdLi3EE3runEPd
 3600              		.cfi_endproc
 3601              	.LFE3912:
 3603              		.section	.text._ZN4ltaf7inverseIdLi3ELb0EEENS_6MatrixIT_XT0_EXT0_EXT1_EEERKS3_,"axG",%progbits,_ZN
 3604              		.align	1
 3605              		.weak	_ZN4ltaf7inverseIdLi3ELb0EEENS_6MatrixIT_XT0_EXT0_EXT1_EEERKS3_
 3606              		.thumb
 3607              		.thumb_func
 3609              	_ZN4ltaf7inverseIdLi3ELb0EEENS_6MatrixIT_XT0_EXT0_EXT1_EEERKS3_:
 3610              	.LFB3915:
1247:/home/tienluong/workspace/atlantis_fw/AsicFwS2/include/matrix.h **** {
 3611              		.loc 1 1247 0
 3612              		.cfi_startproc
 3613              		@ args = 0, pretend = 0, frame = 8
 3614              		@ frame_needed = 0, uses_anonymous_args = 0
 3615              	.LVL523:
 3616 0000 13B5     		push	{r0, r1, r4, lr}
 3617              	.LCFI39:
 3618              		.cfi_def_cfa_offset 16
 3619              		.cfi_offset 4, -8
 3620              		.cfi_offset 14, -4
 3621              	.LBB323:
 3622              	.LBB324:
 3623              	.LBB325:
 593:/home/tienluong/workspace/atlantis_fw/AsicFwS2/include/matrix.h **** 
 3624              		.loc 1 593 0
 3625 0002 4822     		movs	r2, #72
 3626              	.LBE325:
 3627              	.LBE324:
 3628              	.LBE323:
1247:/home/tienluong/workspace/atlantis_fw/AsicFwS2/include/matrix.h **** {
 3629              		.loc 1 1247 0
 3630 0004 0446     		mov	r4, r0
 3631              	.LVL524:
 3632              	.LBB328:
 3633              	.LBB327:
 3634              	.LBB326:
 593:/home/tienluong/workspace/atlantis_fw/AsicFwS2/include/matrix.h **** 
 3635              		.loc 1 593 0
 3636 0006 044B     		ldr	r3, .L100
 3637 0008 9847     		blx	r3
 3638              	.LVL525:
 3639              	.LBE326:
 3640              	.LBE327:
1251:/home/tienluong/workspace/atlantis_fw/AsicFwS2/include/matrix.h ****     return rval;
 3641              		.loc 1 1251 0
 3642 000a 01A8     		add	r0, sp, #4
 3643 000c 2146     		mov	r1, r4
 3644 000e 034B     		ldr	r3, .L100+4
 3645 0010 9847     		blx	r3
 3646              	.LVL526:
 3647              	.LBE328:
1253:/home/tienluong/workspace/atlantis_fw/AsicFwS2/include/matrix.h **** 
 3648              		.loc 1 1253 0
 3649 0012 2046     		mov	r0, r4
 3650 0014 02B0     		add	sp, sp, #8
 3651              	.LCFI40:
 3652              		.cfi_def_cfa_offset 8
 3653              		@ sp needed
 3654 0016 10BD     		pop	{r4, pc}
 3655              	.LVL527:
 3656              	.L101:
 3657              		.align	2
 3658              	.L100:
 3659 0018 00000000 		.word	memcpy
 3660 001c 00000000 		.word	_ZNK4ltaf20SquareMatrixInverterIdLi3EE3runEPd
 3661              		.cfi_endproc
 3662              	.LFE3915:
 3664              		.section	.text._ZNK4ltaf20SquareMatrixInverterIdLi4EE3runEPd,"axG",%progbits,_ZNK4ltaf20SquareMatr
 3665              		.align	1
 3666              		.weak	_ZNK4ltaf20SquareMatrixInverterIdLi4EE3runEPd
 3667              		.thumb
 3668              		.thumb_func
 3670              	_ZNK4ltaf20SquareMatrixInverterIdLi4EE3runEPd:
 3671              	.LFB4077:
1166:/home/tienluong/workspace/atlantis_fw/AsicFwS2/include/matrix.h ****     {
 3672              		.loc 1 1166 0
 3673              		.cfi_startproc
 3674              		@ args = 0, pretend = 0, frame = 376
 3675              		@ frame_needed = 0, uses_anonymous_args = 0
 3676              	.LVL528:
 3677 0000 2DE9F04F 		push	{r4, r5, r6, r7, r8, r9, r10, fp, lr}
 3678              	.LCFI41:
 3679              		.cfi_def_cfa_offset 36
 3680              		.cfi_offset 4, -36
 3681              		.cfi_offset 5, -32
 3682              		.cfi_offset 6, -28
 3683              		.cfi_offset 7, -24
 3684              		.cfi_offset 8, -20
 3685              		.cfi_offset 9, -16
 3686              		.cfi_offset 10, -12
 3687              		.cfi_offset 11, -8
 3688              		.cfi_offset 14, -4
 3689 0004 DFB0     		sub	sp, sp, #380
 3690              	.LCFI42:
 3691              		.cfi_def_cfa_offset 416
 3692              	.LBB329:
1172:/home/tienluong/workspace/atlantis_fw/AsicFwS2/include/matrix.h ****         tmp[1] = mat[11] * mat[14];
 3693              		.loc 1 1172 0
 3694 0006 D1E91423 		ldrd	r2, [r1, #80]
 3695              	.LBE329:
1166:/home/tienluong/workspace/atlantis_fw/AsicFwS2/include/matrix.h ****     {
 3696              		.loc 1 1166 0
 3697 000a 8A46     		mov	r10, r1
 3698              	.LBB331:
1172:/home/tienluong/workspace/atlantis_fw/AsicFwS2/include/matrix.h ****         tmp[1] = mat[11] * mat[14];
 3699              		.loc 1 1172 0
 3700 000c CDE90823 		strd	r2, [sp, #32]
 3701 0010 934C     		ldr	r4, .L105
 3702 0012 D1E91E23 		ldrd	r2, [r1, #120]
 3703 0016 DDE90801 		ldrd	r0, [sp, #32]
 3704              	.LVL529:
 3705 001a CDE90A23 		strd	r2, [sp, #40]
 3706 001e A047     		blx	r4
 3707              	.LVL530:
1173:/home/tienluong/workspace/atlantis_fw/AsicFwS2/include/matrix.h ****         tmp[2] = mat[9] * mat[15];
 3708              		.loc 1 1173 0
 3709 0020 DAE91623 		ldrd	r2, [r10, #88]
 3710 0024 CDE90C23 		strd	r2, [sp, #48]
 3711 0028 DAE91C23 		ldrd	r2, [r10, #112]
 3712 002c CDE90E23 		strd	r2, [sp, #56]
1186:/home/tienluong/workspace/atlantis_fw/AsicFwS2/include/matrix.h ****         dst[0]  -= tmp[1] * mat[5] + tmp[2] * mat[6] + tmp[5]  * mat[7];
 3713              		.loc 1 1186 0
 3714 0030 8C4D     		ldr	r5, .L105+4
1187:/home/tienluong/workspace/atlantis_fw/AsicFwS2/include/matrix.h ****         dst[4]   = tmp[1] * mat[4] + tmp[6] * mat[6] + tmp[9]  * mat[7];
 3715              		.loc 1 1187 0
 3716 0032 DFF834B2 		ldr	fp, .L105+8
1172:/home/tienluong/workspace/atlantis_fw/AsicFwS2/include/matrix.h ****         tmp[1] = mat[11] * mat[14];
 3717              		.loc 1 1172 0
 3718 0036 CDE92001 		strd	r0, [sp, #128]
 3719              	.LVL531:
1173:/home/tienluong/workspace/atlantis_fw/AsicFwS2/include/matrix.h ****         tmp[2] = mat[9] * mat[15];
 3720              		.loc 1 1173 0
 3721 003a DDE90C01 		ldrd	r0, [sp, #48]
 3722              	.LVL532:
 3723 003e A047     		blx	r4
 3724              	.LVL533:
1174:/home/tienluong/workspace/atlantis_fw/AsicFwS2/include/matrix.h ****         tmp[3] = mat[11] * mat[13];
 3725              		.loc 1 1174 0
 3726 0040 DAE91223 		ldrd	r2, [r10, #72]
 3727 0044 CDE91023 		strd	r2, [sp, #64]
1173:/home/tienluong/workspace/atlantis_fw/AsicFwS2/include/matrix.h ****         tmp[2] = mat[9] * mat[15];
 3728              		.loc 1 1173 0
 3729 0048 CDE92201 		strd	r0, [sp, #136]
 3730              	.LVL534:
1174:/home/tienluong/workspace/atlantis_fw/AsicFwS2/include/matrix.h ****         tmp[3] = mat[11] * mat[13];
 3731              		.loc 1 1174 0
 3732 004c 1046     		mov	r0, r2
 3733              	.LVL535:
 3734 004e 1946     		mov	r1, r3
 3735 0050 DDE90A23 		ldrd	r2, [sp, #40]
 3736 0054 A047     		blx	r4
 3737              	.LVL536:
1175:/home/tienluong/workspace/atlantis_fw/AsicFwS2/include/matrix.h ****         tmp[4] = mat[9] * mat[14];
 3738              		.loc 1 1175 0
 3739 0056 DAE91A23 		ldrd	r2, [r10, #104]
 3740 005a CDE91223 		strd	r2, [sp, #72]
1174:/home/tienluong/workspace/atlantis_fw/AsicFwS2/include/matrix.h ****         tmp[3] = mat[11] * mat[13];
 3741              		.loc 1 1174 0
 3742 005e CDE92401 		strd	r0, [sp, #144]
 3743              	.LVL537:
1175:/home/tienluong/workspace/atlantis_fw/AsicFwS2/include/matrix.h ****         tmp[4] = mat[9] * mat[14];
 3744              		.loc 1 1175 0
 3745 0062 DDE90C01 		ldrd	r0, [sp, #48]
 3746              	.LVL538:
 3747 0066 A047     		blx	r4
 3748              	.LVL539:
1176:/home/tienluong/workspace/atlantis_fw/AsicFwS2/include/matrix.h ****         tmp[5] = mat[10] * mat[13];
 3749              		.loc 1 1176 0
 3750 0068 DDE90E23 		ldrd	r2, [sp, #56]
1175:/home/tienluong/workspace/atlantis_fw/AsicFwS2/include/matrix.h ****         tmp[4] = mat[9] * mat[14];
 3751              		.loc 1 1175 0
 3752 006c CDE92601 		strd	r0, [sp, #152]
 3753              	.LVL540:
1176:/home/tienluong/workspace/atlantis_fw/AsicFwS2/include/matrix.h ****         tmp[5] = mat[10] * mat[13];
 3754              		.loc 1 1176 0
 3755 0070 DDE91001 		ldrd	r0, [sp, #64]
 3756              	.LVL541:
 3757 0074 A047     		blx	r4
 3758              	.LVL542:
1177:/home/tienluong/workspace/atlantis_fw/AsicFwS2/include/matrix.h ****         tmp[6] = mat[8] * mat[15];
 3759              		.loc 1 1177 0
 3760 0076 DDE91223 		ldrd	r2, [sp, #72]
1176:/home/tienluong/workspace/atlantis_fw/AsicFwS2/include/matrix.h ****         tmp[5] = mat[10] * mat[13];
 3761              		.loc 1 1176 0
 3762 007a CDE92801 		strd	r0, [sp, #160]
1177:/home/tienluong/workspace/atlantis_fw/AsicFwS2/include/matrix.h ****         tmp[6] = mat[8] * mat[15];
 3763              		.loc 1 1177 0
 3764 007e DDE90801 		ldrd	r0, [sp, #32]
 3765 0082 A047     		blx	r4
 3766              	.LVL543:
1178:/home/tienluong/workspace/atlantis_fw/AsicFwS2/include/matrix.h ****         tmp[7] = mat[11] * mat[12];
 3767              		.loc 1 1178 0
 3768 0084 DAE91023 		ldrd	r2, [r10, #64]
 3769 0088 CDE91423 		strd	r2, [sp, #80]
1177:/home/tienluong/workspace/atlantis_fw/AsicFwS2/include/matrix.h ****         tmp[6] = mat[8] * mat[15];
 3770              		.loc 1 1177 0
 3771 008c CDE92A01 		strd	r0, [sp, #168]
1178:/home/tienluong/workspace/atlantis_fw/AsicFwS2/include/matrix.h ****         tmp[7] = mat[11] * mat[12];
 3772              		.loc 1 1178 0
 3773 0090 1046     		mov	r0, r2
 3774 0092 1946     		mov	r1, r3
 3775 0094 DDE90A23 		ldrd	r2, [sp, #40]
 3776 0098 A047     		blx	r4
 3777              	.LVL544:
1179:/home/tienluong/workspace/atlantis_fw/AsicFwS2/include/matrix.h ****         tmp[8] = mat[8] * mat[14];
 3778              		.loc 1 1179 0
 3779 009a DAE91823 		ldrd	r2, [r10, #96]
 3780 009e CDE91623 		strd	r2, [sp, #88]
1178:/home/tienluong/workspace/atlantis_fw/AsicFwS2/include/matrix.h ****         tmp[7] = mat[11] * mat[12];
 3781              		.loc 1 1178 0
 3782 00a2 CDE92C01 		strd	r0, [sp, #176]
1179:/home/tienluong/workspace/atlantis_fw/AsicFwS2/include/matrix.h ****         tmp[8] = mat[8] * mat[14];
 3783              		.loc 1 1179 0
 3784 00a6 DDE90C01 		ldrd	r0, [sp, #48]
 3785 00aa A047     		blx	r4
 3786              	.LVL545:
1180:/home/tienluong/workspace/atlantis_fw/AsicFwS2/include/matrix.h ****         tmp[9] = mat[10] * mat[12];
 3787              		.loc 1 1180 0
 3788 00ac DDE90E23 		ldrd	r2, [sp, #56]
1179:/home/tienluong/workspace/atlantis_fw/AsicFwS2/include/matrix.h ****         tmp[8] = mat[8] * mat[14];
 3789              		.loc 1 1179 0
 3790 00b0 CDE92E01 		strd	r0, [sp, #184]
1180:/home/tienluong/workspace/atlantis_fw/AsicFwS2/include/matrix.h ****         tmp[9] = mat[10] * mat[12];
 3791              		.loc 1 1180 0
 3792 00b4 DDE91401 		ldrd	r0, [sp, #80]
 3793 00b8 A047     		blx	r4
 3794              	.LVL546:
1181:/home/tienluong/workspace/atlantis_fw/AsicFwS2/include/matrix.h ****         tmp[10] = mat[8] * mat[13];
 3795              		.loc 1 1181 0
 3796 00ba DDE91623 		ldrd	r2, [sp, #88]
1180:/home/tienluong/workspace/atlantis_fw/AsicFwS2/include/matrix.h ****         tmp[9] = mat[10] * mat[12];
 3797              		.loc 1 1180 0
 3798 00be CDE93001 		strd	r0, [sp, #192]
1181:/home/tienluong/workspace/atlantis_fw/AsicFwS2/include/matrix.h ****         tmp[10] = mat[8] * mat[13];
 3799              		.loc 1 1181 0
 3800 00c2 DDE90801 		ldrd	r0, [sp, #32]
 3801 00c6 A047     		blx	r4
 3802              	.LVL547:
 3803 00c8 CDE93201 		strd	r0, [sp, #200]
1182:/home/tienluong/workspace/atlantis_fw/AsicFwS2/include/matrix.h ****         tmp[11] = mat[9] * mat[12];
 3804              		.loc 1 1182 0
 3805 00cc DDE91401 		ldrd	r0, [sp, #80]
 3806 00d0 DDE91223 		ldrd	r2, [sp, #72]
 3807 00d4 A047     		blx	r4
 3808              	.LVL548:
1183:/home/tienluong/workspace/atlantis_fw/AsicFwS2/include/matrix.h **** 
 3809              		.loc 1 1183 0
 3810 00d6 DDE91623 		ldrd	r2, [sp, #88]
1182:/home/tienluong/workspace/atlantis_fw/AsicFwS2/include/matrix.h ****         tmp[11] = mat[9] * mat[12];
 3811              		.loc 1 1182 0
 3812 00da CDE93401 		strd	r0, [sp, #208]
1183:/home/tienluong/workspace/atlantis_fw/AsicFwS2/include/matrix.h **** 
 3813              		.loc 1 1183 0
 3814 00de DDE91001 		ldrd	r0, [sp, #64]
 3815 00e2 A047     		blx	r4
 3816              	.LVL549:
1186:/home/tienluong/workspace/atlantis_fw/AsicFwS2/include/matrix.h ****         dst[0]  -= tmp[1] * mat[5] + tmp[2] * mat[6] + tmp[5]  * mat[7];
 3817              		.loc 1 1186 0
 3818 00e4 DAE90A23 		ldrd	r2, [r10, #40]
 3819 00e8 CDE91823 		strd	r2, [sp, #96]
 3820 00ec DAE90C23 		ldrd	r2, [r10, #48]
 3821 00f0 CDE91A23 		strd	r2, [sp, #104]
 3822 00f4 DAE90E23 		ldrd	r2, [r10, #56]
 3823 00f8 CDE91C23 		strd	r2, [sp, #112]
 3824 00fc DDE91823 		ldrd	r2, [sp, #96]
1183:/home/tienluong/workspace/atlantis_fw/AsicFwS2/include/matrix.h **** 
 3825              		.loc 1 1183 0
 3826 0100 CDE93601 		strd	r0, [sp, #216]
1186:/home/tienluong/workspace/atlantis_fw/AsicFwS2/include/matrix.h ****         dst[0]  -= tmp[1] * mat[5] + tmp[2] * mat[6] + tmp[5]  * mat[7];
 3827              		.loc 1 1186 0
 3828 0104 DDE92001 		ldrd	r0, [sp, #128]
 3829 0108 A047     		blx	r4
 3830              	.LVL550:
 3831 010a DDE91A23 		ldrd	r2, [sp, #104]
 3832 010e 0646     		mov	r6, r0
 3833 0110 0F46     		mov	r7, r1
 3834 0112 DDE92601 		ldrd	r0, [sp, #152]
 3835 0116 A047     		blx	r4
 3836              	.LVL551:
 3837 0118 0246     		mov	r2, r0
 3838 011a 0B46     		mov	r3, r1
 3839 011c 3046     		mov	r0, r6
 3840 011e 3946     		mov	r1, r7
 3841 0120 A847     		blx	r5
 3842              	.LVL552:
 3843 0122 DDE91C23 		ldrd	r2, [sp, #112]
 3844 0126 0646     		mov	r6, r0
 3845 0128 0F46     		mov	r7, r1
 3846 012a DDE92801 		ldrd	r0, [sp, #160]
 3847 012e A047     		blx	r4
 3848              	.LVL553:
 3849 0130 0246     		mov	r2, r0
 3850 0132 0B46     		mov	r3, r1
 3851 0134 3046     		mov	r0, r6
 3852 0136 3946     		mov	r1, r7
 3853 0138 A847     		blx	r5
 3854              	.LVL554:
1187:/home/tienluong/workspace/atlantis_fw/AsicFwS2/include/matrix.h ****         dst[4]   = tmp[1] * mat[4] + tmp[6] * mat[6] + tmp[9]  * mat[7];
 3855              		.loc 1 1187 0
 3856 013a DDE91823 		ldrd	r2, [sp, #96]
1186:/home/tienluong/workspace/atlantis_fw/AsicFwS2/include/matrix.h ****         dst[0]  -= tmp[1] * mat[5] + tmp[2] * mat[6] + tmp[5]  * mat[7];
 3857              		.loc 1 1186 0
 3858 013e 8046     		mov	r8, r0
 3859 0140 8946     		mov	r9, r1
1187:/home/tienluong/workspace/atlantis_fw/AsicFwS2/include/matrix.h ****         dst[4]   = tmp[1] * mat[4] + tmp[6] * mat[6] + tmp[9]  * mat[7];
 3860              		.loc 1 1187 0
 3861 0142 DDE92201 		ldrd	r0, [sp, #136]
 3862 0146 A047     		blx	r4
 3863              	.LVL555:
 3864 0148 DDE91A23 		ldrd	r2, [sp, #104]
 3865 014c 0646     		mov	r6, r0
 3866 014e 0F46     		mov	r7, r1
 3867 0150 DDE92401 		ldrd	r0, [sp, #144]
 3868 0154 A047     		blx	r4
 3869              	.LVL556:
 3870 0156 0246     		mov	r2, r0
 3871 0158 0B46     		mov	r3, r1
 3872 015a 3046     		mov	r0, r6
 3873 015c 3946     		mov	r1, r7
 3874 015e A847     		blx	r5
 3875              	.LVL557:
 3876 0160 DDE91C23 		ldrd	r2, [sp, #112]
 3877 0164 0646     		mov	r6, r0
 3878 0166 0F46     		mov	r7, r1
 3879 0168 DDE92A01 		ldrd	r0, [sp, #168]
 3880 016c A047     		blx	r4
 3881              	.LVL558:
 3882 016e 0246     		mov	r2, r0
 3883 0170 0B46     		mov	r3, r1
 3884 0172 3046     		mov	r0, r6
 3885 0174 3946     		mov	r1, r7
 3886 0176 A847     		blx	r5
 3887              	.LVL559:
 3888 0178 0246     		mov	r2, r0
 3889 017a 0B46     		mov	r3, r1
 3890 017c 4046     		mov	r0, r8
 3891 017e 4946     		mov	r1, r9
 3892 0180 D847     		blx	fp
 3893              	.LVL560:
 3894 0182 0246     		mov	r2, r0
 3895 0184 0B46     		mov	r3, r1
 3896 0186 CDE93801 		strd	r0, [sp, #224]
 3897 018a CDE93E23 		strd	r2, [sp, #248]
1188:/home/tienluong/workspace/atlantis_fw/AsicFwS2/include/matrix.h ****         dst[4]  -= tmp[0] * mat[4] + tmp[7] * mat[6] + tmp[8]  * mat[7];
 3898              		.loc 1 1188 0
 3899 018e DAE90823 		ldrd	r2, [r10, #32]
 3900 0192 DDE92201 		ldrd	r0, [sp, #136]
 3901 0196 CDE91E23 		strd	r2, [sp, #120]
 3902 019a A047     		blx	r4
 3903              	.LVL561:
 3904 019c DDE91A23 		ldrd	r2, [sp, #104]
 3905 01a0 0646     		mov	r6, r0
 3906 01a2 0F46     		mov	r7, r1
 3907 01a4 DDE92C01 		ldrd	r0, [sp, #176]
 3908 01a8 A047     		blx	r4
 3909              	.LVL562:
 3910 01aa 0246     		mov	r2, r0
 3911 01ac 0B46     		mov	r3, r1
 3912 01ae 3046     		mov	r0, r6
 3913 01b0 3946     		mov	r1, r7
 3914 01b2 A847     		blx	r5
 3915              	.LVL563:
 3916 01b4 DDE91C23 		ldrd	r2, [sp, #112]
 3917 01b8 0646     		mov	r6, r0
 3918 01ba 0F46     		mov	r7, r1
 3919 01bc DDE93201 		ldrd	r0, [sp, #200]
 3920 01c0 A047     		blx	r4
 3921              	.LVL564:
 3922 01c2 0246     		mov	r2, r0
 3923 01c4 0B46     		mov	r3, r1
 3924 01c6 3046     		mov	r0, r6
 3925 01c8 3946     		mov	r1, r7
 3926 01ca A847     		blx	r5
 3927              	.LVL565:
1189:/home/tienluong/workspace/atlantis_fw/AsicFwS2/include/matrix.h ****         dst[8]   = tmp[2] * mat[4] + tmp[7] * mat[5] + tmp[10] * mat[7];
 3928              		.loc 1 1189 0
 3929 01cc DDE91E23 		ldrd	r2, [sp, #120]
1188:/home/tienluong/workspace/atlantis_fw/AsicFwS2/include/matrix.h ****         dst[4]  -= tmp[0] * mat[4] + tmp[7] * mat[6] + tmp[8]  * mat[7];
 3930              		.loc 1 1188 0
 3931 01d0 8046     		mov	r8, r0
 3932 01d2 8946     		mov	r9, r1
1189:/home/tienluong/workspace/atlantis_fw/AsicFwS2/include/matrix.h ****         dst[8]   = tmp[2] * mat[4] + tmp[7] * mat[5] + tmp[10] * mat[7];
 3933              		.loc 1 1189 0
 3934 01d4 DDE92001 		ldrd	r0, [sp, #128]
 3935 01d8 A047     		blx	r4
 3936              	.LVL566:
 3937 01da DDE91A23 		ldrd	r2, [sp, #104]
 3938 01de 0646     		mov	r6, r0
 3939 01e0 0F46     		mov	r7, r1
 3940 01e2 DDE92E01 		ldrd	r0, [sp, #184]
 3941 01e6 A047     		blx	r4
 3942              	.LVL567:
 3943 01e8 0246     		mov	r2, r0
 3944 01ea 0B46     		mov	r3, r1
 3945 01ec 3046     		mov	r0, r6
 3946 01ee 3946     		mov	r1, r7
 3947 01f0 A847     		blx	r5
 3948              	.LVL568:
 3949 01f2 DDE91C23 		ldrd	r2, [sp, #112]
 3950 01f6 0646     		mov	r6, r0
 3951 01f8 0F46     		mov	r7, r1
 3952 01fa DDE93001 		ldrd	r0, [sp, #192]
 3953 01fe A047     		blx	r4
 3954              	.LVL569:
 3955 0200 0246     		mov	r2, r0
 3956 0202 0B46     		mov	r3, r1
 3957 0204 3046     		mov	r0, r6
 3958 0206 3946     		mov	r1, r7
 3959 0208 A847     		blx	r5
 3960              	.LVL570:
 3961 020a 0246     		mov	r2, r0
 3962 020c 0B46     		mov	r3, r1
 3963 020e 4046     		mov	r0, r8
 3964 0210 4946     		mov	r1, r9
 3965 0212 D847     		blx	fp
 3966              	.LVL571:
 3967 0214 CDE93A01 		strd	r0, [sp, #232]
 3968 0218 0246     		mov	r2, r0
 3969 021a 0B46     		mov	r3, r1
 3970 021c 46A9     		add	r1, sp, #280
 3971 021e C1E90023 		strd	r2, [r1]
1190:/home/tienluong/workspace/atlantis_fw/AsicFwS2/include/matrix.h ****         dst[8]  -= tmp[3] * mat[4] + tmp[6] * mat[5] + tmp[11] * mat[7];
 3972              		.loc 1 1190 0
 3973 0222 DDE91E23 		ldrd	r2, [sp, #120]
 3974 0226 DDE92401 		ldrd	r0, [sp, #144]
 3975 022a A047     		blx	r4
 3976              	.LVL572:
 3977 022c DDE91823 		ldrd	r2, [sp, #96]
 3978 0230 0646     		mov	r6, r0
 3979 0232 0F46     		mov	r7, r1
 3980 0234 DDE92E01 		ldrd	r0, [sp, #184]
 3981 0238 A047     		blx	r4
 3982              	.LVL573:
 3983 023a 0246     		mov	r2, r0
 3984 023c 0B46     		mov	r3, r1
 3985 023e 3046     		mov	r0, r6
 3986 0240 3946     		mov	r1, r7
 3987 0242 A847     		blx	r5
 3988              	.LVL574:
 3989 0244 DDE91C23 		ldrd	r2, [sp, #112]
 3990 0248 0646     		mov	r6, r0
 3991 024a 0F46     		mov	r7, r1
 3992 024c DDE93401 		ldrd	r0, [sp, #208]
 3993 0250 A047     		blx	r4
 3994              	.LVL575:
 3995 0252 0246     		mov	r2, r0
 3996 0254 0B46     		mov	r3, r1
 3997 0256 3046     		mov	r0, r6
 3998 0258 3946     		mov	r1, r7
 3999 025a A847     		blx	r5
 4000              	.LVL576:
 4001 025c 06E0     		b	.L106
 4002              	.L107:
 4003 025e 00BF     		.align	2
 4004              	.L105:
 4005 0260 00000000 		.word	__aeabi_dmul
 4006 0264 00000000 		.word	__aeabi_dadd
 4007 0268 00000000 		.word	__aeabi_dsub
 4008              	.L106:
1191:/home/tienluong/workspace/atlantis_fw/AsicFwS2/include/matrix.h ****         dst[12]  = tmp[5] * mat[4] + tmp[8] * mat[5] + tmp[11] * mat[6];
 4009              		.loc 1 1191 0
 4010 026c DDE91E23 		ldrd	r2, [sp, #120]
1190:/home/tienluong/workspace/atlantis_fw/AsicFwS2/include/matrix.h ****         dst[8]  -= tmp[3] * mat[4] + tmp[6] * mat[5] + tmp[11] * mat[7];
 4011              		.loc 1 1190 0
 4012 0270 8046     		mov	r8, r0
 4013 0272 8946     		mov	r9, r1
1191:/home/tienluong/workspace/atlantis_fw/AsicFwS2/include/matrix.h ****         dst[12]  = tmp[5] * mat[4] + tmp[8] * mat[5] + tmp[11] * mat[6];
 4014              		.loc 1 1191 0
 4015 0274 DDE92601 		ldrd	r0, [sp, #152]
 4016 0278 A047     		blx	r4
 4017              	.LVL577:
 4018 027a DDE91823 		ldrd	r2, [sp, #96]
 4019 027e 0646     		mov	r6, r0
 4020 0280 0F46     		mov	r7, r1
 4021 0282 DDE92C01 		ldrd	r0, [sp, #176]
 4022 0286 A047     		blx	r4
 4023              	.LVL578:
 4024 0288 0246     		mov	r2, r0
 4025 028a 0B46     		mov	r3, r1
 4026 028c 3046     		mov	r0, r6
 4027 028e 3946     		mov	r1, r7
 4028 0290 A847     		blx	r5
 4029              	.LVL579:
 4030 0292 DDE91C23 		ldrd	r2, [sp, #112]
 4031 0296 0646     		mov	r6, r0
 4032 0298 0F46     		mov	r7, r1
 4033 029a DDE93601 		ldrd	r0, [sp, #216]
 4034 029e A047     		blx	r4
 4035              	.LVL580:
 4036 02a0 0246     		mov	r2, r0
 4037 02a2 0B46     		mov	r3, r1
 4038 02a4 3046     		mov	r0, r6
 4039 02a6 3946     		mov	r1, r7
 4040 02a8 A847     		blx	r5
 4041              	.LVL581:
 4042 02aa 0246     		mov	r2, r0
 4043 02ac 0B46     		mov	r3, r1
 4044 02ae 4046     		mov	r0, r8
 4045 02b0 4946     		mov	r1, r9
 4046 02b2 D847     		blx	fp
 4047              	.LVL582:
 4048 02b4 CDE93C01 		strd	r0, [sp, #240]
 4049 02b8 0246     		mov	r2, r0
 4050 02ba 0B46     		mov	r3, r1
 4051 02bc 4EA9     		add	r1, sp, #312
 4052 02be C1E90023 		strd	r2, [r1]
1192:/home/tienluong/workspace/atlantis_fw/AsicFwS2/include/matrix.h ****         dst[12] -= tmp[4] * mat[4] + tmp[9] * mat[5] + tmp[10] * mat[6];
 4053              		.loc 1 1192 0
 4054 02c2 DDE91E23 		ldrd	r2, [sp, #120]
 4055 02c6 DDE92A01 		ldrd	r0, [sp, #168]
 4056 02ca A047     		blx	r4
 4057              	.LVL583:
 4058 02cc DDE91823 		ldrd	r2, [sp, #96]
 4059 02d0 0646     		mov	r6, r0
 4060 02d2 0F46     		mov	r7, r1
 4061 02d4 DDE93001 		ldrd	r0, [sp, #192]
 4062 02d8 A047     		blx	r4
 4063              	.LVL584:
 4064 02da 0246     		mov	r2, r0
 4065 02dc 0B46     		mov	r3, r1
 4066 02de 3046     		mov	r0, r6
 4067 02e0 3946     		mov	r1, r7
 4068 02e2 A847     		blx	r5
 4069              	.LVL585:
 4070 02e4 DDE91A23 		ldrd	r2, [sp, #104]
 4071 02e8 0646     		mov	r6, r0
 4072 02ea 0F46     		mov	r7, r1
 4073 02ec DDE93601 		ldrd	r0, [sp, #216]
 4074 02f0 A047     		blx	r4
 4075              	.LVL586:
 4076 02f2 0246     		mov	r2, r0
 4077 02f4 0B46     		mov	r3, r1
 4078 02f6 3046     		mov	r0, r6
 4079 02f8 3946     		mov	r1, r7
 4080 02fa A847     		blx	r5
 4081              	.LVL587:
1193:/home/tienluong/workspace/atlantis_fw/AsicFwS2/include/matrix.h **** 
 4082              		.loc 1 1193 0
 4083 02fc DDE91E23 		ldrd	r2, [sp, #120]
1192:/home/tienluong/workspace/atlantis_fw/AsicFwS2/include/matrix.h ****         dst[12] -= tmp[4] * mat[4] + tmp[9] * mat[5] + tmp[10] * mat[6];
 4084              		.loc 1 1192 0
 4085 0300 8046     		mov	r8, r0
 4086 0302 8946     		mov	r9, r1
1193:/home/tienluong/workspace/atlantis_fw/AsicFwS2/include/matrix.h **** 
 4087              		.loc 1 1193 0
 4088 0304 DDE92801 		ldrd	r0, [sp, #160]
 4089 0308 A047     		blx	r4
 4090              	.LVL588:
 4091 030a DDE91823 		ldrd	r2, [sp, #96]
 4092 030e 0646     		mov	r6, r0
 4093 0310 0F46     		mov	r7, r1
 4094 0312 DDE93201 		ldrd	r0, [sp, #200]
 4095 0316 A047     		blx	r4
 4096              	.LVL589:
 4097 0318 0246     		mov	r2, r0
 4098 031a 0B46     		mov	r3, r1
 4099 031c 3046     		mov	r0, r6
 4100 031e 3946     		mov	r1, r7
 4101 0320 A847     		blx	r5
 4102              	.LVL590:
 4103 0322 DDE91A23 		ldrd	r2, [sp, #104]
 4104 0326 0646     		mov	r6, r0
 4105 0328 0F46     		mov	r7, r1
 4106 032a DDE93401 		ldrd	r0, [sp, #208]
 4107 032e A047     		blx	r4
 4108              	.LVL591:
 4109 0330 0246     		mov	r2, r0
 4110 0332 0B46     		mov	r3, r1
 4111 0334 3046     		mov	r0, r6
 4112 0336 3946     		mov	r1, r7
 4113 0338 A847     		blx	r5
 4114              	.LVL592:
 4115 033a 0246     		mov	r2, r0
 4116 033c 0B46     		mov	r3, r1
 4117 033e 4046     		mov	r0, r8
 4118 0340 4946     		mov	r1, r9
 4119 0342 D847     		blx	fp
 4120              	.LVL593:
 4121 0344 56AB     		add	r3, sp, #344
 4122 0346 8046     		mov	r8, r0
 4123 0348 8946     		mov	r9, r1
 4124 034a C3E90089 		strd	r8, [r3]
1196:/home/tienluong/workspace/atlantis_fw/AsicFwS2/include/matrix.h **** 
 4125              		.loc 1 1196 0
 4126 034e DAE90023 		ldrd	r2, [r10]
 4127 0352 CDE90023 		strd	r2, [sp]
 4128 0356 DAE90223 		ldrd	r2, [r10, #8]
 4129 035a CDE90223 		strd	r2, [sp, #8]
 4130 035e DAE90423 		ldrd	r2, [r10, #16]
 4131 0362 CDE90423 		strd	r2, [sp, #16]
 4132 0366 DAE90623 		ldrd	r2, [r10, #24]
 4133 036a CDE90623 		strd	r2, [sp, #24]
 4134              	.LVL594:
 4135 036e DDE90001 		ldrd	r0, [sp]
 4136 0372 DDE93823 		ldrd	r2, [sp, #224]
 4137              	.LVL595:
 4138 0376 A047     		blx	r4
 4139              	.LVL596:
 4140 0378 DDE93A23 		ldrd	r2, [sp, #232]
 4141 037c 0646     		mov	r6, r0
 4142 037e 0F46     		mov	r7, r1
 4143 0380 DDE90201 		ldrd	r0, [sp, #8]
 4144 0384 A047     		blx	r4
 4145              	.LVL597:
 4146 0386 0246     		mov	r2, r0
 4147 0388 0B46     		mov	r3, r1
 4148 038a 3046     		mov	r0, r6
 4149 038c 3946     		mov	r1, r7
 4150 038e A847     		blx	r5
 4151              	.LVL598:
 4152 0390 DDE93C23 		ldrd	r2, [sp, #240]
 4153 0394 0646     		mov	r6, r0
 4154 0396 0F46     		mov	r7, r1
 4155 0398 DDE90401 		ldrd	r0, [sp, #16]
 4156 039c A047     		blx	r4
 4157              	.LVL599:
 4158 039e 0246     		mov	r2, r0
 4159 03a0 0B46     		mov	r3, r1
 4160 03a2 3046     		mov	r0, r6
 4161 03a4 3946     		mov	r1, r7
 4162 03a6 A847     		blx	r5
 4163              	.LVL600:
 4164 03a8 4246     		mov	r2, r8
 4165 03aa 4B46     		mov	r3, r9
 4166 03ac 0646     		mov	r6, r0
 4167 03ae 0F46     		mov	r7, r1
 4168 03b0 DDE90601 		ldrd	r0, [sp, #24]
 4169 03b4 A047     		blx	r4
 4170              	.LVL601:
 4171 03b6 0246     		mov	r2, r0
 4172 03b8 0B46     		mov	r3, r1
 4173 03ba 3046     		mov	r0, r6
 4174 03bc 3946     		mov	r1, r7
 4175 03be A847     		blx	r5
 4176              	.LVL602:
1198:/home/tienluong/workspace/atlantis_fw/AsicFwS2/include/matrix.h **** 
 4177              		.loc 1 1198 0
 4178 03c0 9D4E     		ldr	r6, .L108
1196:/home/tienluong/workspace/atlantis_fw/AsicFwS2/include/matrix.h **** 
 4179              		.loc 1 1196 0
 4180 03c2 0246     		mov	r2, r0
 4181 03c4 0B46     		mov	r3, r1
1198:/home/tienluong/workspace/atlantis_fw/AsicFwS2/include/matrix.h **** 
 4182              		.loc 1 1198 0
 4183 03c6 0020     		movs	r0, #0
 4184 03c8 9C49     		ldr	r1, .L108+4
 4185 03ca B047     		blx	r6
 4186              	.LVL603:
1200:/home/tienluong/workspace/atlantis_fw/AsicFwS2/include/matrix.h ****         dst[1]  -= tmp[0] * mat[1] + tmp[3] * mat[2] + tmp[4]  * mat[3];
 4187              		.loc 1 1200 0
 4188 03cc DDE90223 		ldrd	r2, [sp, #8]
1198:/home/tienluong/workspace/atlantis_fw/AsicFwS2/include/matrix.h **** 
 4189              		.loc 1 1198 0
 4190 03d0 CDE93801 		strd	r0, [sp, #224]
 4191              	.LVL604:
1200:/home/tienluong/workspace/atlantis_fw/AsicFwS2/include/matrix.h ****         dst[1]  -= tmp[0] * mat[1] + tmp[3] * mat[2] + tmp[4]  * mat[3];
 4192              		.loc 1 1200 0
 4193 03d4 DDE92201 		ldrd	r0, [sp, #136]
 4194              	.LVL605:
 4195 03d8 A047     		blx	r4
 4196              	.LVL606:
 4197 03da DDE90423 		ldrd	r2, [sp, #16]
 4198 03de 0646     		mov	r6, r0
 4199 03e0 0F46     		mov	r7, r1
 4200 03e2 DDE92401 		ldrd	r0, [sp, #144]
 4201 03e6 A047     		blx	r4
 4202              	.LVL607:
 4203 03e8 0246     		mov	r2, r0
 4204 03ea 0B46     		mov	r3, r1
 4205 03ec 3046     		mov	r0, r6
 4206 03ee 3946     		mov	r1, r7
 4207 03f0 A847     		blx	r5
 4208              	.LVL608:
 4209 03f2 DDE90623 		ldrd	r2, [sp, #24]
 4210 03f6 0646     		mov	r6, r0
 4211 03f8 0F46     		mov	r7, r1
 4212 03fa DDE92A01 		ldrd	r0, [sp, #168]
 4213 03fe A047     		blx	r4
 4214              	.LVL609:
 4215 0400 0246     		mov	r2, r0
 4216 0402 0B46     		mov	r3, r1
 4217 0404 3046     		mov	r0, r6
 4218 0406 3946     		mov	r1, r7
 4219 0408 A847     		blx	r5
 4220              	.LVL610:
 4221 040a 8046     		mov	r8, r0
 4222 040c 8946     		mov	r9, r1
1201:/home/tienluong/workspace/atlantis_fw/AsicFwS2/include/matrix.h ****         dst[5]   = tmp[0] * mat[0] + tmp[7] * mat[2] + tmp[8]  * mat[3];
 4223              		.loc 1 1201 0
 4224 040e DDE92001 		ldrd	r0, [sp, #128]
 4225 0412 DDE90223 		ldrd	r2, [sp, #8]
 4226 0416 A047     		blx	r4
 4227              	.LVL611:
 4228 0418 DDE90423 		ldrd	r2, [sp, #16]
 4229 041c 0646     		mov	r6, r0
 4230 041e 0F46     		mov	r7, r1
 4231 0420 DDE92601 		ldrd	r0, [sp, #152]
 4232 0424 A047     		blx	r4
 4233              	.LVL612:
 4234 0426 0246     		mov	r2, r0
 4235 0428 0B46     		mov	r3, r1
 4236 042a 3046     		mov	r0, r6
 4237 042c 3946     		mov	r1, r7
 4238 042e A847     		blx	r5
 4239              	.LVL613:
 4240 0430 DDE90623 		ldrd	r2, [sp, #24]
 4241 0434 0646     		mov	r6, r0
 4242 0436 0F46     		mov	r7, r1
 4243 0438 DDE92801 		ldrd	r0, [sp, #160]
 4244 043c A047     		blx	r4
 4245              	.LVL614:
 4246 043e 0246     		mov	r2, r0
 4247 0440 0B46     		mov	r3, r1
 4248 0442 3046     		mov	r0, r6
 4249 0444 3946     		mov	r1, r7
 4250 0446 A847     		blx	r5
 4251              	.LVL615:
 4252 0448 0246     		mov	r2, r0
 4253 044a 0B46     		mov	r3, r1
 4254 044c 4046     		mov	r0, r8
 4255 044e 4946     		mov	r1, r9
 4256 0450 D847     		blx	fp
 4257              	.LVL616:
 4258 0452 40AB     		add	r3, sp, #256
 4259 0454 C3E90001 		strd	r0, [r3]
1202:/home/tienluong/workspace/atlantis_fw/AsicFwS2/include/matrix.h ****         dst[5]  -= tmp[1] * mat[0] + tmp[6] * mat[2] + tmp[9]  * mat[3];
 4260              		.loc 1 1202 0
 4261 0458 DDE90023 		ldrd	r2, [sp]
 4262 045c DDE92001 		ldrd	r0, [sp, #128]
 4263 0460 A047     		blx	r4
 4264              	.LVL617:
 4265 0462 DDE90423 		ldrd	r2, [sp, #16]
 4266 0466 0646     		mov	r6, r0
 4267 0468 0F46     		mov	r7, r1
 4268 046a DDE92E01 		ldrd	r0, [sp, #184]
 4269 046e A047     		blx	r4
 4270              	.LVL618:
 4271 0470 0246     		mov	r2, r0
 4272 0472 0B46     		mov	r3, r1
 4273 0474 3046     		mov	r0, r6
 4274 0476 3946     		mov	r1, r7
 4275 0478 A847     		blx	r5
 4276              	.LVL619:
 4277 047a DDE90623 		ldrd	r2, [sp, #24]
 4278 047e 0646     		mov	r6, r0
 4279 0480 0F46     		mov	r7, r1
 4280 0482 DDE93001 		ldrd	r0, [sp, #192]
 4281 0486 A047     		blx	r4
 4282              	.LVL620:
 4283 0488 0246     		mov	r2, r0
 4284 048a 0B46     		mov	r3, r1
 4285 048c 3046     		mov	r0, r6
 4286 048e 3946     		mov	r1, r7
 4287 0490 A847     		blx	r5
 4288              	.LVL621:
1203:/home/tienluong/workspace/atlantis_fw/AsicFwS2/include/matrix.h ****         dst[9]   = tmp[3] * mat[0] + tmp[6] * mat[1] + tmp[11] * mat[3];
 4289              		.loc 1 1203 0
 4290 0492 DDE90023 		ldrd	r2, [sp]
1202:/home/tienluong/workspace/atlantis_fw/AsicFwS2/include/matrix.h ****         dst[5]  -= tmp[1] * mat[0] + tmp[6] * mat[2] + tmp[9]  * mat[3];
 4291              		.loc 1 1202 0
 4292 0496 8046     		mov	r8, r0
 4293 0498 8946     		mov	r9, r1
1203:/home/tienluong/workspace/atlantis_fw/AsicFwS2/include/matrix.h ****         dst[9]   = tmp[3] * mat[0] + tmp[6] * mat[1] + tmp[11] * mat[3];
 4294              		.loc 1 1203 0
 4295 049a DDE92201 		ldrd	r0, [sp, #136]
 4296 049e A047     		blx	r4
 4297              	.LVL622:
 4298 04a0 DDE90423 		ldrd	r2, [sp, #16]
 4299 04a4 0646     		mov	r6, r0
 4300 04a6 0F46     		mov	r7, r1
 4301 04a8 DDE92C01 		ldrd	r0, [sp, #176]
 4302 04ac A047     		blx	r4
 4303              	.LVL623:
 4304 04ae 0246     		mov	r2, r0
 4305 04b0 0B46     		mov	r3, r1
 4306 04b2 3046     		mov	r0, r6
 4307 04b4 3946     		mov	r1, r7
 4308 04b6 A847     		blx	r5
 4309              	.LVL624:
 4310 04b8 DDE90623 		ldrd	r2, [sp, #24]
 4311 04bc 0646     		mov	r6, r0
 4312 04be 0F46     		mov	r7, r1
 4313 04c0 DDE93201 		ldrd	r0, [sp, #200]
 4314 04c4 A047     		blx	r4
 4315              	.LVL625:
 4316 04c6 0246     		mov	r2, r0
 4317 04c8 0B46     		mov	r3, r1
 4318 04ca 3046     		mov	r0, r6
 4319 04cc 3946     		mov	r1, r7
 4320 04ce A847     		blx	r5
 4321              	.LVL626:
 4322 04d0 0246     		mov	r2, r0
 4323 04d2 0B46     		mov	r3, r1
 4324 04d4 4046     		mov	r0, r8
 4325 04d6 4946     		mov	r1, r9
 4326 04d8 D847     		blx	fp
 4327              	.LVL627:
 4328 04da 48AB     		add	r3, sp, #288
 4329 04dc C3E90001 		strd	r0, [r3]
1204:/home/tienluong/workspace/atlantis_fw/AsicFwS2/include/matrix.h ****         dst[9]  -= tmp[2] * mat[0] + tmp[7] * mat[1] + tmp[10] * mat[3];
 4330              		.loc 1 1204 0
 4331 04e0 DDE90023 		ldrd	r2, [sp]
 4332 04e4 DDE92601 		ldrd	r0, [sp, #152]
 4333 04e8 A047     		blx	r4
 4334              	.LVL628:
 4335 04ea DDE90223 		ldrd	r2, [sp, #8]
 4336 04ee 0646     		mov	r6, r0
 4337 04f0 0F46     		mov	r7, r1
 4338 04f2 DDE92C01 		ldrd	r0, [sp, #176]
 4339 04f6 A047     		blx	r4
 4340              	.LVL629:
 4341 04f8 0246     		mov	r2, r0
 4342 04fa 0B46     		mov	r3, r1
 4343 04fc 3046     		mov	r0, r6
 4344 04fe 3946     		mov	r1, r7
 4345 0500 A847     		blx	r5
 4346              	.LVL630:
 4347 0502 DDE90623 		ldrd	r2, [sp, #24]
 4348 0506 0646     		mov	r6, r0
 4349 0508 0F46     		mov	r7, r1
 4350 050a DDE93601 		ldrd	r0, [sp, #216]
 4351 050e A047     		blx	r4
 4352              	.LVL631:
 4353 0510 0246     		mov	r2, r0
 4354 0512 0B46     		mov	r3, r1
 4355 0514 3046     		mov	r0, r6
 4356 0516 3946     		mov	r1, r7
 4357 0518 A847     		blx	r5
 4358              	.LVL632:
1205:/home/tienluong/workspace/atlantis_fw/AsicFwS2/include/matrix.h ****         dst[13]  = tmp[4] * mat[0] + tmp[9] * mat[1] + tmp[10] * mat[2];
 4359              		.loc 1 1205 0
 4360 051a DDE90023 		ldrd	r2, [sp]
1204:/home/tienluong/workspace/atlantis_fw/AsicFwS2/include/matrix.h ****         dst[9]  -= tmp[2] * mat[0] + tmp[7] * mat[1] + tmp[10] * mat[3];
 4361              		.loc 1 1204 0
 4362 051e 8046     		mov	r8, r0
 4363 0520 8946     		mov	r9, r1
1205:/home/tienluong/workspace/atlantis_fw/AsicFwS2/include/matrix.h ****         dst[13]  = tmp[4] * mat[0] + tmp[9] * mat[1] + tmp[10] * mat[2];
 4364              		.loc 1 1205 0
 4365 0522 DDE92401 		ldrd	r0, [sp, #144]
 4366 0526 A047     		blx	r4
 4367              	.LVL633:
 4368 0528 DDE90223 		ldrd	r2, [sp, #8]
 4369 052c 0646     		mov	r6, r0
 4370 052e 0F46     		mov	r7, r1
 4371 0530 DDE92E01 		ldrd	r0, [sp, #184]
 4372 0534 A047     		blx	r4
 4373              	.LVL634:
 4374 0536 0246     		mov	r2, r0
 4375 0538 0B46     		mov	r3, r1
 4376 053a 3046     		mov	r0, r6
 4377 053c 3946     		mov	r1, r7
 4378 053e A847     		blx	r5
 4379              	.LVL635:
 4380 0540 DDE90623 		ldrd	r2, [sp, #24]
 4381 0544 0646     		mov	r6, r0
 4382 0546 0F46     		mov	r7, r1
 4383 0548 DDE93401 		ldrd	r0, [sp, #208]
 4384 054c A047     		blx	r4
 4385              	.LVL636:
 4386 054e 0246     		mov	r2, r0
 4387 0550 0B46     		mov	r3, r1
 4388 0552 3046     		mov	r0, r6
 4389 0554 3946     		mov	r1, r7
 4390 0556 A847     		blx	r5
 4391              	.LVL637:
 4392 0558 0246     		mov	r2, r0
 4393 055a 0B46     		mov	r3, r1
 4394 055c 4046     		mov	r0, r8
 4395 055e 4946     		mov	r1, r9
 4396 0560 D847     		blx	fp
 4397              	.LVL638:
 4398 0562 50AB     		add	r3, sp, #320
 4399 0564 C3E90001 		strd	r0, [r3]
1206:/home/tienluong/workspace/atlantis_fw/AsicFwS2/include/matrix.h ****         dst[13] -= tmp[5] * mat[0] + tmp[8] * mat[1] + tmp[11] * mat[2];
 4400              		.loc 1 1206 0
 4401 0568 DDE90023 		ldrd	r2, [sp]
 4402 056c DDE92801 		ldrd	r0, [sp, #160]
 4403 0570 A047     		blx	r4
 4404              	.LVL639:
 4405 0572 DDE90223 		ldrd	r2, [sp, #8]
 4406 0576 0646     		mov	r6, r0
 4407 0578 0F46     		mov	r7, r1
 4408 057a DDE93201 		ldrd	r0, [sp, #200]
 4409 057e A047     		blx	r4
 4410              	.LVL640:
 4411 0580 0246     		mov	r2, r0
 4412 0582 0B46     		mov	r3, r1
 4413 0584 3046     		mov	r0, r6
 4414 0586 3946     		mov	r1, r7
 4415 0588 A847     		blx	r5
 4416              	.LVL641:
 4417 058a 0646     		mov	r6, r0
 4418 058c 0F46     		mov	r7, r1
 4419 058e DDE93401 		ldrd	r0, [sp, #208]
 4420 0592 DDE90423 		ldrd	r2, [sp, #16]
 4421 0596 A047     		blx	r4
 4422              	.LVL642:
 4423 0598 0246     		mov	r2, r0
 4424 059a 0B46     		mov	r3, r1
 4425 059c 3046     		mov	r0, r6
 4426 059e 3946     		mov	r1, r7
 4427 05a0 A847     		blx	r5
 4428              	.LVL643:
1207:/home/tienluong/workspace/atlantis_fw/AsicFwS2/include/matrix.h **** 
 4429              		.loc 1 1207 0
 4430 05a2 DDE90023 		ldrd	r2, [sp]
1206:/home/tienluong/workspace/atlantis_fw/AsicFwS2/include/matrix.h ****         dst[13] -= tmp[5] * mat[0] + tmp[8] * mat[1] + tmp[11] * mat[2];
 4431              		.loc 1 1206 0
 4432 05a6 8046     		mov	r8, r0
 4433 05a8 8946     		mov	r9, r1
1207:/home/tienluong/workspace/atlantis_fw/AsicFwS2/include/matrix.h **** 
 4434              		.loc 1 1207 0
 4435 05aa DDE92A01 		ldrd	r0, [sp, #168]
 4436 05ae A047     		blx	r4
 4437              	.LVL644:
 4438 05b0 DDE90223 		ldrd	r2, [sp, #8]
 4439 05b4 0646     		mov	r6, r0
 4440 05b6 0F46     		mov	r7, r1
 4441 05b8 DDE93001 		ldrd	r0, [sp, #192]
 4442 05bc A047     		blx	r4
 4443              	.LVL645:
 4444 05be 0246     		mov	r2, r0
 4445 05c0 0B46     		mov	r3, r1
 4446 05c2 3046     		mov	r0, r6
 4447 05c4 3946     		mov	r1, r7
 4448 05c6 A847     		blx	r5
 4449              	.LVL646:
 4450 05c8 DDE90423 		ldrd	r2, [sp, #16]
 4451 05cc 0646     		mov	r6, r0
 4452 05ce 0F46     		mov	r7, r1
 4453 05d0 DDE93601 		ldrd	r0, [sp, #216]
 4454 05d4 A047     		blx	r4
 4455              	.LVL647:
 4456 05d6 0246     		mov	r2, r0
 4457 05d8 0B46     		mov	r3, r1
 4458 05da 3046     		mov	r0, r6
 4459 05dc 3946     		mov	r1, r7
 4460 05de A847     		blx	r5
 4461              	.LVL648:
 4462 05e0 0246     		mov	r2, r0
 4463 05e2 0B46     		mov	r3, r1
 4464 05e4 4046     		mov	r0, r8
 4465 05e6 4946     		mov	r1, r9
 4466 05e8 D847     		blx	fp
 4467              	.LVL649:
 4468 05ea 58AB     		add	r3, sp, #352
 4469 05ec C3E90001 		strd	r0, [r3]
1210:/home/tienluong/workspace/atlantis_fw/AsicFwS2/include/matrix.h ****         tmp[1] = mat[3] * mat[6];
 4470              		.loc 1 1210 0
 4471 05f0 DDE91C23 		ldrd	r2, [sp, #112]
 4472 05f4 DDE90401 		ldrd	r0, [sp, #16]
 4473 05f8 A047     		blx	r4
 4474              	.LVL650:
1211:/home/tienluong/workspace/atlantis_fw/AsicFwS2/include/matrix.h ****         tmp[2] = mat[1] * mat[7];
 4475              		.loc 1 1211 0
 4476 05fa DDE91A23 		ldrd	r2, [sp, #104]
1210:/home/tienluong/workspace/atlantis_fw/AsicFwS2/include/matrix.h ****         tmp[1] = mat[3] * mat[6];
 4477              		.loc 1 1210 0
 4478 05fe CDE92001 		strd	r0, [sp, #128]
 4479              	.LVL651:
1211:/home/tienluong/workspace/atlantis_fw/AsicFwS2/include/matrix.h ****         tmp[2] = mat[1] * mat[7];
 4480              		.loc 1 1211 0
 4481 0602 DDE90601 		ldrd	r0, [sp, #24]
 4482              	.LVL652:
 4483 0606 A047     		blx	r4
 4484              	.LVL653:
1212:/home/tienluong/workspace/atlantis_fw/AsicFwS2/include/matrix.h ****         tmp[3] = mat[3] * mat[5];
 4485              		.loc 1 1212 0
 4486 0608 DDE91C23 		ldrd	r2, [sp, #112]
1211:/home/tienluong/workspace/atlantis_fw/AsicFwS2/include/matrix.h ****         tmp[2] = mat[1] * mat[7];
 4487              		.loc 1 1211 0
 4488 060c CDE92201 		strd	r0, [sp, #136]
 4489              	.LVL654:
1212:/home/tienluong/workspace/atlantis_fw/AsicFwS2/include/matrix.h ****         tmp[3] = mat[3] * mat[5];
 4490              		.loc 1 1212 0
 4491 0610 DDE90201 		ldrd	r0, [sp, #8]
 4492              	.LVL655:
 4493 0614 A047     		blx	r4
 4494              	.LVL656:
1213:/home/tienluong/workspace/atlantis_fw/AsicFwS2/include/matrix.h ****         tmp[4] = mat[1] * mat[6];
 4495              		.loc 1 1213 0
 4496 0616 DDE91823 		ldrd	r2, [sp, #96]
1212:/home/tienluong/workspace/atlantis_fw/AsicFwS2/include/matrix.h ****         tmp[3] = mat[3] * mat[5];
 4497              		.loc 1 1212 0
 4498 061a CDE92401 		strd	r0, [sp, #144]
 4499              	.LVL657:
1213:/home/tienluong/workspace/atlantis_fw/AsicFwS2/include/matrix.h ****         tmp[4] = mat[1] * mat[6];
 4500              		.loc 1 1213 0
 4501 061e DDE90601 		ldrd	r0, [sp, #24]
 4502              	.LVL658:
 4503 0622 A047     		blx	r4
 4504              	.LVL659:
1214:/home/tienluong/workspace/atlantis_fw/AsicFwS2/include/matrix.h ****         tmp[5] = mat[2] * mat[5];
 4505              		.loc 1 1214 0
 4506 0624 DDE91A23 		ldrd	r2, [sp, #104]
1213:/home/tienluong/workspace/atlantis_fw/AsicFwS2/include/matrix.h ****         tmp[4] = mat[1] * mat[6];
 4507              		.loc 1 1213 0
 4508 0628 CDE92601 		strd	r0, [sp, #152]
 4509              	.LVL660:
1214:/home/tienluong/workspace/atlantis_fw/AsicFwS2/include/matrix.h ****         tmp[5] = mat[2] * mat[5];
 4510              		.loc 1 1214 0
 4511 062c DDE90201 		ldrd	r0, [sp, #8]
 4512              	.LVL661:
 4513 0630 A047     		blx	r4
 4514              	.LVL662:
1215:/home/tienluong/workspace/atlantis_fw/AsicFwS2/include/matrix.h ****         tmp[6] = mat[0] * mat[7];
 4515              		.loc 1 1215 0
 4516 0632 DDE91823 		ldrd	r2, [sp, #96]
 4517 0636 03E0     		b	.L109
 4518              	.L110:
 4519              		.align	2
 4520              	.L108:
 4521 0638 00000000 		.word	__aeabi_ddiv
 4522 063c 0000F03F 		.word	1072693248
 4523              	.L109:
1214:/home/tienluong/workspace/atlantis_fw/AsicFwS2/include/matrix.h ****         tmp[5] = mat[2] * mat[5];
 4524              		.loc 1 1214 0
 4525 0640 CDE92801 		strd	r0, [sp, #160]
1215:/home/tienluong/workspace/atlantis_fw/AsicFwS2/include/matrix.h ****         tmp[6] = mat[0] * mat[7];
 4526              		.loc 1 1215 0
 4527 0644 DDE90401 		ldrd	r0, [sp, #16]
 4528 0648 A047     		blx	r4
 4529              	.LVL663:
1216:/home/tienluong/workspace/atlantis_fw/AsicFwS2/include/matrix.h ****         tmp[7] = mat[3] * mat[4];
 4530              		.loc 1 1216 0
 4531 064a DDE91C23 		ldrd	r2, [sp, #112]
1215:/home/tienluong/workspace/atlantis_fw/AsicFwS2/include/matrix.h ****         tmp[6] = mat[0] * mat[7];
 4532              		.loc 1 1215 0
 4533 064e CDE92A01 		strd	r0, [sp, #168]
1216:/home/tienluong/workspace/atlantis_fw/AsicFwS2/include/matrix.h ****         tmp[7] = mat[3] * mat[4];
 4534              		.loc 1 1216 0
 4535 0652 DDE90001 		ldrd	r0, [sp]
 4536 0656 A047     		blx	r4
 4537              	.LVL664:
1217:/home/tienluong/workspace/atlantis_fw/AsicFwS2/include/matrix.h ****         tmp[8] = mat[0] * mat[6];
 4538              		.loc 1 1217 0
 4539 0658 DDE91E23 		ldrd	r2, [sp, #120]
1216:/home/tienluong/workspace/atlantis_fw/AsicFwS2/include/matrix.h ****         tmp[7] = mat[3] * mat[4];
 4540              		.loc 1 1216 0
 4541 065c CDE91C01 		strd	r0, [sp, #112]
1217:/home/tienluong/workspace/atlantis_fw/AsicFwS2/include/matrix.h ****         tmp[8] = mat[0] * mat[6];
 4542              		.loc 1 1217 0
 4543 0660 DDE90601 		ldrd	r0, [sp, #24]
 4544 0664 A047     		blx	r4
 4545              	.LVL665:
1218:/home/tienluong/workspace/atlantis_fw/AsicFwS2/include/matrix.h ****         tmp[9] = mat[2] * mat[4];
 4546              		.loc 1 1218 0
 4547 0666 DDE91A23 		ldrd	r2, [sp, #104]
1217:/home/tienluong/workspace/atlantis_fw/AsicFwS2/include/matrix.h ****         tmp[8] = mat[0] * mat[6];
 4548              		.loc 1 1217 0
 4549 066a CDE90601 		strd	r0, [sp, #24]
1218:/home/tienluong/workspace/atlantis_fw/AsicFwS2/include/matrix.h ****         tmp[9] = mat[2] * mat[4];
 4550              		.loc 1 1218 0
 4551 066e DDE90001 		ldrd	r0, [sp]
 4552 0672 A047     		blx	r4
 4553              	.LVL666:
1219:/home/tienluong/workspace/atlantis_fw/AsicFwS2/include/matrix.h ****         tmp[10] = mat[0] * mat[5];
 4554              		.loc 1 1219 0
 4555 0674 DDE91E23 		ldrd	r2, [sp, #120]
1218:/home/tienluong/workspace/atlantis_fw/AsicFwS2/include/matrix.h ****         tmp[9] = mat[2] * mat[4];
 4556              		.loc 1 1218 0
 4557 0678 CDE91A01 		strd	r0, [sp, #104]
1219:/home/tienluong/workspace/atlantis_fw/AsicFwS2/include/matrix.h ****         tmp[10] = mat[0] * mat[5];
 4558              		.loc 1 1219 0
 4559 067c DDE90401 		ldrd	r0, [sp, #16]
 4560 0680 A047     		blx	r4
 4561              	.LVL667:
1220:/home/tienluong/workspace/atlantis_fw/AsicFwS2/include/matrix.h ****         tmp[11] = mat[1] * mat[4];
 4562              		.loc 1 1220 0
 4563 0682 DDE91823 		ldrd	r2, [sp, #96]
1219:/home/tienluong/workspace/atlantis_fw/AsicFwS2/include/matrix.h ****         tmp[10] = mat[0] * mat[5];
 4564              		.loc 1 1219 0
 4565 0686 CDE90401 		strd	r0, [sp, #16]
1220:/home/tienluong/workspace/atlantis_fw/AsicFwS2/include/matrix.h ****         tmp[11] = mat[1] * mat[4];
 4566              		.loc 1 1220 0
 4567 068a DDE90001 		ldrd	r0, [sp]
 4568 068e A047     		blx	r4
 4569              	.LVL668:
1221:/home/tienluong/workspace/atlantis_fw/AsicFwS2/include/matrix.h **** 
 4570              		.loc 1 1221 0
 4571 0690 DDE91E23 		ldrd	r2, [sp, #120]
1220:/home/tienluong/workspace/atlantis_fw/AsicFwS2/include/matrix.h ****         tmp[11] = mat[1] * mat[4];
 4572              		.loc 1 1220 0
 4573 0694 CDE90001 		strd	r0, [sp]
1221:/home/tienluong/workspace/atlantis_fw/AsicFwS2/include/matrix.h **** 
 4574              		.loc 1 1221 0
 4575 0698 DDE90201 		ldrd	r0, [sp, #8]
 4576 069c A047     		blx	r4
 4577              	.LVL669:
1224:/home/tienluong/workspace/atlantis_fw/AsicFwS2/include/matrix.h ****         dst[2]  -= tmp[1]  * mat[13] + tmp[2]  * mat[14] + tmp[5]  * mat[15];
 4578              		.loc 1 1224 0
 4579 069e DDE91223 		ldrd	r2, [sp, #72]
1221:/home/tienluong/workspace/atlantis_fw/AsicFwS2/include/matrix.h **** 
 4580              		.loc 1 1221 0
 4581 06a2 CDE90201 		strd	r0, [sp, #8]
1224:/home/tienluong/workspace/atlantis_fw/AsicFwS2/include/matrix.h ****         dst[2]  -= tmp[1]  * mat[13] + tmp[2]  * mat[14] + tmp[5]  * mat[15];
 4582              		.loc 1 1224 0
 4583 06a6 DDE92001 		ldrd	r0, [sp, #128]
 4584 06aa A047     		blx	r4
 4585              	.LVL670:
 4586 06ac DDE90E23 		ldrd	r2, [sp, #56]
 4587 06b0 0646     		mov	r6, r0
 4588 06b2 0F46     		mov	r7, r1
 4589 06b4 DDE92601 		ldrd	r0, [sp, #152]
 4590 06b8 A047     		blx	r4
 4591              	.LVL671:
 4592 06ba 0246     		mov	r2, r0
 4593 06bc 0B46     		mov	r3, r1
 4594 06be 3046     		mov	r0, r6
 4595 06c0 3946     		mov	r1, r7
 4596 06c2 A847     		blx	r5
 4597              	.LVL672:
 4598 06c4 DDE90A23 		ldrd	r2, [sp, #40]
 4599 06c8 0646     		mov	r6, r0
 4600 06ca 0F46     		mov	r7, r1
 4601 06cc DDE92801 		ldrd	r0, [sp, #160]
 4602 06d0 A047     		blx	r4
 4603              	.LVL673:
 4604 06d2 0246     		mov	r2, r0
 4605 06d4 0B46     		mov	r3, r1
 4606 06d6 3046     		mov	r0, r6
 4607 06d8 3946     		mov	r1, r7
 4608 06da A847     		blx	r5
 4609              	.LVL674:
1225:/home/tienluong/workspace/atlantis_fw/AsicFwS2/include/matrix.h ****         dst[3]   = tmp[2]  * mat[10] + tmp[5]  * mat[11] + tmp[1]  * mat[9];
 4610              		.loc 1 1225 0
 4611 06dc DDE91223 		ldrd	r2, [sp, #72]
1224:/home/tienluong/workspace/atlantis_fw/AsicFwS2/include/matrix.h ****         dst[2]  -= tmp[1]  * mat[13] + tmp[2]  * mat[14] + tmp[5]  * mat[15];
 4612              		.loc 1 1224 0
 4613 06e0 8046     		mov	r8, r0
 4614 06e2 8946     		mov	r9, r1
1225:/home/tienluong/workspace/atlantis_fw/AsicFwS2/include/matrix.h ****         dst[3]   = tmp[2]  * mat[10] + tmp[5]  * mat[11] + tmp[1]  * mat[9];
 4615              		.loc 1 1225 0
 4616 06e4 DDE92201 		ldrd	r0, [sp, #136]
 4617 06e8 A047     		blx	r4
 4618              	.LVL675:
 4619 06ea 0646     		mov	r6, r0
 4620 06ec 0F46     		mov	r7, r1
 4621 06ee DDE92401 		ldrd	r0, [sp, #144]
 4622 06f2 DDE90E23 		ldrd	r2, [sp, #56]
 4623 06f6 A047     		blx	r4
 4624              	.LVL676:
 4625 06f8 0246     		mov	r2, r0
 4626 06fa 0B46     		mov	r3, r1
 4627 06fc 3046     		mov	r0, r6
 4628 06fe 3946     		mov	r1, r7
 4629 0700 A847     		blx	r5
 4630              	.LVL677:
 4631 0702 DDE90A23 		ldrd	r2, [sp, #40]
 4632 0706 0646     		mov	r6, r0
 4633 0708 0F46     		mov	r7, r1
 4634 070a DDE92A01 		ldrd	r0, [sp, #168]
 4635 070e A047     		blx	r4
 4636              	.LVL678:
 4637 0710 0246     		mov	r2, r0
 4638 0712 0B46     		mov	r3, r1
 4639 0714 3046     		mov	r0, r6
 4640 0716 3946     		mov	r1, r7
 4641 0718 A847     		blx	r5
 4642              	.LVL679:
 4643 071a 0246     		mov	r2, r0
 4644 071c 0B46     		mov	r3, r1
 4645 071e 4046     		mov	r0, r8
 4646 0720 4946     		mov	r1, r9
 4647 0722 D847     		blx	fp
 4648              	.LVL680:
 4649 0724 42AB     		add	r3, sp, #264
 4650 0726 C3E90001 		strd	r0, [r3]
1226:/home/tienluong/workspace/atlantis_fw/AsicFwS2/include/matrix.h ****         dst[3]  -= tmp[4]  * mat[11] + tmp[0]  * mat[9]  + tmp[3]  * mat[10];
 4651              		.loc 1 1226 0
 4652 072a DDE90823 		ldrd	r2, [sp, #32]
 4653 072e DDE92401 		ldrd	r0, [sp, #144]
 4654 0732 A047     		blx	r4
 4655              	.LVL681:
 4656 0734 DDE90C23 		ldrd	r2, [sp, #48]
 4657 0738 0646     		mov	r6, r0
 4658 073a 0F46     		mov	r7, r1
 4659 073c DDE92A01 		ldrd	r0, [sp, #168]
 4660 0740 A047     		blx	r4
 4661              	.LVL682:
 4662 0742 0246     		mov	r2, r0
 4663 0744 0B46     		mov	r3, r1
 4664 0746 3046     		mov	r0, r6
 4665 0748 3946     		mov	r1, r7
 4666 074a A847     		blx	r5
 4667              	.LVL683:
 4668 074c DDE91023 		ldrd	r2, [sp, #64]
 4669 0750 0646     		mov	r6, r0
 4670 0752 0F46     		mov	r7, r1
 4671 0754 DDE92201 		ldrd	r0, [sp, #136]
 4672 0758 A047     		blx	r4
 4673              	.LVL684:
 4674 075a 0246     		mov	r2, r0
 4675 075c 0B46     		mov	r3, r1
 4676 075e 3046     		mov	r0, r6
 4677 0760 3946     		mov	r1, r7
 4678 0762 A847     		blx	r5
 4679              	.LVL685:
1227:/home/tienluong/workspace/atlantis_fw/AsicFwS2/include/matrix.h ****         dst[6]   = tmp[1]  * mat[12] + tmp[6]  * mat[14] + tmp[9]  * mat[15];
 4680              		.loc 1 1227 0
 4681 0764 DDE90C23 		ldrd	r2, [sp, #48]
1226:/home/tienluong/workspace/atlantis_fw/AsicFwS2/include/matrix.h ****         dst[3]  -= tmp[4]  * mat[11] + tmp[0]  * mat[9]  + tmp[3]  * mat[10];
 4682              		.loc 1 1226 0
 4683 0768 8046     		mov	r8, r0
 4684 076a 8946     		mov	r9, r1
1227:/home/tienluong/workspace/atlantis_fw/AsicFwS2/include/matrix.h ****         dst[6]   = tmp[1]  * mat[12] + tmp[6]  * mat[14] + tmp[9]  * mat[15];
 4685              		.loc 1 1227 0
 4686 076c DDE92801 		ldrd	r0, [sp, #160]
 4687 0770 A047     		blx	r4
 4688              	.LVL686:
 4689 0772 DDE91023 		ldrd	r2, [sp, #64]
 4690 0776 0646     		mov	r6, r0
 4691 0778 0F46     		mov	r7, r1
 4692 077a DDE92001 		ldrd	r0, [sp, #128]
 4693 077e A047     		blx	r4
 4694              	.LVL687:
 4695 0780 0246     		mov	r2, r0
 4696 0782 0B46     		mov	r3, r1
 4697 0784 3046     		mov	r0, r6
 4698 0786 3946     		mov	r1, r7
 4699 0788 A847     		blx	r5
 4700              	.LVL688:
 4701 078a DDE90823 		ldrd	r2, [sp, #32]
 4702 078e 0646     		mov	r6, r0
 4703 0790 0F46     		mov	r7, r1
 4704 0792 DDE92601 		ldrd	r0, [sp, #152]
 4705 0796 A047     		blx	r4
 4706              	.LVL689:
 4707 0798 0246     		mov	r2, r0
 4708 079a 0B46     		mov	r3, r1
 4709 079c 3046     		mov	r0, r6
 4710 079e 3946     		mov	r1, r7
 4711 07a0 A847     		blx	r5
 4712              	.LVL690:
 4713 07a2 0246     		mov	r2, r0
 4714 07a4 0B46     		mov	r3, r1
 4715 07a6 4046     		mov	r0, r8
 4716 07a8 4946     		mov	r1, r9
 4717 07aa D847     		blx	fp
 4718              	.LVL691:
 4719 07ac 44AB     		add	r3, sp, #272
 4720 07ae C3E90001 		strd	r0, [r3]
1228:/home/tienluong/workspace/atlantis_fw/AsicFwS2/include/matrix.h ****         dst[6]  -= tmp[0]  * mat[12] + tmp[7]  * mat[14] + tmp[8]  * mat[15];
 4721              		.loc 1 1228 0
 4722 07b2 DDE92201 		ldrd	r0, [sp, #136]
 4723 07b6 DDE91623 		ldrd	r2, [sp, #88]
 4724 07ba A047     		blx	r4
 4725              	.LVL692:
 4726 07bc DDE90E23 		ldrd	r2, [sp, #56]
 4727 07c0 0646     		mov	r6, r0
 4728 07c2 0F46     		mov	r7, r1
 4729 07c4 DDE91C01 		ldrd	r0, [sp, #112]
 4730 07c8 A047     		blx	r4
 4731              	.LVL693:
 4732 07ca 0246     		mov	r2, r0
 4733 07cc 0B46     		mov	r3, r1
 4734 07ce 3046     		mov	r0, r6
 4735 07d0 3946     		mov	r1, r7
 4736 07d2 A847     		blx	r5
 4737              	.LVL694:
 4738 07d4 DDE90A23 		ldrd	r2, [sp, #40]
 4739 07d8 0646     		mov	r6, r0
 4740 07da 0F46     		mov	r7, r1
 4741 07dc DDE90401 		ldrd	r0, [sp, #16]
 4742 07e0 A047     		blx	r4
 4743              	.LVL695:
 4744 07e2 0246     		mov	r2, r0
 4745 07e4 0B46     		mov	r3, r1
 4746 07e6 3046     		mov	r0, r6
 4747 07e8 3946     		mov	r1, r7
 4748 07ea A847     		blx	r5
 4749              	.LVL696:
1229:/home/tienluong/workspace/atlantis_fw/AsicFwS2/include/matrix.h ****         dst[7]   = tmp[8]  * mat[11] + tmp[0]  * mat[8]  + tmp[7]  * mat[10];
 4750              		.loc 1 1229 0
 4751 07ec DDE91623 		ldrd	r2, [sp, #88]
1228:/home/tienluong/workspace/atlantis_fw/AsicFwS2/include/matrix.h ****         dst[6]  -= tmp[0]  * mat[12] + tmp[7]  * mat[14] + tmp[8]  * mat[15];
 4752              		.loc 1 1228 0
 4753 07f0 8046     		mov	r8, r0
 4754 07f2 8946     		mov	r9, r1
1229:/home/tienluong/workspace/atlantis_fw/AsicFwS2/include/matrix.h ****         dst[7]   = tmp[8]  * mat[11] + tmp[0]  * mat[8]  + tmp[7]  * mat[10];
 4755              		.loc 1 1229 0
 4756 07f4 DDE92001 		ldrd	r0, [sp, #128]
 4757 07f8 A047     		blx	r4
 4758              	.LVL697:
 4759 07fa DDE90E23 		ldrd	r2, [sp, #56]
 4760 07fe 0646     		mov	r6, r0
 4761 0800 0F46     		mov	r7, r1
 4762 0802 DDE90601 		ldrd	r0, [sp, #24]
 4763 0806 A047     		blx	r4
 4764              	.LVL698:
 4765 0808 0246     		mov	r2, r0
 4766 080a 0B46     		mov	r3, r1
 4767 080c 3046     		mov	r0, r6
 4768 080e 3946     		mov	r1, r7
 4769 0810 A847     		blx	r5
 4770              	.LVL699:
 4771 0812 DDE90A23 		ldrd	r2, [sp, #40]
 4772 0816 0646     		mov	r6, r0
 4773 0818 0F46     		mov	r7, r1
 4774 081a DDE91A01 		ldrd	r0, [sp, #104]
 4775 081e A047     		blx	r4
 4776              	.LVL700:
 4777 0820 0246     		mov	r2, r0
 4778 0822 0B46     		mov	r3, r1
 4779 0824 3046     		mov	r0, r6
 4780 0826 3946     		mov	r1, r7
 4781 0828 A847     		blx	r5
 4782              	.LVL701:
 4783 082a 0246     		mov	r2, r0
 4784 082c 0B46     		mov	r3, r1
 4785 082e 4046     		mov	r0, r8
 4786 0830 4946     		mov	r1, r9
 4787 0832 D847     		blx	fp
 4788              	.LVL702:
 4789 0834 4AAB     		add	r3, sp, #296
 4790 0836 C3E90001 		strd	r0, [r3]
1230:/home/tienluong/workspace/atlantis_fw/AsicFwS2/include/matrix.h ****         dst[7]  -= tmp[6]  * mat[10] + tmp[9]  * mat[11] + tmp[1]  * mat[8];
 4791              		.loc 1 1230 0
 4792 083a DDE90C23 		ldrd	r2, [sp, #48]
 4793 083e DDE91A01 		ldrd	r0, [sp, #104]
 4794 0842 A047     		blx	r4
 4795              	.LVL703:
 4796 0844 DDE91423 		ldrd	r2, [sp, #80]
 4797 0848 0646     		mov	r6, r0
 4798 084a 0F46     		mov	r7, r1
 4799 084c DDE92001 		ldrd	r0, [sp, #128]
 4800 0850 A047     		blx	r4
 4801              	.LVL704:
 4802 0852 0246     		mov	r2, r0
 4803 0854 0B46     		mov	r3, r1
 4804 0856 3046     		mov	r0, r6
 4805 0858 3946     		mov	r1, r7
 4806 085a A847     		blx	r5
 4807              	.LVL705:
 4808 085c DDE90823 		ldrd	r2, [sp, #32]
 4809 0860 0646     		mov	r6, r0
 4810 0862 0F46     		mov	r7, r1
 4811 0864 DDE90601 		ldrd	r0, [sp, #24]
 4812 0868 A047     		blx	r4
 4813              	.LVL706:
 4814 086a 0246     		mov	r2, r0
 4815 086c 0B46     		mov	r3, r1
 4816 086e 3046     		mov	r0, r6
 4817 0870 3946     		mov	r1, r7
 4818 0872 A847     		blx	r5
 4819              	.LVL707:
1231:/home/tienluong/workspace/atlantis_fw/AsicFwS2/include/matrix.h ****         dst[10]  = tmp[2]  * mat[12] + tmp[7]  * mat[13] + tmp[10] * mat[15];
 4820              		.loc 1 1231 0
 4821 0874 DDE90823 		ldrd	r2, [sp, #32]
1230:/home/tienluong/workspace/atlantis_fw/AsicFwS2/include/matrix.h ****         dst[7]  -= tmp[6]  * mat[10] + tmp[9]  * mat[11] + tmp[1]  * mat[8];
 4822              		.loc 1 1230 0
 4823 0878 8046     		mov	r8, r0
 4824 087a 8946     		mov	r9, r1
1231:/home/tienluong/workspace/atlantis_fw/AsicFwS2/include/matrix.h ****         dst[10]  = tmp[2]  * mat[12] + tmp[7]  * mat[13] + tmp[10] * mat[15];
 4825              		.loc 1 1231 0
 4826 087c DDE91C01 		ldrd	r0, [sp, #112]
 4827 0880 A047     		blx	r4
 4828              	.LVL708:
 4829 0882 DDE90C23 		ldrd	r2, [sp, #48]
 4830 0886 0646     		mov	r6, r0
 4831 0888 0F46     		mov	r7, r1
 4832 088a DDE90401 		ldrd	r0, [sp, #16]
 4833 088e A047     		blx	r4
 4834              	.LVL709:
 4835 0890 0246     		mov	r2, r0
 4836 0892 0B46     		mov	r3, r1
 4837 0894 3046     		mov	r0, r6
 4838 0896 3946     		mov	r1, r7
 4839 0898 A847     		blx	r5
 4840              	.LVL710:
 4841 089a DDE91423 		ldrd	r2, [sp, #80]
 4842 089e 0646     		mov	r6, r0
 4843 08a0 0F46     		mov	r7, r1
 4844 08a2 DDE92201 		ldrd	r0, [sp, #136]
 4845 08a6 A047     		blx	r4
 4846              	.LVL711:
 4847 08a8 0246     		mov	r2, r0
 4848 08aa 0B46     		mov	r3, r1
 4849 08ac 3046     		mov	r0, r6
 4850 08ae 3946     		mov	r1, r7
 4851 08b0 A847     		blx	r5
 4852              	.LVL712:
 4853 08b2 0246     		mov	r2, r0
 4854 08b4 0B46     		mov	r3, r1
 4855 08b6 4046     		mov	r0, r8
 4856 08b8 4946     		mov	r1, r9
 4857 08ba D847     		blx	fp
 4858              	.LVL713:
 4859 08bc 4CAB     		add	r3, sp, #304
 4860 08be C3E90001 		strd	r0, [r3]
1232:/home/tienluong/workspace/atlantis_fw/AsicFwS2/include/matrix.h ****         dst[10] -= tmp[3]  * mat[12] + tmp[6]  * mat[13] + tmp[11] * mat[15];
 4861              		.loc 1 1232 0
 4862 08c2 DDE91623 		ldrd	r2, [sp, #88]
 4863 08c6 DDE92401 		ldrd	r0, [sp, #144]
 4864 08ca A047     		blx	r4
 4865              	.LVL714:
 4866 08cc DDE91223 		ldrd	r2, [sp, #72]
 4867 08d0 0646     		mov	r6, r0
 4868 08d2 0F46     		mov	r7, r1
 4869 08d4 DDE90601 		ldrd	r0, [sp, #24]
 4870 08d8 A047     		blx	r4
 4871              	.LVL715:
 4872 08da 0246     		mov	r2, r0
 4873 08dc 0B46     		mov	r3, r1
 4874 08de 3046     		mov	r0, r6
 4875 08e0 3946     		mov	r1, r7
 4876 08e2 A847     		blx	r5
 4877              	.LVL716:
 4878 08e4 DDE90A23 		ldrd	r2, [sp, #40]
 4879 08e8 0646     		mov	r6, r0
 4880 08ea 0F46     		mov	r7, r1
 4881 08ec DDE90001 		ldrd	r0, [sp]
 4882 08f0 A047     		blx	r4
 4883              	.LVL717:
 4884 08f2 0246     		mov	r2, r0
 4885 08f4 0B46     		mov	r3, r1
 4886 08f6 3046     		mov	r0, r6
 4887 08f8 3946     		mov	r1, r7
 4888 08fa A847     		blx	r5
 4889              	.LVL718:
1233:/home/tienluong/workspace/atlantis_fw/AsicFwS2/include/matrix.h ****         dst[11]  = tmp[6]  * mat[9]  + tmp[11] * mat[11] + tmp[3]  * mat[8];
 4890              		.loc 1 1233 0
 4891 08fc DDE91623 		ldrd	r2, [sp, #88]
1232:/home/tienluong/workspace/atlantis_fw/AsicFwS2/include/matrix.h ****         dst[10] -= tmp[3]  * mat[12] + tmp[6]  * mat[13] + tmp[11] * mat[15];
 4892              		.loc 1 1232 0
 4893 0900 8046     		mov	r8, r0
 4894 0902 8946     		mov	r9, r1
1233:/home/tienluong/workspace/atlantis_fw/AsicFwS2/include/matrix.h ****         dst[11]  = tmp[6]  * mat[9]  + tmp[11] * mat[11] + tmp[3]  * mat[8];
 4895              		.loc 1 1233 0
 4896 0904 DDE92601 		ldrd	r0, [sp, #152]
 4897 0908 A047     		blx	r4
 4898              	.LVL719:
 4899 090a DDE91223 		ldrd	r2, [sp, #72]
 4900 090e 0646     		mov	r6, r0
 4901 0910 0F46     		mov	r7, r1
 4902 0912 DDE91C01 		ldrd	r0, [sp, #112]
 4903 0916 A047     		blx	r4
 4904              	.LVL720:
 4905 0918 0246     		mov	r2, r0
 4906 091a 0B46     		mov	r3, r1
 4907 091c 3046     		mov	r0, r6
 4908 091e 3946     		mov	r1, r7
 4909 0920 A847     		blx	r5
 4910              	.LVL721:
 4911 0922 DDE90A23 		ldrd	r2, [sp, #40]
 4912 0926 0646     		mov	r6, r0
 4913 0928 0F46     		mov	r7, r1
 4914 092a DDE90201 		ldrd	r0, [sp, #8]
 4915 092e A047     		blx	r4
 4916              	.LVL722:
 4917 0930 0246     		mov	r2, r0
 4918 0932 0B46     		mov	r3, r1
 4919 0934 3046     		mov	r0, r6
 4920 0936 3946     		mov	r1, r7
 4921 0938 A847     		blx	r5
 4922              	.LVL723:
 4923 093a 0246     		mov	r2, r0
 4924 093c 0B46     		mov	r3, r1
 4925 093e 4046     		mov	r0, r8
 4926 0940 4946     		mov	r1, r9
 4927 0942 D847     		blx	fp
 4928              	.LVL724:
 4929 0944 52AB     		add	r3, sp, #328
 4930 0946 C3E90001 		strd	r0, [r3]
1234:/home/tienluong/workspace/atlantis_fw/AsicFwS2/include/matrix.h ****         dst[11] -= tmp[10] * mat[11] + tmp[2]  * mat[8]  + tmp[7]  * mat[9];
 4931              		.loc 1 1234 0
 4932 094a DDE91023 		ldrd	r2, [sp, #64]
 4933 094e DDE91C01 		ldrd	r0, [sp, #112]
 4934 0952 A047     		blx	r4
 4935              	.LVL725:
 4936 0954 DDE90C23 		ldrd	r2, [sp, #48]
 4937 0958 0646     		mov	r6, r0
 4938 095a 0F46     		mov	r7, r1
 4939 095c DDE90201 		ldrd	r0, [sp, #8]
 4940 0960 A047     		blx	r4
 4941              	.LVL726:
 4942 0962 0246     		mov	r2, r0
 4943 0964 0B46     		mov	r3, r1
 4944 0966 3046     		mov	r0, r6
 4945 0968 3946     		mov	r1, r7
 4946 096a A847     		blx	r5
 4947              	.LVL727:
 4948 096c DDE91423 		ldrd	r2, [sp, #80]
 4949 0970 0646     		mov	r6, r0
 4950 0972 0F46     		mov	r7, r1
 4951 0974 DDE92601 		ldrd	r0, [sp, #152]
 4952 0978 A047     		blx	r4
 4953              	.LVL728:
 4954 097a 0246     		mov	r2, r0
 4955 097c 0B46     		mov	r3, r1
 4956 097e 3046     		mov	r0, r6
 4957 0980 3946     		mov	r1, r7
 4958 0982 A847     		blx	r5
 4959              	.LVL729:
1235:/home/tienluong/workspace/atlantis_fw/AsicFwS2/include/matrix.h ****         dst[14]  = tmp[5]  * mat[12] + tmp[8]  * mat[13] + tmp[11] * mat[14];
 4960              		.loc 1 1235 0
 4961 0984 DDE90C23 		ldrd	r2, [sp, #48]
1234:/home/tienluong/workspace/atlantis_fw/AsicFwS2/include/matrix.h ****         dst[11] -= tmp[10] * mat[11] + tmp[2]  * mat[8]  + tmp[7]  * mat[9];
 4962              		.loc 1 1234 0
 4963 0988 8046     		mov	r8, r0
 4964 098a 8946     		mov	r9, r1
1235:/home/tienluong/workspace/atlantis_fw/AsicFwS2/include/matrix.h ****         dst[14]  = tmp[5]  * mat[12] + tmp[8]  * mat[13] + tmp[11] * mat[14];
 4965              		.loc 1 1235 0
 4966 098c DDE90001 		ldrd	r0, [sp]
 4967 0990 A047     		blx	r4
 4968              	.LVL730:
 4969 0992 DDE91423 		ldrd	r2, [sp, #80]
 4970 0996 0646     		mov	r6, r0
 4971 0998 0F46     		mov	r7, r1
 4972 099a DDE92401 		ldrd	r0, [sp, #144]
 4973 099e A047     		blx	r4
 4974              	.LVL731:
 4975 09a0 0246     		mov	r2, r0
 4976 09a2 0B46     		mov	r3, r1
 4977 09a4 3046     		mov	r0, r6
 4978 09a6 3946     		mov	r1, r7
 4979 09a8 A847     		blx	r5
 4980              	.LVL732:
 4981 09aa DDE91023 		ldrd	r2, [sp, #64]
 4982 09ae 0646     		mov	r6, r0
 4983 09b0 0F46     		mov	r7, r1
 4984 09b2 DDE90601 		ldrd	r0, [sp, #24]
 4985 09b6 A047     		blx	r4
 4986              	.LVL733:
 4987 09b8 0246     		mov	r2, r0
 4988 09ba 0B46     		mov	r3, r1
 4989 09bc 3046     		mov	r0, r6
 4990 09be 3946     		mov	r1, r7
 4991 09c0 A847     		blx	r5
 4992              	.LVL734:
 4993 09c2 0246     		mov	r2, r0
 4994 09c4 0B46     		mov	r3, r1
 4995 09c6 4046     		mov	r0, r8
 4996 09c8 4946     		mov	r1, r9
 4997 09ca D847     		blx	fp
 4998              	.LVL735:
 4999 09cc 54AB     		add	r3, sp, #336
 5000 09ce C3E90001 		strd	r0, [r3]
1236:/home/tienluong/workspace/atlantis_fw/AsicFwS2/include/matrix.h ****         dst[14] -= tmp[4]  * mat[12] + tmp[9]  * mat[13] + tmp[10] * mat[14];
 5001              		.loc 1 1236 0
 5002 09d2 DDE91623 		ldrd	r2, [sp, #88]
 5003 09d6 DDE92A01 		ldrd	r0, [sp, #168]
 5004 09da A047     		blx	r4
 5005              	.LVL736:
 5006 09dc DDE91223 		ldrd	r2, [sp, #72]
 5007 09e0 0646     		mov	r6, r0
 5008 09e2 0F46     		mov	r7, r1
 5009 09e4 DDE91A01 		ldrd	r0, [sp, #104]
 5010 09e8 A047     		blx	r4
 5011              	.LVL737:
 5012 09ea 0246     		mov	r2, r0
 5013 09ec 0B46     		mov	r3, r1
 5014 09ee 3046     		mov	r0, r6
 5015 09f0 3946     		mov	r1, r7
 5016 09f2 A847     		blx	r5
 5017              	.LVL738:
 5018 09f4 0646     		mov	r6, r0
 5019 09f6 0F46     		mov	r7, r1
 5020 09f8 DDE90201 		ldrd	r0, [sp, #8]
 5021 09fc DDE90E23 		ldrd	r2, [sp, #56]
 5022 0a00 A047     		blx	r4
 5023              	.LVL739:
 5024 0a02 0246     		mov	r2, r0
 5025 0a04 0B46     		mov	r3, r1
 5026 0a06 3046     		mov	r0, r6
 5027 0a08 3946     		mov	r1, r7
 5028 0a0a A847     		blx	r5
 5029              	.LVL740:
1237:/home/tienluong/workspace/atlantis_fw/AsicFwS2/include/matrix.h ****         dst[15]  = tmp[10] * mat[10] + tmp[4]  * mat[8]  + tmp[9]  * mat[9];
 5030              		.loc 1 1237 0
 5031 0a0c DDE91623 		ldrd	r2, [sp, #88]
1236:/home/tienluong/workspace/atlantis_fw/AsicFwS2/include/matrix.h ****         dst[14] -= tmp[4]  * mat[12] + tmp[9]  * mat[13] + tmp[10] * mat[14];
 5032              		.loc 1 1236 0
 5033 0a10 8046     		mov	r8, r0
 5034 0a12 8946     		mov	r9, r1
1237:/home/tienluong/workspace/atlantis_fw/AsicFwS2/include/matrix.h ****         dst[15]  = tmp[10] * mat[10] + tmp[4]  * mat[8]  + tmp[9]  * mat[9];
 5035              		.loc 1 1237 0
 5036 0a14 DDE92801 		ldrd	r0, [sp, #160]
 5037 0a18 A047     		blx	r4
 5038              	.LVL741:
 5039 0a1a DDE91223 		ldrd	r2, [sp, #72]
 5040 0a1e 0646     		mov	r6, r0
 5041 0a20 0F46     		mov	r7, r1
 5042 0a22 DDE90401 		ldrd	r0, [sp, #16]
 5043 0a26 A047     		blx	r4
 5044              	.LVL742:
 5045 0a28 0246     		mov	r2, r0
 5046 0a2a 0B46     		mov	r3, r1
 5047 0a2c 3046     		mov	r0, r6
 5048 0a2e 3946     		mov	r1, r7
 5049 0a30 A847     		blx	r5
 5050              	.LVL743:
 5051 0a32 DDE90E23 		ldrd	r2, [sp, #56]
 5052 0a36 0646     		mov	r6, r0
 5053 0a38 0F46     		mov	r7, r1
 5054 0a3a DDE90001 		ldrd	r0, [sp]
 5055 0a3e A047     		blx	r4
 5056              	.LVL744:
 5057 0a40 0246     		mov	r2, r0
 5058 0a42 0B46     		mov	r3, r1
 5059 0a44 3046     		mov	r0, r6
 5060 0a46 3946     		mov	r1, r7
 5061 0a48 A847     		blx	r5
 5062              	.LVL745:
 5063 0a4a 0246     		mov	r2, r0
 5064 0a4c 0B46     		mov	r3, r1
 5065 0a4e 4046     		mov	r0, r8
 5066 0a50 4946     		mov	r1, r9
 5067 0a52 D847     		blx	fp
 5068              	.LVL746:
 5069 0a54 5AAB     		add	r3, sp, #360
 5070 0a56 C3E90001 		strd	r0, [r3]
1238:/home/tienluong/workspace/atlantis_fw/AsicFwS2/include/matrix.h ****         dst[15] -= tmp[8]  * mat[9]  + tmp[11] * mat[10] + tmp[5]  * mat[8];
 5071              		.loc 1 1238 0
 5072 0a5a DDE90823 		ldrd	r2, [sp, #32]
 5073 0a5e DDE90001 		ldrd	r0, [sp]
 5074 0a62 A047     		blx	r4
 5075              	.LVL747:
 5076 0a64 DDE91423 		ldrd	r2, [sp, #80]
 5077 0a68 0646     		mov	r6, r0
 5078 0a6a 0F46     		mov	r7, r1
 5079 0a6c DDE92801 		ldrd	r0, [sp, #160]
 5080 0a70 A047     		blx	r4
 5081              	.LVL748:
 5082 0a72 0246     		mov	r2, r0
 5083 0a74 0B46     		mov	r3, r1
 5084 0a76 3046     		mov	r0, r6
 5085 0a78 3946     		mov	r1, r7
 5086 0a7a A847     		blx	r5
 5087              	.LVL749:
 5088 0a7c DDE91023 		ldrd	r2, [sp, #64]
 5089 0a80 0646     		mov	r6, r0
 5090 0a82 0F46     		mov	r7, r1
 5091 0a84 DDE90401 		ldrd	r0, [sp, #16]
 5092 0a88 A047     		blx	r4
 5093              	.LVL750:
 5094 0a8a 0246     		mov	r2, r0
 5095 0a8c 0B46     		mov	r3, r1
 5096 0a8e 3046     		mov	r0, r6
 5097 0a90 3946     		mov	r1, r7
 5098 0a92 A847     		blx	r5
 5099              	.LVL751:
1239:/home/tienluong/workspace/atlantis_fw/AsicFwS2/include/matrix.h **** 
 5100              		.loc 1 1239 0
 5101 0a94 DDE91023 		ldrd	r2, [sp, #64]
1238:/home/tienluong/workspace/atlantis_fw/AsicFwS2/include/matrix.h ****         dst[15] -= tmp[8]  * mat[9]  + tmp[11] * mat[10] + tmp[5]  * mat[8];
 5102              		.loc 1 1238 0
 5103 0a98 0646     		mov	r6, r0
 5104 0a9a 0F46     		mov	r7, r1
1239:/home/tienluong/workspace/atlantis_fw/AsicFwS2/include/matrix.h **** 
 5105              		.loc 1 1239 0
 5106 0a9c DDE91A01 		ldrd	r0, [sp, #104]
 5107 0aa0 A047     		blx	r4
 5108              	.LVL752:
 5109 0aa2 DDE90823 		ldrd	r2, [sp, #32]
 5110 0aa6 8046     		mov	r8, r0
 5111 0aa8 8946     		mov	r9, r1
 5112 0aaa DDE90201 		ldrd	r0, [sp, #8]
 5113 0aae A047     		blx	r4
 5114              	.LVL753:
 5115 0ab0 0246     		mov	r2, r0
 5116 0ab2 0B46     		mov	r3, r1
 5117 0ab4 4046     		mov	r0, r8
 5118 0ab6 4946     		mov	r1, r9
 5119 0ab8 A847     		blx	r5
 5120              	.LVL754:
 5121 0aba DDE91423 		ldrd	r2, [sp, #80]
 5122 0abe 8046     		mov	r8, r0
 5123 0ac0 8946     		mov	r9, r1
 5124 0ac2 DDE92A01 		ldrd	r0, [sp, #168]
 5125 0ac6 A047     		blx	r4
 5126              	.LVL755:
 5127 0ac8 0246     		mov	r2, r0
 5128 0aca 0B46     		mov	r3, r1
 5129 0acc 4046     		mov	r0, r8
 5130 0ace 4946     		mov	r1, r9
 5131 0ad0 A847     		blx	r5
 5132              	.LVL756:
 5133 0ad2 AAF10805 		sub	r5, r10, #8
 5134 0ad6 0AF1780A 		add	r10, r10, #120
 5135              	.LVL757:
 5136 0ada 0B46     		mov	r3, r1
 5137 0adc 0246     		mov	r2, r0
 5138 0ade 3946     		mov	r1, r7
 5139 0ae0 3046     		mov	r0, r6
 5140 0ae2 D847     		blx	fp
 5141              	.LVL758:
 5142 0ae4 3CAE     		add	r6, sp, #240
 5143 0ae6 5CAB     		add	r3, sp, #368
 5144 0ae8 C3E90001 		strd	r0, [r3]
 5145              	.LVL759:
 5146              	.L103:
 5147              	.LBB330:
1242:/home/tienluong/workspace/atlantis_fw/AsicFwS2/include/matrix.h ****     }
 5148              		.loc 1 1242 0 discriminator 3
 5149 0aec F6E90201 		ldrd	r0, [r6, #8]!
 5150 0af0 DDE93823 		ldrd	r2, [sp, #224]
 5151 0af4 A047     		blx	r4
 5152              	.LVL760:
 5153 0af6 E5E90201 		strd	r0, [r5, #8]!
 5154 0afa 5545     		cmp	r5, r10
 5155 0afc F6D1     		bne	.L103
 5156              	.LBE330:
 5157              	.LBE331:
1243:/home/tienluong/workspace/atlantis_fw/AsicFwS2/include/matrix.h **** };
 5158              		.loc 1 1243 0
 5159 0afe 5FB0     		add	sp, sp, #380
 5160              	.LCFI43:
 5161              		.cfi_def_cfa_offset 36
 5162              		@ sp needed
 5163 0b00 BDE8F08F 		pop	{r4, r5, r6, r7, r8, r9, r10, fp, pc}
 5164              		.cfi_endproc
 5165              	.LFE4077:
 5167              		.section	.text._ZN4ltaf7inverseIdLi4ELb1EEENS_6MatrixIT_XT0_EXT0_EXT1_EEERKS3_,"axG",%progbits,_ZN
 5168              		.align	1
 5169              		.weak	_ZN4ltaf7inverseIdLi4ELb1EEENS_6MatrixIT_XT0_EXT0_EXT1_EEERKS3_
 5170              		.thumb
 5171              		.thumb_func
 5173              	_ZN4ltaf7inverseIdLi4ELb1EEENS_6MatrixIT_XT0_EXT0_EXT1_EEERKS3_:
 5174              	.LFB3913:
1247:/home/tienluong/workspace/atlantis_fw/AsicFwS2/include/matrix.h **** {
 5175              		.loc 1 1247 0
 5176              		.cfi_startproc
 5177              		@ args = 0, pretend = 0, frame = 8
 5178              		@ frame_needed = 0, uses_anonymous_args = 0
 5179              	.LVL761:
 5180 0000 13B5     		push	{r0, r1, r4, lr}
 5181              	.LCFI44:
 5182              		.cfi_def_cfa_offset 16
 5183              		.cfi_offset 4, -8
 5184              		.cfi_offset 14, -4
 5185              	.LBB338:
 5186              	.LBB339:
 5187              	.LBB340:
 591:/home/tienluong/workspace/atlantis_fw/AsicFwS2/include/matrix.h **** 
 5188              		.loc 1 591 0
 5189 0002 8022     		movs	r2, #128
 5190              	.LBE340:
 5191              	.LBE339:
 5192              	.LBE338:
1247:/home/tienluong/workspace/atlantis_fw/AsicFwS2/include/matrix.h **** {
 5193              		.loc 1 1247 0
 5194 0004 0446     		mov	r4, r0
 5195              	.LVL762:
 5196              	.LBB343:
 5197              	.LBB342:
 5198              	.LBB341:
 591:/home/tienluong/workspace/atlantis_fw/AsicFwS2/include/matrix.h **** 
 5199              		.loc 1 591 0
 5200 0006 044B     		ldr	r3, .L112
 5201 0008 9847     		blx	r3
 5202              	.LVL763:
 5203              	.LBE341:
 5204              	.LBE342:
1251:/home/tienluong/workspace/atlantis_fw/AsicFwS2/include/matrix.h ****     return rval;
 5205              		.loc 1 1251 0
 5206 000a 01A8     		add	r0, sp, #4
 5207 000c 2146     		mov	r1, r4
 5208 000e 034B     		ldr	r3, .L112+4
 5209 0010 9847     		blx	r3
 5210              	.LVL764:
 5211              	.LBE343:
1253:/home/tienluong/workspace/atlantis_fw/AsicFwS2/include/matrix.h **** 
 5212              		.loc 1 1253 0
 5213 0012 2046     		mov	r0, r4
 5214 0014 02B0     		add	sp, sp, #8
 5215              	.LCFI45:
 5216              		.cfi_def_cfa_offset 8
 5217              		@ sp needed
 5218 0016 10BD     		pop	{r4, pc}
 5219              	.LVL765:
 5220              	.L113:
 5221              		.align	2
 5222              	.L112:
 5223 0018 00000000 		.word	memcpy
 5224 001c 00000000 		.word	_ZNK4ltaf20SquareMatrixInverterIdLi4EE3runEPd
 5225              		.cfi_endproc
 5226              	.LFE3913:
 5228              		.section	.text._ZN4ltaf7inverseIdLi4ELb0EEENS_6MatrixIT_XT0_EXT0_EXT1_EEERKS3_,"axG",%progbits,_ZN
 5229              		.align	1
 5230              		.weak	_ZN4ltaf7inverseIdLi4ELb0EEENS_6MatrixIT_XT0_EXT0_EXT1_EEERKS3_
 5231              		.thumb
 5232              		.thumb_func
 5234              	_ZN4ltaf7inverseIdLi4ELb0EEENS_6MatrixIT_XT0_EXT0_EXT1_EEERKS3_:
 5235              	.LFB3916:
1247:/home/tienluong/workspace/atlantis_fw/AsicFwS2/include/matrix.h **** {
 5236              		.loc 1 1247 0
 5237              		.cfi_startproc
 5238              		@ args = 0, pretend = 0, frame = 8
 5239              		@ frame_needed = 0, uses_anonymous_args = 0
 5240              	.LVL766:
 5241 0000 13B5     		push	{r0, r1, r4, lr}
 5242              	.LCFI46:
 5243              		.cfi_def_cfa_offset 16
 5244              		.cfi_offset 4, -8
 5245              		.cfi_offset 14, -4
 5246              	.LBB350:
 5247              	.LBB351:
 5248              	.LBB352:
 593:/home/tienluong/workspace/atlantis_fw/AsicFwS2/include/matrix.h **** 
 5249              		.loc 1 593 0
 5250 0002 8022     		movs	r2, #128
 5251              	.LBE352:
 5252              	.LBE351:
 5253              	.LBE350:
1247:/home/tienluong/workspace/atlantis_fw/AsicFwS2/include/matrix.h **** {
 5254              		.loc 1 1247 0
 5255 0004 0446     		mov	r4, r0
 5256              	.LVL767:
 5257              	.LBB355:
 5258              	.LBB354:
 5259              	.LBB353:
 593:/home/tienluong/workspace/atlantis_fw/AsicFwS2/include/matrix.h **** 
 5260              		.loc 1 593 0
 5261 0006 044B     		ldr	r3, .L115
 5262 0008 9847     		blx	r3
 5263              	.LVL768:
 5264              	.LBE353:
 5265              	.LBE354:
1251:/home/tienluong/workspace/atlantis_fw/AsicFwS2/include/matrix.h ****     return rval;
 5266              		.loc 1 1251 0
 5267 000a 01A8     		add	r0, sp, #4
 5268 000c 2146     		mov	r1, r4
 5269 000e 034B     		ldr	r3, .L115+4
 5270 0010 9847     		blx	r3
 5271              	.LVL769:
 5272              	.LBE355:
1253:/home/tienluong/workspace/atlantis_fw/AsicFwS2/include/matrix.h **** 
 5273              		.loc 1 1253 0
 5274 0012 2046     		mov	r0, r4
 5275 0014 02B0     		add	sp, sp, #8
 5276              	.LCFI47:
 5277              		.cfi_def_cfa_offset 8
 5278              		@ sp needed
 5279 0016 10BD     		pop	{r4, pc}
 5280              	.LVL770:
 5281              	.L116:
 5282              		.align	2
 5283              	.L115:
 5284 0018 00000000 		.word	memcpy
 5285 001c 00000000 		.word	_ZNK4ltaf20SquareMatrixInverterIdLi4EE3runEPd
 5286              		.cfi_endproc
 5287              	.LFE3916:
 5289              		.section	.text._ZNK4ltaf17MatrixDeterminantIfLi3EEclEPKf,"axG",%progbits,_ZNK4ltaf17MatrixDetermin
 5290              		.align	1
 5291              		.weak	_ZNK4ltaf17MatrixDeterminantIfLi3EEclEPKf
 5292              		.thumb
 5293              		.thumb_func
 5295              	_ZNK4ltaf17MatrixDeterminantIfLi3EEclEPKf:
 5296              	.LFB4093:
1069:/home/tienluong/workspace/atlantis_fw/AsicFwS2/include/matrix.h ****     {
 5297              		.loc 1 1069 0
 5298              		.cfi_startproc
 5299              		@ args = 0, pretend = 0, frame = 16
 5300              		@ frame_needed = 0, uses_anonymous_args = 0
 5301              	.LVL771:
 5302 0000 2DE9F04F 		push	{r4, r5, r6, r7, r8, r9, r10, fp, lr}
 5303              	.LCFI48:
 5304              		.cfi_def_cfa_offset 36
 5305              		.cfi_offset 4, -36
 5306              		.cfi_offset 5, -32
 5307              		.cfi_offset 6, -28
 5308              		.cfi_offset 7, -24
 5309              		.cfi_offset 8, -20
 5310              		.cfi_offset 9, -16
 5311              		.cfi_offset 10, -12
 5312              		.cfi_offset 11, -8
 5313              		.cfi_offset 14, -4
1073:/home/tienluong/workspace/atlantis_fw/AsicFwS2/include/matrix.h ****     }
 5314              		.loc 1 1073 0
 5315 0004 0B6A     		ldr	r3, [r1, #32]	@ float
1069:/home/tienluong/workspace/atlantis_fw/AsicFwS2/include/matrix.h ****     {
 5316              		.loc 1 1069 0
 5317 0006 85B0     		sub	sp, sp, #20
 5318              	.LCFI49:
 5319              		.cfi_def_cfa_offset 56
1073:/home/tienluong/workspace/atlantis_fw/AsicFwS2/include/matrix.h ****     }
 5320              		.loc 1 1073 0
 5321 0008 D1F81080 		ldr	r8, [r1, #16]	@ float
1069:/home/tienluong/workspace/atlantis_fw/AsicFwS2/include/matrix.h ****     {
 5322              		.loc 1 1069 0
 5323 000c 0D46     		mov	r5, r1
1073:/home/tienluong/workspace/atlantis_fw/AsicFwS2/include/matrix.h ****     }
 5324              		.loc 1 1073 0
 5325 000e 1F4C     		ldr	r4, .L118
 5326 0010 4046     		mov	r0, r8
 5327              	.LVL772:
 5328 0012 D1F81C90 		ldr	r9, [r1, #28]	@ float
 5329 0016 D1F814B0 		ldr	fp, [r1, #20]	@ float
 5330 001a D1F80CA0 		ldr	r10, [r1, #12]	@ float
 5331 001e 8F69     		ldr	r7, [r1, #24]	@ float
 5332 0020 1946     		mov	r1, r3
 5333              	.LVL773:
 5334 0022 0393     		str	r3, [sp, #12]
 5335 0024 A047     		blx	r4
 5336              	.LVL774:
 5337 0026 5946     		mov	r1, fp
 5338 0028 194E     		ldr	r6, .L118+4
 5339 002a 0190     		str	r0, [sp, #4]
 5340 002c 4846     		mov	r0, r9
 5341 002e A047     		blx	r4
 5342              	.LVL775:
 5343 0030 019A     		ldr	r2, [sp, #4]
 5344 0032 0146     		mov	r1, r0
 5345 0034 1046     		mov	r0, r2
 5346 0036 B047     		blx	r6
 5347              	.LVL776:
 5348 0038 2968     		ldr	r1, [r5]	@ float
 5349 003a A047     		blx	r4
 5350              	.LVL777:
 5351 003c 039B     		ldr	r3, [sp, #12]
 5352 003e 1946     		mov	r1, r3
 5353 0040 0290     		str	r0, [sp, #8]
 5354 0042 5046     		mov	r0, r10
 5355 0044 A047     		blx	r4
 5356              	.LVL778:
 5357 0046 3946     		mov	r1, r7
 5358 0048 0190     		str	r0, [sp, #4]
 5359 004a 5846     		mov	r0, fp
 5360 004c A047     		blx	r4
 5361              	.LVL779:
 5362 004e 019B     		ldr	r3, [sp, #4]
 5363 0050 0146     		mov	r1, r0
 5364 0052 1846     		mov	r0, r3
 5365 0054 B047     		blx	r6
 5366              	.LVL780:
 5367 0056 6968     		ldr	r1, [r5, #4]	@ float
 5368 0058 A047     		blx	r4
 5369              	.LVL781:
 5370 005a 029A     		ldr	r2, [sp, #8]
 5371 005c 0146     		mov	r1, r0
 5372 005e 1046     		mov	r0, r2
 5373 0060 B047     		blx	r6
 5374              	.LVL782:
 5375 0062 4946     		mov	r1, r9
 5376 0064 8346     		mov	fp, r0
 5377 0066 5046     		mov	r0, r10
 5378 0068 A047     		blx	r4
 5379              	.LVL783:
 5380 006a 3946     		mov	r1, r7
 5381 006c 8146     		mov	r9, r0
 5382 006e 4046     		mov	r0, r8
 5383 0070 A047     		blx	r4
 5384              	.LVL784:
 5385 0072 0146     		mov	r1, r0
 5386 0074 4846     		mov	r0, r9
 5387 0076 B047     		blx	r6
 5388              	.LVL785:
 5389 0078 A968     		ldr	r1, [r5, #8]	@ float
 5390 007a A047     		blx	r4
 5391              	.LVL786:
 5392 007c 054B     		ldr	r3, .L118+8
 5393 007e 0146     		mov	r1, r0
 5394 0080 5846     		mov	r0, fp
 5395 0082 9847     		blx	r3
 5396              	.LVL787:
1074:/home/tienluong/workspace/atlantis_fw/AsicFwS2/include/matrix.h **** };
 5397              		.loc 1 1074 0
 5398 0084 05B0     		add	sp, sp, #20
 5399              	.LCFI50:
 5400              		.cfi_def_cfa_offset 36
 5401              		@ sp needed
 5402 0086 BDE8F08F 		pop	{r4, r5, r6, r7, r8, r9, r10, fp, pc}
 5403              	.LVL788:
 5404              	.L119:
 5405 008a 00BF     		.align	2
 5406              	.L118:
 5407 008c 00000000 		.word	__aeabi_fmul
 5408 0090 00000000 		.word	__aeabi_fsub
 5409 0094 00000000 		.word	__aeabi_fadd
 5410              		.cfi_endproc
 5411              	.LFE4093:
 5413              		.section	.text._ZN4ltaf11determinantIfLi3ELb1EEET_RKNS_6MatrixIS1_XT0_EXT0_EXT1_EEE,"axG",%progbit
 5414              		.align	1
 5415              		.weak	_ZN4ltaf11determinantIfLi3ELb1EEET_RKNS_6MatrixIS1_XT0_EXT0_EXT1_EEE
 5416              		.thumb
 5417              		.thumb_func
 5419              	_ZN4ltaf11determinantIfLi3ELb1EEET_RKNS_6MatrixIS1_XT0_EXT0_EXT1_EEE:
 5420              	.LFB3918:
1256:/home/tienluong/workspace/atlantis_fw/AsicFwS2/include/matrix.h **** {
 5421              		.loc 1 1256 0
 5422              		.cfi_startproc
 5423              		@ args = 0, pretend = 0, frame = 8
 5424              		@ frame_needed = 0, uses_anonymous_args = 0
 5425              	.LVL789:
 5426 0000 07B5     		push	{r0, r1, r2, lr}
 5427              	.LCFI51:
 5428              		.cfi_def_cfa_offset 16
 5429              		.cfi_offset 14, -4
 5430              	.LBB356:
1259:/home/tienluong/workspace/atlantis_fw/AsicFwS2/include/matrix.h **** }
 5431              		.loc 1 1259 0
 5432 0002 034B     		ldr	r3, .L121
 5433              	.LBE356:
1256:/home/tienluong/workspace/atlantis_fw/AsicFwS2/include/matrix.h **** {
 5434              		.loc 1 1256 0
 5435 0004 0146     		mov	r1, r0
 5436              	.LVL790:
 5437              	.LBB357:
1259:/home/tienluong/workspace/atlantis_fw/AsicFwS2/include/matrix.h **** }
 5438              		.loc 1 1259 0
 5439 0006 01A8     		add	r0, sp, #4
 5440              	.LVL791:
 5441 0008 9847     		blx	r3
 5442              	.LVL792:
 5443              	.LBE357:
 5444              		.loc 1 1260 0
 5445 000a 03B0     		add	sp, sp, #12
 5446              	.LCFI52:
 5447              		.cfi_def_cfa_offset 4
 5448              		@ sp needed
 5449 000c 5DF804FB 		ldr	pc, [sp], #4
 5450              	.L122:
 5451              		.align	2
 5452              	.L121:
 5453 0010 00000000 		.word	_ZNK4ltaf17MatrixDeterminantIfLi3EEclEPKf
 5454              		.cfi_endproc
 5455              	.LFE3918:
 5457              		.section	.text._ZN4ltaf11determinantIfLi3ELb0EEET_RKNS_6MatrixIS1_XT0_EXT0_EXT1_EEE,"axG",%progbit
 5458              		.align	1
 5459              		.weak	_ZN4ltaf11determinantIfLi3ELb0EEET_RKNS_6MatrixIS1_XT0_EXT0_EXT1_EEE
 5460              		.thumb
 5461              		.thumb_func
 5463              	_ZN4ltaf11determinantIfLi3ELb0EEET_RKNS_6MatrixIS1_XT0_EXT0_EXT1_EEE:
 5464              	.LFB3921:
1256:/home/tienluong/workspace/atlantis_fw/AsicFwS2/include/matrix.h **** {
 5465              		.loc 1 1256 0
 5466              		.cfi_startproc
 5467              		@ args = 0, pretend = 0, frame = 8
 5468              		@ frame_needed = 0, uses_anonymous_args = 0
 5469              	.LVL793:
 5470 0000 07B5     		push	{r0, r1, r2, lr}
 5471              	.LCFI53:
 5472              		.cfi_def_cfa_offset 16
 5473              		.cfi_offset 14, -4
 5474              	.LBB358:
1259:/home/tienluong/workspace/atlantis_fw/AsicFwS2/include/matrix.h **** }
 5475              		.loc 1 1259 0
 5476 0002 034B     		ldr	r3, .L124
 5477              	.LBE358:
1256:/home/tienluong/workspace/atlantis_fw/AsicFwS2/include/matrix.h **** {
 5478              		.loc 1 1256 0
 5479 0004 0146     		mov	r1, r0
 5480              	.LVL794:
 5481              	.LBB359:
1259:/home/tienluong/workspace/atlantis_fw/AsicFwS2/include/matrix.h **** }
 5482              		.loc 1 1259 0
 5483 0006 01A8     		add	r0, sp, #4
 5484              	.LVL795:
 5485 0008 9847     		blx	r3
 5486              	.LVL796:
 5487              	.LBE359:
 5488              		.loc 1 1260 0
 5489 000a 03B0     		add	sp, sp, #12
 5490              	.LCFI54:
 5491              		.cfi_def_cfa_offset 4
 5492              		@ sp needed
 5493 000c 5DF804FB 		ldr	pc, [sp], #4
 5494              	.L125:
 5495              		.align	2
 5496              	.L124:
 5497 0010 00000000 		.word	_ZNK4ltaf17MatrixDeterminantIfLi3EEclEPKf
 5498              		.cfi_endproc
 5499              	.LFE3921:
 5501              		.section	.text._ZNK4ltaf17MatrixDeterminantIfLi4EEclEPKf,"axG",%progbits,_ZNK4ltaf17MatrixDetermin
 5502              		.align	1
 5503              		.weak	_ZNK4ltaf17MatrixDeterminantIfLi4EEclEPKf
 5504              		.thumb
 5505              		.thumb_func
 5507              	_ZNK4ltaf17MatrixDeterminantIfLi4EEclEPKf:
 5508              	.LFB4095:
1080:/home/tienluong/workspace/atlantis_fw/AsicFwS2/include/matrix.h ****     {
 5509              		.loc 1 1080 0
 5510              		.cfi_startproc
 5511              		@ args = 0, pretend = 0, frame = 56
 5512              		@ frame_needed = 0, uses_anonymous_args = 0
 5513              	.LVL797:
 5514 0000 2DE9F04F 		push	{r4, r5, r6, r7, r8, r9, r10, fp, lr}
 5515              	.LCFI55:
 5516              		.cfi_def_cfa_offset 36
 5517              		.cfi_offset 4, -36
 5518              		.cfi_offset 5, -32
 5519              		.cfi_offset 6, -28
 5520              		.cfi_offset 7, -24
 5521              		.cfi_offset 8, -20
 5522              		.cfi_offset 9, -16
 5523              		.cfi_offset 10, -12
 5524              		.cfi_offset 11, -8
 5525              		.cfi_offset 14, -4
 5526              	.LBB360:
1086:/home/tienluong/workspace/atlantis_fw/AsicFwS2/include/matrix.h ****         tmp[1] = mat[11] * mat[14];
 5527              		.loc 1 1086 0
 5528 0004 D1F828A0 		ldr	r10, [r1, #40]	@ float
 5529              	.LBE360:
1080:/home/tienluong/workspace/atlantis_fw/AsicFwS2/include/matrix.h ****     {
 5530              		.loc 1 1080 0
 5531 0008 8FB0     		sub	sp, sp, #60
 5532              	.LCFI56:
 5533              		.cfi_def_cfa_offset 96
 5534              	.LBB361:
1086:/home/tienluong/workspace/atlantis_fw/AsicFwS2/include/matrix.h ****         tmp[1] = mat[11] * mat[14];
 5535              		.loc 1 1086 0
 5536 000a CD6B     		ldr	r5, [r1, #60]	@ float
 5537              	.LBE361:
1080:/home/tienluong/workspace/atlantis_fw/AsicFwS2/include/matrix.h ****     {
 5538              		.loc 1 1080 0
 5539 000c 0E46     		mov	r6, r1
 5540              	.LBB362:
1086:/home/tienluong/workspace/atlantis_fw/AsicFwS2/include/matrix.h ****         tmp[1] = mat[11] * mat[14];
 5541              		.loc 1 1086 0
 5542 000e 824C     		ldr	r4, .L127
 5543 0010 2946     		mov	r1, r5
 5544              	.LVL798:
 5545 0012 5046     		mov	r0, r10
 5546              	.LVL799:
 5547 0014 A047     		blx	r4
 5548              	.LVL800:
1087:/home/tienluong/workspace/atlantis_fw/AsicFwS2/include/matrix.h ****         tmp[2] = mat[9] * mat[15];
 5549              		.loc 1 1087 0
 5550 0016 F26A     		ldr	r2, [r6, #44]	@ float
 5551 0018 D6F838B0 		ldr	fp, [r6, #56]	@ float
 5552 001c 5946     		mov	r1, fp
 5553 001e 0392     		str	r2, [sp, #12]
1086:/home/tienluong/workspace/atlantis_fw/AsicFwS2/include/matrix.h ****         tmp[1] = mat[11] * mat[14];
 5554              		.loc 1 1086 0
 5555 0020 0090     		str	r0, [sp]	@ float
 5556              	.LVL801:
1087:/home/tienluong/workspace/atlantis_fw/AsicFwS2/include/matrix.h ****         tmp[2] = mat[9] * mat[15];
 5557              		.loc 1 1087 0
 5558 0022 1046     		mov	r0, r2
 5559              	.LVL802:
 5560 0024 A047     		blx	r4
 5561              	.LVL803:
1088:/home/tienluong/workspace/atlantis_fw/AsicFwS2/include/matrix.h ****         tmp[3] = mat[11] * mat[13];
 5562              		.loc 1 1088 0
 5563 0026 776A     		ldr	r7, [r6, #36]	@ float
 5564 0028 2946     		mov	r1, r5
1087:/home/tienluong/workspace/atlantis_fw/AsicFwS2/include/matrix.h ****         tmp[2] = mat[9] * mat[15];
 5565              		.loc 1 1087 0
 5566 002a 0190     		str	r0, [sp, #4]	@ float
 5567              	.LVL804:
1088:/home/tienluong/workspace/atlantis_fw/AsicFwS2/include/matrix.h ****         tmp[3] = mat[11] * mat[13];
 5568              		.loc 1 1088 0
 5569 002c 3846     		mov	r0, r7
 5570              	.LVL805:
 5571 002e A047     		blx	r4
 5572              	.LVL806:
1089:/home/tienluong/workspace/atlantis_fw/AsicFwS2/include/matrix.h ****         tmp[4] = mat[9] * mat[14];
 5573              		.loc 1 1089 0
 5574 0030 039A     		ldr	r2, [sp, #12]
 5575 0032 D6F83480 		ldr	r8, [r6, #52]	@ float
 5576 0036 4146     		mov	r1, r8
 5577 0038 0792     		str	r2, [sp, #28]
1088:/home/tienluong/workspace/atlantis_fw/AsicFwS2/include/matrix.h ****         tmp[3] = mat[11] * mat[13];
 5578              		.loc 1 1088 0
 5579 003a 0290     		str	r0, [sp, #8]	@ float
 5580              	.LVL807:
1089:/home/tienluong/workspace/atlantis_fw/AsicFwS2/include/matrix.h ****         tmp[4] = mat[9] * mat[14];
 5581              		.loc 1 1089 0
 5582 003c 1046     		mov	r0, r2
 5583              	.LVL808:
 5584 003e A047     		blx	r4
 5585              	.LVL809:
1090:/home/tienluong/workspace/atlantis_fw/AsicFwS2/include/matrix.h ****         tmp[5] = mat[10] * mat[13];
 5586              		.loc 1 1090 0
 5587 0040 5946     		mov	r1, fp
1089:/home/tienluong/workspace/atlantis_fw/AsicFwS2/include/matrix.h ****         tmp[4] = mat[9] * mat[14];
 5588              		.loc 1 1089 0
 5589 0042 0390     		str	r0, [sp, #12]	@ float
 5590              	.LVL810:
1090:/home/tienluong/workspace/atlantis_fw/AsicFwS2/include/matrix.h ****         tmp[5] = mat[10] * mat[13];
 5591              		.loc 1 1090 0
 5592 0044 3846     		mov	r0, r7
 5593              	.LVL811:
 5594 0046 A047     		blx	r4
 5595              	.LVL812:
1091:/home/tienluong/workspace/atlantis_fw/AsicFwS2/include/matrix.h ****         tmp[6] = mat[8] * mat[15];
 5596              		.loc 1 1091 0
 5597 0048 4146     		mov	r1, r8
1090:/home/tienluong/workspace/atlantis_fw/AsicFwS2/include/matrix.h ****         tmp[5] = mat[10] * mat[13];
 5598              		.loc 1 1090 0
 5599 004a 0490     		str	r0, [sp, #16]	@ float
 5600              	.LVL813:
1091:/home/tienluong/workspace/atlantis_fw/AsicFwS2/include/matrix.h ****         tmp[6] = mat[8] * mat[15];
 5601              		.loc 1 1091 0
 5602 004c 5046     		mov	r0, r10
 5603              	.LVL814:
 5604 004e A047     		blx	r4
 5605              	.LVL815:
1092:/home/tienluong/workspace/atlantis_fw/AsicFwS2/include/matrix.h ****         tmp[7] = mat[11] * mat[12];
 5606              		.loc 1 1092 0
 5607 0050 D6F82090 		ldr	r9, [r6, #32]	@ float
 5608 0054 2946     		mov	r1, r5
1091:/home/tienluong/workspace/atlantis_fw/AsicFwS2/include/matrix.h ****         tmp[6] = mat[8] * mat[15];
 5609              		.loc 1 1091 0
 5610 0056 0590     		str	r0, [sp, #20]	@ float
 5611              	.LVL816:
1092:/home/tienluong/workspace/atlantis_fw/AsicFwS2/include/matrix.h ****         tmp[7] = mat[11] * mat[12];
 5612              		.loc 1 1092 0
 5613 0058 4846     		mov	r0, r9
 5614              	.LVL817:
 5615 005a A047     		blx	r4
 5616              	.LVL818:
1093:/home/tienluong/workspace/atlantis_fw/AsicFwS2/include/matrix.h ****         tmp[8] = mat[8] * mat[14];
 5617              		.loc 1 1093 0
 5618 005c 079A     		ldr	r2, [sp, #28]
 5619 005e 356B     		ldr	r5, [r6, #48]	@ float
 5620 0060 2946     		mov	r1, r5
1092:/home/tienluong/workspace/atlantis_fw/AsicFwS2/include/matrix.h ****         tmp[7] = mat[11] * mat[12];
 5621              		.loc 1 1092 0
 5622 0062 0690     		str	r0, [sp, #24]	@ float
 5623              	.LVL819:
1093:/home/tienluong/workspace/atlantis_fw/AsicFwS2/include/matrix.h ****         tmp[8] = mat[8] * mat[14];
 5624              		.loc 1 1093 0
 5625 0064 1046     		mov	r0, r2
 5626              	.LVL820:
 5627 0066 A047     		blx	r4
 5628              	.LVL821:
1094:/home/tienluong/workspace/atlantis_fw/AsicFwS2/include/matrix.h ****         tmp[9] = mat[10] * mat[12];
 5629              		.loc 1 1094 0
 5630 0068 5946     		mov	r1, fp
1093:/home/tienluong/workspace/atlantis_fw/AsicFwS2/include/matrix.h ****         tmp[8] = mat[8] * mat[14];
 5631              		.loc 1 1093 0
 5632 006a 0790     		str	r0, [sp, #28]	@ float
 5633              	.LVL822:
1094:/home/tienluong/workspace/atlantis_fw/AsicFwS2/include/matrix.h ****         tmp[9] = mat[10] * mat[12];
 5634              		.loc 1 1094 0
 5635 006c 4846     		mov	r0, r9
 5636              	.LVL823:
 5637 006e A047     		blx	r4
 5638              	.LVL824:
1095:/home/tienluong/workspace/atlantis_fw/AsicFwS2/include/matrix.h ****         tmp[10] = mat[8] * mat[13];
 5639              		.loc 1 1095 0
 5640 0070 2946     		mov	r1, r5
1094:/home/tienluong/workspace/atlantis_fw/AsicFwS2/include/matrix.h ****         tmp[9] = mat[10] * mat[12];
 5641              		.loc 1 1094 0
 5642 0072 0890     		str	r0, [sp, #32]	@ float
1095:/home/tienluong/workspace/atlantis_fw/AsicFwS2/include/matrix.h ****         tmp[10] = mat[8] * mat[13];
 5643              		.loc 1 1095 0
 5644 0074 5046     		mov	r0, r10
 5645 0076 A047     		blx	r4
 5646              	.LVL825:
1096:/home/tienluong/workspace/atlantis_fw/AsicFwS2/include/matrix.h ****         tmp[11] = mat[9] * mat[12];
 5647              		.loc 1 1096 0
 5648 0078 4146     		mov	r1, r8
1095:/home/tienluong/workspace/atlantis_fw/AsicFwS2/include/matrix.h ****         tmp[10] = mat[8] * mat[13];
 5649              		.loc 1 1095 0
 5650 007a 0990     		str	r0, [sp, #36]	@ float
1096:/home/tienluong/workspace/atlantis_fw/AsicFwS2/include/matrix.h ****         tmp[11] = mat[9] * mat[12];
 5651              		.loc 1 1096 0
 5652 007c 4846     		mov	r0, r9
 5653 007e A047     		blx	r4
 5654              	.LVL826:
1097:/home/tienluong/workspace/atlantis_fw/AsicFwS2/include/matrix.h **** 
 5655              		.loc 1 1097 0
 5656 0080 2946     		mov	r1, r5
1100:/home/tienluong/workspace/atlantis_fw/AsicFwS2/include/matrix.h ****         dst[0] -= tmp[1] * mat[5] + tmp[2] * mat[6] + tmp[5]  * mat[7];
 5657              		.loc 1 1100 0
 5658 0082 664D     		ldr	r5, .L127+4
1096:/home/tienluong/workspace/atlantis_fw/AsicFwS2/include/matrix.h ****         tmp[11] = mat[9] * mat[12];
 5659              		.loc 1 1096 0
 5660 0084 0A90     		str	r0, [sp, #40]	@ float
1097:/home/tienluong/workspace/atlantis_fw/AsicFwS2/include/matrix.h **** 
 5661              		.loc 1 1097 0
 5662 0086 3846     		mov	r0, r7
 5663 0088 A047     		blx	r4
 5664              	.LVL827:
1100:/home/tienluong/workspace/atlantis_fw/AsicFwS2/include/matrix.h ****         dst[0] -= tmp[1] * mat[5] + tmp[2] * mat[6] + tmp[5]  * mat[7];
 5665              		.loc 1 1100 0
 5666 008a D6F81480 		ldr	r8, [r6, #20]	@ float
 5667 008e 4146     		mov	r1, r8
 5668 0090 B769     		ldr	r7, [r6, #24]	@ float
 5669 0092 D6F81CA0 		ldr	r10, [r6, #28]	@ float
1102:/home/tienluong/workspace/atlantis_fw/AsicFwS2/include/matrix.h ****         dst[1] -= tmp[0] * mat[4] + tmp[7] * mat[6] + tmp[8]  * mat[7];
 5670              		.loc 1 1102 0
 5671 0096 D6F81090 		ldr	r9, [r6, #16]	@ float
1097:/home/tienluong/workspace/atlantis_fw/AsicFwS2/include/matrix.h **** 
 5672              		.loc 1 1097 0
 5673 009a 0B90     		str	r0, [sp, #44]	@ float
 5674              	.LVL828:
1100:/home/tienluong/workspace/atlantis_fw/AsicFwS2/include/matrix.h ****         dst[0] -= tmp[1] * mat[5] + tmp[2] * mat[6] + tmp[5]  * mat[7];
 5675              		.loc 1 1100 0
 5676 009c 0098     		ldr	r0, [sp]	@ float
 5677              	.LVL829:
 5678 009e A047     		blx	r4
 5679              	.LVL830:
 5680 00a0 3946     		mov	r1, r7
 5681 00a2 0C90     		str	r0, [sp, #48]
 5682 00a4 0398     		ldr	r0, [sp, #12]	@ float
 5683 00a6 A047     		blx	r4
 5684              	.LVL831:
 5685 00a8 0C9B     		ldr	r3, [sp, #48]
 5686 00aa 0146     		mov	r1, r0
 5687 00ac 1846     		mov	r0, r3
 5688 00ae A847     		blx	r5
 5689              	.LVL832:
 5690 00b0 5146     		mov	r1, r10
 5691 00b2 0C90     		str	r0, [sp, #48]
 5692 00b4 0498     		ldr	r0, [sp, #16]	@ float
 5693 00b6 A047     		blx	r4
 5694              	.LVL833:
 5695 00b8 0C9B     		ldr	r3, [sp, #48]
 5696 00ba 0146     		mov	r1, r0
 5697 00bc 1846     		mov	r0, r3
 5698 00be A847     		blx	r5
 5699              	.LVL834:
1101:/home/tienluong/workspace/atlantis_fw/AsicFwS2/include/matrix.h ****         dst[1]  = tmp[1] * mat[4] + tmp[6] * mat[6] + tmp[9]  * mat[7];
 5700              		.loc 1 1101 0
 5701 00c0 4146     		mov	r1, r8
1100:/home/tienluong/workspace/atlantis_fw/AsicFwS2/include/matrix.h ****         dst[0] -= tmp[1] * mat[5] + tmp[2] * mat[6] + tmp[5]  * mat[7];
 5702              		.loc 1 1100 0
 5703 00c2 0D90     		str	r0, [sp, #52]
1101:/home/tienluong/workspace/atlantis_fw/AsicFwS2/include/matrix.h ****         dst[1]  = tmp[1] * mat[4] + tmp[6] * mat[6] + tmp[9]  * mat[7];
 5704              		.loc 1 1101 0
 5705 00c4 0198     		ldr	r0, [sp, #4]	@ float
 5706 00c6 A047     		blx	r4
 5707              	.LVL835:
 5708 00c8 3946     		mov	r1, r7
 5709 00ca 0C90     		str	r0, [sp, #48]
 5710 00cc 0298     		ldr	r0, [sp, #8]	@ float
 5711 00ce A047     		blx	r4
 5712              	.LVL836:
 5713 00d0 0C9A     		ldr	r2, [sp, #48]
 5714 00d2 0146     		mov	r1, r0
 5715 00d4 1046     		mov	r0, r2
 5716 00d6 A847     		blx	r5
 5717              	.LVL837:
 5718 00d8 5146     		mov	r1, r10
 5719 00da 0C90     		str	r0, [sp, #48]
 5720 00dc 0598     		ldr	r0, [sp, #20]	@ float
 5721 00de A047     		blx	r4
 5722              	.LVL838:
 5723 00e0 0C9A     		ldr	r2, [sp, #48]
 5724 00e2 0146     		mov	r1, r0
 5725 00e4 1046     		mov	r0, r2
 5726 00e6 A847     		blx	r5
 5727              	.LVL839:
 5728 00e8 0D9B     		ldr	r3, [sp, #52]
 5729 00ea 0146     		mov	r1, r0
 5730 00ec 1846     		mov	r0, r3
 5731 00ee 4C4B     		ldr	r3, .L127+8
 5732 00f0 9847     		blx	r3
 5733              	.LVL840:
1110:/home/tienluong/workspace/atlantis_fw/AsicFwS2/include/matrix.h ****     }
 5734              		.loc 1 1110 0
 5735 00f2 3168     		ldr	r1, [r6]	@ float
 5736 00f4 A047     		blx	r4
 5737              	.LVL841:
1102:/home/tienluong/workspace/atlantis_fw/AsicFwS2/include/matrix.h ****         dst[1] -= tmp[0] * mat[4] + tmp[7] * mat[6] + tmp[8]  * mat[7];
 5738              		.loc 1 1102 0
 5739 00f6 4946     		mov	r1, r9
1110:/home/tienluong/workspace/atlantis_fw/AsicFwS2/include/matrix.h ****     }
 5740              		.loc 1 1110 0
 5741 00f8 0C90     		str	r0, [sp, #48]
1102:/home/tienluong/workspace/atlantis_fw/AsicFwS2/include/matrix.h ****         dst[1] -= tmp[0] * mat[4] + tmp[7] * mat[6] + tmp[8]  * mat[7];
 5742              		.loc 1 1102 0
 5743 00fa 0198     		ldr	r0, [sp, #4]	@ float
 5744 00fc A047     		blx	r4
 5745              	.LVL842:
 5746 00fe 3946     		mov	r1, r7
 5747 0100 8346     		mov	fp, r0
 5748 0102 0698     		ldr	r0, [sp, #24]	@ float
 5749 0104 A047     		blx	r4
 5750              	.LVL843:
 5751 0106 0146     		mov	r1, r0
 5752 0108 5846     		mov	r0, fp
 5753 010a A847     		blx	r5
 5754              	.LVL844:
 5755 010c 5146     		mov	r1, r10
 5756 010e 8346     		mov	fp, r0
 5757 0110 0998     		ldr	r0, [sp, #36]	@ float
 5758 0112 A047     		blx	r4
 5759              	.LVL845:
 5760 0114 0146     		mov	r1, r0
 5761 0116 5846     		mov	r0, fp
 5762 0118 A847     		blx	r5
 5763              	.LVL846:
1103:/home/tienluong/workspace/atlantis_fw/AsicFwS2/include/matrix.h ****         dst[2]  = tmp[2] * mat[4] + tmp[7] * mat[5] + tmp[10] * mat[7];
 5764              		.loc 1 1103 0
 5765 011a 4946     		mov	r1, r9
1102:/home/tienluong/workspace/atlantis_fw/AsicFwS2/include/matrix.h ****         dst[1] -= tmp[0] * mat[4] + tmp[7] * mat[6] + tmp[8]  * mat[7];
 5766              		.loc 1 1102 0
 5767 011c 8346     		mov	fp, r0
1103:/home/tienluong/workspace/atlantis_fw/AsicFwS2/include/matrix.h ****         dst[2]  = tmp[2] * mat[4] + tmp[7] * mat[5] + tmp[10] * mat[7];
 5768              		.loc 1 1103 0
 5769 011e 0098     		ldr	r0, [sp]	@ float
 5770 0120 A047     		blx	r4
 5771              	.LVL847:
 5772 0122 3946     		mov	r1, r7
 5773 0124 0090     		str	r0, [sp]
 5774              	.LVL848:
 5775 0126 0798     		ldr	r0, [sp, #28]	@ float
 5776 0128 A047     		blx	r4
 5777              	.LVL849:
 5778 012a 009A     		ldr	r2, [sp]
 5779 012c 0146     		mov	r1, r0
 5780 012e 1046     		mov	r0, r2
 5781 0130 A847     		blx	r5
 5782              	.LVL850:
 5783 0132 5146     		mov	r1, r10
 5784 0134 0090     		str	r0, [sp]
 5785 0136 0898     		ldr	r0, [sp, #32]	@ float
 5786 0138 A047     		blx	r4
 5787              	.LVL851:
 5788 013a 009A     		ldr	r2, [sp]
 5789 013c 0146     		mov	r1, r0
 5790 013e 1046     		mov	r0, r2
 5791 0140 A847     		blx	r5
 5792              	.LVL852:
 5793 0142 374B     		ldr	r3, .L127+8
 5794 0144 0146     		mov	r1, r0
 5795 0146 5846     		mov	r0, fp
 5796 0148 9847     		blx	r3
 5797              	.LVL853:
1110:/home/tienluong/workspace/atlantis_fw/AsicFwS2/include/matrix.h ****     }
 5798              		.loc 1 1110 0
 5799 014a 7168     		ldr	r1, [r6, #4]	@ float
 5800 014c A047     		blx	r4
 5801              	.LVL854:
 5802 014e 0C9B     		ldr	r3, [sp, #48]
 5803 0150 0146     		mov	r1, r0
 5804 0152 1846     		mov	r0, r3
 5805 0154 A847     		blx	r5
 5806              	.LVL855:
1104:/home/tienluong/workspace/atlantis_fw/AsicFwS2/include/matrix.h ****         dst[2] -= tmp[3] * mat[4] + tmp[6] * mat[5] + tmp[11] * mat[7];
 5807              		.loc 1 1104 0
 5808 0156 4946     		mov	r1, r9
1110:/home/tienluong/workspace/atlantis_fw/AsicFwS2/include/matrix.h ****     }
 5809              		.loc 1 1110 0
 5810 0158 8346     		mov	fp, r0
1104:/home/tienluong/workspace/atlantis_fw/AsicFwS2/include/matrix.h ****         dst[2] -= tmp[3] * mat[4] + tmp[6] * mat[5] + tmp[11] * mat[7];
 5811              		.loc 1 1104 0
 5812 015a 0298     		ldr	r0, [sp, #8]	@ float
 5813 015c A047     		blx	r4
 5814              	.LVL856:
 5815 015e 4146     		mov	r1, r8
 5816 0160 0090     		str	r0, [sp]
 5817 0162 0798     		ldr	r0, [sp, #28]	@ float
 5818 0164 A047     		blx	r4
 5819              	.LVL857:
 5820 0166 009B     		ldr	r3, [sp]
 5821 0168 0146     		mov	r1, r0
 5822 016a 1846     		mov	r0, r3
 5823 016c A847     		blx	r5
 5824              	.LVL858:
 5825 016e 5146     		mov	r1, r10
 5826 0170 0090     		str	r0, [sp]
 5827 0172 0A98     		ldr	r0, [sp, #40]	@ float
 5828 0174 A047     		blx	r4
 5829              	.LVL859:
 5830 0176 009B     		ldr	r3, [sp]
 5831 0178 0146     		mov	r1, r0
 5832 017a 1846     		mov	r0, r3
 5833 017c A847     		blx	r5
 5834              	.LVL860:
1105:/home/tienluong/workspace/atlantis_fw/AsicFwS2/include/matrix.h ****         dst[3]  = tmp[5] * mat[4] + tmp[8] * mat[5] + tmp[11] * mat[6];
 5835              		.loc 1 1105 0
 5836 017e 4946     		mov	r1, r9
1104:/home/tienluong/workspace/atlantis_fw/AsicFwS2/include/matrix.h ****         dst[2] -= tmp[3] * mat[4] + tmp[6] * mat[5] + tmp[11] * mat[7];
 5837              		.loc 1 1104 0
 5838 0180 0190     		str	r0, [sp, #4]
 5839              	.LVL861:
1105:/home/tienluong/workspace/atlantis_fw/AsicFwS2/include/matrix.h ****         dst[3]  = tmp[5] * mat[4] + tmp[8] * mat[5] + tmp[11] * mat[6];
 5840              		.loc 1 1105 0
 5841 0182 0398     		ldr	r0, [sp, #12]	@ float
 5842 0184 A047     		blx	r4
 5843              	.LVL862:
 5844 0186 4146     		mov	r1, r8
 5845 0188 0090     		str	r0, [sp]
 5846 018a 0698     		ldr	r0, [sp, #24]	@ float
 5847 018c A047     		blx	r4
 5848              	.LVL863:
 5849 018e 009A     		ldr	r2, [sp]
 5850 0190 0146     		mov	r1, r0
 5851 0192 1046     		mov	r0, r2
 5852 0194 A847     		blx	r5
 5853              	.LVL864:
 5854 0196 5146     		mov	r1, r10
 5855 0198 0090     		str	r0, [sp]
 5856 019a 0B98     		ldr	r0, [sp, #44]	@ float
 5857 019c A047     		blx	r4
 5858              	.LVL865:
 5859 019e 009A     		ldr	r2, [sp]
 5860 01a0 0146     		mov	r1, r0
 5861 01a2 1046     		mov	r0, r2
 5862 01a4 A847     		blx	r5
 5863              	.LVL866:
 5864 01a6 019B     		ldr	r3, [sp, #4]
 5865 01a8 0146     		mov	r1, r0
 5866 01aa 1846     		mov	r0, r3
 5867 01ac 1C4B     		ldr	r3, .L127+8
 5868 01ae 9847     		blx	r3
 5869              	.LVL867:
1110:/home/tienluong/workspace/atlantis_fw/AsicFwS2/include/matrix.h ****     }
 5870              		.loc 1 1110 0
 5871 01b0 B168     		ldr	r1, [r6, #8]	@ float
 5872 01b2 A047     		blx	r4
 5873              	.LVL868:
 5874 01b4 0146     		mov	r1, r0
 5875 01b6 5846     		mov	r0, fp
 5876 01b8 A847     		blx	r5
 5877              	.LVL869:
1106:/home/tienluong/workspace/atlantis_fw/AsicFwS2/include/matrix.h ****         dst[3] -= tmp[4] * mat[4] + tmp[9] * mat[5] + tmp[10] * mat[6];
 5878              		.loc 1 1106 0
 5879 01ba 4946     		mov	r1, r9
1110:/home/tienluong/workspace/atlantis_fw/AsicFwS2/include/matrix.h ****     }
 5880              		.loc 1 1110 0
 5881 01bc 8246     		mov	r10, r0
 5882              	.LVL870:
1106:/home/tienluong/workspace/atlantis_fw/AsicFwS2/include/matrix.h ****         dst[3] -= tmp[4] * mat[4] + tmp[9] * mat[5] + tmp[10] * mat[6];
 5883              		.loc 1 1106 0
 5884 01be 0598     		ldr	r0, [sp, #20]	@ float
 5885 01c0 A047     		blx	r4
 5886              	.LVL871:
 5887 01c2 4146     		mov	r1, r8
 5888 01c4 8346     		mov	fp, r0
 5889 01c6 0898     		ldr	r0, [sp, #32]	@ float
 5890 01c8 A047     		blx	r4
 5891              	.LVL872:
 5892 01ca 0146     		mov	r1, r0
 5893 01cc 5846     		mov	r0, fp
 5894 01ce A847     		blx	r5
 5895              	.LVL873:
 5896 01d0 3946     		mov	r1, r7
 5897 01d2 8346     		mov	fp, r0
 5898 01d4 0B98     		ldr	r0, [sp, #44]	@ float
 5899 01d6 A047     		blx	r4
 5900              	.LVL874:
 5901 01d8 0146     		mov	r1, r0
 5902 01da 5846     		mov	r0, fp
 5903 01dc A847     		blx	r5
 5904              	.LVL875:
1107:/home/tienluong/workspace/atlantis_fw/AsicFwS2/include/matrix.h **** 
 5905              		.loc 1 1107 0
 5906 01de 4946     		mov	r1, r9
1106:/home/tienluong/workspace/atlantis_fw/AsicFwS2/include/matrix.h ****         dst[3] -= tmp[4] * mat[4] + tmp[9] * mat[5] + tmp[10] * mat[6];
 5907              		.loc 1 1106 0
 5908 01e0 8346     		mov	fp, r0
1107:/home/tienluong/workspace/atlantis_fw/AsicFwS2/include/matrix.h **** 
 5909              		.loc 1 1107 0
 5910 01e2 0498     		ldr	r0, [sp, #16]	@ float
 5911 01e4 A047     		blx	r4
 5912              	.LVL876:
 5913 01e6 4146     		mov	r1, r8
 5914 01e8 8146     		mov	r9, r0
 5915              	.LVL877:
 5916 01ea 0998     		ldr	r0, [sp, #36]	@ float
 5917 01ec A047     		blx	r4
 5918              	.LVL878:
 5919 01ee 0146     		mov	r1, r0
 5920 01f0 4846     		mov	r0, r9
 5921 01f2 A847     		blx	r5
 5922              	.LVL879:
 5923 01f4 3946     		mov	r1, r7
 5924 01f6 8046     		mov	r8, r0
 5925 01f8 0A98     		ldr	r0, [sp, #40]	@ float
 5926 01fa A047     		blx	r4
 5927              	.LVL880:
 5928 01fc 0146     		mov	r1, r0
 5929 01fe 4046     		mov	r0, r8
 5930 0200 A847     		blx	r5
 5931              	.LVL881:
 5932 0202 074B     		ldr	r3, .L127+8
 5933 0204 0146     		mov	r1, r0
 5934 0206 5846     		mov	r0, fp
 5935 0208 9847     		blx	r3
 5936              	.LVL882:
1110:/home/tienluong/workspace/atlantis_fw/AsicFwS2/include/matrix.h ****     }
 5937              		.loc 1 1110 0
 5938 020a F168     		ldr	r1, [r6, #12]	@ float
 5939 020c A047     		blx	r4
 5940              	.LVL883:
 5941 020e 0146     		mov	r1, r0
 5942 0210 5046     		mov	r0, r10
 5943 0212 A847     		blx	r5
 5944              	.LVL884:
 5945              	.LBE362:
1111:/home/tienluong/workspace/atlantis_fw/AsicFwS2/include/matrix.h **** };
 5946              		.loc 1 1111 0
 5947 0214 0FB0     		add	sp, sp, #60
 5948              	.LCFI57:
 5949              		.cfi_def_cfa_offset 36
 5950              		@ sp needed
 5951 0216 05E0     		b	.L128
 5952              	.L129:
 5953              		.align	2
 5954              	.L127:
 5955 0218 00000000 		.word	__aeabi_fmul
 5956 021c 00000000 		.word	__aeabi_fadd
 5957 0220 00000000 		.word	__aeabi_fsub
 5958              	.L128:
 5959 0224 BDE8F08F 		pop	{r4, r5, r6, r7, r8, r9, r10, fp, pc}
 5960              		.cfi_endproc
 5961              	.LFE4095:
 5963              		.section	.text._ZN4ltaf11determinantIfLi4ELb1EEET_RKNS_6MatrixIS1_XT0_EXT0_EXT1_EEE,"axG",%progbit
 5964              		.align	1
 5965              		.weak	_ZN4ltaf11determinantIfLi4ELb1EEET_RKNS_6MatrixIS1_XT0_EXT0_EXT1_EEE
 5966              		.thumb
 5967              		.thumb_func
 5969              	_ZN4ltaf11determinantIfLi4ELb1EEET_RKNS_6MatrixIS1_XT0_EXT0_EXT1_EEE:
 5970              	.LFB3919:
1256:/home/tienluong/workspace/atlantis_fw/AsicFwS2/include/matrix.h **** {
 5971              		.loc 1 1256 0
 5972              		.cfi_startproc
 5973              		@ args = 0, pretend = 0, frame = 8
 5974              		@ frame_needed = 0, uses_anonymous_args = 0
 5975              	.LVL885:
 5976 0000 07B5     		push	{r0, r1, r2, lr}
 5977              	.LCFI58:
 5978              		.cfi_def_cfa_offset 16
 5979              		.cfi_offset 14, -4
 5980              	.LBB363:
1259:/home/tienluong/workspace/atlantis_fw/AsicFwS2/include/matrix.h **** }
 5981              		.loc 1 1259 0
 5982 0002 034B     		ldr	r3, .L131
 5983              	.LBE363:
1256:/home/tienluong/workspace/atlantis_fw/AsicFwS2/include/matrix.h **** {
 5984              		.loc 1 1256 0
 5985 0004 0146     		mov	r1, r0
 5986              	.LVL886:
 5987              	.LBB364:
1259:/home/tienluong/workspace/atlantis_fw/AsicFwS2/include/matrix.h **** }
 5988              		.loc 1 1259 0
 5989 0006 01A8     		add	r0, sp, #4
 5990              	.LVL887:
 5991 0008 9847     		blx	r3
 5992              	.LVL888:
 5993              	.LBE364:
 5994              		.loc 1 1260 0
 5995 000a 03B0     		add	sp, sp, #12
 5996              	.LCFI59:
 5997              		.cfi_def_cfa_offset 4
 5998              		@ sp needed
 5999 000c 5DF804FB 		ldr	pc, [sp], #4
 6000              	.L132:
 6001              		.align	2
 6002              	.L131:
 6003 0010 00000000 		.word	_ZNK4ltaf17MatrixDeterminantIfLi4EEclEPKf
 6004              		.cfi_endproc
 6005              	.LFE3919:
 6007              		.section	.text._ZN4ltaf11determinantIfLi4ELb0EEET_RKNS_6MatrixIS1_XT0_EXT0_EXT1_EEE,"axG",%progbit
 6008              		.align	1
 6009              		.weak	_ZN4ltaf11determinantIfLi4ELb0EEET_RKNS_6MatrixIS1_XT0_EXT0_EXT1_EEE
 6010              		.thumb
 6011              		.thumb_func
 6013              	_ZN4ltaf11determinantIfLi4ELb0EEET_RKNS_6MatrixIS1_XT0_EXT0_EXT1_EEE:
 6014              	.LFB3922:
1256:/home/tienluong/workspace/atlantis_fw/AsicFwS2/include/matrix.h **** {
 6015              		.loc 1 1256 0
 6016              		.cfi_startproc
 6017              		@ args = 0, pretend = 0, frame = 8
 6018              		@ frame_needed = 0, uses_anonymous_args = 0
 6019              	.LVL889:
 6020 0000 07B5     		push	{r0, r1, r2, lr}
 6021              	.LCFI60:
 6022              		.cfi_def_cfa_offset 16
 6023              		.cfi_offset 14, -4
 6024              	.LBB365:
1259:/home/tienluong/workspace/atlantis_fw/AsicFwS2/include/matrix.h **** }
 6025              		.loc 1 1259 0
 6026 0002 034B     		ldr	r3, .L134
 6027              	.LBE365:
1256:/home/tienluong/workspace/atlantis_fw/AsicFwS2/include/matrix.h **** {
 6028              		.loc 1 1256 0
 6029 0004 0146     		mov	r1, r0
 6030              	.LVL890:
 6031              	.LBB366:
1259:/home/tienluong/workspace/atlantis_fw/AsicFwS2/include/matrix.h **** }
 6032              		.loc 1 1259 0
 6033 0006 01A8     		add	r0, sp, #4
 6034              	.LVL891:
 6035 0008 9847     		blx	r3
 6036              	.LVL892:
 6037              	.LBE366:
 6038              		.loc 1 1260 0
 6039 000a 03B0     		add	sp, sp, #12
 6040              	.LCFI61:
 6041              		.cfi_def_cfa_offset 4
 6042              		@ sp needed
 6043 000c 5DF804FB 		ldr	pc, [sp], #4
 6044              	.L135:
 6045              		.align	2
 6046              	.L134:
 6047 0010 00000000 		.word	_ZNK4ltaf17MatrixDeterminantIfLi4EEclEPKf
 6048              		.cfi_endproc
 6049              	.LFE3922:
 6051              		.section	.text._ZNK4ltaf17MatrixDeterminantIdLi3EEclEPKd,"axG",%progbits,_ZNK4ltaf17MatrixDetermin
 6052              		.align	1
 6053              		.weak	_ZNK4ltaf17MatrixDeterminantIdLi3EEclEPKd
 6054              		.thumb
 6055              		.thumb_func
 6057              	_ZNK4ltaf17MatrixDeterminantIdLi3EEclEPKd:
 6058              	.LFB4102:
1069:/home/tienluong/workspace/atlantis_fw/AsicFwS2/include/matrix.h ****     {
 6059              		.loc 1 1069 0
 6060              		.cfi_startproc
 6061              		@ args = 0, pretend = 0, frame = 48
 6062              		@ frame_needed = 0, uses_anonymous_args = 0
 6063              	.LVL893:
 6064 0000 2DE9F047 		push	{r4, r5, r6, r7, r8, r9, r10, lr}
 6065              	.LCFI62:
 6066              		.cfi_def_cfa_offset 32
 6067              		.cfi_offset 4, -32
 6068              		.cfi_offset 5, -28
 6069              		.cfi_offset 6, -24
 6070              		.cfi_offset 7, -20
 6071              		.cfi_offset 8, -16
 6072              		.cfi_offset 9, -12
 6073              		.cfi_offset 10, -8
 6074              		.cfi_offset 14, -4
 6075 0004 8CB0     		sub	sp, sp, #48
 6076              	.LCFI63:
 6077              		.cfi_def_cfa_offset 80
1073:/home/tienluong/workspace/atlantis_fw/AsicFwS2/include/matrix.h ****     }
 6078              		.loc 1 1073 0
 6079 0006 D1E90823 		ldrd	r2, [r1, #32]
1069:/home/tienluong/workspace/atlantis_fw/AsicFwS2/include/matrix.h ****     {
 6080              		.loc 1 1069 0
 6081 000a 0D46     		mov	r5, r1
1073:/home/tienluong/workspace/atlantis_fw/AsicFwS2/include/matrix.h ****     }
 6082              		.loc 1 1073 0
 6083 000c CDE90023 		strd	r2, [sp]
 6084 0010 D1E90E23 		ldrd	r2, [r1, #56]
 6085 0014 CDE90223 		strd	r2, [sp, #8]
 6086 0018 D1E90A23 		ldrd	r2, [r1, #40]
 6087 001c CDE90423 		strd	r2, [sp, #16]
 6088 0020 D1E90623 		ldrd	r2, [r1, #24]
 6089 0024 D1E91089 		ldrd	r8, [r1, #64]
 6090 0028 CDE90623 		strd	r2, [sp, #24]
 6091 002c D1E90C23 		ldrd	r2, [r1, #48]
 6092 0030 294C     		ldr	r4, .L137
 6093 0032 CDE90823 		strd	r2, [sp, #32]
 6094 0036 4246     		mov	r2, r8
 6095 0038 DDE90001 		ldrd	r0, [sp]
 6096              	.LVL894:
 6097 003c 4B46     		mov	r3, r9
 6098 003e A047     		blx	r4
 6099              	.LVL895:
 6100 0040 DDE90423 		ldrd	r2, [sp, #16]
 6101 0044 DFF898A0 		ldr	r10, .L137+8
 6102 0048 0646     		mov	r6, r0
 6103 004a 0F46     		mov	r7, r1
 6104 004c DDE90201 		ldrd	r0, [sp, #8]
 6105 0050 A047     		blx	r4
 6106              	.LVL896:
 6107 0052 0246     		mov	r2, r0
 6108 0054 0B46     		mov	r3, r1
 6109 0056 3046     		mov	r0, r6
 6110 0058 3946     		mov	r1, r7
 6111 005a D047     		blx	r10
 6112              	.LVL897:
 6113 005c D5E90023 		ldrd	r2, [r5]
 6114 0060 A047     		blx	r4
 6115              	.LVL898:
 6116 0062 4246     		mov	r2, r8
 6117 0064 4B46     		mov	r3, r9
 6118 0066 CDE90A01 		strd	r0, [sp, #40]
 6119 006a DDE90601 		ldrd	r0, [sp, #24]
 6120 006e A047     		blx	r4
 6121              	.LVL899:
 6122 0070 DDE90823 		ldrd	r2, [sp, #32]
 6123 0074 0646     		mov	r6, r0
 6124 0076 0F46     		mov	r7, r1
 6125 0078 DDE90401 		ldrd	r0, [sp, #16]
 6126 007c A047     		blx	r4
 6127              	.LVL900:
 6128 007e 0246     		mov	r2, r0
 6129 0080 0B46     		mov	r3, r1
 6130 0082 3046     		mov	r0, r6
 6131 0084 3946     		mov	r1, r7
 6132 0086 D047     		blx	r10
 6133              	.LVL901:
 6134 0088 D5E90223 		ldrd	r2, [r5, #8]
 6135 008c A047     		blx	r4
 6136              	.LVL902:
 6137 008e 0246     		mov	r2, r0
 6138 0090 0B46     		mov	r3, r1
 6139 0092 DDE90A01 		ldrd	r0, [sp, #40]
 6140 0096 D047     		blx	r10
 6141              	.LVL903:
 6142 0098 DDE90223 		ldrd	r2, [sp, #8]
 6143 009c 0646     		mov	r6, r0
 6144 009e 0F46     		mov	r7, r1
 6145 00a0 DDE90601 		ldrd	r0, [sp, #24]
 6146 00a4 A047     		blx	r4
 6147              	.LVL904:
 6148 00a6 DDE90823 		ldrd	r2, [sp, #32]
 6149 00aa 8046     		mov	r8, r0
 6150 00ac 8946     		mov	r9, r1
 6151 00ae DDE90001 		ldrd	r0, [sp]
 6152 00b2 A047     		blx	r4
 6153              	.LVL905:
 6154 00b4 0246     		mov	r2, r0
 6155 00b6 0B46     		mov	r3, r1
 6156 00b8 4046     		mov	r0, r8
 6157 00ba 4946     		mov	r1, r9
 6158 00bc D047     		blx	r10
 6159              	.LVL906:
 6160 00be D5E90423 		ldrd	r2, [r5, #16]
 6161 00c2 A047     		blx	r4
 6162              	.LVL907:
 6163 00c4 054C     		ldr	r4, .L137+4
 6164 00c6 0246     		mov	r2, r0
 6165 00c8 0B46     		mov	r3, r1
 6166 00ca 3046     		mov	r0, r6
 6167 00cc 3946     		mov	r1, r7
 6168 00ce A047     		blx	r4
 6169              	.LVL908:
1074:/home/tienluong/workspace/atlantis_fw/AsicFwS2/include/matrix.h **** };
 6170              		.loc 1 1074 0
 6171 00d0 0CB0     		add	sp, sp, #48
 6172              	.LCFI64:
 6173              		.cfi_def_cfa_offset 32
 6174              		@ sp needed
 6175 00d2 BDE8F087 		pop	{r4, r5, r6, r7, r8, r9, r10, pc}
 6176              	.LVL909:
 6177              	.L138:
 6178 00d6 00BF     		.align	2
 6179              	.L137:
 6180 00d8 00000000 		.word	__aeabi_dmul
 6181 00dc 00000000 		.word	__aeabi_dadd
 6182 00e0 00000000 		.word	__aeabi_dsub
 6183              		.cfi_endproc
 6184              	.LFE4102:
 6186              		.section	.text._ZN4ltaf11determinantIdLi3ELb1EEET_RKNS_6MatrixIS1_XT0_EXT0_EXT1_EEE,"axG",%progbit
 6187              		.align	1
 6188              		.weak	_ZN4ltaf11determinantIdLi3ELb1EEET_RKNS_6MatrixIS1_XT0_EXT0_EXT1_EEE
 6189              		.thumb
 6190              		.thumb_func
 6192              	_ZN4ltaf11determinantIdLi3ELb1EEET_RKNS_6MatrixIS1_XT0_EXT0_EXT1_EEE:
 6193              	.LFB3924:
1256:/home/tienluong/workspace/atlantis_fw/AsicFwS2/include/matrix.h **** {
 6194              		.loc 1 1256 0
 6195              		.cfi_startproc
 6196              		@ args = 0, pretend = 0, frame = 8
 6197              		@ frame_needed = 0, uses_anonymous_args = 0
 6198              	.LVL910:
 6199 0000 07B5     		push	{r0, r1, r2, lr}
 6200              	.LCFI65:
 6201              		.cfi_def_cfa_offset 16
 6202              		.cfi_offset 14, -4
 6203              	.LBB367:
1259:/home/tienluong/workspace/atlantis_fw/AsicFwS2/include/matrix.h **** }
 6204              		.loc 1 1259 0
 6205 0002 034B     		ldr	r3, .L140
 6206              	.LBE367:
1256:/home/tienluong/workspace/atlantis_fw/AsicFwS2/include/matrix.h **** {
 6207              		.loc 1 1256 0
 6208 0004 0146     		mov	r1, r0
 6209              	.LVL911:
 6210              	.LBB368:
1259:/home/tienluong/workspace/atlantis_fw/AsicFwS2/include/matrix.h **** }
 6211              		.loc 1 1259 0
 6212 0006 01A8     		add	r0, sp, #4
 6213              	.LVL912:
 6214 0008 9847     		blx	r3
 6215              	.LVL913:
 6216              	.LBE368:
 6217              		.loc 1 1260 0
 6218 000a 03B0     		add	sp, sp, #12
 6219              	.LCFI66:
 6220              		.cfi_def_cfa_offset 4
 6221              		@ sp needed
 6222 000c 5DF804FB 		ldr	pc, [sp], #4
 6223              	.L141:
 6224              		.align	2
 6225              	.L140:
 6226 0010 00000000 		.word	_ZNK4ltaf17MatrixDeterminantIdLi3EEclEPKd
 6227              		.cfi_endproc
 6228              	.LFE3924:
 6230              		.section	.text._ZN4ltaf11determinantIdLi3ELb0EEET_RKNS_6MatrixIS1_XT0_EXT0_EXT1_EEE,"axG",%progbit
 6231              		.align	1
 6232              		.weak	_ZN4ltaf11determinantIdLi3ELb0EEET_RKNS_6MatrixIS1_XT0_EXT0_EXT1_EEE
 6233              		.thumb
 6234              		.thumb_func
 6236              	_ZN4ltaf11determinantIdLi3ELb0EEET_RKNS_6MatrixIS1_XT0_EXT0_EXT1_EEE:
 6237              	.LFB3927:
1256:/home/tienluong/workspace/atlantis_fw/AsicFwS2/include/matrix.h **** {
 6238              		.loc 1 1256 0
 6239              		.cfi_startproc
 6240              		@ args = 0, pretend = 0, frame = 8
 6241              		@ frame_needed = 0, uses_anonymous_args = 0
 6242              	.LVL914:
 6243 0000 07B5     		push	{r0, r1, r2, lr}
 6244              	.LCFI67:
 6245              		.cfi_def_cfa_offset 16
 6246              		.cfi_offset 14, -4
 6247              	.LBB369:
1259:/home/tienluong/workspace/atlantis_fw/AsicFwS2/include/matrix.h **** }
 6248              		.loc 1 1259 0
 6249 0002 034B     		ldr	r3, .L143
 6250              	.LBE369:
1256:/home/tienluong/workspace/atlantis_fw/AsicFwS2/include/matrix.h **** {
 6251              		.loc 1 1256 0
 6252 0004 0146     		mov	r1, r0
 6253              	.LVL915:
 6254              	.LBB370:
1259:/home/tienluong/workspace/atlantis_fw/AsicFwS2/include/matrix.h **** }
 6255              		.loc 1 1259 0
 6256 0006 01A8     		add	r0, sp, #4
 6257              	.LVL916:
 6258 0008 9847     		blx	r3
 6259              	.LVL917:
 6260              	.LBE370:
 6261              		.loc 1 1260 0
 6262 000a 03B0     		add	sp, sp, #12
 6263              	.LCFI68:
 6264              		.cfi_def_cfa_offset 4
 6265              		@ sp needed
 6266 000c 5DF804FB 		ldr	pc, [sp], #4
 6267              	.L144:
 6268              		.align	2
 6269              	.L143:
 6270 0010 00000000 		.word	_ZNK4ltaf17MatrixDeterminantIdLi3EEclEPKd
 6271              		.cfi_endproc
 6272              	.LFE3927:
 6274              		.section	.text._ZNK4ltaf17MatrixDeterminantIdLi4EEclEPKd,"axG",%progbits,_ZNK4ltaf17MatrixDetermin
 6275              		.align	1
 6276              		.weak	_ZNK4ltaf17MatrixDeterminantIdLi4EEclEPKd
 6277              		.thumb
 6278              		.thumb_func
 6280              	_ZNK4ltaf17MatrixDeterminantIdLi4EEclEPKd:
 6281              	.LFB4104:
1080:/home/tienluong/workspace/atlantis_fw/AsicFwS2/include/matrix.h ****     {
 6282              		.loc 1 1080 0
 6283              		.cfi_startproc
 6284              		@ args = 0, pretend = 0, frame = 128
 6285              		@ frame_needed = 0, uses_anonymous_args = 0
 6286              	.LVL918:
 6287 0000 2DE9F04F 		push	{r4, r5, r6, r7, r8, r9, r10, fp, lr}
 6288              	.LCFI69:
 6289              		.cfi_def_cfa_offset 36
 6290              		.cfi_offset 4, -36
 6291              		.cfi_offset 5, -32
 6292              		.cfi_offset 6, -28
 6293              		.cfi_offset 7, -24
 6294              		.cfi_offset 8, -20
 6295              		.cfi_offset 9, -16
 6296              		.cfi_offset 10, -12
 6297              		.cfi_offset 11, -8
 6298              		.cfi_offset 14, -4
 6299 0004 A1B0     		sub	sp, sp, #132
 6300              	.LCFI70:
 6301              		.cfi_def_cfa_offset 168
 6302              	.LBB371:
1086:/home/tienluong/workspace/atlantis_fw/AsicFwS2/include/matrix.h ****         tmp[1] = mat[11] * mat[14];
 6303              		.loc 1 1086 0
 6304 0006 D1E91E67 		ldrd	r6, [r1, #120]
 6305              	.LBE371:
1080:/home/tienluong/workspace/atlantis_fw/AsicFwS2/include/matrix.h ****     {
 6306              		.loc 1 1080 0
 6307 000a 8A46     		mov	r10, r1
 6308              	.LBB372:
1086:/home/tienluong/workspace/atlantis_fw/AsicFwS2/include/matrix.h ****         tmp[1] = mat[11] * mat[14];
 6309              		.loc 1 1086 0
 6310 000c D1E91423 		ldrd	r2, [r1, #80]
 6311 0010 984C     		ldr	r4, .L146
 6312 0012 1046     		mov	r0, r2
 6313              	.LVL919:
 6314 0014 CDE90023 		strd	r2, [sp]
 6315 0018 1946     		mov	r1, r3
 6316              	.LVL920:
 6317 001a 3246     		mov	r2, r6
 6318 001c 3B46     		mov	r3, r7
 6319 001e A047     		blx	r4
 6320              	.LVL921:
1087:/home/tienluong/workspace/atlantis_fw/AsicFwS2/include/matrix.h ****         tmp[2] = mat[9] * mat[15];
 6321              		.loc 1 1087 0
 6322 0020 DAE91623 		ldrd	r2, [r10, #88]
 6323 0024 CDE90223 		strd	r2, [sp, #8]
 6324 0028 DAE91C23 		ldrd	r2, [r10, #112]
 6325 002c CDE90423 		strd	r2, [sp, #16]
1100:/home/tienluong/workspace/atlantis_fw/AsicFwS2/include/matrix.h ****         dst[0] -= tmp[1] * mat[5] + tmp[2] * mat[6] + tmp[5]  * mat[7];
 6326              		.loc 1 1100 0
 6327 0030 914D     		ldr	r5, .L146+4
1101:/home/tienluong/workspace/atlantis_fw/AsicFwS2/include/matrix.h ****         dst[1]  = tmp[1] * mat[4] + tmp[6] * mat[6] + tmp[9]  * mat[7];
 6328              		.loc 1 1101 0
 6329 0032 DFF848B2 		ldr	fp, .L146+8
1086:/home/tienluong/workspace/atlantis_fw/AsicFwS2/include/matrix.h ****         tmp[1] = mat[11] * mat[14];
 6330              		.loc 1 1086 0
 6331 0036 CDE90A01 		strd	r0, [sp, #40]
 6332              	.LVL922:
1087:/home/tienluong/workspace/atlantis_fw/AsicFwS2/include/matrix.h ****         tmp[2] = mat[9] * mat[15];
 6333              		.loc 1 1087 0
 6334 003a DDE90201 		ldrd	r0, [sp, #8]
 6335              	.LVL923:
 6336 003e A047     		blx	r4
 6337              	.LVL924:
1088:/home/tienluong/workspace/atlantis_fw/AsicFwS2/include/matrix.h ****         tmp[3] = mat[11] * mat[13];
 6338              		.loc 1 1088 0
 6339 0040 DAE91223 		ldrd	r2, [r10, #72]
 6340 0044 CDE90623 		strd	r2, [sp, #24]
1087:/home/tienluong/workspace/atlantis_fw/AsicFwS2/include/matrix.h ****         tmp[2] = mat[9] * mat[15];
 6341              		.loc 1 1087 0
 6342 0048 CDE90C01 		strd	r0, [sp, #48]
 6343              	.LVL925:
1088:/home/tienluong/workspace/atlantis_fw/AsicFwS2/include/matrix.h ****         tmp[3] = mat[11] * mat[13];
 6344              		.loc 1 1088 0
 6345 004c 1046     		mov	r0, r2
 6346              	.LVL926:
 6347 004e 1946     		mov	r1, r3
 6348 0050 3246     		mov	r2, r6
 6349 0052 3B46     		mov	r3, r7
 6350 0054 A047     		blx	r4
 6351              	.LVL927:
1089:/home/tienluong/workspace/atlantis_fw/AsicFwS2/include/matrix.h ****         tmp[4] = mat[9] * mat[14];
 6352              		.loc 1 1089 0
 6353 0056 DAE91A23 		ldrd	r2, [r10, #104]
 6354 005a CDE90823 		strd	r2, [sp, #32]
1088:/home/tienluong/workspace/atlantis_fw/AsicFwS2/include/matrix.h ****         tmp[3] = mat[11] * mat[13];
 6355              		.loc 1 1088 0
 6356 005e CDE90E01 		strd	r0, [sp, #56]
 6357              	.LVL928:
1089:/home/tienluong/workspace/atlantis_fw/AsicFwS2/include/matrix.h ****         tmp[4] = mat[9] * mat[14];
 6358              		.loc 1 1089 0
 6359 0062 DDE90201 		ldrd	r0, [sp, #8]
 6360              	.LVL929:
 6361 0066 A047     		blx	r4
 6362              	.LVL930:
1090:/home/tienluong/workspace/atlantis_fw/AsicFwS2/include/matrix.h ****         tmp[5] = mat[10] * mat[13];
 6363              		.loc 1 1090 0
 6364 0068 DDE90423 		ldrd	r2, [sp, #16]
1089:/home/tienluong/workspace/atlantis_fw/AsicFwS2/include/matrix.h ****         tmp[4] = mat[9] * mat[14];
 6365              		.loc 1 1089 0
 6366 006c CDE91001 		strd	r0, [sp, #64]
 6367              	.LVL931:
1090:/home/tienluong/workspace/atlantis_fw/AsicFwS2/include/matrix.h ****         tmp[5] = mat[10] * mat[13];
 6368              		.loc 1 1090 0
 6369 0070 DDE90601 		ldrd	r0, [sp, #24]
 6370              	.LVL932:
 6371 0074 A047     		blx	r4
 6372              	.LVL933:
1091:/home/tienluong/workspace/atlantis_fw/AsicFwS2/include/matrix.h ****         tmp[6] = mat[8] * mat[15];
 6373              		.loc 1 1091 0
 6374 0076 DDE90823 		ldrd	r2, [sp, #32]
1090:/home/tienluong/workspace/atlantis_fw/AsicFwS2/include/matrix.h ****         tmp[5] = mat[10] * mat[13];
 6375              		.loc 1 1090 0
 6376 007a CDE91201 		strd	r0, [sp, #72]
1091:/home/tienluong/workspace/atlantis_fw/AsicFwS2/include/matrix.h ****         tmp[6] = mat[8] * mat[15];
 6377              		.loc 1 1091 0
 6378 007e DDE90001 		ldrd	r0, [sp]
 6379 0082 A047     		blx	r4
 6380              	.LVL934:
1092:/home/tienluong/workspace/atlantis_fw/AsicFwS2/include/matrix.h ****         tmp[7] = mat[11] * mat[12];
 6381              		.loc 1 1092 0
 6382 0084 DAE91089 		ldrd	r8, [r10, #64]
 6383 0088 3246     		mov	r2, r6
 6384 008a 3B46     		mov	r3, r7
1091:/home/tienluong/workspace/atlantis_fw/AsicFwS2/include/matrix.h ****         tmp[6] = mat[8] * mat[15];
 6385              		.loc 1 1091 0
 6386 008c CDE91401 		strd	r0, [sp, #80]
1092:/home/tienluong/workspace/atlantis_fw/AsicFwS2/include/matrix.h ****         tmp[7] = mat[11] * mat[12];
 6387              		.loc 1 1092 0
 6388 0090 4046     		mov	r0, r8
 6389 0092 4946     		mov	r1, r9
 6390 0094 A047     		blx	r4
 6391              	.LVL935:
1093:/home/tienluong/workspace/atlantis_fw/AsicFwS2/include/matrix.h ****         tmp[8] = mat[8] * mat[14];
 6392              		.loc 1 1093 0
 6393 0096 DAE91867 		ldrd	r6, [r10, #96]
 6394 009a 3246     		mov	r2, r6
 6395 009c 3B46     		mov	r3, r7
1092:/home/tienluong/workspace/atlantis_fw/AsicFwS2/include/matrix.h ****         tmp[7] = mat[11] * mat[12];
 6396              		.loc 1 1092 0
 6397 009e CDE91601 		strd	r0, [sp, #88]
1093:/home/tienluong/workspace/atlantis_fw/AsicFwS2/include/matrix.h ****         tmp[8] = mat[8] * mat[14];
 6398              		.loc 1 1093 0
 6399 00a2 DDE90201 		ldrd	r0, [sp, #8]
 6400 00a6 A047     		blx	r4
 6401              	.LVL936:
1094:/home/tienluong/workspace/atlantis_fw/AsicFwS2/include/matrix.h ****         tmp[9] = mat[10] * mat[12];
 6402              		.loc 1 1094 0
 6403 00a8 DDE90423 		ldrd	r2, [sp, #16]
1093:/home/tienluong/workspace/atlantis_fw/AsicFwS2/include/matrix.h ****         tmp[8] = mat[8] * mat[14];
 6404              		.loc 1 1093 0
 6405 00ac CDE91801 		strd	r0, [sp, #96]
1094:/home/tienluong/workspace/atlantis_fw/AsicFwS2/include/matrix.h ****         tmp[9] = mat[10] * mat[12];
 6406              		.loc 1 1094 0
 6407 00b0 4046     		mov	r0, r8
 6408 00b2 4946     		mov	r1, r9
 6409 00b4 A047     		blx	r4
 6410              	.LVL937:
1095:/home/tienluong/workspace/atlantis_fw/AsicFwS2/include/matrix.h ****         tmp[10] = mat[8] * mat[13];
 6411              		.loc 1 1095 0
 6412 00b6 3246     		mov	r2, r6
 6413 00b8 3B46     		mov	r3, r7
1094:/home/tienluong/workspace/atlantis_fw/AsicFwS2/include/matrix.h ****         tmp[9] = mat[10] * mat[12];
 6414              		.loc 1 1094 0
 6415 00ba CDE91A01 		strd	r0, [sp, #104]
1095:/home/tienluong/workspace/atlantis_fw/AsicFwS2/include/matrix.h ****         tmp[10] = mat[8] * mat[13];
 6416              		.loc 1 1095 0
 6417 00be DDE90001 		ldrd	r0, [sp]
 6418 00c2 A047     		blx	r4
 6419              	.LVL938:
1096:/home/tienluong/workspace/atlantis_fw/AsicFwS2/include/matrix.h ****         tmp[11] = mat[9] * mat[12];
 6420              		.loc 1 1096 0
 6421 00c4 DDE90823 		ldrd	r2, [sp, #32]
1095:/home/tienluong/workspace/atlantis_fw/AsicFwS2/include/matrix.h ****         tmp[10] = mat[8] * mat[13];
 6422              		.loc 1 1095 0
 6423 00c8 CDE91C01 		strd	r0, [sp, #112]
1096:/home/tienluong/workspace/atlantis_fw/AsicFwS2/include/matrix.h ****         tmp[11] = mat[9] * mat[12];
 6424              		.loc 1 1096 0
 6425 00cc 4046     		mov	r0, r8
 6426 00ce 4946     		mov	r1, r9
 6427 00d0 A047     		blx	r4
 6428              	.LVL939:
1097:/home/tienluong/workspace/atlantis_fw/AsicFwS2/include/matrix.h **** 
 6429              		.loc 1 1097 0
 6430 00d2 3246     		mov	r2, r6
 6431 00d4 3B46     		mov	r3, r7
1096:/home/tienluong/workspace/atlantis_fw/AsicFwS2/include/matrix.h ****         tmp[11] = mat[9] * mat[12];
 6432              		.loc 1 1096 0
 6433 00d6 CDE90801 		strd	r0, [sp, #32]
1097:/home/tienluong/workspace/atlantis_fw/AsicFwS2/include/matrix.h **** 
 6434              		.loc 1 1097 0
 6435 00da DDE90601 		ldrd	r0, [sp, #24]
 6436 00de A047     		blx	r4
 6437              	.LVL940:
1100:/home/tienluong/workspace/atlantis_fw/AsicFwS2/include/matrix.h ****         dst[0] -= tmp[1] * mat[5] + tmp[2] * mat[6] + tmp[5]  * mat[7];
 6438              		.loc 1 1100 0
 6439 00e0 DAE90A23 		ldrd	r2, [r10, #40]
1097:/home/tienluong/workspace/atlantis_fw/AsicFwS2/include/matrix.h **** 
 6440              		.loc 1 1097 0
 6441 00e4 CDE90601 		strd	r0, [sp, #24]
1100:/home/tienluong/workspace/atlantis_fw/AsicFwS2/include/matrix.h ****         dst[0] -= tmp[1] * mat[5] + tmp[2] * mat[6] + tmp[5]  * mat[7];
 6442              		.loc 1 1100 0
 6443 00e8 CDE90023 		strd	r2, [sp]
 6444 00ec DAE90C23 		ldrd	r2, [r10, #48]
 6445 00f0 CDE90223 		strd	r2, [sp, #8]
1102:/home/tienluong/workspace/atlantis_fw/AsicFwS2/include/matrix.h ****         dst[1] -= tmp[0] * mat[4] + tmp[7] * mat[6] + tmp[8]  * mat[7];
 6446              		.loc 1 1102 0
 6447 00f4 DAE90823 		ldrd	r2, [r10, #32]
 6448 00f8 CDE90423 		strd	r2, [sp, #16]
1100:/home/tienluong/workspace/atlantis_fw/AsicFwS2/include/matrix.h ****         dst[0] -= tmp[1] * mat[5] + tmp[2] * mat[6] + tmp[5]  * mat[7];
 6449              		.loc 1 1100 0
 6450 00fc DDE90A01 		ldrd	r0, [sp, #40]
 6451 0100 DDE90023 		ldrd	r2, [sp]
 6452 0104 A047     		blx	r4
 6453              	.LVL941:
 6454 0106 DDE90223 		ldrd	r2, [sp, #8]
 6455 010a DAE90E89 		ldrd	r8, [r10, #56]
 6456              	.LVL942:
 6457 010e 0646     		mov	r6, r0
 6458 0110 0F46     		mov	r7, r1
 6459 0112 DDE91001 		ldrd	r0, [sp, #64]
 6460 0116 A047     		blx	r4
 6461              	.LVL943:
 6462 0118 0246     		mov	r2, r0
 6463 011a 0B46     		mov	r3, r1
 6464 011c 3046     		mov	r0, r6
 6465 011e 3946     		mov	r1, r7
 6466 0120 A847     		blx	r5
 6467              	.LVL944:
 6468 0122 4246     		mov	r2, r8
 6469 0124 4B46     		mov	r3, r9
 6470 0126 0646     		mov	r6, r0
 6471 0128 0F46     		mov	r7, r1
 6472 012a DDE91201 		ldrd	r0, [sp, #72]
 6473 012e A047     		blx	r4
 6474              	.LVL945:
 6475 0130 0246     		mov	r2, r0
 6476 0132 0B46     		mov	r3, r1
 6477 0134 3046     		mov	r0, r6
 6478 0136 3946     		mov	r1, r7
 6479 0138 A847     		blx	r5
 6480              	.LVL946:
1101:/home/tienluong/workspace/atlantis_fw/AsicFwS2/include/matrix.h ****         dst[1]  = tmp[1] * mat[4] + tmp[6] * mat[6] + tmp[9]  * mat[7];
 6481              		.loc 1 1101 0
 6482 013a DDE90023 		ldrd	r2, [sp]
1100:/home/tienluong/workspace/atlantis_fw/AsicFwS2/include/matrix.h ****         dst[0] -= tmp[1] * mat[5] + tmp[2] * mat[6] + tmp[5]  * mat[7];
 6483              		.loc 1 1100 0
 6484 013e CDE91E01 		strd	r0, [sp, #120]
1101:/home/tienluong/workspace/atlantis_fw/AsicFwS2/include/matrix.h ****         dst[1]  = tmp[1] * mat[4] + tmp[6] * mat[6] + tmp[9]  * mat[7];
 6485              		.loc 1 1101 0
 6486 0142 DDE90C01 		ldrd	r0, [sp, #48]
 6487 0146 A047     		blx	r4
 6488              	.LVL947:
 6489 0148 DDE90223 		ldrd	r2, [sp, #8]
 6490 014c 0646     		mov	r6, r0
 6491 014e 0F46     		mov	r7, r1
 6492 0150 DDE90E01 		ldrd	r0, [sp, #56]
 6493 0154 A047     		blx	r4
 6494              	.LVL948:
 6495 0156 0246     		mov	r2, r0
 6496 0158 0B46     		mov	r3, r1
 6497 015a 3046     		mov	r0, r6
 6498 015c 3946     		mov	r1, r7
 6499 015e A847     		blx	r5
 6500              	.LVL949:
 6501 0160 4246     		mov	r2, r8
 6502 0162 4B46     		mov	r3, r9
 6503 0164 0646     		mov	r6, r0
 6504 0166 0F46     		mov	r7, r1
 6505 0168 DDE91401 		ldrd	r0, [sp, #80]
 6506 016c A047     		blx	r4
 6507              	.LVL950:
 6508 016e 0246     		mov	r2, r0
 6509 0170 0B46     		mov	r3, r1
 6510 0172 3046     		mov	r0, r6
 6511 0174 3946     		mov	r1, r7
 6512 0176 A847     		blx	r5
 6513              	.LVL951:
 6514 0178 0246     		mov	r2, r0
 6515 017a 0B46     		mov	r3, r1
 6516 017c DDE91E01 		ldrd	r0, [sp, #120]
 6517 0180 D847     		blx	fp
 6518              	.LVL952:
1110:/home/tienluong/workspace/atlantis_fw/AsicFwS2/include/matrix.h ****     }
 6519              		.loc 1 1110 0
 6520 0182 DAE90023 		ldrd	r2, [r10]
 6521 0186 A047     		blx	r4
 6522              	.LVL953:
1102:/home/tienluong/workspace/atlantis_fw/AsicFwS2/include/matrix.h ****         dst[1] -= tmp[0] * mat[4] + tmp[7] * mat[6] + tmp[8]  * mat[7];
 6523              		.loc 1 1102 0
 6524 0188 DDE90423 		ldrd	r2, [sp, #16]
1110:/home/tienluong/workspace/atlantis_fw/AsicFwS2/include/matrix.h ****     }
 6525              		.loc 1 1110 0
 6526 018c CDE91E01 		strd	r0, [sp, #120]
1102:/home/tienluong/workspace/atlantis_fw/AsicFwS2/include/matrix.h ****         dst[1] -= tmp[0] * mat[4] + tmp[7] * mat[6] + tmp[8]  * mat[7];
 6527              		.loc 1 1102 0
 6528 0190 DDE90C01 		ldrd	r0, [sp, #48]
 6529 0194 A047     		blx	r4
 6530              	.LVL954:
 6531 0196 DDE90223 		ldrd	r2, [sp, #8]
 6532 019a 0646     		mov	r6, r0
 6533 019c 0F46     		mov	r7, r1
 6534 019e DDE91601 		ldrd	r0, [sp, #88]
 6535 01a2 A047     		blx	r4
 6536              	.LVL955:
 6537 01a4 0246     		mov	r2, r0
 6538 01a6 0B46     		mov	r3, r1
 6539 01a8 3046     		mov	r0, r6
 6540 01aa 3946     		mov	r1, r7
 6541 01ac A847     		blx	r5
 6542              	.LVL956:
 6543 01ae 4246     		mov	r2, r8
 6544 01b0 4B46     		mov	r3, r9
 6545 01b2 0646     		mov	r6, r0
 6546 01b4 0F46     		mov	r7, r1
 6547 01b6 DDE91C01 		ldrd	r0, [sp, #112]
 6548 01ba A047     		blx	r4
 6549              	.LVL957:
 6550 01bc 0246     		mov	r2, r0
 6551 01be 0B46     		mov	r3, r1
 6552 01c0 3046     		mov	r0, r6
 6553 01c2 3946     		mov	r1, r7
 6554 01c4 A847     		blx	r5
 6555              	.LVL958:
1103:/home/tienluong/workspace/atlantis_fw/AsicFwS2/include/matrix.h ****         dst[2]  = tmp[2] * mat[4] + tmp[7] * mat[5] + tmp[10] * mat[7];
 6556              		.loc 1 1103 0
 6557 01c6 DDE90423 		ldrd	r2, [sp, #16]
1102:/home/tienluong/workspace/atlantis_fw/AsicFwS2/include/matrix.h ****         dst[1] -= tmp[0] * mat[4] + tmp[7] * mat[6] + tmp[8]  * mat[7];
 6558              		.loc 1 1102 0
 6559 01ca CDE90C01 		strd	r0, [sp, #48]
 6560              	.LVL959:
1103:/home/tienluong/workspace/atlantis_fw/AsicFwS2/include/matrix.h ****         dst[2]  = tmp[2] * mat[4] + tmp[7] * mat[5] + tmp[10] * mat[7];
 6561              		.loc 1 1103 0
 6562 01ce DDE90A01 		ldrd	r0, [sp, #40]
 6563 01d2 A047     		blx	r4
 6564              	.LVL960:
 6565 01d4 DDE90223 		ldrd	r2, [sp, #8]
 6566 01d8 0646     		mov	r6, r0
 6567 01da 0F46     		mov	r7, r1
 6568 01dc DDE91801 		ldrd	r0, [sp, #96]
 6569 01e0 A047     		blx	r4
 6570              	.LVL961:
 6571 01e2 0246     		mov	r2, r0
 6572 01e4 0B46     		mov	r3, r1
 6573 01e6 3046     		mov	r0, r6
 6574 01e8 3946     		mov	r1, r7
 6575 01ea A847     		blx	r5
 6576              	.LVL962:
 6577 01ec 4246     		mov	r2, r8
 6578 01ee 4B46     		mov	r3, r9
 6579 01f0 0646     		mov	r6, r0
 6580 01f2 0F46     		mov	r7, r1
 6581 01f4 DDE91A01 		ldrd	r0, [sp, #104]
 6582 01f8 A047     		blx	r4
 6583              	.LVL963:
 6584 01fa 0246     		mov	r2, r0
 6585 01fc 0B46     		mov	r3, r1
 6586 01fe 3046     		mov	r0, r6
 6587 0200 3946     		mov	r1, r7
 6588 0202 A847     		blx	r5
 6589              	.LVL964:
 6590 0204 0246     		mov	r2, r0
 6591 0206 0B46     		mov	r3, r1
 6592 0208 DDE90C01 		ldrd	r0, [sp, #48]
 6593 020c D847     		blx	fp
 6594              	.LVL965:
1110:/home/tienluong/workspace/atlantis_fw/AsicFwS2/include/matrix.h ****     }
 6595              		.loc 1 1110 0
 6596 020e DAE90223 		ldrd	r2, [r10, #8]
 6597 0212 A047     		blx	r4
 6598              	.LVL966:
 6599 0214 0246     		mov	r2, r0
 6600 0216 0B46     		mov	r3, r1
 6601 0218 DDE91E01 		ldrd	r0, [sp, #120]
 6602 021c A847     		blx	r5
 6603              	.LVL967:
1104:/home/tienluong/workspace/atlantis_fw/AsicFwS2/include/matrix.h ****         dst[2] -= tmp[3] * mat[4] + tmp[6] * mat[5] + tmp[11] * mat[7];
 6604              		.loc 1 1104 0
 6605 021e DDE90423 		ldrd	r2, [sp, #16]
1110:/home/tienluong/workspace/atlantis_fw/AsicFwS2/include/matrix.h ****     }
 6606              		.loc 1 1110 0
 6607 0222 CDE90A01 		strd	r0, [sp, #40]
 6608              	.LVL968:
1104:/home/tienluong/workspace/atlantis_fw/AsicFwS2/include/matrix.h ****         dst[2] -= tmp[3] * mat[4] + tmp[6] * mat[5] + tmp[11] * mat[7];
 6609              		.loc 1 1104 0
 6610 0226 DDE90E01 		ldrd	r0, [sp, #56]
 6611 022a A047     		blx	r4
 6612              	.LVL969:
 6613 022c DDE90023 		ldrd	r2, [sp]
 6614 0230 0646     		mov	r6, r0
 6615 0232 0F46     		mov	r7, r1
 6616 0234 DDE91801 		ldrd	r0, [sp, #96]
 6617 0238 A047     		blx	r4
 6618              	.LVL970:
 6619 023a 0246     		mov	r2, r0
 6620 023c 0B46     		mov	r3, r1
 6621 023e 3046     		mov	r0, r6
 6622 0240 3946     		mov	r1, r7
 6623 0242 A847     		blx	r5
 6624              	.LVL971:
 6625 0244 4246     		mov	r2, r8
 6626 0246 4B46     		mov	r3, r9
 6627 0248 0646     		mov	r6, r0
 6628 024a 0F46     		mov	r7, r1
 6629 024c DDE90801 		ldrd	r0, [sp, #32]
 6630 0250 A047     		blx	r4
 6631              	.LVL972:
 6632 0252 0246     		mov	r2, r0
 6633 0254 0B46     		mov	r3, r1
 6634 0256 3046     		mov	r0, r6
 6635 0258 3946     		mov	r1, r7
 6636 025a A847     		blx	r5
 6637              	.LVL973:
1105:/home/tienluong/workspace/atlantis_fw/AsicFwS2/include/matrix.h ****         dst[3]  = tmp[5] * mat[4] + tmp[8] * mat[5] + tmp[11] * mat[6];
 6638              		.loc 1 1105 0
 6639 025c DDE90423 		ldrd	r2, [sp, #16]
1104:/home/tienluong/workspace/atlantis_fw/AsicFwS2/include/matrix.h ****         dst[2] -= tmp[3] * mat[4] + tmp[6] * mat[5] + tmp[11] * mat[7];
 6640              		.loc 1 1104 0
 6641 0260 CDE90C01 		strd	r0, [sp, #48]
1105:/home/tienluong/workspace/atlantis_fw/AsicFwS2/include/matrix.h ****         dst[3]  = tmp[5] * mat[4] + tmp[8] * mat[5] + tmp[11] * mat[6];
 6642              		.loc 1 1105 0
 6643 0264 DDE91001 		ldrd	r0, [sp, #64]
 6644 0268 A047     		blx	r4
 6645              	.LVL974:
 6646 026a DDE90023 		ldrd	r2, [sp]
 6647 026e 0646     		mov	r6, r0
 6648 0270 0F46     		mov	r7, r1
 6649 0272 05E0     		b	.L147
 6650              	.L148:
 6651              		.align	2
 6652              	.L146:
 6653 0274 00000000 		.word	__aeabi_dmul
 6654 0278 00000000 		.word	__aeabi_dadd
 6655 027c 00000000 		.word	__aeabi_dsub
 6656              	.L147:
 6657 0280 DDE91601 		ldrd	r0, [sp, #88]
 6658 0284 A047     		blx	r4
 6659              	.LVL975:
 6660 0286 0246     		mov	r2, r0
 6661 0288 0B46     		mov	r3, r1
 6662 028a 3046     		mov	r0, r6
 6663 028c 3946     		mov	r1, r7
 6664 028e A847     		blx	r5
 6665              	.LVL976:
 6666 0290 4246     		mov	r2, r8
 6667 0292 4B46     		mov	r3, r9
 6668 0294 0646     		mov	r6, r0
 6669 0296 0F46     		mov	r7, r1
 6670 0298 DDE90601 		ldrd	r0, [sp, #24]
 6671 029c A047     		blx	r4
 6672              	.LVL977:
 6673 029e 0246     		mov	r2, r0
 6674 02a0 0B46     		mov	r3, r1
 6675 02a2 3046     		mov	r0, r6
 6676 02a4 3946     		mov	r1, r7
 6677 02a6 A847     		blx	r5
 6678              	.LVL978:
 6679 02a8 0246     		mov	r2, r0
 6680 02aa 0B46     		mov	r3, r1
 6681 02ac DDE90C01 		ldrd	r0, [sp, #48]
 6682 02b0 D847     		blx	fp
 6683              	.LVL979:
1110:/home/tienluong/workspace/atlantis_fw/AsicFwS2/include/matrix.h ****     }
 6684              		.loc 1 1110 0
 6685 02b2 DAE90423 		ldrd	r2, [r10, #16]
 6686 02b6 A047     		blx	r4
 6687              	.LVL980:
 6688 02b8 0246     		mov	r2, r0
 6689 02ba 0B46     		mov	r3, r1
 6690 02bc DDE90A01 		ldrd	r0, [sp, #40]
 6691 02c0 A847     		blx	r5
 6692              	.LVL981:
1106:/home/tienluong/workspace/atlantis_fw/AsicFwS2/include/matrix.h ****         dst[3] -= tmp[4] * mat[4] + tmp[9] * mat[5] + tmp[10] * mat[6];
 6693              		.loc 1 1106 0
 6694 02c2 DDE90423 		ldrd	r2, [sp, #16]
1110:/home/tienluong/workspace/atlantis_fw/AsicFwS2/include/matrix.h ****     }
 6695              		.loc 1 1110 0
 6696 02c6 CDE90A01 		strd	r0, [sp, #40]
1106:/home/tienluong/workspace/atlantis_fw/AsicFwS2/include/matrix.h ****         dst[3] -= tmp[4] * mat[4] + tmp[9] * mat[5] + tmp[10] * mat[6];
 6697              		.loc 1 1106 0
 6698 02ca DDE91401 		ldrd	r0, [sp, #80]
 6699 02ce A047     		blx	r4
 6700              	.LVL982:
 6701 02d0 DDE90023 		ldrd	r2, [sp]
 6702 02d4 0646     		mov	r6, r0
 6703 02d6 0F46     		mov	r7, r1
 6704 02d8 DDE91A01 		ldrd	r0, [sp, #104]
 6705 02dc A047     		blx	r4
 6706              	.LVL983:
 6707 02de 0246     		mov	r2, r0
 6708 02e0 0B46     		mov	r3, r1
 6709 02e2 3046     		mov	r0, r6
 6710 02e4 3946     		mov	r1, r7
 6711 02e6 A847     		blx	r5
 6712              	.LVL984:
 6713 02e8 DDE90223 		ldrd	r2, [sp, #8]
 6714 02ec 0646     		mov	r6, r0
 6715 02ee 0F46     		mov	r7, r1
 6716 02f0 DDE90601 		ldrd	r0, [sp, #24]
 6717 02f4 A047     		blx	r4
 6718              	.LVL985:
 6719 02f6 0246     		mov	r2, r0
 6720 02f8 0B46     		mov	r3, r1
 6721 02fa 3046     		mov	r0, r6
 6722 02fc 3946     		mov	r1, r7
 6723 02fe A847     		blx	r5
 6724              	.LVL986:
1107:/home/tienluong/workspace/atlantis_fw/AsicFwS2/include/matrix.h **** 
 6725              		.loc 1 1107 0
 6726 0300 DDE90423 		ldrd	r2, [sp, #16]
1106:/home/tienluong/workspace/atlantis_fw/AsicFwS2/include/matrix.h ****         dst[3] -= tmp[4] * mat[4] + tmp[9] * mat[5] + tmp[10] * mat[6];
 6727              		.loc 1 1106 0
 6728 0304 8046     		mov	r8, r0
 6729              	.LVL987:
 6730 0306 8946     		mov	r9, r1
1107:/home/tienluong/workspace/atlantis_fw/AsicFwS2/include/matrix.h **** 
 6731              		.loc 1 1107 0
 6732 0308 DDE91201 		ldrd	r0, [sp, #72]
 6733 030c A047     		blx	r4
 6734              	.LVL988:
 6735 030e DDE90023 		ldrd	r2, [sp]
 6736 0312 0646     		mov	r6, r0
 6737 0314 0F46     		mov	r7, r1
 6738 0316 DDE91C01 		ldrd	r0, [sp, #112]
 6739 031a A047     		blx	r4
 6740              	.LVL989:
 6741 031c 0246     		mov	r2, r0
 6742 031e 0B46     		mov	r3, r1
 6743 0320 3046     		mov	r0, r6
 6744 0322 3946     		mov	r1, r7
 6745 0324 A847     		blx	r5
 6746              	.LVL990:
 6747 0326 0646     		mov	r6, r0
 6748 0328 0F46     		mov	r7, r1
 6749 032a DDE90801 		ldrd	r0, [sp, #32]
 6750 032e DDE90223 		ldrd	r2, [sp, #8]
 6751 0332 A047     		blx	r4
 6752              	.LVL991:
 6753 0334 0246     		mov	r2, r0
 6754 0336 0B46     		mov	r3, r1
 6755 0338 3046     		mov	r0, r6
 6756 033a 3946     		mov	r1, r7
 6757 033c A847     		blx	r5
 6758              	.LVL992:
 6759 033e 0246     		mov	r2, r0
 6760 0340 0B46     		mov	r3, r1
 6761 0342 4046     		mov	r0, r8
 6762 0344 4946     		mov	r1, r9
 6763 0346 D847     		blx	fp
 6764              	.LVL993:
1110:/home/tienluong/workspace/atlantis_fw/AsicFwS2/include/matrix.h ****     }
 6765              		.loc 1 1110 0
 6766 0348 DAE90623 		ldrd	r2, [r10, #24]
 6767 034c A047     		blx	r4
 6768              	.LVL994:
 6769 034e 0246     		mov	r2, r0
 6770 0350 0B46     		mov	r3, r1
 6771 0352 DDE90A01 		ldrd	r0, [sp, #40]
 6772 0356 A847     		blx	r5
 6773              	.LVL995:
 6774              	.LBE372:
1111:/home/tienluong/workspace/atlantis_fw/AsicFwS2/include/matrix.h **** };
 6775              		.loc 1 1111 0
 6776 0358 21B0     		add	sp, sp, #132
 6777              	.LCFI71:
 6778              		.cfi_def_cfa_offset 36
 6779              	.LVL996:
 6780              		@ sp needed
 6781 035a BDE8F08F 		pop	{r4, r5, r6, r7, r8, r9, r10, fp, pc}
 6782              		.cfi_endproc
 6783              	.LFE4104:
 6785 035e 00BF     		.section	.text._ZN4ltaf11determinantIdLi4ELb1EEET_RKNS_6MatrixIS1_XT0_EXT0_EXT1_EEE,"axG",%progbit
 6786              		.align	1
 6787              		.weak	_ZN4ltaf11determinantIdLi4ELb1EEET_RKNS_6MatrixIS1_XT0_EXT0_EXT1_EEE
 6788              		.thumb
 6789              		.thumb_func
 6791              	_ZN4ltaf11determinantIdLi4ELb1EEET_RKNS_6MatrixIS1_XT0_EXT0_EXT1_EEE:
 6792              	.LFB3925:
1256:/home/tienluong/workspace/atlantis_fw/AsicFwS2/include/matrix.h **** {
 6793              		.loc 1 1256 0
 6794              		.cfi_startproc
 6795              		@ args = 0, pretend = 0, frame = 8
 6796              		@ frame_needed = 0, uses_anonymous_args = 0
 6797              	.LVL997:
 6798 0000 07B5     		push	{r0, r1, r2, lr}
 6799              	.LCFI72:
 6800              		.cfi_def_cfa_offset 16
 6801              		.cfi_offset 14, -4
 6802              	.LBB373:
1259:/home/tienluong/workspace/atlantis_fw/AsicFwS2/include/matrix.h **** }
 6803              		.loc 1 1259 0
 6804 0002 034B     		ldr	r3, .L150
 6805              	.LBE373:
1256:/home/tienluong/workspace/atlantis_fw/AsicFwS2/include/matrix.h **** {
 6806              		.loc 1 1256 0
 6807 0004 0146     		mov	r1, r0
 6808              	.LVL998:
 6809              	.LBB374:
1259:/home/tienluong/workspace/atlantis_fw/AsicFwS2/include/matrix.h **** }
 6810              		.loc 1 1259 0
 6811 0006 01A8     		add	r0, sp, #4
 6812              	.LVL999:
 6813 0008 9847     		blx	r3
 6814              	.LVL1000:
 6815              	.LBE374:
 6816              		.loc 1 1260 0
 6817 000a 03B0     		add	sp, sp, #12
 6818              	.LCFI73:
 6819              		.cfi_def_cfa_offset 4
 6820              		@ sp needed
 6821 000c 5DF804FB 		ldr	pc, [sp], #4
 6822              	.L151:
 6823              		.align	2
 6824              	.L150:
 6825 0010 00000000 		.word	_ZNK4ltaf17MatrixDeterminantIdLi4EEclEPKd
 6826              		.cfi_endproc
 6827              	.LFE3925:
 6829              		.section	.text._ZN4ltaf11determinantIdLi4ELb0EEET_RKNS_6MatrixIS1_XT0_EXT0_EXT1_EEE,"axG",%progbit
 6830              		.align	1
 6831              		.weak	_ZN4ltaf11determinantIdLi4ELb0EEET_RKNS_6MatrixIS1_XT0_EXT0_EXT1_EEE
 6832              		.thumb
 6833              		.thumb_func
 6835              	_ZN4ltaf11determinantIdLi4ELb0EEET_RKNS_6MatrixIS1_XT0_EXT0_EXT1_EEE:
 6836              	.LFB3928:
1256:/home/tienluong/workspace/atlantis_fw/AsicFwS2/include/matrix.h **** {
 6837              		.loc 1 1256 0
 6838              		.cfi_startproc
 6839              		@ args = 0, pretend = 0, frame = 8
 6840              		@ frame_needed = 0, uses_anonymous_args = 0
 6841              	.LVL1001:
 6842 0000 07B5     		push	{r0, r1, r2, lr}
 6843              	.LCFI74:
 6844              		.cfi_def_cfa_offset 16
 6845              		.cfi_offset 14, -4
 6846              	.LBB375:
1259:/home/tienluong/workspace/atlantis_fw/AsicFwS2/include/matrix.h **** }
 6847              		.loc 1 1259 0
 6848 0002 034B     		ldr	r3, .L153
 6849              	.LBE375:
1256:/home/tienluong/workspace/atlantis_fw/AsicFwS2/include/matrix.h **** {
 6850              		.loc 1 1256 0
 6851 0004 0146     		mov	r1, r0
 6852              	.LVL1002:
 6853              	.LBB376:
1259:/home/tienluong/workspace/atlantis_fw/AsicFwS2/include/matrix.h **** }
 6854              		.loc 1 1259 0
 6855 0006 01A8     		add	r0, sp, #4
 6856              	.LVL1003:
 6857 0008 9847     		blx	r3
 6858              	.LVL1004:
 6859              	.LBE376:
 6860              		.loc 1 1260 0
 6861 000a 03B0     		add	sp, sp, #12
 6862              	.LCFI75:
 6863              		.cfi_def_cfa_offset 4
 6864              		@ sp needed
 6865 000c 5DF804FB 		ldr	pc, [sp], #4
 6866              	.L154:
 6867              		.align	2
 6868              	.L153:
 6869 0010 00000000 		.word	_ZNK4ltaf17MatrixDeterminantIdLi4EEclEPKd
 6870              		.cfi_endproc
 6871              	.LFE3928:
 6873              		.section	.rodata.str1.1,"aMS",%progbits,1
 6874              	.LC0:
 6875 0000 524F4920 		.ascii	"ROI transfer of cam ch %d\000"
 6875      7472616E 
 6875      73666572 
 6875      206F6620 
 6875      63616D20 
 6876              	.LC1:
 6877 001a 524F4920 		.ascii	"ROI transfer to %X (mirror hc: %d): %f %f\000"
 6877      7472616E 
 6877      73666572 
 6877      20746F20 
 6877      25582028 
 6878              	.LC2:
 6879 0044 41627320 		.ascii	"Abs ROI of %X: %u %u %u %u\000"
 6879      524F4920 
 6879      6F662025 
 6879      583A2025 
 6879      75202575 
 6880              		.text
 6881              	.Letext0:
 6882              		.file 3 "/opt/toolchains/gcc-arm-none-eabi-4_9-2015q1/arm-none-eabi/include/c++/4.9.3/type_traits"
 6883              		.file 4 "/opt/toolchains/gcc-arm-none-eabi-4_9-2015q1/arm-none-eabi/include/c++/4.9.3/bits/excepti
 6884              		.file 5 "/opt/toolchains/gcc-arm-none-eabi-4_9-2015q1/arm-none-eabi/include/c++/4.9.3/arm-none-eab
 6885              		.file 6 "/opt/toolchains/gcc-arm-none-eabi-4_9-2015q1/arm-none-eabi/include/c++/4.9.3/bits/stl_pai
 6886              		.file 7 "/opt/toolchains/gcc-arm-none-eabi-4_9-2015q1/arm-none-eabi/include/c++/4.9.3/new"
 6887              		.file 8 "/opt/toolchains/gcc-arm-none-eabi-4_9-2015q1/arm-none-eabi/include/c++/4.9.3/bits/allocat
 6888              		.file 9 "/opt/toolchains/gcc-arm-none-eabi-4_9-2015q1/arm-none-eabi/include/c++/4.9.3/cwchar"
 6889              		.file 10 "/opt/toolchains/gcc-arm-none-eabi-4_9-2015q1/arm-none-eabi/include/c++/4.9.3/bits/uses_a
 6890              		.file 11 "/opt/toolchains/gcc-arm-none-eabi-4_9-2015q1/arm-none-eabi/include/c++/4.9.3/bits/char_t
 6891              		.file 12 "/opt/toolchains/gcc-arm-none-eabi-4_9-2015q1/arm-none-eabi/include/c++/4.9.3/cstdint"
 6892              		.file 13 "/opt/toolchains/gcc-arm-none-eabi-4_9-2015q1/arm-none-eabi/include/c++/4.9.3/clocale"
 6893              		.file 14 "/opt/toolchains/gcc-arm-none-eabi-4_9-2015q1/arm-none-eabi/include/c++/4.9.3/bits/basic_
 6894              		.file 15 "/opt/toolchains/gcc-arm-none-eabi-4_9-2015q1/arm-none-eabi/include/c++/4.9.3/bits/basic_
 6895              		.file 16 "/opt/toolchains/gcc-arm-none-eabi-4_9-2015q1/arm-none-eabi/include/c++/4.9.3/tuple"
 6896              		.file 17 "/opt/toolchains/gcc-arm-none-eabi-4_9-2015q1/arm-none-eabi/include/c++/4.9.3/bits/shared
 6897              		.file 18 "/opt/toolchains/gcc-arm-none-eabi-4_9-2015q1/arm-none-eabi/include/c++/4.9.3/cstdlib"
 6898              		.file 19 "/opt/toolchains/gcc-arm-none-eabi-4_9-2015q1/arm-none-eabi/include/c++/4.9.3/cmath"
 6899              		.file 20 "/opt/toolchains/gcc-arm-none-eabi-4_9-2015q1/arm-none-eabi/include/c++/4.9.3/debug/debug
 6900              		.file 21 "/opt/toolchains/gcc-arm-none-eabi-4_9-2015q1/arm-none-eabi/include/c++/4.9.3/bits/random
 6901              		.file 22 "/opt/toolchains/gcc-arm-none-eabi-4_9-2015q1/arm-none-eabi/include/c++/4.9.3/bits/ptr_tr
 6902              		.file 23 "/opt/toolchains/gcc-arm-none-eabi-4_9-2015q1/arm-none-eabi/include/c++/4.9.3/bits/alloc_
 6903              		.file 24 "/opt/toolchains/gcc-arm-none-eabi-4_9-2015q1/arm-none-eabi/include/c++/4.9.3/bits/stl_ve
 6904              		.file 25 "/opt/toolchains/gcc-arm-none-eabi-4_9-2015q1/arm-none-eabi/include/c++/4.9.3/bits/vector
 6905              		.file 26 "/opt/toolchains/gcc-arm-none-eabi-4_9-2015q1/arm-none-eabi/include/c++/4.9.3/initializer
 6906              		.file 27 "/opt/toolchains/gcc-arm-none-eabi-4_9-2015q1/arm-none-eabi/include/c++/4.9.3/bits/stl_it
 6907              		.file 28 "/opt/toolchains/gcc-arm-none-eabi-4_9-2015q1/arm-none-eabi/include/c++/4.9.3/bits/unique
 6908              		.file 29 "/opt/toolchains/gcc-arm-none-eabi-4_9-2015q1/arm-none-eabi/include/c++/4.9.3/bitset"
 6909              		.file 30 "/opt/toolchains/gcc-arm-none-eabi-4_9-2015q1/arm-none-eabi/include/c++/4.9.3/array"
 6910              		.file 31 "/opt/toolchains/gcc-arm-none-eabi-4_9-2015q1/arm-none-eabi/include/c++/4.9.3/bits/atomic
 6911              		.file 32 "/opt/toolchains/gcc-arm-none-eabi-4_9-2015q1/arm-none-eabi/include/c++/4.9.3/atomic"
 6912              		.file 33 "/opt/toolchains/gcc-arm-none-eabi-4_9-2015q1/arm-none-eabi/include/c++/4.9.3/bits/cpp_ty
 6913              		.file 34 "/opt/toolchains/gcc-arm-none-eabi-4_9-2015q1/arm-none-eabi/include/c++/4.9.3/bits/predef
 6914              		.file 35 "/opt/toolchains/gcc-arm-none-eabi-4_9-2015q1/arm-none-eabi/include/c++/4.9.3/ext/new_all
 6915              		.file 36 "/opt/toolchains/gcc-arm-none-eabi-4_9-2015q1/arm-none-eabi/include/c++/4.9.3/ext/numeric
 6916              		.file 37 "/opt/toolchains/gcc-arm-none-eabi-4_9-2015q1/arm-none-eabi/include/c++/4.9.3/ext/concurr
 6917              		.file 38 "/opt/toolchains/gcc-arm-none-eabi-4_9-2015q1/arm-none-eabi/include/c++/4.9.3/ext/alloc_t
 6918              		.file 39 "/opt/toolchains/gcc-arm-none-eabi-4_9-2015q1/arm-none-eabi/include/c++/4.9.3/bits/stl_it
 6919              		.file 40 "/opt/toolchains/gcc-arm-none-eabi-4_9-2015q1/lib/gcc/arm-none-eabi/4.9.3/include/stddef.
 6920              		.file 41 "/opt/toolchains/gcc-arm-none-eabi-4_9-2015q1/arm-none-eabi/include/machine/_default_type
 6921              		.file 42 "/opt/toolchains/gcc-arm-none-eabi-4_9-2015q1/arm-none-eabi/include/sys/lock.h"
 6922              		.file 43 "/opt/toolchains/gcc-arm-none-eabi-4_9-2015q1/arm-none-eabi/include/sys/_types.h"
 6923              		.file 44 "/opt/toolchains/gcc-arm-none-eabi-4_9-2015q1/arm-none-eabi/include/sys/reent.h"
 6924              		.file 45 "/opt/toolchains/gcc-arm-none-eabi-4_9-2015q1/lib/gcc/arm-none-eabi/4.9.3/include/stdarg.
 6925              		.file 46 "<built-in>"
 6926              		.file 47 "/opt/toolchains/gcc-arm-none-eabi-4_9-2015q1/arm-none-eabi/include/wchar.h"
 6927              		.file 48 "/opt/toolchains/gcc-arm-none-eabi-4_9-2015q1/arm-none-eabi/include/c++/4.9.3/arm-none-ea
 6928              		.file 49 "/opt/toolchains/gcc-arm-none-eabi-4_9-2015q1/arm-none-eabi/include/stdint.h"
 6929              		.file 50 "/opt/toolchains/gcc-arm-none-eabi-4_9-2015q1/arm-none-eabi/include/locale.h"
 6930              		.file 51 "/opt/toolchains/gcc-arm-none-eabi-4_9-2015q1/arm-none-eabi/include/stdlib.h"
 6931              		.file 52 "/home/tienluong/workspace/atlantis_fw/platform/os/Source/portable/GCC/cortex-r4/portmacr
 6932              		.file 53 "/home/tienluong/workspace/atlantis_fw/platform/os/Source/include/queue.h"
 6933              		.file 54 "/home/tienluong/workspace/atlantis_fw/platform/os/Source/include/semphr.h"
 6934              		.file 55 "/home/tienluong/workspace/atlantis_fw/platform/os/Source/include/event_groups.h"
 6935              		.file 56 "/home/tienluong/workspace/atlantis_fw/platform/asic/hal/include/hal_syncio.h"
 6936              		.file 57 "/home/tienluong/workspace/atlantis_fw/platform/asic/hal/include/hal_pwm.h"
 6937              		.file 58 "/home/tienluong/workspace/atlantis_fw/platform/asic/hal/include/hal_i2c.h"
 6938              		.file 59 "/home/tienluong/workspace/atlantis_fw/platform/asic/hal/include/hal_mipi2axi.h"
 6939              		.file 60 "/home/tienluong/workspace/atlantis_fw/platform/common/lcc_system.h"
 6940              		.file 61 "/home/tienluong/workspace/atlantis_fw/AsicFwS2/include/img_sensor.h"
 6941              		.file 62 "/home/tienluong/workspace/atlantis_fw/AsicFwS2/include/optical.h"
 6942              		.file 63 "/home/tienluong/workspace/atlantis_fw/AsicFwS2/include/pwr_ctrl.h"
 6943              		.file 64 "/home/tienluong/workspace/atlantis_fw/platform/driver/include/eeprom.h"
 6944              		.file 65 "/home/tienluong/workspace/atlantis_fw/AsicFwS2/include/task_af_ctrl.h"
 6945              		.file 66 "/home/tienluong/workspace/atlantis_fw/AsicFwS2/include/light_system.h"
 6946              		.file 67 "/home/tienluong/workspace/atlantis_fw/platform/driver/include/hall.h"
 6947              		.file 68 "/home/tienluong/workspace/atlantis_fw/AsicFwS2/include/actuator.h"
 6948              		.file 69 "/opt/toolchains/gcc-arm-none-eabi-4_9-2015q1/arm-none-eabi/include/math.h"
 6949              		.file 70 "/home/tienluong/workspace/atlantis_fw/AsicFwS2/include/mirrorsystems.h"
 6950              		.file 71 "/home/tienluong/workspace/atlantis_fw/AsicFwS2/include/calibclasses.h"
 6951              		.file 72 "/home/tienluong/workspace/atlantis_fw/AsicFwS2/include/opticalzoom.h"
 6952              		.file 73 "/home/tienluong/workspace/atlantis_fw/platform/common/lightheader/include/protobuf-c/pro
 6953              		.file 74 "/home/tienluong/workspace/atlantis_fw/platform/common/lightheader/include/camera_id.pb-c
 6954              		.file 75 "/home/tienluong/workspace/atlantis_fw/platform/common/lightheader/include/point2i.pb-c.h
 6955              		.file 76 "/home/tienluong/workspace/atlantis_fw/platform/common/lightheader/include/point2f.pb-c.h
 6956              		.file 77 "/home/tienluong/workspace/atlantis_fw/platform/common/lightheader/include/camera_module.
 6957              		.file 78 "/home/tienluong/workspace/atlantis_fw/platform/common/lightheader/include/time_stamp.pb-
 6958              		.file 79 "/home/tienluong/workspace/atlantis_fw/platform/common/lightheader/include/matrix3x3f.pb-
 6959              		.file 80 "/home/tienluong/workspace/atlantis_fw/platform/common/lightheader/include/point3f.pb-c.h
 6960              		.file 81 "/home/tienluong/workspace/atlantis_fw/platform/common/lightheader/include/range2f.pb-c.h
 6961              		.file 82 "/home/tienluong/workspace/atlantis_fw/platform/common/lightheader/include/mirror_system.
 6962              		.file 83 "/home/tienluong/workspace/atlantis_fw/platform/common/lightheader/include/distortion.pb-
 6963              		.file 84 "/home/tienluong/workspace/atlantis_fw/platform/common/lightheader/include/device_temp.pb
 6964              		.file 85 "/home/tienluong/workspace/atlantis_fw/platform/common/lightheader/include/geometric_cali
 6965              		.file 86 "/home/tienluong/workspace/atlantis_fw/platform/common/lightheader/include/color_calibrat
 6966              		.file 87 "/home/tienluong/workspace/atlantis_fw/platform/common/lightheader/include/sensor_charact
 6967              		.file 88 "/home/tienluong/workspace/atlantis_fw/platform/common/lightheader/include/matrix4x4f.pb-
 6968              		.file 89 "/home/tienluong/workspace/atlantis_fw/platform/common/lightheader/include/vignetting_cha
 6969              		.file 90 "/home/tienluong/workspace/atlantis_fw/platform/common/lightheader/include/hot_pixel_map.
 6970              		.file 91 "/home/tienluong/workspace/atlantis_fw/platform/common/lightheader/include/dead_pixel_map
 6971              		.file 92 "/home/tienluong/workspace/atlantis_fw/platform/common/lightheader/include/tof_calibratio
 6972              		.file 93 "/home/tienluong/workspace/atlantis_fw/platform/common/lightheader/include/flash_calibrat
 6973              		.file 94 "/home/tienluong/workspace/atlantis_fw/platform/common/lightheader/include/sensor_type.pb
 6974              		.file 95 "/home/tienluong/workspace/atlantis_fw/platform/common/lightheader/include/hw_info.pb-c.h
 6975              		.file 96 "/home/tienluong/workspace/atlantis_fw/platform/common/lightheader/include/view_preferenc
 6976              		.file 97 "/home/tienluong/workspace/atlantis_fw/platform/common/lightheader/include/proximity_sens
 6977              		.file 98 "/home/tienluong/workspace/atlantis_fw/platform/common/lightheader/include/imu_data.pb-c.
 6978              		.file 99 "/home/tienluong/workspace/atlantis_fw/platform/common/lightheader/include/lightheader.pb
 6979              		.file 100 "/home/tienluong/workspace/atlantis_fw/AsicFwS2/include/af_helper.h"
 6980              		.file 101 "/home/tienluong/workspace/atlantis_fw/AsicFwS2/include/lens_position_control.h"
 6981              		.file 102 "/home/tienluong/workspace/atlantis_fw/AsicFwS2/include/rectangle.h"
 6982              		.file 103 "/home/tienluong/workspace/atlantis_fw/AsicFwS2/include/image_pixel_iter.h"
 6983              		.file 104 "/home/tienluong/workspace/atlantis_fw/AsicFwS2/include/contrast_processor.h"
 6984              		.file 105 "/home/tienluong/workspace/atlantis_fw/AsicFwS2/include/contrast_refine_step.h"
 6985              		.file 106 "/home/tienluong/workspace/atlantis_fw/AsicFwS2/include/contrast_pass.h"
 6986              		.file 107 "/home/tienluong/workspace/atlantis_fw/AsicFwS2/include/contrast_sweep.h"
 6987              		.file 108 "/home/tienluong/workspace/atlantis_fw/AsicFwS2/include/contrast_sweep_manager.h"
 6988              		.file 109 "/home/tienluong/workspace/atlantis_fw/AsicFwS2/include/calib_data_manager.h"
 6989              		.file 110 "/home/tienluong/workspace/atlantis_fw/AsicFwS2/include/optical_zoom_manager.h"
 6990              		.file 111 "/home/tienluong/workspace/atlantis_fw/AsicFwS2/include/af_roi_transfer.h"
DEFINED SYMBOLS
                            *ABS*:00000000 af_roi_transfer.cpp
     /tmp/cc4eEpRd.s:22     .text._ZNK4ltaf20SquareMatrixInverterIfLi2EE3runEPf.isra.4:00000000 $t
     /tmp/cc4eEpRd.s:26     .text._ZNK4ltaf20SquareMatrixInverterIfLi2EE3runEPf.isra.4:00000000 _ZNK4ltaf20SquareMatrixInverterIfLi2EE3runEPf.isra.4
     /tmp/cc4eEpRd.s:127    .text._ZNK4ltaf20SquareMatrixInverterIfLi2EE3runEPf.isra.4:00000064 $d
     /tmp/cc4eEpRd.s:134    .text._ZN4ltaf7inverseIfLi2ELb1EEENS_6MatrixIT_XT0_EXT0_EXT1_EEERKS3_:00000000 $t
     /tmp/cc4eEpRd.s:139    .text._ZN4ltaf7inverseIfLi2ELb1EEENS_6MatrixIT_XT0_EXT0_EXT1_EEERKS3_:00000000 _ZN4ltaf7inverseIfLi2ELb1EEENS_6MatrixIT_XT0_EXT0_EXT1_EEERKS3_
     /tmp/cc4eEpRd.s:177    .text._ZN4ltaf7inverseIfLi2ELb1EEENS_6MatrixIT_XT0_EXT0_EXT1_EEERKS3_:00000014 $d
     /tmp/cc4eEpRd.s:182    .text._ZN4ltaf7inverseIfLi2ELb0EEENS_6MatrixIT_XT0_EXT0_EXT1_EEERKS3_:00000000 $t
     /tmp/cc4eEpRd.s:187    .text._ZN4ltaf7inverseIfLi2ELb0EEENS_6MatrixIT_XT0_EXT0_EXT1_EEERKS3_:00000000 _ZN4ltaf7inverseIfLi2ELb0EEENS_6MatrixIT_XT0_EXT0_EXT1_EEERKS3_
     /tmp/cc4eEpRd.s:225    .text._ZN4ltaf7inverseIfLi2ELb0EEENS_6MatrixIT_XT0_EXT0_EXT1_EEERKS3_:00000014 $d
     /tmp/cc4eEpRd.s:230    .text._ZN4ltaf11determinantIfLi2ELb1EEET_RKNS_6MatrixIS1_XT0_EXT0_EXT1_EEE:00000000 $t
     /tmp/cc4eEpRd.s:235    .text._ZN4ltaf11determinantIfLi2ELb1EEET_RKNS_6MatrixIS1_XT0_EXT0_EXT1_EEE:00000000 _ZN4ltaf11determinantIfLi2ELb1EEET_RKNS_6MatrixIS1_XT0_EXT0_EXT1_EEE
     /tmp/cc4eEpRd.s:280    .text._ZN4ltaf11determinantIfLi2ELb1EEET_RKNS_6MatrixIS1_XT0_EXT0_EXT1_EEE:00000020 $d
     /tmp/cc4eEpRd.s:286    .text._ZN4ltaf11determinantIfLi2ELb0EEET_RKNS_6MatrixIS1_XT0_EXT0_EXT1_EEE:00000000 $t
     /tmp/cc4eEpRd.s:291    .text._ZN4ltaf11determinantIfLi2ELb0EEET_RKNS_6MatrixIS1_XT0_EXT0_EXT1_EEE:00000000 _ZN4ltaf11determinantIfLi2ELb0EEET_RKNS_6MatrixIS1_XT0_EXT0_EXT1_EEE
     /tmp/cc4eEpRd.s:336    .text._ZN4ltaf11determinantIfLi2ELb0EEET_RKNS_6MatrixIS1_XT0_EXT0_EXT1_EEE:00000020 $d
     /tmp/cc4eEpRd.s:344    .text._ZN4ltaf11determinantIdLi2ELb1EEET_RKNS_6MatrixIS1_XT0_EXT0_EXT1_EEE:00000000 $t
     /tmp/cc4eEpRd.s:349    .text._ZN4ltaf11determinantIdLi2ELb1EEET_RKNS_6MatrixIS1_XT0_EXT0_EXT1_EEE:00000000 _ZN4ltaf11determinantIdLi2ELb1EEET_RKNS_6MatrixIS1_XT0_EXT0_EXT1_EEE
     /tmp/cc4eEpRd.s:399    .text._ZN4ltaf11determinantIdLi2ELb1EEET_RKNS_6MatrixIS1_XT0_EXT0_EXT1_EEE:0000002c $d
     /tmp/cc4eEpRd.s:405    .text._ZN4ltaf11determinantIdLi2ELb0EEET_RKNS_6MatrixIS1_XT0_EXT0_EXT1_EEE:00000000 $t
     /tmp/cc4eEpRd.s:410    .text._ZN4ltaf11determinantIdLi2ELb0EEET_RKNS_6MatrixIS1_XT0_EXT0_EXT1_EEE:00000000 _ZN4ltaf11determinantIdLi2ELb0EEET_RKNS_6MatrixIS1_XT0_EXT0_EXT1_EEE
     /tmp/cc4eEpRd.s:460    .text._ZN4ltaf11determinantIdLi2ELb0EEET_RKNS_6MatrixIS1_XT0_EXT0_EXT1_EEE:0000002c $d
     /tmp/cc4eEpRd.s:473    .text._ZN15af_roi_transfer3runEm:00000000 $t
     /tmp/cc4eEpRd.s:478    .text._ZN15af_roi_transfer3runEm:00000000 _ZN15af_roi_transfer3runEm
     /tmp/cc4eEpRd.s:912    .text._ZN15af_roi_transfer3runEm:00000234 $d
     /tmp/cc4eEpRd.s:943    .text.af_roi_transfer_execute:00000000 $t
     /tmp/cc4eEpRd.s:948    .text.af_roi_transfer_execute:00000000 af_roi_transfer_execute
     /tmp/cc4eEpRd.s:989    .text.af_roi_transfer_execute:00000018 $d
     /tmp/cc4eEpRd.s:996    .text._ZNK4ltaf20SquareMatrixInverterIfLi3EE3runEPf:00000000 $t
     /tmp/cc4eEpRd.s:1001   .text._ZNK4ltaf20SquareMatrixInverterIfLi3EE3runEPf:00000000 _ZNK4ltaf20SquareMatrixInverterIfLi3EE3runEPf
     /tmp/cc4eEpRd.s:1288   .text._ZNK4ltaf20SquareMatrixInverterIfLi3EE3runEPf:00000168 $d
     /tmp/cc4eEpRd.s:1296   .text._ZN4ltaf7inverseIfLi3ELb1EEENS_6MatrixIT_XT0_EXT0_EXT1_EEERKS3_:00000000 $t
     /tmp/cc4eEpRd.s:1301   .text._ZN4ltaf7inverseIfLi3ELb1EEENS_6MatrixIT_XT0_EXT0_EXT1_EEERKS3_:00000000 _ZN4ltaf7inverseIfLi3ELb1EEENS_6MatrixIT_XT0_EXT0_EXT1_EEERKS3_
     /tmp/cc4eEpRd.s:1366   .text._ZN4ltaf7inverseIfLi3ELb1EEENS_6MatrixIT_XT0_EXT0_EXT1_EEERKS3_:00000024 $d
     /tmp/cc4eEpRd.s:1371   .text._ZN4ltaf7inverseIfLi3ELb0EEENS_6MatrixIT_XT0_EXT0_EXT1_EEERKS3_:00000000 $t
     /tmp/cc4eEpRd.s:1376   .text._ZN4ltaf7inverseIfLi3ELb0EEENS_6MatrixIT_XT0_EXT0_EXT1_EEERKS3_:00000000 _ZN4ltaf7inverseIfLi3ELb0EEENS_6MatrixIT_XT0_EXT0_EXT1_EEERKS3_
     /tmp/cc4eEpRd.s:1441   .text._ZN4ltaf7inverseIfLi3ELb0EEENS_6MatrixIT_XT0_EXT0_EXT1_EEERKS3_:00000024 $d
     /tmp/cc4eEpRd.s:1446   .text._ZNK4ltaf20SquareMatrixInverterIfLi4EE3runEPf:00000000 $t
     /tmp/cc4eEpRd.s:1451   .text._ZNK4ltaf20SquareMatrixInverterIfLi4EE3runEPf:00000000 _ZNK4ltaf20SquareMatrixInverterIfLi4EE3runEPf
     /tmp/cc4eEpRd.s:1877   .text._ZNK4ltaf20SquareMatrixInverterIfLi4EE3runEPf:00000210 $d
     /tmp/cc4eEpRd.s:1882   .text._ZNK4ltaf20SquareMatrixInverterIfLi4EE3runEPf:0000021c $t
     /tmp/cc4eEpRd.s:2325   .text._ZNK4ltaf20SquareMatrixInverterIfLi4EE3runEPf:00000450 $d
     /tmp/cc4eEpRd.s:2328   .text._ZNK4ltaf20SquareMatrixInverterIfLi4EE3runEPf:00000458 $t
     /tmp/cc4eEpRd.s:2690   .text._ZNK4ltaf20SquareMatrixInverterIfLi4EE3runEPf:00000658 $d
     /tmp/cc4eEpRd.s:2692   .text._ZNK4ltaf20SquareMatrixInverterIfLi4EE3runEPf:0000065c $t
     /tmp/cc4eEpRd.s:2784   .text._ZNK4ltaf20SquareMatrixInverterIfLi4EE3runEPf:000006d0 $d
     /tmp/cc4eEpRd.s:2789   .text._ZN4ltaf7inverseIfLi4ELb1EEENS_6MatrixIT_XT0_EXT0_EXT1_EEERKS3_:00000000 $t
     /tmp/cc4eEpRd.s:2794   .text._ZN4ltaf7inverseIfLi4ELb1EEENS_6MatrixIT_XT0_EXT0_EXT1_EEERKS3_:00000000 _ZN4ltaf7inverseIfLi4ELb1EEENS_6MatrixIT_XT0_EXT0_EXT1_EEERKS3_
     /tmp/cc4eEpRd.s:2856   .text._ZN4ltaf7inverseIfLi4ELb1EEENS_6MatrixIT_XT0_EXT0_EXT1_EEERKS3_:0000002c $d
     /tmp/cc4eEpRd.s:2861   .text._ZN4ltaf7inverseIfLi4ELb0EEENS_6MatrixIT_XT0_EXT0_EXT1_EEERKS3_:00000000 $t
     /tmp/cc4eEpRd.s:2866   .text._ZN4ltaf7inverseIfLi4ELb0EEENS_6MatrixIT_XT0_EXT0_EXT1_EEERKS3_:00000000 _ZN4ltaf7inverseIfLi4ELb0EEENS_6MatrixIT_XT0_EXT0_EXT1_EEERKS3_
     /tmp/cc4eEpRd.s:2928   .text._ZN4ltaf7inverseIfLi4ELb0EEENS_6MatrixIT_XT0_EXT0_EXT1_EEERKS3_:0000002c $d
     /tmp/cc4eEpRd.s:2934   .text._ZNK4ltaf20SquareMatrixInverterIdLi2EE3runEPd:00000000 $t
     /tmp/cc4eEpRd.s:2939   .text._ZNK4ltaf20SquareMatrixInverterIdLi2EE3runEPd:00000000 _ZNK4ltaf20SquareMatrixInverterIdLi2EE3runEPd
     /tmp/cc4eEpRd.s:3061   .text._ZNK4ltaf20SquareMatrixInverterIdLi2EE3runEPd:000000a0 $d
     /tmp/cc4eEpRd.s:3069   .text._ZN4ltaf7inverseIdLi2ELb1EEENS_6MatrixIT_XT0_EXT0_EXT1_EEERKS3_:00000000 $t
     /tmp/cc4eEpRd.s:3074   .text._ZN4ltaf7inverseIdLi2ELb1EEENS_6MatrixIT_XT0_EXT0_EXT1_EEERKS3_:00000000 _ZN4ltaf7inverseIdLi2ELb1EEENS_6MatrixIT_XT0_EXT0_EXT1_EEERKS3_
     /tmp/cc4eEpRd.s:3130   .text._ZN4ltaf7inverseIdLi2ELb1EEENS_6MatrixIT_XT0_EXT0_EXT1_EEERKS3_:00000024 $d
     /tmp/cc4eEpRd.s:3135   .text._ZN4ltaf7inverseIdLi2ELb0EEENS_6MatrixIT_XT0_EXT0_EXT1_EEERKS3_:00000000 $t
     /tmp/cc4eEpRd.s:3140   .text._ZN4ltaf7inverseIdLi2ELb0EEENS_6MatrixIT_XT0_EXT0_EXT1_EEERKS3_:00000000 _ZN4ltaf7inverseIdLi2ELb0EEENS_6MatrixIT_XT0_EXT0_EXT1_EEERKS3_
     /tmp/cc4eEpRd.s:3196   .text._ZN4ltaf7inverseIdLi2ELb0EEENS_6MatrixIT_XT0_EXT0_EXT1_EEERKS3_:00000024 $d
     /tmp/cc4eEpRd.s:3202   .text._ZNK4ltaf20SquareMatrixInverterIdLi3EE3runEPd:00000000 $t
     /tmp/cc4eEpRd.s:3207   .text._ZNK4ltaf20SquareMatrixInverterIdLi3EE3runEPd:00000000 _ZNK4ltaf20SquareMatrixInverterIdLi3EE3runEPd
     /tmp/cc4eEpRd.s:3534   .text._ZNK4ltaf20SquareMatrixInverterIdLi3EE3runEPd:0000023c $d
     /tmp/cc4eEpRd.s:3543   .text._ZN4ltaf7inverseIdLi3ELb1EEENS_6MatrixIT_XT0_EXT0_EXT1_EEERKS3_:00000000 $t
     /tmp/cc4eEpRd.s:3548   .text._ZN4ltaf7inverseIdLi3ELb1EEENS_6MatrixIT_XT0_EXT0_EXT1_EEERKS3_:00000000 _ZN4ltaf7inverseIdLi3ELb1EEENS_6MatrixIT_XT0_EXT0_EXT1_EEERKS3_
     /tmp/cc4eEpRd.s:3598   .text._ZN4ltaf7inverseIdLi3ELb1EEENS_6MatrixIT_XT0_EXT0_EXT1_EEERKS3_:00000018 $d
     /tmp/cc4eEpRd.s:3604   .text._ZN4ltaf7inverseIdLi3ELb0EEENS_6MatrixIT_XT0_EXT0_EXT1_EEERKS3_:00000000 $t
     /tmp/cc4eEpRd.s:3609   .text._ZN4ltaf7inverseIdLi3ELb0EEENS_6MatrixIT_XT0_EXT0_EXT1_EEERKS3_:00000000 _ZN4ltaf7inverseIdLi3ELb0EEENS_6MatrixIT_XT0_EXT0_EXT1_EEERKS3_
     /tmp/cc4eEpRd.s:3659   .text._ZN4ltaf7inverseIdLi3ELb0EEENS_6MatrixIT_XT0_EXT0_EXT1_EEERKS3_:00000018 $d
     /tmp/cc4eEpRd.s:3665   .text._ZNK4ltaf20SquareMatrixInverterIdLi4EE3runEPd:00000000 $t
     /tmp/cc4eEpRd.s:3670   .text._ZNK4ltaf20SquareMatrixInverterIdLi4EE3runEPd:00000000 _ZNK4ltaf20SquareMatrixInverterIdLi4EE3runEPd
     /tmp/cc4eEpRd.s:4005   .text._ZNK4ltaf20SquareMatrixInverterIdLi4EE3runEPd:00000260 $d
     /tmp/cc4eEpRd.s:4010   .text._ZNK4ltaf20SquareMatrixInverterIdLi4EE3runEPd:0000026c $t
     /tmp/cc4eEpRd.s:4521   .text._ZNK4ltaf20SquareMatrixInverterIdLi4EE3runEPd:00000638 $d
     /tmp/cc4eEpRd.s:4525   .text._ZNK4ltaf20SquareMatrixInverterIdLi4EE3runEPd:00000640 $t
     /tmp/cc4eEpRd.s:5168   .text._ZN4ltaf7inverseIdLi4ELb1EEENS_6MatrixIT_XT0_EXT0_EXT1_EEERKS3_:00000000 $t
     /tmp/cc4eEpRd.s:5173   .text._ZN4ltaf7inverseIdLi4ELb1EEENS_6MatrixIT_XT0_EXT0_EXT1_EEERKS3_:00000000 _ZN4ltaf7inverseIdLi4ELb1EEENS_6MatrixIT_XT0_EXT0_EXT1_EEERKS3_
     /tmp/cc4eEpRd.s:5223   .text._ZN4ltaf7inverseIdLi4ELb1EEENS_6MatrixIT_XT0_EXT0_EXT1_EEERKS3_:00000018 $d
     /tmp/cc4eEpRd.s:5229   .text._ZN4ltaf7inverseIdLi4ELb0EEENS_6MatrixIT_XT0_EXT0_EXT1_EEERKS3_:00000000 $t
     /tmp/cc4eEpRd.s:5234   .text._ZN4ltaf7inverseIdLi4ELb0EEENS_6MatrixIT_XT0_EXT0_EXT1_EEERKS3_:00000000 _ZN4ltaf7inverseIdLi4ELb0EEENS_6MatrixIT_XT0_EXT0_EXT1_EEERKS3_
     /tmp/cc4eEpRd.s:5284   .text._ZN4ltaf7inverseIdLi4ELb0EEENS_6MatrixIT_XT0_EXT0_EXT1_EEERKS3_:00000018 $d
     /tmp/cc4eEpRd.s:5290   .text._ZNK4ltaf17MatrixDeterminantIfLi3EEclEPKf:00000000 $t
     /tmp/cc4eEpRd.s:5295   .text._ZNK4ltaf17MatrixDeterminantIfLi3EEclEPKf:00000000 _ZNK4ltaf17MatrixDeterminantIfLi3EEclEPKf
     /tmp/cc4eEpRd.s:5407   .text._ZNK4ltaf17MatrixDeterminantIfLi3EEclEPKf:0000008c $d
     /tmp/cc4eEpRd.s:5414   .text._ZN4ltaf11determinantIfLi3ELb1EEET_RKNS_6MatrixIS1_XT0_EXT0_EXT1_EEE:00000000 $t
     /tmp/cc4eEpRd.s:5419   .text._ZN4ltaf11determinantIfLi3ELb1EEET_RKNS_6MatrixIS1_XT0_EXT0_EXT1_EEE:00000000 _ZN4ltaf11determinantIfLi3ELb1EEET_RKNS_6MatrixIS1_XT0_EXT0_EXT1_EEE
     /tmp/cc4eEpRd.s:5453   .text._ZN4ltaf11determinantIfLi3ELb1EEET_RKNS_6MatrixIS1_XT0_EXT0_EXT1_EEE:00000010 $d
     /tmp/cc4eEpRd.s:5458   .text._ZN4ltaf11determinantIfLi3ELb0EEET_RKNS_6MatrixIS1_XT0_EXT0_EXT1_EEE:00000000 $t
     /tmp/cc4eEpRd.s:5463   .text._ZN4ltaf11determinantIfLi3ELb0EEET_RKNS_6MatrixIS1_XT0_EXT0_EXT1_EEE:00000000 _ZN4ltaf11determinantIfLi3ELb0EEET_RKNS_6MatrixIS1_XT0_EXT0_EXT1_EEE
     /tmp/cc4eEpRd.s:5497   .text._ZN4ltaf11determinantIfLi3ELb0EEET_RKNS_6MatrixIS1_XT0_EXT0_EXT1_EEE:00000010 $d
     /tmp/cc4eEpRd.s:5502   .text._ZNK4ltaf17MatrixDeterminantIfLi4EEclEPKf:00000000 $t
     /tmp/cc4eEpRd.s:5507   .text._ZNK4ltaf17MatrixDeterminantIfLi4EEclEPKf:00000000 _ZNK4ltaf17MatrixDeterminantIfLi4EEclEPKf
     /tmp/cc4eEpRd.s:5955   .text._ZNK4ltaf17MatrixDeterminantIfLi4EEclEPKf:00000218 $d
     /tmp/cc4eEpRd.s:5959   .text._ZNK4ltaf17MatrixDeterminantIfLi4EEclEPKf:00000224 $t
     /tmp/cc4eEpRd.s:5964   .text._ZN4ltaf11determinantIfLi4ELb1EEET_RKNS_6MatrixIS1_XT0_EXT0_EXT1_EEE:00000000 $t
     /tmp/cc4eEpRd.s:5969   .text._ZN4ltaf11determinantIfLi4ELb1EEET_RKNS_6MatrixIS1_XT0_EXT0_EXT1_EEE:00000000 _ZN4ltaf11determinantIfLi4ELb1EEET_RKNS_6MatrixIS1_XT0_EXT0_EXT1_EEE
     /tmp/cc4eEpRd.s:6003   .text._ZN4ltaf11determinantIfLi4ELb1EEET_RKNS_6MatrixIS1_XT0_EXT0_EXT1_EEE:00000010 $d
     /tmp/cc4eEpRd.s:6008   .text._ZN4ltaf11determinantIfLi4ELb0EEET_RKNS_6MatrixIS1_XT0_EXT0_EXT1_EEE:00000000 $t
     /tmp/cc4eEpRd.s:6013   .text._ZN4ltaf11determinantIfLi4ELb0EEET_RKNS_6MatrixIS1_XT0_EXT0_EXT1_EEE:00000000 _ZN4ltaf11determinantIfLi4ELb0EEET_RKNS_6MatrixIS1_XT0_EXT0_EXT1_EEE
     /tmp/cc4eEpRd.s:6047   .text._ZN4ltaf11determinantIfLi4ELb0EEET_RKNS_6MatrixIS1_XT0_EXT0_EXT1_EEE:00000010 $d
     /tmp/cc4eEpRd.s:6052   .text._ZNK4ltaf17MatrixDeterminantIdLi3EEclEPKd:00000000 $t
     /tmp/cc4eEpRd.s:6057   .text._ZNK4ltaf17MatrixDeterminantIdLi3EEclEPKd:00000000 _ZNK4ltaf17MatrixDeterminantIdLi3EEclEPKd
     /tmp/cc4eEpRd.s:6180   .text._ZNK4ltaf17MatrixDeterminantIdLi3EEclEPKd:000000d8 $d
     /tmp/cc4eEpRd.s:6187   .text._ZN4ltaf11determinantIdLi3ELb1EEET_RKNS_6MatrixIS1_XT0_EXT0_EXT1_EEE:00000000 $t
     /tmp/cc4eEpRd.s:6192   .text._ZN4ltaf11determinantIdLi3ELb1EEET_RKNS_6MatrixIS1_XT0_EXT0_EXT1_EEE:00000000 _ZN4ltaf11determinantIdLi3ELb1EEET_RKNS_6MatrixIS1_XT0_EXT0_EXT1_EEE
     /tmp/cc4eEpRd.s:6226   .text._ZN4ltaf11determinantIdLi3ELb1EEET_RKNS_6MatrixIS1_XT0_EXT0_EXT1_EEE:00000010 $d
     /tmp/cc4eEpRd.s:6231   .text._ZN4ltaf11determinantIdLi3ELb0EEET_RKNS_6MatrixIS1_XT0_EXT0_EXT1_EEE:00000000 $t
     /tmp/cc4eEpRd.s:6236   .text._ZN4ltaf11determinantIdLi3ELb0EEET_RKNS_6MatrixIS1_XT0_EXT0_EXT1_EEE:00000000 _ZN4ltaf11determinantIdLi3ELb0EEET_RKNS_6MatrixIS1_XT0_EXT0_EXT1_EEE
     /tmp/cc4eEpRd.s:6270   .text._ZN4ltaf11determinantIdLi3ELb0EEET_RKNS_6MatrixIS1_XT0_EXT0_EXT1_EEE:00000010 $d
     /tmp/cc4eEpRd.s:6275   .text._ZNK4ltaf17MatrixDeterminantIdLi4EEclEPKd:00000000 $t
     /tmp/cc4eEpRd.s:6280   .text._ZNK4ltaf17MatrixDeterminantIdLi4EEclEPKd:00000000 _ZNK4ltaf17MatrixDeterminantIdLi4EEclEPKd
     /tmp/cc4eEpRd.s:6653   .text._ZNK4ltaf17MatrixDeterminantIdLi4EEclEPKd:00000274 $d
     /tmp/cc4eEpRd.s:6657   .text._ZNK4ltaf17MatrixDeterminantIdLi4EEclEPKd:00000280 $t
     /tmp/cc4eEpRd.s:6786   .text._ZN4ltaf11determinantIdLi4ELb1EEET_RKNS_6MatrixIS1_XT0_EXT0_EXT1_EEE:00000000 $t
     /tmp/cc4eEpRd.s:6791   .text._ZN4ltaf11determinantIdLi4ELb1EEET_RKNS_6MatrixIS1_XT0_EXT0_EXT1_EEE:00000000 _ZN4ltaf11determinantIdLi4ELb1EEET_RKNS_6MatrixIS1_XT0_EXT0_EXT1_EEE
     /tmp/cc4eEpRd.s:6825   .text._ZN4ltaf11determinantIdLi4ELb1EEET_RKNS_6MatrixIS1_XT0_EXT0_EXT1_EEE:00000010 $d
     /tmp/cc4eEpRd.s:6830   .text._ZN4ltaf11determinantIdLi4ELb0EEET_RKNS_6MatrixIS1_XT0_EXT0_EXT1_EEE:00000000 $t
     /tmp/cc4eEpRd.s:6835   .text._ZN4ltaf11determinantIdLi4ELb0EEET_RKNS_6MatrixIS1_XT0_EXT0_EXT1_EEE:00000000 _ZN4ltaf11determinantIdLi4ELb0EEET_RKNS_6MatrixIS1_XT0_EXT0_EXT1_EEE
     /tmp/cc4eEpRd.s:6869   .text._ZN4ltaf11determinantIdLi4ELb0EEET_RKNS_6MatrixIS1_XT0_EXT0_EXT1_EEE:00000010 $d
                     .debug_frame:00000010 $d

UNDEFINED SYMBOLS
__aeabi_fmul
__aeabi_fsub
__aeabi_fdiv
__aeabi_dmul
__aeabi_dsub
__aeabi_ui2f
__aeabi_f2d
__aeabi_i2f
__aeabi_fcmplt
__aeabi_fadd
__aeabi_fcmpgt
__aeabi_f2iz
slogf
chan_to_object
light_system
module_to_idx
actuator_read_position
_ZN18calib_data_manager8instanceEv
_ZN4ltaf11transferROIENS_10ModuleNameES0_RKNS_16CalibDataManagerERKNS_4Vec2IfEEft
_Z22calib_rectangle_to_absRK9rectangle9flip_mode
_ZN22contrast_sweep_managerC1Ev
_ZN22contrast_sweep_manager15init_refinementEmm
_ZN22contrast_sweep_manager13execute_sweepEv
_ZN22contrast_sweep_managerD1Ev
_ZN9rectangleC1Esstt
_ZN20optical_zoom_manager26wait_for_mirrors_move_doneEv
_ZN20optical_zoom_manager9instance_E
__aeabi_ddiv
__aeabi_dadd
memcpy
