   1              		.syntax unified
   2              		.cpu cortex-r4
   3              		.fpu softvfp
   4              		.eabi_attribute 20, 1
   5              		.eabi_attribute 21, 1
   6              		.eabi_attribute 23, 3
   7              		.eabi_attribute 24, 1
   8              		.eabi_attribute 25, 1
   9              		.eabi_attribute 26, 1
  10              		.eabi_attribute 30, 4
  11              		.eabi_attribute 34, 1
  12              		.eabi_attribute 18, 4
  13              		.thumb
  14              		.file	"matrix3x3f.pb-c.c"
  15              		.text
  16              	.Ltext0:
  17              		.cfi_sections	.debug_frame
  18              		.section	.text.ltpb__matrix3x3_f__init,"ax",%progbits
  19              		.align	1
  20              		.global	ltpb__matrix3x3_f__init
  21              		.thumb
  22              		.thumb_func
  24              	ltpb__matrix3x3_f__init:
  25              	.LFB1:
  26              		.file 1 "/home/tienluong/workspace/atlantis_fw/platform/common/lightheader/src/matrix3x3f.pb-c.c"
   1:/home/tienluong/workspace/atlantis_fw/platform/common/lightheader/src/matrix3x3f.pb-c.c **** /* Generated by the protocol buffer compiler.  DO NOT EDIT! */
   2:/home/tienluong/workspace/atlantis_fw/platform/common/lightheader/src/matrix3x3f.pb-c.c **** /* Generated from: matrix3x3f.proto */
   3:/home/tienluong/workspace/atlantis_fw/platform/common/lightheader/src/matrix3x3f.pb-c.c **** 
   4:/home/tienluong/workspace/atlantis_fw/platform/common/lightheader/src/matrix3x3f.pb-c.c **** /* Do not generate deprecated warnings for self */
   5:/home/tienluong/workspace/atlantis_fw/platform/common/lightheader/src/matrix3x3f.pb-c.c **** #ifndef PROTOBUF_C__NO_DEPRECATED
   6:/home/tienluong/workspace/atlantis_fw/platform/common/lightheader/src/matrix3x3f.pb-c.c **** #define PROTOBUF_C__NO_DEPRECATED
   7:/home/tienluong/workspace/atlantis_fw/platform/common/lightheader/src/matrix3x3f.pb-c.c **** #endif
   8:/home/tienluong/workspace/atlantis_fw/platform/common/lightheader/src/matrix3x3f.pb-c.c **** #include "sections.h"
   9:/home/tienluong/workspace/atlantis_fw/platform/common/lightheader/src/matrix3x3f.pb-c.c **** #include "matrix3x3f.pb-c.h"
  10:/home/tienluong/workspace/atlantis_fw/platform/common/lightheader/src/matrix3x3f.pb-c.c **** LIGHT_HEADER_FUNC void   ltpb__matrix3x3_f__init
  11:/home/tienluong/workspace/atlantis_fw/platform/common/lightheader/src/matrix3x3f.pb-c.c ****                      (Ltpb__Matrix3x3F         *message)
  12:/home/tienluong/workspace/atlantis_fw/platform/common/lightheader/src/matrix3x3f.pb-c.c **** {
  27              		.loc 1 12 0
  28              		.cfi_startproc
  29              		@ args = 0, pretend = 0, frame = 0
  30              		@ frame_needed = 0, uses_anonymous_args = 0
  31              	.LVL0:
  32 0000 30B5     		push	{r4, r5, lr}
  33              	.LCFI0:
  34              		.cfi_def_cfa_offset 12
  35              		.cfi_offset 4, -12
  36              		.cfi_offset 5, -8
  37              		.cfi_offset 14, -4
  13:/home/tienluong/workspace/atlantis_fw/platform/common/lightheader/src/matrix3x3f.pb-c.c ****   LIGHT_HEADER_STATIC static Ltpb__Matrix3x3F init_value = LTPB__MATRIX3X3_F__INIT;
  14:/home/tienluong/workspace/atlantis_fw/platform/common/lightheader/src/matrix3x3f.pb-c.c ****   *message = init_value;
  38              		.loc 1 14 0
  39 0002 054D     		ldr	r5, .L2
  40 0004 0446     		mov	r4, r0
  41 0006 0FCD     		ldmia	r5!, {r0, r1, r2, r3}
  42              	.LVL1:
  43 0008 0FC4     		stmia	r4!, {r0, r1, r2, r3}
  44              	.LVL2:
  45 000a 0FCD     		ldmia	r5!, {r0, r1, r2, r3}
  46 000c 0FC4     		stmia	r4!, {r0, r1, r2, r3}
  47              	.LVL3:
  48 000e 95E80F00 		ldmia	r5, {r0, r1, r2, r3}
  49 0012 84E80F00 		stmia	r4, {r0, r1, r2, r3}
  50 0016 30BD     		pop	{r4, r5, pc}
  51              	.LVL4:
  52              	.L3:
  53              		.align	2
  54              	.L2:
  55 0018 00000000 		.word	.LANCHOR0
  56              		.cfi_endproc
  57              	.LFE1:
  59              		.section	.text.ltpb__matrix3x3_f__get_packed_size,"ax",%progbits
  60              		.align	1
  61              		.global	ltpb__matrix3x3_f__get_packed_size
  62              		.thumb
  63              		.thumb_func
  65              	ltpb__matrix3x3_f__get_packed_size:
  66              	.LFB2:
  15:/home/tienluong/workspace/atlantis_fw/platform/common/lightheader/src/matrix3x3f.pb-c.c **** }
  16:/home/tienluong/workspace/atlantis_fw/platform/common/lightheader/src/matrix3x3f.pb-c.c **** LIGHT_HEADER_FUNC size_t ltpb__matrix3x3_f__get_packed_size
  17:/home/tienluong/workspace/atlantis_fw/platform/common/lightheader/src/matrix3x3f.pb-c.c ****                      (const Ltpb__Matrix3x3F *message)
  18:/home/tienluong/workspace/atlantis_fw/platform/common/lightheader/src/matrix3x3f.pb-c.c **** {
  67              		.loc 1 18 0
  68              		.cfi_startproc
  69              		@ args = 0, pretend = 0, frame = 0
  70              		@ frame_needed = 0, uses_anonymous_args = 0
  71              	.LVL5:
  19:/home/tienluong/workspace/atlantis_fw/platform/common/lightheader/src/matrix3x3f.pb-c.c ****   assert(message->base.descriptor == &ltpb__matrix3x3_f__descriptor);
  72              		.loc 1 19 0
  73 0000 0268     		ldr	r2, [r0]
  74 0002 064B     		ldr	r3, .L7
  18:/home/tienluong/workspace/atlantis_fw/platform/common/lightheader/src/matrix3x3f.pb-c.c ****   assert(message->base.descriptor == &ltpb__matrix3x3_f__descriptor);
  75              		.loc 1 18 0
  76 0004 10B5     		push	{r4, lr}
  77              	.LCFI1:
  78              		.cfi_def_cfa_offset 8
  79              		.cfi_offset 4, -8
  80              		.cfi_offset 14, -4
  81              		.loc 1 19 0
  82 0006 9A42     		cmp	r2, r3
  18:/home/tienluong/workspace/atlantis_fw/platform/common/lightheader/src/matrix3x3f.pb-c.c ****   assert(message->base.descriptor == &ltpb__matrix3x3_f__descriptor);
  83              		.loc 1 18 0
  84 0008 0446     		mov	r4, r0
  85              		.loc 1 19 0
  86 000a 03D0     		beq	.L5
  87              		.loc 1 19 0 is_stmt 0 discriminator 1
  88 000c 0448     		ldr	r0, .L7+4
  89              	.LVL6:
  90 000e 1321     		movs	r1, #19
  91 0010 044B     		ldr	r3, .L7+8
  92 0012 9847     		blx	r3
  93              	.LVL7:
  94              	.L5:
  20:/home/tienluong/workspace/atlantis_fw/platform/common/lightheader/src/matrix3x3f.pb-c.c ****   return protobuf_c_message_get_packed_size ((const ProtobufCMessage*)(message));
  95              		.loc 1 20 0 is_stmt 1
  96 0014 2046     		mov	r0, r4
  97 0016 044B     		ldr	r3, .L7+12
  98 0018 9847     		blx	r3
  99              	.LVL8:
  21:/home/tienluong/workspace/atlantis_fw/platform/common/lightheader/src/matrix3x3f.pb-c.c **** }
 100              		.loc 1 21 0
 101 001a 10BD     		pop	{r4, pc}
 102              	.LVL9:
 103              	.L8:
 104              		.align	2
 105              	.L7:
 106 001c 00000000 		.word	.LANCHOR1
 107 0020 00000000 		.word	.LANCHOR2
 108 0024 00000000 		.word	assert_failed
 109 0028 00000000 		.word	protobuf_c_message_get_packed_size
 110              		.cfi_endproc
 111              	.LFE2:
 113              		.section	.text.ltpb__matrix3x3_f__pack,"ax",%progbits
 114              		.align	1
 115              		.global	ltpb__matrix3x3_f__pack
 116              		.thumb
 117              		.thumb_func
 119              	ltpb__matrix3x3_f__pack:
 120              	.LFB3:
  22:/home/tienluong/workspace/atlantis_fw/platform/common/lightheader/src/matrix3x3f.pb-c.c **** LIGHT_HEADER_FUNC size_t ltpb__matrix3x3_f__pack
  23:/home/tienluong/workspace/atlantis_fw/platform/common/lightheader/src/matrix3x3f.pb-c.c ****                      (const Ltpb__Matrix3x3F *message,
  24:/home/tienluong/workspace/atlantis_fw/platform/common/lightheader/src/matrix3x3f.pb-c.c ****                       uint8_t       *out)
  25:/home/tienluong/workspace/atlantis_fw/platform/common/lightheader/src/matrix3x3f.pb-c.c **** {
 121              		.loc 1 25 0
 122              		.cfi_startproc
 123              		@ args = 0, pretend = 0, frame = 0
 124              		@ frame_needed = 0, uses_anonymous_args = 0
 125              	.LVL10:
 126 0000 38B5     		push	{r3, r4, r5, lr}
 127              	.LCFI2:
 128              		.cfi_def_cfa_offset 16
 129              		.cfi_offset 3, -16
 130              		.cfi_offset 4, -12
 131              		.cfi_offset 5, -8
 132              		.cfi_offset 14, -4
  26:/home/tienluong/workspace/atlantis_fw/platform/common/lightheader/src/matrix3x3f.pb-c.c ****   assert(message->base.descriptor == &ltpb__matrix3x3_f__descriptor);
 133              		.loc 1 26 0
 134 0002 0268     		ldr	r2, [r0]
  25:/home/tienluong/workspace/atlantis_fw/platform/common/lightheader/src/matrix3x3f.pb-c.c ****   assert(message->base.descriptor == &ltpb__matrix3x3_f__descriptor);
 135              		.loc 1 25 0
 136 0004 0446     		mov	r4, r0
 137              		.loc 1 26 0
 138 0006 064B     		ldr	r3, .L11
  25:/home/tienluong/workspace/atlantis_fw/platform/common/lightheader/src/matrix3x3f.pb-c.c ****   assert(message->base.descriptor == &ltpb__matrix3x3_f__descriptor);
 139              		.loc 1 25 0
 140 0008 0D46     		mov	r5, r1
 141              		.loc 1 26 0
 142 000a 9A42     		cmp	r2, r3
 143 000c 03D0     		beq	.L10
 144              		.loc 1 26 0 is_stmt 0 discriminator 1
 145 000e 0548     		ldr	r0, .L11+4
 146              	.LVL11:
 147 0010 1A21     		movs	r1, #26
 148              	.LVL12:
 149 0012 054B     		ldr	r3, .L11+8
 150 0014 9847     		blx	r3
 151              	.LVL13:
 152              	.L10:
  27:/home/tienluong/workspace/atlantis_fw/platform/common/lightheader/src/matrix3x3f.pb-c.c ****   return protobuf_c_message_pack ((const ProtobufCMessage*)message, out);
 153              		.loc 1 27 0 is_stmt 1
 154 0016 2046     		mov	r0, r4
 155 0018 2946     		mov	r1, r5
 156 001a 044B     		ldr	r3, .L11+12
 157 001c 9847     		blx	r3
 158              	.LVL14:
  28:/home/tienluong/workspace/atlantis_fw/platform/common/lightheader/src/matrix3x3f.pb-c.c **** }
 159              		.loc 1 28 0
 160 001e 38BD     		pop	{r3, r4, r5, pc}
 161              	.LVL15:
 162              	.L12:
 163              		.align	2
 164              	.L11:
 165 0020 00000000 		.word	.LANCHOR1
 166 0024 00000000 		.word	.LANCHOR3
 167 0028 00000000 		.word	assert_failed
 168 002c 00000000 		.word	protobuf_c_message_pack
 169              		.cfi_endproc
 170              	.LFE3:
 172              		.section	.text.ltpb__matrix3x3_f__pack_to_buffer,"ax",%progbits
 173              		.align	1
 174              		.global	ltpb__matrix3x3_f__pack_to_buffer
 175              		.thumb
 176              		.thumb_func
 178              	ltpb__matrix3x3_f__pack_to_buffer:
 179              	.LFB4:
  29:/home/tienluong/workspace/atlantis_fw/platform/common/lightheader/src/matrix3x3f.pb-c.c **** LIGHT_HEADER_FUNC size_t ltpb__matrix3x3_f__pack_to_buffer
  30:/home/tienluong/workspace/atlantis_fw/platform/common/lightheader/src/matrix3x3f.pb-c.c ****                      (const Ltpb__Matrix3x3F *message,
  31:/home/tienluong/workspace/atlantis_fw/platform/common/lightheader/src/matrix3x3f.pb-c.c ****                       ProtobufCBuffer *buffer)
  32:/home/tienluong/workspace/atlantis_fw/platform/common/lightheader/src/matrix3x3f.pb-c.c **** {
 180              		.loc 1 32 0
 181              		.cfi_startproc
 182              		@ args = 0, pretend = 0, frame = 0
 183              		@ frame_needed = 0, uses_anonymous_args = 0
 184              	.LVL16:
 185 0000 38B5     		push	{r3, r4, r5, lr}
 186              	.LCFI3:
 187              		.cfi_def_cfa_offset 16
 188              		.cfi_offset 3, -16
 189              		.cfi_offset 4, -12
 190              		.cfi_offset 5, -8
 191              		.cfi_offset 14, -4
  33:/home/tienluong/workspace/atlantis_fw/platform/common/lightheader/src/matrix3x3f.pb-c.c ****   assert(message->base.descriptor == &ltpb__matrix3x3_f__descriptor);
 192              		.loc 1 33 0
 193 0002 0268     		ldr	r2, [r0]
  32:/home/tienluong/workspace/atlantis_fw/platform/common/lightheader/src/matrix3x3f.pb-c.c ****   assert(message->base.descriptor == &ltpb__matrix3x3_f__descriptor);
 194              		.loc 1 32 0
 195 0004 0446     		mov	r4, r0
 196              		.loc 1 33 0
 197 0006 064B     		ldr	r3, .L15
  32:/home/tienluong/workspace/atlantis_fw/platform/common/lightheader/src/matrix3x3f.pb-c.c ****   assert(message->base.descriptor == &ltpb__matrix3x3_f__descriptor);
 198              		.loc 1 32 0
 199 0008 0D46     		mov	r5, r1
 200              		.loc 1 33 0
 201 000a 9A42     		cmp	r2, r3
 202 000c 03D0     		beq	.L14
 203              		.loc 1 33 0 is_stmt 0 discriminator 1
 204 000e 0548     		ldr	r0, .L15+4
 205              	.LVL17:
 206 0010 2121     		movs	r1, #33
 207              	.LVL18:
 208 0012 054B     		ldr	r3, .L15+8
 209 0014 9847     		blx	r3
 210              	.LVL19:
 211              	.L14:
  34:/home/tienluong/workspace/atlantis_fw/platform/common/lightheader/src/matrix3x3f.pb-c.c ****   return protobuf_c_message_pack_to_buffer ((const ProtobufCMessage*)message, buffer);
 212              		.loc 1 34 0 is_stmt 1
 213 0016 2046     		mov	r0, r4
 214 0018 2946     		mov	r1, r5
 215 001a 044B     		ldr	r3, .L15+12
 216 001c 9847     		blx	r3
 217              	.LVL20:
  35:/home/tienluong/workspace/atlantis_fw/platform/common/lightheader/src/matrix3x3f.pb-c.c **** }
 218              		.loc 1 35 0
 219 001e 38BD     		pop	{r3, r4, r5, pc}
 220              	.LVL21:
 221              	.L16:
 222              		.align	2
 223              	.L15:
 224 0020 00000000 		.word	.LANCHOR1
 225 0024 00000000 		.word	.LANCHOR4
 226 0028 00000000 		.word	assert_failed
 227 002c 00000000 		.word	protobuf_c_message_pack_to_buffer
 228              		.cfi_endproc
 229              	.LFE4:
 231              		.section	.text.ltpb__matrix3x3_f__unpack,"ax",%progbits
 232              		.align	1
 233              		.global	ltpb__matrix3x3_f__unpack
 234              		.thumb
 235              		.thumb_func
 237              	ltpb__matrix3x3_f__unpack:
 238              	.LFB5:
  36:/home/tienluong/workspace/atlantis_fw/platform/common/lightheader/src/matrix3x3f.pb-c.c **** LIGHT_HEADER_FUNC Ltpb__Matrix3x3F *
  37:/home/tienluong/workspace/atlantis_fw/platform/common/lightheader/src/matrix3x3f.pb-c.c ****        ltpb__matrix3x3_f__unpack
  38:/home/tienluong/workspace/atlantis_fw/platform/common/lightheader/src/matrix3x3f.pb-c.c ****                      (ProtobufCAllocator  *allocator,
  39:/home/tienluong/workspace/atlantis_fw/platform/common/lightheader/src/matrix3x3f.pb-c.c ****                       size_t               len,
  40:/home/tienluong/workspace/atlantis_fw/platform/common/lightheader/src/matrix3x3f.pb-c.c ****                       const uint8_t       *data)
  41:/home/tienluong/workspace/atlantis_fw/platform/common/lightheader/src/matrix3x3f.pb-c.c **** {
 239              		.loc 1 41 0
 240              		.cfi_startproc
 241              		@ args = 0, pretend = 0, frame = 0
 242              		@ frame_needed = 0, uses_anonymous_args = 0
 243              	.LVL22:
 244 0000 38B5     		push	{r3, r4, r5, lr}
 245              	.LCFI4:
 246              		.cfi_def_cfa_offset 16
 247              		.cfi_offset 3, -16
 248              		.cfi_offset 4, -12
 249              		.cfi_offset 5, -8
 250              		.cfi_offset 14, -4
 251              		.loc 1 41 0
 252 0002 0546     		mov	r5, r0
 253 0004 0C46     		mov	r4, r1
 254 0006 1346     		mov	r3, r2
  42:/home/tienluong/workspace/atlantis_fw/platform/common/lightheader/src/matrix3x3f.pb-c.c ****   return (Ltpb__Matrix3x3F *)
 255              		.loc 1 42 0
 256 0008 2946     		mov	r1, r5
 257              	.LVL23:
 258 000a 2246     		mov	r2, r4
 259              	.LVL24:
 260 000c 0148     		ldr	r0, .L18
 261              	.LVL25:
 262 000e 024C     		ldr	r4, .L18+4
 263              	.LVL26:
 264 0010 A047     		blx	r4
 265              	.LVL27:
  43:/home/tienluong/workspace/atlantis_fw/platform/common/lightheader/src/matrix3x3f.pb-c.c ****      protobuf_c_message_unpack (&ltpb__matrix3x3_f__descriptor,
  44:/home/tienluong/workspace/atlantis_fw/platform/common/lightheader/src/matrix3x3f.pb-c.c ****                                 allocator, len, data);
  45:/home/tienluong/workspace/atlantis_fw/platform/common/lightheader/src/matrix3x3f.pb-c.c **** }
 266              		.loc 1 45 0
 267 0012 38BD     		pop	{r3, r4, r5, pc}
 268              	.LVL28:
 269              	.L19:
 270              		.align	2
 271              	.L18:
 272 0014 00000000 		.word	.LANCHOR1
 273 0018 00000000 		.word	protobuf_c_message_unpack
 274              		.cfi_endproc
 275              	.LFE5:
 277              		.section	.text.ltpb__matrix3x3_f__free_unpacked,"ax",%progbits
 278              		.align	1
 279              		.global	ltpb__matrix3x3_f__free_unpacked
 280              		.thumb
 281              		.thumb_func
 283              	ltpb__matrix3x3_f__free_unpacked:
 284              	.LFB6:
  46:/home/tienluong/workspace/atlantis_fw/platform/common/lightheader/src/matrix3x3f.pb-c.c **** LIGHT_HEADER_FUNC void   ltpb__matrix3x3_f__free_unpacked
  47:/home/tienluong/workspace/atlantis_fw/platform/common/lightheader/src/matrix3x3f.pb-c.c ****                      (Ltpb__Matrix3x3F *message,
  48:/home/tienluong/workspace/atlantis_fw/platform/common/lightheader/src/matrix3x3f.pb-c.c ****                       ProtobufCAllocator *allocator)
  49:/home/tienluong/workspace/atlantis_fw/platform/common/lightheader/src/matrix3x3f.pb-c.c **** {
 285              		.loc 1 49 0
 286              		.cfi_startproc
 287              		@ args = 0, pretend = 0, frame = 0
 288              		@ frame_needed = 0, uses_anonymous_args = 0
 289              	.LVL29:
 290 0000 38B5     		push	{r3, r4, r5, lr}
 291              	.LCFI5:
 292              		.cfi_def_cfa_offset 16
 293              		.cfi_offset 3, -16
 294              		.cfi_offset 4, -12
 295              		.cfi_offset 5, -8
 296              		.cfi_offset 14, -4
  50:/home/tienluong/workspace/atlantis_fw/platform/common/lightheader/src/matrix3x3f.pb-c.c ****   assert(message->base.descriptor == &ltpb__matrix3x3_f__descriptor);
 297              		.loc 1 50 0
 298 0002 0268     		ldr	r2, [r0]
  49:/home/tienluong/workspace/atlantis_fw/platform/common/lightheader/src/matrix3x3f.pb-c.c ****   assert(message->base.descriptor == &ltpb__matrix3x3_f__descriptor);
 299              		.loc 1 49 0
 300 0004 0446     		mov	r4, r0
 301              		.loc 1 50 0
 302 0006 064B     		ldr	r3, .L22
  49:/home/tienluong/workspace/atlantis_fw/platform/common/lightheader/src/matrix3x3f.pb-c.c ****   assert(message->base.descriptor == &ltpb__matrix3x3_f__descriptor);
 303              		.loc 1 49 0
 304 0008 0D46     		mov	r5, r1
 305              		.loc 1 50 0
 306 000a 9A42     		cmp	r2, r3
 307 000c 03D0     		beq	.L21
 308              		.loc 1 50 0 is_stmt 0 discriminator 1
 309 000e 0548     		ldr	r0, .L22+4
 310              	.LVL30:
 311 0010 3221     		movs	r1, #50
 312              	.LVL31:
 313 0012 054B     		ldr	r3, .L22+8
 314 0014 9847     		blx	r3
 315              	.LVL32:
 316              	.L21:
  51:/home/tienluong/workspace/atlantis_fw/platform/common/lightheader/src/matrix3x3f.pb-c.c ****   protobuf_c_message_free_unpacked ((ProtobufCMessage*)message, allocator);
 317              		.loc 1 51 0 is_stmt 1
 318 0016 2046     		mov	r0, r4
 319 0018 2946     		mov	r1, r5
 320 001a 044B     		ldr	r3, .L22+12
 321 001c 9847     		blx	r3
 322              	.LVL33:
 323 001e 38BD     		pop	{r3, r4, r5, pc}
 324              	.LVL34:
 325              	.L23:
 326              		.align	2
 327              	.L22:
 328 0020 00000000 		.word	.LANCHOR1
 329 0024 00000000 		.word	.LANCHOR5
 330 0028 00000000 		.word	assert_failed
 331 002c 00000000 		.word	protobuf_c_message_free_unpacked
 332              		.cfi_endproc
 333              	.LFE6:
 335              		.global	ltpb__matrix3x3_f__descriptor
 336              		.section	.rodata.ltpb__matrix3x3_f__descriptor,"a",%progbits
 337              		.align	2
 338              		.set	.LANCHOR1,. + 0
 341              	ltpb__matrix3x3_f__descriptor:
 342 0000 F9EEAA28 		.word	682290937
 343 0004 00000000 		.word	.LC0
 344 0008 10000000 		.word	.LC1
 345 000c 1B000000 		.word	.LC2
 346 0010 2C000000 		.word	.LC3
 347 0014 30000000 		.word	48
 348 0018 09000000 		.word	9
 349 001c 00000000 		.word	ltpb__matrix3x3_f__field_descriptors
 350 0020 00000000 		.word	ltpb__matrix3x3_f__field_indices_by_name
 351 0024 01000000 		.word	1
 352 0028 00000000 		.word	ltpb__matrix3x3_f__number_ranges
 353 002c 00000000 		.word	ltpb__matrix3x3_f__init
 354 0030 00000000 		.word	0
 355 0034 00000000 		.word	0
 356 0038 00000000 		.word	0
 357              		.section	.rodata.ltpb__matrix3x3_f__field_descriptors,"a",%progbits
 358              		.align	2
 361              	ltpb__matrix3x3_f__field_descriptors:
 362 0000 31000000 		.word	.LC4
 363 0004 01000000 		.word	1
 364 0008 00       		.byte	0
 365 0009 0A       		.byte	10
 366 000a 0000     		.space	2
 367 000c 00000000 		.word	0
 368 0010 0C000000 		.word	12
 369 0014 00000000 		.word	0
 370 0018 00000000 		.word	0
 371 001c 00000000 		.word	0
 372 0020 00000000 		.word	0
 373 0024 00000000 		.word	0
 374 0028 00000000 		.word	0
 375 002c 35000000 		.word	.LC5
 376 0030 02000000 		.word	2
 377 0034 00       		.byte	0
 378 0035 0A       		.byte	10
 379 0036 0000     		.space	2
 380 0038 00000000 		.word	0
 381 003c 10000000 		.word	16
 382 0040 00000000 		.word	0
 383 0044 00000000 		.word	0
 384 0048 00000000 		.word	0
 385 004c 00000000 		.word	0
 386 0050 00000000 		.word	0
 387 0054 00000000 		.word	0
 388 0058 39000000 		.word	.LC6
 389 005c 03000000 		.word	3
 390 0060 00       		.byte	0
 391 0061 0A       		.byte	10
 392 0062 0000     		.space	2
 393 0064 00000000 		.word	0
 394 0068 14000000 		.word	20
 395 006c 00000000 		.word	0
 396 0070 00000000 		.word	0
 397 0074 00000000 		.word	0
 398 0078 00000000 		.word	0
 399 007c 00000000 		.word	0
 400 0080 00000000 		.word	0
 401 0084 3D000000 		.word	.LC7
 402 0088 04000000 		.word	4
 403 008c 00       		.byte	0
 404 008d 0A       		.byte	10
 405 008e 0000     		.space	2
 406 0090 00000000 		.word	0
 407 0094 18000000 		.word	24
 408 0098 00000000 		.word	0
 409 009c 00000000 		.word	0
 410 00a0 00000000 		.word	0
 411 00a4 00000000 		.word	0
 412 00a8 00000000 		.word	0
 413 00ac 00000000 		.word	0
 414 00b0 41000000 		.word	.LC8
 415 00b4 05000000 		.word	5
 416 00b8 00       		.byte	0
 417 00b9 0A       		.byte	10
 418 00ba 0000     		.space	2
 419 00bc 00000000 		.word	0
 420 00c0 1C000000 		.word	28
 421 00c4 00000000 		.word	0
 422 00c8 00000000 		.word	0
 423 00cc 00000000 		.word	0
 424 00d0 00000000 		.word	0
 425 00d4 00000000 		.word	0
 426 00d8 00000000 		.word	0
 427 00dc 45000000 		.word	.LC9
 428 00e0 06000000 		.word	6
 429 00e4 00       		.byte	0
 430 00e5 0A       		.byte	10
 431 00e6 0000     		.space	2
 432 00e8 00000000 		.word	0
 433 00ec 20000000 		.word	32
 434 00f0 00000000 		.word	0
 435 00f4 00000000 		.word	0
 436 00f8 00000000 		.word	0
 437 00fc 00000000 		.word	0
 438 0100 00000000 		.word	0
 439 0104 00000000 		.word	0
 440 0108 49000000 		.word	.LC10
 441 010c 07000000 		.word	7
 442 0110 00       		.byte	0
 443 0111 0A       		.byte	10
 444 0112 0000     		.space	2
 445 0114 00000000 		.word	0
 446 0118 24000000 		.word	36
 447 011c 00000000 		.word	0
 448 0120 00000000 		.word	0
 449 0124 00000000 		.word	0
 450 0128 00000000 		.word	0
 451 012c 00000000 		.word	0
 452 0130 00000000 		.word	0
 453 0134 4D000000 		.word	.LC11
 454 0138 08000000 		.word	8
 455 013c 00       		.byte	0
 456 013d 0A       		.byte	10
 457 013e 0000     		.space	2
 458 0140 00000000 		.word	0
 459 0144 28000000 		.word	40
 460 0148 00000000 		.word	0
 461 014c 00000000 		.word	0
 462 0150 00000000 		.word	0
 463 0154 00000000 		.word	0
 464 0158 00000000 		.word	0
 465 015c 00000000 		.word	0
 466 0160 51000000 		.word	.LC12
 467 0164 09000000 		.word	9
 468 0168 00       		.byte	0
 469 0169 0A       		.byte	10
 470 016a 0000     		.space	2
 471 016c 00000000 		.word	0
 472 0170 2C000000 		.word	44
 473 0174 00000000 		.word	0
 474 0178 00000000 		.word	0
 475 017c 00000000 		.word	0
 476 0180 00000000 		.word	0
 477 0184 00000000 		.word	0
 478 0188 00000000 		.word	0
 479              		.section	.rodata.__FUNCTION__.6447,"a",%progbits
 480              		.set	.LANCHOR4,. + 0
 483              	__FUNCTION__.6447:
 484 0000 6C747062 		.ascii	"ltpb__matrix3x3_f__pack_to_buffer\000"
 484      5F5F6D61 
 484      74726978 
 484      3378335F 
 484      665F5F70 
 485              		.section	.rodata.init_value.6433,"a",%progbits
 486              		.align	2
 487              		.set	.LANCHOR0,. + 0
 490              	init_value.6433:
 491 0000 00000000 		.word	ltpb__matrix3x3_f__descriptor
 492 0004 00000000 		.word	0
 493 0008 00000000 		.word	0
 494 000c 00000000 		.word	0
 495 0010 00000000 		.word	0
 496 0014 00000000 		.word	0
 497 0018 00000000 		.word	0
 498 001c 00000000 		.word	0
 499 0020 00000000 		.word	0
 500 0024 00000000 		.word	0
 501 0028 00000000 		.word	0
 502 002c 00000000 		.word	0
 503              		.section	.rodata.ltpb__matrix3x3_f__number_ranges,"a",%progbits
 504              		.align	2
 507              	ltpb__matrix3x3_f__number_ranges:
 508 0000 01000000 		.word	1
 509 0004 00000000 		.word	0
 510 0008 00000000 		.word	0
 511 000c 09000000 		.word	9
 512              		.section	.rodata.str1.1,"aMS",%progbits,1
 513              	.LC0:
 514 0000 6C747062 		.ascii	"ltpb.Matrix3x3F\000"
 514      2E4D6174 
 514      72697833 
 514      78334600 
 515              	.LC1:
 516 0010 4D617472 		.ascii	"Matrix3x3F\000"
 516      69783378 
 516      334600
 517              	.LC2:
 518 001b 4C747062 		.ascii	"Ltpb__Matrix3x3F\000"
 518      5F5F4D61 
 518      74726978 
 518      33783346 
 518      00
 519              	.LC3:
 520 002c 6C747062 		.ascii	"ltpb\000"
 520      00
 521              	.LC4:
 522 0031 78303000 		.ascii	"x00\000"
 523              	.LC5:
 524 0035 78303100 		.ascii	"x01\000"
 525              	.LC6:
 526 0039 78303200 		.ascii	"x02\000"
 527              	.LC7:
 528 003d 78313000 		.ascii	"x10\000"
 529              	.LC8:
 530 0041 78313100 		.ascii	"x11\000"
 531              	.LC9:
 532 0045 78313200 		.ascii	"x12\000"
 533              	.LC10:
 534 0049 78323000 		.ascii	"x20\000"
 535              	.LC11:
 536 004d 78323100 		.ascii	"x21\000"
 537              	.LC12:
 538 0051 78323200 		.ascii	"x22\000"
 539              		.section	.rodata.__FUNCTION__.6457,"a",%progbits
 540              		.set	.LANCHOR5,. + 0
 543              	__FUNCTION__.6457:
 544 0000 6C747062 		.ascii	"ltpb__matrix3x3_f__free_unpacked\000"
 544      5F5F6D61 
 544      74726978 
 544      3378335F 
 544      665F5F66 
 545              		.section	.rodata.__FUNCTION__.6437,"a",%progbits
 546              		.set	.LANCHOR2,. + 0
 549              	__FUNCTION__.6437:
 550 0000 6C747062 		.ascii	"ltpb__matrix3x3_f__get_packed_size\000"
 550      5F5F6D61 
 550      74726978 
 550      3378335F 
 550      665F5F67 
 551              		.section	.rodata.ltpb__matrix3x3_f__field_indices_by_name,"a",%progbits
 552              		.align	2
 555              	ltpb__matrix3x3_f__field_indices_by_name:
 556 0000 00000000 		.word	0
 557 0004 01000000 		.word	1
 558 0008 02000000 		.word	2
 559 000c 03000000 		.word	3
 560 0010 04000000 		.word	4
 561 0014 05000000 		.word	5
 562 0018 06000000 		.word	6
 563 001c 07000000 		.word	7
 564 0020 08000000 		.word	8
 565              		.section	.rodata.__FUNCTION__.6442,"a",%progbits
 566              		.set	.LANCHOR3,. + 0
 569              	__FUNCTION__.6442:
 570 0000 6C747062 		.ascii	"ltpb__matrix3x3_f__pack\000"
 570      5F5F6D61 
 570      74726978 
 570      3378335F 
 570      665F5F70 
 571              		.text
 572              	.Letext0:
 573              		.file 2 "/opt/toolchains/gcc-arm-none-eabi-4_9-2015q1/arm-none-eabi/include/machine/_default_types
 574              		.file 3 "/opt/toolchains/gcc-arm-none-eabi-4_9-2015q1/lib/gcc/arm-none-eabi/4.9.3/include/stddef.h
 575              		.file 4 "/opt/toolchains/gcc-arm-none-eabi-4_9-2015q1/arm-none-eabi/include/stdint.h"
 576              		.file 5 "/home/tienluong/workspace/atlantis_fw/platform/os/Source/portable/GCC/cortex-r4/portmacro
 577              		.file 6 "/home/tienluong/workspace/atlantis_fw/platform/common/lightheader/include/protobuf-c/prot
 578              		.file 7 "/home/tienluong/workspace/atlantis_fw/platform/common/lightheader/include/matrix3x3f.pb-c
DEFINED SYMBOLS
                            *ABS*:00000000 matrix3x3f.pb-c.c
     /tmp/cc694jdT.s:19     .text.ltpb__matrix3x3_f__init:00000000 $t
     /tmp/cc694jdT.s:24     .text.ltpb__matrix3x3_f__init:00000000 ltpb__matrix3x3_f__init
     /tmp/cc694jdT.s:55     .text.ltpb__matrix3x3_f__init:00000018 $d
     /tmp/cc694jdT.s:60     .text.ltpb__matrix3x3_f__get_packed_size:00000000 $t
     /tmp/cc694jdT.s:65     .text.ltpb__matrix3x3_f__get_packed_size:00000000 ltpb__matrix3x3_f__get_packed_size
     /tmp/cc694jdT.s:106    .text.ltpb__matrix3x3_f__get_packed_size:0000001c $d
     /tmp/cc694jdT.s:114    .text.ltpb__matrix3x3_f__pack:00000000 $t
     /tmp/cc694jdT.s:119    .text.ltpb__matrix3x3_f__pack:00000000 ltpb__matrix3x3_f__pack
     /tmp/cc694jdT.s:165    .text.ltpb__matrix3x3_f__pack:00000020 $d
     /tmp/cc694jdT.s:173    .text.ltpb__matrix3x3_f__pack_to_buffer:00000000 $t
     /tmp/cc694jdT.s:178    .text.ltpb__matrix3x3_f__pack_to_buffer:00000000 ltpb__matrix3x3_f__pack_to_buffer
     /tmp/cc694jdT.s:224    .text.ltpb__matrix3x3_f__pack_to_buffer:00000020 $d
     /tmp/cc694jdT.s:232    .text.ltpb__matrix3x3_f__unpack:00000000 $t
     /tmp/cc694jdT.s:237    .text.ltpb__matrix3x3_f__unpack:00000000 ltpb__matrix3x3_f__unpack
     /tmp/cc694jdT.s:272    .text.ltpb__matrix3x3_f__unpack:00000014 $d
     /tmp/cc694jdT.s:278    .text.ltpb__matrix3x3_f__free_unpacked:00000000 $t
     /tmp/cc694jdT.s:283    .text.ltpb__matrix3x3_f__free_unpacked:00000000 ltpb__matrix3x3_f__free_unpacked
     /tmp/cc694jdT.s:328    .text.ltpb__matrix3x3_f__free_unpacked:00000020 $d
     /tmp/cc694jdT.s:341    .rodata.ltpb__matrix3x3_f__descriptor:00000000 ltpb__matrix3x3_f__descriptor
     /tmp/cc694jdT.s:337    .rodata.ltpb__matrix3x3_f__descriptor:00000000 $d
     /tmp/cc694jdT.s:361    .rodata.ltpb__matrix3x3_f__field_descriptors:00000000 ltpb__matrix3x3_f__field_descriptors
     /tmp/cc694jdT.s:555    .rodata.ltpb__matrix3x3_f__field_indices_by_name:00000000 ltpb__matrix3x3_f__field_indices_by_name
     /tmp/cc694jdT.s:507    .rodata.ltpb__matrix3x3_f__number_ranges:00000000 ltpb__matrix3x3_f__number_ranges
     /tmp/cc694jdT.s:358    .rodata.ltpb__matrix3x3_f__field_descriptors:00000000 $d
     /tmp/cc694jdT.s:483    .rodata.__FUNCTION__.6447:00000000 __FUNCTION__.6447
     /tmp/cc694jdT.s:486    .rodata.init_value.6433:00000000 $d
     /tmp/cc694jdT.s:490    .rodata.init_value.6433:00000000 init_value.6433
     /tmp/cc694jdT.s:504    .rodata.ltpb__matrix3x3_f__number_ranges:00000000 $d
     /tmp/cc694jdT.s:543    .rodata.__FUNCTION__.6457:00000000 __FUNCTION__.6457
     /tmp/cc694jdT.s:549    .rodata.__FUNCTION__.6437:00000000 __FUNCTION__.6437
     /tmp/cc694jdT.s:552    .rodata.ltpb__matrix3x3_f__field_indices_by_name:00000000 $d
     /tmp/cc694jdT.s:569    .rodata.__FUNCTION__.6442:00000000 __FUNCTION__.6442
                     .debug_frame:00000010 $d

UNDEFINED SYMBOLS
assert_failed
protobuf_c_message_get_packed_size
protobuf_c_message_pack
protobuf_c_message_pack_to_buffer
protobuf_c_message_unpack
protobuf_c_message_free_unpacked
