   1              		.syntax unified
   2              		.cpu cortex-r4
   3              		.fpu softvfp
   4              		.eabi_attribute 20, 1
   5              		.eabi_attribute 21, 1
   6              		.eabi_attribute 23, 3
   7              		.eabi_attribute 24, 1
   8              		.eabi_attribute 25, 1
   9              		.eabi_attribute 26, 1
  10              		.eabi_attribute 30, 4
  11              		.eabi_attribute 34, 1
  12              		.eabi_attribute 18, 4
  13              		.thumb
  14              		.file	"optical_zoom_manager.cpp"
  15              		.text
  16              	.Ltext0:
  17              		.cfi_sections	.debug_frame
  18              		.section	.text._ZN20optical_zoom_managerD2Ev,"ax",%progbits
  19              		.align	1
  20              		.global	_ZN20optical_zoom_managerD2Ev
  21              		.thumb
  22              		.thumb_func
  24              	_ZN20optical_zoom_managerD2Ev:
  25              	.LFB3509:
  26              		.file 1 "/home/tienluong/workspace/atlantis_fw/AsicFwS2/src/optical_zoom_manager.cpp"
   1:/home/tienluong/workspace/atlantis_fw/AsicFwS2/src/optical_zoom_manager.cpp **** /*******************************************************************************
   2:/home/tienluong/workspace/atlantis_fw/AsicFwS2/src/optical_zoom_manager.cpp ****  * Copyright (c) 2016, The LightCo
   3:/home/tienluong/workspace/atlantis_fw/AsicFwS2/src/optical_zoom_manager.cpp ****  * All rights reserved.
   4:/home/tienluong/workspace/atlantis_fw/AsicFwS2/src/optical_zoom_manager.cpp ****  * Redistribution and use in source and binary forms, with or without
   5:/home/tienluong/workspace/atlantis_fw/AsicFwS2/src/optical_zoom_manager.cpp ****  * modification, are strictly prohibited without prior permission
   6:/home/tienluong/workspace/atlantis_fw/AsicFwS2/src/optical_zoom_manager.cpp ****  * of The LightCo.
   7:/home/tienluong/workspace/atlantis_fw/AsicFwS2/src/optical_zoom_manager.cpp ****  *
   8:/home/tienluong/workspace/atlantis_fw/AsicFwS2/src/optical_zoom_manager.cpp ****  * @file    optical_zoom_manager.cpp
   9:/home/tienluong/workspace/atlantis_fw/AsicFwS2/src/optical_zoom_manager.cpp ****  * @author  The LightCo
  10:/home/tienluong/workspace/atlantis_fw/AsicFwS2/src/optical_zoom_manager.cpp ****  * @version V1.0.0
  11:/home/tienluong/workspace/atlantis_fw/AsicFwS2/src/optical_zoom_manager.cpp ****  * @date    Oct-13-2016
  12:/home/tienluong/workspace/atlantis_fw/AsicFwS2/src/optical_zoom_manager.cpp ****  * @brief   Optical zoom manager singleton
  13:/home/tienluong/workspace/atlantis_fw/AsicFwS2/src/optical_zoom_manager.cpp ****  *
  14:/home/tienluong/workspace/atlantis_fw/AsicFwS2/src/optical_zoom_manager.cpp ****  ******************************************************************************/
  15:/home/tienluong/workspace/atlantis_fw/AsicFwS2/src/optical_zoom_manager.cpp **** 
  16:/home/tienluong/workspace/atlantis_fw/AsicFwS2/src/optical_zoom_manager.cpp **** #include "light_system.h"
  17:/home/tienluong/workspace/atlantis_fw/AsicFwS2/src/optical_zoom_manager.cpp **** #include "log.h"
  18:/home/tienluong/workspace/atlantis_fw/AsicFwS2/src/optical_zoom_manager.cpp **** #include "calib_data_manager.h"
  19:/home/tienluong/workspace/atlantis_fw/AsicFwS2/src/optical_zoom_manager.cpp **** #include "optical_zoom_manager.h"
  20:/home/tienluong/workspace/atlantis_fw/AsicFwS2/src/optical_zoom_manager.cpp **** 
  21:/home/tienluong/workspace/atlantis_fw/AsicFwS2/src/optical_zoom_manager.cpp **** #define SLOGF_ID                SLOG_ID_AF
  22:/home/tienluong/workspace/atlantis_fw/AsicFwS2/src/optical_zoom_manager.cpp **** 
  23:/home/tienluong/workspace/atlantis_fw/AsicFwS2/src/optical_zoom_manager.cpp **** 
  24:/home/tienluong/workspace/atlantis_fw/AsicFwS2/src/optical_zoom_manager.cpp **** extern "C" void initialize_optical_zoom_manager() {
  25:/home/tienluong/workspace/atlantis_fw/AsicFwS2/src/optical_zoom_manager.cpp ****     optical_zoom_manager::instance().initialize();
  26:/home/tienluong/workspace/atlantis_fw/AsicFwS2/src/optical_zoom_manager.cpp **** }
  27:/home/tienluong/workspace/atlantis_fw/AsicFwS2/src/optical_zoom_manager.cpp **** 
  28:/home/tienluong/workspace/atlantis_fw/AsicFwS2/src/optical_zoom_manager.cpp **** optical_zoom_manager optical_zoom_manager::instance_{};
  29:/home/tienluong/workspace/atlantis_fw/AsicFwS2/src/optical_zoom_manager.cpp **** 
  30:/home/tienluong/workspace/atlantis_fw/AsicFwS2/src/optical_zoom_manager.cpp **** optical_zoom_manager::optical_zoom_manager() :
  31:/home/tienluong/workspace/atlantis_fw/AsicFwS2/src/optical_zoom_manager.cpp ****         mirror_move_done_sem_{nullptr} {
  32:/home/tienluong/workspace/atlantis_fw/AsicFwS2/src/optical_zoom_manager.cpp **** }
  33:/home/tienluong/workspace/atlantis_fw/AsicFwS2/src/optical_zoom_manager.cpp **** 
  34:/home/tienluong/workspace/atlantis_fw/AsicFwS2/src/optical_zoom_manager.cpp **** optical_zoom_manager::~optical_zoom_manager() {
  27              		.loc 1 34 0
  28              		.cfi_startproc
  29              		@ args = 0, pretend = 0, frame = 0
  30              		@ frame_needed = 0, uses_anonymous_args = 0
  31              	.LVL0:
  32 0000 10B5     		push	{r4, lr}
  33              	.LCFI0:
  34              		.cfi_def_cfa_offset 8
  35              		.cfi_offset 4, -8
  36              		.cfi_offset 14, -4
  37              		.loc 1 34 0
  38 0002 0446     		mov	r4, r0
  39              	.LBB125:
  35:/home/tienluong/workspace/atlantis_fw/AsicFwS2/src/optical_zoom_manager.cpp ****     if (mirror_move_done_sem_ != nullptr)
  40              		.loc 1 35 0
  41 0004 0068     		ldr	r0, [r0]
  42              	.LVL1:
  43 0006 08B1     		cbz	r0, .L2
  36:/home/tienluong/workspace/atlantis_fw/AsicFwS2/src/optical_zoom_manager.cpp ****         vSemaphoreDelete(mirror_move_done_sem_);
  44              		.loc 1 36 0
  45 0008 014B     		ldr	r3, .L7
  46 000a 9847     		blx	r3
  47              	.LVL2:
  48              	.L2:
  49              	.LBE125:
  37:/home/tienluong/workspace/atlantis_fw/AsicFwS2/src/optical_zoom_manager.cpp **** }
  50              		.loc 1 37 0
  51 000c 2046     		mov	r0, r4
  52 000e 10BD     		pop	{r4, pc}
  53              	.LVL3:
  54              	.L8:
  55              		.align	2
  56              	.L7:
  57 0010 00000000 		.word	vQueueDelete
  58              		.cfi_endproc
  59              	.LFE3509:
  61              		.global	_ZN20optical_zoom_managerD1Ev
  62              		.thumb_set _ZN20optical_zoom_managerD1Ev,_ZN20optical_zoom_managerD2Ev
  63              		.section	.text._ZN12_GLOBAL__N_120move_mirror_callbackEPv,"ax",%progbits
  64              		.align	1
  65              		.thumb
  66              		.thumb_func
  68              	_ZN12_GLOBAL__N_120move_mirror_callbackEPv:
  69              	.LFB3512:
  38:/home/tienluong/workspace/atlantis_fw/AsicFwS2/src/optical_zoom_manager.cpp **** 
  39:/home/tienluong/workspace/atlantis_fw/AsicFwS2/src/optical_zoom_manager.cpp **** void optical_zoom_manager::initialize() {
  40:/home/tienluong/workspace/atlantis_fw/AsicFwS2/src/optical_zoom_manager.cpp ****     mirror_move_done_sem_ = xSemaphoreCreateCounting(MAX_NUM_MIRROR , 0);
  41:/home/tienluong/workspace/atlantis_fw/AsicFwS2/src/optical_zoom_manager.cpp **** }
  42:/home/tienluong/workspace/atlantis_fw/AsicFwS2/src/optical_zoom_manager.cpp **** 
  43:/home/tienluong/workspace/atlantis_fw/AsicFwS2/src/optical_zoom_manager.cpp **** namespace {
  44:/home/tienluong/workspace/atlantis_fw/AsicFwS2/src/optical_zoom_manager.cpp ****     void move_mirror_callback(void* user_data) {
  70              		.loc 1 44 0
  71              		.cfi_startproc
  72              		@ args = 0, pretend = 0, frame = 0
  73              		@ frame_needed = 0, uses_anonymous_args = 0
  74              	.LVL4:
  75              	.LBB126:
  45:/home/tienluong/workspace/atlantis_fw/AsicFwS2/src/optical_zoom_manager.cpp ****         SemaphoreHandle_t sem = *static_cast<SemaphoreHandle_t*>(user_data);
  46:/home/tienluong/workspace/atlantis_fw/AsicFwS2/src/optical_zoom_manager.cpp ****         xSemaphoreGive(sem);
  76              		.loc 1 46 0
  77 0000 0021     		movs	r1, #0
  78              	.LBE126:
  44:/home/tienluong/workspace/atlantis_fw/AsicFwS2/src/optical_zoom_manager.cpp ****         SemaphoreHandle_t sem = *static_cast<SemaphoreHandle_t*>(user_data);
  79              		.loc 1 44 0
  80 0002 10B5     		push	{r4, lr}
  81              	.LCFI1:
  82              		.cfi_def_cfa_offset 8
  83              		.cfi_offset 4, -8
  84              		.cfi_offset 14, -4
  85              	.LBB127:
  86              		.loc 1 46 0
  87 0004 0A46     		mov	r2, r1
  88 0006 0B46     		mov	r3, r1
  89 0008 014C     		ldr	r4, .L10
  90 000a 0068     		ldr	r0, [r0]
  91              	.LVL5:
  92 000c A047     		blx	r4
  93              	.LVL6:
  94 000e 10BD     		pop	{r4, pc}
  95              	.L11:
  96              		.align	2
  97              	.L10:
  98 0010 00000000 		.word	xQueueGenericSend
  99              	.LBE127:
 100              		.cfi_endproc
 101              	.LFE3512:
 103              		.global	__aeabi_fmul
 104              		.global	__aeabi_fsub
 105              		.global	__aeabi_fdiv
 106              		.section	.text._ZNK4ltaf20SquareMatrixInverterIfLi2EE3runEPf.isra.1,"ax",%progbits
 107              		.align	1
 108              		.thumb
 109              		.thumb_func
 111              	_ZNK4ltaf20SquareMatrixInverterIfLi2EE3runEPf.isra.1:
 112              	.LFB3786:
 113              		.file 2 "/home/tienluong/workspace/atlantis_fw/AsicFwS2/include/matrix.h"
   1:/home/tienluong/workspace/atlantis_fw/AsicFwS2/include/matrix.h **** // we want to have support for the following:
   2:/home/tienluong/workspace/atlantis_fw/AsicFwS2/include/matrix.h **** // matrix3x3f, matrix4x4f, vec2f, vec3f, vec4f
   3:/home/tienluong/workspace/atlantis_fw/AsicFwS2/include/matrix.h **** // plus, minus, multiplication, inverse, transpose
   4:/home/tienluong/workspace/atlantis_fw/AsicFwS2/include/matrix.h **** 
   5:/home/tienluong/workspace/atlantis_fw/AsicFwS2/include/matrix.h **** #ifndef __MATRIX_H__
   6:/home/tienluong/workspace/atlantis_fw/AsicFwS2/include/matrix.h **** #define __MATRIX_H__
   7:/home/tienluong/workspace/atlantis_fw/AsicFwS2/include/matrix.h **** 
   8:/home/tienluong/workspace/atlantis_fw/AsicFwS2/include/matrix.h **** #ifdef __cplusplus
   9:/home/tienluong/workspace/atlantis_fw/AsicFwS2/include/matrix.h **** 
  10:/home/tienluong/workspace/atlantis_fw/AsicFwS2/include/matrix.h **** #include <cstdlib>
  11:/home/tienluong/workspace/atlantis_fw/AsicFwS2/include/matrix.h **** #include <algorithm> // has compile problem...
  12:/home/tienluong/workspace/atlantis_fw/AsicFwS2/include/matrix.h **** #include <cmath>
  13:/home/tienluong/workspace/atlantis_fw/AsicFwS2/include/matrix.h **** 
  14:/home/tienluong/workspace/atlantis_fw/AsicFwS2/include/matrix.h **** namespace ltaf { // lt auto focus
  15:/home/tienluong/workspace/atlantis_fw/AsicFwS2/include/matrix.h **** 
  16:/home/tienluong/workspace/atlantis_fw/AsicFwS2/include/matrix.h **** // -----------------------------------------------------------
  17:/home/tienluong/workspace/atlantis_fw/AsicFwS2/include/matrix.h **** // 			Vec2 class
  18:/home/tienluong/workspace/atlantis_fw/AsicFwS2/include/matrix.h **** // -----------------------------------------------------------
  19:/home/tienluong/workspace/atlantis_fw/AsicFwS2/include/matrix.h **** template<typename T>
  20:/home/tienluong/workspace/atlantis_fw/AsicFwS2/include/matrix.h **** class Vec2
  21:/home/tienluong/workspace/atlantis_fw/AsicFwS2/include/matrix.h **** {
  22:/home/tienluong/workspace/atlantis_fw/AsicFwS2/include/matrix.h **** public:
  23:/home/tienluong/workspace/atlantis_fw/AsicFwS2/include/matrix.h ****     Vec2() {}
  24:/home/tienluong/workspace/atlantis_fw/AsicFwS2/include/matrix.h ****     Vec2( T t ) : _x( t ), _y( t ) {}
  25:/home/tienluong/workspace/atlantis_fw/AsicFwS2/include/matrix.h ****     Vec2( T x, T y ) : _x( x ), _y( y ) {}
  26:/home/tienluong/workspace/atlantis_fw/AsicFwS2/include/matrix.h ****     Vec2( const Vec2 & t ) : _x( t._x ), _y( t._y ) {}
  27:/home/tienluong/workspace/atlantis_fw/AsicFwS2/include/matrix.h **** 
  28:/home/tienluong/workspace/atlantis_fw/AsicFwS2/include/matrix.h ****     template<typename U>
  29:/home/tienluong/workspace/atlantis_fw/AsicFwS2/include/matrix.h ****     explicit Vec2( const Vec2<U> & t )
  30:/home/tienluong/workspace/atlantis_fw/AsicFwS2/include/matrix.h ****         : _x( static_cast<T>( t.x() ) )
  31:/home/tienluong/workspace/atlantis_fw/AsicFwS2/include/matrix.h ****         , _y( static_cast<T>( t.y() ) ) {}
  32:/home/tienluong/workspace/atlantis_fw/AsicFwS2/include/matrix.h **** 
  33:/home/tienluong/workspace/atlantis_fw/AsicFwS2/include/matrix.h ****     Vec2 & operator=( const Vec2 & t )
  34:/home/tienluong/workspace/atlantis_fw/AsicFwS2/include/matrix.h ****     { _x = t._x; _y = t._y; return *this; }
  35:/home/tienluong/workspace/atlantis_fw/AsicFwS2/include/matrix.h **** 
  36:/home/tienluong/workspace/atlantis_fw/AsicFwS2/include/matrix.h ****     Vec2 & operator/=( const Vec2 & t )
  37:/home/tienluong/workspace/atlantis_fw/AsicFwS2/include/matrix.h ****     { _x /= t._x; _y /= t._y; return *this; }
  38:/home/tienluong/workspace/atlantis_fw/AsicFwS2/include/matrix.h **** 
  39:/home/tienluong/workspace/atlantis_fw/AsicFwS2/include/matrix.h ****     Vec2 & operator%=( const Vec2 & t )
  40:/home/tienluong/workspace/atlantis_fw/AsicFwS2/include/matrix.h ****     { _x %= t._x; _y %= t._y; return *this; }
  41:/home/tienluong/workspace/atlantis_fw/AsicFwS2/include/matrix.h **** 
  42:/home/tienluong/workspace/atlantis_fw/AsicFwS2/include/matrix.h ****     Vec2 & operator*=( const Vec2 & t )
  43:/home/tienluong/workspace/atlantis_fw/AsicFwS2/include/matrix.h ****     { _x *= t._x; _y *= t._y; return *this; }
  44:/home/tienluong/workspace/atlantis_fw/AsicFwS2/include/matrix.h **** 
  45:/home/tienluong/workspace/atlantis_fw/AsicFwS2/include/matrix.h ****     Vec2 & operator+=( const Vec2 & t )
  46:/home/tienluong/workspace/atlantis_fw/AsicFwS2/include/matrix.h ****     { _x += t._x; _y += t._y; return *this; }
  47:/home/tienluong/workspace/atlantis_fw/AsicFwS2/include/matrix.h **** 
  48:/home/tienluong/workspace/atlantis_fw/AsicFwS2/include/matrix.h ****     Vec2 & operator-=( const Vec2 & t )
  49:/home/tienluong/workspace/atlantis_fw/AsicFwS2/include/matrix.h ****     { _x -= t._x; _y -= t._y; return *this; }
  50:/home/tienluong/workspace/atlantis_fw/AsicFwS2/include/matrix.h **** 
  51:/home/tienluong/workspace/atlantis_fw/AsicFwS2/include/matrix.h ****     Vec2 & operator&=( const Vec2 & t )
  52:/home/tienluong/workspace/atlantis_fw/AsicFwS2/include/matrix.h ****     { _x &= t._x; _y &= t._y; return *this; }
  53:/home/tienluong/workspace/atlantis_fw/AsicFwS2/include/matrix.h **** 
  54:/home/tienluong/workspace/atlantis_fw/AsicFwS2/include/matrix.h ****     Vec2 & operator|=( const Vec2 & t )
  55:/home/tienluong/workspace/atlantis_fw/AsicFwS2/include/matrix.h ****     { _x |= t._x; _y |= t._y; return *this; }
  56:/home/tienluong/workspace/atlantis_fw/AsicFwS2/include/matrix.h **** 
  57:/home/tienluong/workspace/atlantis_fw/AsicFwS2/include/matrix.h ****     Vec2 & operator>>=( int t )
  58:/home/tienluong/workspace/atlantis_fw/AsicFwS2/include/matrix.h ****     { _x >>= t; _y >>= t; return *this; }
  59:/home/tienluong/workspace/atlantis_fw/AsicFwS2/include/matrix.h **** 
  60:/home/tienluong/workspace/atlantis_fw/AsicFwS2/include/matrix.h ****     Vec2 & operator<<=( int t )
  61:/home/tienluong/workspace/atlantis_fw/AsicFwS2/include/matrix.h ****     { _x <<= t; _y <<= t; return *this; }
  62:/home/tienluong/workspace/atlantis_fw/AsicFwS2/include/matrix.h **** 
  63:/home/tienluong/workspace/atlantis_fw/AsicFwS2/include/matrix.h ****     Vec2 operator-() const { return { -_x, -_y}; }
  64:/home/tienluong/workspace/atlantis_fw/AsicFwS2/include/matrix.h **** 
  65:/home/tienluong/workspace/atlantis_fw/AsicFwS2/include/matrix.h ****     template<typename U> Vec2<typename std::common_type<T, U>::type>
  66:/home/tienluong/workspace/atlantis_fw/AsicFwS2/include/matrix.h ****     operator+( const Vec2<U> & t ) const { return { _x + t.x(), _y + t.y() }; }
  67:/home/tienluong/workspace/atlantis_fw/AsicFwS2/include/matrix.h **** 
  68:/home/tienluong/workspace/atlantis_fw/AsicFwS2/include/matrix.h ****     template<typename U> Vec2<typename std::common_type<T, U>::type>
  69:/home/tienluong/workspace/atlantis_fw/AsicFwS2/include/matrix.h ****     operator-( const Vec2<U> & t ) const { return { _x - t.x(), _y - t.y() }; }
  70:/home/tienluong/workspace/atlantis_fw/AsicFwS2/include/matrix.h **** 
  71:/home/tienluong/workspace/atlantis_fw/AsicFwS2/include/matrix.h ****     template<typename U> Vec2<typename std::common_type<T, U>::type>
  72:/home/tienluong/workspace/atlantis_fw/AsicFwS2/include/matrix.h ****     operator*( const Vec2<U> & t ) const { return { _x * t.x(), _y * t.y() }; }
  73:/home/tienluong/workspace/atlantis_fw/AsicFwS2/include/matrix.h **** 
  74:/home/tienluong/workspace/atlantis_fw/AsicFwS2/include/matrix.h ****     template<typename U> Vec2<typename std::common_type<T, U>::type>
  75:/home/tienluong/workspace/atlantis_fw/AsicFwS2/include/matrix.h ****     operator/( const Vec2<U> & t ) const { return { _x / t.x(), _y / t.y() }; }
  76:/home/tienluong/workspace/atlantis_fw/AsicFwS2/include/matrix.h **** 
  77:/home/tienluong/workspace/atlantis_fw/AsicFwS2/include/matrix.h ****     template < typename U,
  78:/home/tienluong/workspace/atlantis_fw/AsicFwS2/include/matrix.h ****                typename = typename std::enable_if < std::is_integral<T>::value && std::is_integral<
  79:/home/tienluong/workspace/atlantis_fw/AsicFwS2/include/matrix.h ****     Vec2<typename std::common_type<T, U>::type>
  80:/home/tienluong/workspace/atlantis_fw/AsicFwS2/include/matrix.h ****     operator%( const Vec2<U> & t ) const { return { _x % t.x(), _y % t.y() }; }
  81:/home/tienluong/workspace/atlantis_fw/AsicFwS2/include/matrix.h **** 
  82:/home/tienluong/workspace/atlantis_fw/AsicFwS2/include/matrix.h ****     template < typename U,
  83:/home/tienluong/workspace/atlantis_fw/AsicFwS2/include/matrix.h ****                typename = typename std::enable_if < std::is_arithmetic<U>::value >::type >
  84:/home/tienluong/workspace/atlantis_fw/AsicFwS2/include/matrix.h ****     Vec2<typename std::common_type<T, U>::type>
  85:/home/tienluong/workspace/atlantis_fw/AsicFwS2/include/matrix.h ****     operator+( U t ) const { return { _x + t, _y + t }; }
  86:/home/tienluong/workspace/atlantis_fw/AsicFwS2/include/matrix.h **** 
  87:/home/tienluong/workspace/atlantis_fw/AsicFwS2/include/matrix.h ****     template < typename U,
  88:/home/tienluong/workspace/atlantis_fw/AsicFwS2/include/matrix.h ****                typename = typename std::enable_if < std::is_arithmetic<U>::value >::type >
  89:/home/tienluong/workspace/atlantis_fw/AsicFwS2/include/matrix.h ****     Vec2<typename std::common_type<T, U>::type>
  90:/home/tienluong/workspace/atlantis_fw/AsicFwS2/include/matrix.h ****     operator-( U t ) const { return { _x - t, _y - t }; }
  91:/home/tienluong/workspace/atlantis_fw/AsicFwS2/include/matrix.h **** 
  92:/home/tienluong/workspace/atlantis_fw/AsicFwS2/include/matrix.h ****     template < typename U,
  93:/home/tienluong/workspace/atlantis_fw/AsicFwS2/include/matrix.h ****                typename = typename std::enable_if < std::is_arithmetic<U>::value >::type >
  94:/home/tienluong/workspace/atlantis_fw/AsicFwS2/include/matrix.h ****     Vec2<typename std::common_type<T, U>::type>
  95:/home/tienluong/workspace/atlantis_fw/AsicFwS2/include/matrix.h ****     operator*( U t ) const { return { _x * t, _y * t }; }
  96:/home/tienluong/workspace/atlantis_fw/AsicFwS2/include/matrix.h **** 
  97:/home/tienluong/workspace/atlantis_fw/AsicFwS2/include/matrix.h ****     template < typename U,
  98:/home/tienluong/workspace/atlantis_fw/AsicFwS2/include/matrix.h ****                typename = typename std::enable_if < std::is_arithmetic<U>::value >::type >
  99:/home/tienluong/workspace/atlantis_fw/AsicFwS2/include/matrix.h ****     Vec2<typename std::common_type<T, U>::type>
 100:/home/tienluong/workspace/atlantis_fw/AsicFwS2/include/matrix.h ****     operator/( U t ) const { return { _x / t, _y / t }; }
 101:/home/tienluong/workspace/atlantis_fw/AsicFwS2/include/matrix.h **** 
 102:/home/tienluong/workspace/atlantis_fw/AsicFwS2/include/matrix.h ****     template < typename U,
 103:/home/tienluong/workspace/atlantis_fw/AsicFwS2/include/matrix.h ****                typename = typename std::enable_if < std::is_integral<T>::value && std::is_integral<
 104:/home/tienluong/workspace/atlantis_fw/AsicFwS2/include/matrix.h ****     Vec2<typename std::common_type<T, U>::type>
 105:/home/tienluong/workspace/atlantis_fw/AsicFwS2/include/matrix.h ****     operator%( U t ) const { return { _x % t, _y % t }; }
 106:/home/tienluong/workspace/atlantis_fw/AsicFwS2/include/matrix.h **** 
 107:/home/tienluong/workspace/atlantis_fw/AsicFwS2/include/matrix.h ****     T min() const { return std::min( _x, _y ); }
 108:/home/tienluong/workspace/atlantis_fw/AsicFwS2/include/matrix.h ****     T max() const { return std::max( _x, _y ); }
 109:/home/tienluong/workspace/atlantis_fw/AsicFwS2/include/matrix.h ****     T sum() const { return _x + _y; }
 110:/home/tienluong/workspace/atlantis_fw/AsicFwS2/include/matrix.h ****     T dot( const Vec2<T> & t ) const { return _x * t.x() + _y * t.y(); }
 111:/home/tienluong/workspace/atlantis_fw/AsicFwS2/include/matrix.h **** 
 112:/home/tienluong/workspace/atlantis_fw/AsicFwS2/include/matrix.h ****     Vec2 abs() const { return { std::abs( _x ), std::abs( _y ) }; }
 113:/home/tienluong/workspace/atlantis_fw/AsicFwS2/include/matrix.h ****     
 114:/home/tienluong/workspace/atlantis_fw/AsicFwS2/include/matrix.h ****     const T & x() const { return _x; }
 115:/home/tienluong/workspace/atlantis_fw/AsicFwS2/include/matrix.h ****     const T & y() const { return _y; }
 116:/home/tienluong/workspace/atlantis_fw/AsicFwS2/include/matrix.h **** 
 117:/home/tienluong/workspace/atlantis_fw/AsicFwS2/include/matrix.h ****     void setX( T x ) { _x = x; }
 118:/home/tienluong/workspace/atlantis_fw/AsicFwS2/include/matrix.h ****     void setY( T y ) { _y = y; }
 119:/home/tienluong/workspace/atlantis_fw/AsicFwS2/include/matrix.h **** 
 120:/home/tienluong/workspace/atlantis_fw/AsicFwS2/include/matrix.h **** private:
 121:/home/tienluong/workspace/atlantis_fw/AsicFwS2/include/matrix.h **** 	T _x, _y;
 122:/home/tienluong/workspace/atlantis_fw/AsicFwS2/include/matrix.h **** };
 123:/home/tienluong/workspace/atlantis_fw/AsicFwS2/include/matrix.h **** 
 124:/home/tienluong/workspace/atlantis_fw/AsicFwS2/include/matrix.h **** 
 125:/home/tienluong/workspace/atlantis_fw/AsicFwS2/include/matrix.h **** // basic add/sub/mul/div operators
 126:/home/tienluong/workspace/atlantis_fw/AsicFwS2/include/matrix.h **** template < typename T, typename U,
 127:/home/tienluong/workspace/atlantis_fw/AsicFwS2/include/matrix.h ****            typename = typename std::enable_if < std::is_arithmetic<T>::value >::type >
 128:/home/tienluong/workspace/atlantis_fw/AsicFwS2/include/matrix.h **** Vec2<typename std::common_type<T, U>::type>
 129:/home/tienluong/workspace/atlantis_fw/AsicFwS2/include/matrix.h **** operator+( T a, const Vec2<U> & b ) { return b + a; }
 130:/home/tienluong/workspace/atlantis_fw/AsicFwS2/include/matrix.h **** 
 131:/home/tienluong/workspace/atlantis_fw/AsicFwS2/include/matrix.h **** template < typename T, typename U,
 132:/home/tienluong/workspace/atlantis_fw/AsicFwS2/include/matrix.h ****            typename = typename std::enable_if < std::is_arithmetic<T>::value >::type >
 133:/home/tienluong/workspace/atlantis_fw/AsicFwS2/include/matrix.h **** Vec2<typename std::common_type<T, U>::type>
 134:/home/tienluong/workspace/atlantis_fw/AsicFwS2/include/matrix.h **** operator*( T a, const Vec2<U> & b ) { return b * a; }
 135:/home/tienluong/workspace/atlantis_fw/AsicFwS2/include/matrix.h **** 
 136:/home/tienluong/workspace/atlantis_fw/AsicFwS2/include/matrix.h **** template < typename T, typename U,
 137:/home/tienluong/workspace/atlantis_fw/AsicFwS2/include/matrix.h ****            typename = typename std::enable_if < std::is_arithmetic<T>::value >::type >
 138:/home/tienluong/workspace/atlantis_fw/AsicFwS2/include/matrix.h **** Vec2<typename std::common_type<T, U>::type>
 139:/home/tienluong/workspace/atlantis_fw/AsicFwS2/include/matrix.h **** operator-( T a, const Vec2<U> & b ) { return Vec2<T>( a ) - b; }
 140:/home/tienluong/workspace/atlantis_fw/AsicFwS2/include/matrix.h **** 
 141:/home/tienluong/workspace/atlantis_fw/AsicFwS2/include/matrix.h **** template < typename T, typename U,
 142:/home/tienluong/workspace/atlantis_fw/AsicFwS2/include/matrix.h ****            typename = typename std::enable_if < std::is_arithmetic<T>::value >::type >
 143:/home/tienluong/workspace/atlantis_fw/AsicFwS2/include/matrix.h **** Vec2<typename std::common_type<T, U>::type>
 144:/home/tienluong/workspace/atlantis_fw/AsicFwS2/include/matrix.h **** operator/( T a, const Vec2<U> & b ) { return Vec2<T>( a ) / b; }
 145:/home/tienluong/workspace/atlantis_fw/AsicFwS2/include/matrix.h **** 
 146:/home/tienluong/workspace/atlantis_fw/AsicFwS2/include/matrix.h **** // basic math functions
 147:/home/tienluong/workspace/atlantis_fw/AsicFwS2/include/matrix.h **** template<typename T>
 148:/home/tienluong/workspace/atlantis_fw/AsicFwS2/include/matrix.h **** T min( const Vec2<T> & t ) { return t.min(); }
 149:/home/tienluong/workspace/atlantis_fw/AsicFwS2/include/matrix.h **** 
 150:/home/tienluong/workspace/atlantis_fw/AsicFwS2/include/matrix.h **** template<typename T>
 151:/home/tienluong/workspace/atlantis_fw/AsicFwS2/include/matrix.h **** T max( const Vec2<T> & t ) { return t.max(); }
 152:/home/tienluong/workspace/atlantis_fw/AsicFwS2/include/matrix.h **** 
 153:/home/tienluong/workspace/atlantis_fw/AsicFwS2/include/matrix.h **** template<typename T>
 154:/home/tienluong/workspace/atlantis_fw/AsicFwS2/include/matrix.h **** T sum( const Vec2<T> & t ) { return t.sum(); }
 155:/home/tienluong/workspace/atlantis_fw/AsicFwS2/include/matrix.h **** 
 156:/home/tienluong/workspace/atlantis_fw/AsicFwS2/include/matrix.h **** template<typename T>
 157:/home/tienluong/workspace/atlantis_fw/AsicFwS2/include/matrix.h **** T dot( const Vec2<T> & a, const Vec2<T> & b ) { return a.dot( b ); }
 158:/home/tienluong/workspace/atlantis_fw/AsicFwS2/include/matrix.h **** 
 159:/home/tienluong/workspace/atlantis_fw/AsicFwS2/include/matrix.h **** template<typename T>
 160:/home/tienluong/workspace/atlantis_fw/AsicFwS2/include/matrix.h **** Vec2<T> min( const Vec2<T> & a, const Vec2<T> & b )
 161:/home/tienluong/workspace/atlantis_fw/AsicFwS2/include/matrix.h **** { return { std::min( a.x(), b.x() ), std::min( a.y(), b.y() ) }; }
 162:/home/tienluong/workspace/atlantis_fw/AsicFwS2/include/matrix.h **** 
 163:/home/tienluong/workspace/atlantis_fw/AsicFwS2/include/matrix.h **** template<typename T>
 164:/home/tienluong/workspace/atlantis_fw/AsicFwS2/include/matrix.h **** Vec2<T> abs( const Vec2<T> & t ) { return t.abs(); }
 165:/home/tienluong/workspace/atlantis_fw/AsicFwS2/include/matrix.h **** 
 166:/home/tienluong/workspace/atlantis_fw/AsicFwS2/include/matrix.h **** // template<typename T>
 167:/home/tienluong/workspace/atlantis_fw/AsicFwS2/include/matrix.h **** // Vec2<T> sign( const Vec2<T> & t ) { return t.sign(); }
 168:/home/tienluong/workspace/atlantis_fw/AsicFwS2/include/matrix.h **** 
 169:/home/tienluong/workspace/atlantis_fw/AsicFwS2/include/matrix.h **** template<typename T>
 170:/home/tienluong/workspace/atlantis_fw/AsicFwS2/include/matrix.h **** typename std::enable_if<std::is_floating_point<T>::value, T>::type
 171:/home/tienluong/workspace/atlantis_fw/AsicFwS2/include/matrix.h **** length( const Vec2<T> & a )
 172:/home/tienluong/workspace/atlantis_fw/AsicFwS2/include/matrix.h **** { return std::sqrt( dot( a, a ) ); }
 173:/home/tienluong/workspace/atlantis_fw/AsicFwS2/include/matrix.h **** 
 174:/home/tienluong/workspace/atlantis_fw/AsicFwS2/include/matrix.h **** template<typename T>
 175:/home/tienluong/workspace/atlantis_fw/AsicFwS2/include/matrix.h **** typename std::enable_if<std::is_floating_point<T>::value, Vec2<T> >::type
 176:/home/tienluong/workspace/atlantis_fw/AsicFwS2/include/matrix.h **** sqrt( const Vec2<T> & a )
 177:/home/tienluong/workspace/atlantis_fw/AsicFwS2/include/matrix.h **** { return { std::sqrt( a.x() ), std::sqrt( a.y() ) }; }
 178:/home/tienluong/workspace/atlantis_fw/AsicFwS2/include/matrix.h **** 
 179:/home/tienluong/workspace/atlantis_fw/AsicFwS2/include/matrix.h **** template<typename T>
 180:/home/tienluong/workspace/atlantis_fw/AsicFwS2/include/matrix.h **** typename std::enable_if<std::is_floating_point<T>::value, T>::type
 181:/home/tienluong/workspace/atlantis_fw/AsicFwS2/include/matrix.h **** squaredSum( const Vec2<T> & a )
 182:/home/tienluong/workspace/atlantis_fw/AsicFwS2/include/matrix.h **** { return dot( a, a ); }
 183:/home/tienluong/workspace/atlantis_fw/AsicFwS2/include/matrix.h **** 
 184:/home/tienluong/workspace/atlantis_fw/AsicFwS2/include/matrix.h **** template<typename T>
 185:/home/tienluong/workspace/atlantis_fw/AsicFwS2/include/matrix.h **** typename std::enable_if<std::is_floating_point<T>::value, Vec2<T> >::type
 186:/home/tienluong/workspace/atlantis_fw/AsicFwS2/include/matrix.h **** normalize( const Vec2<T> & a )
 187:/home/tienluong/workspace/atlantis_fw/AsicFwS2/include/matrix.h **** {
 188:/home/tienluong/workspace/atlantis_fw/AsicFwS2/include/matrix.h ****     return a / length( a );
 189:/home/tienluong/workspace/atlantis_fw/AsicFwS2/include/matrix.h **** }
 190:/home/tienluong/workspace/atlantis_fw/AsicFwS2/include/matrix.h **** 
 191:/home/tienluong/workspace/atlantis_fw/AsicFwS2/include/matrix.h **** // template<typename T>
 192:/home/tienluong/workspace/atlantis_fw/AsicFwS2/include/matrix.h **** // typename std::enable_if<std::is_floating_point<T>::value, Vec2<T> >::type
 193:/home/tienluong/workspace/atlantis_fw/AsicFwS2/include/matrix.h **** // pow( const Vec2<T> & a, const Vec2<T> & b )
 194:/home/tienluong/workspace/atlantis_fw/AsicFwS2/include/matrix.h **** // { return { std::pow( a.x(), b.x() ), std::pow( a.y(), b.y() ) }; }
 195:/home/tienluong/workspace/atlantis_fw/AsicFwS2/include/matrix.h **** 
 196:/home/tienluong/workspace/atlantis_fw/AsicFwS2/include/matrix.h **** // template<typename T>
 197:/home/tienluong/workspace/atlantis_fw/AsicFwS2/include/matrix.h **** // typename std::enable_if<std::is_floating_point<T>::value, Vec2<T> >::type
 198:/home/tienluong/workspace/atlantis_fw/AsicFwS2/include/matrix.h **** // pow( const Vec2<T> & a, T  b )
 199:/home/tienluong/workspace/atlantis_fw/AsicFwS2/include/matrix.h **** // { return { std::pow( a.x(), b ), std::pow( a.y(), b ) }; }
 200:/home/tienluong/workspace/atlantis_fw/AsicFwS2/include/matrix.h **** 
 201:/home/tienluong/workspace/atlantis_fw/AsicFwS2/include/matrix.h **** // template<typename T>
 202:/home/tienluong/workspace/atlantis_fw/AsicFwS2/include/matrix.h **** // typename std::enable_if<std::is_floating_point<T>::value, Vec2<T> >::type
 203:/home/tienluong/workspace/atlantis_fw/AsicFwS2/include/matrix.h **** // pow( T a, const Vec2<T> & b )
 204:/home/tienluong/workspace/atlantis_fw/AsicFwS2/include/matrix.h **** // { return { std::pow( a, b.x() ), std::pow( a, b.y() ) }; }
 205:/home/tienluong/workspace/atlantis_fw/AsicFwS2/include/matrix.h **** 
 206:/home/tienluong/workspace/atlantis_fw/AsicFwS2/include/matrix.h **** // template<typename T>
 207:/home/tienluong/workspace/atlantis_fw/AsicFwS2/include/matrix.h **** // typename std::enable_if<std::is_floating_point<T>::value, Vec2<T> >::type
 208:/home/tienluong/workspace/atlantis_fw/AsicFwS2/include/matrix.h **** // floor( const Vec2<T> & a )
 209:/home/tienluong/workspace/atlantis_fw/AsicFwS2/include/matrix.h **** // { return { std::floor( a.x() ), std::floor( a.y() ) }; }
 210:/home/tienluong/workspace/atlantis_fw/AsicFwS2/include/matrix.h **** 
 211:/home/tienluong/workspace/atlantis_fw/AsicFwS2/include/matrix.h **** // template<typename T>
 212:/home/tienluong/workspace/atlantis_fw/AsicFwS2/include/matrix.h **** // typename std::enable_if<std::is_floating_point<T>::value, Vec2<T> >::type
 213:/home/tienluong/workspace/atlantis_fw/AsicFwS2/include/matrix.h **** // ceil( const Vec2<T> & a )
 214:/home/tienluong/workspace/atlantis_fw/AsicFwS2/include/matrix.h **** // { return { std::ceil( a.x() ), std::ceil( a.y() ) }; }
 215:/home/tienluong/workspace/atlantis_fw/AsicFwS2/include/matrix.h **** 
 216:/home/tienluong/workspace/atlantis_fw/AsicFwS2/include/matrix.h **** 
 217:/home/tienluong/workspace/atlantis_fw/AsicFwS2/include/matrix.h **** 
 218:/home/tienluong/workspace/atlantis_fw/AsicFwS2/include/matrix.h **** 
 219:/home/tienluong/workspace/atlantis_fw/AsicFwS2/include/matrix.h **** 
 220:/home/tienluong/workspace/atlantis_fw/AsicFwS2/include/matrix.h **** // -----------------------------------------------------------
 221:/home/tienluong/workspace/atlantis_fw/AsicFwS2/include/matrix.h **** // 			Vec3 class
 222:/home/tienluong/workspace/atlantis_fw/AsicFwS2/include/matrix.h **** // -----------------------------------------------------------
 223:/home/tienluong/workspace/atlantis_fw/AsicFwS2/include/matrix.h **** template<typename T>
 224:/home/tienluong/workspace/atlantis_fw/AsicFwS2/include/matrix.h **** class Vec3
 225:/home/tienluong/workspace/atlantis_fw/AsicFwS2/include/matrix.h **** {
 226:/home/tienluong/workspace/atlantis_fw/AsicFwS2/include/matrix.h **** public:
 227:/home/tienluong/workspace/atlantis_fw/AsicFwS2/include/matrix.h ****     Vec3() {}
 228:/home/tienluong/workspace/atlantis_fw/AsicFwS2/include/matrix.h ****     Vec3( T t ) : _x( t ), _y( t ), _z( t ) {}
 229:/home/tienluong/workspace/atlantis_fw/AsicFwS2/include/matrix.h ****     Vec3( T x, T y, T z ) : _x( x ), _y( y ), _z( z ) {}
 230:/home/tienluong/workspace/atlantis_fw/AsicFwS2/include/matrix.h ****     Vec3( const Vec3 & t ) : _x( t._x ), _y( t._y ), _z( t._z ) {}
 231:/home/tienluong/workspace/atlantis_fw/AsicFwS2/include/matrix.h **** 
 232:/home/tienluong/workspace/atlantis_fw/AsicFwS2/include/matrix.h ****     template<typename U>
 233:/home/tienluong/workspace/atlantis_fw/AsicFwS2/include/matrix.h ****     explicit Vec3( const Vec3<U> & t )
 234:/home/tienluong/workspace/atlantis_fw/AsicFwS2/include/matrix.h ****         : _x( static_cast<T>( t.x() ) )
 235:/home/tienluong/workspace/atlantis_fw/AsicFwS2/include/matrix.h ****         , _y( static_cast<T>( t.y() ) )
 236:/home/tienluong/workspace/atlantis_fw/AsicFwS2/include/matrix.h ****         , _z( static_cast<T>( t.z() ) ) {}
 237:/home/tienluong/workspace/atlantis_fw/AsicFwS2/include/matrix.h **** 
 238:/home/tienluong/workspace/atlantis_fw/AsicFwS2/include/matrix.h ****     Vec3 & operator=( const Vec3 & t )
 239:/home/tienluong/workspace/atlantis_fw/AsicFwS2/include/matrix.h ****     { _x = t._x; _y = t._y; _z = t._z; return *this; }
 240:/home/tienluong/workspace/atlantis_fw/AsicFwS2/include/matrix.h **** 
 241:/home/tienluong/workspace/atlantis_fw/AsicFwS2/include/matrix.h ****     Vec3 & operator/=( const Vec3 & t )
 242:/home/tienluong/workspace/atlantis_fw/AsicFwS2/include/matrix.h ****     { _x /= t._x; _y /= t._y; _z /= t._z; return *this; }
 243:/home/tienluong/workspace/atlantis_fw/AsicFwS2/include/matrix.h **** 
 244:/home/tienluong/workspace/atlantis_fw/AsicFwS2/include/matrix.h ****     Vec3 & operator%=( const Vec3 & t )
 245:/home/tienluong/workspace/atlantis_fw/AsicFwS2/include/matrix.h ****     { _x %= t._x; _y %= t._y; _z %= t._z; return *this; }
 246:/home/tienluong/workspace/atlantis_fw/AsicFwS2/include/matrix.h **** 
 247:/home/tienluong/workspace/atlantis_fw/AsicFwS2/include/matrix.h ****     Vec3 & operator*=( const Vec3 & t )
 248:/home/tienluong/workspace/atlantis_fw/AsicFwS2/include/matrix.h ****     { _x *= t._x; _y *= t._y; _z *= t._z; return *this; }
 249:/home/tienluong/workspace/atlantis_fw/AsicFwS2/include/matrix.h **** 
 250:/home/tienluong/workspace/atlantis_fw/AsicFwS2/include/matrix.h ****     Vec3 & operator+=( const Vec3 & t )
 251:/home/tienluong/workspace/atlantis_fw/AsicFwS2/include/matrix.h ****     { _x += t._x; _y += t._y; _z += t._z; return *this; }
 252:/home/tienluong/workspace/atlantis_fw/AsicFwS2/include/matrix.h **** 
 253:/home/tienluong/workspace/atlantis_fw/AsicFwS2/include/matrix.h ****     Vec3 & operator-=( const Vec3 & t )
 254:/home/tienluong/workspace/atlantis_fw/AsicFwS2/include/matrix.h ****     { _x -= t._x; _y -= t._y; _z -= t._z; return *this; }
 255:/home/tienluong/workspace/atlantis_fw/AsicFwS2/include/matrix.h **** 
 256:/home/tienluong/workspace/atlantis_fw/AsicFwS2/include/matrix.h ****     Vec3 & operator&=( const Vec3 & t )
 257:/home/tienluong/workspace/atlantis_fw/AsicFwS2/include/matrix.h ****     { _x &= t._x; _y &= t._y; _z &= t._z; return *this; }
 258:/home/tienluong/workspace/atlantis_fw/AsicFwS2/include/matrix.h **** 
 259:/home/tienluong/workspace/atlantis_fw/AsicFwS2/include/matrix.h ****     Vec3 & operator|=( const Vec3 & t )
 260:/home/tienluong/workspace/atlantis_fw/AsicFwS2/include/matrix.h ****     { _x |= t._x; _y |= t._y; _z |= t._z; return *this; }
 261:/home/tienluong/workspace/atlantis_fw/AsicFwS2/include/matrix.h **** 
 262:/home/tienluong/workspace/atlantis_fw/AsicFwS2/include/matrix.h ****     Vec3 & operator>>=( int t )
 263:/home/tienluong/workspace/atlantis_fw/AsicFwS2/include/matrix.h ****     { _x >>= t; _y >>= t; _z >>= t; return *this; }
 264:/home/tienluong/workspace/atlantis_fw/AsicFwS2/include/matrix.h **** 
 265:/home/tienluong/workspace/atlantis_fw/AsicFwS2/include/matrix.h ****     Vec3 & operator<<=( int t )
 266:/home/tienluong/workspace/atlantis_fw/AsicFwS2/include/matrix.h ****     { _x <<= t; _y <<= t; _z <<= t; return *this; }
 267:/home/tienluong/workspace/atlantis_fw/AsicFwS2/include/matrix.h **** 
 268:/home/tienluong/workspace/atlantis_fw/AsicFwS2/include/matrix.h ****     Vec3 operator-() const { return { -_x, -_y, -_z }; }
 269:/home/tienluong/workspace/atlantis_fw/AsicFwS2/include/matrix.h **** 
 270:/home/tienluong/workspace/atlantis_fw/AsicFwS2/include/matrix.h ****     template<typename U > 
 271:/home/tienluong/workspace/atlantis_fw/AsicFwS2/include/matrix.h ****     Vec3<typename std::common_type<T, U>::type>
 272:/home/tienluong/workspace/atlantis_fw/AsicFwS2/include/matrix.h ****     operator+( const Vec3<U> & t ) const { return { _x + t.x(), _y + t.y(), _z + t.z() }; }
 273:/home/tienluong/workspace/atlantis_fw/AsicFwS2/include/matrix.h **** 
 274:/home/tienluong/workspace/atlantis_fw/AsicFwS2/include/matrix.h ****     template<typename U> Vec3<typename std::common_type<T, U>::type>
 275:/home/tienluong/workspace/atlantis_fw/AsicFwS2/include/matrix.h ****     operator-( const Vec3<U> & t ) const { return { _x - t.x(), _y - t.y(), _z - t.z() }; }
 276:/home/tienluong/workspace/atlantis_fw/AsicFwS2/include/matrix.h **** 
 277:/home/tienluong/workspace/atlantis_fw/AsicFwS2/include/matrix.h ****     template<typename U> Vec3<typename std::common_type<T, U>::type>
 278:/home/tienluong/workspace/atlantis_fw/AsicFwS2/include/matrix.h ****     operator*( const Vec3<U> & t ) const { return { _x * t.x(), _y * t.y(), _z * t.z() }; }
 279:/home/tienluong/workspace/atlantis_fw/AsicFwS2/include/matrix.h **** 
 280:/home/tienluong/workspace/atlantis_fw/AsicFwS2/include/matrix.h ****     template<typename U> Vec3<typename std::common_type<T, U>::type>
 281:/home/tienluong/workspace/atlantis_fw/AsicFwS2/include/matrix.h ****     operator/( const Vec3<U> & t ) const { return { _x / t.x(), _y / t.y(), _z / t.z() }; }
 282:/home/tienluong/workspace/atlantis_fw/AsicFwS2/include/matrix.h **** 
 283:/home/tienluong/workspace/atlantis_fw/AsicFwS2/include/matrix.h ****     template < typename U,
 284:/home/tienluong/workspace/atlantis_fw/AsicFwS2/include/matrix.h ****                typename = typename std::enable_if < std::is_integral<T>::value && std::is_integral<
 285:/home/tienluong/workspace/atlantis_fw/AsicFwS2/include/matrix.h ****     Vec3<typename std::common_type<T, U>::type>
 286:/home/tienluong/workspace/atlantis_fw/AsicFwS2/include/matrix.h ****     operator%( const Vec3<U> & t ) const { return { _x % t.x(), _y % t.y(), _z % t.z() }; }
 287:/home/tienluong/workspace/atlantis_fw/AsicFwS2/include/matrix.h **** 
 288:/home/tienluong/workspace/atlantis_fw/AsicFwS2/include/matrix.h ****     template < typename U,
 289:/home/tienluong/workspace/atlantis_fw/AsicFwS2/include/matrix.h ****                typename = typename std::enable_if < std::is_arithmetic<U>::value >::type >
 290:/home/tienluong/workspace/atlantis_fw/AsicFwS2/include/matrix.h ****     Vec3<typename std::common_type<T, U>::type>
 291:/home/tienluong/workspace/atlantis_fw/AsicFwS2/include/matrix.h ****     operator+( U t ) const { return { _x + t, _y + t, _z + t }; }
 292:/home/tienluong/workspace/atlantis_fw/AsicFwS2/include/matrix.h **** 
 293:/home/tienluong/workspace/atlantis_fw/AsicFwS2/include/matrix.h ****     template < typename U,
 294:/home/tienluong/workspace/atlantis_fw/AsicFwS2/include/matrix.h ****                typename = typename std::enable_if < std::is_arithmetic<U>::value >::type >
 295:/home/tienluong/workspace/atlantis_fw/AsicFwS2/include/matrix.h ****     Vec3<typename std::common_type<T, U>::type>
 296:/home/tienluong/workspace/atlantis_fw/AsicFwS2/include/matrix.h ****     operator-( U t ) const { return { _x - t, _y - t, _z - t }; }
 297:/home/tienluong/workspace/atlantis_fw/AsicFwS2/include/matrix.h **** 
 298:/home/tienluong/workspace/atlantis_fw/AsicFwS2/include/matrix.h ****     template < typename U,
 299:/home/tienluong/workspace/atlantis_fw/AsicFwS2/include/matrix.h ****                typename = typename std::enable_if < std::is_arithmetic<U>::value >::type >
 300:/home/tienluong/workspace/atlantis_fw/AsicFwS2/include/matrix.h ****     Vec3<typename std::common_type<T, U>::type>
 301:/home/tienluong/workspace/atlantis_fw/AsicFwS2/include/matrix.h ****     operator*( U t ) const { return { _x * t, _y * t, _z * t }; }
 302:/home/tienluong/workspace/atlantis_fw/AsicFwS2/include/matrix.h **** 
 303:/home/tienluong/workspace/atlantis_fw/AsicFwS2/include/matrix.h ****     template < typename U,
 304:/home/tienluong/workspace/atlantis_fw/AsicFwS2/include/matrix.h ****                typename = typename std::enable_if < std::is_arithmetic<U>::value >::type >
 305:/home/tienluong/workspace/atlantis_fw/AsicFwS2/include/matrix.h ****     Vec3<typename std::common_type<T, U>::type>
 306:/home/tienluong/workspace/atlantis_fw/AsicFwS2/include/matrix.h ****     operator/( U t ) const { return { _x / t, _y / t, _z / t }; }
 307:/home/tienluong/workspace/atlantis_fw/AsicFwS2/include/matrix.h **** 
 308:/home/tienluong/workspace/atlantis_fw/AsicFwS2/include/matrix.h ****     template < typename U,
 309:/home/tienluong/workspace/atlantis_fw/AsicFwS2/include/matrix.h ****                typename = typename std::enable_if < std::is_integral<T>::value && std::is_integral<
 310:/home/tienluong/workspace/atlantis_fw/AsicFwS2/include/matrix.h ****     Vec3<typename std::common_type<T, U>::type>
 311:/home/tienluong/workspace/atlantis_fw/AsicFwS2/include/matrix.h ****     operator%( U t ) const { return { _x % t, _y % t, _z % t }; }
 312:/home/tienluong/workspace/atlantis_fw/AsicFwS2/include/matrix.h ****     Vec3<bool> operator==( const Vec3 & t ) const { return { _x == t._x, _y == t._y, _z == t._z }; 
 313:/home/tienluong/workspace/atlantis_fw/AsicFwS2/include/matrix.h ****     Vec3<bool> operator!=( const Vec3 & t ) const { return { _x != t._x, _y != t._y, _z != t._z }; 
 314:/home/tienluong/workspace/atlantis_fw/AsicFwS2/include/matrix.h ****     Vec3<bool> operator>=( const Vec3 & t ) const { return { _x >= t._x, _y >= t._y, _z >= t._z }; 
 315:/home/tienluong/workspace/atlantis_fw/AsicFwS2/include/matrix.h ****     Vec3<bool> operator>( const Vec3 & t )  const { return { _x >  t._x, _y >  t._y, _z >  t._z }; 
 316:/home/tienluong/workspace/atlantis_fw/AsicFwS2/include/matrix.h ****     Vec3<bool> operator<=( const Vec3 & t ) const { return { _x <= t._x, _y <= t._y, _z <= t._z }; 
 317:/home/tienluong/workspace/atlantis_fw/AsicFwS2/include/matrix.h ****     Vec3<bool> operator<( const Vec3 & t )  const { return { _x <  t._x, _y <  t._y, _z <  t._z }; 
 318:/home/tienluong/workspace/atlantis_fw/AsicFwS2/include/matrix.h **** 
 319:/home/tienluong/workspace/atlantis_fw/AsicFwS2/include/matrix.h ****     T min() const { return std::min( std::min( _x, _y ), _z ); }
 320:/home/tienluong/workspace/atlantis_fw/AsicFwS2/include/matrix.h ****     T max() const { return std::max( std::max( _x, _y ), _z ); }
 321:/home/tienluong/workspace/atlantis_fw/AsicFwS2/include/matrix.h ****     T sum() const { return _x + _y + _z; }
 322:/home/tienluong/workspace/atlantis_fw/AsicFwS2/include/matrix.h ****     T dot( const Vec3<T> & t ) const { return _x * t.x() + _y * t.y() + _z * t.z(); }
 323:/home/tienluong/workspace/atlantis_fw/AsicFwS2/include/matrix.h **** 
 324:/home/tienluong/workspace/atlantis_fw/AsicFwS2/include/matrix.h ****     // cross product in right-hand side coordinate (i.e. if this=(1,0,0), t=(0,1,0), out=(0,0,1)).
 325:/home/tienluong/workspace/atlantis_fw/AsicFwS2/include/matrix.h ****     Vec3<T> cross( const Vec3<T> & t ) const
 326:/home/tienluong/workspace/atlantis_fw/AsicFwS2/include/matrix.h ****     { return Vec3<T> {_y * t.z() - _z * t.y(), _z * t.x() - _x * t.z(), _x * t.y() - _y * t.x()};}
 327:/home/tienluong/workspace/atlantis_fw/AsicFwS2/include/matrix.h **** 
 328:/home/tienluong/workspace/atlantis_fw/AsicFwS2/include/matrix.h ****     Vec3 abs() const { return { std::abs( _x ), std::abs( _y ), std::abs( _z ) }; }
 329:/home/tienluong/workspace/atlantis_fw/AsicFwS2/include/matrix.h **** 
 330:/home/tienluong/workspace/atlantis_fw/AsicFwS2/include/matrix.h ****     const T & x() const { return _x; }
 331:/home/tienluong/workspace/atlantis_fw/AsicFwS2/include/matrix.h ****     const T & y() const { return _y; }
 332:/home/tienluong/workspace/atlantis_fw/AsicFwS2/include/matrix.h ****     const T & z() const { return _z; }
 333:/home/tienluong/workspace/atlantis_fw/AsicFwS2/include/matrix.h **** 
 334:/home/tienluong/workspace/atlantis_fw/AsicFwS2/include/matrix.h ****     void setX( T x ) { _x = x; }
 335:/home/tienluong/workspace/atlantis_fw/AsicFwS2/include/matrix.h ****     void setY( T y ) { _y = y; }
 336:/home/tienluong/workspace/atlantis_fw/AsicFwS2/include/matrix.h ****     void setZ( T z ) { _z = z; }
 337:/home/tienluong/workspace/atlantis_fw/AsicFwS2/include/matrix.h **** 
 338:/home/tienluong/workspace/atlantis_fw/AsicFwS2/include/matrix.h ****     Vec3 & normalize()
 339:/home/tienluong/workspace/atlantis_fw/AsicFwS2/include/matrix.h ****     {
 340:/home/tienluong/workspace/atlantis_fw/AsicFwS2/include/matrix.h ****         T len = length(*this);
 341:/home/tienluong/workspace/atlantis_fw/AsicFwS2/include/matrix.h ****         _x /= len;
 342:/home/tienluong/workspace/atlantis_fw/AsicFwS2/include/matrix.h ****         _y /= len;
 343:/home/tienluong/workspace/atlantis_fw/AsicFwS2/include/matrix.h ****         _z /= len;
 344:/home/tienluong/workspace/atlantis_fw/AsicFwS2/include/matrix.h ****         return *this;
 345:/home/tienluong/workspace/atlantis_fw/AsicFwS2/include/matrix.h ****     }
 346:/home/tienluong/workspace/atlantis_fw/AsicFwS2/include/matrix.h **** 
 347:/home/tienluong/workspace/atlantis_fw/AsicFwS2/include/matrix.h **** private:
 348:/home/tienluong/workspace/atlantis_fw/AsicFwS2/include/matrix.h ****     T _x, _y, _z;
 349:/home/tienluong/workspace/atlantis_fw/AsicFwS2/include/matrix.h **** };
 350:/home/tienluong/workspace/atlantis_fw/AsicFwS2/include/matrix.h **** 
 351:/home/tienluong/workspace/atlantis_fw/AsicFwS2/include/matrix.h **** // basic math functions
 352:/home/tienluong/workspace/atlantis_fw/AsicFwS2/include/matrix.h **** template<typename T>
 353:/home/tienluong/workspace/atlantis_fw/AsicFwS2/include/matrix.h **** T min( const Vec3<T> & t ) { return t.min(); }
 354:/home/tienluong/workspace/atlantis_fw/AsicFwS2/include/matrix.h **** 
 355:/home/tienluong/workspace/atlantis_fw/AsicFwS2/include/matrix.h **** template<typename T>
 356:/home/tienluong/workspace/atlantis_fw/AsicFwS2/include/matrix.h **** T max( const Vec3<T> & t ) { return t.max(); }
 357:/home/tienluong/workspace/atlantis_fw/AsicFwS2/include/matrix.h **** 
 358:/home/tienluong/workspace/atlantis_fw/AsicFwS2/include/matrix.h **** template<typename T>
 359:/home/tienluong/workspace/atlantis_fw/AsicFwS2/include/matrix.h **** T sum( const Vec3<T> & t ) { return t.sum(); }
 360:/home/tienluong/workspace/atlantis_fw/AsicFwS2/include/matrix.h **** 
 361:/home/tienluong/workspace/atlantis_fw/AsicFwS2/include/matrix.h **** template<typename T>
 362:/home/tienluong/workspace/atlantis_fw/AsicFwS2/include/matrix.h **** T dot( const Vec3<T> & a, const Vec3<T> & b ) { return a.dot( b ); }
 363:/home/tienluong/workspace/atlantis_fw/AsicFwS2/include/matrix.h **** 
 364:/home/tienluong/workspace/atlantis_fw/AsicFwS2/include/matrix.h **** template<typename T>
 365:/home/tienluong/workspace/atlantis_fw/AsicFwS2/include/matrix.h **** Vec3<T> cross( const Vec3<T> & a, const Vec3<T> & b ) { return a.cross( b ); }
 366:/home/tienluong/workspace/atlantis_fw/AsicFwS2/include/matrix.h **** 
 367:/home/tienluong/workspace/atlantis_fw/AsicFwS2/include/matrix.h **** template<typename T>
 368:/home/tienluong/workspace/atlantis_fw/AsicFwS2/include/matrix.h **** Vec3<T> min( const Vec3<T> & a, const Vec3<T> & b )
 369:/home/tienluong/workspace/atlantis_fw/AsicFwS2/include/matrix.h **** { return { std::min( a.x(), b.x() ), std::min( a.y(), b.y() ), std::min( a.z(), b.z() ) }; }
 370:/home/tienluong/workspace/atlantis_fw/AsicFwS2/include/matrix.h **** 
 371:/home/tienluong/workspace/atlantis_fw/AsicFwS2/include/matrix.h **** // template<typename T, typename U>
 372:/home/tienluong/workspace/atlantis_fw/AsicFwS2/include/matrix.h **** // typename std::enable_if<std::is_arithmetic<U>::value, Vec3<T> >::type
 373:/home/tienluong/workspace/atlantis_fw/AsicFwS2/include/matrix.h **** // min( U a, const Vec3<T> & b )
 374:/home/tienluong/workspace/atlantis_fw/AsicFwS2/include/matrix.h **** // { return min( Vec3<T>( a ), b ); }
 375:/home/tienluong/workspace/atlantis_fw/AsicFwS2/include/matrix.h **** 
 376:/home/tienluong/workspace/atlantis_fw/AsicFwS2/include/matrix.h **** // template<typename T, typename U>
 377:/home/tienluong/workspace/atlantis_fw/AsicFwS2/include/matrix.h **** // typename std::enable_if<std::is_arithmetic<U>::value, Vec3<T> >::type
 378:/home/tienluong/workspace/atlantis_fw/AsicFwS2/include/matrix.h **** // min( const Vec3<T> & a, U b )
 379:/home/tienluong/workspace/atlantis_fw/AsicFwS2/include/matrix.h **** // { return min( a, Vec3<T>( b ) ); }
 380:/home/tienluong/workspace/atlantis_fw/AsicFwS2/include/matrix.h **** 
 381:/home/tienluong/workspace/atlantis_fw/AsicFwS2/include/matrix.h **** // template<typename T>
 382:/home/tienluong/workspace/atlantis_fw/AsicFwS2/include/matrix.h **** // Vec3<T> max( const Vec3<T> & a, const Vec3<T> & b )
 383:/home/tienluong/workspace/atlantis_fw/AsicFwS2/include/matrix.h **** // { return { max( a.x(), b.x() ), max( a.y(), b.y() ), max( a.z(), b.z() ) }; }
 384:/home/tienluong/workspace/atlantis_fw/AsicFwS2/include/matrix.h **** 
 385:/home/tienluong/workspace/atlantis_fw/AsicFwS2/include/matrix.h **** // template<typename T, typename U>
 386:/home/tienluong/workspace/atlantis_fw/AsicFwS2/include/matrix.h **** // typename std::enable_if<std::is_arithmetic<U>::value, Vec3<T> >::type
 387:/home/tienluong/workspace/atlantis_fw/AsicFwS2/include/matrix.h **** // max( U a, const Vec3<T> & b )
 388:/home/tienluong/workspace/atlantis_fw/AsicFwS2/include/matrix.h **** // { return max( Vec3<T>( a ), b ); }
 389:/home/tienluong/workspace/atlantis_fw/AsicFwS2/include/matrix.h **** 
 390:/home/tienluong/workspace/atlantis_fw/AsicFwS2/include/matrix.h **** // template<typename T, typename U>
 391:/home/tienluong/workspace/atlantis_fw/AsicFwS2/include/matrix.h **** // typename std::enable_if<std::is_arithmetic<U>::value, Vec3<T> >::type
 392:/home/tienluong/workspace/atlantis_fw/AsicFwS2/include/matrix.h **** // max( const Vec3<T> & a, U b )
 393:/home/tienluong/workspace/atlantis_fw/AsicFwS2/include/matrix.h **** // { return max( a, Vec3<T>( b ) ); }
 394:/home/tienluong/workspace/atlantis_fw/AsicFwS2/include/matrix.h **** 
 395:/home/tienluong/workspace/atlantis_fw/AsicFwS2/include/matrix.h **** // template<typename T>
 396:/home/tienluong/workspace/atlantis_fw/AsicFwS2/include/matrix.h **** // Vec3<T> clamp( const Vec3<T> & t, const Vec3<T> & min_t, const Vec3<T> & max_t )
 397:/home/tienluong/workspace/atlantis_fw/AsicFwS2/include/matrix.h **** // { return min( max( t, min_t ), max_t ); }
 398:/home/tienluong/workspace/atlantis_fw/AsicFwS2/include/matrix.h **** 
 399:/home/tienluong/workspace/atlantis_fw/AsicFwS2/include/matrix.h **** // template<typename T, typename U>
 400:/home/tienluong/workspace/atlantis_fw/AsicFwS2/include/matrix.h **** // typename std::enable_if<std::is_arithmetic<U>::value, Vec3<T> >::type
 401:/home/tienluong/workspace/atlantis_fw/AsicFwS2/include/matrix.h **** // clamp( const Vec3<T> & t, U min_t, const Vec3<T> & max_t )
 402:/home/tienluong/workspace/atlantis_fw/AsicFwS2/include/matrix.h **** // { return clamp( t, Vec3<T>( min_t ), max_t ); }
 403:/home/tienluong/workspace/atlantis_fw/AsicFwS2/include/matrix.h **** 
 404:/home/tienluong/workspace/atlantis_fw/AsicFwS2/include/matrix.h **** // template<typename T, typename U>
 405:/home/tienluong/workspace/atlantis_fw/AsicFwS2/include/matrix.h **** // typename std::enable_if<std::is_arithmetic<U>::value, Vec3<T> >::type
 406:/home/tienluong/workspace/atlantis_fw/AsicFwS2/include/matrix.h **** // clamp( const Vec3<T> & t, const Vec3<T> & min_t, U max_t )
 407:/home/tienluong/workspace/atlantis_fw/AsicFwS2/include/matrix.h **** // { return clamp( t, min_t, Vec3<T>( max_t ) ); }
 408:/home/tienluong/workspace/atlantis_fw/AsicFwS2/include/matrix.h **** 
 409:/home/tienluong/workspace/atlantis_fw/AsicFwS2/include/matrix.h **** // template<typename T, typename U, typename V>
 410:/home/tienluong/workspace/atlantis_fw/AsicFwS2/include/matrix.h **** // typename std::enable_if < std::is_arithmetic<U>::value && std::is_arithmetic<V>::value, Vec3<T> 
 411:/home/tienluong/workspace/atlantis_fw/AsicFwS2/include/matrix.h **** // clamp( const Vec3<T> & t, U min_t, V max_t )
 412:/home/tienluong/workspace/atlantis_fw/AsicFwS2/include/matrix.h **** // { return clamp( t, Vec3<T>( min_t ), Vec3<T>( max_t ) ); }
 413:/home/tienluong/workspace/atlantis_fw/AsicFwS2/include/matrix.h **** 
 414:/home/tienluong/workspace/atlantis_fw/AsicFwS2/include/matrix.h **** template<typename T>
 415:/home/tienluong/workspace/atlantis_fw/AsicFwS2/include/matrix.h **** Vec3<T> abs( const Vec3<T> & t ) { return t.abs(); }
 416:/home/tienluong/workspace/atlantis_fw/AsicFwS2/include/matrix.h **** 
 417:/home/tienluong/workspace/atlantis_fw/AsicFwS2/include/matrix.h **** // template<typename T>
 418:/home/tienluong/workspace/atlantis_fw/AsicFwS2/include/matrix.h **** // Vec3<T> sign( const Vec3<T> & t ) { return t.sign(); }
 419:/home/tienluong/workspace/atlantis_fw/AsicFwS2/include/matrix.h **** 
 420:/home/tienluong/workspace/atlantis_fw/AsicFwS2/include/matrix.h **** template<typename T>
 421:/home/tienluong/workspace/atlantis_fw/AsicFwS2/include/matrix.h **** typename std::enable_if<std::is_floating_point<T>::value, T>::type
 422:/home/tienluong/workspace/atlantis_fw/AsicFwS2/include/matrix.h **** length( const Vec3<T> & a )
 423:/home/tienluong/workspace/atlantis_fw/AsicFwS2/include/matrix.h **** { return std::sqrt( dot( a, a ) ); }
 424:/home/tienluong/workspace/atlantis_fw/AsicFwS2/include/matrix.h **** 
 425:/home/tienluong/workspace/atlantis_fw/AsicFwS2/include/matrix.h **** template<typename T>
 426:/home/tienluong/workspace/atlantis_fw/AsicFwS2/include/matrix.h **** typename std::enable_if<std::is_floating_point<T>::value, Vec3<T> >::type
 427:/home/tienluong/workspace/atlantis_fw/AsicFwS2/include/matrix.h **** sqrt( const Vec3<T> & a )
 428:/home/tienluong/workspace/atlantis_fw/AsicFwS2/include/matrix.h **** { return { std::sqrt( a.x() ), std::sqrt( a.y() ), std::sqrt( a.z() ) }; }
 429:/home/tienluong/workspace/atlantis_fw/AsicFwS2/include/matrix.h **** 
 430:/home/tienluong/workspace/atlantis_fw/AsicFwS2/include/matrix.h **** template<typename T>
 431:/home/tienluong/workspace/atlantis_fw/AsicFwS2/include/matrix.h **** typename std::enable_if<std::is_floating_point<T>::value, T>::type
 432:/home/tienluong/workspace/atlantis_fw/AsicFwS2/include/matrix.h **** squaredSum( const Vec3<T> & a )
 433:/home/tienluong/workspace/atlantis_fw/AsicFwS2/include/matrix.h **** { return dot( a, a ); }
 434:/home/tienluong/workspace/atlantis_fw/AsicFwS2/include/matrix.h **** 
 435:/home/tienluong/workspace/atlantis_fw/AsicFwS2/include/matrix.h **** template<typename T>
 436:/home/tienluong/workspace/atlantis_fw/AsicFwS2/include/matrix.h **** typename std::enable_if<std::is_floating_point<T>::value, Vec3<T> >::type
 437:/home/tienluong/workspace/atlantis_fw/AsicFwS2/include/matrix.h **** normalize( const Vec3<T> & a )
 438:/home/tienluong/workspace/atlantis_fw/AsicFwS2/include/matrix.h **** {
 439:/home/tienluong/workspace/atlantis_fw/AsicFwS2/include/matrix.h ****     return a / length( a );
 440:/home/tienluong/workspace/atlantis_fw/AsicFwS2/include/matrix.h **** }
 441:/home/tienluong/workspace/atlantis_fw/AsicFwS2/include/matrix.h **** 
 442:/home/tienluong/workspace/atlantis_fw/AsicFwS2/include/matrix.h **** // template<typename T>
 443:/home/tienluong/workspace/atlantis_fw/AsicFwS2/include/matrix.h **** // typename std::enable_if<std::is_floating_point<T>::value, Vec3<T> >::type
 444:/home/tienluong/workspace/atlantis_fw/AsicFwS2/include/matrix.h **** // pow( const Vec3<T> & a, const Vec3<T> & b )
 445:/home/tienluong/workspace/atlantis_fw/AsicFwS2/include/matrix.h **** // { return { std::pow( a.x(), b.x() ), std::pow( a.y(), b.y() ), std::pow( a.z(), b.z() ) }; }
 446:/home/tienluong/workspace/atlantis_fw/AsicFwS2/include/matrix.h **** 
 447:/home/tienluong/workspace/atlantis_fw/AsicFwS2/include/matrix.h **** // template<typename T>
 448:/home/tienluong/workspace/atlantis_fw/AsicFwS2/include/matrix.h **** // typename std::enable_if<std::is_floating_point<T>::value, Vec3<T> >::type
 449:/home/tienluong/workspace/atlantis_fw/AsicFwS2/include/matrix.h **** // pow( const Vec3<T> & a, T  b )
 450:/home/tienluong/workspace/atlantis_fw/AsicFwS2/include/matrix.h **** // { return { std::pow( a.x(), b ), std::pow( a.y(), b ), std::pow( a.z(), b ) }; }
 451:/home/tienluong/workspace/atlantis_fw/AsicFwS2/include/matrix.h **** 
 452:/home/tienluong/workspace/atlantis_fw/AsicFwS2/include/matrix.h **** // template<typename T>
 453:/home/tienluong/workspace/atlantis_fw/AsicFwS2/include/matrix.h **** // typename std::enable_if<std::is_floating_point<T>::value, Vec3<T> >::type
 454:/home/tienluong/workspace/atlantis_fw/AsicFwS2/include/matrix.h **** // pow( T a, const Vec3<T> & b )
 455:/home/tienluong/workspace/atlantis_fw/AsicFwS2/include/matrix.h **** // { return { std::pow( a, b.x() ), std::pow( a, b.y() ), std::pow( a, b.z() ) }; }
 456:/home/tienluong/workspace/atlantis_fw/AsicFwS2/include/matrix.h **** 
 457:/home/tienluong/workspace/atlantis_fw/AsicFwS2/include/matrix.h **** // template<typename T>
 458:/home/tienluong/workspace/atlantis_fw/AsicFwS2/include/matrix.h **** // typename std::enable_if<std::is_floating_point<T>::value, Vec3<T> >::type
 459:/home/tienluong/workspace/atlantis_fw/AsicFwS2/include/matrix.h **** // floor( const Vec3<T> & a )
 460:/home/tienluong/workspace/atlantis_fw/AsicFwS2/include/matrix.h **** // { return { std::floor( a.x() ), std::floor( a.y() ), std::floor( a.z() ) }; }
 461:/home/tienluong/workspace/atlantis_fw/AsicFwS2/include/matrix.h **** 
 462:/home/tienluong/workspace/atlantis_fw/AsicFwS2/include/matrix.h **** // template<typename T>
 463:/home/tienluong/workspace/atlantis_fw/AsicFwS2/include/matrix.h **** // typename std::enable_if<std::is_floating_point<T>::value, Vec3<T> >::type
 464:/home/tienluong/workspace/atlantis_fw/AsicFwS2/include/matrix.h **** // ceil( const Vec3<T> & a )
 465:/home/tienluong/workspace/atlantis_fw/AsicFwS2/include/matrix.h **** // { return { std::ceil( a.x() ), std::ceil( a.y() ), std::ceil( a.z() ) }; }
 466:/home/tienluong/workspace/atlantis_fw/AsicFwS2/include/matrix.h **** 
 467:/home/tienluong/workspace/atlantis_fw/AsicFwS2/include/matrix.h **** 
 468:/home/tienluong/workspace/atlantis_fw/AsicFwS2/include/matrix.h **** // -----------------------------------------------------------
 469:/home/tienluong/workspace/atlantis_fw/AsicFwS2/include/matrix.h **** // 			Vec4 class
 470:/home/tienluong/workspace/atlantis_fw/AsicFwS2/include/matrix.h **** // -----------------------------------------------------------
 471:/home/tienluong/workspace/atlantis_fw/AsicFwS2/include/matrix.h **** template<typename T>
 472:/home/tienluong/workspace/atlantis_fw/AsicFwS2/include/matrix.h **** class Vec4
 473:/home/tienluong/workspace/atlantis_fw/AsicFwS2/include/matrix.h **** {
 474:/home/tienluong/workspace/atlantis_fw/AsicFwS2/include/matrix.h **** public:
 475:/home/tienluong/workspace/atlantis_fw/AsicFwS2/include/matrix.h ****     Vec4() {}
 476:/home/tienluong/workspace/atlantis_fw/AsicFwS2/include/matrix.h ****     Vec4( T t ) : _x( t ), _y( t ), _z( t ), _a( t ) {}
 477:/home/tienluong/workspace/atlantis_fw/AsicFwS2/include/matrix.h ****     Vec4( T x, T y, T z, T a ) : _x( x ), _y( y ), _z( z ), _a ( a ){}
 478:/home/tienluong/workspace/atlantis_fw/AsicFwS2/include/matrix.h ****     Vec4( const Vec4 & t ) : _x( t._x ), _y( t._y ), _z( t._z ), _a( t._a ) {}
 479:/home/tienluong/workspace/atlantis_fw/AsicFwS2/include/matrix.h **** 
 480:/home/tienluong/workspace/atlantis_fw/AsicFwS2/include/matrix.h ****     template<typename U>
 481:/home/tienluong/workspace/atlantis_fw/AsicFwS2/include/matrix.h ****     explicit Vec4( const Vec4<U> & t )
 482:/home/tienluong/workspace/atlantis_fw/AsicFwS2/include/matrix.h ****         : _x( static_cast<T>( t.x() ) )
 483:/home/tienluong/workspace/atlantis_fw/AsicFwS2/include/matrix.h ****         , _y( static_cast<T>( t.y() ) )
 484:/home/tienluong/workspace/atlantis_fw/AsicFwS2/include/matrix.h ****         , _z( static_cast<T>( t.z() ) )
 485:/home/tienluong/workspace/atlantis_fw/AsicFwS2/include/matrix.h ****         , _a( static_cast<T>( t.a() ) ) {}
 486:/home/tienluong/workspace/atlantis_fw/AsicFwS2/include/matrix.h **** 
 487:/home/tienluong/workspace/atlantis_fw/AsicFwS2/include/matrix.h ****     Vec4 & operator=( const Vec4 & t )
 488:/home/tienluong/workspace/atlantis_fw/AsicFwS2/include/matrix.h ****     { _x = t._x; _y = t._y; _z = t._z; _a = t._a; return *this; }
 489:/home/tienluong/workspace/atlantis_fw/AsicFwS2/include/matrix.h **** 
 490:/home/tienluong/workspace/atlantis_fw/AsicFwS2/include/matrix.h ****     Vec4 & operator/=( const Vec4 & t )
 491:/home/tienluong/workspace/atlantis_fw/AsicFwS2/include/matrix.h ****     { _x /= t._x; _y /= t._y; _z /= t._z; _a /= t._a; return *this; }
 492:/home/tienluong/workspace/atlantis_fw/AsicFwS2/include/matrix.h **** 
 493:/home/tienluong/workspace/atlantis_fw/AsicFwS2/include/matrix.h ****     Vec4 & operator%=( const Vec4 & t )
 494:/home/tienluong/workspace/atlantis_fw/AsicFwS2/include/matrix.h ****     { _x %= t._x; _y %= t._y; _z %= t._z; _a %= t._a; return *this; }
 495:/home/tienluong/workspace/atlantis_fw/AsicFwS2/include/matrix.h **** 
 496:/home/tienluong/workspace/atlantis_fw/AsicFwS2/include/matrix.h ****     Vec4 & operator*=( const Vec4 & t )
 497:/home/tienluong/workspace/atlantis_fw/AsicFwS2/include/matrix.h ****     { _x *= t._x; _y *= t._y; _z *= t._z; _a *= t._a; return *this; }
 498:/home/tienluong/workspace/atlantis_fw/AsicFwS2/include/matrix.h **** 
 499:/home/tienluong/workspace/atlantis_fw/AsicFwS2/include/matrix.h ****     Vec4 & operator+=( const Vec4 & t )
 500:/home/tienluong/workspace/atlantis_fw/AsicFwS2/include/matrix.h ****     { _x += t._x; _y += t._y; _z += t._z; _a += t._a; return *this; }
 501:/home/tienluong/workspace/atlantis_fw/AsicFwS2/include/matrix.h **** 
 502:/home/tienluong/workspace/atlantis_fw/AsicFwS2/include/matrix.h ****     Vec4 & operator-=( const Vec4 & t )
 503:/home/tienluong/workspace/atlantis_fw/AsicFwS2/include/matrix.h ****     { _x -= t._x; _y -= t._y; _z -= t._z; _a -= t._a; return *this; }
 504:/home/tienluong/workspace/atlantis_fw/AsicFwS2/include/matrix.h **** 
 505:/home/tienluong/workspace/atlantis_fw/AsicFwS2/include/matrix.h ****     Vec4 operator-() const { return { -_x, -_y, _z, _a}; }
 506:/home/tienluong/workspace/atlantis_fw/AsicFwS2/include/matrix.h **** 
 507:/home/tienluong/workspace/atlantis_fw/AsicFwS2/include/matrix.h ****     Vec4<bool> operator==( const Vec4 & t ) const { return { _x == t._x, _y == t._y, _z == t._z, _a
 508:/home/tienluong/workspace/atlantis_fw/AsicFwS2/include/matrix.h ****     Vec4<bool> operator!=( const Vec4 & t ) const { return { _x != t._x, _y != t._y, _z != t._z, _a
 509:/home/tienluong/workspace/atlantis_fw/AsicFwS2/include/matrix.h ****     Vec4<bool> operator>=( const Vec4 & t ) const { return { _x >= t._x, _y >= t._y, _z >= t._z, _a
 510:/home/tienluong/workspace/atlantis_fw/AsicFwS2/include/matrix.h ****     Vec4<bool> operator>( const  Vec4 & t )  const { return { _x >  t._x, _y >  t._y, _z > t._z, _a
 511:/home/tienluong/workspace/atlantis_fw/AsicFwS2/include/matrix.h ****     Vec4<bool> operator<=( const Vec4 & t ) const { return { _x <= t._x, _y <= t._y, _z <= t._z, _a
 512:/home/tienluong/workspace/atlantis_fw/AsicFwS2/include/matrix.h ****     Vec4<bool> operator<( const  Vec4 & t )  const { return { _x <  t._x, _y <  t._y, _z <  t._z, _
 513:/home/tienluong/workspace/atlantis_fw/AsicFwS2/include/matrix.h **** 
 514:/home/tienluong/workspace/atlantis_fw/AsicFwS2/include/matrix.h ****     T min() const { return std::min( std::min( std::min( _x, _y ), _z ), _a); }
 515:/home/tienluong/workspace/atlantis_fw/AsicFwS2/include/matrix.h ****     T max() const { return std::max( std::max( std::max( _x, _y ), _z ), _a); }
 516:/home/tienluong/workspace/atlantis_fw/AsicFwS2/include/matrix.h ****     T sum() const { return _x + _y + _z + _a; }
 517:/home/tienluong/workspace/atlantis_fw/AsicFwS2/include/matrix.h ****     T dot( const Vec4<T> & t ) const { return _x * t.x() + _y * t.y() + _z * t.z() + _a * t.a(); }
 518:/home/tienluong/workspace/atlantis_fw/AsicFwS2/include/matrix.h **** 
 519:/home/tienluong/workspace/atlantis_fw/AsicFwS2/include/matrix.h ****     Vec4 abs() const { return { std::abs( _x ), std::abs( _y ), std::abs( _z ), std::abs( _a ) }; }
 520:/home/tienluong/workspace/atlantis_fw/AsicFwS2/include/matrix.h **** 
 521:/home/tienluong/workspace/atlantis_fw/AsicFwS2/include/matrix.h ****     const T & x() const { return _x; }
 522:/home/tienluong/workspace/atlantis_fw/AsicFwS2/include/matrix.h ****     const T & y() const { return _y; }
 523:/home/tienluong/workspace/atlantis_fw/AsicFwS2/include/matrix.h ****     const T & z() const { return _z; }
 524:/home/tienluong/workspace/atlantis_fw/AsicFwS2/include/matrix.h ****     const T & a() const { return _a; }
 525:/home/tienluong/workspace/atlantis_fw/AsicFwS2/include/matrix.h **** 
 526:/home/tienluong/workspace/atlantis_fw/AsicFwS2/include/matrix.h ****     void setX( T x ) { _x = x; }
 527:/home/tienluong/workspace/atlantis_fw/AsicFwS2/include/matrix.h ****     void setY( T y ) { _y = y; }
 528:/home/tienluong/workspace/atlantis_fw/AsicFwS2/include/matrix.h ****     void setZ( T z ) { _z = z; }
 529:/home/tienluong/workspace/atlantis_fw/AsicFwS2/include/matrix.h **** 	void setA( T a ) { _a = a; }
 530:/home/tienluong/workspace/atlantis_fw/AsicFwS2/include/matrix.h **** private:
 531:/home/tienluong/workspace/atlantis_fw/AsicFwS2/include/matrix.h ****     T _x, _y, _z, _a;
 532:/home/tienluong/workspace/atlantis_fw/AsicFwS2/include/matrix.h **** };
 533:/home/tienluong/workspace/atlantis_fw/AsicFwS2/include/matrix.h **** 
 534:/home/tienluong/workspace/atlantis_fw/AsicFwS2/include/matrix.h **** 
 535:/home/tienluong/workspace/atlantis_fw/AsicFwS2/include/matrix.h **** using Vec2f = Vec2<float>;
 536:/home/tienluong/workspace/atlantis_fw/AsicFwS2/include/matrix.h **** using Vec2d = Vec2<double>;
 537:/home/tienluong/workspace/atlantis_fw/AsicFwS2/include/matrix.h **** using Vec3u16 = Vec3<std::uint16_t>;
 538:/home/tienluong/workspace/atlantis_fw/AsicFwS2/include/matrix.h **** using Vec3f = Vec3<float>;
 539:/home/tienluong/workspace/atlantis_fw/AsicFwS2/include/matrix.h **** using Vec3d = Vec3<double>;
 540:/home/tienluong/workspace/atlantis_fw/AsicFwS2/include/matrix.h **** using Vec4f = Vec4<float>;
 541:/home/tienluong/workspace/atlantis_fw/AsicFwS2/include/matrix.h **** using Vec4d = Vec4<double>;
 542:/home/tienluong/workspace/atlantis_fw/AsicFwS2/include/matrix.h **** 
 543:/home/tienluong/workspace/atlantis_fw/AsicFwS2/include/matrix.h **** 
 544:/home/tienluong/workspace/atlantis_fw/AsicFwS2/include/matrix.h **** // -----------------------------------------------------------
 545:/home/tienluong/workspace/atlantis_fw/AsicFwS2/include/matrix.h **** // 			Matrix class
 546:/home/tienluong/workspace/atlantis_fw/AsicFwS2/include/matrix.h **** // -----------------------------------------------------------
 547:/home/tienluong/workspace/atlantis_fw/AsicFwS2/include/matrix.h **** namespace Internal
 548:/home/tienluong/workspace/atlantis_fw/AsicFwS2/include/matrix.h **** {
 549:/home/tienluong/workspace/atlantis_fw/AsicFwS2/include/matrix.h **** 
 550:/home/tienluong/workspace/atlantis_fw/AsicFwS2/include/matrix.h **** template<typename T, int R, int C>
 551:/home/tienluong/workspace/atlantis_fw/AsicFwS2/include/matrix.h **** class MatrixStorage
 552:/home/tienluong/workspace/atlantis_fw/AsicFwS2/include/matrix.h **** {
 553:/home/tienluong/workspace/atlantis_fw/AsicFwS2/include/matrix.h **** public:
 554:/home/tienluong/workspace/atlantis_fw/AsicFwS2/include/matrix.h ****     MatrixStorage() {}
 555:/home/tienluong/workspace/atlantis_fw/AsicFwS2/include/matrix.h **** protected:
 556:/home/tienluong/workspace/atlantis_fw/AsicFwS2/include/matrix.h ****     T _data[R * C];
 557:/home/tienluong/workspace/atlantis_fw/AsicFwS2/include/matrix.h **** };
 558:/home/tienluong/workspace/atlantis_fw/AsicFwS2/include/matrix.h **** 
 559:/home/tienluong/workspace/atlantis_fw/AsicFwS2/include/matrix.h **** #if 0
 560:/home/tienluong/workspace/atlantis_fw/AsicFwS2/include/matrix.h **** /// Some Matrix types require aligned storage due to SIMD acceleration
 561:/home/tienluong/workspace/atlantis_fw/AsicFwS2/include/matrix.h **** template<>
 562:/home/tienluong/workspace/atlantis_fw/AsicFwS2/include/matrix.h **** class MatrixStorage<float, 4, 4>
 563:/home/tienluong/workspace/atlantis_fw/AsicFwS2/include/matrix.h **** {
 564:/home/tienluong/workspace/atlantis_fw/AsicFwS2/include/matrix.h **** public:
 565:/home/tienluong/workspace/atlantis_fw/AsicFwS2/include/matrix.h ****     MatrixStorage() {}
 566:/home/tienluong/workspace/atlantis_fw/AsicFwS2/include/matrix.h **** protected:
 567:/home/tienluong/workspace/atlantis_fw/AsicFwS2/include/matrix.h ****     alignas( 16 ) float _data[16];
 568:/home/tienluong/workspace/atlantis_fw/AsicFwS2/include/matrix.h **** };
 569:/home/tienluong/workspace/atlantis_fw/AsicFwS2/include/matrix.h **** #endif
 570:/home/tienluong/workspace/atlantis_fw/AsicFwS2/include/matrix.h **** } // Internal namespace
 571:/home/tienluong/workspace/atlantis_fw/AsicFwS2/include/matrix.h **** 
 572:/home/tienluong/workspace/atlantis_fw/AsicFwS2/include/matrix.h **** template<typename T, int R, int C, bool RowMajor = true>
 573:/home/tienluong/workspace/atlantis_fw/AsicFwS2/include/matrix.h **** class Matrix : public Internal::MatrixStorage<T, R, C>
 574:/home/tienluong/workspace/atlantis_fw/AsicFwS2/include/matrix.h **** {
 575:/home/tienluong/workspace/atlantis_fw/AsicFwS2/include/matrix.h ****     //static_assert( std::is_floating_point<T>::value, "Matrix template class requires floating poi
 576:/home/tienluong/workspace/atlantis_fw/AsicFwS2/include/matrix.h ****     static constexpr int kSize = R * C;
 577:/home/tienluong/workspace/atlantis_fw/AsicFwS2/include/matrix.h **** 
 578:/home/tienluong/workspace/atlantis_fw/AsicFwS2/include/matrix.h ****     static inline constexpr int Idx( int row, int col )
 579:/home/tienluong/workspace/atlantis_fw/AsicFwS2/include/matrix.h ****     {
 580:/home/tienluong/workspace/atlantis_fw/AsicFwS2/include/matrix.h ****         return RowMajor ? row * C + col : col * R + row;
 581:/home/tienluong/workspace/atlantis_fw/AsicFwS2/include/matrix.h ****     }
 582:/home/tienluong/workspace/atlantis_fw/AsicFwS2/include/matrix.h **** 
 583:/home/tienluong/workspace/atlantis_fw/AsicFwS2/include/matrix.h **** public:
 584:/home/tienluong/workspace/atlantis_fw/AsicFwS2/include/matrix.h ****     using ScalarType = T;
 585:/home/tienluong/workspace/atlantis_fw/AsicFwS2/include/matrix.h **** 
 586:/home/tienluong/workspace/atlantis_fw/AsicFwS2/include/matrix.h ****     static constexpr int kRows = R;
 587:/home/tienluong/workspace/atlantis_fw/AsicFwS2/include/matrix.h ****     static constexpr int kCols = C;
 588:/home/tienluong/workspace/atlantis_fw/AsicFwS2/include/matrix.h **** 
 589:/home/tienluong/workspace/atlantis_fw/AsicFwS2/include/matrix.h ****     Matrix() { }
 590:/home/tienluong/workspace/atlantis_fw/AsicFwS2/include/matrix.h **** 
 591:/home/tienluong/workspace/atlantis_fw/AsicFwS2/include/matrix.h ****     Matrix( const Matrix<T, R, C, true> & src ) { *this = src; }
 592:/home/tienluong/workspace/atlantis_fw/AsicFwS2/include/matrix.h **** 
 593:/home/tienluong/workspace/atlantis_fw/AsicFwS2/include/matrix.h ****     Matrix( const Matrix<T, R, C, false> & src ) { *this = src; }
 594:/home/tienluong/workspace/atlantis_fw/AsicFwS2/include/matrix.h **** 
 595:/home/tienluong/workspace/atlantis_fw/AsicFwS2/include/matrix.h ****     /// Input in row-major order.
 596:/home/tienluong/workspace/atlantis_fw/AsicFwS2/include/matrix.h ****     Matrix( std::initializer_list<T> list ) { *this = list; }
 597:/home/tienluong/workspace/atlantis_fw/AsicFwS2/include/matrix.h **** 
 598:/home/tienluong/workspace/atlantis_fw/AsicFwS2/include/matrix.h ****     /// Input in row-major order.
 599:/home/tienluong/workspace/atlantis_fw/AsicFwS2/include/matrix.h ****     explicit Matrix( const std::vector<T> & data ) { *this = data; }
 600:/home/tienluong/workspace/atlantis_fw/AsicFwS2/include/matrix.h **** 
 601:/home/tienluong/workspace/atlantis_fw/AsicFwS2/include/matrix.h ****     /// Input in row-major order.
 602:/home/tienluong/workspace/atlantis_fw/AsicFwS2/include/matrix.h ****     explicit Matrix( const T * ptr )
 603:/home/tienluong/workspace/atlantis_fw/AsicFwS2/include/matrix.h ****     {
 604:/home/tienluong/workspace/atlantis_fw/AsicFwS2/include/matrix.h ****         for( int i = 0; i < R; ++i )
 605:/home/tienluong/workspace/atlantis_fw/AsicFwS2/include/matrix.h ****         {
 606:/home/tienluong/workspace/atlantis_fw/AsicFwS2/include/matrix.h ****             for( int j = 0; j < C; ++j )
 607:/home/tienluong/workspace/atlantis_fw/AsicFwS2/include/matrix.h ****             { this->_data[Idx( i, j )] = ptr[i * C + j]; }
 608:/home/tienluong/workspace/atlantis_fw/AsicFwS2/include/matrix.h ****         }
 609:/home/tienluong/workspace/atlantis_fw/AsicFwS2/include/matrix.h ****     }
 610:/home/tienluong/workspace/atlantis_fw/AsicFwS2/include/matrix.h **** 
 611:/home/tienluong/workspace/atlantis_fw/AsicFwS2/include/matrix.h ****     // generic size/type converting constructor
 612:/home/tienluong/workspace/atlantis_fw/AsicFwS2/include/matrix.h ****     // performs matrix truncation/expansion if necessary
 613:/home/tienluong/workspace/atlantis_fw/AsicFwS2/include/matrix.h ****     template<typename U, int M, int N, bool D>
 614:/home/tienluong/workspace/atlantis_fw/AsicFwS2/include/matrix.h ****     explicit Matrix( const Matrix<U, M, N, D> & src )
 615:/home/tienluong/workspace/atlantis_fw/AsicFwS2/include/matrix.h ****     {
 616:/home/tienluong/workspace/atlantis_fw/AsicFwS2/include/matrix.h ****         constexpr int kMinRow = M < R ? M : R;
 617:/home/tienluong/workspace/atlantis_fw/AsicFwS2/include/matrix.h ****         constexpr int kMinCol = N < C ? N : C;
 618:/home/tienluong/workspace/atlantis_fw/AsicFwS2/include/matrix.h ****         for( int i = 0; i < kMinRow; ++i )
 619:/home/tienluong/workspace/atlantis_fw/AsicFwS2/include/matrix.h ****         {
 620:/home/tienluong/workspace/atlantis_fw/AsicFwS2/include/matrix.h ****             for( int j = 0; j < kMinCol; ++j )
 621:/home/tienluong/workspace/atlantis_fw/AsicFwS2/include/matrix.h ****             { this->_data[Idx( i, j )] = static_cast<T>( src( i, j ) ); }
 622:/home/tienluong/workspace/atlantis_fw/AsicFwS2/include/matrix.h ****             for( int j = kMinCol; j < C; ++j )
 623:/home/tienluong/workspace/atlantis_fw/AsicFwS2/include/matrix.h ****             { this->_data[Idx( i, j )] = i == j ? T{1} : T{0}; }
 624:/home/tienluong/workspace/atlantis_fw/AsicFwS2/include/matrix.h ****         }
 625:/home/tienluong/workspace/atlantis_fw/AsicFwS2/include/matrix.h ****         for( int i = kMinRow; i < R; ++i )
 626:/home/tienluong/workspace/atlantis_fw/AsicFwS2/include/matrix.h ****         {
 627:/home/tienluong/workspace/atlantis_fw/AsicFwS2/include/matrix.h ****             for( int j = 0; j < C; ++j )
 628:/home/tienluong/workspace/atlantis_fw/AsicFwS2/include/matrix.h ****             { this->_data[Idx( i, j )] = i == j ? T{1} : T{0}; }
 629:/home/tienluong/workspace/atlantis_fw/AsicFwS2/include/matrix.h ****         }
 630:/home/tienluong/workspace/atlantis_fw/AsicFwS2/include/matrix.h ****     }
 631:/home/tienluong/workspace/atlantis_fw/AsicFwS2/include/matrix.h **** 
 632:/home/tienluong/workspace/atlantis_fw/AsicFwS2/include/matrix.h ****     template<int M, int N, bool D>
 633:/home/tienluong/workspace/atlantis_fw/AsicFwS2/include/matrix.h ****     Matrix & operator=( const Matrix<T, M, N, D> & src )
 634:/home/tienluong/workspace/atlantis_fw/AsicFwS2/include/matrix.h ****     {
 635:/home/tienluong/workspace/atlantis_fw/AsicFwS2/include/matrix.h ****         static_assert( R == M && C == N, "matrix size mismatch!" );
 636:/home/tienluong/workspace/atlantis_fw/AsicFwS2/include/matrix.h ****         if( RowMajor == D )
 637:/home/tienluong/workspace/atlantis_fw/AsicFwS2/include/matrix.h ****         {
 638:/home/tienluong/workspace/atlantis_fw/AsicFwS2/include/matrix.h ****             // same element ordering, just copy the elements
 639:/home/tienluong/workspace/atlantis_fw/AsicFwS2/include/matrix.h ****             const T * src_ptr = src.data();
 640:/home/tienluong/workspace/atlantis_fw/AsicFwS2/include/matrix.h ****             for( int i = 0; i < kSize; ++i ) { this->_data[i] = src_ptr[i]; }
 641:/home/tienluong/workspace/atlantis_fw/AsicFwS2/include/matrix.h ****         }
 642:/home/tienluong/workspace/atlantis_fw/AsicFwS2/include/matrix.h ****         else
 643:/home/tienluong/workspace/atlantis_fw/AsicFwS2/include/matrix.h ****         {
 644:/home/tienluong/workspace/atlantis_fw/AsicFwS2/include/matrix.h ****             // different element ordering requires a transpose
 645:/home/tienluong/workspace/atlantis_fw/AsicFwS2/include/matrix.h ****             for( int i = 0; i < R; ++i )
 646:/home/tienluong/workspace/atlantis_fw/AsicFwS2/include/matrix.h ****             {
 647:/home/tienluong/workspace/atlantis_fw/AsicFwS2/include/matrix.h ****                 for( int j = 0; j < C; ++j )
 648:/home/tienluong/workspace/atlantis_fw/AsicFwS2/include/matrix.h ****                 { this->_data[Idx( i, j )] = src( i, j ); }
 649:/home/tienluong/workspace/atlantis_fw/AsicFwS2/include/matrix.h ****             }
 650:/home/tienluong/workspace/atlantis_fw/AsicFwS2/include/matrix.h ****         }
 651:/home/tienluong/workspace/atlantis_fw/AsicFwS2/include/matrix.h ****         return *this;
 652:/home/tienluong/workspace/atlantis_fw/AsicFwS2/include/matrix.h ****     }
 653:/home/tienluong/workspace/atlantis_fw/AsicFwS2/include/matrix.h **** 
 654:/home/tienluong/workspace/atlantis_fw/AsicFwS2/include/matrix.h ****     /// Input in row-major order.
 655:/home/tienluong/workspace/atlantis_fw/AsicFwS2/include/matrix.h ****     Matrix & operator=( const std::vector<T> & src )
 656:/home/tienluong/workspace/atlantis_fw/AsicFwS2/include/matrix.h ****     {
 657:/home/tienluong/workspace/atlantis_fw/AsicFwS2/include/matrix.h ****         //if( src.size() != kSize )
 658:/home/tienluong/workspace/atlantis_fw/AsicFwS2/include/matrix.h ****         //{ LT_THROW( "source data and matrix size mismatch!" ); }
 659:/home/tienluong/workspace/atlantis_fw/AsicFwS2/include/matrix.h **** 
 660:/home/tienluong/workspace/atlantis_fw/AsicFwS2/include/matrix.h ****         auto it = src.begin();
 661:/home/tienluong/workspace/atlantis_fw/AsicFwS2/include/matrix.h ****         for( int i = 0; i < R; ++i )
 662:/home/tienluong/workspace/atlantis_fw/AsicFwS2/include/matrix.h ****         {
 663:/home/tienluong/workspace/atlantis_fw/AsicFwS2/include/matrix.h ****             for( int j = 0; j < C; ++j, ++it )
 664:/home/tienluong/workspace/atlantis_fw/AsicFwS2/include/matrix.h ****             { this->_data[Idx( i, j )] = *it; }
 665:/home/tienluong/workspace/atlantis_fw/AsicFwS2/include/matrix.h ****         }
 666:/home/tienluong/workspace/atlantis_fw/AsicFwS2/include/matrix.h **** 
 667:/home/tienluong/workspace/atlantis_fw/AsicFwS2/include/matrix.h ****         return *this;
 668:/home/tienluong/workspace/atlantis_fw/AsicFwS2/include/matrix.h ****     }
 669:/home/tienluong/workspace/atlantis_fw/AsicFwS2/include/matrix.h **** 
 670:/home/tienluong/workspace/atlantis_fw/AsicFwS2/include/matrix.h ****     /// Input in row-major order.
 671:/home/tienluong/workspace/atlantis_fw/AsicFwS2/include/matrix.h ****     Matrix & operator=( const std::initializer_list<T> src )
 672:/home/tienluong/workspace/atlantis_fw/AsicFwS2/include/matrix.h ****     {
 673:/home/tienluong/workspace/atlantis_fw/AsicFwS2/include/matrix.h ****         //if( src.size() != kSize )
 674:/home/tienluong/workspace/atlantis_fw/AsicFwS2/include/matrix.h ****         //{ LT_THROW( "source data and matrix size mismatch!" ); }
 675:/home/tienluong/workspace/atlantis_fw/AsicFwS2/include/matrix.h **** 
 676:/home/tienluong/workspace/atlantis_fw/AsicFwS2/include/matrix.h ****         auto it = src.begin();
 677:/home/tienluong/workspace/atlantis_fw/AsicFwS2/include/matrix.h ****         for( int i = 0; i < R; ++i )
 678:/home/tienluong/workspace/atlantis_fw/AsicFwS2/include/matrix.h ****         {
 679:/home/tienluong/workspace/atlantis_fw/AsicFwS2/include/matrix.h ****             for( int j = 0; j < C; ++j, ++it )
 680:/home/tienluong/workspace/atlantis_fw/AsicFwS2/include/matrix.h ****             { this->_data[Idx( i, j )] = *it; }
 681:/home/tienluong/workspace/atlantis_fw/AsicFwS2/include/matrix.h ****         }
 682:/home/tienluong/workspace/atlantis_fw/AsicFwS2/include/matrix.h **** 
 683:/home/tienluong/workspace/atlantis_fw/AsicFwS2/include/matrix.h ****         return *this;
 684:/home/tienluong/workspace/atlantis_fw/AsicFwS2/include/matrix.h ****     }
 685:/home/tienluong/workspace/atlantis_fw/AsicFwS2/include/matrix.h **** 
 686:/home/tienluong/workspace/atlantis_fw/AsicFwS2/include/matrix.h ****     Matrix & operator=( T scalar )
 687:/home/tienluong/workspace/atlantis_fw/AsicFwS2/include/matrix.h ****     {
 688:/home/tienluong/workspace/atlantis_fw/AsicFwS2/include/matrix.h ****         for( int i = 0; i < kSize; ++i ) { this->_data[i] = scalar; }
 689:/home/tienluong/workspace/atlantis_fw/AsicFwS2/include/matrix.h ****         return *this;
 690:/home/tienluong/workspace/atlantis_fw/AsicFwS2/include/matrix.h ****     }
 691:/home/tienluong/workspace/atlantis_fw/AsicFwS2/include/matrix.h **** 
 692:/home/tienluong/workspace/atlantis_fw/AsicFwS2/include/matrix.h ****     template<typename U, int M, int N, bool D>
 693:/home/tienluong/workspace/atlantis_fw/AsicFwS2/include/matrix.h ****     bool operator==( const Matrix<U, M, N, D> & mat ) const
 694:/home/tienluong/workspace/atlantis_fw/AsicFwS2/include/matrix.h ****     {
 695:/home/tienluong/workspace/atlantis_fw/AsicFwS2/include/matrix.h ****         static_assert( R == M && C == N, "matrix size mismatch!" );
 696:/home/tienluong/workspace/atlantis_fw/AsicFwS2/include/matrix.h ****         for( int i = 0; i < R; ++i )
 697:/home/tienluong/workspace/atlantis_fw/AsicFwS2/include/matrix.h ****         {
 698:/home/tienluong/workspace/atlantis_fw/AsicFwS2/include/matrix.h ****             for( int j = 0; j < C; ++j )
 699:/home/tienluong/workspace/atlantis_fw/AsicFwS2/include/matrix.h ****             { if( this->_data[Idx( i, j )] != mat( i, j ) ) { return false; } }
 700:/home/tienluong/workspace/atlantis_fw/AsicFwS2/include/matrix.h ****         }
 701:/home/tienluong/workspace/atlantis_fw/AsicFwS2/include/matrix.h ****         return true;
 702:/home/tienluong/workspace/atlantis_fw/AsicFwS2/include/matrix.h ****     }
 703:/home/tienluong/workspace/atlantis_fw/AsicFwS2/include/matrix.h **** 
 704:/home/tienluong/workspace/atlantis_fw/AsicFwS2/include/matrix.h ****     template<typename U, int M, int N, bool D>
 705:/home/tienluong/workspace/atlantis_fw/AsicFwS2/include/matrix.h ****     bool operator!=( const Matrix<U, M, N, D> & mat ) const
 706:/home/tienluong/workspace/atlantis_fw/AsicFwS2/include/matrix.h ****     { return !( *this == mat ); }
 707:/home/tienluong/workspace/atlantis_fw/AsicFwS2/include/matrix.h **** 
 708:/home/tienluong/workspace/atlantis_fw/AsicFwS2/include/matrix.h ****     const T * data() const { return this->_data; }
 709:/home/tienluong/workspace/atlantis_fw/AsicFwS2/include/matrix.h ****     T * data() { return this->_data; }
 710:/home/tienluong/workspace/atlantis_fw/AsicFwS2/include/matrix.h **** 
 711:/home/tienluong/workspace/atlantis_fw/AsicFwS2/include/matrix.h ****     T & operator()( int r, int c ) { return this->_data[Idx( r, c )]; }
 712:/home/tienluong/workspace/atlantis_fw/AsicFwS2/include/matrix.h ****     const T & operator()( int r, int c ) const { return this->_data[Idx( r, c )]; }
 713:/home/tienluong/workspace/atlantis_fw/AsicFwS2/include/matrix.h **** 
 714:/home/tienluong/workspace/atlantis_fw/AsicFwS2/include/matrix.h ****     template<int M, int N, bool D>
 715:/home/tienluong/workspace/atlantis_fw/AsicFwS2/include/matrix.h ****     Matrix<T, R, N> operator*( const Matrix<T, M, N, D> & mat ) const
 716:/home/tienluong/workspace/atlantis_fw/AsicFwS2/include/matrix.h ****     {
 717:/home/tienluong/workspace/atlantis_fw/AsicFwS2/include/matrix.h ****         static_assert( C == M, "invalid matrix product!" );
 718:/home/tienluong/workspace/atlantis_fw/AsicFwS2/include/matrix.h ****         Matrix<T, R, N> rval;
 719:/home/tienluong/workspace/atlantis_fw/AsicFwS2/include/matrix.h **** 
 720:/home/tienluong/workspace/atlantis_fw/AsicFwS2/include/matrix.h ****         // XXX: is this code actually more SIMD-friendly than a naive implementation?
 721:/home/tienluong/workspace/atlantis_fw/AsicFwS2/include/matrix.h ****         for( int i = 0; i < R; ++i )
 722:/home/tienluong/workspace/atlantis_fw/AsicFwS2/include/matrix.h ****         {
 723:/home/tienluong/workspace/atlantis_fw/AsicFwS2/include/matrix.h ****             // set 1st row
 724:/home/tienluong/workspace/atlantis_fw/AsicFwS2/include/matrix.h ****             for( int j = 0; j < N; ++j )
 725:/home/tienluong/workspace/atlantis_fw/AsicFwS2/include/matrix.h ****             { rval( i, j ) = this->_data[Idx( i, 0 )] * mat( 0, j ); }
 726:/home/tienluong/workspace/atlantis_fw/AsicFwS2/include/matrix.h ****             // accum n-th row
 727:/home/tienluong/workspace/atlantis_fw/AsicFwS2/include/matrix.h ****             for( int k = 1; k < M; ++k )
 728:/home/tienluong/workspace/atlantis_fw/AsicFwS2/include/matrix.h ****             {
 729:/home/tienluong/workspace/atlantis_fw/AsicFwS2/include/matrix.h ****                 for( int j = 0; j < N; ++j )
 730:/home/tienluong/workspace/atlantis_fw/AsicFwS2/include/matrix.h ****                 { rval( i, j ) += this->_data[Idx( i, k )] * mat( k, j ); }
 731:/home/tienluong/workspace/atlantis_fw/AsicFwS2/include/matrix.h ****             }
 732:/home/tienluong/workspace/atlantis_fw/AsicFwS2/include/matrix.h ****         }
 733:/home/tienluong/workspace/atlantis_fw/AsicFwS2/include/matrix.h ****         return rval;
 734:/home/tienluong/workspace/atlantis_fw/AsicFwS2/include/matrix.h ****     }
 735:/home/tienluong/workspace/atlantis_fw/AsicFwS2/include/matrix.h **** 
 736:/home/tienluong/workspace/atlantis_fw/AsicFwS2/include/matrix.h ****     template<int M, int N, bool D>
 737:/home/tienluong/workspace/atlantis_fw/AsicFwS2/include/matrix.h ****     Matrix & operator *=( const Matrix<T, M, N, D> & mat )
 738:/home/tienluong/workspace/atlantis_fw/AsicFwS2/include/matrix.h ****     {
 739:/home/tienluong/workspace/atlantis_fw/AsicFwS2/include/matrix.h ****         *this = *this * mat;
 740:/home/tienluong/workspace/atlantis_fw/AsicFwS2/include/matrix.h ****         return *this;
 741:/home/tienluong/workspace/atlantis_fw/AsicFwS2/include/matrix.h ****     }
 742:/home/tienluong/workspace/atlantis_fw/AsicFwS2/include/matrix.h **** 
 743:/home/tienluong/workspace/atlantis_fw/AsicFwS2/include/matrix.h ****     template<int M, int N, bool D>
 744:/home/tienluong/workspace/atlantis_fw/AsicFwS2/include/matrix.h ****     Matrix & operator +=( const Matrix<T, M, N, D> & mat )
 745:/home/tienluong/workspace/atlantis_fw/AsicFwS2/include/matrix.h ****     {
 746:/home/tienluong/workspace/atlantis_fw/AsicFwS2/include/matrix.h ****         static_assert( R == M && C == N, "matrix size mismatch!" );
 747:/home/tienluong/workspace/atlantis_fw/AsicFwS2/include/matrix.h ****         for( int i = 0; i < R; ++i )
 748:/home/tienluong/workspace/atlantis_fw/AsicFwS2/include/matrix.h ****         {
 749:/home/tienluong/workspace/atlantis_fw/AsicFwS2/include/matrix.h ****             for( int j = 0; j < C; ++j )
 750:/home/tienluong/workspace/atlantis_fw/AsicFwS2/include/matrix.h ****             { this->_data[Idx( i, j )] += mat( i, j ); }
 751:/home/tienluong/workspace/atlantis_fw/AsicFwS2/include/matrix.h ****         }
 752:/home/tienluong/workspace/atlantis_fw/AsicFwS2/include/matrix.h ****         return *this;
 753:/home/tienluong/workspace/atlantis_fw/AsicFwS2/include/matrix.h ****     }
 754:/home/tienluong/workspace/atlantis_fw/AsicFwS2/include/matrix.h **** 
 755:/home/tienluong/workspace/atlantis_fw/AsicFwS2/include/matrix.h ****     template<int M, int N, bool D>
 756:/home/tienluong/workspace/atlantis_fw/AsicFwS2/include/matrix.h ****     Matrix & operator -=( const Matrix<T, M, N, D> & mat )
 757:/home/tienluong/workspace/atlantis_fw/AsicFwS2/include/matrix.h ****     {
 758:/home/tienluong/workspace/atlantis_fw/AsicFwS2/include/matrix.h ****         static_assert( R == M && C == N, "matrix size mismatch!" );
 759:/home/tienluong/workspace/atlantis_fw/AsicFwS2/include/matrix.h ****         for( int i = 0; i < R; ++i )
 760:/home/tienluong/workspace/atlantis_fw/AsicFwS2/include/matrix.h ****         {
 761:/home/tienluong/workspace/atlantis_fw/AsicFwS2/include/matrix.h ****             for( int j = 0; j < C; ++j )
 762:/home/tienluong/workspace/atlantis_fw/AsicFwS2/include/matrix.h ****             { this->_data[Idx( i, j )] -= mat( i, j ); }
 763:/home/tienluong/workspace/atlantis_fw/AsicFwS2/include/matrix.h ****         }
 764:/home/tienluong/workspace/atlantis_fw/AsicFwS2/include/matrix.h ****         return *this;
 765:/home/tienluong/workspace/atlantis_fw/AsicFwS2/include/matrix.h ****     }
 766:/home/tienluong/workspace/atlantis_fw/AsicFwS2/include/matrix.h **** 
 767:/home/tienluong/workspace/atlantis_fw/AsicFwS2/include/matrix.h ****     Matrix & operator *=( T scalar )
 768:/home/tienluong/workspace/atlantis_fw/AsicFwS2/include/matrix.h ****     {
 769:/home/tienluong/workspace/atlantis_fw/AsicFwS2/include/matrix.h ****         for( int i = 0; i < kSize; ++i ) { this->_data[i] *= scalar; }
 770:/home/tienluong/workspace/atlantis_fw/AsicFwS2/include/matrix.h ****         return *this;
 771:/home/tienluong/workspace/atlantis_fw/AsicFwS2/include/matrix.h ****     }
 772:/home/tienluong/workspace/atlantis_fw/AsicFwS2/include/matrix.h **** 
 773:/home/tienluong/workspace/atlantis_fw/AsicFwS2/include/matrix.h ****     Matrix & operator +=( T scalar )
 774:/home/tienluong/workspace/atlantis_fw/AsicFwS2/include/matrix.h ****     {
 775:/home/tienluong/workspace/atlantis_fw/AsicFwS2/include/matrix.h ****         for( int i = 0; i < kSize; ++i ) { this->_data[i] += scalar; }
 776:/home/tienluong/workspace/atlantis_fw/AsicFwS2/include/matrix.h ****         return *this;
 777:/home/tienluong/workspace/atlantis_fw/AsicFwS2/include/matrix.h ****     }
 778:/home/tienluong/workspace/atlantis_fw/AsicFwS2/include/matrix.h **** 
 779:/home/tienluong/workspace/atlantis_fw/AsicFwS2/include/matrix.h ****     Matrix & operator /=( T scalar )
 780:/home/tienluong/workspace/atlantis_fw/AsicFwS2/include/matrix.h ****     {
 781:/home/tienluong/workspace/atlantis_fw/AsicFwS2/include/matrix.h ****         scalar = 1.0f / scalar;
 782:/home/tienluong/workspace/atlantis_fw/AsicFwS2/include/matrix.h ****         for( int i = 0; i < kSize; ++i ) { this->_data[i] *= scalar; }
 783:/home/tienluong/workspace/atlantis_fw/AsicFwS2/include/matrix.h ****         return *this;
 784:/home/tienluong/workspace/atlantis_fw/AsicFwS2/include/matrix.h ****     }
 785:/home/tienluong/workspace/atlantis_fw/AsicFwS2/include/matrix.h **** 
 786:/home/tienluong/workspace/atlantis_fw/AsicFwS2/include/matrix.h ****     Matrix & operator -=( T scalar )
 787:/home/tienluong/workspace/atlantis_fw/AsicFwS2/include/matrix.h ****     {
 788:/home/tienluong/workspace/atlantis_fw/AsicFwS2/include/matrix.h ****         for( int i = 0; i < kSize; ++i ) { this->_data[i] -= scalar; }
 789:/home/tienluong/workspace/atlantis_fw/AsicFwS2/include/matrix.h ****         return *this;
 790:/home/tienluong/workspace/atlantis_fw/AsicFwS2/include/matrix.h ****     }
 791:/home/tienluong/workspace/atlantis_fw/AsicFwS2/include/matrix.h **** 
 792:/home/tienluong/workspace/atlantis_fw/AsicFwS2/include/matrix.h ****     template<int M, int N, bool D>
 793:/home/tienluong/workspace/atlantis_fw/AsicFwS2/include/matrix.h ****     Matrix operator+( const Matrix<T, M, N, D> & mat ) const
 794:/home/tienluong/workspace/atlantis_fw/AsicFwS2/include/matrix.h ****     { Matrix rval{*this}; rval += mat; return rval; }
 795:/home/tienluong/workspace/atlantis_fw/AsicFwS2/include/matrix.h **** 
 796:/home/tienluong/workspace/atlantis_fw/AsicFwS2/include/matrix.h ****     template<int M, int N, bool D>
 797:/home/tienluong/workspace/atlantis_fw/AsicFwS2/include/matrix.h ****     Matrix operator-( const Matrix<T, M, N, D> & mat ) const
 798:/home/tienluong/workspace/atlantis_fw/AsicFwS2/include/matrix.h ****     { Matrix rval{*this}; rval -= mat; return rval; }
 799:/home/tienluong/workspace/atlantis_fw/AsicFwS2/include/matrix.h **** 
 800:/home/tienluong/workspace/atlantis_fw/AsicFwS2/include/matrix.h ****     Matrix operator*( T scalar ) const
 801:/home/tienluong/workspace/atlantis_fw/AsicFwS2/include/matrix.h ****     { Matrix rval{*this}; rval *= scalar; return rval; }
 802:/home/tienluong/workspace/atlantis_fw/AsicFwS2/include/matrix.h **** 
 803:/home/tienluong/workspace/atlantis_fw/AsicFwS2/include/matrix.h ****     Matrix operator+( T scalar ) const
 804:/home/tienluong/workspace/atlantis_fw/AsicFwS2/include/matrix.h ****     { Matrix rval{*this}; rval += scalar; return rval; }
 805:/home/tienluong/workspace/atlantis_fw/AsicFwS2/include/matrix.h **** 
 806:/home/tienluong/workspace/atlantis_fw/AsicFwS2/include/matrix.h ****     Matrix operator-( T scalar ) const
 807:/home/tienluong/workspace/atlantis_fw/AsicFwS2/include/matrix.h ****     { Matrix rval{*this}; rval -= scalar; return rval; }
 808:/home/tienluong/workspace/atlantis_fw/AsicFwS2/include/matrix.h **** 
 809:/home/tienluong/workspace/atlantis_fw/AsicFwS2/include/matrix.h ****     Matrix operator/( T scalar ) const
 810:/home/tienluong/workspace/atlantis_fw/AsicFwS2/include/matrix.h ****     { Matrix rval{*this}; rval /= scalar; return rval; }
 811:/home/tienluong/workspace/atlantis_fw/AsicFwS2/include/matrix.h **** 
 812:/home/tienluong/workspace/atlantis_fw/AsicFwS2/include/matrix.h ****     Matrix<T, 1, C> row( int i ) const
 813:/home/tienluong/workspace/atlantis_fw/AsicFwS2/include/matrix.h ****     {
 814:/home/tienluong/workspace/atlantis_fw/AsicFwS2/include/matrix.h ****         Matrix<T, 1, C> rval;
 815:/home/tienluong/workspace/atlantis_fw/AsicFwS2/include/matrix.h ****         for( int j = 0; j < C; ++j ) { rval( 0, j ) = this->_data[Idx( i, j )]; }
 816:/home/tienluong/workspace/atlantis_fw/AsicFwS2/include/matrix.h ****         return rval;
 817:/home/tienluong/workspace/atlantis_fw/AsicFwS2/include/matrix.h ****     }
 818:/home/tienluong/workspace/atlantis_fw/AsicFwS2/include/matrix.h **** 
 819:/home/tienluong/workspace/atlantis_fw/AsicFwS2/include/matrix.h ****     Matrix<T, 1, C> column( int i ) const
 820:/home/tienluong/workspace/atlantis_fw/AsicFwS2/include/matrix.h ****     {
 821:/home/tienluong/workspace/atlantis_fw/AsicFwS2/include/matrix.h ****         Matrix<T, R, 1> rval;
 822:/home/tienluong/workspace/atlantis_fw/AsicFwS2/include/matrix.h ****         for( int j = 0; j < R; ++j ) { rval( j, 0 ) = this->_data[Idx( j, i )]; }
 823:/home/tienluong/workspace/atlantis_fw/AsicFwS2/include/matrix.h ****         return rval;
 824:/home/tienluong/workspace/atlantis_fw/AsicFwS2/include/matrix.h ****     }
 825:/home/tienluong/workspace/atlantis_fw/AsicFwS2/include/matrix.h **** 
 826:/home/tienluong/workspace/atlantis_fw/AsicFwS2/include/matrix.h ****     Matrix & swapRow( int i, int j )
 827:/home/tienluong/workspace/atlantis_fw/AsicFwS2/include/matrix.h ****     {
 828:/home/tienluong/workspace/atlantis_fw/AsicFwS2/include/matrix.h ****         using std::swap;
 829:/home/tienluong/workspace/atlantis_fw/AsicFwS2/include/matrix.h ****         for( int k = 0; k < C; ++k )
 830:/home/tienluong/workspace/atlantis_fw/AsicFwS2/include/matrix.h ****         { swap( this->_data[Idx( i, k )], this->_data[Idx( j, k )] ); }
 831:/home/tienluong/workspace/atlantis_fw/AsicFwS2/include/matrix.h ****         return *this;
 832:/home/tienluong/workspace/atlantis_fw/AsicFwS2/include/matrix.h ****     }
 833:/home/tienluong/workspace/atlantis_fw/AsicFwS2/include/matrix.h **** 
 834:/home/tienluong/workspace/atlantis_fw/AsicFwS2/include/matrix.h ****     Matrix & swapColumn( int i, int j )
 835:/home/tienluong/workspace/atlantis_fw/AsicFwS2/include/matrix.h ****     {
 836:/home/tienluong/workspace/atlantis_fw/AsicFwS2/include/matrix.h ****         using std::swap;
 837:/home/tienluong/workspace/atlantis_fw/AsicFwS2/include/matrix.h ****         for( int k = 0; k < R; ++k )
 838:/home/tienluong/workspace/atlantis_fw/AsicFwS2/include/matrix.h ****         { swap( this->_data[Idx( k, i )], this->_data[Idx( k, j )] ); }
 839:/home/tienluong/workspace/atlantis_fw/AsicFwS2/include/matrix.h ****         return *this;
 840:/home/tienluong/workspace/atlantis_fw/AsicFwS2/include/matrix.h ****     }
 841:/home/tienluong/workspace/atlantis_fw/AsicFwS2/include/matrix.h **** 
 842:/home/tienluong/workspace/atlantis_fw/AsicFwS2/include/matrix.h ****     T sum() const
 843:/home/tienluong/workspace/atlantis_fw/AsicFwS2/include/matrix.h ****     {
 844:/home/tienluong/workspace/atlantis_fw/AsicFwS2/include/matrix.h ****         T sum = this->_data[0];
 845:/home/tienluong/workspace/atlantis_fw/AsicFwS2/include/matrix.h ****         for( int j = 1; j < kSize; ++j ) { sum += this->_data[j]; }
 846:/home/tienluong/workspace/atlantis_fw/AsicFwS2/include/matrix.h ****         return sum;
 847:/home/tienluong/workspace/atlantis_fw/AsicFwS2/include/matrix.h ****     }
 848:/home/tienluong/workspace/atlantis_fw/AsicFwS2/include/matrix.h **** 
 849:/home/tienluong/workspace/atlantis_fw/AsicFwS2/include/matrix.h ****     Matrix & setIdentity()
 850:/home/tienluong/workspace/atlantis_fw/AsicFwS2/include/matrix.h ****     {
 851:/home/tienluong/workspace/atlantis_fw/AsicFwS2/include/matrix.h ****         for( int i = 0; i < R; ++i )
 852:/home/tienluong/workspace/atlantis_fw/AsicFwS2/include/matrix.h ****         {
 853:/home/tienluong/workspace/atlantis_fw/AsicFwS2/include/matrix.h ****             for( int j = 0; j < C; ++j )
 854:/home/tienluong/workspace/atlantis_fw/AsicFwS2/include/matrix.h ****             { this->_data[Idx( i, j )] = i == j ? T{1} : T{0}; }
 855:/home/tienluong/workspace/atlantis_fw/AsicFwS2/include/matrix.h ****         }
 856:/home/tienluong/workspace/atlantis_fw/AsicFwS2/include/matrix.h ****         return *this;
 857:/home/tienluong/workspace/atlantis_fw/AsicFwS2/include/matrix.h ****     }
 858:/home/tienluong/workspace/atlantis_fw/AsicFwS2/include/matrix.h **** 
 859:/home/tienluong/workspace/atlantis_fw/AsicFwS2/include/matrix.h ****     const Matrix < T, C, R, !RowMajor > & transpose() const
 860:/home/tienluong/workspace/atlantis_fw/AsicFwS2/include/matrix.h ****     {
 861:/home/tienluong/workspace/atlantis_fw/AsicFwS2/include/matrix.h ****         return *reinterpret_cast < const Matrix < T, C, R, !RowMajor > * >( this );
 862:/home/tienluong/workspace/atlantis_fw/AsicFwS2/include/matrix.h ****     }
 863:/home/tienluong/workspace/atlantis_fw/AsicFwS2/include/matrix.h **** 
 864:/home/tienluong/workspace/atlantis_fw/AsicFwS2/include/matrix.h ****     // friend std::ostream & operator<<( std::ostream & os, const Matrix & m )
 865:/home/tienluong/workspace/atlantis_fw/AsicFwS2/include/matrix.h ****     // {
 866:/home/tienluong/workspace/atlantis_fw/AsicFwS2/include/matrix.h ****     //     std::stringstream sb;
 867:/home/tienluong/workspace/atlantis_fw/AsicFwS2/include/matrix.h ****     //     sb << std::endl << "[ ";
 868:/home/tienluong/workspace/atlantis_fw/AsicFwS2/include/matrix.h ****     //     for( int i = 0; i < R; ++i )
 869:/home/tienluong/workspace/atlantis_fw/AsicFwS2/include/matrix.h ****     //     {
 870:/home/tienluong/workspace/atlantis_fw/AsicFwS2/include/matrix.h ****     //         for( int j = 0; j < C; ++j ) { sb << m( i, j ) << " "; }
 871:/home/tienluong/workspace/atlantis_fw/AsicFwS2/include/matrix.h ****     //         if( i != R - 1 ) { sb << std::endl; }
 872:/home/tienluong/workspace/atlantis_fw/AsicFwS2/include/matrix.h ****     //     }
 873:/home/tienluong/workspace/atlantis_fw/AsicFwS2/include/matrix.h ****     //     sb << "]" << std::endl;
 874:/home/tienluong/workspace/atlantis_fw/AsicFwS2/include/matrix.h ****     //     return os << sb.rdbuf();
 875:/home/tienluong/workspace/atlantis_fw/AsicFwS2/include/matrix.h ****     // }
 876:/home/tienluong/workspace/atlantis_fw/AsicFwS2/include/matrix.h **** 
 877:/home/tienluong/workspace/atlantis_fw/AsicFwS2/include/matrix.h ****     static constexpr bool IsRowMajor() { return RowMajor; }
 878:/home/tienluong/workspace/atlantis_fw/AsicFwS2/include/matrix.h **** 
 879:/home/tienluong/workspace/atlantis_fw/AsicFwS2/include/matrix.h ****     static Matrix Identity()
 880:/home/tienluong/workspace/atlantis_fw/AsicFwS2/include/matrix.h ****     {
 881:/home/tienluong/workspace/atlantis_fw/AsicFwS2/include/matrix.h ****         Matrix rval;
 882:/home/tienluong/workspace/atlantis_fw/AsicFwS2/include/matrix.h ****         return rval.setIdentity();
 883:/home/tienluong/workspace/atlantis_fw/AsicFwS2/include/matrix.h ****     }
 884:/home/tienluong/workspace/atlantis_fw/AsicFwS2/include/matrix.h **** };
 885:/home/tienluong/workspace/atlantis_fw/AsicFwS2/include/matrix.h **** 
 886:/home/tienluong/workspace/atlantis_fw/AsicFwS2/include/matrix.h **** template<typename T, int R, int C, bool D>
 887:/home/tienluong/workspace/atlantis_fw/AsicFwS2/include/matrix.h **** Matrix < T, C, R, !D > transpose( const Matrix<T, R, C, D> & mat )
 888:/home/tienluong/workspace/atlantis_fw/AsicFwS2/include/matrix.h **** {
 889:/home/tienluong/workspace/atlantis_fw/AsicFwS2/include/matrix.h ****     // simply copy the data and flip the matrix ordering
 890:/home/tienluong/workspace/atlantis_fw/AsicFwS2/include/matrix.h ****     Matrix < T, C, R, !D > rval;
 891:/home/tienluong/workspace/atlantis_fw/AsicFwS2/include/matrix.h ****     T * dst = rval.data();
 892:/home/tienluong/workspace/atlantis_fw/AsicFwS2/include/matrix.h ****     const T * src = mat.data();
 893:/home/tienluong/workspace/atlantis_fw/AsicFwS2/include/matrix.h ****     for( int i = 0; i < R * C; ++i ) { dst[i] = src[i]; }
 894:/home/tienluong/workspace/atlantis_fw/AsicFwS2/include/matrix.h ****     return rval;
 895:/home/tienluong/workspace/atlantis_fw/AsicFwS2/include/matrix.h **** }
 896:/home/tienluong/workspace/atlantis_fw/AsicFwS2/include/matrix.h **** 
 897:/home/tienluong/workspace/atlantis_fw/AsicFwS2/include/matrix.h **** template<typename T, int N, bool D>
 898:/home/tienluong/workspace/atlantis_fw/AsicFwS2/include/matrix.h **** Matrix<T, N, N, D> inverse( const Matrix<T, N, N, D> & mat );
 899:/home/tienluong/workspace/atlantis_fw/AsicFwS2/include/matrix.h **** 
 900:/home/tienluong/workspace/atlantis_fw/AsicFwS2/include/matrix.h **** template<typename T, int N, bool D>
 901:/home/tienluong/workspace/atlantis_fw/AsicFwS2/include/matrix.h **** T determinant( const Matrix<T, N, N, D> & mat );
 902:/home/tienluong/workspace/atlantis_fw/AsicFwS2/include/matrix.h **** 
 903:/home/tienluong/workspace/atlantis_fw/AsicFwS2/include/matrix.h **** // scalar-matrix operators
 904:/home/tienluong/workspace/atlantis_fw/AsicFwS2/include/matrix.h **** template<typename T, typename U, int R, int C, bool D>
 905:/home/tienluong/workspace/atlantis_fw/AsicFwS2/include/matrix.h **** typename std::enable_if<std::is_arithmetic<T>::value, Matrix<U, R, C, D> >::type
 906:/home/tienluong/workspace/atlantis_fw/AsicFwS2/include/matrix.h **** operator+( T a, const Matrix<U, R, C, D> & b ) { return b + a; }
 907:/home/tienluong/workspace/atlantis_fw/AsicFwS2/include/matrix.h **** 
 908:/home/tienluong/workspace/atlantis_fw/AsicFwS2/include/matrix.h **** template<typename T, typename U, int R, int C, bool D>
 909:/home/tienluong/workspace/atlantis_fw/AsicFwS2/include/matrix.h **** typename std::enable_if<std::is_arithmetic<T>::value, Matrix<U, R, C, D> >::type
 910:/home/tienluong/workspace/atlantis_fw/AsicFwS2/include/matrix.h **** operator-( T a, const Matrix<U, R, C, D> & b )
 911:/home/tienluong/workspace/atlantis_fw/AsicFwS2/include/matrix.h **** {
 912:/home/tienluong/workspace/atlantis_fw/AsicFwS2/include/matrix.h ****     Matrix<U, R, C, D> rval;
 913:/home/tienluong/workspace/atlantis_fw/AsicFwS2/include/matrix.h ****     for( int i = 0; i < R; ++i )
 914:/home/tienluong/workspace/atlantis_fw/AsicFwS2/include/matrix.h ****     { for( int j = 0; j < C; ++j ) { rval( i, j ) = U( a ) - b( i, j ); } }
 915:/home/tienluong/workspace/atlantis_fw/AsicFwS2/include/matrix.h ****     return rval;
 916:/home/tienluong/workspace/atlantis_fw/AsicFwS2/include/matrix.h **** }
 917:/home/tienluong/workspace/atlantis_fw/AsicFwS2/include/matrix.h **** 
 918:/home/tienluong/workspace/atlantis_fw/AsicFwS2/include/matrix.h **** template<typename T, typename U, int R, int C, bool D>
 919:/home/tienluong/workspace/atlantis_fw/AsicFwS2/include/matrix.h **** typename std::enable_if<std::is_arithmetic<T>::value, Matrix<U, R, C, D> >::type
 920:/home/tienluong/workspace/atlantis_fw/AsicFwS2/include/matrix.h **** operator*( T a, const Matrix<U, R, C, D> & b ) { return b * a; }
 921:/home/tienluong/workspace/atlantis_fw/AsicFwS2/include/matrix.h **** 
 922:/home/tienluong/workspace/atlantis_fw/AsicFwS2/include/matrix.h **** using Matrix2x2f = Matrix<float, 2, 2>;
 923:/home/tienluong/workspace/atlantis_fw/AsicFwS2/include/matrix.h **** using Matrix3x3f = Matrix<float, 3, 3>;
 924:/home/tienluong/workspace/atlantis_fw/AsicFwS2/include/matrix.h **** using Matrix4x4f = Matrix<float, 4, 4>;
 925:/home/tienluong/workspace/atlantis_fw/AsicFwS2/include/matrix.h **** using Matrix2x2d = Matrix<double, 2, 2>;
 926:/home/tienluong/workspace/atlantis_fw/AsicFwS2/include/matrix.h **** using Matrix3x3d = Matrix<double, 3, 3>;
 927:/home/tienluong/workspace/atlantis_fw/AsicFwS2/include/matrix.h **** using Matrix4x4d = Matrix<double, 4, 4>;
 928:/home/tienluong/workspace/atlantis_fw/AsicFwS2/include/matrix.h **** 
 929:/home/tienluong/workspace/atlantis_fw/AsicFwS2/include/matrix.h **** // optimized implementation of matrix-vector operations
 930:/home/tienluong/workspace/atlantis_fw/AsicFwS2/include/matrix.h **** // mind the order of color channels in memory is BGRA, i.e.,
 931:/home/tienluong/workspace/atlantis_fw/AsicFwS2/include/matrix.h **** // blue channel corresponds to the first matrix dimension!
 932:/home/tienluong/workspace/atlantis_fw/AsicFwS2/include/matrix.h **** 
 933:/home/tienluong/workspace/atlantis_fw/AsicFwS2/include/matrix.h **** template<bool D>
 934:/home/tienluong/workspace/atlantis_fw/AsicFwS2/include/matrix.h **** Vec4f operator*( const Matrix<float, 4, 4, D> & mat, const Vec4f & vec )
 935:/home/tienluong/workspace/atlantis_fw/AsicFwS2/include/matrix.h **** {
 936:/home/tienluong/workspace/atlantis_fw/AsicFwS2/include/matrix.h ****     return
 937:/home/tienluong/workspace/atlantis_fw/AsicFwS2/include/matrix.h ****     {
 938:/home/tienluong/workspace/atlantis_fw/AsicFwS2/include/matrix.h ****         mat( 0, 0 ) * vec.x() + mat( 0, 1 ) * vec.y() + mat( 0, 2 ) * vec.z() + mat( 0, 3 ) * vec.a
 939:/home/tienluong/workspace/atlantis_fw/AsicFwS2/include/matrix.h ****         mat( 1, 0 ) * vec.x() + mat( 1, 1 ) * vec.y() + mat( 1, 2 ) * vec.z() + mat( 1, 3 ) * vec.a
 940:/home/tienluong/workspace/atlantis_fw/AsicFwS2/include/matrix.h ****         mat( 2, 0 ) * vec.x() + mat( 2, 1 ) * vec.y() + mat( 2, 2 ) * vec.z() + mat( 2, 3 ) * vec.a
 941:/home/tienluong/workspace/atlantis_fw/AsicFwS2/include/matrix.h ****         mat( 3, 0 ) * vec.x() + mat( 3, 1 ) * vec.y() + mat( 3, 2 ) * vec.z() + mat( 3, 3 ) * vec.a
 942:/home/tienluong/workspace/atlantis_fw/AsicFwS2/include/matrix.h ****     };
 943:/home/tienluong/workspace/atlantis_fw/AsicFwS2/include/matrix.h **** }
 944:/home/tienluong/workspace/atlantis_fw/AsicFwS2/include/matrix.h **** 
 945:/home/tienluong/workspace/atlantis_fw/AsicFwS2/include/matrix.h **** template<bool D>
 946:/home/tienluong/workspace/atlantis_fw/AsicFwS2/include/matrix.h **** Vec4f operator*( const Vec4f & vec, const Matrix<float, 4, 4, D> & mat )
 947:/home/tienluong/workspace/atlantis_fw/AsicFwS2/include/matrix.h **** {
 948:/home/tienluong/workspace/atlantis_fw/AsicFwS2/include/matrix.h ****     return
 949:/home/tienluong/workspace/atlantis_fw/AsicFwS2/include/matrix.h ****     {
 950:/home/tienluong/workspace/atlantis_fw/AsicFwS2/include/matrix.h ****         mat( 0, 0 ) * vec.x() + mat( 1, 0 ) * vec.y() + mat( 2, 0 ) * vec.z() + mat( 3, 0 ) * vec.a
 951:/home/tienluong/workspace/atlantis_fw/AsicFwS2/include/matrix.h ****         mat( 0, 1 ) * vec.x() + mat( 1, 1 ) * vec.y() + mat( 2, 1 ) * vec.z() + mat( 3, 1 ) * vec.a
 952:/home/tienluong/workspace/atlantis_fw/AsicFwS2/include/matrix.h ****         mat( 0, 2 ) * vec.x() + mat( 1, 2 ) * vec.y() + mat( 2, 2 ) * vec.z() + mat( 3, 2 ) * vec.a
 953:/home/tienluong/workspace/atlantis_fw/AsicFwS2/include/matrix.h ****         mat( 0, 3 ) * vec.x() + mat( 1, 3 ) * vec.y() + mat( 2, 3 ) * vec.z() + mat( 3, 3 ) * vec.a
 954:/home/tienluong/workspace/atlantis_fw/AsicFwS2/include/matrix.h ****     };
 955:/home/tienluong/workspace/atlantis_fw/AsicFwS2/include/matrix.h **** }
 956:/home/tienluong/workspace/atlantis_fw/AsicFwS2/include/matrix.h **** 
 957:/home/tienluong/workspace/atlantis_fw/AsicFwS2/include/matrix.h **** // Vec3 left- and right-hand side multiplication operator
 958:/home/tienluong/workspace/atlantis_fw/AsicFwS2/include/matrix.h **** template<typename T, typename U, bool D>
 959:/home/tienluong/workspace/atlantis_fw/AsicFwS2/include/matrix.h **** Vec3<typename std::common_type<T, U>::type> operator*( const Matrix<T, 3, 3, D> & mat, const Vec3<U
 960:/home/tienluong/workspace/atlantis_fw/AsicFwS2/include/matrix.h **** {
 961:/home/tienluong/workspace/atlantis_fw/AsicFwS2/include/matrix.h ****     return
 962:/home/tienluong/workspace/atlantis_fw/AsicFwS2/include/matrix.h ****     {
 963:/home/tienluong/workspace/atlantis_fw/AsicFwS2/include/matrix.h ****         mat( 0, 0 ) * vec.x() + mat( 0, 1 ) * vec.y() + mat( 0, 2 ) * vec.z(),
 964:/home/tienluong/workspace/atlantis_fw/AsicFwS2/include/matrix.h ****         mat( 1, 0 ) * vec.x() + mat( 1, 1 ) * vec.y() + mat( 1, 2 ) * vec.z(),
 965:/home/tienluong/workspace/atlantis_fw/AsicFwS2/include/matrix.h ****         mat( 2, 0 ) * vec.x() + mat( 2, 1 ) * vec.y() + mat( 2, 2 ) * vec.z()
 966:/home/tienluong/workspace/atlantis_fw/AsicFwS2/include/matrix.h ****     };
 967:/home/tienluong/workspace/atlantis_fw/AsicFwS2/include/matrix.h **** }
 968:/home/tienluong/workspace/atlantis_fw/AsicFwS2/include/matrix.h **** 
 969:/home/tienluong/workspace/atlantis_fw/AsicFwS2/include/matrix.h **** template<typename T, typename U, bool D>
 970:/home/tienluong/workspace/atlantis_fw/AsicFwS2/include/matrix.h **** Vec3<typename std::common_type<T, U>::type> operator*( const Vec3<T> & vec, const Matrix<U, 3, 3, D
 971:/home/tienluong/workspace/atlantis_fw/AsicFwS2/include/matrix.h **** {
 972:/home/tienluong/workspace/atlantis_fw/AsicFwS2/include/matrix.h ****     return
 973:/home/tienluong/workspace/atlantis_fw/AsicFwS2/include/matrix.h ****     {
 974:/home/tienluong/workspace/atlantis_fw/AsicFwS2/include/matrix.h ****         mat( 0, 0 ) * vec.x() + mat( 1, 0 ) * vec.y() + mat( 2, 0 ) * vec.z(),
 975:/home/tienluong/workspace/atlantis_fw/AsicFwS2/include/matrix.h ****         mat( 0, 1 ) * vec.x() + mat( 1, 1 ) * vec.y() + mat( 2, 1 ) * vec.z(),
 976:/home/tienluong/workspace/atlantis_fw/AsicFwS2/include/matrix.h ****         mat( 0, 2 ) * vec.x() + mat( 1, 2 ) * vec.y() + mat( 2, 2 ) * vec.z()
 977:/home/tienluong/workspace/atlantis_fw/AsicFwS2/include/matrix.h ****     };
 978:/home/tienluong/workspace/atlantis_fw/AsicFwS2/include/matrix.h **** }
 979:/home/tienluong/workspace/atlantis_fw/AsicFwS2/include/matrix.h **** 
 980:/home/tienluong/workspace/atlantis_fw/AsicFwS2/include/matrix.h **** 
 981:/home/tienluong/workspace/atlantis_fw/AsicFwS2/include/matrix.h **** // mat3x3 and vec2 special multiplication operation used in roitransfer
 982:/home/tienluong/workspace/atlantis_fw/AsicFwS2/include/matrix.h **** /// Return H * p for 2D p, p is made homogeneous, division in the end.
 983:/home/tienluong/workspace/atlantis_fw/AsicFwS2/include/matrix.h **** template<typename T, typename U, bool D>
 984:/home/tienluong/workspace/atlantis_fw/AsicFwS2/include/matrix.h **** Vec2<typename std::common_type<T, U>::type> operator*( const Matrix<T, 3, 3, D> & h, const Vec2<U> 
 985:/home/tienluong/workspace/atlantis_fw/AsicFwS2/include/matrix.h **** {
 986:/home/tienluong/workspace/atlantis_fw/AsicFwS2/include/matrix.h ****     T w_inv = T{1} / ( h(2, 0) * p.x() + h(2, 1) * p.y() + h(2, 2) );
 987:/home/tienluong/workspace/atlantis_fw/AsicFwS2/include/matrix.h ****     return  { 
 988:/home/tienluong/workspace/atlantis_fw/AsicFwS2/include/matrix.h ****                 ( h(0, 0) * p.x() + h(0, 1) * p.y() + h(0, 2) ) * w_inv,
 989:/home/tienluong/workspace/atlantis_fw/AsicFwS2/include/matrix.h ****                 ( h(1, 0) * p.x() + h(1, 1) * p.y() + h(1, 2) ) * w_inv
 990:/home/tienluong/workspace/atlantis_fw/AsicFwS2/include/matrix.h ****             };
 991:/home/tienluong/workspace/atlantis_fw/AsicFwS2/include/matrix.h **** }
 992:/home/tienluong/workspace/atlantis_fw/AsicFwS2/include/matrix.h **** 
 993:/home/tienluong/workspace/atlantis_fw/AsicFwS2/include/matrix.h **** 
 994:/home/tienluong/workspace/atlantis_fw/AsicFwS2/include/matrix.h **** 
 995:/home/tienluong/workspace/atlantis_fw/AsicFwS2/include/matrix.h **** // Vec2 multiplication operator
 996:/home/tienluong/workspace/atlantis_fw/AsicFwS2/include/matrix.h **** //right hand
 997:/home/tienluong/workspace/atlantis_fw/AsicFwS2/include/matrix.h **** template<typename T, typename U, bool D>
 998:/home/tienluong/workspace/atlantis_fw/AsicFwS2/include/matrix.h **** Vec2<typename std::common_type<T, U>::type> operator*( const Matrix<T, 2, 2, D> & mat, const Vec2<U
 999:/home/tienluong/workspace/atlantis_fw/AsicFwS2/include/matrix.h **** {
1000:/home/tienluong/workspace/atlantis_fw/AsicFwS2/include/matrix.h ****     return
1001:/home/tienluong/workspace/atlantis_fw/AsicFwS2/include/matrix.h ****     {
1002:/home/tienluong/workspace/atlantis_fw/AsicFwS2/include/matrix.h ****         mat( 0, 0 ) * vec.x() + mat( 0, 1 ) * vec.y(),
1003:/home/tienluong/workspace/atlantis_fw/AsicFwS2/include/matrix.h ****         mat( 1, 0 ) * vec.x() + mat( 1, 1 ) * vec.y()
1004:/home/tienluong/workspace/atlantis_fw/AsicFwS2/include/matrix.h ****     };
1005:/home/tienluong/workspace/atlantis_fw/AsicFwS2/include/matrix.h **** }
1006:/home/tienluong/workspace/atlantis_fw/AsicFwS2/include/matrix.h **** //left hand
1007:/home/tienluong/workspace/atlantis_fw/AsicFwS2/include/matrix.h **** template<typename T, typename U, bool D>
1008:/home/tienluong/workspace/atlantis_fw/AsicFwS2/include/matrix.h **** Vec2<typename std::common_type<T, U>::type> operator*( const Vec2<U> & vec, const Matrix<T, 2, 2, D
1009:/home/tienluong/workspace/atlantis_fw/AsicFwS2/include/matrix.h **** {
1010:/home/tienluong/workspace/atlantis_fw/AsicFwS2/include/matrix.h ****     return
1011:/home/tienluong/workspace/atlantis_fw/AsicFwS2/include/matrix.h ****     {
1012:/home/tienluong/workspace/atlantis_fw/AsicFwS2/include/matrix.h ****         mat( 0, 0 ) * vec.x() + mat( 1, 0 ) * vec.y(),
1013:/home/tienluong/workspace/atlantis_fw/AsicFwS2/include/matrix.h ****         mat( 0, 1 ) * vec.x() + mat( 1, 1 ) * vec.y()
1014:/home/tienluong/workspace/atlantis_fw/AsicFwS2/include/matrix.h ****     };
1015:/home/tienluong/workspace/atlantis_fw/AsicFwS2/include/matrix.h **** }
1016:/home/tienluong/workspace/atlantis_fw/AsicFwS2/include/matrix.h **** 
1017:/home/tienluong/workspace/atlantis_fw/AsicFwS2/include/matrix.h **** // Create a diagonal matrix from a vector
1018:/home/tienluong/workspace/atlantis_fw/AsicFwS2/include/matrix.h **** inline Matrix4x4f diagonal( const Vec4f & vec )
1019:/home/tienluong/workspace/atlantis_fw/AsicFwS2/include/matrix.h **** {
1020:/home/tienluong/workspace/atlantis_fw/AsicFwS2/include/matrix.h ****     return
1021:/home/tienluong/workspace/atlantis_fw/AsicFwS2/include/matrix.h ****     {
1022:/home/tienluong/workspace/atlantis_fw/AsicFwS2/include/matrix.h ****         vec.x(), 0.0f, 0.0f, 0.0f,
1023:/home/tienluong/workspace/atlantis_fw/AsicFwS2/include/matrix.h ****         0.0f, vec.y(), 0.0f, 0.0f,
1024:/home/tienluong/workspace/atlantis_fw/AsicFwS2/include/matrix.h ****         0.0f, 0.0f, vec.z(), 0.0f,
1025:/home/tienluong/workspace/atlantis_fw/AsicFwS2/include/matrix.h ****         0.0f, 0.0f, 0.0f, vec.a()
1026:/home/tienluong/workspace/atlantis_fw/AsicFwS2/include/matrix.h ****     };
1027:/home/tienluong/workspace/atlantis_fw/AsicFwS2/include/matrix.h **** }
1028:/home/tienluong/workspace/atlantis_fw/AsicFwS2/include/matrix.h **** 
1029:/home/tienluong/workspace/atlantis_fw/AsicFwS2/include/matrix.h **** template<typename T>
1030:/home/tienluong/workspace/atlantis_fw/AsicFwS2/include/matrix.h **** Matrix<T, 3, 3> diagonal( const Vec3<T> & vec )
1031:/home/tienluong/workspace/atlantis_fw/AsicFwS2/include/matrix.h **** {
1032:/home/tienluong/workspace/atlantis_fw/AsicFwS2/include/matrix.h ****     return
1033:/home/tienluong/workspace/atlantis_fw/AsicFwS2/include/matrix.h ****     {
1034:/home/tienluong/workspace/atlantis_fw/AsicFwS2/include/matrix.h ****         vec.x(), T{0}, T{0},
1035:/home/tienluong/workspace/atlantis_fw/AsicFwS2/include/matrix.h ****         T{0}, vec.y(), T{0},
1036:/home/tienluong/workspace/atlantis_fw/AsicFwS2/include/matrix.h ****         T{0}, T{0}, vec.z()
1037:/home/tienluong/workspace/atlantis_fw/AsicFwS2/include/matrix.h ****     };
1038:/home/tienluong/workspace/atlantis_fw/AsicFwS2/include/matrix.h **** }
1039:/home/tienluong/workspace/atlantis_fw/AsicFwS2/include/matrix.h **** 
1040:/home/tienluong/workspace/atlantis_fw/AsicFwS2/include/matrix.h **** template<typename T>
1041:/home/tienluong/workspace/atlantis_fw/AsicFwS2/include/matrix.h **** Matrix<T, 2, 2> diagonal( const Vec2<T> & vec )
1042:/home/tienluong/workspace/atlantis_fw/AsicFwS2/include/matrix.h **** {
1043:/home/tienluong/workspace/atlantis_fw/AsicFwS2/include/matrix.h ****     return
1044:/home/tienluong/workspace/atlantis_fw/AsicFwS2/include/matrix.h ****     {
1045:/home/tienluong/workspace/atlantis_fw/AsicFwS2/include/matrix.h ****         vec.x(), T{0},
1046:/home/tienluong/workspace/atlantis_fw/AsicFwS2/include/matrix.h ****         T{0}, vec.y(),
1047:/home/tienluong/workspace/atlantis_fw/AsicFwS2/include/matrix.h ****     };
1048:/home/tienluong/workspace/atlantis_fw/AsicFwS2/include/matrix.h **** }
1049:/home/tienluong/workspace/atlantis_fw/AsicFwS2/include/matrix.h **** 
1050:/home/tienluong/workspace/atlantis_fw/AsicFwS2/include/matrix.h **** // ------------------------------------
1051:/home/tienluong/workspace/atlantis_fw/AsicFwS2/include/matrix.h **** // determinant, inverse, etc
1052:/home/tienluong/workspace/atlantis_fw/AsicFwS2/include/matrix.h **** // ------------------------------------
1053:/home/tienluong/workspace/atlantis_fw/AsicFwS2/include/matrix.h **** 
1054:/home/tienluong/workspace/atlantis_fw/AsicFwS2/include/matrix.h **** template<typename T, int N>
1055:/home/tienluong/workspace/atlantis_fw/AsicFwS2/include/matrix.h **** struct MatrixDeterminant { };
1056:/home/tienluong/workspace/atlantis_fw/AsicFwS2/include/matrix.h **** 
1057:/home/tienluong/workspace/atlantis_fw/AsicFwS2/include/matrix.h **** template<typename T>
1058:/home/tienluong/workspace/atlantis_fw/AsicFwS2/include/matrix.h **** struct MatrixDeterminant<T, 2>
1059:/home/tienluong/workspace/atlantis_fw/AsicFwS2/include/matrix.h **** {
1060:/home/tienluong/workspace/atlantis_fw/AsicFwS2/include/matrix.h ****     T operator()( const T * mat ) const
1061:/home/tienluong/workspace/atlantis_fw/AsicFwS2/include/matrix.h ****     {
1062:/home/tienluong/workspace/atlantis_fw/AsicFwS2/include/matrix.h ****         return mat[0] * mat[3] - mat[1] * mat[2];
1063:/home/tienluong/workspace/atlantis_fw/AsicFwS2/include/matrix.h ****     }
1064:/home/tienluong/workspace/atlantis_fw/AsicFwS2/include/matrix.h **** };
1065:/home/tienluong/workspace/atlantis_fw/AsicFwS2/include/matrix.h **** 
1066:/home/tienluong/workspace/atlantis_fw/AsicFwS2/include/matrix.h **** template<typename T>
1067:/home/tienluong/workspace/atlantis_fw/AsicFwS2/include/matrix.h **** struct MatrixDeterminant<T, 3>
1068:/home/tienluong/workspace/atlantis_fw/AsicFwS2/include/matrix.h **** {
1069:/home/tienluong/workspace/atlantis_fw/AsicFwS2/include/matrix.h ****     T operator()( const T * mat ) const
1070:/home/tienluong/workspace/atlantis_fw/AsicFwS2/include/matrix.h ****     {
1071:/home/tienluong/workspace/atlantis_fw/AsicFwS2/include/matrix.h ****         return + mat[0] * ( mat[4] * mat[8] - mat[7] * mat[5] )
1072:/home/tienluong/workspace/atlantis_fw/AsicFwS2/include/matrix.h ****                - mat[1] * ( mat[3] * mat[8] - mat[5] * mat[6] )
1073:/home/tienluong/workspace/atlantis_fw/AsicFwS2/include/matrix.h ****                + mat[2] * ( mat[3] * mat[7] - mat[4] * mat[6] );
1074:/home/tienluong/workspace/atlantis_fw/AsicFwS2/include/matrix.h ****     }
1075:/home/tienluong/workspace/atlantis_fw/AsicFwS2/include/matrix.h **** };
1076:/home/tienluong/workspace/atlantis_fw/AsicFwS2/include/matrix.h **** 
1077:/home/tienluong/workspace/atlantis_fw/AsicFwS2/include/matrix.h **** template<typename T>
1078:/home/tienluong/workspace/atlantis_fw/AsicFwS2/include/matrix.h **** struct MatrixDeterminant<T, 4>
1079:/home/tienluong/workspace/atlantis_fw/AsicFwS2/include/matrix.h **** {
1080:/home/tienluong/workspace/atlantis_fw/AsicFwS2/include/matrix.h ****     T operator()( const T * mat ) const
1081:/home/tienluong/workspace/atlantis_fw/AsicFwS2/include/matrix.h ****     {
1082:/home/tienluong/workspace/atlantis_fw/AsicFwS2/include/matrix.h ****         T dst[4];
1083:/home/tienluong/workspace/atlantis_fw/AsicFwS2/include/matrix.h ****         T tmp[12];
1084:/home/tienluong/workspace/atlantis_fw/AsicFwS2/include/matrix.h **** 
1085:/home/tienluong/workspace/atlantis_fw/AsicFwS2/include/matrix.h ****         // calculate pairs for first 8 elements (cofactors)
1086:/home/tienluong/workspace/atlantis_fw/AsicFwS2/include/matrix.h ****         tmp[0] = mat[10] * mat[15];
1087:/home/tienluong/workspace/atlantis_fw/AsicFwS2/include/matrix.h ****         tmp[1] = mat[11] * mat[14];
1088:/home/tienluong/workspace/atlantis_fw/AsicFwS2/include/matrix.h ****         tmp[2] = mat[9] * mat[15];
1089:/home/tienluong/workspace/atlantis_fw/AsicFwS2/include/matrix.h ****         tmp[3] = mat[11] * mat[13];
1090:/home/tienluong/workspace/atlantis_fw/AsicFwS2/include/matrix.h ****         tmp[4] = mat[9] * mat[14];
1091:/home/tienluong/workspace/atlantis_fw/AsicFwS2/include/matrix.h ****         tmp[5] = mat[10] * mat[13];
1092:/home/tienluong/workspace/atlantis_fw/AsicFwS2/include/matrix.h ****         tmp[6] = mat[8] * mat[15];
1093:/home/tienluong/workspace/atlantis_fw/AsicFwS2/include/matrix.h ****         tmp[7] = mat[11] * mat[12];
1094:/home/tienluong/workspace/atlantis_fw/AsicFwS2/include/matrix.h ****         tmp[8] = mat[8] * mat[14];
1095:/home/tienluong/workspace/atlantis_fw/AsicFwS2/include/matrix.h ****         tmp[9] = mat[10] * mat[12];
1096:/home/tienluong/workspace/atlantis_fw/AsicFwS2/include/matrix.h ****         tmp[10] = mat[8] * mat[13];
1097:/home/tienluong/workspace/atlantis_fw/AsicFwS2/include/matrix.h ****         tmp[11] = mat[9] * mat[12];
1098:/home/tienluong/workspace/atlantis_fw/AsicFwS2/include/matrix.h **** 
1099:/home/tienluong/workspace/atlantis_fw/AsicFwS2/include/matrix.h ****         // calculate first 8 elements (cofactors)
1100:/home/tienluong/workspace/atlantis_fw/AsicFwS2/include/matrix.h ****         dst[0]  = tmp[0] * mat[5] + tmp[3] * mat[6] + tmp[4]  * mat[7];
1101:/home/tienluong/workspace/atlantis_fw/AsicFwS2/include/matrix.h ****         dst[0] -= tmp[1] * mat[5] + tmp[2] * mat[6] + tmp[5]  * mat[7];
1102:/home/tienluong/workspace/atlantis_fw/AsicFwS2/include/matrix.h ****         dst[1]  = tmp[1] * mat[4] + tmp[6] * mat[6] + tmp[9]  * mat[7];
1103:/home/tienluong/workspace/atlantis_fw/AsicFwS2/include/matrix.h ****         dst[1] -= tmp[0] * mat[4] + tmp[7] * mat[6] + tmp[8]  * mat[7];
1104:/home/tienluong/workspace/atlantis_fw/AsicFwS2/include/matrix.h ****         dst[2]  = tmp[2] * mat[4] + tmp[7] * mat[5] + tmp[10] * mat[7];
1105:/home/tienluong/workspace/atlantis_fw/AsicFwS2/include/matrix.h ****         dst[2] -= tmp[3] * mat[4] + tmp[6] * mat[5] + tmp[11] * mat[7];
1106:/home/tienluong/workspace/atlantis_fw/AsicFwS2/include/matrix.h ****         dst[3]  = tmp[5] * mat[4] + tmp[8] * mat[5] + tmp[11] * mat[6];
1107:/home/tienluong/workspace/atlantis_fw/AsicFwS2/include/matrix.h ****         dst[3] -= tmp[4] * mat[4] + tmp[9] * mat[5] + tmp[10] * mat[6];
1108:/home/tienluong/workspace/atlantis_fw/AsicFwS2/include/matrix.h **** 
1109:/home/tienluong/workspace/atlantis_fw/AsicFwS2/include/matrix.h ****         // calculate determinant
1110:/home/tienluong/workspace/atlantis_fw/AsicFwS2/include/matrix.h ****         return mat[0] * dst[0] + mat[1] * dst[1] + mat[2] * dst[2] + mat[3] * dst[3];
1111:/home/tienluong/workspace/atlantis_fw/AsicFwS2/include/matrix.h ****     }
1112:/home/tienluong/workspace/atlantis_fw/AsicFwS2/include/matrix.h **** };
1113:/home/tienluong/workspace/atlantis_fw/AsicFwS2/include/matrix.h **** 
1114:/home/tienluong/workspace/atlantis_fw/AsicFwS2/include/matrix.h **** 
1115:/home/tienluong/workspace/atlantis_fw/AsicFwS2/include/matrix.h **** template<typename T, int N>
1116:/home/tienluong/workspace/atlantis_fw/AsicFwS2/include/matrix.h **** struct SquareMatrixInverter { };
1117:/home/tienluong/workspace/atlantis_fw/AsicFwS2/include/matrix.h **** 
1118:/home/tienluong/workspace/atlantis_fw/AsicFwS2/include/matrix.h **** template<typename T>
1119:/home/tienluong/workspace/atlantis_fw/AsicFwS2/include/matrix.h **** struct SquareMatrixInverter<T, 2>
1120:/home/tienluong/workspace/atlantis_fw/AsicFwS2/include/matrix.h **** {
1121:/home/tienluong/workspace/atlantis_fw/AsicFwS2/include/matrix.h ****     void run( T * mat ) const
 114              		.loc 2 1121 0
 115              		.cfi_startproc
 116              		@ args = 0, pretend = 0, frame = 16
 117              		@ frame_needed = 0, uses_anonymous_args = 0
 118              	.LVL7:
 119 0000 2DE9FF47 		push	{r0, r1, r2, r3, r4, r5, r6, r7, r8, r9, r10, lr}
 120              	.LCFI2:
 121              		.cfi_def_cfa_offset 48
 122              		.cfi_offset 4, -32
 123              		.cfi_offset 5, -28
 124              		.cfi_offset 6, -24
 125              		.cfi_offset 7, -20
 126              		.cfi_offset 8, -16
 127              		.cfi_offset 9, -12
 128              		.cfi_offset 10, -8
 129              		.cfi_offset 14, -4
 130              	.LBB128:
1122:/home/tienluong/workspace/atlantis_fw/AsicFwS2/include/matrix.h ****     {
1123:/home/tienluong/workspace/atlantis_fw/AsicFwS2/include/matrix.h ****         const T det = mat[0] * mat[3] - mat[1] * mat[2];
 131              		.loc 2 1123 0
 132 0004 D0F80C90 		ldr	r9, [r0, #12]	@ float
 133              	.LBE128:
1121:/home/tienluong/workspace/atlantis_fw/AsicFwS2/include/matrix.h ****     {
 134              		.loc 2 1121 0
 135 0008 0546     		mov	r5, r0
 136              	.LBB131:
 137              		.loc 2 1123 0
 138 000a D0F80080 		ldr	r8, [r0]	@ float
 139 000e 4946     		mov	r1, r9
 140 0010 4768     		ldr	r7, [r0, #4]	@ float
 141 0012 8468     		ldr	r4, [r0, #8]	@ float
 142              	.LVL8:
 143 0014 4046     		mov	r0, r8
 144              	.LVL9:
 145 0016 134E     		ldr	r6, .L15
 146 0018 B047     		blx	r6
 147              	.LVL10:
 148 001a 2146     		mov	r1, r4
1124:/home/tienluong/workspace/atlantis_fw/AsicFwS2/include/matrix.h **** 
1125:/home/tienluong/workspace/atlantis_fw/AsicFwS2/include/matrix.h ****         const T invdet = T{1} / det;
1126:/home/tienluong/workspace/atlantis_fw/AsicFwS2/include/matrix.h **** 
1127:/home/tienluong/workspace/atlantis_fw/AsicFwS2/include/matrix.h ****         T tmp[4];
1128:/home/tienluong/workspace/atlantis_fw/AsicFwS2/include/matrix.h ****         tmp[0] = mat[3];
1129:/home/tienluong/workspace/atlantis_fw/AsicFwS2/include/matrix.h ****         tmp[1] = -mat[1];
1130:/home/tienluong/workspace/atlantis_fw/AsicFwS2/include/matrix.h ****         tmp[2] = -mat[2];
 149              		.loc 2 1130 0
 150 001c 04F10044 		add	r4, r4, #-2147483648
 151              	.LVL11:
1123:/home/tienluong/workspace/atlantis_fw/AsicFwS2/include/matrix.h **** 
 152              		.loc 2 1123 0
 153 0020 8246     		mov	r10, r0
 154 0022 3846     		mov	r0, r7
 155 0024 B047     		blx	r6
 156              	.LVL12:
 157 0026 104B     		ldr	r3, .L15+4
1129:/home/tienluong/workspace/atlantis_fw/AsicFwS2/include/matrix.h ****         tmp[2] = -mat[2];
 158              		.loc 2 1129 0
 159 0028 07F10047 		add	r7, r7, #-2147483648
1123:/home/tienluong/workspace/atlantis_fw/AsicFwS2/include/matrix.h **** 
 160              		.loc 2 1123 0
 161 002c 0146     		mov	r1, r0
 162 002e 5046     		mov	r0, r10
 163 0030 9847     		blx	r3
 164              	.LVL13:
1125:/home/tienluong/workspace/atlantis_fw/AsicFwS2/include/matrix.h **** 
 165              		.loc 2 1125 0
 166 0032 0E4B     		ldr	r3, .L15+8
1123:/home/tienluong/workspace/atlantis_fw/AsicFwS2/include/matrix.h **** 
 167              		.loc 2 1123 0
 168 0034 0146     		mov	r1, r0
1125:/home/tienluong/workspace/atlantis_fw/AsicFwS2/include/matrix.h **** 
 169              		.loc 2 1125 0
 170 0036 4FF07E50 		mov	r0, #1065353216
 171 003a 9847     		blx	r3
 172              	.LVL14:
 173              		.loc 2 1130 0
 174 003c 0294     		str	r4, [sp, #8]	@ float
 175              	.LBB129:
1131:/home/tienluong/workspace/atlantis_fw/AsicFwS2/include/matrix.h ****         tmp[3] = mat[0];
1132:/home/tienluong/workspace/atlantis_fw/AsicFwS2/include/matrix.h **** 
1133:/home/tienluong/workspace/atlantis_fw/AsicFwS2/include/matrix.h ****         for( int i = 0; i < 4; ++i ) { mat[i] = tmp[i] * invdet; }
 176              		.loc 2 1133 0
 177 003e 0024     		movs	r4, #0
 178              	.LBE129:
1128:/home/tienluong/workspace/atlantis_fw/AsicFwS2/include/matrix.h ****         tmp[1] = -mat[1];
 179              		.loc 2 1128 0
 180 0040 CDF80090 		str	r9, [sp]	@ float
1129:/home/tienluong/workspace/atlantis_fw/AsicFwS2/include/matrix.h ****         tmp[2] = -mat[2];
 181              		.loc 2 1129 0
 182 0044 0197     		str	r7, [sp, #4]	@ float
1131:/home/tienluong/workspace/atlantis_fw/AsicFwS2/include/matrix.h ****         tmp[3] = mat[0];
 183              		.loc 2 1131 0
 184 0046 CDF80C80 		str	r8, [sp, #12]	@ float
1125:/home/tienluong/workspace/atlantis_fw/AsicFwS2/include/matrix.h **** 
 185              		.loc 2 1125 0
 186 004a 8246     		mov	r10, r0
 187              	.LVL15:
 188              	.L13:
 189              	.LBB130:
 190              		.loc 2 1133 0
 191 004c 5DF82400 		ldr	r0, [sp, r4, lsl #2]	@ float
 192 0050 5146     		mov	r1, r10
 193 0052 B047     		blx	r6
 194              	.LVL16:
 195 0054 45F82400 		str	r0, [r5, r4, lsl #2]	@ float
 196 0058 0134     		adds	r4, r4, #1
 197              	.LVL17:
 198 005a 042C     		cmp	r4, #4
 199 005c F6D1     		bne	.L13
 200              	.LBE130:
 201              	.LBE131:
1134:/home/tienluong/workspace/atlantis_fw/AsicFwS2/include/matrix.h ****     }
 202              		.loc 2 1134 0
 203 005e 04B0     		add	sp, sp, #16
 204              	.LCFI3:
 205              		.cfi_def_cfa_offset 32
 206              		@ sp needed
 207 0060 BDE8F087 		pop	{r4, r5, r6, r7, r8, r9, r10, pc}
 208              	.LVL18:
 209              	.L16:
 210              		.align	2
 211              	.L15:
 212 0064 00000000 		.word	__aeabi_fmul
 213 0068 00000000 		.word	__aeabi_fsub
 214 006c 00000000 		.word	__aeabi_fdiv
 215              		.cfi_endproc
 216              	.LFE3786:
 218              		.section	.text._ZN4ltaf7inverseIfLi2ELb1EEENS_6MatrixIT_XT0_EXT0_EXT1_EEERKS3_,"axG",%progbits,_ZN
 219              		.align	1
 220              		.weak	_ZN4ltaf7inverseIfLi2ELb1EEENS_6MatrixIT_XT0_EXT0_EXT1_EEERKS3_
 221              		.thumb
 222              		.thumb_func
 224              	_ZN4ltaf7inverseIfLi2ELb1EEENS_6MatrixIT_XT0_EXT0_EXT1_EEERKS3_:
 225              	.LFB3543:
1135:/home/tienluong/workspace/atlantis_fw/AsicFwS2/include/matrix.h **** };
1136:/home/tienluong/workspace/atlantis_fw/AsicFwS2/include/matrix.h **** 
1137:/home/tienluong/workspace/atlantis_fw/AsicFwS2/include/matrix.h **** template<typename T>
1138:/home/tienluong/workspace/atlantis_fw/AsicFwS2/include/matrix.h **** struct SquareMatrixInverter<T, 3>
1139:/home/tienluong/workspace/atlantis_fw/AsicFwS2/include/matrix.h **** {
1140:/home/tienluong/workspace/atlantis_fw/AsicFwS2/include/matrix.h ****     void run( T * mat ) const
1141:/home/tienluong/workspace/atlantis_fw/AsicFwS2/include/matrix.h ****     {
1142:/home/tienluong/workspace/atlantis_fw/AsicFwS2/include/matrix.h ****         const T det = + mat[0] * ( mat[4] * mat[8] - mat[7] * mat[5] )
1143:/home/tienluong/workspace/atlantis_fw/AsicFwS2/include/matrix.h ****                       - mat[1] * ( mat[3] * mat[8] - mat[5] * mat[6] )
1144:/home/tienluong/workspace/atlantis_fw/AsicFwS2/include/matrix.h ****                       + mat[2] * ( mat[3] * mat[7] - mat[4] * mat[6] );
1145:/home/tienluong/workspace/atlantis_fw/AsicFwS2/include/matrix.h **** 
1146:/home/tienluong/workspace/atlantis_fw/AsicFwS2/include/matrix.h ****         const T invdet = T{1} / det;
1147:/home/tienluong/workspace/atlantis_fw/AsicFwS2/include/matrix.h **** 
1148:/home/tienluong/workspace/atlantis_fw/AsicFwS2/include/matrix.h ****         T tmp[9];
1149:/home/tienluong/workspace/atlantis_fw/AsicFwS2/include/matrix.h ****         tmp[0] =  mat[4] * mat[8] - mat[7] * mat[5];
1150:/home/tienluong/workspace/atlantis_fw/AsicFwS2/include/matrix.h ****         tmp[1] = -( mat[1] * mat[8] - mat[2] * mat[7] );
1151:/home/tienluong/workspace/atlantis_fw/AsicFwS2/include/matrix.h ****         tmp[2] =  mat[1] * mat[5] - mat[2] * mat[4];
1152:/home/tienluong/workspace/atlantis_fw/AsicFwS2/include/matrix.h ****         tmp[3] = -( mat[3] * mat[8] - mat[5] * mat[6] );
1153:/home/tienluong/workspace/atlantis_fw/AsicFwS2/include/matrix.h ****         tmp[4] =  mat[0] * mat[8] - mat[2] * mat[6];
1154:/home/tienluong/workspace/atlantis_fw/AsicFwS2/include/matrix.h ****         tmp[5] = -( mat[0] * mat[5] - mat[3] * mat[2] );
1155:/home/tienluong/workspace/atlantis_fw/AsicFwS2/include/matrix.h ****         tmp[6] =  mat[3] * mat[7] - mat[6] * mat[ 4];
1156:/home/tienluong/workspace/atlantis_fw/AsicFwS2/include/matrix.h ****         tmp[7] = -( mat[0] * mat[7] - mat[6] * mat[1] );
1157:/home/tienluong/workspace/atlantis_fw/AsicFwS2/include/matrix.h ****         tmp[8] =  mat[0] * mat[4] - mat[3] * mat[1];
1158:/home/tienluong/workspace/atlantis_fw/AsicFwS2/include/matrix.h **** 
1159:/home/tienluong/workspace/atlantis_fw/AsicFwS2/include/matrix.h ****         for( int i = 0; i < 9; ++i ) { mat[i] = tmp[i] * invdet; }
1160:/home/tienluong/workspace/atlantis_fw/AsicFwS2/include/matrix.h ****     }
1161:/home/tienluong/workspace/atlantis_fw/AsicFwS2/include/matrix.h **** };
1162:/home/tienluong/workspace/atlantis_fw/AsicFwS2/include/matrix.h **** 
1163:/home/tienluong/workspace/atlantis_fw/AsicFwS2/include/matrix.h **** template<typename T>
1164:/home/tienluong/workspace/atlantis_fw/AsicFwS2/include/matrix.h **** struct SquareMatrixInverter<T, 4>
1165:/home/tienluong/workspace/atlantis_fw/AsicFwS2/include/matrix.h **** {
1166:/home/tienluong/workspace/atlantis_fw/AsicFwS2/include/matrix.h ****     void run( T * mat ) const
1167:/home/tienluong/workspace/atlantis_fw/AsicFwS2/include/matrix.h ****     {
1168:/home/tienluong/workspace/atlantis_fw/AsicFwS2/include/matrix.h ****         T dst[16];
1169:/home/tienluong/workspace/atlantis_fw/AsicFwS2/include/matrix.h ****         T tmp[12];
1170:/home/tienluong/workspace/atlantis_fw/AsicFwS2/include/matrix.h **** 
1171:/home/tienluong/workspace/atlantis_fw/AsicFwS2/include/matrix.h ****         // calculate pairs for first 8 elements (cofactors)
1172:/home/tienluong/workspace/atlantis_fw/AsicFwS2/include/matrix.h ****         tmp[0] = mat[10] * mat[15];
1173:/home/tienluong/workspace/atlantis_fw/AsicFwS2/include/matrix.h ****         tmp[1] = mat[11] * mat[14];
1174:/home/tienluong/workspace/atlantis_fw/AsicFwS2/include/matrix.h ****         tmp[2] = mat[9] * mat[15];
1175:/home/tienluong/workspace/atlantis_fw/AsicFwS2/include/matrix.h ****         tmp[3] = mat[11] * mat[13];
1176:/home/tienluong/workspace/atlantis_fw/AsicFwS2/include/matrix.h ****         tmp[4] = mat[9] * mat[14];
1177:/home/tienluong/workspace/atlantis_fw/AsicFwS2/include/matrix.h ****         tmp[5] = mat[10] * mat[13];
1178:/home/tienluong/workspace/atlantis_fw/AsicFwS2/include/matrix.h ****         tmp[6] = mat[8] * mat[15];
1179:/home/tienluong/workspace/atlantis_fw/AsicFwS2/include/matrix.h ****         tmp[7] = mat[11] * mat[12];
1180:/home/tienluong/workspace/atlantis_fw/AsicFwS2/include/matrix.h ****         tmp[8] = mat[8] * mat[14];
1181:/home/tienluong/workspace/atlantis_fw/AsicFwS2/include/matrix.h ****         tmp[9] = mat[10] * mat[12];
1182:/home/tienluong/workspace/atlantis_fw/AsicFwS2/include/matrix.h ****         tmp[10] = mat[8] * mat[13];
1183:/home/tienluong/workspace/atlantis_fw/AsicFwS2/include/matrix.h ****         tmp[11] = mat[9] * mat[12];
1184:/home/tienluong/workspace/atlantis_fw/AsicFwS2/include/matrix.h **** 
1185:/home/tienluong/workspace/atlantis_fw/AsicFwS2/include/matrix.h ****         // calculate first 8 elements (cofactors)
1186:/home/tienluong/workspace/atlantis_fw/AsicFwS2/include/matrix.h ****         dst[0]   = tmp[0] * mat[5] + tmp[3] * mat[6] + tmp[4]  * mat[7];
1187:/home/tienluong/workspace/atlantis_fw/AsicFwS2/include/matrix.h ****         dst[0]  -= tmp[1] * mat[5] + tmp[2] * mat[6] + tmp[5]  * mat[7];
1188:/home/tienluong/workspace/atlantis_fw/AsicFwS2/include/matrix.h ****         dst[4]   = tmp[1] * mat[4] + tmp[6] * mat[6] + tmp[9]  * mat[7];
1189:/home/tienluong/workspace/atlantis_fw/AsicFwS2/include/matrix.h ****         dst[4]  -= tmp[0] * mat[4] + tmp[7] * mat[6] + tmp[8]  * mat[7];
1190:/home/tienluong/workspace/atlantis_fw/AsicFwS2/include/matrix.h ****         dst[8]   = tmp[2] * mat[4] + tmp[7] * mat[5] + tmp[10] * mat[7];
1191:/home/tienluong/workspace/atlantis_fw/AsicFwS2/include/matrix.h ****         dst[8]  -= tmp[3] * mat[4] + tmp[6] * mat[5] + tmp[11] * mat[7];
1192:/home/tienluong/workspace/atlantis_fw/AsicFwS2/include/matrix.h ****         dst[12]  = tmp[5] * mat[4] + tmp[8] * mat[5] + tmp[11] * mat[6];
1193:/home/tienluong/workspace/atlantis_fw/AsicFwS2/include/matrix.h ****         dst[12] -= tmp[4] * mat[4] + tmp[9] * mat[5] + tmp[10] * mat[6];
1194:/home/tienluong/workspace/atlantis_fw/AsicFwS2/include/matrix.h **** 
1195:/home/tienluong/workspace/atlantis_fw/AsicFwS2/include/matrix.h ****         // calculate determinant
1196:/home/tienluong/workspace/atlantis_fw/AsicFwS2/include/matrix.h ****         const T det = mat[0] * dst[0] + mat[1] * dst[4] + mat[2] * dst[8] + mat[3] * dst[12];
1197:/home/tienluong/workspace/atlantis_fw/AsicFwS2/include/matrix.h **** 
1198:/home/tienluong/workspace/atlantis_fw/AsicFwS2/include/matrix.h ****         const T inv_det = T{1} / det;
1199:/home/tienluong/workspace/atlantis_fw/AsicFwS2/include/matrix.h **** 
1200:/home/tienluong/workspace/atlantis_fw/AsicFwS2/include/matrix.h ****         dst[1]   = tmp[1] * mat[1] + tmp[2] * mat[2] + tmp[5]  * mat[3];
1201:/home/tienluong/workspace/atlantis_fw/AsicFwS2/include/matrix.h ****         dst[1]  -= tmp[0] * mat[1] + tmp[3] * mat[2] + tmp[4]  * mat[3];
1202:/home/tienluong/workspace/atlantis_fw/AsicFwS2/include/matrix.h ****         dst[5]   = tmp[0] * mat[0] + tmp[7] * mat[2] + tmp[8]  * mat[3];
1203:/home/tienluong/workspace/atlantis_fw/AsicFwS2/include/matrix.h ****         dst[5]  -= tmp[1] * mat[0] + tmp[6] * mat[2] + tmp[9]  * mat[3];
1204:/home/tienluong/workspace/atlantis_fw/AsicFwS2/include/matrix.h ****         dst[9]   = tmp[3] * mat[0] + tmp[6] * mat[1] + tmp[11] * mat[3];
1205:/home/tienluong/workspace/atlantis_fw/AsicFwS2/include/matrix.h ****         dst[9]  -= tmp[2] * mat[0] + tmp[7] * mat[1] + tmp[10] * mat[3];
1206:/home/tienluong/workspace/atlantis_fw/AsicFwS2/include/matrix.h ****         dst[13]  = tmp[4] * mat[0] + tmp[9] * mat[1] + tmp[10] * mat[2];
1207:/home/tienluong/workspace/atlantis_fw/AsicFwS2/include/matrix.h ****         dst[13] -= tmp[5] * mat[0] + tmp[8] * mat[1] + tmp[11] * mat[2];
1208:/home/tienluong/workspace/atlantis_fw/AsicFwS2/include/matrix.h **** 
1209:/home/tienluong/workspace/atlantis_fw/AsicFwS2/include/matrix.h ****         // calculate pairs for second 8 elements (cofactors)
1210:/home/tienluong/workspace/atlantis_fw/AsicFwS2/include/matrix.h ****         tmp[0] = mat[2] * mat[7];
1211:/home/tienluong/workspace/atlantis_fw/AsicFwS2/include/matrix.h ****         tmp[1] = mat[3] * mat[6];
1212:/home/tienluong/workspace/atlantis_fw/AsicFwS2/include/matrix.h ****         tmp[2] = mat[1] * mat[7];
1213:/home/tienluong/workspace/atlantis_fw/AsicFwS2/include/matrix.h ****         tmp[3] = mat[3] * mat[5];
1214:/home/tienluong/workspace/atlantis_fw/AsicFwS2/include/matrix.h ****         tmp[4] = mat[1] * mat[6];
1215:/home/tienluong/workspace/atlantis_fw/AsicFwS2/include/matrix.h ****         tmp[5] = mat[2] * mat[5];
1216:/home/tienluong/workspace/atlantis_fw/AsicFwS2/include/matrix.h ****         tmp[6] = mat[0] * mat[7];
1217:/home/tienluong/workspace/atlantis_fw/AsicFwS2/include/matrix.h ****         tmp[7] = mat[3] * mat[4];
1218:/home/tienluong/workspace/atlantis_fw/AsicFwS2/include/matrix.h ****         tmp[8] = mat[0] * mat[6];
1219:/home/tienluong/workspace/atlantis_fw/AsicFwS2/include/matrix.h ****         tmp[9] = mat[2] * mat[4];
1220:/home/tienluong/workspace/atlantis_fw/AsicFwS2/include/matrix.h ****         tmp[10] = mat[0] * mat[5];
1221:/home/tienluong/workspace/atlantis_fw/AsicFwS2/include/matrix.h ****         tmp[11] = mat[1] * mat[4];
1222:/home/tienluong/workspace/atlantis_fw/AsicFwS2/include/matrix.h **** 
1223:/home/tienluong/workspace/atlantis_fw/AsicFwS2/include/matrix.h ****         // calculate second 8 elements (cofactors)
1224:/home/tienluong/workspace/atlantis_fw/AsicFwS2/include/matrix.h ****         dst[2]   = tmp[0]  * mat[13] + tmp[3]  * mat[14] + tmp[4]  * mat[15];
1225:/home/tienluong/workspace/atlantis_fw/AsicFwS2/include/matrix.h ****         dst[2]  -= tmp[1]  * mat[13] + tmp[2]  * mat[14] + tmp[5]  * mat[15];
1226:/home/tienluong/workspace/atlantis_fw/AsicFwS2/include/matrix.h ****         dst[3]   = tmp[2]  * mat[10] + tmp[5]  * mat[11] + tmp[1]  * mat[9];
1227:/home/tienluong/workspace/atlantis_fw/AsicFwS2/include/matrix.h ****         dst[3]  -= tmp[4]  * mat[11] + tmp[0]  * mat[9]  + tmp[3]  * mat[10];
1228:/home/tienluong/workspace/atlantis_fw/AsicFwS2/include/matrix.h ****         dst[6]   = tmp[1]  * mat[12] + tmp[6]  * mat[14] + tmp[9]  * mat[15];
1229:/home/tienluong/workspace/atlantis_fw/AsicFwS2/include/matrix.h ****         dst[6]  -= tmp[0]  * mat[12] + tmp[7]  * mat[14] + tmp[8]  * mat[15];
1230:/home/tienluong/workspace/atlantis_fw/AsicFwS2/include/matrix.h ****         dst[7]   = tmp[8]  * mat[11] + tmp[0]  * mat[8]  + tmp[7]  * mat[10];
1231:/home/tienluong/workspace/atlantis_fw/AsicFwS2/include/matrix.h ****         dst[7]  -= tmp[6]  * mat[10] + tmp[9]  * mat[11] + tmp[1]  * mat[8];
1232:/home/tienluong/workspace/atlantis_fw/AsicFwS2/include/matrix.h ****         dst[10]  = tmp[2]  * mat[12] + tmp[7]  * mat[13] + tmp[10] * mat[15];
1233:/home/tienluong/workspace/atlantis_fw/AsicFwS2/include/matrix.h ****         dst[10] -= tmp[3]  * mat[12] + tmp[6]  * mat[13] + tmp[11] * mat[15];
1234:/home/tienluong/workspace/atlantis_fw/AsicFwS2/include/matrix.h ****         dst[11]  = tmp[6]  * mat[9]  + tmp[11] * mat[11] + tmp[3]  * mat[8];
1235:/home/tienluong/workspace/atlantis_fw/AsicFwS2/include/matrix.h ****         dst[11] -= tmp[10] * mat[11] + tmp[2]  * mat[8]  + tmp[7]  * mat[9];
1236:/home/tienluong/workspace/atlantis_fw/AsicFwS2/include/matrix.h ****         dst[14]  = tmp[5]  * mat[12] + tmp[8]  * mat[13] + tmp[11] * mat[14];
1237:/home/tienluong/workspace/atlantis_fw/AsicFwS2/include/matrix.h ****         dst[14] -= tmp[4]  * mat[12] + tmp[9]  * mat[13] + tmp[10] * mat[14];
1238:/home/tienluong/workspace/atlantis_fw/AsicFwS2/include/matrix.h ****         dst[15]  = tmp[10] * mat[10] + tmp[4]  * mat[8]  + tmp[9]  * mat[9];
1239:/home/tienluong/workspace/atlantis_fw/AsicFwS2/include/matrix.h ****         dst[15] -= tmp[8]  * mat[9]  + tmp[11] * mat[10] + tmp[5]  * mat[8];
1240:/home/tienluong/workspace/atlantis_fw/AsicFwS2/include/matrix.h **** 
1241:/home/tienluong/workspace/atlantis_fw/AsicFwS2/include/matrix.h ****         // calculate matrix inverse
1242:/home/tienluong/workspace/atlantis_fw/AsicFwS2/include/matrix.h ****         for( int i = 0; i < 16; i++ ) { mat[i] = dst[i] * inv_det; }
1243:/home/tienluong/workspace/atlantis_fw/AsicFwS2/include/matrix.h ****     }
1244:/home/tienluong/workspace/atlantis_fw/AsicFwS2/include/matrix.h **** };
1245:/home/tienluong/workspace/atlantis_fw/AsicFwS2/include/matrix.h **** 
1246:/home/tienluong/workspace/atlantis_fw/AsicFwS2/include/matrix.h **** template<typename T, int N, bool D>
1247:/home/tienluong/workspace/atlantis_fw/AsicFwS2/include/matrix.h **** Matrix<T, N, N, D> inverse( const Matrix<T, N, N, D> & mat )
 226              		.loc 2 1247 0
 227              		.cfi_startproc
 228              		@ args = 0, pretend = 0, frame = 0
 229              		@ frame_needed = 0, uses_anonymous_args = 0
 230              	.LVL19:
 231 0000 10B5     		push	{r4, lr}
 232              	.LCFI4:
 233              		.cfi_def_cfa_offset 8
 234              		.cfi_offset 4, -8
 235              		.cfi_offset 14, -4
 236              		.loc 2 1247 0
 237 0002 0446     		mov	r4, r0
 238              	.LVL20:
 239              	.LBB138:
 240              	.LBB139:
 241              	.LBB140:
 591:/home/tienluong/workspace/atlantis_fw/AsicFwS2/include/matrix.h **** 
 242              		.loc 2 591 0
 243 0004 0FC9     		ldmia	r1, {r0, r1, r2, r3}
 244              	.LVL21:
 245 0006 84E80F00 		stmia	r4, {r0, r1, r2, r3}
 246              	.LVL22:
 247              	.LBE140:
 248              	.LBE139:
1248:/home/tienluong/workspace/atlantis_fw/AsicFwS2/include/matrix.h **** {
1249:/home/tienluong/workspace/atlantis_fw/AsicFwS2/include/matrix.h ****     Matrix<T, N, N, D> rval( mat );
1250:/home/tienluong/workspace/atlantis_fw/AsicFwS2/include/matrix.h ****     SquareMatrixInverter<T, N> inverter;
1251:/home/tienluong/workspace/atlantis_fw/AsicFwS2/include/matrix.h ****     inverter.run( rval.data() );
 249              		.loc 2 1251 0
 250 000a 2046     		mov	r0, r4
 251 000c 014B     		ldr	r3, .L18
 252 000e 9847     		blx	r3
 253              	.LVL23:
 254              	.LBE138:
1252:/home/tienluong/workspace/atlantis_fw/AsicFwS2/include/matrix.h ****     return rval;
1253:/home/tienluong/workspace/atlantis_fw/AsicFwS2/include/matrix.h **** }
 255              		.loc 2 1253 0
 256 0010 2046     		mov	r0, r4
 257 0012 10BD     		pop	{r4, pc}
 258              	.LVL24:
 259              	.L19:
 260              		.align	2
 261              	.L18:
 262 0014 00000000 		.word	_ZNK4ltaf20SquareMatrixInverterIfLi2EE3runEPf.isra.1
 263              		.cfi_endproc
 264              	.LFE3543:
 266              		.section	.text._ZN4ltaf7inverseIfLi2ELb0EEENS_6MatrixIT_XT0_EXT0_EXT1_EEERKS3_,"axG",%progbits,_ZN
 267              		.align	1
 268              		.weak	_ZN4ltaf7inverseIfLi2ELb0EEENS_6MatrixIT_XT0_EXT0_EXT1_EEERKS3_
 269              		.thumb
 270              		.thumb_func
 272              	_ZN4ltaf7inverseIfLi2ELb0EEENS_6MatrixIT_XT0_EXT0_EXT1_EEERKS3_:
 273              	.LFB3546:
1247:/home/tienluong/workspace/atlantis_fw/AsicFwS2/include/matrix.h **** {
 274              		.loc 2 1247 0
 275              		.cfi_startproc
 276              		@ args = 0, pretend = 0, frame = 0
 277              		@ frame_needed = 0, uses_anonymous_args = 0
 278              	.LVL25:
 279 0000 10B5     		push	{r4, lr}
 280              	.LCFI5:
 281              		.cfi_def_cfa_offset 8
 282              		.cfi_offset 4, -8
 283              		.cfi_offset 14, -4
1247:/home/tienluong/workspace/atlantis_fw/AsicFwS2/include/matrix.h **** {
 284              		.loc 2 1247 0
 285 0002 0446     		mov	r4, r0
 286              	.LVL26:
 287              	.LBB147:
 288              	.LBB148:
 289              	.LBB149:
 593:/home/tienluong/workspace/atlantis_fw/AsicFwS2/include/matrix.h **** 
 290              		.loc 2 593 0
 291 0004 0FC9     		ldmia	r1, {r0, r1, r2, r3}
 292              	.LVL27:
 293 0006 84E80F00 		stmia	r4, {r0, r1, r2, r3}
 294              	.LVL28:
 295              	.LBE149:
 296              	.LBE148:
1251:/home/tienluong/workspace/atlantis_fw/AsicFwS2/include/matrix.h ****     return rval;
 297              		.loc 2 1251 0
 298 000a 2046     		mov	r0, r4
 299 000c 014B     		ldr	r3, .L21
 300 000e 9847     		blx	r3
 301              	.LVL29:
 302              	.LBE147:
 303              		.loc 2 1253 0
 304 0010 2046     		mov	r0, r4
 305 0012 10BD     		pop	{r4, pc}
 306              	.LVL30:
 307              	.L22:
 308              		.align	2
 309              	.L21:
 310 0014 00000000 		.word	_ZNK4ltaf20SquareMatrixInverterIfLi2EE3runEPf.isra.1
 311              		.cfi_endproc
 312              	.LFE3546:
 314              		.section	.text._ZN4ltaf11determinantIfLi2ELb1EEET_RKNS_6MatrixIS1_XT0_EXT0_EXT1_EEE,"axG",%progbit
 315              		.align	1
 316              		.weak	_ZN4ltaf11determinantIfLi2ELb1EEET_RKNS_6MatrixIS1_XT0_EXT0_EXT1_EEE
 317              		.thumb
 318              		.thumb_func
 320              	_ZN4ltaf11determinantIfLi2ELb1EEET_RKNS_6MatrixIS1_XT0_EXT0_EXT1_EEE:
 321              	.LFB3555:
1254:/home/tienluong/workspace/atlantis_fw/AsicFwS2/include/matrix.h **** 
1255:/home/tienluong/workspace/atlantis_fw/AsicFwS2/include/matrix.h **** template<typename T, int N, bool D>
1256:/home/tienluong/workspace/atlantis_fw/AsicFwS2/include/matrix.h **** T determinant( const Matrix<T, N, N, D> & mat )
 322              		.loc 2 1256 0
 323              		.cfi_startproc
 324              		@ args = 0, pretend = 0, frame = 0
 325              		@ frame_needed = 0, uses_anonymous_args = 0
 326              	.LVL31:
 327 0000 70B5     		push	{r4, r5, r6, lr}
 328              	.LCFI6:
 329              		.cfi_def_cfa_offset 16
 330              		.cfi_offset 4, -16
 331              		.cfi_offset 5, -12
 332              		.cfi_offset 6, -8
 333              		.cfi_offset 14, -4
 334              		.loc 2 1256 0
 335 0002 0446     		mov	r4, r0
 336              	.LBB155:
 337              	.LBB156:
 338              	.LBB157:
1062:/home/tienluong/workspace/atlantis_fw/AsicFwS2/include/matrix.h ****     }
 339              		.loc 2 1062 0
 340 0004 064D     		ldr	r5, .L24
 341 0006 0068     		ldr	r0, [r0]	@ float
 342              	.LVL32:
 343 0008 E168     		ldr	r1, [r4, #12]	@ float
 344 000a A847     		blx	r5
 345              	.LVL33:
 346 000c A168     		ldr	r1, [r4, #8]	@ float
 347 000e 0646     		mov	r6, r0
 348 0010 6068     		ldr	r0, [r4, #4]	@ float
 349 0012 A847     		blx	r5
 350              	.LVL34:
 351 0014 034B     		ldr	r3, .L24+4
 352 0016 0146     		mov	r1, r0
 353 0018 3046     		mov	r0, r6
 354 001a 9847     		blx	r3
 355              	.LVL35:
 356              	.LBE157:
 357              	.LBE156:
 358              	.LBE155:
1257:/home/tienluong/workspace/atlantis_fw/AsicFwS2/include/matrix.h **** {
1258:/home/tienluong/workspace/atlantis_fw/AsicFwS2/include/matrix.h ****     MatrixDeterminant<T, N> det;
1259:/home/tienluong/workspace/atlantis_fw/AsicFwS2/include/matrix.h ****     return det( mat.data() );
1260:/home/tienluong/workspace/atlantis_fw/AsicFwS2/include/matrix.h **** }
 359              		.loc 2 1260 0
 360 001c 70BD     		pop	{r4, r5, r6, pc}
 361              	.LVL36:
 362              	.L25:
 363 001e 00BF     		.align	2
 364              	.L24:
 365 0020 00000000 		.word	__aeabi_fmul
 366 0024 00000000 		.word	__aeabi_fsub
 367              		.cfi_endproc
 368              	.LFE3555:
 370              		.section	.text._ZN4ltaf11determinantIfLi2ELb0EEET_RKNS_6MatrixIS1_XT0_EXT0_EXT1_EEE,"axG",%progbit
 371              		.align	1
 372              		.weak	_ZN4ltaf11determinantIfLi2ELb0EEET_RKNS_6MatrixIS1_XT0_EXT0_EXT1_EEE
 373              		.thumb
 374              		.thumb_func
 376              	_ZN4ltaf11determinantIfLi2ELb0EEET_RKNS_6MatrixIS1_XT0_EXT0_EXT1_EEE:
 377              	.LFB3558:
1256:/home/tienluong/workspace/atlantis_fw/AsicFwS2/include/matrix.h **** {
 378              		.loc 2 1256 0
 379              		.cfi_startproc
 380              		@ args = 0, pretend = 0, frame = 0
 381              		@ frame_needed = 0, uses_anonymous_args = 0
 382              	.LVL37:
 383 0000 70B5     		push	{r4, r5, r6, lr}
 384              	.LCFI7:
 385              		.cfi_def_cfa_offset 16
 386              		.cfi_offset 4, -16
 387              		.cfi_offset 5, -12
 388              		.cfi_offset 6, -8
 389              		.cfi_offset 14, -4
1256:/home/tienluong/workspace/atlantis_fw/AsicFwS2/include/matrix.h **** {
 390              		.loc 2 1256 0
 391 0002 0446     		mov	r4, r0
 392              	.LBB163:
 393              	.LBB164:
 394              	.LBB165:
1062:/home/tienluong/workspace/atlantis_fw/AsicFwS2/include/matrix.h ****     }
 395              		.loc 2 1062 0
 396 0004 064D     		ldr	r5, .L27
 397 0006 0068     		ldr	r0, [r0]	@ float
 398              	.LVL38:
 399 0008 E168     		ldr	r1, [r4, #12]	@ float
 400 000a A847     		blx	r5
 401              	.LVL39:
 402 000c A168     		ldr	r1, [r4, #8]	@ float
 403 000e 0646     		mov	r6, r0
 404 0010 6068     		ldr	r0, [r4, #4]	@ float
 405 0012 A847     		blx	r5
 406              	.LVL40:
 407 0014 034B     		ldr	r3, .L27+4
 408 0016 0146     		mov	r1, r0
 409 0018 3046     		mov	r0, r6
 410 001a 9847     		blx	r3
 411              	.LVL41:
 412              	.LBE165:
 413              	.LBE164:
 414              	.LBE163:
 415              		.loc 2 1260 0
 416 001c 70BD     		pop	{r4, r5, r6, pc}
 417              	.LVL42:
 418              	.L28:
 419 001e 00BF     		.align	2
 420              	.L27:
 421 0020 00000000 		.word	__aeabi_fmul
 422 0024 00000000 		.word	__aeabi_fsub
 423              		.cfi_endproc
 424              	.LFE3558:
 426              		.global	__aeabi_dmul
 427              		.global	__aeabi_dsub
 428              		.section	.text._ZN4ltaf11determinantIdLi2ELb1EEET_RKNS_6MatrixIS1_XT0_EXT0_EXT1_EEE,"axG",%progbit
 429              		.align	1
 430              		.weak	_ZN4ltaf11determinantIdLi2ELb1EEET_RKNS_6MatrixIS1_XT0_EXT0_EXT1_EEE
 431              		.thumb
 432              		.thumb_func
 434              	_ZN4ltaf11determinantIdLi2ELb1EEET_RKNS_6MatrixIS1_XT0_EXT0_EXT1_EEE:
 435              	.LFB3561:
1256:/home/tienluong/workspace/atlantis_fw/AsicFwS2/include/matrix.h **** {
 436              		.loc 2 1256 0
 437              		.cfi_startproc
 438              		@ args = 0, pretend = 0, frame = 0
 439              		@ frame_needed = 0, uses_anonymous_args = 0
 440              	.LVL43:
 441 0000 F8B5     		push	{r3, r4, r5, r6, r7, lr}
 442              	.LCFI8:
 443              		.cfi_def_cfa_offset 24
 444              		.cfi_offset 3, -24
 445              		.cfi_offset 4, -20
 446              		.cfi_offset 5, -16
 447              		.cfi_offset 6, -12
 448              		.cfi_offset 7, -8
 449              		.cfi_offset 14, -4
1256:/home/tienluong/workspace/atlantis_fw/AsicFwS2/include/matrix.h **** {
 450              		.loc 2 1256 0
 451 0002 0446     		mov	r4, r0
 452              	.LBB171:
 453              	.LBB172:
 454              	.LBB173:
1062:/home/tienluong/workspace/atlantis_fw/AsicFwS2/include/matrix.h ****     }
 455              		.loc 2 1062 0
 456 0004 094D     		ldr	r5, .L30
 457 0006 D0E90001 		ldrd	r0, [r0]
 458              	.LVL44:
 459 000a D4E90623 		ldrd	r2, [r4, #24]
 460 000e A847     		blx	r5
 461              	.LVL45:
 462 0010 D4E90423 		ldrd	r2, [r4, #16]
 463 0014 0646     		mov	r6, r0
 464 0016 0F46     		mov	r7, r1
 465 0018 D4E90201 		ldrd	r0, [r4, #8]
 466 001c A847     		blx	r5
 467              	.LVL46:
 468 001e 044C     		ldr	r4, .L30+4
 469              	.LVL47:
 470 0020 0246     		mov	r2, r0
 471 0022 0B46     		mov	r3, r1
 472 0024 3046     		mov	r0, r6
 473 0026 3946     		mov	r1, r7
 474 0028 A047     		blx	r4
 475              	.LVL48:
 476              	.LBE173:
 477              	.LBE172:
 478              	.LBE171:
 479              		.loc 2 1260 0
 480 002a F8BD     		pop	{r3, r4, r5, r6, r7, pc}
 481              	.L31:
 482              		.align	2
 483              	.L30:
 484 002c 00000000 		.word	__aeabi_dmul
 485 0030 00000000 		.word	__aeabi_dsub
 486              		.cfi_endproc
 487              	.LFE3561:
 489              		.section	.text._ZN4ltaf11determinantIdLi2ELb0EEET_RKNS_6MatrixIS1_XT0_EXT0_EXT1_EEE,"axG",%progbit
 490              		.align	1
 491              		.weak	_ZN4ltaf11determinantIdLi2ELb0EEET_RKNS_6MatrixIS1_XT0_EXT0_EXT1_EEE
 492              		.thumb
 493              		.thumb_func
 495              	_ZN4ltaf11determinantIdLi2ELb0EEET_RKNS_6MatrixIS1_XT0_EXT0_EXT1_EEE:
 496              	.LFB3564:
1256:/home/tienluong/workspace/atlantis_fw/AsicFwS2/include/matrix.h **** {
 497              		.loc 2 1256 0
 498              		.cfi_startproc
 499              		@ args = 0, pretend = 0, frame = 0
 500              		@ frame_needed = 0, uses_anonymous_args = 0
 501              	.LVL49:
 502 0000 F8B5     		push	{r3, r4, r5, r6, r7, lr}
 503              	.LCFI9:
 504              		.cfi_def_cfa_offset 24
 505              		.cfi_offset 3, -24
 506              		.cfi_offset 4, -20
 507              		.cfi_offset 5, -16
 508              		.cfi_offset 6, -12
 509              		.cfi_offset 7, -8
 510              		.cfi_offset 14, -4
1256:/home/tienluong/workspace/atlantis_fw/AsicFwS2/include/matrix.h **** {
 511              		.loc 2 1256 0
 512 0002 0446     		mov	r4, r0
 513              	.LBB179:
 514              	.LBB180:
 515              	.LBB181:
1062:/home/tienluong/workspace/atlantis_fw/AsicFwS2/include/matrix.h ****     }
 516              		.loc 2 1062 0
 517 0004 094D     		ldr	r5, .L33
 518 0006 D0E90001 		ldrd	r0, [r0]
 519              	.LVL50:
 520 000a D4E90623 		ldrd	r2, [r4, #24]
 521 000e A847     		blx	r5
 522              	.LVL51:
 523 0010 D4E90423 		ldrd	r2, [r4, #16]
 524 0014 0646     		mov	r6, r0
 525 0016 0F46     		mov	r7, r1
 526 0018 D4E90201 		ldrd	r0, [r4, #8]
 527 001c A847     		blx	r5
 528              	.LVL52:
 529 001e 044C     		ldr	r4, .L33+4
 530              	.LVL53:
 531 0020 0246     		mov	r2, r0
 532 0022 0B46     		mov	r3, r1
 533 0024 3046     		mov	r0, r6
 534 0026 3946     		mov	r1, r7
 535 0028 A047     		blx	r4
 536              	.LVL54:
 537              	.LBE181:
 538              	.LBE180:
 539              	.LBE179:
 540              		.loc 2 1260 0
 541 002a F8BD     		pop	{r3, r4, r5, r6, r7, pc}
 542              	.L34:
 543              		.align	2
 544              	.L33:
 545 002c 00000000 		.word	__aeabi_dmul
 546 0030 00000000 		.word	__aeabi_dsub
 547              		.cfi_endproc
 548              	.LFE3564:
 550              		.section	.text._ZN20optical_zoom_managerC2Ev,"ax",%progbits
 551              		.align	1
 552              		.global	_ZN20optical_zoom_managerC2Ev
 553              		.thumb
 554              		.thumb_func
 556              	_ZN20optical_zoom_managerC2Ev:
 557              	.LFB3506:
  30:/home/tienluong/workspace/atlantis_fw/AsicFwS2/src/optical_zoom_manager.cpp ****         mirror_move_done_sem_{nullptr} {
 558              		.loc 1 30 0
 559              		.cfi_startproc
 560              		@ args = 0, pretend = 0, frame = 0
 561              		@ frame_needed = 0, uses_anonymous_args = 0
 562              		@ link register save eliminated.
 563              	.LVL55:
 564              	.LBB182:
  31:/home/tienluong/workspace/atlantis_fw/AsicFwS2/src/optical_zoom_manager.cpp **** }
 565              		.loc 1 31 0
 566 0000 0022     		movs	r2, #0
 567 0002 0260     		str	r2, [r0]
 568 0004 0271     		strb	r2, [r0, #4]
 569              	.LBE182:
  32:/home/tienluong/workspace/atlantis_fw/AsicFwS2/src/optical_zoom_manager.cpp **** 
 570              		.loc 1 32 0
 571 0006 7047     		bx	lr
 572              		.cfi_endproc
 573              	.LFE3506:
 575              		.global	_ZN20optical_zoom_managerC1Ev
 576              		.thumb_set _ZN20optical_zoom_managerC1Ev,_ZN20optical_zoom_managerC2Ev
 577              		.section	.text._ZN20optical_zoom_manager10initializeEv,"ax",%progbits
 578              		.align	1
 579              		.global	_ZN20optical_zoom_manager10initializeEv
 580              		.thumb
 581              		.thumb_func
 583              	_ZN20optical_zoom_manager10initializeEv:
 584              	.LFB3511:
  39:/home/tienluong/workspace/atlantis_fw/AsicFwS2/src/optical_zoom_manager.cpp ****     mirror_move_done_sem_ = xSemaphoreCreateCounting(MAX_NUM_MIRROR , 0);
 585              		.loc 1 39 0
 586              		.cfi_startproc
 587              		@ args = 0, pretend = 0, frame = 0
 588              		@ frame_needed = 0, uses_anonymous_args = 0
 589              	.LVL56:
 590 0000 10B5     		push	{r4, lr}
 591              	.LCFI10:
 592              		.cfi_def_cfa_offset 8
 593              		.cfi_offset 4, -8
 594              		.cfi_offset 14, -4
  40:/home/tienluong/workspace/atlantis_fw/AsicFwS2/src/optical_zoom_manager.cpp **** }
 595              		.loc 1 40 0
 596 0002 0021     		movs	r1, #0
  39:/home/tienluong/workspace/atlantis_fw/AsicFwS2/src/optical_zoom_manager.cpp ****     mirror_move_done_sem_ = xSemaphoreCreateCounting(MAX_NUM_MIRROR , 0);
 597              		.loc 1 39 0
 598 0004 0446     		mov	r4, r0
  40:/home/tienluong/workspace/atlantis_fw/AsicFwS2/src/optical_zoom_manager.cpp **** }
 599              		.loc 1 40 0
 600 0006 0620     		movs	r0, #6
 601              	.LVL57:
 602 0008 014B     		ldr	r3, .L37
 603 000a 9847     		blx	r3
 604              	.LVL58:
 605 000c 2060     		str	r0, [r4]
 606 000e 10BD     		pop	{r4, pc}
 607              	.LVL59:
 608              	.L38:
 609              		.align	2
 610              	.L37:
 611 0010 00000000 		.word	xQueueCreateCountingSemaphore
 612              		.cfi_endproc
 613              	.LFE3511:
 615              		.section	.text.initialize_optical_zoom_manager,"ax",%progbits
 616              		.align	1
 617              		.global	initialize_optical_zoom_manager
 618              		.thumb
 619              		.thumb_func
 621              	initialize_optical_zoom_manager:
 622              	.LFB3504:
  24:/home/tienluong/workspace/atlantis_fw/AsicFwS2/src/optical_zoom_manager.cpp ****     optical_zoom_manager::instance().initialize();
 623              		.loc 1 24 0
 624              		.cfi_startproc
 625              		@ args = 0, pretend = 0, frame = 0
 626              		@ frame_needed = 0, uses_anonymous_args = 0
 627 0000 08B5     		push	{r3, lr}
 628              	.LCFI11:
 629              		.cfi_def_cfa_offset 8
 630              		.cfi_offset 3, -8
 631              		.cfi_offset 14, -4
  25:/home/tienluong/workspace/atlantis_fw/AsicFwS2/src/optical_zoom_manager.cpp **** }
 632              		.loc 1 25 0
 633 0002 0248     		ldr	r0, .L40
 634 0004 024B     		ldr	r3, .L40+4
 635 0006 9847     		blx	r3
 636              	.LVL60:
 637 0008 08BD     		pop	{r3, pc}
 638              	.L41:
 639 000a 00BF     		.align	2
 640              	.L40:
 641 000c 00000000 		.word	.LANCHOR0
 642 0010 00000000 		.word	_ZN20optical_zoom_manager10initializeEv
 643              		.cfi_endproc
 644              	.LFE3504:
 646              		.section	.text._ZN20optical_zoom_manager23check_start_mirror_moveEhs,"ax",%progbits
 647              		.align	1
 648              		.global	_ZN20optical_zoom_manager23check_start_mirror_moveEhs
 649              		.thumb
 650              		.thumb_func
 652              	_ZN20optical_zoom_manager23check_start_mirror_moveEhs:
 653              	.LFB3513:
  47:/home/tienluong/workspace/atlantis_fw/AsicFwS2/src/optical_zoom_manager.cpp ****     }
  48:/home/tienluong/workspace/atlantis_fw/AsicFwS2/src/optical_zoom_manager.cpp **** }
  49:/home/tienluong/workspace/atlantis_fw/AsicFwS2/src/optical_zoom_manager.cpp **** 
  50:/home/tienluong/workspace/atlantis_fw/AsicFwS2/src/optical_zoom_manager.cpp **** bool optical_zoom_manager::check_start_mirror_move(std::uint8_t module, std::int16_t hc) {
 654              		.loc 1 50 0
 655              		.cfi_startproc
 656              		@ args = 0, pretend = 0, frame = 0
 657              		@ frame_needed = 0, uses_anonymous_args = 0
 658              	.LVL61:
 659 0000 F7B5     		push	{r0, r1, r2, r4, r5, r6, r7, lr}
 660              	.LCFI12:
 661              		.cfi_def_cfa_offset 32
 662              		.cfi_offset 4, -20
 663              		.cfi_offset 5, -16
 664              		.cfi_offset 6, -12
 665              		.cfi_offset 7, -8
 666              		.cfi_offset 14, -4
 667              	.LBB191:
  51:/home/tienluong/workspace/atlantis_fw/AsicFwS2/src/optical_zoom_manager.cpp ****     if (hc < 0) {
 668              		.loc 1 51 0
 669 0002 161E     		subs	r6, r2, #0
 670              	.LBE191:
  50:/home/tienluong/workspace/atlantis_fw/AsicFwS2/src/optical_zoom_manager.cpp ****     if (hc < 0) {
 671              		.loc 1 50 0
 672 0004 0546     		mov	r5, r0
 673 0006 0B46     		mov	r3, r1
 674              	.LBB194:
 675              		.loc 1 51 0
 676 0008 06DA     		bge	.L43
 677              	.LVL62:
 678              	.LBE194:
 679              	.LBB195:
 680              	.LBB196:
  52:/home/tienluong/workspace/atlantis_fw/AsicFwS2/src/optical_zoom_manager.cpp ****         SLOGF(SLOG_ERROR, "Will not move mirror %02X as optical zoom computation failed", module);
 681              		.loc 1 52 0
 682 000a 2B20     		movs	r0, #43
 683              	.LVL63:
 684 000c 0221     		movs	r1, #2
 685              	.LVL64:
 686 000e 154A     		ldr	r2, .L46
 687              	.LVL65:
 688 0010 154C     		ldr	r4, .L46+4
 689 0012 A047     		blx	r4
 690              	.LVL66:
 691 0014 0020     		movs	r0, #0
 692 0016 23E0     		b	.L44
 693              	.LVL67:
 694              	.L43:
 695              	.LBE196:
 696              	.LBE195:
 697              	.LBB197:
  53:/home/tienluong/workspace/atlantis_fw/AsicFwS2/src/optical_zoom_manager.cpp ****         return false;
  54:/home/tienluong/workspace/atlantis_fw/AsicFwS2/src/optical_zoom_manager.cpp ****     }
  55:/home/tienluong/workspace/atlantis_fw/AsicFwS2/src/optical_zoom_manager.cpp ****     std::uint32_t mf = light_system->m_filter;
 698              		.loc 1 55 0
 699 0018 144A     		ldr	r2, .L46+8
 700              	.LVL68:
  56:/home/tienluong/workspace/atlantis_fw/AsicFwS2/src/optical_zoom_manager.cpp ****     std::uint8_t idx = module_to_idx(module);
 701              		.loc 1 56 0
 702 001a 0846     		mov	r0, r1
 703              	.LVL69:
 704 001c 144B     		ldr	r3, .L46+12
  55:/home/tienluong/workspace/atlantis_fw/AsicFwS2/src/optical_zoom_manager.cpp ****     std::uint8_t idx = module_to_idx(module);
 705              		.loc 1 55 0
 706 001e 1268     		ldr	r2, [r2]
 707 0020 9469     		ldr	r4, [r2, #24]
 708              	.LVL70:
 709              		.loc 1 56 0
 710 0022 9847     		blx	r3
 711              	.LVL71:
 712              	.LBB192:
  57:/home/tienluong/workspace/atlantis_fw/AsicFwS2/src/optical_zoom_manager.cpp ****     if (((mf >> idx) & 1) != 0) {
 713              		.loc 1 57 0
 714 0024 24FA00F3 		lsr	r3, r4, r0
 715 0028 13F00103 		ands	r3, r3, #1
 716 002c 17D0     		beq	.L45
 717              	.LBB193:
  58:/home/tienluong/workspace/atlantis_fw/AsicFwS2/src/optical_zoom_manager.cpp ****         cam_typedef_t* pcam = idx_to_object(idx);
 718              		.loc 1 58 0
 719 002e 114B     		ldr	r3, .L46+16
 720 0030 9847     		blx	r3
 721              	.LVL72:
  59:/home/tienluong/workspace/atlantis_fw/AsicFwS2/src/optical_zoom_manager.cpp ****         SLOGF(SLOG_DEBUG, "Requesting to move mirror %02X to %d", pcam->info.module, hc);
 722              		.loc 1 59 0
 723 0032 0D4F     		ldr	r7, .L46+4
 724 0034 1021     		movs	r1, #16
 725 0036 104A     		ldr	r2, .L46+20
 726 0038 90F82930 		ldrb	r3, [r0, #41]	@ zero_extendqisi2
  58:/home/tienluong/workspace/atlantis_fw/AsicFwS2/src/optical_zoom_manager.cpp ****         cam_typedef_t* pcam = idx_to_object(idx);
 727              		.loc 1 58 0
 728 003c 0446     		mov	r4, r0
 729              	.LVL73:
 730              		.loc 1 59 0
 731 003e 0096     		str	r6, [sp]
 732 0040 2B20     		movs	r0, #43
 733              	.LVL74:
 734 0042 B847     		blx	r7
 735              	.LVL75:
  60:/home/tienluong/workspace/atlantis_fw/AsicFwS2/src/optical_zoom_manager.cpp ****         cam_move_mirr_to_position(pcam, hc, &move_mirror_callback, &mirror_move_done_sem_, 0);
 736              		.loc 1 60 0
 737 0044 0023     		movs	r3, #0
 738 0046 2046     		mov	r0, r4
 739 0048 B1B2     		uxth	r1, r6
 740 004a 0093     		str	r3, [sp]
 741 004c 2B46     		mov	r3, r5
 742 004e 0B4A     		ldr	r2, .L46+24
 743 0050 0B4C     		ldr	r4, .L46+28
 744              	.LVL76:
 745 0052 A047     		blx	r4
 746              	.LVL77:
  61:/home/tienluong/workspace/atlantis_fw/AsicFwS2/src/optical_zoom_manager.cpp ****         ++num_mirrors_moving_;
 747              		.loc 1 61 0
 748 0054 2B79     		ldrb	r3, [r5, #4]	@ zero_extendqisi2
 749 0056 0133     		adds	r3, r3, #1
  62:/home/tienluong/workspace/atlantis_fw/AsicFwS2/src/optical_zoom_manager.cpp ****         return true;
 750              		.loc 1 62 0
 751 0058 0120     		movs	r0, #1
  61:/home/tienluong/workspace/atlantis_fw/AsicFwS2/src/optical_zoom_manager.cpp ****         ++num_mirrors_moving_;
 752              		.loc 1 61 0
 753 005a 2B71     		strb	r3, [r5, #4]
 754              		.loc 1 62 0
 755 005c 00E0     		b	.L44
 756              	.LVL78:
 757              	.L45:
 758              	.LBE193:
 759              	.LBE192:
  63:/home/tienluong/workspace/atlantis_fw/AsicFwS2/src/optical_zoom_manager.cpp ****     }
  64:/home/tienluong/workspace/atlantis_fw/AsicFwS2/src/optical_zoom_manager.cpp ****     return false;
 760              		.loc 1 64 0
 761 005e 1846     		mov	r0, r3
 762              	.LVL79:
 763              	.L44:
 764              	.LBE197:
  65:/home/tienluong/workspace/atlantis_fw/AsicFwS2/src/optical_zoom_manager.cpp **** }
 765              		.loc 1 65 0
 766 0060 03B0     		add	sp, sp, #12
 767              	.LCFI13:
 768              		.cfi_def_cfa_offset 20
 769              		@ sp needed
 770 0062 F0BD     		pop	{r4, r5, r6, r7, pc}
 771              	.LVL80:
 772              	.L47:
 773              		.align	2
 774              	.L46:
 775 0064 00000000 		.word	.LC0
 776 0068 00000000 		.word	slogf
 777 006c 00000000 		.word	light_system
 778 0070 00000000 		.word	module_to_idx
 779 0074 00000000 		.word	idx_to_object
 780 0078 3D000000 		.word	.LC1
 781 007c 00000000 		.word	_ZN12_GLOBAL__N_120move_mirror_callbackEPv
 782 0080 00000000 		.word	cam_move_mirr_to_position
 783              		.cfi_endproc
 784              	.LFE3513:
 786              		.global	__aeabi_fcmpge
 787              		.section	.text._ZN20optical_zoom_manager18start_mirrors_moveEv,"ax",%progbits
 788              		.align	1
 789              		.global	_ZN20optical_zoom_manager18start_mirrors_moveEv
 790              		.thumb
 791              		.thumb_func
 793              	_ZN20optical_zoom_manager18start_mirrors_moveEv:
 794              	.LFB3514:
  66:/home/tienluong/workspace/atlantis_fw/AsicFwS2/src/optical_zoom_manager.cpp **** 
  67:/home/tienluong/workspace/atlantis_fw/AsicFwS2/src/optical_zoom_manager.cpp **** void optical_zoom_manager::start_mirrors_move() {
 795              		.loc 1 67 0
 796              		.cfi_startproc
 797              		@ args = 0, pretend = 0, frame = 16
 798              		@ frame_needed = 0, uses_anonymous_args = 0
 799              	.LVL81:
 800 0000 7FB5     		push	{r0, r1, r2, r3, r4, r5, r6, lr}
 801              	.LCFI14:
 802              		.cfi_def_cfa_offset 32
 803              		.cfi_offset 4, -16
 804              		.cfi_offset 5, -12
 805              		.cfi_offset 6, -8
 806              		.cfi_offset 14, -4
 807              	.LBB198:
  68:/home/tienluong/workspace/atlantis_fw/AsicFwS2/src/optical_zoom_manager.cpp ****     // Get mirror hall codes from zoom factor
  69:/home/tienluong/workspace/atlantis_fw/AsicFwS2/src/optical_zoom_manager.cpp ****     const ltaf::OpticalZoomASIC& oz = calib_data_manager::instance().optical_zoom();
 808              		.loc 1 69 0
 809 0002 214B     		ldr	r3, .L52
 810              	.LBE198:
  67:/home/tienluong/workspace/atlantis_fw/AsicFwS2/src/optical_zoom_manager.cpp ****     // Get mirror hall codes from zoom factor
 811              		.loc 1 67 0
 812 0004 0546     		mov	r5, r0
 813              	.LBB199:
 814              		.loc 1 69 0
 815 0006 9847     		blx	r3
 816              	.LVL82:
  70:/home/tienluong/workspace/atlantis_fw/AsicFwS2/src/optical_zoom_manager.cpp ****     float focal_length = light_system->settings->zoom_factor * 28.0f;
 817              		.loc 1 70 0
 818 0008 204B     		ldr	r3, .L52+4
 819 000a 2149     		ldr	r1, .L52+8
 820 000c 1B68     		ldr	r3, [r3]
 821 000e 9B68     		ldr	r3, [r3, #8]
  69:/home/tienluong/workspace/atlantis_fw/AsicFwS2/src/optical_zoom_manager.cpp ****     float focal_length = light_system->settings->zoom_factor * 28.0f;
 822              		.loc 1 69 0
 823 0010 0446     		mov	r4, r0
 824              	.LVL83:
 825              		.loc 1 70 0
 826 0012 D3F8A000 		ldr	r0, [r3, #160]	@ float
 827              	.LVL84:
 828 0016 1F4B     		ldr	r3, .L52+12
 829 0018 9847     		blx	r3
 830              	.LVL85:
  71:/home/tienluong/workspace/atlantis_fw/AsicFwS2/src/optical_zoom_manager.cpp ****     std::int16_t mirror_hc[ltaf::kNumMirrorModules];
  72:/home/tienluong/workspace/atlantis_fw/AsicFwS2/src/optical_zoom_manager.cpp ****     oz.getHallCodesByFocalLength(focal_length, mirror_hc);
 831              		.loc 1 72 0
 832 001a 1F4B     		ldr	r3, .L52+16
 833 001c 6A46     		mov	r2, sp
  70:/home/tienluong/workspace/atlantis_fw/AsicFwS2/src/optical_zoom_manager.cpp ****     std::int16_t mirror_hc[ltaf::kNumMirrorModules];
 834              		.loc 1 70 0
 835 001e 0646     		mov	r6, r0
 836              	.LVL86:
 837              		.loc 1 72 0
 838 0020 04F15000 		add	r0, r4, #80
 839              	.LVL87:
 840 0024 3146     		mov	r1, r6
 841 0026 9847     		blx	r3
 842              	.LVL88:
  73:/home/tienluong/workspace/atlantis_fw/AsicFwS2/src/optical_zoom_manager.cpp ****     // Start moving mirrors
  74:/home/tienluong/workspace/atlantis_fw/AsicFwS2/src/optical_zoom_manager.cpp ****     // Always move Bs
  75:/home/tienluong/workspace/atlantis_fw/AsicFwS2/src/optical_zoom_manager.cpp ****     check_start_mirror_move(0xB1, mirror_hc[0]);
 843              		.loc 1 75 0
 844 0028 1C4C     		ldr	r4, .L52+20
 845              	.LVL89:
 846 002a B121     		movs	r1, #177
 847 002c BDF90020 		ldrsh	r2, [sp]
 848 0030 2846     		mov	r0, r5
 849 0032 A047     		blx	r4
 850              	.LVL90:
  76:/home/tienluong/workspace/atlantis_fw/AsicFwS2/src/optical_zoom_manager.cpp ****     check_start_mirror_move(0xB2, mirror_hc[1]);
 851              		.loc 1 76 0
 852 0034 B221     		movs	r1, #178
 853 0036 BDF90220 		ldrsh	r2, [sp, #2]
 854 003a 2846     		mov	r0, r5
 855 003c A047     		blx	r4
 856              	.LVL91:
  77:/home/tienluong/workspace/atlantis_fw/AsicFwS2/src/optical_zoom_manager.cpp ****     check_start_mirror_move(0xB3, mirror_hc[2]);
 857              		.loc 1 77 0
 858 003e B321     		movs	r1, #179
 859 0040 BDF90420 		ldrsh	r2, [sp, #4]
 860 0044 2846     		mov	r0, r5
 861 0046 A047     		blx	r4
 862              	.LVL92:
  78:/home/tienluong/workspace/atlantis_fw/AsicFwS2/src/optical_zoom_manager.cpp ****     check_start_mirror_move(0xB5, mirror_hc[3]);
 863              		.loc 1 78 0
 864 0048 B521     		movs	r1, #181
 865 004a 2846     		mov	r0, r5
 866 004c BDF90620 		ldrsh	r2, [sp, #6]
 867 0050 A047     		blx	r4
 868              	.LVL93:
  79:/home/tienluong/workspace/atlantis_fw/AsicFwS2/src/optical_zoom_manager.cpp ****     if (focal_length >= 70.0f) {
 869              		.loc 1 79 0
 870 0052 3046     		mov	r0, r6
 871 0054 1249     		ldr	r1, .L52+24
 872 0056 134B     		ldr	r3, .L52+28
 873 0058 9847     		blx	r3
 874              	.LVL94:
 875 005a 98B1     		cbz	r0, .L48
  80:/home/tienluong/workspace/atlantis_fw/AsicFwS2/src/optical_zoom_manager.cpp ****         // BC mode, also move Cs
  81:/home/tienluong/workspace/atlantis_fw/AsicFwS2/src/optical_zoom_manager.cpp ****         check_start_mirror_move(0xC1, mirror_hc[4]);
 876              		.loc 1 81 0
 877 005c C121     		movs	r1, #193
 878 005e BDF90820 		ldrsh	r2, [sp, #8]
 879 0062 2846     		mov	r0, r5
 880 0064 A047     		blx	r4
 881              	.LVL95:
  82:/home/tienluong/workspace/atlantis_fw/AsicFwS2/src/optical_zoom_manager.cpp ****         check_start_mirror_move(0xC2, mirror_hc[5]);
 882              		.loc 1 82 0
 883 0066 C221     		movs	r1, #194
 884 0068 BDF90A20 		ldrsh	r2, [sp, #10]
 885 006c 2846     		mov	r0, r5
 886 006e A047     		blx	r4
 887              	.LVL96:
  83:/home/tienluong/workspace/atlantis_fw/AsicFwS2/src/optical_zoom_manager.cpp ****         check_start_mirror_move(0xC3, mirror_hc[6]);
 888              		.loc 1 83 0
 889 0070 C321     		movs	r1, #195
 890 0072 BDF90C20 		ldrsh	r2, [sp, #12]
 891 0076 2846     		mov	r0, r5
 892 0078 A047     		blx	r4
 893              	.LVL97:
  84:/home/tienluong/workspace/atlantis_fw/AsicFwS2/src/optical_zoom_manager.cpp ****         check_start_mirror_move(0xC4, mirror_hc[7]);
 894              		.loc 1 84 0
 895 007a 2846     		mov	r0, r5
 896 007c C421     		movs	r1, #196
 897 007e BDF90E20 		ldrsh	r2, [sp, #14]
 898 0082 A047     		blx	r4
 899              	.LVL98:
 900              	.L48:
 901              	.LBE199:
  85:/home/tienluong/workspace/atlantis_fw/AsicFwS2/src/optical_zoom_manager.cpp ****     }
  86:/home/tienluong/workspace/atlantis_fw/AsicFwS2/src/optical_zoom_manager.cpp **** }
 902              		.loc 1 86 0
 903 0084 04B0     		add	sp, sp, #16
 904              	.LCFI15:
 905              		.cfi_def_cfa_offset 16
 906              		@ sp needed
 907 0086 70BD     		pop	{r4, r5, r6, pc}
 908              	.LVL99:
 909              	.L53:
 910              		.align	2
 911              	.L52:
 912 0088 00000000 		.word	_ZN18calib_data_manager8instanceEv
 913 008c 00000000 		.word	light_system
 914 0090 0000E041 		.word	1105199104
 915 0094 00000000 		.word	__aeabi_fmul
 916 0098 00000000 		.word	_ZNK4ltaf15OpticalZoomASIC25getHallCodesByFocalLengthEfPs
 917 009c 00000000 		.word	_ZN20optical_zoom_manager23check_start_mirror_moveEhs
 918 00a0 00008C42 		.word	1116471296
 919 00a4 00000000 		.word	__aeabi_fcmpge
 920              		.cfi_endproc
 921              	.LFE3514:
 923              		.section	.text._ZN20optical_zoom_manager26wait_for_mirrors_move_doneEv,"ax",%progbits
 924              		.align	1
 925              		.global	_ZN20optical_zoom_manager26wait_for_mirrors_move_doneEv
 926              		.thumb
 927              		.thumb_func
 929              	_ZN20optical_zoom_manager26wait_for_mirrors_move_doneEv:
 930              	.LFB3515:
  87:/home/tienluong/workspace/atlantis_fw/AsicFwS2/src/optical_zoom_manager.cpp **** 
  88:/home/tienluong/workspace/atlantis_fw/AsicFwS2/src/optical_zoom_manager.cpp **** void optical_zoom_manager::wait_for_mirrors_move_done() {
 931              		.loc 1 88 0
 932              		.cfi_startproc
 933              		@ args = 0, pretend = 0, frame = 0
 934              		@ frame_needed = 0, uses_anonymous_args = 0
 935              	.LVL100:
 936 0000 70B5     		push	{r4, r5, r6, lr}
 937              	.LCFI16:
 938              		.cfi_def_cfa_offset 16
 939              		.cfi_offset 4, -16
 940              		.cfi_offset 5, -12
 941              		.cfi_offset 6, -8
 942              		.cfi_offset 14, -4
 943              		.loc 1 88 0
 944 0002 0446     		mov	r4, r0
 945              	.LBB200:
 946              	.LBB201:
  89:/home/tienluong/workspace/atlantis_fw/AsicFwS2/src/optical_zoom_manager.cpp ****     for (std::uint8_t i = 0; i < num_mirrors_moving_; ++i) {
 947              		.loc 1 89 0
 948 0004 0025     		movs	r5, #0
 949              	.LVL101:
 950              	.L55:
 951 0006 EBB2     		uxtb	r3, r5
 952              		.loc 1 89 0 is_stmt 0 discriminator 1
 953 0008 2279     		ldrb	r2, [r4, #4]	@ zero_extendqisi2
 954 000a 9A42     		cmp	r2, r3
 955 000c 05F10105 		add	r5, r5, #1
 956 0010 07D9     		bls	.L57
  90:/home/tienluong/workspace/atlantis_fw/AsicFwS2/src/optical_zoom_manager.cpp ****         xSemaphoreTake(mirror_move_done_sem_, portMAX_DELAY);
 957              		.loc 1 90 0 is_stmt 1 discriminator 3
 958 0012 0021     		movs	r1, #0
 959 0014 2068     		ldr	r0, [r4]
 960 0016 4FF0FF32 		mov	r2, #-1
 961 001a 0B46     		mov	r3, r1
 962 001c 024E     		ldr	r6, .L58
 963 001e B047     		blx	r6
 964              	.LVL102:
 965 0020 F1E7     		b	.L55
 966              	.LVL103:
 967              	.L57:
 968              	.LBE201:
  91:/home/tienluong/workspace/atlantis_fw/AsicFwS2/src/optical_zoom_manager.cpp ****     }
  92:/home/tienluong/workspace/atlantis_fw/AsicFwS2/src/optical_zoom_manager.cpp ****     num_mirrors_moving_ = 0;
 969              		.loc 1 92 0
 970 0022 0023     		movs	r3, #0
 971 0024 2371     		strb	r3, [r4, #4]
 972 0026 70BD     		pop	{r4, r5, r6, pc}
 973              	.LVL104:
 974              	.L59:
 975              		.align	2
 976              	.L58:
 977 0028 00000000 		.word	xQueueGenericReceive
 978              	.LBE200:
 979              		.cfi_endproc
 980              	.LFE3515:
 982              		.global	__aeabi_fadd
 983              		.section	.text._ZNK4ltaf20SquareMatrixInverterIfLi3EE3runEPf,"axG",%progbits,_ZNK4ltaf20SquareMatr
 984              		.align	1
 985              		.weak	_ZNK4ltaf20SquareMatrixInverterIfLi3EE3runEPf
 986              		.thumb
 987              		.thumb_func
 989              	_ZNK4ltaf20SquareMatrixInverterIfLi3EE3runEPf:
 990              	.LFB3651:
1140:/home/tienluong/workspace/atlantis_fw/AsicFwS2/include/matrix.h ****     {
 991              		.loc 2 1140 0
 992              		.cfi_startproc
 993              		@ args = 0, pretend = 0, frame = 72
 994              		@ frame_needed = 0, uses_anonymous_args = 0
 995              	.LVL105:
 996 0000 2DE9F04F 		push	{r4, r5, r6, r7, r8, r9, r10, fp, lr}
 997              	.LCFI17:
 998              		.cfi_def_cfa_offset 36
 999              		.cfi_offset 4, -36
 1000              		.cfi_offset 5, -32
 1001              		.cfi_offset 6, -28
 1002              		.cfi_offset 7, -24
 1003              		.cfi_offset 8, -20
 1004              		.cfi_offset 9, -16
 1005              		.cfi_offset 10, -12
 1006              		.cfi_offset 11, -8
 1007              		.cfi_offset 14, -4
 1008 0004 93B0     		sub	sp, sp, #76
 1009              	.LCFI18:
 1010              		.cfi_def_cfa_offset 112
 1011              	.LBB202:
1142:/home/tienluong/workspace/atlantis_fw/AsicFwS2/include/matrix.h ****                       - mat[1] * ( mat[3] * mat[8] - mat[5] * mat[6] )
 1012              		.loc 2 1142 0
 1013 0006 0B69     		ldr	r3, [r1, #16]	@ float
 1014              	.LBE202:
1140:/home/tienluong/workspace/atlantis_fw/AsicFwS2/include/matrix.h ****     {
 1015              		.loc 2 1140 0
 1016 0008 8946     		mov	r9, r1
 1017              	.LBB205:
1142:/home/tienluong/workspace/atlantis_fw/AsicFwS2/include/matrix.h ****                       - mat[1] * ( mat[3] * mat[8] - mat[5] * mat[6] )
 1018              		.loc 2 1142 0
 1019 000a D1F820A0 		ldr	r10, [r1, #32]	@ float
 1020 000e 0093     		str	r3, [sp]	@ float
 1021 0010 CB69     		ldr	r3, [r1, #28]	@ float
1144:/home/tienluong/workspace/atlantis_fw/AsicFwS2/include/matrix.h **** 
 1022              		.loc 2 1144 0
 1023 0012 554C     		ldr	r4, .L63
1142:/home/tienluong/workspace/atlantis_fw/AsicFwS2/include/matrix.h ****                       - mat[1] * ( mat[3] * mat[8] - mat[5] * mat[6] )
 1024              		.loc 2 1142 0
 1025 0014 0F68     		ldr	r7, [r1]	@ float
 1026 0016 0193     		str	r3, [sp, #4]	@ float
1144:/home/tienluong/workspace/atlantis_fw/AsicFwS2/include/matrix.h **** 
 1027              		.loc 2 1144 0
 1028 0018 0098     		ldr	r0, [sp]	@ float
 1029              	.LVL106:
1142:/home/tienluong/workspace/atlantis_fw/AsicFwS2/include/matrix.h ****                       - mat[1] * ( mat[3] * mat[8] - mat[5] * mat[6] )
 1030              		.loc 2 1142 0
 1031 001a 4B69     		ldr	r3, [r1, #20]	@ float
1144:/home/tienluong/workspace/atlantis_fw/AsicFwS2/include/matrix.h **** 
 1032              		.loc 2 1144 0
 1033 001c 5146     		mov	r1, r10
 1034              	.LVL107:
1142:/home/tienluong/workspace/atlantis_fw/AsicFwS2/include/matrix.h ****                       - mat[1] * ( mat[3] * mat[8] - mat[5] * mat[6] )
 1035              		.loc 2 1142 0
 1036 001e 0293     		str	r3, [sp, #8]	@ float
1144:/home/tienluong/workspace/atlantis_fw/AsicFwS2/include/matrix.h **** 
 1037              		.loc 2 1144 0
 1038 0020 A047     		blx	r4
 1039              	.LVL108:
 1040 0022 0299     		ldr	r1, [sp, #8]	@ float
 1041 0024 514D     		ldr	r5, .L63+4
 1042 0026 0646     		mov	r6, r0
 1043 0028 0198     		ldr	r0, [sp, #4]	@ float
 1044 002a A047     		blx	r4
 1045              	.LVL109:
 1046 002c 0146     		mov	r1, r0
 1047 002e 3046     		mov	r0, r6
 1048 0030 A847     		blx	r5
 1049              	.LVL110:
1143:/home/tienluong/workspace/atlantis_fw/AsicFwS2/include/matrix.h ****                       + mat[2] * ( mat[3] * mat[7] - mat[4] * mat[6] );
 1050              		.loc 2 1143 0
 1051 0032 D9F80C30 		ldr	r3, [r9, #12]	@ float
 1052 0036 0393     		str	r3, [sp, #12]	@ float
1144:/home/tienluong/workspace/atlantis_fw/AsicFwS2/include/matrix.h **** 
 1053              		.loc 2 1144 0
 1054 0038 5146     		mov	r1, r10
1143:/home/tienluong/workspace/atlantis_fw/AsicFwS2/include/matrix.h ****                       + mat[2] * ( mat[3] * mat[7] - mat[4] * mat[6] );
 1055              		.loc 2 1143 0
 1056 003a D9F81830 		ldr	r3, [r9, #24]	@ float
 1057 003e 0493     		str	r3, [sp, #16]	@ float
 1058 0040 D9F80460 		ldr	r6, [r9, #4]	@ float
1144:/home/tienluong/workspace/atlantis_fw/AsicFwS2/include/matrix.h **** 
 1059              		.loc 2 1144 0
 1060 0044 8346     		mov	fp, r0
 1061 0046 0398     		ldr	r0, [sp, #12]	@ float
 1062 0048 A047     		blx	r4
 1063              	.LVL111:
 1064 004a 0499     		ldr	r1, [sp, #16]	@ float
 1065 004c 8046     		mov	r8, r0
 1066 004e 0298     		ldr	r0, [sp, #8]	@ float
 1067 0050 A047     		blx	r4
 1068              	.LVL112:
 1069 0052 0146     		mov	r1, r0
 1070 0054 4046     		mov	r0, r8
 1071 0056 A847     		blx	r5
 1072              	.LVL113:
 1073 0058 0199     		ldr	r1, [sp, #4]	@ float
 1074 005a D9F80880 		ldr	r8, [r9, #8]	@ float
 1075 005e 0590     		str	r0, [sp, #20]	@ float
 1076 0060 0398     		ldr	r0, [sp, #12]	@ float
 1077 0062 A047     		blx	r4
 1078              	.LVL114:
 1079 0064 0499     		ldr	r1, [sp, #16]	@ float
 1080 0066 0690     		str	r0, [sp, #24]
 1081 0068 0098     		ldr	r0, [sp]	@ float
 1082 006a A047     		blx	r4
 1083              	.LVL115:
 1084 006c 069A     		ldr	r2, [sp, #24]
 1085 006e 0146     		mov	r1, r0
 1086 0070 1046     		mov	r0, r2
 1087 0072 A847     		blx	r5
 1088              	.LVL116:
 1089 0074 5946     		mov	r1, fp
 1090 0076 0690     		str	r0, [sp, #24]	@ float
 1091              	.LVL117:
 1092 0078 3846     		mov	r0, r7
 1093              	.LVL118:
 1094 007a A047     		blx	r4
 1095              	.LVL119:
 1096 007c 0599     		ldr	r1, [sp, #20]	@ float
 1097 007e 0790     		str	r0, [sp, #28]
 1098 0080 3046     		mov	r0, r6
 1099 0082 A047     		blx	r4
 1100              	.LVL120:
 1101 0084 079A     		ldr	r2, [sp, #28]
 1102 0086 0146     		mov	r1, r0
 1103 0088 1046     		mov	r0, r2
 1104 008a A847     		blx	r5
 1105              	.LVL121:
 1106 008c 0699     		ldr	r1, [sp, #24]	@ float
 1107 008e 0790     		str	r0, [sp, #28]
 1108 0090 4046     		mov	r0, r8
 1109 0092 A047     		blx	r4
 1110              	.LVL122:
 1111 0094 079A     		ldr	r2, [sp, #28]
 1112 0096 0146     		mov	r1, r0
 1113 0098 1046     		mov	r0, r2
 1114 009a 354A     		ldr	r2, .L63+8
 1115 009c 9047     		blx	r2
 1116              	.LVL123:
1146:/home/tienluong/workspace/atlantis_fw/AsicFwS2/include/matrix.h **** 
 1117              		.loc 2 1146 0
 1118 009e 354A     		ldr	r2, .L63+12
1144:/home/tienluong/workspace/atlantis_fw/AsicFwS2/include/matrix.h **** 
 1119              		.loc 2 1144 0
 1120 00a0 0146     		mov	r1, r0
1146:/home/tienluong/workspace/atlantis_fw/AsicFwS2/include/matrix.h **** 
 1121              		.loc 2 1146 0
 1122 00a2 4FF07E50 		mov	r0, #1065353216
 1123 00a6 9047     		blx	r2
 1124              	.LVL124:
1150:/home/tienluong/workspace/atlantis_fw/AsicFwS2/include/matrix.h ****         tmp[2] =  mat[1] * mat[5] - mat[2] * mat[4];
 1125              		.loc 2 1150 0
 1126 00a8 5146     		mov	r1, r10
1149:/home/tienluong/workspace/atlantis_fw/AsicFwS2/include/matrix.h ****         tmp[1] = -( mat[1] * mat[8] - mat[2] * mat[7] );
 1127              		.loc 2 1149 0
 1128 00aa CDF824B0 		str	fp, [sp, #36]	@ float
1146:/home/tienluong/workspace/atlantis_fw/AsicFwS2/include/matrix.h **** 
 1129              		.loc 2 1146 0
 1130 00ae 0790     		str	r0, [sp, #28]	@ float
 1131              	.LVL125:
1150:/home/tienluong/workspace/atlantis_fw/AsicFwS2/include/matrix.h ****         tmp[2] =  mat[1] * mat[5] - mat[2] * mat[4];
 1132              		.loc 2 1150 0
 1133 00b0 3046     		mov	r0, r6
 1134              	.LVL126:
 1135 00b2 A047     		blx	r4
 1136              	.LVL127:
 1137 00b4 0199     		ldr	r1, [sp, #4]	@ float
 1138 00b6 8346     		mov	fp, r0
 1139              	.LVL128:
 1140 00b8 4046     		mov	r0, r8
 1141 00ba A047     		blx	r4
 1142              	.LVL129:
 1143 00bc 0146     		mov	r1, r0
 1144 00be 5846     		mov	r0, fp
 1145 00c0 A847     		blx	r5
 1146              	.LVL130:
1151:/home/tienluong/workspace/atlantis_fw/AsicFwS2/include/matrix.h ****         tmp[3] = -( mat[3] * mat[8] - mat[5] * mat[6] );
 1147              		.loc 2 1151 0
 1148 00c2 0299     		ldr	r1, [sp, #8]	@ float
1150:/home/tienluong/workspace/atlantis_fw/AsicFwS2/include/matrix.h ****         tmp[2] =  mat[1] * mat[5] - mat[2] * mat[4];
 1149              		.loc 2 1150 0
 1150 00c4 00F10040 		add	r0, r0, #-2147483648
 1151 00c8 0A90     		str	r0, [sp, #40]	@ float
1151:/home/tienluong/workspace/atlantis_fw/AsicFwS2/include/matrix.h ****         tmp[3] = -( mat[3] * mat[8] - mat[5] * mat[6] );
 1152              		.loc 2 1151 0
 1153 00ca 3046     		mov	r0, r6
 1154 00cc A047     		blx	r4
 1155              	.LVL131:
 1156 00ce 0099     		ldr	r1, [sp]	@ float
 1157 00d0 8346     		mov	fp, r0
 1158 00d2 4046     		mov	r0, r8
 1159 00d4 A047     		blx	r4
 1160              	.LVL132:
 1161 00d6 0146     		mov	r1, r0
 1162 00d8 5846     		mov	r0, fp
 1163 00da A847     		blx	r5
 1164              	.LVL133:
1152:/home/tienluong/workspace/atlantis_fw/AsicFwS2/include/matrix.h ****         tmp[4] =  mat[0] * mat[8] - mat[2] * mat[6];
 1165              		.loc 2 1152 0
 1166 00dc 059B     		ldr	r3, [sp, #20]
1153:/home/tienluong/workspace/atlantis_fw/AsicFwS2/include/matrix.h ****         tmp[5] = -( mat[0] * mat[5] - mat[3] * mat[2] );
 1167              		.loc 2 1153 0
 1168 00de 5146     		mov	r1, r10
1152:/home/tienluong/workspace/atlantis_fw/AsicFwS2/include/matrix.h ****         tmp[4] =  mat[0] * mat[8] - mat[2] * mat[6];
 1169              		.loc 2 1152 0
 1170 00e0 03F10042 		add	r2, r3, #-2147483648
 1171 00e4 0C92     		str	r2, [sp, #48]	@ float
1151:/home/tienluong/workspace/atlantis_fw/AsicFwS2/include/matrix.h ****         tmp[3] = -( mat[3] * mat[8] - mat[5] * mat[6] );
 1172              		.loc 2 1151 0
 1173 00e6 0B90     		str	r0, [sp, #44]	@ float
1153:/home/tienluong/workspace/atlantis_fw/AsicFwS2/include/matrix.h ****         tmp[5] = -( mat[0] * mat[5] - mat[3] * mat[2] );
 1174              		.loc 2 1153 0
 1175 00e8 3846     		mov	r0, r7
 1176 00ea A047     		blx	r4
 1177              	.LVL134:
 1178 00ec 0499     		ldr	r1, [sp, #16]	@ float
 1179 00ee 8246     		mov	r10, r0
 1180 00f0 4046     		mov	r0, r8
 1181 00f2 A047     		blx	r4
 1182              	.LVL135:
 1183 00f4 0146     		mov	r1, r0
 1184 00f6 5046     		mov	r0, r10
 1185 00f8 A847     		blx	r5
 1186              	.LVL136:
1154:/home/tienluong/workspace/atlantis_fw/AsicFwS2/include/matrix.h ****         tmp[6] =  mat[3] * mat[7] - mat[6] * mat[ 4];
 1187              		.loc 2 1154 0
 1188 00fa 0299     		ldr	r1, [sp, #8]	@ float
1153:/home/tienluong/workspace/atlantis_fw/AsicFwS2/include/matrix.h ****         tmp[5] = -( mat[0] * mat[5] - mat[3] * mat[2] );
 1189              		.loc 2 1153 0
 1190 00fc 0D90     		str	r0, [sp, #52]	@ float
1154:/home/tienluong/workspace/atlantis_fw/AsicFwS2/include/matrix.h ****         tmp[6] =  mat[3] * mat[7] - mat[6] * mat[ 4];
 1191              		.loc 2 1154 0
 1192 00fe 3846     		mov	r0, r7
 1193 0100 A047     		blx	r4
 1194              	.LVL137:
 1195 0102 4146     		mov	r1, r8
 1196 0104 8246     		mov	r10, r0
 1197 0106 0398     		ldr	r0, [sp, #12]	@ float
 1198 0108 A047     		blx	r4
 1199              	.LVL138:
 1200 010a 0146     		mov	r1, r0
 1201 010c 5046     		mov	r0, r10
 1202 010e A847     		blx	r5
 1203              	.LVL139:
1155:/home/tienluong/workspace/atlantis_fw/AsicFwS2/include/matrix.h ****         tmp[7] = -( mat[0] * mat[7] - mat[6] * mat[1] );
 1204              		.loc 2 1155 0
 1205 0110 069B     		ldr	r3, [sp, #24]	@ float
1156:/home/tienluong/workspace/atlantis_fw/AsicFwS2/include/matrix.h ****         tmp[8] =  mat[0] * mat[4] - mat[3] * mat[1];
 1206              		.loc 2 1156 0
 1207 0112 0199     		ldr	r1, [sp, #4]	@ float
1155:/home/tienluong/workspace/atlantis_fw/AsicFwS2/include/matrix.h ****         tmp[7] = -( mat[0] * mat[7] - mat[6] * mat[1] );
 1208              		.loc 2 1155 0
 1209 0114 0F93     		str	r3, [sp, #60]	@ float
1154:/home/tienluong/workspace/atlantis_fw/AsicFwS2/include/matrix.h ****         tmp[6] =  mat[3] * mat[7] - mat[6] * mat[ 4];
 1210              		.loc 2 1154 0
 1211 0116 00F10040 		add	r0, r0, #-2147483648
 1212 011a 0E90     		str	r0, [sp, #56]	@ float
1156:/home/tienluong/workspace/atlantis_fw/AsicFwS2/include/matrix.h ****         tmp[8] =  mat[0] * mat[4] - mat[3] * mat[1];
 1213              		.loc 2 1156 0
 1214 011c 3846     		mov	r0, r7
 1215 011e A047     		blx	r4
 1216              	.LVL140:
 1217 0120 3146     		mov	r1, r6
 1218 0122 8046     		mov	r8, r0
 1219 0124 0498     		ldr	r0, [sp, #16]	@ float
 1220 0126 A047     		blx	r4
 1221              	.LVL141:
 1222 0128 0146     		mov	r1, r0
 1223 012a 4046     		mov	r0, r8
 1224 012c A847     		blx	r5
 1225              	.LVL142:
1157:/home/tienluong/workspace/atlantis_fw/AsicFwS2/include/matrix.h **** 
 1226              		.loc 2 1157 0
 1227 012e 0099     		ldr	r1, [sp]	@ float
1156:/home/tienluong/workspace/atlantis_fw/AsicFwS2/include/matrix.h ****         tmp[8] =  mat[0] * mat[4] - mat[3] * mat[1];
 1228              		.loc 2 1156 0
 1229 0130 00F10040 		add	r0, r0, #-2147483648
 1230 0134 1090     		str	r0, [sp, #64]	@ float
1157:/home/tienluong/workspace/atlantis_fw/AsicFwS2/include/matrix.h **** 
 1231              		.loc 2 1157 0
 1232 0136 3846     		mov	r0, r7
 1233 0138 A047     		blx	r4
 1234              	.LVL143:
 1235 013a 3146     		mov	r1, r6
 1236 013c 0746     		mov	r7, r0
 1237 013e 0398     		ldr	r0, [sp, #12]	@ float
 1238 0140 A047     		blx	r4
 1239              	.LVL144:
 1240 0142 0146     		mov	r1, r0
 1241 0144 3846     		mov	r0, r7
 1242 0146 A847     		blx	r5
 1243              	.LVL145:
 1244              	.LBB203:
1159:/home/tienluong/workspace/atlantis_fw/AsicFwS2/include/matrix.h ****     }
 1245              		.loc 2 1159 0
 1246 0148 0025     		movs	r5, #0
 1247              	.LBE203:
1157:/home/tienluong/workspace/atlantis_fw/AsicFwS2/include/matrix.h **** 
 1248              		.loc 2 1157 0
 1249 014a 1190     		str	r0, [sp, #68]	@ float
 1250              	.LVL146:
 1251              	.L61:
 1252              	.LBB204:
1159:/home/tienluong/workspace/atlantis_fw/AsicFwS2/include/matrix.h ****     }
 1253              		.loc 2 1159 0 discriminator 3
 1254 014c 09AA     		add	r2, sp, #36
 1255 014e 0799     		ldr	r1, [sp, #28]	@ float
 1256 0150 52F82500 		ldr	r0, [r2, r5, lsl #2]	@ float
 1257 0154 A047     		blx	r4
 1258              	.LVL147:
 1259 0156 49F82500 		str	r0, [r9, r5, lsl #2]	@ float
 1260 015a 0135     		adds	r5, r5, #1
 1261              	.LVL148:
 1262 015c 092D     		cmp	r5, #9
 1263 015e F5D1     		bne	.L61
 1264              	.LBE204:
 1265              	.LBE205:
1160:/home/tienluong/workspace/atlantis_fw/AsicFwS2/include/matrix.h **** };
 1266              		.loc 2 1160 0
 1267 0160 13B0     		add	sp, sp, #76
 1268              	.LCFI19:
 1269              		.cfi_def_cfa_offset 36
 1270              		@ sp needed
 1271 0162 BDE8F08F 		pop	{r4, r5, r6, r7, r8, r9, r10, fp, pc}
 1272              	.LVL149:
 1273              	.L64:
 1274 0166 00BF     		.align	2
 1275              	.L63:
 1276 0168 00000000 		.word	__aeabi_fmul
 1277 016c 00000000 		.word	__aeabi_fsub
 1278 0170 00000000 		.word	__aeabi_fadd
 1279 0174 00000000 		.word	__aeabi_fdiv
 1280              		.cfi_endproc
 1281              	.LFE3651:
 1283              		.section	.text._ZN4ltaf7inverseIfLi3ELb1EEENS_6MatrixIT_XT0_EXT0_EXT1_EEERKS3_,"axG",%progbits,_ZN
 1284              		.align	1
 1285              		.weak	_ZN4ltaf7inverseIfLi3ELb1EEENS_6MatrixIT_XT0_EXT0_EXT1_EEERKS3_
 1286              		.thumb
 1287              		.thumb_func
 1289              	_ZN4ltaf7inverseIfLi3ELb1EEENS_6MatrixIT_XT0_EXT0_EXT1_EEERKS3_:
 1290              	.LFB3544:
1247:/home/tienluong/workspace/atlantis_fw/AsicFwS2/include/matrix.h **** {
 1291              		.loc 2 1247 0
 1292              		.cfi_startproc
 1293              		@ args = 0, pretend = 0, frame = 8
 1294              		@ frame_needed = 0, uses_anonymous_args = 0
 1295              	.LVL150:
 1296 0000 73B5     		push	{r0, r1, r4, r5, r6, lr}
 1297              	.LCFI20:
 1298              		.cfi_def_cfa_offset 24
 1299              		.cfi_offset 4, -16
 1300              		.cfi_offset 5, -12
 1301              		.cfi_offset 6, -8
 1302              		.cfi_offset 14, -4
 1303              	.LBB212:
 1304              	.LBB213:
 1305              	.LBB214:
 591:/home/tienluong/workspace/atlantis_fw/AsicFwS2/include/matrix.h **** 
 1306              		.loc 2 591 0
 1307 0002 0D46     		mov	r5, r1
 1308              	.LBE214:
 1309              	.LBE213:
 1310              	.LBE212:
1247:/home/tienluong/workspace/atlantis_fw/AsicFwS2/include/matrix.h **** {
 1311              		.loc 2 1247 0
 1312 0004 0646     		mov	r6, r0
 1313              	.LBB219:
 1314              	.LBB217:
 1315              	.LBB215:
 591:/home/tienluong/workspace/atlantis_fw/AsicFwS2/include/matrix.h **** 
 1316              		.loc 2 591 0
 1317 0006 0446     		mov	r4, r0
 1318 0008 0FCD     		ldmia	r5!, {r0, r1, r2, r3}
 1319              	.LVL151:
 1320 000a 0FC4     		stmia	r4!, {r0, r1, r2, r3}
 1321              	.LVL152:
 1322 000c 0FCD     		ldmia	r5!, {r0, r1, r2, r3}
 1323              	.LVL153:
 1324 000e 0FC4     		stmia	r4!, {r0, r1, r2, r3}
 1325 0010 2B68     		ldr	r3, [r5]
 1326              	.LBE215:
 1327              	.LBE217:
1251:/home/tienluong/workspace/atlantis_fw/AsicFwS2/include/matrix.h ****     return rval;
 1328              		.loc 2 1251 0
 1329 0012 01A8     		add	r0, sp, #4
 1330              	.LBB218:
 1331              	.LBB216:
 591:/home/tienluong/workspace/atlantis_fw/AsicFwS2/include/matrix.h **** 
 1332              		.loc 2 591 0
 1333 0014 2360     		str	r3, [r4]
 1334              	.LVL154:
 1335              	.LBE216:
 1336              	.LBE218:
1251:/home/tienluong/workspace/atlantis_fw/AsicFwS2/include/matrix.h ****     return rval;
 1337              		.loc 2 1251 0
 1338 0016 3146     		mov	r1, r6
 1339 0018 024B     		ldr	r3, .L66
 1340 001a 9847     		blx	r3
 1341              	.LVL155:
 1342              	.LBE219:
1253:/home/tienluong/workspace/atlantis_fw/AsicFwS2/include/matrix.h **** 
 1343              		.loc 2 1253 0
 1344 001c 3046     		mov	r0, r6
 1345 001e 02B0     		add	sp, sp, #8
 1346              	.LCFI21:
 1347              		.cfi_def_cfa_offset 16
 1348              		@ sp needed
 1349 0020 70BD     		pop	{r4, r5, r6, pc}
 1350              	.LVL156:
 1351              	.L67:
 1352 0022 00BF     		.align	2
 1353              	.L66:
 1354 0024 00000000 		.word	_ZNK4ltaf20SquareMatrixInverterIfLi3EE3runEPf
 1355              		.cfi_endproc
 1356              	.LFE3544:
 1358              		.section	.text._ZN4ltaf7inverseIfLi3ELb0EEENS_6MatrixIT_XT0_EXT0_EXT1_EEERKS3_,"axG",%progbits,_ZN
 1359              		.align	1
 1360              		.weak	_ZN4ltaf7inverseIfLi3ELb0EEENS_6MatrixIT_XT0_EXT0_EXT1_EEERKS3_
 1361              		.thumb
 1362              		.thumb_func
 1364              	_ZN4ltaf7inverseIfLi3ELb0EEENS_6MatrixIT_XT0_EXT0_EXT1_EEERKS3_:
 1365              	.LFB3547:
1247:/home/tienluong/workspace/atlantis_fw/AsicFwS2/include/matrix.h **** {
 1366              		.loc 2 1247 0
 1367              		.cfi_startproc
 1368              		@ args = 0, pretend = 0, frame = 8
 1369              		@ frame_needed = 0, uses_anonymous_args = 0
 1370              	.LVL157:
 1371 0000 73B5     		push	{r0, r1, r4, r5, r6, lr}
 1372              	.LCFI22:
 1373              		.cfi_def_cfa_offset 24
 1374              		.cfi_offset 4, -16
 1375              		.cfi_offset 5, -12
 1376              		.cfi_offset 6, -8
 1377              		.cfi_offset 14, -4
 1378              	.LBB226:
 1379              	.LBB227:
 1380              	.LBB228:
 593:/home/tienluong/workspace/atlantis_fw/AsicFwS2/include/matrix.h **** 
 1381              		.loc 2 593 0
 1382 0002 0D46     		mov	r5, r1
 1383              	.LBE228:
 1384              	.LBE227:
 1385              	.LBE226:
1247:/home/tienluong/workspace/atlantis_fw/AsicFwS2/include/matrix.h **** {
 1386              		.loc 2 1247 0
 1387 0004 0646     		mov	r6, r0
 1388              	.LBB233:
 1389              	.LBB231:
 1390              	.LBB229:
 593:/home/tienluong/workspace/atlantis_fw/AsicFwS2/include/matrix.h **** 
 1391              		.loc 2 593 0
 1392 0006 0446     		mov	r4, r0
 1393 0008 0FCD     		ldmia	r5!, {r0, r1, r2, r3}
 1394              	.LVL158:
 1395 000a 0FC4     		stmia	r4!, {r0, r1, r2, r3}
 1396              	.LVL159:
 1397 000c 0FCD     		ldmia	r5!, {r0, r1, r2, r3}
 1398              	.LVL160:
 1399 000e 0FC4     		stmia	r4!, {r0, r1, r2, r3}
 1400 0010 2B68     		ldr	r3, [r5]
 1401              	.LBE229:
 1402              	.LBE231:
1251:/home/tienluong/workspace/atlantis_fw/AsicFwS2/include/matrix.h ****     return rval;
 1403              		.loc 2 1251 0
 1404 0012 01A8     		add	r0, sp, #4
 1405              	.LBB232:
 1406              	.LBB230:
 593:/home/tienluong/workspace/atlantis_fw/AsicFwS2/include/matrix.h **** 
 1407              		.loc 2 593 0
 1408 0014 2360     		str	r3, [r4]
 1409              	.LVL161:
 1410              	.LBE230:
 1411              	.LBE232:
1251:/home/tienluong/workspace/atlantis_fw/AsicFwS2/include/matrix.h ****     return rval;
 1412              		.loc 2 1251 0
 1413 0016 3146     		mov	r1, r6
 1414 0018 024B     		ldr	r3, .L69
 1415 001a 9847     		blx	r3
 1416              	.LVL162:
 1417              	.LBE233:
1253:/home/tienluong/workspace/atlantis_fw/AsicFwS2/include/matrix.h **** 
 1418              		.loc 2 1253 0
 1419 001c 3046     		mov	r0, r6
 1420 001e 02B0     		add	sp, sp, #8
 1421              	.LCFI23:
 1422              		.cfi_def_cfa_offset 16
 1423              		@ sp needed
 1424 0020 70BD     		pop	{r4, r5, r6, pc}
 1425              	.LVL163:
 1426              	.L70:
 1427 0022 00BF     		.align	2
 1428              	.L69:
 1429 0024 00000000 		.word	_ZNK4ltaf20SquareMatrixInverterIfLi3EE3runEPf
 1430              		.cfi_endproc
 1431              	.LFE3547:
 1433              		.section	.text._ZNK4ltaf20SquareMatrixInverterIfLi4EE3runEPf,"axG",%progbits,_ZNK4ltaf20SquareMatr
 1434              		.align	1
 1435              		.weak	_ZNK4ltaf20SquareMatrixInverterIfLi4EE3runEPf
 1436              		.thumb
 1437              		.thumb_func
 1439              	_ZNK4ltaf20SquareMatrixInverterIfLi4EE3runEPf:
 1440              	.LFB3653:
1166:/home/tienluong/workspace/atlantis_fw/AsicFwS2/include/matrix.h ****     {
 1441              		.loc 2 1166 0
 1442              		.cfi_startproc
 1443              		@ args = 0, pretend = 0, frame = 176
 1444              		@ frame_needed = 0, uses_anonymous_args = 0
 1445              	.LVL164:
 1446 0000 2DE9F04F 		push	{r4, r5, r6, r7, r8, r9, r10, fp, lr}
 1447              	.LCFI24:
 1448              		.cfi_def_cfa_offset 36
 1449              		.cfi_offset 4, -36
 1450              		.cfi_offset 5, -32
 1451              		.cfi_offset 6, -28
 1452              		.cfi_offset 7, -24
 1453              		.cfi_offset 8, -20
 1454              		.cfi_offset 9, -16
 1455              		.cfi_offset 10, -12
 1456              		.cfi_offset 11, -8
 1457              		.cfi_offset 14, -4
 1458 0004 ADB0     		sub	sp, sp, #180
 1459              	.LCFI25:
 1460              		.cfi_def_cfa_offset 216
 1461              	.LBB234:
1172:/home/tienluong/workspace/atlantis_fw/AsicFwS2/include/matrix.h ****         tmp[1] = mat[11] * mat[14];
 1462              		.loc 2 1172 0
 1463 0006 8B6A     		ldr	r3, [r1, #40]	@ float
 1464 0008 0293     		str	r3, [sp, #8]	@ float
 1465 000a CB6B     		ldr	r3, [r1, #60]	@ float
 1466 000c 804C     		ldr	r4, .L74
 1467              	.LBE234:
1166:/home/tienluong/workspace/atlantis_fw/AsicFwS2/include/matrix.h ****     {
 1468              		.loc 2 1166 0
 1469 000e 0191     		str	r1, [sp, #4]
 1470              	.LBB237:
1172:/home/tienluong/workspace/atlantis_fw/AsicFwS2/include/matrix.h ****         tmp[1] = mat[11] * mat[14];
 1471              		.loc 2 1172 0
 1472 0010 1946     		mov	r1, r3
 1473              	.LVL165:
 1474 0012 0298     		ldr	r0, [sp, #8]	@ float
 1475              	.LVL166:
 1476 0014 0393     		str	r3, [sp, #12]	@ float
 1477 0016 A047     		blx	r4
 1478              	.LVL167:
1173:/home/tienluong/workspace/atlantis_fw/AsicFwS2/include/matrix.h ****         tmp[2] = mat[9] * mat[15];
 1479              		.loc 2 1173 0
 1480 0018 019B     		ldr	r3, [sp, #4]
1186:/home/tienluong/workspace/atlantis_fw/AsicFwS2/include/matrix.h ****         dst[0]  -= tmp[1] * mat[5] + tmp[2] * mat[6] + tmp[5]  * mat[7];
 1481              		.loc 2 1186 0
 1482 001a 7E4D     		ldr	r5, .L74+4
1173:/home/tienluong/workspace/atlantis_fw/AsicFwS2/include/matrix.h ****         tmp[2] = mat[9] * mat[15];
 1483              		.loc 2 1173 0
 1484 001c DB6A     		ldr	r3, [r3, #44]	@ float
 1485 001e 0493     		str	r3, [sp, #16]	@ float
 1486 0020 019B     		ldr	r3, [sp, #4]
 1487 0022 9B6B     		ldr	r3, [r3, #56]	@ float
 1488 0024 1946     		mov	r1, r3
 1489 0026 0593     		str	r3, [sp, #20]	@ float
1172:/home/tienluong/workspace/atlantis_fw/AsicFwS2/include/matrix.h ****         tmp[1] = mat[11] * mat[14];
 1490              		.loc 2 1172 0
 1491 0028 0E90     		str	r0, [sp, #56]	@ float
 1492              	.LVL168:
1173:/home/tienluong/workspace/atlantis_fw/AsicFwS2/include/matrix.h ****         tmp[2] = mat[9] * mat[15];
 1493              		.loc 2 1173 0
 1494 002a 0498     		ldr	r0, [sp, #16]	@ float
 1495              	.LVL169:
 1496 002c A047     		blx	r4
 1497              	.LVL170:
1174:/home/tienluong/workspace/atlantis_fw/AsicFwS2/include/matrix.h ****         tmp[3] = mat[11] * mat[13];
 1498              		.loc 2 1174 0
 1499 002e 019B     		ldr	r3, [sp, #4]
 1500 0030 0399     		ldr	r1, [sp, #12]	@ float
 1501 0032 5B6A     		ldr	r3, [r3, #36]	@ float
 1502 0034 0693     		str	r3, [sp, #24]	@ float
1173:/home/tienluong/workspace/atlantis_fw/AsicFwS2/include/matrix.h ****         tmp[2] = mat[9] * mat[15];
 1503              		.loc 2 1173 0
 1504 0036 0F90     		str	r0, [sp, #60]	@ float
 1505              	.LVL171:
1174:/home/tienluong/workspace/atlantis_fw/AsicFwS2/include/matrix.h ****         tmp[3] = mat[11] * mat[13];
 1506              		.loc 2 1174 0
 1507 0038 1846     		mov	r0, r3
 1508              	.LVL172:
 1509 003a A047     		blx	r4
 1510              	.LVL173:
1175:/home/tienluong/workspace/atlantis_fw/AsicFwS2/include/matrix.h ****         tmp[4] = mat[9] * mat[14];
 1511              		.loc 2 1175 0
 1512 003c 019B     		ldr	r3, [sp, #4]
 1513 003e 5B6B     		ldr	r3, [r3, #52]	@ float
 1514 0040 1946     		mov	r1, r3
 1515 0042 0793     		str	r3, [sp, #28]	@ float
1174:/home/tienluong/workspace/atlantis_fw/AsicFwS2/include/matrix.h ****         tmp[3] = mat[11] * mat[13];
 1516              		.loc 2 1174 0
 1517 0044 1090     		str	r0, [sp, #64]	@ float
 1518              	.LVL174:
1175:/home/tienluong/workspace/atlantis_fw/AsicFwS2/include/matrix.h ****         tmp[4] = mat[9] * mat[14];
 1519              		.loc 2 1175 0
 1520 0046 0498     		ldr	r0, [sp, #16]	@ float
 1521              	.LVL175:
 1522 0048 A047     		blx	r4
 1523              	.LVL176:
1176:/home/tienluong/workspace/atlantis_fw/AsicFwS2/include/matrix.h ****         tmp[5] = mat[10] * mat[13];
 1524              		.loc 2 1176 0
 1525 004a 0599     		ldr	r1, [sp, #20]	@ float
1175:/home/tienluong/workspace/atlantis_fw/AsicFwS2/include/matrix.h ****         tmp[4] = mat[9] * mat[14];
 1526              		.loc 2 1175 0
 1527 004c 1190     		str	r0, [sp, #68]	@ float
 1528              	.LVL177:
1176:/home/tienluong/workspace/atlantis_fw/AsicFwS2/include/matrix.h ****         tmp[5] = mat[10] * mat[13];
 1529              		.loc 2 1176 0
 1530 004e 0698     		ldr	r0, [sp, #24]	@ float
 1531              	.LVL178:
 1532 0050 A047     		blx	r4
 1533              	.LVL179:
1177:/home/tienluong/workspace/atlantis_fw/AsicFwS2/include/matrix.h ****         tmp[6] = mat[8] * mat[15];
 1534              		.loc 2 1177 0
 1535 0052 0799     		ldr	r1, [sp, #28]	@ float
1176:/home/tienluong/workspace/atlantis_fw/AsicFwS2/include/matrix.h ****         tmp[5] = mat[10] * mat[13];
 1536              		.loc 2 1176 0
 1537 0054 1290     		str	r0, [sp, #72]	@ float
 1538              	.LVL180:
1177:/home/tienluong/workspace/atlantis_fw/AsicFwS2/include/matrix.h ****         tmp[6] = mat[8] * mat[15];
 1539              		.loc 2 1177 0
 1540 0056 0298     		ldr	r0, [sp, #8]	@ float
 1541              	.LVL181:
 1542 0058 A047     		blx	r4
 1543              	.LVL182:
1178:/home/tienluong/workspace/atlantis_fw/AsicFwS2/include/matrix.h ****         tmp[7] = mat[11] * mat[12];
 1544              		.loc 2 1178 0
 1545 005a 019B     		ldr	r3, [sp, #4]
 1546 005c 0399     		ldr	r1, [sp, #12]	@ float
 1547 005e 1B6A     		ldr	r3, [r3, #32]	@ float
 1548 0060 0893     		str	r3, [sp, #32]	@ float
1177:/home/tienluong/workspace/atlantis_fw/AsicFwS2/include/matrix.h ****         tmp[6] = mat[8] * mat[15];
 1549              		.loc 2 1177 0
 1550 0062 1390     		str	r0, [sp, #76]	@ float
 1551              	.LVL183:
1178:/home/tienluong/workspace/atlantis_fw/AsicFwS2/include/matrix.h ****         tmp[7] = mat[11] * mat[12];
 1552              		.loc 2 1178 0
 1553 0064 1846     		mov	r0, r3
 1554              	.LVL184:
 1555 0066 A047     		blx	r4
 1556              	.LVL185:
1179:/home/tienluong/workspace/atlantis_fw/AsicFwS2/include/matrix.h ****         tmp[8] = mat[8] * mat[14];
 1557              		.loc 2 1179 0
 1558 0068 019B     		ldr	r3, [sp, #4]
 1559 006a 1B6B     		ldr	r3, [r3, #48]	@ float
 1560 006c 1946     		mov	r1, r3
 1561 006e 0993     		str	r3, [sp, #36]	@ float
1178:/home/tienluong/workspace/atlantis_fw/AsicFwS2/include/matrix.h ****         tmp[7] = mat[11] * mat[12];
 1562              		.loc 2 1178 0
 1563 0070 1490     		str	r0, [sp, #80]	@ float
 1564              	.LVL186:
1179:/home/tienluong/workspace/atlantis_fw/AsicFwS2/include/matrix.h ****         tmp[8] = mat[8] * mat[14];
 1565              		.loc 2 1179 0
 1566 0072 0498     		ldr	r0, [sp, #16]	@ float
 1567              	.LVL187:
 1568 0074 A047     		blx	r4
 1569              	.LVL188:
1180:/home/tienluong/workspace/atlantis_fw/AsicFwS2/include/matrix.h ****         tmp[9] = mat[10] * mat[12];
 1570              		.loc 2 1180 0
 1571 0076 0599     		ldr	r1, [sp, #20]	@ float
1179:/home/tienluong/workspace/atlantis_fw/AsicFwS2/include/matrix.h ****         tmp[8] = mat[8] * mat[14];
 1572              		.loc 2 1179 0
 1573 0078 1590     		str	r0, [sp, #84]	@ float
 1574              	.LVL189:
1180:/home/tienluong/workspace/atlantis_fw/AsicFwS2/include/matrix.h ****         tmp[9] = mat[10] * mat[12];
 1575              		.loc 2 1180 0
 1576 007a 0898     		ldr	r0, [sp, #32]	@ float
 1577              	.LVL190:
 1578 007c A047     		blx	r4
 1579              	.LVL191:
1181:/home/tienluong/workspace/atlantis_fw/AsicFwS2/include/matrix.h ****         tmp[10] = mat[8] * mat[13];
 1580              		.loc 2 1181 0
 1581 007e 0999     		ldr	r1, [sp, #36]	@ float
1180:/home/tienluong/workspace/atlantis_fw/AsicFwS2/include/matrix.h ****         tmp[9] = mat[10] * mat[12];
 1582              		.loc 2 1180 0
 1583 0080 1690     		str	r0, [sp, #88]	@ float
1181:/home/tienluong/workspace/atlantis_fw/AsicFwS2/include/matrix.h ****         tmp[10] = mat[8] * mat[13];
 1584              		.loc 2 1181 0
 1585 0082 0298     		ldr	r0, [sp, #8]	@ float
 1586 0084 A047     		blx	r4
 1587              	.LVL192:
1182:/home/tienluong/workspace/atlantis_fw/AsicFwS2/include/matrix.h ****         tmp[11] = mat[9] * mat[12];
 1588              		.loc 2 1182 0
 1589 0086 0799     		ldr	r1, [sp, #28]	@ float
1181:/home/tienluong/workspace/atlantis_fw/AsicFwS2/include/matrix.h ****         tmp[10] = mat[8] * mat[13];
 1590              		.loc 2 1181 0
 1591 0088 1790     		str	r0, [sp, #92]	@ float
1182:/home/tienluong/workspace/atlantis_fw/AsicFwS2/include/matrix.h ****         tmp[11] = mat[9] * mat[12];
 1592              		.loc 2 1182 0
 1593 008a 0898     		ldr	r0, [sp, #32]	@ float
 1594 008c A047     		blx	r4
 1595              	.LVL193:
1183:/home/tienluong/workspace/atlantis_fw/AsicFwS2/include/matrix.h **** 
 1596              		.loc 2 1183 0
 1597 008e 0999     		ldr	r1, [sp, #36]	@ float
1182:/home/tienluong/workspace/atlantis_fw/AsicFwS2/include/matrix.h ****         tmp[11] = mat[9] * mat[12];
 1598              		.loc 2 1182 0
 1599 0090 1890     		str	r0, [sp, #96]	@ float
1183:/home/tienluong/workspace/atlantis_fw/AsicFwS2/include/matrix.h **** 
 1600              		.loc 2 1183 0
 1601 0092 0698     		ldr	r0, [sp, #24]	@ float
 1602 0094 A047     		blx	r4
 1603              	.LVL194:
1186:/home/tienluong/workspace/atlantis_fw/AsicFwS2/include/matrix.h ****         dst[0]  -= tmp[1] * mat[5] + tmp[2] * mat[6] + tmp[5]  * mat[7];
 1604              		.loc 2 1186 0
 1605 0096 019B     		ldr	r3, [sp, #4]
 1606 0098 5B69     		ldr	r3, [r3, #20]	@ float
 1607 009a 0A93     		str	r3, [sp, #40]	@ float
 1608 009c 019B     		ldr	r3, [sp, #4]
 1609 009e 0A99     		ldr	r1, [sp, #40]	@ float
 1610 00a0 9B69     		ldr	r3, [r3, #24]	@ float
 1611 00a2 0B93     		str	r3, [sp, #44]	@ float
 1612 00a4 019B     		ldr	r3, [sp, #4]
 1613 00a6 DB69     		ldr	r3, [r3, #28]	@ float
 1614 00a8 0C93     		str	r3, [sp, #48]	@ float
1183:/home/tienluong/workspace/atlantis_fw/AsicFwS2/include/matrix.h **** 
 1615              		.loc 2 1183 0
 1616 00aa 1990     		str	r0, [sp, #100]	@ float
1186:/home/tienluong/workspace/atlantis_fw/AsicFwS2/include/matrix.h ****         dst[0]  -= tmp[1] * mat[5] + tmp[2] * mat[6] + tmp[5]  * mat[7];
 1617              		.loc 2 1186 0
 1618 00ac 0E98     		ldr	r0, [sp, #56]	@ float
 1619 00ae A047     		blx	r4
 1620              	.LVL195:
 1621 00b0 0B99     		ldr	r1, [sp, #44]	@ float
 1622 00b2 0646     		mov	r6, r0
 1623 00b4 1198     		ldr	r0, [sp, #68]	@ float
 1624 00b6 A047     		blx	r4
 1625              	.LVL196:
 1626 00b8 0146     		mov	r1, r0
 1627 00ba 3046     		mov	r0, r6
 1628 00bc A847     		blx	r5
 1629              	.LVL197:
 1630 00be 0C99     		ldr	r1, [sp, #48]	@ float
 1631 00c0 0646     		mov	r6, r0
 1632 00c2 1298     		ldr	r0, [sp, #72]	@ float
 1633 00c4 A047     		blx	r4
 1634              	.LVL198:
 1635 00c6 0146     		mov	r1, r0
 1636 00c8 3046     		mov	r0, r6
 1637 00ca A847     		blx	r5
 1638              	.LVL199:
1187:/home/tienluong/workspace/atlantis_fw/AsicFwS2/include/matrix.h ****         dst[4]   = tmp[1] * mat[4] + tmp[6] * mat[6] + tmp[9]  * mat[7];
 1639              		.loc 2 1187 0
 1640 00cc 0A99     		ldr	r1, [sp, #40]	@ float
1186:/home/tienluong/workspace/atlantis_fw/AsicFwS2/include/matrix.h ****         dst[0]  -= tmp[1] * mat[5] + tmp[2] * mat[6] + tmp[5]  * mat[7];
 1641              		.loc 2 1186 0
 1642 00ce 0646     		mov	r6, r0
1187:/home/tienluong/workspace/atlantis_fw/AsicFwS2/include/matrix.h ****         dst[4]   = tmp[1] * mat[4] + tmp[6] * mat[6] + tmp[9]  * mat[7];
 1643              		.loc 2 1187 0
 1644 00d0 0F98     		ldr	r0, [sp, #60]	@ float
 1645 00d2 A047     		blx	r4
 1646              	.LVL200:
 1647 00d4 0746     		mov	r7, r0
 1648 00d6 1098     		ldr	r0, [sp, #64]	@ float
 1649 00d8 0B99     		ldr	r1, [sp, #44]	@ float
 1650 00da A047     		blx	r4
 1651              	.LVL201:
 1652 00dc 0146     		mov	r1, r0
 1653 00de 3846     		mov	r0, r7
 1654 00e0 A847     		blx	r5
 1655              	.LVL202:
 1656 00e2 0C99     		ldr	r1, [sp, #48]	@ float
 1657 00e4 0746     		mov	r7, r0
 1658 00e6 1398     		ldr	r0, [sp, #76]	@ float
 1659 00e8 A047     		blx	r4
 1660              	.LVL203:
 1661 00ea 0146     		mov	r1, r0
 1662 00ec 3846     		mov	r0, r7
 1663 00ee A847     		blx	r5
 1664              	.LVL204:
 1665 00f0 494B     		ldr	r3, .L74+8
 1666 00f2 0146     		mov	r1, r0
 1667 00f4 3046     		mov	r0, r6
 1668 00f6 9847     		blx	r3
 1669              	.LVL205:
1188:/home/tienluong/workspace/atlantis_fw/AsicFwS2/include/matrix.h ****         dst[4]  -= tmp[0] * mat[4] + tmp[7] * mat[6] + tmp[8]  * mat[7];
 1670              		.loc 2 1188 0
 1671 00f8 019B     		ldr	r3, [sp, #4]
 1672 00fa 1B69     		ldr	r3, [r3, #16]	@ float
 1673 00fc 1946     		mov	r1, r3
 1674 00fe 0D93     		str	r3, [sp, #52]	@ float
1187:/home/tienluong/workspace/atlantis_fw/AsicFwS2/include/matrix.h ****         dst[4]   = tmp[1] * mat[4] + tmp[6] * mat[6] + tmp[9]  * mat[7];
 1675              		.loc 2 1187 0
 1676 0100 1C90     		str	r0, [sp, #112]	@ float
 1677 0102 1A90     		str	r0, [sp, #104]
1188:/home/tienluong/workspace/atlantis_fw/AsicFwS2/include/matrix.h ****         dst[4]  -= tmp[0] * mat[4] + tmp[7] * mat[6] + tmp[8]  * mat[7];
 1678              		.loc 2 1188 0
 1679 0104 0F98     		ldr	r0, [sp, #60]	@ float
 1680 0106 A047     		blx	r4
 1681              	.LVL206:
 1682 0108 0B99     		ldr	r1, [sp, #44]	@ float
 1683 010a 0646     		mov	r6, r0
 1684 010c 1498     		ldr	r0, [sp, #80]	@ float
 1685 010e A047     		blx	r4
 1686              	.LVL207:
 1687 0110 0146     		mov	r1, r0
 1688 0112 3046     		mov	r0, r6
 1689 0114 A847     		blx	r5
 1690              	.LVL208:
 1691 0116 0C99     		ldr	r1, [sp, #48]	@ float
 1692 0118 0646     		mov	r6, r0
 1693 011a 1798     		ldr	r0, [sp, #92]	@ float
 1694 011c A047     		blx	r4
 1695              	.LVL209:
 1696 011e 0146     		mov	r1, r0
 1697 0120 3046     		mov	r0, r6
 1698 0122 A847     		blx	r5
 1699              	.LVL210:
1189:/home/tienluong/workspace/atlantis_fw/AsicFwS2/include/matrix.h ****         dst[8]   = tmp[2] * mat[4] + tmp[7] * mat[5] + tmp[10] * mat[7];
 1700              		.loc 2 1189 0
 1701 0124 0D99     		ldr	r1, [sp, #52]	@ float
1188:/home/tienluong/workspace/atlantis_fw/AsicFwS2/include/matrix.h ****         dst[4]  -= tmp[0] * mat[4] + tmp[7] * mat[6] + tmp[8]  * mat[7];
 1702              		.loc 2 1188 0
 1703 0126 0646     		mov	r6, r0
1189:/home/tienluong/workspace/atlantis_fw/AsicFwS2/include/matrix.h ****         dst[8]   = tmp[2] * mat[4] + tmp[7] * mat[5] + tmp[10] * mat[7];
 1704              		.loc 2 1189 0
 1705 0128 0E98     		ldr	r0, [sp, #56]	@ float
 1706 012a A047     		blx	r4
 1707              	.LVL211:
 1708 012c 0B99     		ldr	r1, [sp, #44]	@ float
 1709 012e 0746     		mov	r7, r0
 1710 0130 1598     		ldr	r0, [sp, #84]	@ float
 1711 0132 A047     		blx	r4
 1712              	.LVL212:
 1713 0134 0146     		mov	r1, r0
 1714 0136 3846     		mov	r0, r7
 1715 0138 A847     		blx	r5
 1716              	.LVL213:
 1717 013a 0C99     		ldr	r1, [sp, #48]	@ float
 1718 013c 0746     		mov	r7, r0
 1719 013e 1698     		ldr	r0, [sp, #88]	@ float
 1720 0140 A047     		blx	r4
 1721              	.LVL214:
 1722 0142 0146     		mov	r1, r0
 1723 0144 3846     		mov	r0, r7
 1724 0146 A847     		blx	r5
 1725              	.LVL215:
 1726 0148 334B     		ldr	r3, .L74+8
 1727 014a 0146     		mov	r1, r0
 1728 014c 3046     		mov	r0, r6
 1729 014e 9847     		blx	r3
 1730              	.LVL216:
 1731 0150 2090     		str	r0, [sp, #128]	@ float
1190:/home/tienluong/workspace/atlantis_fw/AsicFwS2/include/matrix.h ****         dst[8]  -= tmp[3] * mat[4] + tmp[6] * mat[5] + tmp[11] * mat[7];
 1732              		.loc 2 1190 0
 1733 0152 0D99     		ldr	r1, [sp, #52]	@ float
1189:/home/tienluong/workspace/atlantis_fw/AsicFwS2/include/matrix.h ****         dst[8]   = tmp[2] * mat[4] + tmp[7] * mat[5] + tmp[10] * mat[7];
 1734              		.loc 2 1189 0
 1735 0154 1B90     		str	r0, [sp, #108]
1190:/home/tienluong/workspace/atlantis_fw/AsicFwS2/include/matrix.h ****         dst[8]  -= tmp[3] * mat[4] + tmp[6] * mat[5] + tmp[11] * mat[7];
 1736              		.loc 2 1190 0
 1737 0156 1098     		ldr	r0, [sp, #64]	@ float
 1738 0158 A047     		blx	r4
 1739              	.LVL217:
 1740 015a 0A99     		ldr	r1, [sp, #40]	@ float
 1741 015c 0646     		mov	r6, r0
 1742 015e 1598     		ldr	r0, [sp, #84]	@ float
 1743 0160 A047     		blx	r4
 1744              	.LVL218:
 1745 0162 0146     		mov	r1, r0
 1746 0164 3046     		mov	r0, r6
 1747 0166 A847     		blx	r5
 1748              	.LVL219:
 1749 0168 0C99     		ldr	r1, [sp, #48]	@ float
 1750 016a 0646     		mov	r6, r0
 1751 016c 1898     		ldr	r0, [sp, #96]	@ float
 1752 016e A047     		blx	r4
 1753              	.LVL220:
 1754 0170 0146     		mov	r1, r0
 1755 0172 3046     		mov	r0, r6
 1756 0174 A847     		blx	r5
 1757              	.LVL221:
1191:/home/tienluong/workspace/atlantis_fw/AsicFwS2/include/matrix.h ****         dst[12]  = tmp[5] * mat[4] + tmp[8] * mat[5] + tmp[11] * mat[6];
 1758              		.loc 2 1191 0
 1759 0176 0D99     		ldr	r1, [sp, #52]	@ float
1190:/home/tienluong/workspace/atlantis_fw/AsicFwS2/include/matrix.h ****         dst[8]  -= tmp[3] * mat[4] + tmp[6] * mat[5] + tmp[11] * mat[7];
 1760              		.loc 2 1190 0
 1761 0178 0646     		mov	r6, r0
1191:/home/tienluong/workspace/atlantis_fw/AsicFwS2/include/matrix.h ****         dst[12]  = tmp[5] * mat[4] + tmp[8] * mat[5] + tmp[11] * mat[6];
 1762              		.loc 2 1191 0
 1763 017a 1198     		ldr	r0, [sp, #68]	@ float
 1764 017c A047     		blx	r4
 1765              	.LVL222:
 1766 017e 0A99     		ldr	r1, [sp, #40]	@ float
 1767 0180 0746     		mov	r7, r0
 1768 0182 1498     		ldr	r0, [sp, #80]	@ float
 1769 0184 A047     		blx	r4
 1770              	.LVL223:
 1771 0186 0146     		mov	r1, r0
 1772 0188 3846     		mov	r0, r7
 1773 018a A847     		blx	r5
 1774              	.LVL224:
 1775 018c 0C99     		ldr	r1, [sp, #48]	@ float
 1776 018e 0746     		mov	r7, r0
 1777 0190 1998     		ldr	r0, [sp, #100]	@ float
 1778 0192 A047     		blx	r4
 1779              	.LVL225:
 1780 0194 0146     		mov	r1, r0
 1781 0196 3846     		mov	r0, r7
 1782 0198 A847     		blx	r5
 1783              	.LVL226:
 1784 019a 1F4B     		ldr	r3, .L74+8
 1785 019c 0146     		mov	r1, r0
 1786 019e 3046     		mov	r0, r6
 1787 01a0 9847     		blx	r3
 1788              	.LVL227:
1192:/home/tienluong/workspace/atlantis_fw/AsicFwS2/include/matrix.h ****         dst[12] -= tmp[4] * mat[4] + tmp[9] * mat[5] + tmp[10] * mat[6];
 1789              		.loc 2 1192 0
 1790 01a2 0D99     		ldr	r1, [sp, #52]	@ float
1191:/home/tienluong/workspace/atlantis_fw/AsicFwS2/include/matrix.h ****         dst[12]  = tmp[5] * mat[4] + tmp[8] * mat[5] + tmp[11] * mat[6];
 1791              		.loc 2 1191 0
 1792 01a4 8346     		mov	fp, r0
 1793 01a6 2490     		str	r0, [sp, #144]	@ float
1192:/home/tienluong/workspace/atlantis_fw/AsicFwS2/include/matrix.h ****         dst[12] -= tmp[4] * mat[4] + tmp[9] * mat[5] + tmp[10] * mat[6];
 1794              		.loc 2 1192 0
 1795 01a8 1398     		ldr	r0, [sp, #76]	@ float
 1796 01aa A047     		blx	r4
 1797              	.LVL228:
 1798 01ac 0A99     		ldr	r1, [sp, #40]	@ float
 1799 01ae 0646     		mov	r6, r0
 1800 01b0 1698     		ldr	r0, [sp, #88]	@ float
 1801 01b2 A047     		blx	r4
 1802              	.LVL229:
 1803 01b4 0146     		mov	r1, r0
 1804 01b6 3046     		mov	r0, r6
 1805 01b8 A847     		blx	r5
 1806              	.LVL230:
 1807 01ba 0B99     		ldr	r1, [sp, #44]	@ float
 1808 01bc 0646     		mov	r6, r0
 1809 01be 1998     		ldr	r0, [sp, #100]	@ float
 1810 01c0 A047     		blx	r4
 1811              	.LVL231:
 1812 01c2 0146     		mov	r1, r0
 1813 01c4 3046     		mov	r0, r6
 1814 01c6 A847     		blx	r5
 1815              	.LVL232:
1193:/home/tienluong/workspace/atlantis_fw/AsicFwS2/include/matrix.h **** 
 1816              		.loc 2 1193 0
 1817 01c8 0D99     		ldr	r1, [sp, #52]	@ float
1192:/home/tienluong/workspace/atlantis_fw/AsicFwS2/include/matrix.h ****         dst[12] -= tmp[4] * mat[4] + tmp[9] * mat[5] + tmp[10] * mat[6];
 1818              		.loc 2 1192 0
 1819 01ca 0646     		mov	r6, r0
1193:/home/tienluong/workspace/atlantis_fw/AsicFwS2/include/matrix.h **** 
 1820              		.loc 2 1193 0
 1821 01cc 1298     		ldr	r0, [sp, #72]	@ float
 1822 01ce A047     		blx	r4
 1823              	.LVL233:
 1824 01d0 0A99     		ldr	r1, [sp, #40]	@ float
 1825 01d2 0746     		mov	r7, r0
 1826 01d4 1798     		ldr	r0, [sp, #92]	@ float
 1827 01d6 A047     		blx	r4
 1828              	.LVL234:
 1829 01d8 0146     		mov	r1, r0
 1830 01da 3846     		mov	r0, r7
 1831 01dc A847     		blx	r5
 1832              	.LVL235:
 1833 01de 0B99     		ldr	r1, [sp, #44]	@ float
 1834 01e0 0746     		mov	r7, r0
 1835 01e2 1898     		ldr	r0, [sp, #96]	@ float
 1836 01e4 A047     		blx	r4
 1837              	.LVL236:
 1838 01e6 0146     		mov	r1, r0
 1839 01e8 3846     		mov	r0, r7
 1840 01ea A847     		blx	r5
 1841              	.LVL237:
 1842 01ec 0A4B     		ldr	r3, .L74+8
 1843 01ee 0146     		mov	r1, r0
 1844 01f0 3046     		mov	r0, r6
 1845 01f2 9847     		blx	r3
 1846              	.LVL238:
1196:/home/tienluong/workspace/atlantis_fw/AsicFwS2/include/matrix.h **** 
 1847              		.loc 2 1196 0
 1848 01f4 019B     		ldr	r3, [sp, #4]
 1849 01f6 1A9A     		ldr	r2, [sp, #104]
 1850 01f8 1146     		mov	r1, r2
 1851 01fa 1F68     		ldr	r7, [r3]	@ float
 1852 01fc 5E68     		ldr	r6, [r3, #4]	@ float
 1853 01fe D3F80880 		ldr	r8, [r3, #8]	@ float
 1854 0202 D3F80C90 		ldr	r9, [r3, #12]	@ float
1193:/home/tienluong/workspace/atlantis_fw/AsicFwS2/include/matrix.h **** 
 1855              		.loc 2 1193 0
 1856 0206 8246     		mov	r10, r0
 1857              	.LVL239:
 1858 0208 2890     		str	r0, [sp, #160]	@ float
1196:/home/tienluong/workspace/atlantis_fw/AsicFwS2/include/matrix.h **** 
 1859              		.loc 2 1196 0
 1860 020a 3846     		mov	r0, r7
 1861 020c 06E0     		b	.L75
 1862              	.L76:
 1863 020e 00BF     		.align	2
 1864              	.L74:
 1865 0210 00000000 		.word	__aeabi_fmul
 1866 0214 00000000 		.word	__aeabi_fadd
 1867 0218 00000000 		.word	__aeabi_fsub
 1868              	.L75:
 1869              	.LVL240:
 1870 021c A047     		blx	r4
 1871              	.LVL241:
 1872 021e 1B9B     		ldr	r3, [sp, #108]
 1873 0220 1946     		mov	r1, r3
 1874 0222 1A90     		str	r0, [sp, #104]
 1875              	.LVL242:
 1876 0224 3046     		mov	r0, r6
 1877 0226 A047     		blx	r4
 1878              	.LVL243:
 1879 0228 1A9A     		ldr	r2, [sp, #104]
 1880 022a 0146     		mov	r1, r0
 1881 022c 1046     		mov	r0, r2
 1882 022e A847     		blx	r5
 1883              	.LVL244:
 1884 0230 5946     		mov	r1, fp
 1885 0232 1A90     		str	r0, [sp, #104]
 1886 0234 4046     		mov	r0, r8
 1887 0236 A047     		blx	r4
 1888              	.LVL245:
 1889 0238 1A9B     		ldr	r3, [sp, #104]
 1890 023a 0146     		mov	r1, r0
 1891 023c 1846     		mov	r0, r3
 1892 023e A847     		blx	r5
 1893              	.LVL246:
 1894 0240 5146     		mov	r1, r10
 1895 0242 8346     		mov	fp, r0
 1896 0244 4846     		mov	r0, r9
 1897 0246 A047     		blx	r4
 1898              	.LVL247:
 1899 0248 0146     		mov	r1, r0
 1900 024a 5846     		mov	r0, fp
 1901 024c A847     		blx	r5
 1902              	.LVL248:
1198:/home/tienluong/workspace/atlantis_fw/AsicFwS2/include/matrix.h **** 
 1903              		.loc 2 1198 0
 1904 024e 804B     		ldr	r3, .L77
1196:/home/tienluong/workspace/atlantis_fw/AsicFwS2/include/matrix.h **** 
 1905              		.loc 2 1196 0
 1906 0250 0146     		mov	r1, r0
1198:/home/tienluong/workspace/atlantis_fw/AsicFwS2/include/matrix.h **** 
 1907              		.loc 2 1198 0
 1908 0252 4FF07E50 		mov	r0, #1065353216
 1909 0256 9847     		blx	r3
 1910              	.LVL249:
1200:/home/tienluong/workspace/atlantis_fw/AsicFwS2/include/matrix.h ****         dst[1]  -= tmp[0] * mat[1] + tmp[3] * mat[2] + tmp[4]  * mat[3];
 1911              		.loc 2 1200 0
 1912 0258 3146     		mov	r1, r6
1198:/home/tienluong/workspace/atlantis_fw/AsicFwS2/include/matrix.h **** 
 1913              		.loc 2 1198 0
 1914 025a 1A90     		str	r0, [sp, #104]	@ float
 1915              	.LVL250:
1200:/home/tienluong/workspace/atlantis_fw/AsicFwS2/include/matrix.h ****         dst[1]  -= tmp[0] * mat[1] + tmp[3] * mat[2] + tmp[4]  * mat[3];
 1916              		.loc 2 1200 0
 1917 025c 0F98     		ldr	r0, [sp, #60]	@ float
 1918              	.LVL251:
 1919 025e A047     		blx	r4
 1920              	.LVL252:
 1921 0260 4146     		mov	r1, r8
 1922 0262 8246     		mov	r10, r0
 1923 0264 1098     		ldr	r0, [sp, #64]	@ float
 1924 0266 A047     		blx	r4
 1925              	.LVL253:
 1926 0268 0146     		mov	r1, r0
 1927 026a 5046     		mov	r0, r10
 1928 026c A847     		blx	r5
 1929              	.LVL254:
 1930 026e 4946     		mov	r1, r9
 1931 0270 8246     		mov	r10, r0
 1932 0272 1398     		ldr	r0, [sp, #76]	@ float
 1933 0274 A047     		blx	r4
 1934              	.LVL255:
 1935 0276 0146     		mov	r1, r0
 1936 0278 5046     		mov	r0, r10
 1937 027a A847     		blx	r5
 1938              	.LVL256:
1201:/home/tienluong/workspace/atlantis_fw/AsicFwS2/include/matrix.h ****         dst[5]   = tmp[0] * mat[0] + tmp[7] * mat[2] + tmp[8]  * mat[3];
 1939              		.loc 2 1201 0
 1940 027c 3146     		mov	r1, r6
1200:/home/tienluong/workspace/atlantis_fw/AsicFwS2/include/matrix.h ****         dst[1]  -= tmp[0] * mat[1] + tmp[3] * mat[2] + tmp[4]  * mat[3];
 1941              		.loc 2 1200 0
 1942 027e 8246     		mov	r10, r0
1201:/home/tienluong/workspace/atlantis_fw/AsicFwS2/include/matrix.h ****         dst[5]   = tmp[0] * mat[0] + tmp[7] * mat[2] + tmp[8]  * mat[3];
 1943              		.loc 2 1201 0
 1944 0280 0E98     		ldr	r0, [sp, #56]	@ float
 1945 0282 A047     		blx	r4
 1946              	.LVL257:
 1947 0284 4146     		mov	r1, r8
 1948 0286 8346     		mov	fp, r0
 1949 0288 1198     		ldr	r0, [sp, #68]	@ float
 1950 028a A047     		blx	r4
 1951              	.LVL258:
 1952 028c 0146     		mov	r1, r0
 1953 028e 5846     		mov	r0, fp
 1954 0290 A847     		blx	r5
 1955              	.LVL259:
 1956 0292 4946     		mov	r1, r9
 1957 0294 8346     		mov	fp, r0
 1958 0296 1298     		ldr	r0, [sp, #72]	@ float
 1959 0298 A047     		blx	r4
 1960              	.LVL260:
 1961 029a 0146     		mov	r1, r0
 1962 029c 5846     		mov	r0, fp
 1963 029e A847     		blx	r5
 1964              	.LVL261:
 1965 02a0 6C4B     		ldr	r3, .L77+4
 1966 02a2 0146     		mov	r1, r0
 1967 02a4 5046     		mov	r0, r10
 1968 02a6 9847     		blx	r3
 1969              	.LVL262:
1202:/home/tienluong/workspace/atlantis_fw/AsicFwS2/include/matrix.h ****         dst[5]  -= tmp[1] * mat[0] + tmp[6] * mat[2] + tmp[9]  * mat[3];
 1970              		.loc 2 1202 0
 1971 02a8 3946     		mov	r1, r7
1201:/home/tienluong/workspace/atlantis_fw/AsicFwS2/include/matrix.h ****         dst[5]   = tmp[0] * mat[0] + tmp[7] * mat[2] + tmp[8]  * mat[3];
 1972              		.loc 2 1201 0
 1973 02aa 1D90     		str	r0, [sp, #116]	@ float
1202:/home/tienluong/workspace/atlantis_fw/AsicFwS2/include/matrix.h ****         dst[5]  -= tmp[1] * mat[0] + tmp[6] * mat[2] + tmp[9]  * mat[3];
 1974              		.loc 2 1202 0
 1975 02ac 0E98     		ldr	r0, [sp, #56]	@ float
 1976 02ae A047     		blx	r4
 1977              	.LVL263:
 1978 02b0 4146     		mov	r1, r8
 1979 02b2 8246     		mov	r10, r0
 1980 02b4 1598     		ldr	r0, [sp, #84]	@ float
 1981 02b6 A047     		blx	r4
 1982              	.LVL264:
 1983 02b8 0146     		mov	r1, r0
 1984 02ba 5046     		mov	r0, r10
 1985 02bc A847     		blx	r5
 1986              	.LVL265:
 1987 02be 4946     		mov	r1, r9
 1988 02c0 8246     		mov	r10, r0
 1989 02c2 1698     		ldr	r0, [sp, #88]	@ float
 1990 02c4 A047     		blx	r4
 1991              	.LVL266:
 1992 02c6 0146     		mov	r1, r0
 1993 02c8 5046     		mov	r0, r10
 1994 02ca A847     		blx	r5
 1995              	.LVL267:
1203:/home/tienluong/workspace/atlantis_fw/AsicFwS2/include/matrix.h ****         dst[9]   = tmp[3] * mat[0] + tmp[6] * mat[1] + tmp[11] * mat[3];
 1996              		.loc 2 1203 0
 1997 02cc 3946     		mov	r1, r7
1202:/home/tienluong/workspace/atlantis_fw/AsicFwS2/include/matrix.h ****         dst[5]  -= tmp[1] * mat[0] + tmp[6] * mat[2] + tmp[9]  * mat[3];
 1998              		.loc 2 1202 0
 1999 02ce 8246     		mov	r10, r0
1203:/home/tienluong/workspace/atlantis_fw/AsicFwS2/include/matrix.h ****         dst[9]   = tmp[3] * mat[0] + tmp[6] * mat[1] + tmp[11] * mat[3];
 2000              		.loc 2 1203 0
 2001 02d0 0F98     		ldr	r0, [sp, #60]	@ float
 2002 02d2 A047     		blx	r4
 2003              	.LVL268:
 2004 02d4 4146     		mov	r1, r8
 2005 02d6 8346     		mov	fp, r0
 2006 02d8 1498     		ldr	r0, [sp, #80]	@ float
 2007 02da A047     		blx	r4
 2008              	.LVL269:
 2009 02dc 0146     		mov	r1, r0
 2010 02de 5846     		mov	r0, fp
 2011 02e0 A847     		blx	r5
 2012              	.LVL270:
 2013 02e2 4946     		mov	r1, r9
 2014 02e4 8346     		mov	fp, r0
 2015 02e6 1798     		ldr	r0, [sp, #92]	@ float
 2016 02e8 A047     		blx	r4
 2017              	.LVL271:
 2018 02ea 0146     		mov	r1, r0
 2019 02ec 5846     		mov	r0, fp
 2020 02ee A847     		blx	r5
 2021              	.LVL272:
 2022 02f0 584B     		ldr	r3, .L77+4
 2023 02f2 0146     		mov	r1, r0
 2024 02f4 5046     		mov	r0, r10
 2025 02f6 9847     		blx	r3
 2026              	.LVL273:
1204:/home/tienluong/workspace/atlantis_fw/AsicFwS2/include/matrix.h ****         dst[9]  -= tmp[2] * mat[0] + tmp[7] * mat[1] + tmp[10] * mat[3];
 2027              		.loc 2 1204 0
 2028 02f8 3946     		mov	r1, r7
1203:/home/tienluong/workspace/atlantis_fw/AsicFwS2/include/matrix.h ****         dst[9]   = tmp[3] * mat[0] + tmp[6] * mat[1] + tmp[11] * mat[3];
 2029              		.loc 2 1203 0
 2030 02fa 2190     		str	r0, [sp, #132]	@ float
1204:/home/tienluong/workspace/atlantis_fw/AsicFwS2/include/matrix.h ****         dst[9]  -= tmp[2] * mat[0] + tmp[7] * mat[1] + tmp[10] * mat[3];
 2031              		.loc 2 1204 0
 2032 02fc 1198     		ldr	r0, [sp, #68]	@ float
 2033 02fe A047     		blx	r4
 2034              	.LVL274:
 2035 0300 3146     		mov	r1, r6
 2036 0302 8246     		mov	r10, r0
 2037 0304 1498     		ldr	r0, [sp, #80]	@ float
 2038 0306 A047     		blx	r4
 2039              	.LVL275:
 2040 0308 0146     		mov	r1, r0
 2041 030a 5046     		mov	r0, r10
 2042 030c A847     		blx	r5
 2043              	.LVL276:
 2044 030e 4946     		mov	r1, r9
 2045 0310 8246     		mov	r10, r0
 2046 0312 1998     		ldr	r0, [sp, #100]	@ float
 2047 0314 A047     		blx	r4
 2048              	.LVL277:
 2049 0316 0146     		mov	r1, r0
 2050 0318 5046     		mov	r0, r10
 2051 031a A847     		blx	r5
 2052              	.LVL278:
1205:/home/tienluong/workspace/atlantis_fw/AsicFwS2/include/matrix.h ****         dst[13]  = tmp[4] * mat[0] + tmp[9] * mat[1] + tmp[10] * mat[2];
 2053              		.loc 2 1205 0
 2054 031c 3946     		mov	r1, r7
1204:/home/tienluong/workspace/atlantis_fw/AsicFwS2/include/matrix.h ****         dst[9]  -= tmp[2] * mat[0] + tmp[7] * mat[1] + tmp[10] * mat[3];
 2055              		.loc 2 1204 0
 2056 031e 8246     		mov	r10, r0
1205:/home/tienluong/workspace/atlantis_fw/AsicFwS2/include/matrix.h ****         dst[13]  = tmp[4] * mat[0] + tmp[9] * mat[1] + tmp[10] * mat[2];
 2057              		.loc 2 1205 0
 2058 0320 1098     		ldr	r0, [sp, #64]	@ float
 2059 0322 A047     		blx	r4
 2060              	.LVL279:
 2061 0324 3146     		mov	r1, r6
 2062 0326 8346     		mov	fp, r0
 2063 0328 1598     		ldr	r0, [sp, #84]	@ float
 2064 032a A047     		blx	r4
 2065              	.LVL280:
 2066 032c 0146     		mov	r1, r0
 2067 032e 5846     		mov	r0, fp
 2068 0330 A847     		blx	r5
 2069              	.LVL281:
 2070 0332 4946     		mov	r1, r9
 2071 0334 8346     		mov	fp, r0
 2072 0336 1898     		ldr	r0, [sp, #96]	@ float
 2073 0338 A047     		blx	r4
 2074              	.LVL282:
 2075 033a 0146     		mov	r1, r0
 2076 033c 5846     		mov	r0, fp
 2077 033e A847     		blx	r5
 2078              	.LVL283:
 2079 0340 444B     		ldr	r3, .L77+4
 2080 0342 0146     		mov	r1, r0
 2081 0344 5046     		mov	r0, r10
 2082 0346 9847     		blx	r3
 2083              	.LVL284:
1206:/home/tienluong/workspace/atlantis_fw/AsicFwS2/include/matrix.h ****         dst[13] -= tmp[5] * mat[0] + tmp[8] * mat[1] + tmp[11] * mat[2];
 2084              		.loc 2 1206 0
 2085 0348 3946     		mov	r1, r7
1205:/home/tienluong/workspace/atlantis_fw/AsicFwS2/include/matrix.h ****         dst[13]  = tmp[4] * mat[0] + tmp[9] * mat[1] + tmp[10] * mat[2];
 2086              		.loc 2 1205 0
 2087 034a 2590     		str	r0, [sp, #148]	@ float
1206:/home/tienluong/workspace/atlantis_fw/AsicFwS2/include/matrix.h ****         dst[13] -= tmp[5] * mat[0] + tmp[8] * mat[1] + tmp[11] * mat[2];
 2088              		.loc 2 1206 0
 2089 034c 1298     		ldr	r0, [sp, #72]	@ float
 2090 034e A047     		blx	r4
 2091              	.LVL285:
 2092 0350 3146     		mov	r1, r6
 2093 0352 8246     		mov	r10, r0
 2094 0354 1798     		ldr	r0, [sp, #92]	@ float
 2095 0356 A047     		blx	r4
 2096              	.LVL286:
 2097 0358 0146     		mov	r1, r0
 2098 035a 5046     		mov	r0, r10
 2099 035c A847     		blx	r5
 2100              	.LVL287:
 2101 035e 4146     		mov	r1, r8
 2102 0360 8246     		mov	r10, r0
 2103 0362 1898     		ldr	r0, [sp, #96]	@ float
 2104 0364 A047     		blx	r4
 2105              	.LVL288:
 2106 0366 0146     		mov	r1, r0
 2107 0368 5046     		mov	r0, r10
 2108 036a A847     		blx	r5
 2109              	.LVL289:
1207:/home/tienluong/workspace/atlantis_fw/AsicFwS2/include/matrix.h **** 
 2110              		.loc 2 1207 0
 2111 036c 3946     		mov	r1, r7
1206:/home/tienluong/workspace/atlantis_fw/AsicFwS2/include/matrix.h ****         dst[13] -= tmp[5] * mat[0] + tmp[8] * mat[1] + tmp[11] * mat[2];
 2112              		.loc 2 1206 0
 2113 036e 8246     		mov	r10, r0
1207:/home/tienluong/workspace/atlantis_fw/AsicFwS2/include/matrix.h **** 
 2114              		.loc 2 1207 0
 2115 0370 1398     		ldr	r0, [sp, #76]	@ float
 2116 0372 A047     		blx	r4
 2117              	.LVL290:
 2118 0374 3146     		mov	r1, r6
 2119 0376 8346     		mov	fp, r0
 2120 0378 1698     		ldr	r0, [sp, #88]	@ float
 2121 037a A047     		blx	r4
 2122              	.LVL291:
 2123 037c 0146     		mov	r1, r0
 2124 037e 5846     		mov	r0, fp
 2125 0380 A847     		blx	r5
 2126              	.LVL292:
 2127 0382 4146     		mov	r1, r8
 2128 0384 8346     		mov	fp, r0
 2129 0386 1998     		ldr	r0, [sp, #100]	@ float
 2130 0388 A047     		blx	r4
 2131              	.LVL293:
 2132 038a 0146     		mov	r1, r0
 2133 038c 5846     		mov	r0, fp
 2134 038e A847     		blx	r5
 2135              	.LVL294:
 2136 0390 304B     		ldr	r3, .L77+4
 2137 0392 0146     		mov	r1, r0
 2138 0394 5046     		mov	r0, r10
 2139 0396 9847     		blx	r3
 2140              	.LVL295:
 2141 0398 2990     		str	r0, [sp, #164]	@ float
1210:/home/tienluong/workspace/atlantis_fw/AsicFwS2/include/matrix.h ****         tmp[1] = mat[3] * mat[6];
 2142              		.loc 2 1210 0
 2143 039a 4046     		mov	r0, r8
 2144 039c 0C99     		ldr	r1, [sp, #48]	@ float
 2145 039e A047     		blx	r4
 2146              	.LVL296:
1211:/home/tienluong/workspace/atlantis_fw/AsicFwS2/include/matrix.h ****         tmp[2] = mat[1] * mat[7];
 2147              		.loc 2 1211 0
 2148 03a0 0B99     		ldr	r1, [sp, #44]	@ float
1210:/home/tienluong/workspace/atlantis_fw/AsicFwS2/include/matrix.h ****         tmp[1] = mat[3] * mat[6];
 2149              		.loc 2 1210 0
 2150 03a2 8346     		mov	fp, r0
 2151              	.LVL297:
1211:/home/tienluong/workspace/atlantis_fw/AsicFwS2/include/matrix.h ****         tmp[2] = mat[1] * mat[7];
 2152              		.loc 2 1211 0
 2153 03a4 4846     		mov	r0, r9
 2154              	.LVL298:
 2155 03a6 A047     		blx	r4
 2156              	.LVL299:
1212:/home/tienluong/workspace/atlantis_fw/AsicFwS2/include/matrix.h ****         tmp[3] = mat[3] * mat[5];
 2157              		.loc 2 1212 0
 2158 03a8 0C99     		ldr	r1, [sp, #48]	@ float
1211:/home/tienluong/workspace/atlantis_fw/AsicFwS2/include/matrix.h ****         tmp[2] = mat[1] * mat[7];
 2159              		.loc 2 1211 0
 2160 03aa 8246     		mov	r10, r0
 2161              	.LVL300:
1212:/home/tienluong/workspace/atlantis_fw/AsicFwS2/include/matrix.h ****         tmp[3] = mat[3] * mat[5];
 2162              		.loc 2 1212 0
 2163 03ac 3046     		mov	r0, r6
 2164              	.LVL301:
 2165 03ae A047     		blx	r4
 2166              	.LVL302:
1213:/home/tienluong/workspace/atlantis_fw/AsicFwS2/include/matrix.h ****         tmp[4] = mat[1] * mat[6];
 2167              		.loc 2 1213 0
 2168 03b0 0A99     		ldr	r1, [sp, #40]	@ float
1212:/home/tienluong/workspace/atlantis_fw/AsicFwS2/include/matrix.h ****         tmp[3] = mat[3] * mat[5];
 2169              		.loc 2 1212 0
 2170 03b2 0E90     		str	r0, [sp, #56]	@ float
 2171              	.LVL303:
1213:/home/tienluong/workspace/atlantis_fw/AsicFwS2/include/matrix.h ****         tmp[4] = mat[1] * mat[6];
 2172              		.loc 2 1213 0
 2173 03b4 4846     		mov	r0, r9
 2174              	.LVL304:
 2175 03b6 A047     		blx	r4
 2176              	.LVL305:
1214:/home/tienluong/workspace/atlantis_fw/AsicFwS2/include/matrix.h ****         tmp[5] = mat[2] * mat[5];
 2177              		.loc 2 1214 0
 2178 03b8 0B99     		ldr	r1, [sp, #44]	@ float
1213:/home/tienluong/workspace/atlantis_fw/AsicFwS2/include/matrix.h ****         tmp[4] = mat[1] * mat[6];
 2179              		.loc 2 1213 0
 2180 03ba 0F90     		str	r0, [sp, #60]	@ float
 2181              	.LVL306:
1214:/home/tienluong/workspace/atlantis_fw/AsicFwS2/include/matrix.h ****         tmp[5] = mat[2] * mat[5];
 2182              		.loc 2 1214 0
 2183 03bc 3046     		mov	r0, r6
 2184              	.LVL307:
 2185 03be A047     		blx	r4
 2186              	.LVL308:
1215:/home/tienluong/workspace/atlantis_fw/AsicFwS2/include/matrix.h ****         tmp[6] = mat[0] * mat[7];
 2187              		.loc 2 1215 0
 2188 03c0 0A99     		ldr	r1, [sp, #40]	@ float
1214:/home/tienluong/workspace/atlantis_fw/AsicFwS2/include/matrix.h ****         tmp[5] = mat[2] * mat[5];
 2189              		.loc 2 1214 0
 2190 03c2 1090     		str	r0, [sp, #64]	@ float
 2191              	.LVL309:
1215:/home/tienluong/workspace/atlantis_fw/AsicFwS2/include/matrix.h ****         tmp[6] = mat[0] * mat[7];
 2192              		.loc 2 1215 0
 2193 03c4 4046     		mov	r0, r8
 2194              	.LVL310:
 2195 03c6 A047     		blx	r4
 2196              	.LVL311:
1216:/home/tienluong/workspace/atlantis_fw/AsicFwS2/include/matrix.h ****         tmp[7] = mat[3] * mat[4];
 2197              		.loc 2 1216 0
 2198 03c8 0C99     		ldr	r1, [sp, #48]	@ float
1215:/home/tienluong/workspace/atlantis_fw/AsicFwS2/include/matrix.h ****         tmp[6] = mat[0] * mat[7];
 2199              		.loc 2 1215 0
 2200 03ca 1190     		str	r0, [sp, #68]	@ float
 2201              	.LVL312:
1216:/home/tienluong/workspace/atlantis_fw/AsicFwS2/include/matrix.h ****         tmp[7] = mat[3] * mat[4];
 2202              		.loc 2 1216 0
 2203 03cc 3846     		mov	r0, r7
 2204              	.LVL313:
 2205 03ce A047     		blx	r4
 2206              	.LVL314:
1217:/home/tienluong/workspace/atlantis_fw/AsicFwS2/include/matrix.h ****         tmp[8] = mat[0] * mat[6];
 2207              		.loc 2 1217 0
 2208 03d0 0D99     		ldr	r1, [sp, #52]	@ float
1216:/home/tienluong/workspace/atlantis_fw/AsicFwS2/include/matrix.h ****         tmp[7] = mat[3] * mat[4];
 2209              		.loc 2 1216 0
 2210 03d2 0C90     		str	r0, [sp, #48]	@ float
 2211              	.LVL315:
1217:/home/tienluong/workspace/atlantis_fw/AsicFwS2/include/matrix.h ****         tmp[8] = mat[0] * mat[6];
 2212              		.loc 2 1217 0
 2213 03d4 4846     		mov	r0, r9
 2214              	.LVL316:
 2215 03d6 A047     		blx	r4
 2216              	.LVL317:
1218:/home/tienluong/workspace/atlantis_fw/AsicFwS2/include/matrix.h ****         tmp[9] = mat[2] * mat[4];
 2217              		.loc 2 1218 0
 2218 03d8 0B99     		ldr	r1, [sp, #44]	@ float
1217:/home/tienluong/workspace/atlantis_fw/AsicFwS2/include/matrix.h ****         tmp[8] = mat[0] * mat[6];
 2219              		.loc 2 1217 0
 2220 03da 8146     		mov	r9, r0
 2221              	.LVL318:
1218:/home/tienluong/workspace/atlantis_fw/AsicFwS2/include/matrix.h ****         tmp[9] = mat[2] * mat[4];
 2222              		.loc 2 1218 0
 2223 03dc 3846     		mov	r0, r7
 2224              	.LVL319:
 2225 03de A047     		blx	r4
 2226              	.LVL320:
1219:/home/tienluong/workspace/atlantis_fw/AsicFwS2/include/matrix.h ****         tmp[10] = mat[0] * mat[5];
 2227              		.loc 2 1219 0
 2228 03e0 0D99     		ldr	r1, [sp, #52]	@ float
1218:/home/tienluong/workspace/atlantis_fw/AsicFwS2/include/matrix.h ****         tmp[9] = mat[2] * mat[4];
 2229              		.loc 2 1218 0
 2230 03e2 0B90     		str	r0, [sp, #44]	@ float
1219:/home/tienluong/workspace/atlantis_fw/AsicFwS2/include/matrix.h ****         tmp[10] = mat[0] * mat[5];
 2231              		.loc 2 1219 0
 2232 03e4 4046     		mov	r0, r8
 2233 03e6 A047     		blx	r4
 2234              	.LVL321:
1220:/home/tienluong/workspace/atlantis_fw/AsicFwS2/include/matrix.h ****         tmp[11] = mat[1] * mat[4];
 2235              		.loc 2 1220 0
 2236 03e8 0A99     		ldr	r1, [sp, #40]	@ float
1219:/home/tienluong/workspace/atlantis_fw/AsicFwS2/include/matrix.h ****         tmp[10] = mat[0] * mat[5];
 2237              		.loc 2 1219 0
 2238 03ea 8046     		mov	r8, r0
1220:/home/tienluong/workspace/atlantis_fw/AsicFwS2/include/matrix.h ****         tmp[11] = mat[1] * mat[4];
 2239              		.loc 2 1220 0
 2240 03ec 3846     		mov	r0, r7
 2241 03ee A047     		blx	r4
 2242              	.LVL322:
1221:/home/tienluong/workspace/atlantis_fw/AsicFwS2/include/matrix.h **** 
 2243              		.loc 2 1221 0
 2244 03f0 0D99     		ldr	r1, [sp, #52]	@ float
1220:/home/tienluong/workspace/atlantis_fw/AsicFwS2/include/matrix.h ****         tmp[11] = mat[1] * mat[4];
 2245              		.loc 2 1220 0
 2246 03f2 0746     		mov	r7, r0
1221:/home/tienluong/workspace/atlantis_fw/AsicFwS2/include/matrix.h **** 
 2247              		.loc 2 1221 0
 2248 03f4 3046     		mov	r0, r6
 2249 03f6 A047     		blx	r4
 2250              	.LVL323:
1224:/home/tienluong/workspace/atlantis_fw/AsicFwS2/include/matrix.h ****         dst[2]  -= tmp[1]  * mat[13] + tmp[2]  * mat[14] + tmp[5]  * mat[15];
 2251              		.loc 2 1224 0
 2252 03f8 0799     		ldr	r1, [sp, #28]	@ float
1221:/home/tienluong/workspace/atlantis_fw/AsicFwS2/include/matrix.h **** 
 2253              		.loc 2 1221 0
 2254 03fa 0646     		mov	r6, r0
1224:/home/tienluong/workspace/atlantis_fw/AsicFwS2/include/matrix.h ****         dst[2]  -= tmp[1]  * mat[13] + tmp[2]  * mat[14] + tmp[5]  * mat[15];
 2255              		.loc 2 1224 0
 2256 03fc 5846     		mov	r0, fp
 2257 03fe A047     		blx	r4
 2258              	.LVL324:
 2259 0400 0599     		ldr	r1, [sp, #20]	@ float
 2260 0402 0A90     		str	r0, [sp, #40]
 2261 0404 0F98     		ldr	r0, [sp, #60]	@ float
 2262 0406 A047     		blx	r4
 2263              	.LVL325:
 2264 0408 0A9B     		ldr	r3, [sp, #40]
 2265 040a 0146     		mov	r1, r0
 2266 040c 1846     		mov	r0, r3
 2267 040e A847     		blx	r5
 2268              	.LVL326:
 2269 0410 0A90     		str	r0, [sp, #40]
 2270 0412 1098     		ldr	r0, [sp, #64]	@ float
 2271 0414 0399     		ldr	r1, [sp, #12]	@ float
 2272 0416 A047     		blx	r4
 2273              	.LVL327:
 2274 0418 0A9B     		ldr	r3, [sp, #40]
 2275 041a 0146     		mov	r1, r0
 2276 041c 1846     		mov	r0, r3
 2277 041e A847     		blx	r5
 2278              	.LVL328:
1225:/home/tienluong/workspace/atlantis_fw/AsicFwS2/include/matrix.h ****         dst[3]   = tmp[2]  * mat[10] + tmp[5]  * mat[11] + tmp[1]  * mat[9];
 2279              		.loc 2 1225 0
 2280 0420 0799     		ldr	r1, [sp, #28]	@ float
1224:/home/tienluong/workspace/atlantis_fw/AsicFwS2/include/matrix.h ****         dst[2]  -= tmp[1]  * mat[13] + tmp[2]  * mat[14] + tmp[5]  * mat[15];
 2281              		.loc 2 1224 0
 2282 0422 0D90     		str	r0, [sp, #52]
1225:/home/tienluong/workspace/atlantis_fw/AsicFwS2/include/matrix.h ****         dst[3]   = tmp[2]  * mat[10] + tmp[5]  * mat[11] + tmp[1]  * mat[9];
 2283              		.loc 2 1225 0
 2284 0424 5046     		mov	r0, r10
 2285 0426 A047     		blx	r4
 2286              	.LVL329:
 2287 0428 0599     		ldr	r1, [sp, #20]	@ float
 2288 042a 0A90     		str	r0, [sp, #40]
 2289 042c 0E98     		ldr	r0, [sp, #56]	@ float
 2290 042e A047     		blx	r4
 2291              	.LVL330:
 2292 0430 0A9A     		ldr	r2, [sp, #40]
 2293 0432 0146     		mov	r1, r0
 2294 0434 1046     		mov	r0, r2
 2295 0436 A847     		blx	r5
 2296              	.LVL331:
 2297 0438 0399     		ldr	r1, [sp, #12]	@ float
 2298 043a 0A90     		str	r0, [sp, #40]
 2299 043c 1198     		ldr	r0, [sp, #68]	@ float
 2300 043e A047     		blx	r4
 2301              	.LVL332:
 2302 0440 0A9A     		ldr	r2, [sp, #40]
 2303 0442 0146     		mov	r1, r0
 2304 0444 1046     		mov	r0, r2
 2305 0446 A847     		blx	r5
 2306              	.LVL333:
 2307 0448 0D9B     		ldr	r3, [sp, #52]
 2308 044a 0146     		mov	r1, r0
 2309 044c 04E0     		b	.L78
 2310              	.L79:
 2311 044e 00BF     		.align	2
 2312              	.L77:
 2313 0450 00000000 		.word	__aeabi_fdiv
 2314 0454 00000000 		.word	__aeabi_fsub
 2315              	.L78:
 2316 0458 1846     		mov	r0, r3
 2317 045a 7F4B     		ldr	r3, .L80
 2318 045c 9847     		blx	r3
 2319              	.LVL334:
1226:/home/tienluong/workspace/atlantis_fw/AsicFwS2/include/matrix.h ****         dst[3]  -= tmp[4]  * mat[11] + tmp[0]  * mat[9]  + tmp[3]  * mat[10];
 2320              		.loc 2 1226 0
 2321 045e 0299     		ldr	r1, [sp, #8]	@ float
1225:/home/tienluong/workspace/atlantis_fw/AsicFwS2/include/matrix.h ****         dst[3]   = tmp[2]  * mat[10] + tmp[5]  * mat[11] + tmp[1]  * mat[9];
 2322              		.loc 2 1225 0
 2323 0460 1E90     		str	r0, [sp, #120]	@ float
1226:/home/tienluong/workspace/atlantis_fw/AsicFwS2/include/matrix.h ****         dst[3]  -= tmp[4]  * mat[11] + tmp[0]  * mat[9]  + tmp[3]  * mat[10];
 2324              		.loc 2 1226 0
 2325 0462 0E98     		ldr	r0, [sp, #56]	@ float
 2326 0464 A047     		blx	r4
 2327              	.LVL335:
 2328 0466 0499     		ldr	r1, [sp, #16]	@ float
 2329 0468 0A90     		str	r0, [sp, #40]
 2330 046a 1198     		ldr	r0, [sp, #68]	@ float
 2331 046c A047     		blx	r4
 2332              	.LVL336:
 2333 046e 0A9B     		ldr	r3, [sp, #40]
 2334 0470 0146     		mov	r1, r0
 2335 0472 1846     		mov	r0, r3
 2336 0474 A847     		blx	r5
 2337              	.LVL337:
 2338 0476 0699     		ldr	r1, [sp, #24]	@ float
 2339 0478 0A90     		str	r0, [sp, #40]
 2340 047a 5046     		mov	r0, r10
 2341 047c A047     		blx	r4
 2342              	.LVL338:
 2343 047e 0A9B     		ldr	r3, [sp, #40]
 2344 0480 0146     		mov	r1, r0
 2345 0482 1846     		mov	r0, r3
 2346 0484 A847     		blx	r5
 2347              	.LVL339:
1227:/home/tienluong/workspace/atlantis_fw/AsicFwS2/include/matrix.h ****         dst[6]   = tmp[1]  * mat[12] + tmp[6]  * mat[14] + tmp[9]  * mat[15];
 2348              		.loc 2 1227 0
 2349 0486 0499     		ldr	r1, [sp, #16]	@ float
1226:/home/tienluong/workspace/atlantis_fw/AsicFwS2/include/matrix.h ****         dst[3]  -= tmp[4]  * mat[11] + tmp[0]  * mat[9]  + tmp[3]  * mat[10];
 2350              		.loc 2 1226 0
 2351 0488 0D90     		str	r0, [sp, #52]
1227:/home/tienluong/workspace/atlantis_fw/AsicFwS2/include/matrix.h ****         dst[6]   = tmp[1]  * mat[12] + tmp[6]  * mat[14] + tmp[9]  * mat[15];
 2352              		.loc 2 1227 0
 2353 048a 1098     		ldr	r0, [sp, #64]	@ float
 2354 048c A047     		blx	r4
 2355              	.LVL340:
 2356 048e 0699     		ldr	r1, [sp, #24]	@ float
 2357 0490 0A90     		str	r0, [sp, #40]
 2358 0492 5846     		mov	r0, fp
 2359 0494 A047     		blx	r4
 2360              	.LVL341:
 2361 0496 0A9A     		ldr	r2, [sp, #40]
 2362 0498 0146     		mov	r1, r0
 2363 049a 1046     		mov	r0, r2
 2364 049c A847     		blx	r5
 2365              	.LVL342:
 2366 049e 0299     		ldr	r1, [sp, #8]	@ float
 2367 04a0 0A90     		str	r0, [sp, #40]
 2368 04a2 0F98     		ldr	r0, [sp, #60]	@ float
 2369 04a4 A047     		blx	r4
 2370              	.LVL343:
 2371 04a6 0A9A     		ldr	r2, [sp, #40]
 2372 04a8 0146     		mov	r1, r0
 2373 04aa 1046     		mov	r0, r2
 2374 04ac A847     		blx	r5
 2375              	.LVL344:
 2376 04ae 0D9B     		ldr	r3, [sp, #52]
 2377 04b0 0146     		mov	r1, r0
 2378 04b2 1846     		mov	r0, r3
 2379 04b4 684B     		ldr	r3, .L80
 2380 04b6 9847     		blx	r3
 2381              	.LVL345:
1228:/home/tienluong/workspace/atlantis_fw/AsicFwS2/include/matrix.h ****         dst[6]  -= tmp[0]  * mat[12] + tmp[7]  * mat[14] + tmp[8]  * mat[15];
 2382              		.loc 2 1228 0
 2383 04b8 0999     		ldr	r1, [sp, #36]	@ float
1227:/home/tienluong/workspace/atlantis_fw/AsicFwS2/include/matrix.h ****         dst[6]   = tmp[1]  * mat[12] + tmp[6]  * mat[14] + tmp[9]  * mat[15];
 2384              		.loc 2 1227 0
 2385 04ba 1F90     		str	r0, [sp, #124]	@ float
1228:/home/tienluong/workspace/atlantis_fw/AsicFwS2/include/matrix.h ****         dst[6]  -= tmp[0]  * mat[12] + tmp[7]  * mat[14] + tmp[8]  * mat[15];
 2386              		.loc 2 1228 0
 2387 04bc 5046     		mov	r0, r10
 2388 04be A047     		blx	r4
 2389              	.LVL346:
 2390 04c0 0599     		ldr	r1, [sp, #20]	@ float
 2391 04c2 0A90     		str	r0, [sp, #40]
 2392 04c4 0C98     		ldr	r0, [sp, #48]	@ float
 2393 04c6 A047     		blx	r4
 2394              	.LVL347:
 2395 04c8 0A9B     		ldr	r3, [sp, #40]
 2396 04ca 0146     		mov	r1, r0
 2397 04cc 1846     		mov	r0, r3
 2398 04ce A847     		blx	r5
 2399              	.LVL348:
 2400 04d0 0399     		ldr	r1, [sp, #12]	@ float
 2401 04d2 0A90     		str	r0, [sp, #40]
 2402 04d4 4046     		mov	r0, r8
 2403 04d6 A047     		blx	r4
 2404              	.LVL349:
 2405 04d8 0A9B     		ldr	r3, [sp, #40]
 2406 04da 0146     		mov	r1, r0
 2407 04dc 1846     		mov	r0, r3
 2408 04de A847     		blx	r5
 2409              	.LVL350:
1229:/home/tienluong/workspace/atlantis_fw/AsicFwS2/include/matrix.h ****         dst[7]   = tmp[8]  * mat[11] + tmp[0]  * mat[8]  + tmp[7]  * mat[10];
 2410              		.loc 2 1229 0
 2411 04e0 0999     		ldr	r1, [sp, #36]	@ float
1228:/home/tienluong/workspace/atlantis_fw/AsicFwS2/include/matrix.h ****         dst[6]  -= tmp[0]  * mat[12] + tmp[7]  * mat[14] + tmp[8]  * mat[15];
 2412              		.loc 2 1228 0
 2413 04e2 0D90     		str	r0, [sp, #52]
1229:/home/tienluong/workspace/atlantis_fw/AsicFwS2/include/matrix.h ****         dst[7]   = tmp[8]  * mat[11] + tmp[0]  * mat[8]  + tmp[7]  * mat[10];
 2414              		.loc 2 1229 0
 2415 04e4 5846     		mov	r0, fp
 2416 04e6 A047     		blx	r4
 2417              	.LVL351:
 2418 04e8 0599     		ldr	r1, [sp, #20]	@ float
 2419 04ea 0A90     		str	r0, [sp, #40]
 2420 04ec 4846     		mov	r0, r9
 2421 04ee A047     		blx	r4
 2422              	.LVL352:
 2423 04f0 0A9A     		ldr	r2, [sp, #40]
 2424 04f2 0146     		mov	r1, r0
 2425 04f4 1046     		mov	r0, r2
 2426 04f6 A847     		blx	r5
 2427              	.LVL353:
 2428 04f8 0399     		ldr	r1, [sp, #12]	@ float
 2429 04fa 0A90     		str	r0, [sp, #40]
 2430 04fc 0B98     		ldr	r0, [sp, #44]	@ float
 2431 04fe A047     		blx	r4
 2432              	.LVL354:
 2433 0500 0A9A     		ldr	r2, [sp, #40]
 2434 0502 0146     		mov	r1, r0
 2435 0504 1046     		mov	r0, r2
 2436 0506 A847     		blx	r5
 2437              	.LVL355:
 2438 0508 0D9B     		ldr	r3, [sp, #52]
 2439 050a 0146     		mov	r1, r0
 2440 050c 1846     		mov	r0, r3
 2441 050e 524B     		ldr	r3, .L80
 2442 0510 9847     		blx	r3
 2443              	.LVL356:
1230:/home/tienluong/workspace/atlantis_fw/AsicFwS2/include/matrix.h ****         dst[7]  -= tmp[6]  * mat[10] + tmp[9]  * mat[11] + tmp[1]  * mat[8];
 2444              		.loc 2 1230 0
 2445 0512 0499     		ldr	r1, [sp, #16]	@ float
1229:/home/tienluong/workspace/atlantis_fw/AsicFwS2/include/matrix.h ****         dst[7]   = tmp[8]  * mat[11] + tmp[0]  * mat[8]  + tmp[7]  * mat[10];
 2446              		.loc 2 1229 0
 2447 0514 2290     		str	r0, [sp, #136]	@ float
1230:/home/tienluong/workspace/atlantis_fw/AsicFwS2/include/matrix.h ****         dst[7]  -= tmp[6]  * mat[10] + tmp[9]  * mat[11] + tmp[1]  * mat[8];
 2448              		.loc 2 1230 0
 2449 0516 0B98     		ldr	r0, [sp, #44]	@ float
 2450 0518 A047     		blx	r4
 2451              	.LVL357:
 2452 051a 0899     		ldr	r1, [sp, #32]	@ float
 2453 051c 0A90     		str	r0, [sp, #40]
 2454 051e 5846     		mov	r0, fp
 2455 0520 A047     		blx	r4
 2456              	.LVL358:
 2457 0522 0A9B     		ldr	r3, [sp, #40]
 2458 0524 0146     		mov	r1, r0
 2459 0526 1846     		mov	r0, r3
 2460 0528 A847     		blx	r5
 2461              	.LVL359:
 2462 052a 0299     		ldr	r1, [sp, #8]	@ float
 2463 052c 8346     		mov	fp, r0
 2464              	.LVL360:
 2465 052e 4846     		mov	r0, r9
 2466 0530 A047     		blx	r4
 2467              	.LVL361:
 2468 0532 0146     		mov	r1, r0
 2469 0534 5846     		mov	r0, fp
 2470 0536 A847     		blx	r5
 2471              	.LVL362:
1231:/home/tienluong/workspace/atlantis_fw/AsicFwS2/include/matrix.h ****         dst[10]  = tmp[2]  * mat[12] + tmp[7]  * mat[13] + tmp[10] * mat[15];
 2472              		.loc 2 1231 0
 2473 0538 0299     		ldr	r1, [sp, #8]	@ float
1230:/home/tienluong/workspace/atlantis_fw/AsicFwS2/include/matrix.h ****         dst[7]  -= tmp[6]  * mat[10] + tmp[9]  * mat[11] + tmp[1]  * mat[8];
 2474              		.loc 2 1230 0
 2475 053a 8346     		mov	fp, r0
1231:/home/tienluong/workspace/atlantis_fw/AsicFwS2/include/matrix.h ****         dst[10]  = tmp[2]  * mat[12] + tmp[7]  * mat[13] + tmp[10] * mat[15];
 2476              		.loc 2 1231 0
 2477 053c 0C98     		ldr	r0, [sp, #48]	@ float
 2478 053e A047     		blx	r4
 2479              	.LVL363:
 2480 0540 0499     		ldr	r1, [sp, #16]	@ float
 2481 0542 0A90     		str	r0, [sp, #40]
 2482 0544 4046     		mov	r0, r8
 2483 0546 A047     		blx	r4
 2484              	.LVL364:
 2485 0548 0A9B     		ldr	r3, [sp, #40]
 2486 054a 0146     		mov	r1, r0
 2487 054c 1846     		mov	r0, r3
 2488 054e A847     		blx	r5
 2489              	.LVL365:
 2490 0550 0899     		ldr	r1, [sp, #32]	@ float
 2491 0552 0A90     		str	r0, [sp, #40]
 2492 0554 5046     		mov	r0, r10
 2493 0556 A047     		blx	r4
 2494              	.LVL366:
 2495 0558 0A9B     		ldr	r3, [sp, #40]
 2496 055a 0146     		mov	r1, r0
 2497 055c 1846     		mov	r0, r3
 2498 055e A847     		blx	r5
 2499              	.LVL367:
 2500 0560 3D4B     		ldr	r3, .L80
 2501 0562 0146     		mov	r1, r0
 2502 0564 5846     		mov	r0, fp
 2503 0566 9847     		blx	r3
 2504              	.LVL368:
1232:/home/tienluong/workspace/atlantis_fw/AsicFwS2/include/matrix.h ****         dst[10] -= tmp[3]  * mat[12] + tmp[6]  * mat[13] + tmp[11] * mat[15];
 2505              		.loc 2 1232 0
 2506 0568 0999     		ldr	r1, [sp, #36]	@ float
1231:/home/tienluong/workspace/atlantis_fw/AsicFwS2/include/matrix.h ****         dst[10]  = tmp[2]  * mat[12] + tmp[7]  * mat[13] + tmp[10] * mat[15];
 2507              		.loc 2 1231 0
 2508 056a 2390     		str	r0, [sp, #140]	@ float
1232:/home/tienluong/workspace/atlantis_fw/AsicFwS2/include/matrix.h ****         dst[10] -= tmp[3]  * mat[12] + tmp[6]  * mat[13] + tmp[11] * mat[15];
 2509              		.loc 2 1232 0
 2510 056c 0E98     		ldr	r0, [sp, #56]	@ float
 2511 056e A047     		blx	r4
 2512              	.LVL369:
 2513 0570 0799     		ldr	r1, [sp, #28]	@ float
 2514 0572 8246     		mov	r10, r0
 2515              	.LVL370:
 2516 0574 4846     		mov	r0, r9
 2517 0576 A047     		blx	r4
 2518              	.LVL371:
 2519 0578 0146     		mov	r1, r0
 2520 057a 5046     		mov	r0, r10
 2521 057c A847     		blx	r5
 2522              	.LVL372:
 2523 057e 0399     		ldr	r1, [sp, #12]	@ float
 2524 0580 8246     		mov	r10, r0
 2525 0582 3846     		mov	r0, r7
 2526 0584 A047     		blx	r4
 2527              	.LVL373:
 2528 0586 0146     		mov	r1, r0
 2529 0588 5046     		mov	r0, r10
 2530 058a A847     		blx	r5
 2531              	.LVL374:
1233:/home/tienluong/workspace/atlantis_fw/AsicFwS2/include/matrix.h ****         dst[11]  = tmp[6]  * mat[9]  + tmp[11] * mat[11] + tmp[3]  * mat[8];
 2532              		.loc 2 1233 0
 2533 058c 0999     		ldr	r1, [sp, #36]	@ float
1232:/home/tienluong/workspace/atlantis_fw/AsicFwS2/include/matrix.h ****         dst[10] -= tmp[3]  * mat[12] + tmp[6]  * mat[13] + tmp[11] * mat[15];
 2534              		.loc 2 1232 0
 2535 058e 8246     		mov	r10, r0
1233:/home/tienluong/workspace/atlantis_fw/AsicFwS2/include/matrix.h ****         dst[11]  = tmp[6]  * mat[9]  + tmp[11] * mat[11] + tmp[3]  * mat[8];
 2536              		.loc 2 1233 0
 2537 0590 0F98     		ldr	r0, [sp, #60]	@ float
 2538 0592 A047     		blx	r4
 2539              	.LVL375:
 2540 0594 0799     		ldr	r1, [sp, #28]	@ float
 2541 0596 8346     		mov	fp, r0
 2542 0598 0C98     		ldr	r0, [sp, #48]	@ float
 2543 059a A047     		blx	r4
 2544              	.LVL376:
 2545 059c 0146     		mov	r1, r0
 2546 059e 5846     		mov	r0, fp
 2547 05a0 A847     		blx	r5
 2548              	.LVL377:
 2549 05a2 0399     		ldr	r1, [sp, #12]	@ float
 2550 05a4 8346     		mov	fp, r0
 2551 05a6 3046     		mov	r0, r6
 2552 05a8 A047     		blx	r4
 2553              	.LVL378:
 2554 05aa 0146     		mov	r1, r0
 2555 05ac 5846     		mov	r0, fp
 2556 05ae A847     		blx	r5
 2557              	.LVL379:
 2558 05b0 294B     		ldr	r3, .L80
 2559 05b2 0146     		mov	r1, r0
 2560 05b4 5046     		mov	r0, r10
 2561 05b6 9847     		blx	r3
 2562              	.LVL380:
1234:/home/tienluong/workspace/atlantis_fw/AsicFwS2/include/matrix.h ****         dst[11] -= tmp[10] * mat[11] + tmp[2]  * mat[8]  + tmp[7]  * mat[9];
 2563              		.loc 2 1234 0
 2564 05b8 0699     		ldr	r1, [sp, #24]	@ float
1233:/home/tienluong/workspace/atlantis_fw/AsicFwS2/include/matrix.h ****         dst[11]  = tmp[6]  * mat[9]  + tmp[11] * mat[11] + tmp[3]  * mat[8];
 2565              		.loc 2 1233 0
 2566 05ba 2690     		str	r0, [sp, #152]	@ float
1234:/home/tienluong/workspace/atlantis_fw/AsicFwS2/include/matrix.h ****         dst[11] -= tmp[10] * mat[11] + tmp[2]  * mat[8]  + tmp[7]  * mat[9];
 2567              		.loc 2 1234 0
 2568 05bc 0C98     		ldr	r0, [sp, #48]	@ float
 2569 05be A047     		blx	r4
 2570              	.LVL381:
 2571 05c0 0499     		ldr	r1, [sp, #16]	@ float
 2572 05c2 8246     		mov	r10, r0
 2573 05c4 3046     		mov	r0, r6
 2574 05c6 A047     		blx	r4
 2575              	.LVL382:
 2576 05c8 0146     		mov	r1, r0
 2577 05ca 5046     		mov	r0, r10
 2578 05cc A847     		blx	r5
 2579              	.LVL383:
 2580 05ce 0899     		ldr	r1, [sp, #32]	@ float
 2581 05d0 8246     		mov	r10, r0
 2582 05d2 0F98     		ldr	r0, [sp, #60]	@ float
 2583 05d4 A047     		blx	r4
 2584              	.LVL384:
 2585 05d6 0146     		mov	r1, r0
 2586 05d8 5046     		mov	r0, r10
 2587 05da A847     		blx	r5
 2588              	.LVL385:
1235:/home/tienluong/workspace/atlantis_fw/AsicFwS2/include/matrix.h ****         dst[14]  = tmp[5]  * mat[12] + tmp[8]  * mat[13] + tmp[11] * mat[14];
 2589              		.loc 2 1235 0
 2590 05dc 0499     		ldr	r1, [sp, #16]	@ float
1234:/home/tienluong/workspace/atlantis_fw/AsicFwS2/include/matrix.h ****         dst[11] -= tmp[10] * mat[11] + tmp[2]  * mat[8]  + tmp[7]  * mat[9];
 2591              		.loc 2 1234 0
 2592 05de 8246     		mov	r10, r0
1235:/home/tienluong/workspace/atlantis_fw/AsicFwS2/include/matrix.h ****         dst[14]  = tmp[5]  * mat[12] + tmp[8]  * mat[13] + tmp[11] * mat[14];
 2593              		.loc 2 1235 0
 2594 05e0 3846     		mov	r0, r7
 2595 05e2 A047     		blx	r4
 2596              	.LVL386:
 2597 05e4 0899     		ldr	r1, [sp, #32]	@ float
 2598 05e6 8346     		mov	fp, r0
 2599 05e8 0E98     		ldr	r0, [sp, #56]	@ float
 2600 05ea A047     		blx	r4
 2601              	.LVL387:
 2602 05ec 0146     		mov	r1, r0
 2603 05ee 5846     		mov	r0, fp
 2604 05f0 A847     		blx	r5
 2605              	.LVL388:
 2606 05f2 0699     		ldr	r1, [sp, #24]	@ float
 2607 05f4 8346     		mov	fp, r0
 2608 05f6 4846     		mov	r0, r9
 2609 05f8 A047     		blx	r4
 2610              	.LVL389:
 2611 05fa 0146     		mov	r1, r0
 2612 05fc 5846     		mov	r0, fp
 2613 05fe A847     		blx	r5
 2614              	.LVL390:
 2615 0600 154B     		ldr	r3, .L80
 2616 0602 0146     		mov	r1, r0
 2617 0604 5046     		mov	r0, r10
 2618 0606 9847     		blx	r3
 2619              	.LVL391:
 2620 0608 2790     		str	r0, [sp, #156]	@ float
1236:/home/tienluong/workspace/atlantis_fw/AsicFwS2/include/matrix.h ****         dst[14] -= tmp[4]  * mat[12] + tmp[9]  * mat[13] + tmp[10] * mat[14];
 2621              		.loc 2 1236 0
 2622 060a 1198     		ldr	r0, [sp, #68]	@ float
 2623 060c 0999     		ldr	r1, [sp, #36]	@ float
 2624 060e A047     		blx	r4
 2625              	.LVL392:
 2626 0610 0799     		ldr	r1, [sp, #28]	@ float
 2627 0612 8146     		mov	r9, r0
 2628              	.LVL393:
 2629 0614 0B98     		ldr	r0, [sp, #44]	@ float
 2630 0616 A047     		blx	r4
 2631              	.LVL394:
 2632 0618 0146     		mov	r1, r0
 2633 061a 4846     		mov	r0, r9
 2634 061c A847     		blx	r5
 2635              	.LVL395:
 2636 061e 0599     		ldr	r1, [sp, #20]	@ float
 2637 0620 8146     		mov	r9, r0
 2638 0622 3046     		mov	r0, r6
 2639 0624 A047     		blx	r4
 2640              	.LVL396:
 2641 0626 0146     		mov	r1, r0
 2642 0628 4846     		mov	r0, r9
 2643 062a A847     		blx	r5
 2644              	.LVL397:
1237:/home/tienluong/workspace/atlantis_fw/AsicFwS2/include/matrix.h ****         dst[15]  = tmp[10] * mat[10] + tmp[4]  * mat[8]  + tmp[9]  * mat[9];
 2645              		.loc 2 1237 0
 2646 062c 0999     		ldr	r1, [sp, #36]	@ float
1236:/home/tienluong/workspace/atlantis_fw/AsicFwS2/include/matrix.h ****         dst[14] -= tmp[4]  * mat[12] + tmp[9]  * mat[13] + tmp[10] * mat[14];
 2647              		.loc 2 1236 0
 2648 062e 8146     		mov	r9, r0
1237:/home/tienluong/workspace/atlantis_fw/AsicFwS2/include/matrix.h ****         dst[15]  = tmp[10] * mat[10] + tmp[4]  * mat[8]  + tmp[9]  * mat[9];
 2649              		.loc 2 1237 0
 2650 0630 1098     		ldr	r0, [sp, #64]	@ float
 2651 0632 A047     		blx	r4
 2652              	.LVL398:
 2653 0634 0799     		ldr	r1, [sp, #28]	@ float
 2654 0636 8246     		mov	r10, r0
 2655 0638 4046     		mov	r0, r8
 2656 063a A047     		blx	r4
 2657              	.LVL399:
 2658 063c 0146     		mov	r1, r0
 2659 063e 5046     		mov	r0, r10
 2660 0640 A847     		blx	r5
 2661              	.LVL400:
 2662 0642 0599     		ldr	r1, [sp, #20]	@ float
 2663 0644 8246     		mov	r10, r0
 2664 0646 3846     		mov	r0, r7
 2665 0648 A047     		blx	r4
 2666              	.LVL401:
 2667 064a 0146     		mov	r1, r0
 2668 064c 5046     		mov	r0, r10
 2669 064e A847     		blx	r5
 2670              	.LVL402:
 2671 0650 014B     		ldr	r3, .L80
 2672 0652 0146     		mov	r1, r0
 2673 0654 4846     		mov	r0, r9
 2674 0656 01E0     		b	.L81
 2675              	.L82:
 2676              		.align	2
 2677              	.L80:
 2678 0658 00000000 		.word	__aeabi_fsub
 2679              	.L81:
 2680 065c 9847     		blx	r3
 2681              	.LVL403:
1238:/home/tienluong/workspace/atlantis_fw/AsicFwS2/include/matrix.h ****         dst[15] -= tmp[8]  * mat[9]  + tmp[11] * mat[10] + tmp[5]  * mat[8];
 2682              		.loc 2 1238 0
 2683 065e 0299     		ldr	r1, [sp, #8]	@ float
1237:/home/tienluong/workspace/atlantis_fw/AsicFwS2/include/matrix.h ****         dst[15]  = tmp[10] * mat[10] + tmp[4]  * mat[8]  + tmp[9]  * mat[9];
 2684              		.loc 2 1237 0
 2685 0660 2A90     		str	r0, [sp, #168]	@ float
1238:/home/tienluong/workspace/atlantis_fw/AsicFwS2/include/matrix.h ****         dst[15] -= tmp[8]  * mat[9]  + tmp[11] * mat[10] + tmp[5]  * mat[8];
 2686              		.loc 2 1238 0
 2687 0662 3846     		mov	r0, r7
 2688 0664 A047     		blx	r4
 2689              	.LVL404:
 2690 0666 0899     		ldr	r1, [sp, #32]	@ float
 2691 0668 0746     		mov	r7, r0
 2692 066a 1098     		ldr	r0, [sp, #64]	@ float
 2693 066c A047     		blx	r4
 2694              	.LVL405:
 2695 066e 0146     		mov	r1, r0
 2696 0670 3846     		mov	r0, r7
 2697 0672 A847     		blx	r5
 2698              	.LVL406:
 2699 0674 0699     		ldr	r1, [sp, #24]	@ float
 2700 0676 0746     		mov	r7, r0
 2701 0678 4046     		mov	r0, r8
 2702 067a A047     		blx	r4
 2703              	.LVL407:
 2704 067c 0146     		mov	r1, r0
 2705 067e 3846     		mov	r0, r7
 2706 0680 A847     		blx	r5
 2707              	.LVL408:
1239:/home/tienluong/workspace/atlantis_fw/AsicFwS2/include/matrix.h **** 
 2708              		.loc 2 1239 0
 2709 0682 0699     		ldr	r1, [sp, #24]	@ float
1238:/home/tienluong/workspace/atlantis_fw/AsicFwS2/include/matrix.h ****         dst[15] -= tmp[8]  * mat[9]  + tmp[11] * mat[10] + tmp[5]  * mat[8];
 2710              		.loc 2 1238 0
 2711 0684 0746     		mov	r7, r0
1239:/home/tienluong/workspace/atlantis_fw/AsicFwS2/include/matrix.h **** 
 2712              		.loc 2 1239 0
 2713 0686 0B98     		ldr	r0, [sp, #44]	@ float
 2714 0688 A047     		blx	r4
 2715              	.LVL409:
 2716 068a 0299     		ldr	r1, [sp, #8]	@ float
 2717 068c 8046     		mov	r8, r0
 2718 068e 3046     		mov	r0, r6
 2719 0690 A047     		blx	r4
 2720              	.LVL410:
 2721 0692 0146     		mov	r1, r0
 2722 0694 4046     		mov	r0, r8
 2723 0696 A847     		blx	r5
 2724              	.LVL411:
 2725 0698 0899     		ldr	r1, [sp, #32]	@ float
 2726 069a 0646     		mov	r6, r0
 2727 069c 1198     		ldr	r0, [sp, #68]	@ float
 2728 069e A047     		blx	r4
 2729              	.LVL412:
 2730 06a0 0146     		mov	r1, r0
 2731 06a2 3046     		mov	r0, r6
 2732 06a4 A847     		blx	r5
 2733              	.LVL413:
 2734 06a6 0A4B     		ldr	r3, .L83
 2735              	.LBB235:
1242:/home/tienluong/workspace/atlantis_fw/AsicFwS2/include/matrix.h ****     }
 2736              		.loc 2 1242 0
 2737 06a8 0025     		movs	r5, #0
 2738              	.LBE235:
1239:/home/tienluong/workspace/atlantis_fw/AsicFwS2/include/matrix.h **** 
 2739              		.loc 2 1239 0
 2740 06aa 0146     		mov	r1, r0
 2741 06ac 3846     		mov	r0, r7
 2742 06ae 9847     		blx	r3
 2743              	.LVL414:
 2744 06b0 2B90     		str	r0, [sp, #172]	@ float
 2745              	.LVL415:
 2746              	.L72:
 2747              	.LBB236:
1242:/home/tienluong/workspace/atlantis_fw/AsicFwS2/include/matrix.h ****     }
 2748              		.loc 2 1242 0 discriminator 3
 2749 06b2 1CAB     		add	r3, sp, #112
 2750 06b4 1A99     		ldr	r1, [sp, #104]	@ float
 2751 06b6 53F82500 		ldr	r0, [r3, r5, lsl #2]	@ float
 2752 06ba A047     		blx	r4
 2753              	.LVL416:
 2754 06bc 019B     		ldr	r3, [sp, #4]
 2755 06be 43F82500 		str	r0, [r3, r5, lsl #2]	@ float
 2756 06c2 0135     		adds	r5, r5, #1
 2757              	.LVL417:
 2758 06c4 102D     		cmp	r5, #16
 2759 06c6 F4D1     		bne	.L72
 2760              	.LBE236:
 2761              	.LBE237:
1243:/home/tienluong/workspace/atlantis_fw/AsicFwS2/include/matrix.h **** };
 2762              		.loc 2 1243 0
 2763 06c8 2DB0     		add	sp, sp, #180
 2764              	.LCFI26:
 2765              		.cfi_def_cfa_offset 36
 2766              		@ sp needed
 2767 06ca BDE8F08F 		pop	{r4, r5, r6, r7, r8, r9, r10, fp, pc}
 2768              	.LVL418:
 2769              	.L84:
 2770 06ce 00BF     		.align	2
 2771              	.L83:
 2772 06d0 00000000 		.word	__aeabi_fsub
 2773              		.cfi_endproc
 2774              	.LFE3653:
 2776              		.section	.text._ZN4ltaf7inverseIfLi4ELb1EEENS_6MatrixIT_XT0_EXT0_EXT1_EEERKS3_,"axG",%progbits,_ZN
 2777              		.align	1
 2778              		.weak	_ZN4ltaf7inverseIfLi4ELb1EEENS_6MatrixIT_XT0_EXT0_EXT1_EEERKS3_
 2779              		.thumb
 2780              		.thumb_func
 2782              	_ZN4ltaf7inverseIfLi4ELb1EEENS_6MatrixIT_XT0_EXT0_EXT1_EEERKS3_:
 2783              	.LFB3545:
1247:/home/tienluong/workspace/atlantis_fw/AsicFwS2/include/matrix.h **** {
 2784              		.loc 2 1247 0
 2785              		.cfi_startproc
 2786              		@ args = 0, pretend = 0, frame = 8
 2787              		@ frame_needed = 0, uses_anonymous_args = 0
 2788              	.LVL419:
 2789 0000 73B5     		push	{r0, r1, r4, r5, r6, lr}
 2790              	.LCFI27:
 2791              		.cfi_def_cfa_offset 24
 2792              		.cfi_offset 4, -16
 2793              		.cfi_offset 5, -12
 2794              		.cfi_offset 6, -8
 2795              		.cfi_offset 14, -4
 2796              	.LBB244:
 2797              	.LBB245:
 2798              	.LBB246:
 591:/home/tienluong/workspace/atlantis_fw/AsicFwS2/include/matrix.h **** 
 2799              		.loc 2 591 0
 2800 0002 0D46     		mov	r5, r1
 2801              	.LBE246:
 2802              	.LBE245:
 2803              	.LBE244:
1247:/home/tienluong/workspace/atlantis_fw/AsicFwS2/include/matrix.h **** {
 2804              		.loc 2 1247 0
 2805 0004 0646     		mov	r6, r0
 2806              	.LBB249:
 2807              	.LBB248:
 2808              	.LBB247:
 591:/home/tienluong/workspace/atlantis_fw/AsicFwS2/include/matrix.h **** 
 2809              		.loc 2 591 0
 2810 0006 0446     		mov	r4, r0
 2811 0008 0FCD     		ldmia	r5!, {r0, r1, r2, r3}
 2812              	.LVL420:
 2813 000a 0FC4     		stmia	r4!, {r0, r1, r2, r3}
 2814              	.LVL421:
 2815 000c 0FCD     		ldmia	r5!, {r0, r1, r2, r3}
 2816              	.LVL422:
 2817 000e 0FC4     		stmia	r4!, {r0, r1, r2, r3}
 2818 0010 0FCD     		ldmia	r5!, {r0, r1, r2, r3}
 2819              	.LVL423:
 2820 0012 0FC4     		stmia	r4!, {r0, r1, r2, r3}
 2821 0014 95E80F00 		ldmia	r5, {r0, r1, r2, r3}
 2822 0018 84E80F00 		stmia	r4, {r0, r1, r2, r3}
 2823              	.LVL424:
 2824              	.LBE247:
 2825              	.LBE248:
1251:/home/tienluong/workspace/atlantis_fw/AsicFwS2/include/matrix.h ****     return rval;
 2826              		.loc 2 1251 0
 2827 001c 01A8     		add	r0, sp, #4
 2828 001e 3146     		mov	r1, r6
 2829 0020 024B     		ldr	r3, .L86
 2830 0022 9847     		blx	r3
 2831              	.LVL425:
 2832              	.LBE249:
1253:/home/tienluong/workspace/atlantis_fw/AsicFwS2/include/matrix.h **** 
 2833              		.loc 2 1253 0
 2834 0024 3046     		mov	r0, r6
 2835 0026 02B0     		add	sp, sp, #8
 2836              	.LCFI28:
 2837              		.cfi_def_cfa_offset 16
 2838              		@ sp needed
 2839 0028 70BD     		pop	{r4, r5, r6, pc}
 2840              	.LVL426:
 2841              	.L87:
 2842 002a 00BF     		.align	2
 2843              	.L86:
 2844 002c 00000000 		.word	_ZNK4ltaf20SquareMatrixInverterIfLi4EE3runEPf
 2845              		.cfi_endproc
 2846              	.LFE3545:
 2848              		.section	.text._ZN4ltaf7inverseIfLi4ELb0EEENS_6MatrixIT_XT0_EXT0_EXT1_EEERKS3_,"axG",%progbits,_ZN
 2849              		.align	1
 2850              		.weak	_ZN4ltaf7inverseIfLi4ELb0EEENS_6MatrixIT_XT0_EXT0_EXT1_EEERKS3_
 2851              		.thumb
 2852              		.thumb_func
 2854              	_ZN4ltaf7inverseIfLi4ELb0EEENS_6MatrixIT_XT0_EXT0_EXT1_EEERKS3_:
 2855              	.LFB3548:
1247:/home/tienluong/workspace/atlantis_fw/AsicFwS2/include/matrix.h **** {
 2856              		.loc 2 1247 0
 2857              		.cfi_startproc
 2858              		@ args = 0, pretend = 0, frame = 8
 2859              		@ frame_needed = 0, uses_anonymous_args = 0
 2860              	.LVL427:
 2861 0000 73B5     		push	{r0, r1, r4, r5, r6, lr}
 2862              	.LCFI29:
 2863              		.cfi_def_cfa_offset 24
 2864              		.cfi_offset 4, -16
 2865              		.cfi_offset 5, -12
 2866              		.cfi_offset 6, -8
 2867              		.cfi_offset 14, -4
 2868              	.LBB256:
 2869              	.LBB257:
 2870              	.LBB258:
 593:/home/tienluong/workspace/atlantis_fw/AsicFwS2/include/matrix.h **** 
 2871              		.loc 2 593 0
 2872 0002 0D46     		mov	r5, r1
 2873              	.LBE258:
 2874              	.LBE257:
 2875              	.LBE256:
1247:/home/tienluong/workspace/atlantis_fw/AsicFwS2/include/matrix.h **** {
 2876              		.loc 2 1247 0
 2877 0004 0646     		mov	r6, r0
 2878              	.LBB261:
 2879              	.LBB260:
 2880              	.LBB259:
 593:/home/tienluong/workspace/atlantis_fw/AsicFwS2/include/matrix.h **** 
 2881              		.loc 2 593 0
 2882 0006 0446     		mov	r4, r0
 2883 0008 0FCD     		ldmia	r5!, {r0, r1, r2, r3}
 2884              	.LVL428:
 2885 000a 0FC4     		stmia	r4!, {r0, r1, r2, r3}
 2886              	.LVL429:
 2887 000c 0FCD     		ldmia	r5!, {r0, r1, r2, r3}
 2888              	.LVL430:
 2889 000e 0FC4     		stmia	r4!, {r0, r1, r2, r3}
 2890 0010 0FCD     		ldmia	r5!, {r0, r1, r2, r3}
 2891              	.LVL431:
 2892 0012 0FC4     		stmia	r4!, {r0, r1, r2, r3}
 2893 0014 95E80F00 		ldmia	r5, {r0, r1, r2, r3}
 2894 0018 84E80F00 		stmia	r4, {r0, r1, r2, r3}
 2895              	.LVL432:
 2896              	.LBE259:
 2897              	.LBE260:
1251:/home/tienluong/workspace/atlantis_fw/AsicFwS2/include/matrix.h ****     return rval;
 2898              		.loc 2 1251 0
 2899 001c 01A8     		add	r0, sp, #4
 2900 001e 3146     		mov	r1, r6
 2901 0020 024B     		ldr	r3, .L89
 2902 0022 9847     		blx	r3
 2903              	.LVL433:
 2904              	.LBE261:
1253:/home/tienluong/workspace/atlantis_fw/AsicFwS2/include/matrix.h **** 
 2905              		.loc 2 1253 0
 2906 0024 3046     		mov	r0, r6
 2907 0026 02B0     		add	sp, sp, #8
 2908              	.LCFI30:
 2909              		.cfi_def_cfa_offset 16
 2910              		@ sp needed
 2911 0028 70BD     		pop	{r4, r5, r6, pc}
 2912              	.LVL434:
 2913              	.L90:
 2914 002a 00BF     		.align	2
 2915              	.L89:
 2916 002c 00000000 		.word	_ZNK4ltaf20SquareMatrixInverterIfLi4EE3runEPf
 2917              		.cfi_endproc
 2918              	.LFE3548:
 2920              		.global	__aeabi_ddiv
 2921              		.section	.text._ZNK4ltaf20SquareMatrixInverterIdLi2EE3runEPd,"axG",%progbits,_ZNK4ltaf20SquareMatr
 2922              		.align	1
 2923              		.weak	_ZNK4ltaf20SquareMatrixInverterIdLi2EE3runEPd
 2924              		.thumb
 2925              		.thumb_func
 2927              	_ZNK4ltaf20SquareMatrixInverterIdLi2EE3runEPd:
 2928              	.LFB3670:
1121:/home/tienluong/workspace/atlantis_fw/AsicFwS2/include/matrix.h ****     {
 2929              		.loc 2 1121 0
 2930              		.cfi_startproc
 2931              		@ args = 0, pretend = 0, frame = 48
 2932              		@ frame_needed = 0, uses_anonymous_args = 0
 2933              	.LVL435:
 2934 0000 2DE9F04F 		push	{r4, r5, r6, r7, r8, r9, r10, fp, lr}
 2935              	.LCFI31:
 2936              		.cfi_def_cfa_offset 36
 2937              		.cfi_offset 4, -36
 2938              		.cfi_offset 5, -32
 2939              		.cfi_offset 6, -28
 2940              		.cfi_offset 7, -24
 2941              		.cfi_offset 8, -20
 2942              		.cfi_offset 9, -16
 2943              		.cfi_offset 10, -12
 2944              		.cfi_offset 11, -8
 2945              		.cfi_offset 14, -4
 2946 0004 8DB0     		sub	sp, sp, #52
 2947              	.LCFI32:
 2948              		.cfi_def_cfa_offset 88
 2949              	.LBB262:
1123:/home/tienluong/workspace/atlantis_fw/AsicFwS2/include/matrix.h **** 
 2950              		.loc 2 1123 0
 2951 0006 D1E90023 		ldrd	r2, [r1]
 2952              	.LBE262:
1121:/home/tienluong/workspace/atlantis_fw/AsicFwS2/include/matrix.h ****     {
 2953              		.loc 2 1121 0
 2954 000a 0C46     		mov	r4, r1
 2955              	.LBB264:
1123:/home/tienluong/workspace/atlantis_fw/AsicFwS2/include/matrix.h **** 
 2956              		.loc 2 1123 0
 2957 000c CDE90023 		strd	r2, [sp]
 2958 0010 D1F808B0 		ldr	fp, [r1, #8]
 2959 0014 D1E90623 		ldrd	r2, [r1, #24]
 2960 0018 CF68     		ldr	r7, [r1, #12]
 2961 001a D1F810A0 		ldr	r10, [r1, #16]
 2962 001e 4E69     		ldr	r6, [r1, #20]
 2963              	.LVL436:
 2964 0020 1F4D     		ldr	r5, .L94
 2965 0022 DDE90001 		ldrd	r0, [sp]
 2966              	.LVL437:
 2967 0026 CDE90223 		strd	r2, [sp, #8]
 2968              	.LVL438:
 2969 002a A847     		blx	r5
 2970              	.LVL439:
 2971 002c 3346     		mov	r3, r6
 2972 002e 5246     		mov	r2, r10
1130:/home/tienluong/workspace/atlantis_fw/AsicFwS2/include/matrix.h ****         tmp[3] = mat[0];
 2973              		.loc 2 1130 0
 2974 0030 06F10046 		add	r6, r6, #-2147483648
1123:/home/tienluong/workspace/atlantis_fw/AsicFwS2/include/matrix.h **** 
 2975              		.loc 2 1123 0
 2976 0034 8046     		mov	r8, r0
 2977 0036 8946     		mov	r9, r1
 2978 0038 5846     		mov	r0, fp
 2979 003a 3946     		mov	r1, r7
 2980 003c A847     		blx	r5
 2981              	.LVL440:
 2982 003e DFF868C0 		ldr	ip, .L94+8
1129:/home/tienluong/workspace/atlantis_fw/AsicFwS2/include/matrix.h ****         tmp[2] = -mat[2];
 2983              		.loc 2 1129 0
 2984 0042 07F10047 		add	r7, r7, #-2147483648
1123:/home/tienluong/workspace/atlantis_fw/AsicFwS2/include/matrix.h **** 
 2985              		.loc 2 1123 0
 2986 0046 0246     		mov	r2, r0
 2987 0048 0B46     		mov	r3, r1
 2988 004a 4046     		mov	r0, r8
 2989 004c 4946     		mov	r1, r9
 2990 004e E047     		blx	ip
 2991              	.LVL441:
1125:/home/tienluong/workspace/atlantis_fw/AsicFwS2/include/matrix.h **** 
 2992              		.loc 2 1125 0
 2993 0050 DFF858C0 		ldr	ip, .L94+12
1123:/home/tienluong/workspace/atlantis_fw/AsicFwS2/include/matrix.h **** 
 2994              		.loc 2 1123 0
 2995 0054 0246     		mov	r2, r0
 2996 0056 0B46     		mov	r3, r1
1125:/home/tienluong/workspace/atlantis_fw/AsicFwS2/include/matrix.h **** 
 2997              		.loc 2 1125 0
 2998 0058 0020     		movs	r0, #0
 2999 005a 1249     		ldr	r1, .L94+4
 3000 005c E047     		blx	ip
 3001              	.LVL442:
1128:/home/tienluong/workspace/atlantis_fw/AsicFwS2/include/matrix.h ****         tmp[1] = -mat[1];
 3002              		.loc 2 1128 0
 3003 005e DDE90223 		ldrd	r2, [sp, #8]
1129:/home/tienluong/workspace/atlantis_fw/AsicFwS2/include/matrix.h ****         tmp[2] = -mat[2];
 3004              		.loc 2 1129 0
 3005 0062 0797     		str	r7, [sp, #28]
 3006 0064 02AF     		add	r7, sp, #8
1130:/home/tienluong/workspace/atlantis_fw/AsicFwS2/include/matrix.h ****         tmp[3] = mat[0];
 3007              		.loc 2 1130 0
 3008 0066 0996     		str	r6, [sp, #36]
 3009 0068 A4F10806 		sub	r6, r4, #8
 3010 006c 1834     		adds	r4, r4, #24
 3011              	.LVL443:
1128:/home/tienluong/workspace/atlantis_fw/AsicFwS2/include/matrix.h ****         tmp[1] = -mat[1];
 3012              		.loc 2 1128 0
 3013 006e CDE90423 		strd	r2, [sp, #16]
1131:/home/tienluong/workspace/atlantis_fw/AsicFwS2/include/matrix.h **** 
 3014              		.loc 2 1131 0
 3015 0072 DDE90023 		ldrd	r2, [sp]
1129:/home/tienluong/workspace/atlantis_fw/AsicFwS2/include/matrix.h ****         tmp[2] = -mat[2];
 3016              		.loc 2 1129 0
 3017 0076 CDF818B0 		str	fp, [sp, #24]
1130:/home/tienluong/workspace/atlantis_fw/AsicFwS2/include/matrix.h ****         tmp[3] = mat[0];
 3018              		.loc 2 1130 0
 3019 007a CDF820A0 		str	r10, [sp, #32]
1131:/home/tienluong/workspace/atlantis_fw/AsicFwS2/include/matrix.h **** 
 3020              		.loc 2 1131 0
 3021 007e CDE90A23 		strd	r2, [sp, #40]
1125:/home/tienluong/workspace/atlantis_fw/AsicFwS2/include/matrix.h **** 
 3022              		.loc 2 1125 0
 3023 0082 8046     		mov	r8, r0
 3024 0084 8946     		mov	r9, r1
 3025              	.LVL444:
 3026              	.L92:
 3027              	.LBB263:
1133:/home/tienluong/workspace/atlantis_fw/AsicFwS2/include/matrix.h ****     }
 3028              		.loc 2 1133 0 discriminator 3
 3029 0086 F7E90201 		ldrd	r0, [r7, #8]!
 3030 008a 4246     		mov	r2, r8
 3031 008c 4B46     		mov	r3, r9
 3032 008e A847     		blx	r5
 3033              	.LVL445:
 3034 0090 E6E90201 		strd	r0, [r6, #8]!
 3035 0094 A642     		cmp	r6, r4
 3036 0096 F6D1     		bne	.L92
 3037              	.LBE263:
 3038              	.LBE264:
1134:/home/tienluong/workspace/atlantis_fw/AsicFwS2/include/matrix.h **** };
 3039              		.loc 2 1134 0
 3040 0098 0DB0     		add	sp, sp, #52
 3041              	.LCFI33:
 3042              		.cfi_def_cfa_offset 36
 3043              		@ sp needed
 3044 009a BDE8F08F 		pop	{r4, r5, r6, r7, r8, r9, r10, fp, pc}
 3045              	.LVL446:
 3046              	.L95:
 3047 009e 00BF     		.align	2
 3048              	.L94:
 3049 00a0 00000000 		.word	__aeabi_dmul
 3050 00a4 0000F03F 		.word	1072693248
 3051 00a8 00000000 		.word	__aeabi_dsub
 3052 00ac 00000000 		.word	__aeabi_ddiv
 3053              		.cfi_endproc
 3054              	.LFE3670:
 3056              		.section	.text._ZN4ltaf7inverseIdLi2ELb1EEENS_6MatrixIT_XT0_EXT0_EXT1_EEERKS3_,"axG",%progbits,_ZN
 3057              		.align	1
 3058              		.weak	_ZN4ltaf7inverseIdLi2ELb1EEENS_6MatrixIT_XT0_EXT0_EXT1_EEERKS3_
 3059              		.thumb
 3060              		.thumb_func
 3062              	_ZN4ltaf7inverseIdLi2ELb1EEENS_6MatrixIT_XT0_EXT0_EXT1_EEERKS3_:
 3063              	.LFB3549:
1247:/home/tienluong/workspace/atlantis_fw/AsicFwS2/include/matrix.h **** {
 3064              		.loc 2 1247 0
 3065              		.cfi_startproc
 3066              		@ args = 0, pretend = 0, frame = 8
 3067              		@ frame_needed = 0, uses_anonymous_args = 0
 3068              	.LVL447:
 3069 0000 73B5     		push	{r0, r1, r4, r5, r6, lr}
 3070              	.LCFI34:
 3071              		.cfi_def_cfa_offset 24
 3072              		.cfi_offset 4, -16
 3073              		.cfi_offset 5, -12
 3074              		.cfi_offset 6, -8
 3075              		.cfi_offset 14, -4
 3076              	.LBB271:
 3077              	.LBB272:
 3078              	.LBB273:
 591:/home/tienluong/workspace/atlantis_fw/AsicFwS2/include/matrix.h **** 
 3079              		.loc 2 591 0
 3080 0002 0D46     		mov	r5, r1
 3081              	.LBE273:
 3082              	.LBE272:
 3083              	.LBE271:
1247:/home/tienluong/workspace/atlantis_fw/AsicFwS2/include/matrix.h **** {
 3084              		.loc 2 1247 0
 3085 0004 0646     		mov	r6, r0
 3086              	.LBB276:
 3087              	.LBB275:
 3088              	.LBB274:
 591:/home/tienluong/workspace/atlantis_fw/AsicFwS2/include/matrix.h **** 
 3089              		.loc 2 591 0
 3090 0006 0446     		mov	r4, r0
 3091 0008 0FCD     		ldmia	r5!, {r0, r1, r2, r3}
 3092              	.LVL448:
 3093 000a 0FC4     		stmia	r4!, {r0, r1, r2, r3}
 3094              	.LVL449:
 3095 000c 95E80F00 		ldmia	r5, {r0, r1, r2, r3}
 3096 0010 84E80F00 		stmia	r4, {r0, r1, r2, r3}
 3097              	.LVL450:
 3098              	.LBE274:
 3099              	.LBE275:
1251:/home/tienluong/workspace/atlantis_fw/AsicFwS2/include/matrix.h ****     return rval;
 3100              		.loc 2 1251 0
 3101 0014 01A8     		add	r0, sp, #4
 3102 0016 3146     		mov	r1, r6
 3103 0018 024B     		ldr	r3, .L97
 3104 001a 9847     		blx	r3
 3105              	.LVL451:
 3106              	.LBE276:
1253:/home/tienluong/workspace/atlantis_fw/AsicFwS2/include/matrix.h **** 
 3107              		.loc 2 1253 0
 3108 001c 3046     		mov	r0, r6
 3109 001e 02B0     		add	sp, sp, #8
 3110              	.LCFI35:
 3111              		.cfi_def_cfa_offset 16
 3112              		@ sp needed
 3113 0020 70BD     		pop	{r4, r5, r6, pc}
 3114              	.LVL452:
 3115              	.L98:
 3116 0022 00BF     		.align	2
 3117              	.L97:
 3118 0024 00000000 		.word	_ZNK4ltaf20SquareMatrixInverterIdLi2EE3runEPd
 3119              		.cfi_endproc
 3120              	.LFE3549:
 3122              		.section	.text._ZN4ltaf7inverseIdLi2ELb0EEENS_6MatrixIT_XT0_EXT0_EXT1_EEERKS3_,"axG",%progbits,_ZN
 3123              		.align	1
 3124              		.weak	_ZN4ltaf7inverseIdLi2ELb0EEENS_6MatrixIT_XT0_EXT0_EXT1_EEERKS3_
 3125              		.thumb
 3126              		.thumb_func
 3128              	_ZN4ltaf7inverseIdLi2ELb0EEENS_6MatrixIT_XT0_EXT0_EXT1_EEERKS3_:
 3129              	.LFB3552:
1247:/home/tienluong/workspace/atlantis_fw/AsicFwS2/include/matrix.h **** {
 3130              		.loc 2 1247 0
 3131              		.cfi_startproc
 3132              		@ args = 0, pretend = 0, frame = 8
 3133              		@ frame_needed = 0, uses_anonymous_args = 0
 3134              	.LVL453:
 3135 0000 73B5     		push	{r0, r1, r4, r5, r6, lr}
 3136              	.LCFI36:
 3137              		.cfi_def_cfa_offset 24
 3138              		.cfi_offset 4, -16
 3139              		.cfi_offset 5, -12
 3140              		.cfi_offset 6, -8
 3141              		.cfi_offset 14, -4
 3142              	.LBB283:
 3143              	.LBB284:
 3144              	.LBB285:
 593:/home/tienluong/workspace/atlantis_fw/AsicFwS2/include/matrix.h **** 
 3145              		.loc 2 593 0
 3146 0002 0D46     		mov	r5, r1
 3147              	.LBE285:
 3148              	.LBE284:
 3149              	.LBE283:
1247:/home/tienluong/workspace/atlantis_fw/AsicFwS2/include/matrix.h **** {
 3150              		.loc 2 1247 0
 3151 0004 0646     		mov	r6, r0
 3152              	.LBB288:
 3153              	.LBB287:
 3154              	.LBB286:
 593:/home/tienluong/workspace/atlantis_fw/AsicFwS2/include/matrix.h **** 
 3155              		.loc 2 593 0
 3156 0006 0446     		mov	r4, r0
 3157 0008 0FCD     		ldmia	r5!, {r0, r1, r2, r3}
 3158              	.LVL454:
 3159 000a 0FC4     		stmia	r4!, {r0, r1, r2, r3}
 3160              	.LVL455:
 3161 000c 95E80F00 		ldmia	r5, {r0, r1, r2, r3}
 3162 0010 84E80F00 		stmia	r4, {r0, r1, r2, r3}
 3163              	.LVL456:
 3164              	.LBE286:
 3165              	.LBE287:
1251:/home/tienluong/workspace/atlantis_fw/AsicFwS2/include/matrix.h ****     return rval;
 3166              		.loc 2 1251 0
 3167 0014 01A8     		add	r0, sp, #4
 3168 0016 3146     		mov	r1, r6
 3169 0018 024B     		ldr	r3, .L100
 3170 001a 9847     		blx	r3
 3171              	.LVL457:
 3172              	.LBE288:
1253:/home/tienluong/workspace/atlantis_fw/AsicFwS2/include/matrix.h **** 
 3173              		.loc 2 1253 0
 3174 001c 3046     		mov	r0, r6
 3175 001e 02B0     		add	sp, sp, #8
 3176              	.LCFI37:
 3177              		.cfi_def_cfa_offset 16
 3178              		@ sp needed
 3179 0020 70BD     		pop	{r4, r5, r6, pc}
 3180              	.LVL458:
 3181              	.L101:
 3182 0022 00BF     		.align	2
 3183              	.L100:
 3184 0024 00000000 		.word	_ZNK4ltaf20SquareMatrixInverterIdLi2EE3runEPd
 3185              		.cfi_endproc
 3186              	.LFE3552:
 3188              		.global	__aeabi_dadd
 3189              		.section	.text._ZNK4ltaf20SquareMatrixInverterIdLi3EE3runEPd,"axG",%progbits,_ZNK4ltaf20SquareMatr
 3190              		.align	1
 3191              		.weak	_ZNK4ltaf20SquareMatrixInverterIdLi3EE3runEPd
 3192              		.thumb
 3193              		.thumb_func
 3195              	_ZNK4ltaf20SquareMatrixInverterIdLi3EE3runEPd:
 3196              	.LFB3675:
1140:/home/tienluong/workspace/atlantis_fw/AsicFwS2/include/matrix.h ****     {
 3197              		.loc 2 1140 0
 3198              		.cfi_startproc
 3199              		@ args = 0, pretend = 0, frame = 168
 3200              		@ frame_needed = 0, uses_anonymous_args = 0
 3201              	.LVL459:
 3202 0000 2DE9F04F 		push	{r4, r5, r6, r7, r8, r9, r10, fp, lr}
 3203              	.LCFI38:
 3204              		.cfi_def_cfa_offset 36
 3205              		.cfi_offset 4, -36
 3206              		.cfi_offset 5, -32
 3207              		.cfi_offset 6, -28
 3208              		.cfi_offset 7, -24
 3209              		.cfi_offset 8, -20
 3210              		.cfi_offset 9, -16
 3211              		.cfi_offset 10, -12
 3212              		.cfi_offset 11, -8
 3213              		.cfi_offset 14, -4
 3214 0004 ABB0     		sub	sp, sp, #172
 3215              	.LCFI39:
 3216              		.cfi_def_cfa_offset 208
 3217              	.LBB289:
1142:/home/tienluong/workspace/atlantis_fw/AsicFwS2/include/matrix.h ****                       - mat[1] * ( mat[3] * mat[8] - mat[5] * mat[6] )
 3218              		.loc 2 1142 0
 3219 0006 D1E90023 		ldrd	r2, [r1]
 3220              	.LBE289:
1140:/home/tienluong/workspace/atlantis_fw/AsicFwS2/include/matrix.h ****     {
 3221              		.loc 2 1140 0
 3222 000a 0D46     		mov	r5, r1
 3223              	.LBB291:
1142:/home/tienluong/workspace/atlantis_fw/AsicFwS2/include/matrix.h ****                       - mat[1] * ( mat[3] * mat[8] - mat[5] * mat[6] )
 3224              		.loc 2 1142 0
 3225 000c CDE90023 		strd	r2, [sp]
 3226 0010 D1E90823 		ldrd	r2, [r1, #32]
 3227 0014 CDE90423 		strd	r2, [sp, #16]
 3228 0018 D1E91023 		ldrd	r2, [r1, #64]
 3229 001c CDE90623 		strd	r2, [sp, #24]
 3230 0020 D1E90E23 		ldrd	r2, [r1, #56]
 3231 0024 CDE90823 		strd	r2, [sp, #32]
 3232 0028 D1E90A23 		ldrd	r2, [r1, #40]
1144:/home/tienluong/workspace/atlantis_fw/AsicFwS2/include/matrix.h **** 
 3233              		.loc 2 1144 0
 3234 002c 834C     		ldr	r4, .L105
1142:/home/tienluong/workspace/atlantis_fw/AsicFwS2/include/matrix.h ****                       - mat[1] * ( mat[3] * mat[8] - mat[5] * mat[6] )
 3235              		.loc 2 1142 0
 3236 002e CDE90A23 		strd	r2, [sp, #40]
1144:/home/tienluong/workspace/atlantis_fw/AsicFwS2/include/matrix.h **** 
 3237              		.loc 2 1144 0
 3238 0032 DDE90401 		ldrd	r0, [sp, #16]
 3239              	.LVL460:
 3240 0036 DDE90623 		ldrd	r2, [sp, #24]
 3241 003a A047     		blx	r4
 3242              	.LVL461:
 3243 003c DDE90A23 		ldrd	r2, [sp, #40]
 3244 0040 7F4E     		ldr	r6, .L105+4
 3245 0042 8046     		mov	r8, r0
 3246 0044 8946     		mov	r9, r1
 3247 0046 DDE90801 		ldrd	r0, [sp, #32]
 3248 004a A047     		blx	r4
 3249              	.LVL462:
 3250 004c 0246     		mov	r2, r0
 3251 004e 0B46     		mov	r3, r1
 3252 0050 4046     		mov	r0, r8
 3253 0052 4946     		mov	r1, r9
 3254 0054 B047     		blx	r6
 3255              	.LVL463:
1143:/home/tienluong/workspace/atlantis_fw/AsicFwS2/include/matrix.h ****                       + mat[2] * ( mat[3] * mat[7] - mat[4] * mat[6] );
 3256              		.loc 2 1143 0
 3257 0056 D5E90623 		ldrd	r2, [r5, #24]
 3258 005a CDE90C23 		strd	r2, [sp, #48]
 3259 005e D5E90C23 		ldrd	r2, [r5, #48]
 3260 0062 CDE90E23 		strd	r2, [sp, #56]
1144:/home/tienluong/workspace/atlantis_fw/AsicFwS2/include/matrix.h **** 
 3261              		.loc 2 1144 0
 3262 0066 DDE90623 		ldrd	r2, [sp, #24]
1143:/home/tienluong/workspace/atlantis_fw/AsicFwS2/include/matrix.h ****                       + mat[2] * ( mat[3] * mat[7] - mat[4] * mat[6] );
 3263              		.loc 2 1143 0
 3264 006a D5E902AB 		ldrd	r10, [r5, #8]
1144:/home/tienluong/workspace/atlantis_fw/AsicFwS2/include/matrix.h **** 
 3265              		.loc 2 1144 0
 3266 006e CDE91001 		strd	r0, [sp, #64]
 3267 0072 DDE90C01 		ldrd	r0, [sp, #48]
 3268 0076 A047     		blx	r4
 3269              	.LVL464:
 3270 0078 DDE90E23 		ldrd	r2, [sp, #56]
 3271 007c 8046     		mov	r8, r0
 3272 007e 8946     		mov	r9, r1
 3273 0080 DDE90A01 		ldrd	r0, [sp, #40]
 3274 0084 A047     		blx	r4
 3275              	.LVL465:
 3276 0086 0246     		mov	r2, r0
 3277 0088 0B46     		mov	r3, r1
 3278 008a 4046     		mov	r0, r8
 3279 008c 4946     		mov	r1, r9
 3280 008e B047     		blx	r6
 3281              	.LVL466:
 3282 0090 D5E90423 		ldrd	r2, [r5, #16]
 3283 0094 CDE90223 		strd	r2, [sp, #8]
 3284 0098 DDE90823 		ldrd	r2, [sp, #32]
 3285 009c 0746     		mov	r7, r0
 3286 009e 1591     		str	r1, [sp, #84]
 3287 00a0 DDE90C01 		ldrd	r0, [sp, #48]
 3288 00a4 A047     		blx	r4
 3289              	.LVL467:
 3290 00a6 DDE90E23 		ldrd	r2, [sp, #56]
 3291 00aa 8046     		mov	r8, r0
 3292 00ac 8946     		mov	r9, r1
 3293 00ae DDE90401 		ldrd	r0, [sp, #16]
 3294 00b2 A047     		blx	r4
 3295              	.LVL468:
 3296 00b4 0246     		mov	r2, r0
 3297 00b6 0B46     		mov	r3, r1
 3298 00b8 4046     		mov	r0, r8
 3299 00ba 4946     		mov	r1, r9
 3300 00bc B047     		blx	r6
 3301              	.LVL469:
 3302 00be DDE91023 		ldrd	r2, [sp, #64]
 3303 00c2 CDE91201 		strd	r0, [sp, #72]
 3304              	.LVL470:
 3305 00c6 DDE90001 		ldrd	r0, [sp]
 3306              	.LVL471:
 3307 00ca A047     		blx	r4
 3308              	.LVL472:
 3309 00cc 3A46     		mov	r2, r7
 3310 00ce 159B     		ldr	r3, [sp, #84]
 3311 00d0 8046     		mov	r8, r0
 3312 00d2 8946     		mov	r9, r1
 3313 00d4 5046     		mov	r0, r10
 3314 00d6 5946     		mov	r1, fp
 3315 00d8 A047     		blx	r4
 3316              	.LVL473:
 3317 00da 0246     		mov	r2, r0
 3318 00dc 0B46     		mov	r3, r1
 3319 00de 4046     		mov	r0, r8
 3320 00e0 4946     		mov	r1, r9
 3321 00e2 B047     		blx	r6
 3322              	.LVL474:
 3323 00e4 DDE91223 		ldrd	r2, [sp, #72]
 3324 00e8 8046     		mov	r8, r0
 3325 00ea 8946     		mov	r9, r1
 3326 00ec DDE90201 		ldrd	r0, [sp, #8]
 3327 00f0 A047     		blx	r4
 3328              	.LVL475:
 3329 00f2 DFF854C1 		ldr	ip, .L105+12
 3330 00f6 0246     		mov	r2, r0
 3331 00f8 0B46     		mov	r3, r1
 3332 00fa 4046     		mov	r0, r8
 3333 00fc 4946     		mov	r1, r9
 3334 00fe E047     		blx	ip
 3335              	.LVL476:
1146:/home/tienluong/workspace/atlantis_fw/AsicFwS2/include/matrix.h **** 
 3336              		.loc 2 1146 0
 3337 0100 DFF848C1 		ldr	ip, .L105+16
1144:/home/tienluong/workspace/atlantis_fw/AsicFwS2/include/matrix.h **** 
 3338              		.loc 2 1144 0
 3339 0104 0246     		mov	r2, r0
 3340 0106 0B46     		mov	r3, r1
1146:/home/tienluong/workspace/atlantis_fw/AsicFwS2/include/matrix.h **** 
 3341              		.loc 2 1146 0
 3342 0108 0020     		movs	r0, #0
 3343 010a 4E49     		ldr	r1, .L105+8
 3344 010c E047     		blx	ip
 3345              	.LVL477:
1149:/home/tienluong/workspace/atlantis_fw/AsicFwS2/include/matrix.h ****         tmp[1] = -( mat[1] * mat[8] - mat[2] * mat[7] );
 3346              		.loc 2 1149 0
 3347 010e DDE91023 		ldrd	r2, [sp, #64]
 3348 0112 CDE91823 		strd	r2, [sp, #96]
1150:/home/tienluong/workspace/atlantis_fw/AsicFwS2/include/matrix.h ****         tmp[2] =  mat[1] * mat[5] - mat[2] * mat[4];
 3349              		.loc 2 1150 0
 3350 0116 DDE90623 		ldrd	r2, [sp, #24]
1146:/home/tienluong/workspace/atlantis_fw/AsicFwS2/include/matrix.h **** 
 3351              		.loc 2 1146 0
 3352 011a CDE91601 		strd	r0, [sp, #88]
 3353              	.LVL478:
1150:/home/tienluong/workspace/atlantis_fw/AsicFwS2/include/matrix.h ****         tmp[2] =  mat[1] * mat[5] - mat[2] * mat[4];
 3354              		.loc 2 1150 0
 3355 011e 5046     		mov	r0, r10
 3356              	.LVL479:
 3357 0120 5946     		mov	r1, fp
 3358 0122 A047     		blx	r4
 3359              	.LVL480:
 3360 0124 DDE90823 		ldrd	r2, [sp, #32]
 3361 0128 8046     		mov	r8, r0
 3362 012a 8946     		mov	r9, r1
 3363 012c DDE90201 		ldrd	r0, [sp, #8]
 3364 0130 A047     		blx	r4
 3365              	.LVL481:
 3366 0132 0246     		mov	r2, r0
 3367 0134 0B46     		mov	r3, r1
 3368 0136 4046     		mov	r0, r8
 3369 0138 4946     		mov	r1, r9
 3370 013a B047     		blx	r6
 3371              	.LVL482:
1151:/home/tienluong/workspace/atlantis_fw/AsicFwS2/include/matrix.h ****         tmp[3] = -( mat[3] * mat[8] - mat[5] * mat[6] );
 3372              		.loc 2 1151 0
 3373 013c DDE90A23 		ldrd	r2, [sp, #40]
1150:/home/tienluong/workspace/atlantis_fw/AsicFwS2/include/matrix.h ****         tmp[2] =  mat[1] * mat[5] - mat[2] * mat[4];
 3374              		.loc 2 1150 0
 3375 0140 01F10041 		add	r1, r1, #-2147483648
 3376 0144 1A90     		str	r0, [sp, #104]
1151:/home/tienluong/workspace/atlantis_fw/AsicFwS2/include/matrix.h ****         tmp[3] = -( mat[3] * mat[8] - mat[5] * mat[6] );
 3377              		.loc 2 1151 0
 3378 0146 5046     		mov	r0, r10
1150:/home/tienluong/workspace/atlantis_fw/AsicFwS2/include/matrix.h ****         tmp[2] =  mat[1] * mat[5] - mat[2] * mat[4];
 3379              		.loc 2 1150 0
 3380 0148 1B91     		str	r1, [sp, #108]
1151:/home/tienluong/workspace/atlantis_fw/AsicFwS2/include/matrix.h ****         tmp[3] = -( mat[3] * mat[8] - mat[5] * mat[6] );
 3381              		.loc 2 1151 0
 3382 014a 5946     		mov	r1, fp
 3383 014c A047     		blx	r4
 3384              	.LVL483:
 3385 014e DDE90423 		ldrd	r2, [sp, #16]
 3386 0152 8046     		mov	r8, r0
 3387 0154 8946     		mov	r9, r1
 3388 0156 DDE90201 		ldrd	r0, [sp, #8]
 3389 015a A047     		blx	r4
 3390              	.LVL484:
 3391 015c 0246     		mov	r2, r0
 3392 015e 0B46     		mov	r3, r1
 3393 0160 4046     		mov	r0, r8
 3394 0162 4946     		mov	r1, r9
 3395 0164 B047     		blx	r6
 3396              	.LVL485:
1152:/home/tienluong/workspace/atlantis_fw/AsicFwS2/include/matrix.h ****         tmp[4] =  mat[0] * mat[8] - mat[2] * mat[6];
 3397              		.loc 2 1152 0
 3398 0166 159B     		ldr	r3, [sp, #84]
 3399 0168 1E97     		str	r7, [sp, #120]
 3400 016a 16AF     		add	r7, sp, #88
 3401              	.LVL486:
1151:/home/tienluong/workspace/atlantis_fw/AsicFwS2/include/matrix.h ****         tmp[3] = -( mat[3] * mat[8] - mat[5] * mat[6] );
 3402              		.loc 2 1151 0
 3403 016c CDE91C01 		strd	r0, [sp, #112]
1152:/home/tienluong/workspace/atlantis_fw/AsicFwS2/include/matrix.h ****         tmp[4] =  mat[0] * mat[8] - mat[2] * mat[6];
 3404              		.loc 2 1152 0
 3405 0170 03F10041 		add	r1, r3, #-2147483648
1153:/home/tienluong/workspace/atlantis_fw/AsicFwS2/include/matrix.h ****         tmp[5] = -( mat[0] * mat[5] - mat[3] * mat[2] );
 3406              		.loc 2 1153 0
 3407 0174 DDE90623 		ldrd	r2, [sp, #24]
1152:/home/tienluong/workspace/atlantis_fw/AsicFwS2/include/matrix.h ****         tmp[4] =  mat[0] * mat[8] - mat[2] * mat[6];
 3408              		.loc 2 1152 0
 3409 0178 1F91     		str	r1, [sp, #124]
1153:/home/tienluong/workspace/atlantis_fw/AsicFwS2/include/matrix.h ****         tmp[5] = -( mat[0] * mat[5] - mat[3] * mat[2] );
 3410              		.loc 2 1153 0
 3411 017a DDE90001 		ldrd	r0, [sp]
 3412 017e A047     		blx	r4
 3413              	.LVL487:
 3414 0180 DDE90E23 		ldrd	r2, [sp, #56]
 3415 0184 8046     		mov	r8, r0
 3416 0186 8946     		mov	r9, r1
 3417 0188 DDE90201 		ldrd	r0, [sp, #8]
 3418 018c A047     		blx	r4
 3419              	.LVL488:
 3420 018e 0246     		mov	r2, r0
 3421 0190 0B46     		mov	r3, r1
 3422 0192 4046     		mov	r0, r8
 3423 0194 4946     		mov	r1, r9
 3424 0196 B047     		blx	r6
 3425              	.LVL489:
1154:/home/tienluong/workspace/atlantis_fw/AsicFwS2/include/matrix.h ****         tmp[6] =  mat[3] * mat[7] - mat[6] * mat[ 4];
 3426              		.loc 2 1154 0
 3427 0198 DDE90A23 		ldrd	r2, [sp, #40]
1153:/home/tienluong/workspace/atlantis_fw/AsicFwS2/include/matrix.h ****         tmp[5] = -( mat[0] * mat[5] - mat[3] * mat[2] );
 3428              		.loc 2 1153 0
 3429 019c CDE92001 		strd	r0, [sp, #128]
1154:/home/tienluong/workspace/atlantis_fw/AsicFwS2/include/matrix.h ****         tmp[6] =  mat[3] * mat[7] - mat[6] * mat[ 4];
 3430              		.loc 2 1154 0
 3431 01a0 DDE90001 		ldrd	r0, [sp]
 3432 01a4 A047     		blx	r4
 3433              	.LVL490:
 3434 01a6 DDE90223 		ldrd	r2, [sp, #8]
 3435 01aa 8046     		mov	r8, r0
 3436 01ac 8946     		mov	r9, r1
 3437 01ae DDE90C01 		ldrd	r0, [sp, #48]
 3438 01b2 A047     		blx	r4
 3439              	.LVL491:
 3440 01b4 0246     		mov	r2, r0
 3441 01b6 0B46     		mov	r3, r1
 3442 01b8 4046     		mov	r0, r8
 3443 01ba 4946     		mov	r1, r9
 3444 01bc B047     		blx	r6
 3445              	.LVL492:
1155:/home/tienluong/workspace/atlantis_fw/AsicFwS2/include/matrix.h ****         tmp[7] = -( mat[0] * mat[7] - mat[6] * mat[1] );
 3446              		.loc 2 1155 0
 3447 01be DDE91223 		ldrd	r2, [sp, #72]
 3448 01c2 CDE92423 		strd	r2, [sp, #144]
1156:/home/tienluong/workspace/atlantis_fw/AsicFwS2/include/matrix.h ****         tmp[8] =  mat[0] * mat[4] - mat[3] * mat[1];
 3449              		.loc 2 1156 0
 3450 01c6 DDE90823 		ldrd	r2, [sp, #32]
1154:/home/tienluong/workspace/atlantis_fw/AsicFwS2/include/matrix.h ****         tmp[6] =  mat[3] * mat[7] - mat[6] * mat[ 4];
 3451              		.loc 2 1154 0
 3452 01ca 01F10041 		add	r1, r1, #-2147483648
 3453 01ce 2290     		str	r0, [sp, #136]
 3454 01d0 2391     		str	r1, [sp, #140]
1156:/home/tienluong/workspace/atlantis_fw/AsicFwS2/include/matrix.h ****         tmp[8] =  mat[0] * mat[4] - mat[3] * mat[1];
 3455              		.loc 2 1156 0
 3456 01d2 DDE90001 		ldrd	r0, [sp]
 3457 01d6 A047     		blx	r4
 3458              	.LVL493:
 3459 01d8 5246     		mov	r2, r10
 3460 01da 5B46     		mov	r3, fp
 3461 01dc 8046     		mov	r8, r0
 3462 01de 8946     		mov	r9, r1
 3463 01e0 DDE90E01 		ldrd	r0, [sp, #56]
 3464 01e4 A047     		blx	r4
 3465              	.LVL494:
 3466 01e6 0246     		mov	r2, r0
 3467 01e8 0B46     		mov	r3, r1
 3468 01ea 4046     		mov	r0, r8
 3469 01ec 4946     		mov	r1, r9
 3470 01ee B047     		blx	r6
 3471              	.LVL495:
1157:/home/tienluong/workspace/atlantis_fw/AsicFwS2/include/matrix.h **** 
 3472              		.loc 2 1157 0
 3473 01f0 DDE90423 		ldrd	r2, [sp, #16]
1156:/home/tienluong/workspace/atlantis_fw/AsicFwS2/include/matrix.h ****         tmp[8] =  mat[0] * mat[4] - mat[3] * mat[1];
 3474              		.loc 2 1156 0
 3475 01f4 01F10041 		add	r1, r1, #-2147483648
 3476 01f8 2690     		str	r0, [sp, #152]
 3477 01fa 2791     		str	r1, [sp, #156]
1157:/home/tienluong/workspace/atlantis_fw/AsicFwS2/include/matrix.h **** 
 3478              		.loc 2 1157 0
 3479 01fc DDE90001 		ldrd	r0, [sp]
 3480 0200 A047     		blx	r4
 3481              	.LVL496:
 3482 0202 5246     		mov	r2, r10
 3483 0204 5B46     		mov	r3, fp
 3484 0206 8046     		mov	r8, r0
 3485 0208 8946     		mov	r9, r1
 3486 020a DDE90C01 		ldrd	r0, [sp, #48]
 3487 020e A047     		blx	r4
 3488              	.LVL497:
 3489 0210 0246     		mov	r2, r0
 3490 0212 0B46     		mov	r3, r1
 3491 0214 4046     		mov	r0, r8
 3492 0216 4946     		mov	r1, r9
 3493 0218 B047     		blx	r6
 3494              	.LVL498:
 3495 021a A5F10806 		sub	r6, r5, #8
 3496 021e 4035     		adds	r5, r5, #64
 3497              	.LVL499:
 3498 0220 CDE92801 		strd	r0, [sp, #160]
 3499              	.LVL500:
 3500              	.L103:
 3501              	.LBB290:
1159:/home/tienluong/workspace/atlantis_fw/AsicFwS2/include/matrix.h ****     }
 3502              		.loc 2 1159 0 discriminator 3
 3503 0224 F7E90201 		ldrd	r0, [r7, #8]!
 3504 0228 DDE91623 		ldrd	r2, [sp, #88]
 3505 022c A047     		blx	r4
 3506              	.LVL501:
 3507 022e E6E90201 		strd	r0, [r6, #8]!
 3508 0232 AE42     		cmp	r6, r5
 3509 0234 F6D1     		bne	.L103
 3510              	.LBE290:
 3511              	.LBE291:
1160:/home/tienluong/workspace/atlantis_fw/AsicFwS2/include/matrix.h **** };
 3512              		.loc 2 1160 0
 3513 0236 2BB0     		add	sp, sp, #172
 3514              	.LCFI40:
 3515              		.cfi_def_cfa_offset 36
 3516              		@ sp needed
 3517 0238 BDE8F08F 		pop	{r4, r5, r6, r7, r8, r9, r10, fp, pc}
 3518              	.LVL502:
 3519              	.L106:
 3520              		.align	2
 3521              	.L105:
 3522 023c 00000000 		.word	__aeabi_dmul
 3523 0240 00000000 		.word	__aeabi_dsub
 3524 0244 0000F03F 		.word	1072693248
 3525 0248 00000000 		.word	__aeabi_dadd
 3526 024c 00000000 		.word	__aeabi_ddiv
 3527              		.cfi_endproc
 3528              	.LFE3675:
 3530              		.section	.text._ZN4ltaf7inverseIdLi3ELb1EEENS_6MatrixIT_XT0_EXT0_EXT1_EEERKS3_,"axG",%progbits,_ZN
 3531              		.align	1
 3532              		.weak	_ZN4ltaf7inverseIdLi3ELb1EEENS_6MatrixIT_XT0_EXT0_EXT1_EEERKS3_
 3533              		.thumb
 3534              		.thumb_func
 3536              	_ZN4ltaf7inverseIdLi3ELb1EEENS_6MatrixIT_XT0_EXT0_EXT1_EEERKS3_:
 3537              	.LFB3550:
1247:/home/tienluong/workspace/atlantis_fw/AsicFwS2/include/matrix.h **** {
 3538              		.loc 2 1247 0
 3539              		.cfi_startproc
 3540              		@ args = 0, pretend = 0, frame = 8
 3541              		@ frame_needed = 0, uses_anonymous_args = 0
 3542              	.LVL503:
 3543 0000 13B5     		push	{r0, r1, r4, lr}
 3544              	.LCFI41:
 3545              		.cfi_def_cfa_offset 16
 3546              		.cfi_offset 4, -8
 3547              		.cfi_offset 14, -4
 3548              	.LBB298:
 3549              	.LBB299:
 3550              	.LBB300:
 591:/home/tienluong/workspace/atlantis_fw/AsicFwS2/include/matrix.h **** 
 3551              		.loc 2 591 0
 3552 0002 4822     		movs	r2, #72
 3553              	.LBE300:
 3554              	.LBE299:
 3555              	.LBE298:
1247:/home/tienluong/workspace/atlantis_fw/AsicFwS2/include/matrix.h **** {
 3556              		.loc 2 1247 0
 3557 0004 0446     		mov	r4, r0
 3558              	.LVL504:
 3559              	.LBB303:
 3560              	.LBB302:
 3561              	.LBB301:
 591:/home/tienluong/workspace/atlantis_fw/AsicFwS2/include/matrix.h **** 
 3562              		.loc 2 591 0
 3563 0006 044B     		ldr	r3, .L108
 3564 0008 9847     		blx	r3
 3565              	.LVL505:
 3566              	.LBE301:
 3567              	.LBE302:
1251:/home/tienluong/workspace/atlantis_fw/AsicFwS2/include/matrix.h ****     return rval;
 3568              		.loc 2 1251 0
 3569 000a 01A8     		add	r0, sp, #4
 3570 000c 2146     		mov	r1, r4
 3571 000e 034B     		ldr	r3, .L108+4
 3572 0010 9847     		blx	r3
 3573              	.LVL506:
 3574              	.LBE303:
1253:/home/tienluong/workspace/atlantis_fw/AsicFwS2/include/matrix.h **** 
 3575              		.loc 2 1253 0
 3576 0012 2046     		mov	r0, r4
 3577 0014 02B0     		add	sp, sp, #8
 3578              	.LCFI42:
 3579              		.cfi_def_cfa_offset 8
 3580              		@ sp needed
 3581 0016 10BD     		pop	{r4, pc}
 3582              	.LVL507:
 3583              	.L109:
 3584              		.align	2
 3585              	.L108:
 3586 0018 00000000 		.word	memcpy
 3587 001c 00000000 		.word	_ZNK4ltaf20SquareMatrixInverterIdLi3EE3runEPd
 3588              		.cfi_endproc
 3589              	.LFE3550:
 3591              		.section	.text._ZN4ltaf7inverseIdLi3ELb0EEENS_6MatrixIT_XT0_EXT0_EXT1_EEERKS3_,"axG",%progbits,_ZN
 3592              		.align	1
 3593              		.weak	_ZN4ltaf7inverseIdLi3ELb0EEENS_6MatrixIT_XT0_EXT0_EXT1_EEERKS3_
 3594              		.thumb
 3595              		.thumb_func
 3597              	_ZN4ltaf7inverseIdLi3ELb0EEENS_6MatrixIT_XT0_EXT0_EXT1_EEERKS3_:
 3598              	.LFB3553:
1247:/home/tienluong/workspace/atlantis_fw/AsicFwS2/include/matrix.h **** {
 3599              		.loc 2 1247 0
 3600              		.cfi_startproc
 3601              		@ args = 0, pretend = 0, frame = 8
 3602              		@ frame_needed = 0, uses_anonymous_args = 0
 3603              	.LVL508:
 3604 0000 13B5     		push	{r0, r1, r4, lr}
 3605              	.LCFI43:
 3606              		.cfi_def_cfa_offset 16
 3607              		.cfi_offset 4, -8
 3608              		.cfi_offset 14, -4
 3609              	.LBB310:
 3610              	.LBB311:
 3611              	.LBB312:
 593:/home/tienluong/workspace/atlantis_fw/AsicFwS2/include/matrix.h **** 
 3612              		.loc 2 593 0
 3613 0002 4822     		movs	r2, #72
 3614              	.LBE312:
 3615              	.LBE311:
 3616              	.LBE310:
1247:/home/tienluong/workspace/atlantis_fw/AsicFwS2/include/matrix.h **** {
 3617              		.loc 2 1247 0
 3618 0004 0446     		mov	r4, r0
 3619              	.LVL509:
 3620              	.LBB315:
 3621              	.LBB314:
 3622              	.LBB313:
 593:/home/tienluong/workspace/atlantis_fw/AsicFwS2/include/matrix.h **** 
 3623              		.loc 2 593 0
 3624 0006 044B     		ldr	r3, .L111
 3625 0008 9847     		blx	r3
 3626              	.LVL510:
 3627              	.LBE313:
 3628              	.LBE314:
1251:/home/tienluong/workspace/atlantis_fw/AsicFwS2/include/matrix.h ****     return rval;
 3629              		.loc 2 1251 0
 3630 000a 01A8     		add	r0, sp, #4
 3631 000c 2146     		mov	r1, r4
 3632 000e 034B     		ldr	r3, .L111+4
 3633 0010 9847     		blx	r3
 3634              	.LVL511:
 3635              	.LBE315:
1253:/home/tienluong/workspace/atlantis_fw/AsicFwS2/include/matrix.h **** 
 3636              		.loc 2 1253 0
 3637 0012 2046     		mov	r0, r4
 3638 0014 02B0     		add	sp, sp, #8
 3639              	.LCFI44:
 3640              		.cfi_def_cfa_offset 8
 3641              		@ sp needed
 3642 0016 10BD     		pop	{r4, pc}
 3643              	.LVL512:
 3644              	.L112:
 3645              		.align	2
 3646              	.L111:
 3647 0018 00000000 		.word	memcpy
 3648 001c 00000000 		.word	_ZNK4ltaf20SquareMatrixInverterIdLi3EE3runEPd
 3649              		.cfi_endproc
 3650              	.LFE3553:
 3652              		.section	.text._ZNK4ltaf20SquareMatrixInverterIdLi4EE3runEPd,"axG",%progbits,_ZNK4ltaf20SquareMatr
 3653              		.align	1
 3654              		.weak	_ZNK4ltaf20SquareMatrixInverterIdLi4EE3runEPd
 3655              		.thumb
 3656              		.thumb_func
 3658              	_ZNK4ltaf20SquareMatrixInverterIdLi4EE3runEPd:
 3659              	.LFB3680:
1166:/home/tienluong/workspace/atlantis_fw/AsicFwS2/include/matrix.h ****     {
 3660              		.loc 2 1166 0
 3661              		.cfi_startproc
 3662              		@ args = 0, pretend = 0, frame = 376
 3663              		@ frame_needed = 0, uses_anonymous_args = 0
 3664              	.LVL513:
 3665 0000 2DE9F04F 		push	{r4, r5, r6, r7, r8, r9, r10, fp, lr}
 3666              	.LCFI45:
 3667              		.cfi_def_cfa_offset 36
 3668              		.cfi_offset 4, -36
 3669              		.cfi_offset 5, -32
 3670              		.cfi_offset 6, -28
 3671              		.cfi_offset 7, -24
 3672              		.cfi_offset 8, -20
 3673              		.cfi_offset 9, -16
 3674              		.cfi_offset 10, -12
 3675              		.cfi_offset 11, -8
 3676              		.cfi_offset 14, -4
 3677 0004 DFB0     		sub	sp, sp, #380
 3678              	.LCFI46:
 3679              		.cfi_def_cfa_offset 416
 3680              	.LBB316:
1172:/home/tienluong/workspace/atlantis_fw/AsicFwS2/include/matrix.h ****         tmp[1] = mat[11] * mat[14];
 3681              		.loc 2 1172 0
 3682 0006 D1E91423 		ldrd	r2, [r1, #80]
 3683              	.LBE316:
1166:/home/tienluong/workspace/atlantis_fw/AsicFwS2/include/matrix.h ****     {
 3684              		.loc 2 1166 0
 3685 000a 8A46     		mov	r10, r1
 3686              	.LBB318:
1172:/home/tienluong/workspace/atlantis_fw/AsicFwS2/include/matrix.h ****         tmp[1] = mat[11] * mat[14];
 3687              		.loc 2 1172 0
 3688 000c CDE90823 		strd	r2, [sp, #32]
 3689 0010 934C     		ldr	r4, .L116
 3690 0012 D1E91E23 		ldrd	r2, [r1, #120]
 3691 0016 DDE90801 		ldrd	r0, [sp, #32]
 3692              	.LVL514:
 3693 001a CDE90A23 		strd	r2, [sp, #40]
 3694 001e A047     		blx	r4
 3695              	.LVL515:
1173:/home/tienluong/workspace/atlantis_fw/AsicFwS2/include/matrix.h ****         tmp[2] = mat[9] * mat[15];
 3696              		.loc 2 1173 0
 3697 0020 DAE91623 		ldrd	r2, [r10, #88]
 3698 0024 CDE90C23 		strd	r2, [sp, #48]
 3699 0028 DAE91C23 		ldrd	r2, [r10, #112]
 3700 002c CDE90E23 		strd	r2, [sp, #56]
1186:/home/tienluong/workspace/atlantis_fw/AsicFwS2/include/matrix.h ****         dst[0]  -= tmp[1] * mat[5] + tmp[2] * mat[6] + tmp[5]  * mat[7];
 3701              		.loc 2 1186 0
 3702 0030 8C4D     		ldr	r5, .L116+4
1187:/home/tienluong/workspace/atlantis_fw/AsicFwS2/include/matrix.h ****         dst[4]   = tmp[1] * mat[4] + tmp[6] * mat[6] + tmp[9]  * mat[7];
 3703              		.loc 2 1187 0
 3704 0032 DFF834B2 		ldr	fp, .L116+8
1172:/home/tienluong/workspace/atlantis_fw/AsicFwS2/include/matrix.h ****         tmp[1] = mat[11] * mat[14];
 3705              		.loc 2 1172 0
 3706 0036 CDE92001 		strd	r0, [sp, #128]
 3707              	.LVL516:
1173:/home/tienluong/workspace/atlantis_fw/AsicFwS2/include/matrix.h ****         tmp[2] = mat[9] * mat[15];
 3708              		.loc 2 1173 0
 3709 003a DDE90C01 		ldrd	r0, [sp, #48]
 3710              	.LVL517:
 3711 003e A047     		blx	r4
 3712              	.LVL518:
1174:/home/tienluong/workspace/atlantis_fw/AsicFwS2/include/matrix.h ****         tmp[3] = mat[11] * mat[13];
 3713              		.loc 2 1174 0
 3714 0040 DAE91223 		ldrd	r2, [r10, #72]
 3715 0044 CDE91023 		strd	r2, [sp, #64]
1173:/home/tienluong/workspace/atlantis_fw/AsicFwS2/include/matrix.h ****         tmp[2] = mat[9] * mat[15];
 3716              		.loc 2 1173 0
 3717 0048 CDE92201 		strd	r0, [sp, #136]
 3718              	.LVL519:
1174:/home/tienluong/workspace/atlantis_fw/AsicFwS2/include/matrix.h ****         tmp[3] = mat[11] * mat[13];
 3719              		.loc 2 1174 0
 3720 004c 1046     		mov	r0, r2
 3721              	.LVL520:
 3722 004e 1946     		mov	r1, r3
 3723 0050 DDE90A23 		ldrd	r2, [sp, #40]
 3724 0054 A047     		blx	r4
 3725              	.LVL521:
1175:/home/tienluong/workspace/atlantis_fw/AsicFwS2/include/matrix.h ****         tmp[4] = mat[9] * mat[14];
 3726              		.loc 2 1175 0
 3727 0056 DAE91A23 		ldrd	r2, [r10, #104]
 3728 005a CDE91223 		strd	r2, [sp, #72]
1174:/home/tienluong/workspace/atlantis_fw/AsicFwS2/include/matrix.h ****         tmp[3] = mat[11] * mat[13];
 3729              		.loc 2 1174 0
 3730 005e CDE92401 		strd	r0, [sp, #144]
 3731              	.LVL522:
1175:/home/tienluong/workspace/atlantis_fw/AsicFwS2/include/matrix.h ****         tmp[4] = mat[9] * mat[14];
 3732              		.loc 2 1175 0
 3733 0062 DDE90C01 		ldrd	r0, [sp, #48]
 3734              	.LVL523:
 3735 0066 A047     		blx	r4
 3736              	.LVL524:
1176:/home/tienluong/workspace/atlantis_fw/AsicFwS2/include/matrix.h ****         tmp[5] = mat[10] * mat[13];
 3737              		.loc 2 1176 0
 3738 0068 DDE90E23 		ldrd	r2, [sp, #56]
1175:/home/tienluong/workspace/atlantis_fw/AsicFwS2/include/matrix.h ****         tmp[4] = mat[9] * mat[14];
 3739              		.loc 2 1175 0
 3740 006c CDE92601 		strd	r0, [sp, #152]
 3741              	.LVL525:
1176:/home/tienluong/workspace/atlantis_fw/AsicFwS2/include/matrix.h ****         tmp[5] = mat[10] * mat[13];
 3742              		.loc 2 1176 0
 3743 0070 DDE91001 		ldrd	r0, [sp, #64]
 3744              	.LVL526:
 3745 0074 A047     		blx	r4
 3746              	.LVL527:
1177:/home/tienluong/workspace/atlantis_fw/AsicFwS2/include/matrix.h ****         tmp[6] = mat[8] * mat[15];
 3747              		.loc 2 1177 0
 3748 0076 DDE91223 		ldrd	r2, [sp, #72]
1176:/home/tienluong/workspace/atlantis_fw/AsicFwS2/include/matrix.h ****         tmp[5] = mat[10] * mat[13];
 3749              		.loc 2 1176 0
 3750 007a CDE92801 		strd	r0, [sp, #160]
1177:/home/tienluong/workspace/atlantis_fw/AsicFwS2/include/matrix.h ****         tmp[6] = mat[8] * mat[15];
 3751              		.loc 2 1177 0
 3752 007e DDE90801 		ldrd	r0, [sp, #32]
 3753 0082 A047     		blx	r4
 3754              	.LVL528:
1178:/home/tienluong/workspace/atlantis_fw/AsicFwS2/include/matrix.h ****         tmp[7] = mat[11] * mat[12];
 3755              		.loc 2 1178 0
 3756 0084 DAE91023 		ldrd	r2, [r10, #64]
 3757 0088 CDE91423 		strd	r2, [sp, #80]
1177:/home/tienluong/workspace/atlantis_fw/AsicFwS2/include/matrix.h ****         tmp[6] = mat[8] * mat[15];
 3758              		.loc 2 1177 0
 3759 008c CDE92A01 		strd	r0, [sp, #168]
1178:/home/tienluong/workspace/atlantis_fw/AsicFwS2/include/matrix.h ****         tmp[7] = mat[11] * mat[12];
 3760              		.loc 2 1178 0
 3761 0090 1046     		mov	r0, r2
 3762 0092 1946     		mov	r1, r3
 3763 0094 DDE90A23 		ldrd	r2, [sp, #40]
 3764 0098 A047     		blx	r4
 3765              	.LVL529:
1179:/home/tienluong/workspace/atlantis_fw/AsicFwS2/include/matrix.h ****         tmp[8] = mat[8] * mat[14];
 3766              		.loc 2 1179 0
 3767 009a DAE91823 		ldrd	r2, [r10, #96]
 3768 009e CDE91623 		strd	r2, [sp, #88]
1178:/home/tienluong/workspace/atlantis_fw/AsicFwS2/include/matrix.h ****         tmp[7] = mat[11] * mat[12];
 3769              		.loc 2 1178 0
 3770 00a2 CDE92C01 		strd	r0, [sp, #176]
1179:/home/tienluong/workspace/atlantis_fw/AsicFwS2/include/matrix.h ****         tmp[8] = mat[8] * mat[14];
 3771              		.loc 2 1179 0
 3772 00a6 DDE90C01 		ldrd	r0, [sp, #48]
 3773 00aa A047     		blx	r4
 3774              	.LVL530:
1180:/home/tienluong/workspace/atlantis_fw/AsicFwS2/include/matrix.h ****         tmp[9] = mat[10] * mat[12];
 3775              		.loc 2 1180 0
 3776 00ac DDE90E23 		ldrd	r2, [sp, #56]
1179:/home/tienluong/workspace/atlantis_fw/AsicFwS2/include/matrix.h ****         tmp[8] = mat[8] * mat[14];
 3777              		.loc 2 1179 0
 3778 00b0 CDE92E01 		strd	r0, [sp, #184]
1180:/home/tienluong/workspace/atlantis_fw/AsicFwS2/include/matrix.h ****         tmp[9] = mat[10] * mat[12];
 3779              		.loc 2 1180 0
 3780 00b4 DDE91401 		ldrd	r0, [sp, #80]
 3781 00b8 A047     		blx	r4
 3782              	.LVL531:
1181:/home/tienluong/workspace/atlantis_fw/AsicFwS2/include/matrix.h ****         tmp[10] = mat[8] * mat[13];
 3783              		.loc 2 1181 0
 3784 00ba DDE91623 		ldrd	r2, [sp, #88]
1180:/home/tienluong/workspace/atlantis_fw/AsicFwS2/include/matrix.h ****         tmp[9] = mat[10] * mat[12];
 3785              		.loc 2 1180 0
 3786 00be CDE93001 		strd	r0, [sp, #192]
1181:/home/tienluong/workspace/atlantis_fw/AsicFwS2/include/matrix.h ****         tmp[10] = mat[8] * mat[13];
 3787              		.loc 2 1181 0
 3788 00c2 DDE90801 		ldrd	r0, [sp, #32]
 3789 00c6 A047     		blx	r4
 3790              	.LVL532:
 3791 00c8 CDE93201 		strd	r0, [sp, #200]
1182:/home/tienluong/workspace/atlantis_fw/AsicFwS2/include/matrix.h ****         tmp[11] = mat[9] * mat[12];
 3792              		.loc 2 1182 0
 3793 00cc DDE91401 		ldrd	r0, [sp, #80]
 3794 00d0 DDE91223 		ldrd	r2, [sp, #72]
 3795 00d4 A047     		blx	r4
 3796              	.LVL533:
1183:/home/tienluong/workspace/atlantis_fw/AsicFwS2/include/matrix.h **** 
 3797              		.loc 2 1183 0
 3798 00d6 DDE91623 		ldrd	r2, [sp, #88]
1182:/home/tienluong/workspace/atlantis_fw/AsicFwS2/include/matrix.h ****         tmp[11] = mat[9] * mat[12];
 3799              		.loc 2 1182 0
 3800 00da CDE93401 		strd	r0, [sp, #208]
1183:/home/tienluong/workspace/atlantis_fw/AsicFwS2/include/matrix.h **** 
 3801              		.loc 2 1183 0
 3802 00de DDE91001 		ldrd	r0, [sp, #64]
 3803 00e2 A047     		blx	r4
 3804              	.LVL534:
1186:/home/tienluong/workspace/atlantis_fw/AsicFwS2/include/matrix.h ****         dst[0]  -= tmp[1] * mat[5] + tmp[2] * mat[6] + tmp[5]  * mat[7];
 3805              		.loc 2 1186 0
 3806 00e4 DAE90A23 		ldrd	r2, [r10, #40]
 3807 00e8 CDE91823 		strd	r2, [sp, #96]
 3808 00ec DAE90C23 		ldrd	r2, [r10, #48]
 3809 00f0 CDE91A23 		strd	r2, [sp, #104]
 3810 00f4 DAE90E23 		ldrd	r2, [r10, #56]
 3811 00f8 CDE91C23 		strd	r2, [sp, #112]
 3812 00fc DDE91823 		ldrd	r2, [sp, #96]
1183:/home/tienluong/workspace/atlantis_fw/AsicFwS2/include/matrix.h **** 
 3813              		.loc 2 1183 0
 3814 0100 CDE93601 		strd	r0, [sp, #216]
1186:/home/tienluong/workspace/atlantis_fw/AsicFwS2/include/matrix.h ****         dst[0]  -= tmp[1] * mat[5] + tmp[2] * mat[6] + tmp[5]  * mat[7];
 3815              		.loc 2 1186 0
 3816 0104 DDE92001 		ldrd	r0, [sp, #128]
 3817 0108 A047     		blx	r4
 3818              	.LVL535:
 3819 010a DDE91A23 		ldrd	r2, [sp, #104]
 3820 010e 0646     		mov	r6, r0
 3821 0110 0F46     		mov	r7, r1
 3822 0112 DDE92601 		ldrd	r0, [sp, #152]
 3823 0116 A047     		blx	r4
 3824              	.LVL536:
 3825 0118 0246     		mov	r2, r0
 3826 011a 0B46     		mov	r3, r1
 3827 011c 3046     		mov	r0, r6
 3828 011e 3946     		mov	r1, r7
 3829 0120 A847     		blx	r5
 3830              	.LVL537:
 3831 0122 DDE91C23 		ldrd	r2, [sp, #112]
 3832 0126 0646     		mov	r6, r0
 3833 0128 0F46     		mov	r7, r1
 3834 012a DDE92801 		ldrd	r0, [sp, #160]
 3835 012e A047     		blx	r4
 3836              	.LVL538:
 3837 0130 0246     		mov	r2, r0
 3838 0132 0B46     		mov	r3, r1
 3839 0134 3046     		mov	r0, r6
 3840 0136 3946     		mov	r1, r7
 3841 0138 A847     		blx	r5
 3842              	.LVL539:
1187:/home/tienluong/workspace/atlantis_fw/AsicFwS2/include/matrix.h ****         dst[4]   = tmp[1] * mat[4] + tmp[6] * mat[6] + tmp[9]  * mat[7];
 3843              		.loc 2 1187 0
 3844 013a DDE91823 		ldrd	r2, [sp, #96]
1186:/home/tienluong/workspace/atlantis_fw/AsicFwS2/include/matrix.h ****         dst[0]  -= tmp[1] * mat[5] + tmp[2] * mat[6] + tmp[5]  * mat[7];
 3845              		.loc 2 1186 0
 3846 013e 8046     		mov	r8, r0
 3847 0140 8946     		mov	r9, r1
1187:/home/tienluong/workspace/atlantis_fw/AsicFwS2/include/matrix.h ****         dst[4]   = tmp[1] * mat[4] + tmp[6] * mat[6] + tmp[9]  * mat[7];
 3848              		.loc 2 1187 0
 3849 0142 DDE92201 		ldrd	r0, [sp, #136]
 3850 0146 A047     		blx	r4
 3851              	.LVL540:
 3852 0148 DDE91A23 		ldrd	r2, [sp, #104]
 3853 014c 0646     		mov	r6, r0
 3854 014e 0F46     		mov	r7, r1
 3855 0150 DDE92401 		ldrd	r0, [sp, #144]
 3856 0154 A047     		blx	r4
 3857              	.LVL541:
 3858 0156 0246     		mov	r2, r0
 3859 0158 0B46     		mov	r3, r1
 3860 015a 3046     		mov	r0, r6
 3861 015c 3946     		mov	r1, r7
 3862 015e A847     		blx	r5
 3863              	.LVL542:
 3864 0160 DDE91C23 		ldrd	r2, [sp, #112]
 3865 0164 0646     		mov	r6, r0
 3866 0166 0F46     		mov	r7, r1
 3867 0168 DDE92A01 		ldrd	r0, [sp, #168]
 3868 016c A047     		blx	r4
 3869              	.LVL543:
 3870 016e 0246     		mov	r2, r0
 3871 0170 0B46     		mov	r3, r1
 3872 0172 3046     		mov	r0, r6
 3873 0174 3946     		mov	r1, r7
 3874 0176 A847     		blx	r5
 3875              	.LVL544:
 3876 0178 0246     		mov	r2, r0
 3877 017a 0B46     		mov	r3, r1
 3878 017c 4046     		mov	r0, r8
 3879 017e 4946     		mov	r1, r9
 3880 0180 D847     		blx	fp
 3881              	.LVL545:
 3882 0182 0246     		mov	r2, r0
 3883 0184 0B46     		mov	r3, r1
 3884 0186 CDE93801 		strd	r0, [sp, #224]
 3885 018a CDE93E23 		strd	r2, [sp, #248]
1188:/home/tienluong/workspace/atlantis_fw/AsicFwS2/include/matrix.h ****         dst[4]  -= tmp[0] * mat[4] + tmp[7] * mat[6] + tmp[8]  * mat[7];
 3886              		.loc 2 1188 0
 3887 018e DAE90823 		ldrd	r2, [r10, #32]
 3888 0192 DDE92201 		ldrd	r0, [sp, #136]
 3889 0196 CDE91E23 		strd	r2, [sp, #120]
 3890 019a A047     		blx	r4
 3891              	.LVL546:
 3892 019c DDE91A23 		ldrd	r2, [sp, #104]
 3893 01a0 0646     		mov	r6, r0
 3894 01a2 0F46     		mov	r7, r1
 3895 01a4 DDE92C01 		ldrd	r0, [sp, #176]
 3896 01a8 A047     		blx	r4
 3897              	.LVL547:
 3898 01aa 0246     		mov	r2, r0
 3899 01ac 0B46     		mov	r3, r1
 3900 01ae 3046     		mov	r0, r6
 3901 01b0 3946     		mov	r1, r7
 3902 01b2 A847     		blx	r5
 3903              	.LVL548:
 3904 01b4 DDE91C23 		ldrd	r2, [sp, #112]
 3905 01b8 0646     		mov	r6, r0
 3906 01ba 0F46     		mov	r7, r1
 3907 01bc DDE93201 		ldrd	r0, [sp, #200]
 3908 01c0 A047     		blx	r4
 3909              	.LVL549:
 3910 01c2 0246     		mov	r2, r0
 3911 01c4 0B46     		mov	r3, r1
 3912 01c6 3046     		mov	r0, r6
 3913 01c8 3946     		mov	r1, r7
 3914 01ca A847     		blx	r5
 3915              	.LVL550:
1189:/home/tienluong/workspace/atlantis_fw/AsicFwS2/include/matrix.h ****         dst[8]   = tmp[2] * mat[4] + tmp[7] * mat[5] + tmp[10] * mat[7];
 3916              		.loc 2 1189 0
 3917 01cc DDE91E23 		ldrd	r2, [sp, #120]
1188:/home/tienluong/workspace/atlantis_fw/AsicFwS2/include/matrix.h ****         dst[4]  -= tmp[0] * mat[4] + tmp[7] * mat[6] + tmp[8]  * mat[7];
 3918              		.loc 2 1188 0
 3919 01d0 8046     		mov	r8, r0
 3920 01d2 8946     		mov	r9, r1
1189:/home/tienluong/workspace/atlantis_fw/AsicFwS2/include/matrix.h ****         dst[8]   = tmp[2] * mat[4] + tmp[7] * mat[5] + tmp[10] * mat[7];
 3921              		.loc 2 1189 0
 3922 01d4 DDE92001 		ldrd	r0, [sp, #128]
 3923 01d8 A047     		blx	r4
 3924              	.LVL551:
 3925 01da DDE91A23 		ldrd	r2, [sp, #104]
 3926 01de 0646     		mov	r6, r0
 3927 01e0 0F46     		mov	r7, r1
 3928 01e2 DDE92E01 		ldrd	r0, [sp, #184]
 3929 01e6 A047     		blx	r4
 3930              	.LVL552:
 3931 01e8 0246     		mov	r2, r0
 3932 01ea 0B46     		mov	r3, r1
 3933 01ec 3046     		mov	r0, r6
 3934 01ee 3946     		mov	r1, r7
 3935 01f0 A847     		blx	r5
 3936              	.LVL553:
 3937 01f2 DDE91C23 		ldrd	r2, [sp, #112]
 3938 01f6 0646     		mov	r6, r0
 3939 01f8 0F46     		mov	r7, r1
 3940 01fa DDE93001 		ldrd	r0, [sp, #192]
 3941 01fe A047     		blx	r4
 3942              	.LVL554:
 3943 0200 0246     		mov	r2, r0
 3944 0202 0B46     		mov	r3, r1
 3945 0204 3046     		mov	r0, r6
 3946 0206 3946     		mov	r1, r7
 3947 0208 A847     		blx	r5
 3948              	.LVL555:
 3949 020a 0246     		mov	r2, r0
 3950 020c 0B46     		mov	r3, r1
 3951 020e 4046     		mov	r0, r8
 3952 0210 4946     		mov	r1, r9
 3953 0212 D847     		blx	fp
 3954              	.LVL556:
 3955 0214 CDE93A01 		strd	r0, [sp, #232]
 3956 0218 0246     		mov	r2, r0
 3957 021a 0B46     		mov	r3, r1
 3958 021c 46A9     		add	r1, sp, #280
 3959 021e C1E90023 		strd	r2, [r1]
1190:/home/tienluong/workspace/atlantis_fw/AsicFwS2/include/matrix.h ****         dst[8]  -= tmp[3] * mat[4] + tmp[6] * mat[5] + tmp[11] * mat[7];
 3960              		.loc 2 1190 0
 3961 0222 DDE91E23 		ldrd	r2, [sp, #120]
 3962 0226 DDE92401 		ldrd	r0, [sp, #144]
 3963 022a A047     		blx	r4
 3964              	.LVL557:
 3965 022c DDE91823 		ldrd	r2, [sp, #96]
 3966 0230 0646     		mov	r6, r0
 3967 0232 0F46     		mov	r7, r1
 3968 0234 DDE92E01 		ldrd	r0, [sp, #184]
 3969 0238 A047     		blx	r4
 3970              	.LVL558:
 3971 023a 0246     		mov	r2, r0
 3972 023c 0B46     		mov	r3, r1
 3973 023e 3046     		mov	r0, r6
 3974 0240 3946     		mov	r1, r7
 3975 0242 A847     		blx	r5
 3976              	.LVL559:
 3977 0244 DDE91C23 		ldrd	r2, [sp, #112]
 3978 0248 0646     		mov	r6, r0
 3979 024a 0F46     		mov	r7, r1
 3980 024c DDE93401 		ldrd	r0, [sp, #208]
 3981 0250 A047     		blx	r4
 3982              	.LVL560:
 3983 0252 0246     		mov	r2, r0
 3984 0254 0B46     		mov	r3, r1
 3985 0256 3046     		mov	r0, r6
 3986 0258 3946     		mov	r1, r7
 3987 025a A847     		blx	r5
 3988              	.LVL561:
 3989 025c 06E0     		b	.L117
 3990              	.L118:
 3991 025e 00BF     		.align	2
 3992              	.L116:
 3993 0260 00000000 		.word	__aeabi_dmul
 3994 0264 00000000 		.word	__aeabi_dadd
 3995 0268 00000000 		.word	__aeabi_dsub
 3996              	.L117:
1191:/home/tienluong/workspace/atlantis_fw/AsicFwS2/include/matrix.h ****         dst[12]  = tmp[5] * mat[4] + tmp[8] * mat[5] + tmp[11] * mat[6];
 3997              		.loc 2 1191 0
 3998 026c DDE91E23 		ldrd	r2, [sp, #120]
1190:/home/tienluong/workspace/atlantis_fw/AsicFwS2/include/matrix.h ****         dst[8]  -= tmp[3] * mat[4] + tmp[6] * mat[5] + tmp[11] * mat[7];
 3999              		.loc 2 1190 0
 4000 0270 8046     		mov	r8, r0
 4001 0272 8946     		mov	r9, r1
1191:/home/tienluong/workspace/atlantis_fw/AsicFwS2/include/matrix.h ****         dst[12]  = tmp[5] * mat[4] + tmp[8] * mat[5] + tmp[11] * mat[6];
 4002              		.loc 2 1191 0
 4003 0274 DDE92601 		ldrd	r0, [sp, #152]
 4004 0278 A047     		blx	r4
 4005              	.LVL562:
 4006 027a DDE91823 		ldrd	r2, [sp, #96]
 4007 027e 0646     		mov	r6, r0
 4008 0280 0F46     		mov	r7, r1
 4009 0282 DDE92C01 		ldrd	r0, [sp, #176]
 4010 0286 A047     		blx	r4
 4011              	.LVL563:
 4012 0288 0246     		mov	r2, r0
 4013 028a 0B46     		mov	r3, r1
 4014 028c 3046     		mov	r0, r6
 4015 028e 3946     		mov	r1, r7
 4016 0290 A847     		blx	r5
 4017              	.LVL564:
 4018 0292 DDE91C23 		ldrd	r2, [sp, #112]
 4019 0296 0646     		mov	r6, r0
 4020 0298 0F46     		mov	r7, r1
 4021 029a DDE93601 		ldrd	r0, [sp, #216]
 4022 029e A047     		blx	r4
 4023              	.LVL565:
 4024 02a0 0246     		mov	r2, r0
 4025 02a2 0B46     		mov	r3, r1
 4026 02a4 3046     		mov	r0, r6
 4027 02a6 3946     		mov	r1, r7
 4028 02a8 A847     		blx	r5
 4029              	.LVL566:
 4030 02aa 0246     		mov	r2, r0
 4031 02ac 0B46     		mov	r3, r1
 4032 02ae 4046     		mov	r0, r8
 4033 02b0 4946     		mov	r1, r9
 4034 02b2 D847     		blx	fp
 4035              	.LVL567:
 4036 02b4 CDE93C01 		strd	r0, [sp, #240]
 4037 02b8 0246     		mov	r2, r0
 4038 02ba 0B46     		mov	r3, r1
 4039 02bc 4EA9     		add	r1, sp, #312
 4040 02be C1E90023 		strd	r2, [r1]
1192:/home/tienluong/workspace/atlantis_fw/AsicFwS2/include/matrix.h ****         dst[12] -= tmp[4] * mat[4] + tmp[9] * mat[5] + tmp[10] * mat[6];
 4041              		.loc 2 1192 0
 4042 02c2 DDE91E23 		ldrd	r2, [sp, #120]
 4043 02c6 DDE92A01 		ldrd	r0, [sp, #168]
 4044 02ca A047     		blx	r4
 4045              	.LVL568:
 4046 02cc DDE91823 		ldrd	r2, [sp, #96]
 4047 02d0 0646     		mov	r6, r0
 4048 02d2 0F46     		mov	r7, r1
 4049 02d4 DDE93001 		ldrd	r0, [sp, #192]
 4050 02d8 A047     		blx	r4
 4051              	.LVL569:
 4052 02da 0246     		mov	r2, r0
 4053 02dc 0B46     		mov	r3, r1
 4054 02de 3046     		mov	r0, r6
 4055 02e0 3946     		mov	r1, r7
 4056 02e2 A847     		blx	r5
 4057              	.LVL570:
 4058 02e4 DDE91A23 		ldrd	r2, [sp, #104]
 4059 02e8 0646     		mov	r6, r0
 4060 02ea 0F46     		mov	r7, r1
 4061 02ec DDE93601 		ldrd	r0, [sp, #216]
 4062 02f0 A047     		blx	r4
 4063              	.LVL571:
 4064 02f2 0246     		mov	r2, r0
 4065 02f4 0B46     		mov	r3, r1
 4066 02f6 3046     		mov	r0, r6
 4067 02f8 3946     		mov	r1, r7
 4068 02fa A847     		blx	r5
 4069              	.LVL572:
1193:/home/tienluong/workspace/atlantis_fw/AsicFwS2/include/matrix.h **** 
 4070              		.loc 2 1193 0
 4071 02fc DDE91E23 		ldrd	r2, [sp, #120]
1192:/home/tienluong/workspace/atlantis_fw/AsicFwS2/include/matrix.h ****         dst[12] -= tmp[4] * mat[4] + tmp[9] * mat[5] + tmp[10] * mat[6];
 4072              		.loc 2 1192 0
 4073 0300 8046     		mov	r8, r0
 4074 0302 8946     		mov	r9, r1
1193:/home/tienluong/workspace/atlantis_fw/AsicFwS2/include/matrix.h **** 
 4075              		.loc 2 1193 0
 4076 0304 DDE92801 		ldrd	r0, [sp, #160]
 4077 0308 A047     		blx	r4
 4078              	.LVL573:
 4079 030a DDE91823 		ldrd	r2, [sp, #96]
 4080 030e 0646     		mov	r6, r0
 4081 0310 0F46     		mov	r7, r1
 4082 0312 DDE93201 		ldrd	r0, [sp, #200]
 4083 0316 A047     		blx	r4
 4084              	.LVL574:
 4085 0318 0246     		mov	r2, r0
 4086 031a 0B46     		mov	r3, r1
 4087 031c 3046     		mov	r0, r6
 4088 031e 3946     		mov	r1, r7
 4089 0320 A847     		blx	r5
 4090              	.LVL575:
 4091 0322 DDE91A23 		ldrd	r2, [sp, #104]
 4092 0326 0646     		mov	r6, r0
 4093 0328 0F46     		mov	r7, r1
 4094 032a DDE93401 		ldrd	r0, [sp, #208]
 4095 032e A047     		blx	r4
 4096              	.LVL576:
 4097 0330 0246     		mov	r2, r0
 4098 0332 0B46     		mov	r3, r1
 4099 0334 3046     		mov	r0, r6
 4100 0336 3946     		mov	r1, r7
 4101 0338 A847     		blx	r5
 4102              	.LVL577:
 4103 033a 0246     		mov	r2, r0
 4104 033c 0B46     		mov	r3, r1
 4105 033e 4046     		mov	r0, r8
 4106 0340 4946     		mov	r1, r9
 4107 0342 D847     		blx	fp
 4108              	.LVL578:
 4109 0344 56AB     		add	r3, sp, #344
 4110 0346 8046     		mov	r8, r0
 4111 0348 8946     		mov	r9, r1
 4112 034a C3E90089 		strd	r8, [r3]
1196:/home/tienluong/workspace/atlantis_fw/AsicFwS2/include/matrix.h **** 
 4113              		.loc 2 1196 0
 4114 034e DAE90023 		ldrd	r2, [r10]
 4115 0352 CDE90023 		strd	r2, [sp]
 4116 0356 DAE90223 		ldrd	r2, [r10, #8]
 4117 035a CDE90223 		strd	r2, [sp, #8]
 4118 035e DAE90423 		ldrd	r2, [r10, #16]
 4119 0362 CDE90423 		strd	r2, [sp, #16]
 4120 0366 DAE90623 		ldrd	r2, [r10, #24]
 4121 036a CDE90623 		strd	r2, [sp, #24]
 4122              	.LVL579:
 4123 036e DDE90001 		ldrd	r0, [sp]
 4124 0372 DDE93823 		ldrd	r2, [sp, #224]
 4125              	.LVL580:
 4126 0376 A047     		blx	r4
 4127              	.LVL581:
 4128 0378 DDE93A23 		ldrd	r2, [sp, #232]
 4129 037c 0646     		mov	r6, r0
 4130 037e 0F46     		mov	r7, r1
 4131 0380 DDE90201 		ldrd	r0, [sp, #8]
 4132 0384 A047     		blx	r4
 4133              	.LVL582:
 4134 0386 0246     		mov	r2, r0
 4135 0388 0B46     		mov	r3, r1
 4136 038a 3046     		mov	r0, r6
 4137 038c 3946     		mov	r1, r7
 4138 038e A847     		blx	r5
 4139              	.LVL583:
 4140 0390 DDE93C23 		ldrd	r2, [sp, #240]
 4141 0394 0646     		mov	r6, r0
 4142 0396 0F46     		mov	r7, r1
 4143 0398 DDE90401 		ldrd	r0, [sp, #16]
 4144 039c A047     		blx	r4
 4145              	.LVL584:
 4146 039e 0246     		mov	r2, r0
 4147 03a0 0B46     		mov	r3, r1
 4148 03a2 3046     		mov	r0, r6
 4149 03a4 3946     		mov	r1, r7
 4150 03a6 A847     		blx	r5
 4151              	.LVL585:
 4152 03a8 4246     		mov	r2, r8
 4153 03aa 4B46     		mov	r3, r9
 4154 03ac 0646     		mov	r6, r0
 4155 03ae 0F46     		mov	r7, r1
 4156 03b0 DDE90601 		ldrd	r0, [sp, #24]
 4157 03b4 A047     		blx	r4
 4158              	.LVL586:
 4159 03b6 0246     		mov	r2, r0
 4160 03b8 0B46     		mov	r3, r1
 4161 03ba 3046     		mov	r0, r6
 4162 03bc 3946     		mov	r1, r7
 4163 03be A847     		blx	r5
 4164              	.LVL587:
1198:/home/tienluong/workspace/atlantis_fw/AsicFwS2/include/matrix.h **** 
 4165              		.loc 2 1198 0
 4166 03c0 9D4E     		ldr	r6, .L119
1196:/home/tienluong/workspace/atlantis_fw/AsicFwS2/include/matrix.h **** 
 4167              		.loc 2 1196 0
 4168 03c2 0246     		mov	r2, r0
 4169 03c4 0B46     		mov	r3, r1
1198:/home/tienluong/workspace/atlantis_fw/AsicFwS2/include/matrix.h **** 
 4170              		.loc 2 1198 0
 4171 03c6 0020     		movs	r0, #0
 4172 03c8 9C49     		ldr	r1, .L119+4
 4173 03ca B047     		blx	r6
 4174              	.LVL588:
1200:/home/tienluong/workspace/atlantis_fw/AsicFwS2/include/matrix.h ****         dst[1]  -= tmp[0] * mat[1] + tmp[3] * mat[2] + tmp[4]  * mat[3];
 4175              		.loc 2 1200 0
 4176 03cc DDE90223 		ldrd	r2, [sp, #8]
1198:/home/tienluong/workspace/atlantis_fw/AsicFwS2/include/matrix.h **** 
 4177              		.loc 2 1198 0
 4178 03d0 CDE93801 		strd	r0, [sp, #224]
 4179              	.LVL589:
1200:/home/tienluong/workspace/atlantis_fw/AsicFwS2/include/matrix.h ****         dst[1]  -= tmp[0] * mat[1] + tmp[3] * mat[2] + tmp[4]  * mat[3];
 4180              		.loc 2 1200 0
 4181 03d4 DDE92201 		ldrd	r0, [sp, #136]
 4182              	.LVL590:
 4183 03d8 A047     		blx	r4
 4184              	.LVL591:
 4185 03da DDE90423 		ldrd	r2, [sp, #16]
 4186 03de 0646     		mov	r6, r0
 4187 03e0 0F46     		mov	r7, r1
 4188 03e2 DDE92401 		ldrd	r0, [sp, #144]
 4189 03e6 A047     		blx	r4
 4190              	.LVL592:
 4191 03e8 0246     		mov	r2, r0
 4192 03ea 0B46     		mov	r3, r1
 4193 03ec 3046     		mov	r0, r6
 4194 03ee 3946     		mov	r1, r7
 4195 03f0 A847     		blx	r5
 4196              	.LVL593:
 4197 03f2 DDE90623 		ldrd	r2, [sp, #24]
 4198 03f6 0646     		mov	r6, r0
 4199 03f8 0F46     		mov	r7, r1
 4200 03fa DDE92A01 		ldrd	r0, [sp, #168]
 4201 03fe A047     		blx	r4
 4202              	.LVL594:
 4203 0400 0246     		mov	r2, r0
 4204 0402 0B46     		mov	r3, r1
 4205 0404 3046     		mov	r0, r6
 4206 0406 3946     		mov	r1, r7
 4207 0408 A847     		blx	r5
 4208              	.LVL595:
 4209 040a 8046     		mov	r8, r0
 4210 040c 8946     		mov	r9, r1
1201:/home/tienluong/workspace/atlantis_fw/AsicFwS2/include/matrix.h ****         dst[5]   = tmp[0] * mat[0] + tmp[7] * mat[2] + tmp[8]  * mat[3];
 4211              		.loc 2 1201 0
 4212 040e DDE92001 		ldrd	r0, [sp, #128]
 4213 0412 DDE90223 		ldrd	r2, [sp, #8]
 4214 0416 A047     		blx	r4
 4215              	.LVL596:
 4216 0418 DDE90423 		ldrd	r2, [sp, #16]
 4217 041c 0646     		mov	r6, r0
 4218 041e 0F46     		mov	r7, r1
 4219 0420 DDE92601 		ldrd	r0, [sp, #152]
 4220 0424 A047     		blx	r4
 4221              	.LVL597:
 4222 0426 0246     		mov	r2, r0
 4223 0428 0B46     		mov	r3, r1
 4224 042a 3046     		mov	r0, r6
 4225 042c 3946     		mov	r1, r7
 4226 042e A847     		blx	r5
 4227              	.LVL598:
 4228 0430 DDE90623 		ldrd	r2, [sp, #24]
 4229 0434 0646     		mov	r6, r0
 4230 0436 0F46     		mov	r7, r1
 4231 0438 DDE92801 		ldrd	r0, [sp, #160]
 4232 043c A047     		blx	r4
 4233              	.LVL599:
 4234 043e 0246     		mov	r2, r0
 4235 0440 0B46     		mov	r3, r1
 4236 0442 3046     		mov	r0, r6
 4237 0444 3946     		mov	r1, r7
 4238 0446 A847     		blx	r5
 4239              	.LVL600:
 4240 0448 0246     		mov	r2, r0
 4241 044a 0B46     		mov	r3, r1
 4242 044c 4046     		mov	r0, r8
 4243 044e 4946     		mov	r1, r9
 4244 0450 D847     		blx	fp
 4245              	.LVL601:
 4246 0452 40AB     		add	r3, sp, #256
 4247 0454 C3E90001 		strd	r0, [r3]
1202:/home/tienluong/workspace/atlantis_fw/AsicFwS2/include/matrix.h ****         dst[5]  -= tmp[1] * mat[0] + tmp[6] * mat[2] + tmp[9]  * mat[3];
 4248              		.loc 2 1202 0
 4249 0458 DDE90023 		ldrd	r2, [sp]
 4250 045c DDE92001 		ldrd	r0, [sp, #128]
 4251 0460 A047     		blx	r4
 4252              	.LVL602:
 4253 0462 DDE90423 		ldrd	r2, [sp, #16]
 4254 0466 0646     		mov	r6, r0
 4255 0468 0F46     		mov	r7, r1
 4256 046a DDE92E01 		ldrd	r0, [sp, #184]
 4257 046e A047     		blx	r4
 4258              	.LVL603:
 4259 0470 0246     		mov	r2, r0
 4260 0472 0B46     		mov	r3, r1
 4261 0474 3046     		mov	r0, r6
 4262 0476 3946     		mov	r1, r7
 4263 0478 A847     		blx	r5
 4264              	.LVL604:
 4265 047a DDE90623 		ldrd	r2, [sp, #24]
 4266 047e 0646     		mov	r6, r0
 4267 0480 0F46     		mov	r7, r1
 4268 0482 DDE93001 		ldrd	r0, [sp, #192]
 4269 0486 A047     		blx	r4
 4270              	.LVL605:
 4271 0488 0246     		mov	r2, r0
 4272 048a 0B46     		mov	r3, r1
 4273 048c 3046     		mov	r0, r6
 4274 048e 3946     		mov	r1, r7
 4275 0490 A847     		blx	r5
 4276              	.LVL606:
1203:/home/tienluong/workspace/atlantis_fw/AsicFwS2/include/matrix.h ****         dst[9]   = tmp[3] * mat[0] + tmp[6] * mat[1] + tmp[11] * mat[3];
 4277              		.loc 2 1203 0
 4278 0492 DDE90023 		ldrd	r2, [sp]
1202:/home/tienluong/workspace/atlantis_fw/AsicFwS2/include/matrix.h ****         dst[5]  -= tmp[1] * mat[0] + tmp[6] * mat[2] + tmp[9]  * mat[3];
 4279              		.loc 2 1202 0
 4280 0496 8046     		mov	r8, r0
 4281 0498 8946     		mov	r9, r1
1203:/home/tienluong/workspace/atlantis_fw/AsicFwS2/include/matrix.h ****         dst[9]   = tmp[3] * mat[0] + tmp[6] * mat[1] + tmp[11] * mat[3];
 4282              		.loc 2 1203 0
 4283 049a DDE92201 		ldrd	r0, [sp, #136]
 4284 049e A047     		blx	r4
 4285              	.LVL607:
 4286 04a0 DDE90423 		ldrd	r2, [sp, #16]
 4287 04a4 0646     		mov	r6, r0
 4288 04a6 0F46     		mov	r7, r1
 4289 04a8 DDE92C01 		ldrd	r0, [sp, #176]
 4290 04ac A047     		blx	r4
 4291              	.LVL608:
 4292 04ae 0246     		mov	r2, r0
 4293 04b0 0B46     		mov	r3, r1
 4294 04b2 3046     		mov	r0, r6
 4295 04b4 3946     		mov	r1, r7
 4296 04b6 A847     		blx	r5
 4297              	.LVL609:
 4298 04b8 DDE90623 		ldrd	r2, [sp, #24]
 4299 04bc 0646     		mov	r6, r0
 4300 04be 0F46     		mov	r7, r1
 4301 04c0 DDE93201 		ldrd	r0, [sp, #200]
 4302 04c4 A047     		blx	r4
 4303              	.LVL610:
 4304 04c6 0246     		mov	r2, r0
 4305 04c8 0B46     		mov	r3, r1
 4306 04ca 3046     		mov	r0, r6
 4307 04cc 3946     		mov	r1, r7
 4308 04ce A847     		blx	r5
 4309              	.LVL611:
 4310 04d0 0246     		mov	r2, r0
 4311 04d2 0B46     		mov	r3, r1
 4312 04d4 4046     		mov	r0, r8
 4313 04d6 4946     		mov	r1, r9
 4314 04d8 D847     		blx	fp
 4315              	.LVL612:
 4316 04da 48AB     		add	r3, sp, #288
 4317 04dc C3E90001 		strd	r0, [r3]
1204:/home/tienluong/workspace/atlantis_fw/AsicFwS2/include/matrix.h ****         dst[9]  -= tmp[2] * mat[0] + tmp[7] * mat[1] + tmp[10] * mat[3];
 4318              		.loc 2 1204 0
 4319 04e0 DDE90023 		ldrd	r2, [sp]
 4320 04e4 DDE92601 		ldrd	r0, [sp, #152]
 4321 04e8 A047     		blx	r4
 4322              	.LVL613:
 4323 04ea DDE90223 		ldrd	r2, [sp, #8]
 4324 04ee 0646     		mov	r6, r0
 4325 04f0 0F46     		mov	r7, r1
 4326 04f2 DDE92C01 		ldrd	r0, [sp, #176]
 4327 04f6 A047     		blx	r4
 4328              	.LVL614:
 4329 04f8 0246     		mov	r2, r0
 4330 04fa 0B46     		mov	r3, r1
 4331 04fc 3046     		mov	r0, r6
 4332 04fe 3946     		mov	r1, r7
 4333 0500 A847     		blx	r5
 4334              	.LVL615:
 4335 0502 DDE90623 		ldrd	r2, [sp, #24]
 4336 0506 0646     		mov	r6, r0
 4337 0508 0F46     		mov	r7, r1
 4338 050a DDE93601 		ldrd	r0, [sp, #216]
 4339 050e A047     		blx	r4
 4340              	.LVL616:
 4341 0510 0246     		mov	r2, r0
 4342 0512 0B46     		mov	r3, r1
 4343 0514 3046     		mov	r0, r6
 4344 0516 3946     		mov	r1, r7
 4345 0518 A847     		blx	r5
 4346              	.LVL617:
1205:/home/tienluong/workspace/atlantis_fw/AsicFwS2/include/matrix.h ****         dst[13]  = tmp[4] * mat[0] + tmp[9] * mat[1] + tmp[10] * mat[2];
 4347              		.loc 2 1205 0
 4348 051a DDE90023 		ldrd	r2, [sp]
1204:/home/tienluong/workspace/atlantis_fw/AsicFwS2/include/matrix.h ****         dst[9]  -= tmp[2] * mat[0] + tmp[7] * mat[1] + tmp[10] * mat[3];
 4349              		.loc 2 1204 0
 4350 051e 8046     		mov	r8, r0
 4351 0520 8946     		mov	r9, r1
1205:/home/tienluong/workspace/atlantis_fw/AsicFwS2/include/matrix.h ****         dst[13]  = tmp[4] * mat[0] + tmp[9] * mat[1] + tmp[10] * mat[2];
 4352              		.loc 2 1205 0
 4353 0522 DDE92401 		ldrd	r0, [sp, #144]
 4354 0526 A047     		blx	r4
 4355              	.LVL618:
 4356 0528 DDE90223 		ldrd	r2, [sp, #8]
 4357 052c 0646     		mov	r6, r0
 4358 052e 0F46     		mov	r7, r1
 4359 0530 DDE92E01 		ldrd	r0, [sp, #184]
 4360 0534 A047     		blx	r4
 4361              	.LVL619:
 4362 0536 0246     		mov	r2, r0
 4363 0538 0B46     		mov	r3, r1
 4364 053a 3046     		mov	r0, r6
 4365 053c 3946     		mov	r1, r7
 4366 053e A847     		blx	r5
 4367              	.LVL620:
 4368 0540 DDE90623 		ldrd	r2, [sp, #24]
 4369 0544 0646     		mov	r6, r0
 4370 0546 0F46     		mov	r7, r1
 4371 0548 DDE93401 		ldrd	r0, [sp, #208]
 4372 054c A047     		blx	r4
 4373              	.LVL621:
 4374 054e 0246     		mov	r2, r0
 4375 0550 0B46     		mov	r3, r1
 4376 0552 3046     		mov	r0, r6
 4377 0554 3946     		mov	r1, r7
 4378 0556 A847     		blx	r5
 4379              	.LVL622:
 4380 0558 0246     		mov	r2, r0
 4381 055a 0B46     		mov	r3, r1
 4382 055c 4046     		mov	r0, r8
 4383 055e 4946     		mov	r1, r9
 4384 0560 D847     		blx	fp
 4385              	.LVL623:
 4386 0562 50AB     		add	r3, sp, #320
 4387 0564 C3E90001 		strd	r0, [r3]
1206:/home/tienluong/workspace/atlantis_fw/AsicFwS2/include/matrix.h ****         dst[13] -= tmp[5] * mat[0] + tmp[8] * mat[1] + tmp[11] * mat[2];
 4388              		.loc 2 1206 0
 4389 0568 DDE90023 		ldrd	r2, [sp]
 4390 056c DDE92801 		ldrd	r0, [sp, #160]
 4391 0570 A047     		blx	r4
 4392              	.LVL624:
 4393 0572 DDE90223 		ldrd	r2, [sp, #8]
 4394 0576 0646     		mov	r6, r0
 4395 0578 0F46     		mov	r7, r1
 4396 057a DDE93201 		ldrd	r0, [sp, #200]
 4397 057e A047     		blx	r4
 4398              	.LVL625:
 4399 0580 0246     		mov	r2, r0
 4400 0582 0B46     		mov	r3, r1
 4401 0584 3046     		mov	r0, r6
 4402 0586 3946     		mov	r1, r7
 4403 0588 A847     		blx	r5
 4404              	.LVL626:
 4405 058a 0646     		mov	r6, r0
 4406 058c 0F46     		mov	r7, r1
 4407 058e DDE93401 		ldrd	r0, [sp, #208]
 4408 0592 DDE90423 		ldrd	r2, [sp, #16]
 4409 0596 A047     		blx	r4
 4410              	.LVL627:
 4411 0598 0246     		mov	r2, r0
 4412 059a 0B46     		mov	r3, r1
 4413 059c 3046     		mov	r0, r6
 4414 059e 3946     		mov	r1, r7
 4415 05a0 A847     		blx	r5
 4416              	.LVL628:
1207:/home/tienluong/workspace/atlantis_fw/AsicFwS2/include/matrix.h **** 
 4417              		.loc 2 1207 0
 4418 05a2 DDE90023 		ldrd	r2, [sp]
1206:/home/tienluong/workspace/atlantis_fw/AsicFwS2/include/matrix.h ****         dst[13] -= tmp[5] * mat[0] + tmp[8] * mat[1] + tmp[11] * mat[2];
 4419              		.loc 2 1206 0
 4420 05a6 8046     		mov	r8, r0
 4421 05a8 8946     		mov	r9, r1
1207:/home/tienluong/workspace/atlantis_fw/AsicFwS2/include/matrix.h **** 
 4422              		.loc 2 1207 0
 4423 05aa DDE92A01 		ldrd	r0, [sp, #168]
 4424 05ae A047     		blx	r4
 4425              	.LVL629:
 4426 05b0 DDE90223 		ldrd	r2, [sp, #8]
 4427 05b4 0646     		mov	r6, r0
 4428 05b6 0F46     		mov	r7, r1
 4429 05b8 DDE93001 		ldrd	r0, [sp, #192]
 4430 05bc A047     		blx	r4
 4431              	.LVL630:
 4432 05be 0246     		mov	r2, r0
 4433 05c0 0B46     		mov	r3, r1
 4434 05c2 3046     		mov	r0, r6
 4435 05c4 3946     		mov	r1, r7
 4436 05c6 A847     		blx	r5
 4437              	.LVL631:
 4438 05c8 DDE90423 		ldrd	r2, [sp, #16]
 4439 05cc 0646     		mov	r6, r0
 4440 05ce 0F46     		mov	r7, r1
 4441 05d0 DDE93601 		ldrd	r0, [sp, #216]
 4442 05d4 A047     		blx	r4
 4443              	.LVL632:
 4444 05d6 0246     		mov	r2, r0
 4445 05d8 0B46     		mov	r3, r1
 4446 05da 3046     		mov	r0, r6
 4447 05dc 3946     		mov	r1, r7
 4448 05de A847     		blx	r5
 4449              	.LVL633:
 4450 05e0 0246     		mov	r2, r0
 4451 05e2 0B46     		mov	r3, r1
 4452 05e4 4046     		mov	r0, r8
 4453 05e6 4946     		mov	r1, r9
 4454 05e8 D847     		blx	fp
 4455              	.LVL634:
 4456 05ea 58AB     		add	r3, sp, #352
 4457 05ec C3E90001 		strd	r0, [r3]
1210:/home/tienluong/workspace/atlantis_fw/AsicFwS2/include/matrix.h ****         tmp[1] = mat[3] * mat[6];
 4458              		.loc 2 1210 0
 4459 05f0 DDE91C23 		ldrd	r2, [sp, #112]
 4460 05f4 DDE90401 		ldrd	r0, [sp, #16]
 4461 05f8 A047     		blx	r4
 4462              	.LVL635:
1211:/home/tienluong/workspace/atlantis_fw/AsicFwS2/include/matrix.h ****         tmp[2] = mat[1] * mat[7];
 4463              		.loc 2 1211 0
 4464 05fa DDE91A23 		ldrd	r2, [sp, #104]
1210:/home/tienluong/workspace/atlantis_fw/AsicFwS2/include/matrix.h ****         tmp[1] = mat[3] * mat[6];
 4465              		.loc 2 1210 0
 4466 05fe CDE92001 		strd	r0, [sp, #128]
 4467              	.LVL636:
1211:/home/tienluong/workspace/atlantis_fw/AsicFwS2/include/matrix.h ****         tmp[2] = mat[1] * mat[7];
 4468              		.loc 2 1211 0
 4469 0602 DDE90601 		ldrd	r0, [sp, #24]
 4470              	.LVL637:
 4471 0606 A047     		blx	r4
 4472              	.LVL638:
1212:/home/tienluong/workspace/atlantis_fw/AsicFwS2/include/matrix.h ****         tmp[3] = mat[3] * mat[5];
 4473              		.loc 2 1212 0
 4474 0608 DDE91C23 		ldrd	r2, [sp, #112]
1211:/home/tienluong/workspace/atlantis_fw/AsicFwS2/include/matrix.h ****         tmp[2] = mat[1] * mat[7];
 4475              		.loc 2 1211 0
 4476 060c CDE92201 		strd	r0, [sp, #136]
 4477              	.LVL639:
1212:/home/tienluong/workspace/atlantis_fw/AsicFwS2/include/matrix.h ****         tmp[3] = mat[3] * mat[5];
 4478              		.loc 2 1212 0
 4479 0610 DDE90201 		ldrd	r0, [sp, #8]
 4480              	.LVL640:
 4481 0614 A047     		blx	r4
 4482              	.LVL641:
1213:/home/tienluong/workspace/atlantis_fw/AsicFwS2/include/matrix.h ****         tmp[4] = mat[1] * mat[6];
 4483              		.loc 2 1213 0
 4484 0616 DDE91823 		ldrd	r2, [sp, #96]
1212:/home/tienluong/workspace/atlantis_fw/AsicFwS2/include/matrix.h ****         tmp[3] = mat[3] * mat[5];
 4485              		.loc 2 1212 0
 4486 061a CDE92401 		strd	r0, [sp, #144]
 4487              	.LVL642:
1213:/home/tienluong/workspace/atlantis_fw/AsicFwS2/include/matrix.h ****         tmp[4] = mat[1] * mat[6];
 4488              		.loc 2 1213 0
 4489 061e DDE90601 		ldrd	r0, [sp, #24]
 4490              	.LVL643:
 4491 0622 A047     		blx	r4
 4492              	.LVL644:
1214:/home/tienluong/workspace/atlantis_fw/AsicFwS2/include/matrix.h ****         tmp[5] = mat[2] * mat[5];
 4493              		.loc 2 1214 0
 4494 0624 DDE91A23 		ldrd	r2, [sp, #104]
1213:/home/tienluong/workspace/atlantis_fw/AsicFwS2/include/matrix.h ****         tmp[4] = mat[1] * mat[6];
 4495              		.loc 2 1213 0
 4496 0628 CDE92601 		strd	r0, [sp, #152]
 4497              	.LVL645:
1214:/home/tienluong/workspace/atlantis_fw/AsicFwS2/include/matrix.h ****         tmp[5] = mat[2] * mat[5];
 4498              		.loc 2 1214 0
 4499 062c DDE90201 		ldrd	r0, [sp, #8]
 4500              	.LVL646:
 4501 0630 A047     		blx	r4
 4502              	.LVL647:
1215:/home/tienluong/workspace/atlantis_fw/AsicFwS2/include/matrix.h ****         tmp[6] = mat[0] * mat[7];
 4503              		.loc 2 1215 0
 4504 0632 DDE91823 		ldrd	r2, [sp, #96]
 4505 0636 03E0     		b	.L120
 4506              	.L121:
 4507              		.align	2
 4508              	.L119:
 4509 0638 00000000 		.word	__aeabi_ddiv
 4510 063c 0000F03F 		.word	1072693248
 4511              	.L120:
1214:/home/tienluong/workspace/atlantis_fw/AsicFwS2/include/matrix.h ****         tmp[5] = mat[2] * mat[5];
 4512              		.loc 2 1214 0
 4513 0640 CDE92801 		strd	r0, [sp, #160]
1215:/home/tienluong/workspace/atlantis_fw/AsicFwS2/include/matrix.h ****         tmp[6] = mat[0] * mat[7];
 4514              		.loc 2 1215 0
 4515 0644 DDE90401 		ldrd	r0, [sp, #16]
 4516 0648 A047     		blx	r4
 4517              	.LVL648:
1216:/home/tienluong/workspace/atlantis_fw/AsicFwS2/include/matrix.h ****         tmp[7] = mat[3] * mat[4];
 4518              		.loc 2 1216 0
 4519 064a DDE91C23 		ldrd	r2, [sp, #112]
1215:/home/tienluong/workspace/atlantis_fw/AsicFwS2/include/matrix.h ****         tmp[6] = mat[0] * mat[7];
 4520              		.loc 2 1215 0
 4521 064e CDE92A01 		strd	r0, [sp, #168]
1216:/home/tienluong/workspace/atlantis_fw/AsicFwS2/include/matrix.h ****         tmp[7] = mat[3] * mat[4];
 4522              		.loc 2 1216 0
 4523 0652 DDE90001 		ldrd	r0, [sp]
 4524 0656 A047     		blx	r4
 4525              	.LVL649:
1217:/home/tienluong/workspace/atlantis_fw/AsicFwS2/include/matrix.h ****         tmp[8] = mat[0] * mat[6];
 4526              		.loc 2 1217 0
 4527 0658 DDE91E23 		ldrd	r2, [sp, #120]
1216:/home/tienluong/workspace/atlantis_fw/AsicFwS2/include/matrix.h ****         tmp[7] = mat[3] * mat[4];
 4528              		.loc 2 1216 0
 4529 065c CDE91C01 		strd	r0, [sp, #112]
1217:/home/tienluong/workspace/atlantis_fw/AsicFwS2/include/matrix.h ****         tmp[8] = mat[0] * mat[6];
 4530              		.loc 2 1217 0
 4531 0660 DDE90601 		ldrd	r0, [sp, #24]
 4532 0664 A047     		blx	r4
 4533              	.LVL650:
1218:/home/tienluong/workspace/atlantis_fw/AsicFwS2/include/matrix.h ****         tmp[9] = mat[2] * mat[4];
 4534              		.loc 2 1218 0
 4535 0666 DDE91A23 		ldrd	r2, [sp, #104]
1217:/home/tienluong/workspace/atlantis_fw/AsicFwS2/include/matrix.h ****         tmp[8] = mat[0] * mat[6];
 4536              		.loc 2 1217 0
 4537 066a CDE90601 		strd	r0, [sp, #24]
1218:/home/tienluong/workspace/atlantis_fw/AsicFwS2/include/matrix.h ****         tmp[9] = mat[2] * mat[4];
 4538              		.loc 2 1218 0
 4539 066e DDE90001 		ldrd	r0, [sp]
 4540 0672 A047     		blx	r4
 4541              	.LVL651:
1219:/home/tienluong/workspace/atlantis_fw/AsicFwS2/include/matrix.h ****         tmp[10] = mat[0] * mat[5];
 4542              		.loc 2 1219 0
 4543 0674 DDE91E23 		ldrd	r2, [sp, #120]
1218:/home/tienluong/workspace/atlantis_fw/AsicFwS2/include/matrix.h ****         tmp[9] = mat[2] * mat[4];
 4544              		.loc 2 1218 0
 4545 0678 CDE91A01 		strd	r0, [sp, #104]
1219:/home/tienluong/workspace/atlantis_fw/AsicFwS2/include/matrix.h ****         tmp[10] = mat[0] * mat[5];
 4546              		.loc 2 1219 0
 4547 067c DDE90401 		ldrd	r0, [sp, #16]
 4548 0680 A047     		blx	r4
 4549              	.LVL652:
1220:/home/tienluong/workspace/atlantis_fw/AsicFwS2/include/matrix.h ****         tmp[11] = mat[1] * mat[4];
 4550              		.loc 2 1220 0
 4551 0682 DDE91823 		ldrd	r2, [sp, #96]
1219:/home/tienluong/workspace/atlantis_fw/AsicFwS2/include/matrix.h ****         tmp[10] = mat[0] * mat[5];
 4552              		.loc 2 1219 0
 4553 0686 CDE90401 		strd	r0, [sp, #16]
1220:/home/tienluong/workspace/atlantis_fw/AsicFwS2/include/matrix.h ****         tmp[11] = mat[1] * mat[4];
 4554              		.loc 2 1220 0
 4555 068a DDE90001 		ldrd	r0, [sp]
 4556 068e A047     		blx	r4
 4557              	.LVL653:
1221:/home/tienluong/workspace/atlantis_fw/AsicFwS2/include/matrix.h **** 
 4558              		.loc 2 1221 0
 4559 0690 DDE91E23 		ldrd	r2, [sp, #120]
1220:/home/tienluong/workspace/atlantis_fw/AsicFwS2/include/matrix.h ****         tmp[11] = mat[1] * mat[4];
 4560              		.loc 2 1220 0
 4561 0694 CDE90001 		strd	r0, [sp]
1221:/home/tienluong/workspace/atlantis_fw/AsicFwS2/include/matrix.h **** 
 4562              		.loc 2 1221 0
 4563 0698 DDE90201 		ldrd	r0, [sp, #8]
 4564 069c A047     		blx	r4
 4565              	.LVL654:
1224:/home/tienluong/workspace/atlantis_fw/AsicFwS2/include/matrix.h ****         dst[2]  -= tmp[1]  * mat[13] + tmp[2]  * mat[14] + tmp[5]  * mat[15];
 4566              		.loc 2 1224 0
 4567 069e DDE91223 		ldrd	r2, [sp, #72]
1221:/home/tienluong/workspace/atlantis_fw/AsicFwS2/include/matrix.h **** 
 4568              		.loc 2 1221 0
 4569 06a2 CDE90201 		strd	r0, [sp, #8]
1224:/home/tienluong/workspace/atlantis_fw/AsicFwS2/include/matrix.h ****         dst[2]  -= tmp[1]  * mat[13] + tmp[2]  * mat[14] + tmp[5]  * mat[15];
 4570              		.loc 2 1224 0
 4571 06a6 DDE92001 		ldrd	r0, [sp, #128]
 4572 06aa A047     		blx	r4
 4573              	.LVL655:
 4574 06ac DDE90E23 		ldrd	r2, [sp, #56]
 4575 06b0 0646     		mov	r6, r0
 4576 06b2 0F46     		mov	r7, r1
 4577 06b4 DDE92601 		ldrd	r0, [sp, #152]
 4578 06b8 A047     		blx	r4
 4579              	.LVL656:
 4580 06ba 0246     		mov	r2, r0
 4581 06bc 0B46     		mov	r3, r1
 4582 06be 3046     		mov	r0, r6
 4583 06c0 3946     		mov	r1, r7
 4584 06c2 A847     		blx	r5
 4585              	.LVL657:
 4586 06c4 DDE90A23 		ldrd	r2, [sp, #40]
 4587 06c8 0646     		mov	r6, r0
 4588 06ca 0F46     		mov	r7, r1
 4589 06cc DDE92801 		ldrd	r0, [sp, #160]
 4590 06d0 A047     		blx	r4
 4591              	.LVL658:
 4592 06d2 0246     		mov	r2, r0
 4593 06d4 0B46     		mov	r3, r1
 4594 06d6 3046     		mov	r0, r6
 4595 06d8 3946     		mov	r1, r7
 4596 06da A847     		blx	r5
 4597              	.LVL659:
1225:/home/tienluong/workspace/atlantis_fw/AsicFwS2/include/matrix.h ****         dst[3]   = tmp[2]  * mat[10] + tmp[5]  * mat[11] + tmp[1]  * mat[9];
 4598              		.loc 2 1225 0
 4599 06dc DDE91223 		ldrd	r2, [sp, #72]
1224:/home/tienluong/workspace/atlantis_fw/AsicFwS2/include/matrix.h ****         dst[2]  -= tmp[1]  * mat[13] + tmp[2]  * mat[14] + tmp[5]  * mat[15];
 4600              		.loc 2 1224 0
 4601 06e0 8046     		mov	r8, r0
 4602 06e2 8946     		mov	r9, r1
1225:/home/tienluong/workspace/atlantis_fw/AsicFwS2/include/matrix.h ****         dst[3]   = tmp[2]  * mat[10] + tmp[5]  * mat[11] + tmp[1]  * mat[9];
 4603              		.loc 2 1225 0
 4604 06e4 DDE92201 		ldrd	r0, [sp, #136]
 4605 06e8 A047     		blx	r4
 4606              	.LVL660:
 4607 06ea 0646     		mov	r6, r0
 4608 06ec 0F46     		mov	r7, r1
 4609 06ee DDE92401 		ldrd	r0, [sp, #144]
 4610 06f2 DDE90E23 		ldrd	r2, [sp, #56]
 4611 06f6 A047     		blx	r4
 4612              	.LVL661:
 4613 06f8 0246     		mov	r2, r0
 4614 06fa 0B46     		mov	r3, r1
 4615 06fc 3046     		mov	r0, r6
 4616 06fe 3946     		mov	r1, r7
 4617 0700 A847     		blx	r5
 4618              	.LVL662:
 4619 0702 DDE90A23 		ldrd	r2, [sp, #40]
 4620 0706 0646     		mov	r6, r0
 4621 0708 0F46     		mov	r7, r1
 4622 070a DDE92A01 		ldrd	r0, [sp, #168]
 4623 070e A047     		blx	r4
 4624              	.LVL663:
 4625 0710 0246     		mov	r2, r0
 4626 0712 0B46     		mov	r3, r1
 4627 0714 3046     		mov	r0, r6
 4628 0716 3946     		mov	r1, r7
 4629 0718 A847     		blx	r5
 4630              	.LVL664:
 4631 071a 0246     		mov	r2, r0
 4632 071c 0B46     		mov	r3, r1
 4633 071e 4046     		mov	r0, r8
 4634 0720 4946     		mov	r1, r9
 4635 0722 D847     		blx	fp
 4636              	.LVL665:
 4637 0724 42AB     		add	r3, sp, #264
 4638 0726 C3E90001 		strd	r0, [r3]
1226:/home/tienluong/workspace/atlantis_fw/AsicFwS2/include/matrix.h ****         dst[3]  -= tmp[4]  * mat[11] + tmp[0]  * mat[9]  + tmp[3]  * mat[10];
 4639              		.loc 2 1226 0
 4640 072a DDE90823 		ldrd	r2, [sp, #32]
 4641 072e DDE92401 		ldrd	r0, [sp, #144]
 4642 0732 A047     		blx	r4
 4643              	.LVL666:
 4644 0734 DDE90C23 		ldrd	r2, [sp, #48]
 4645 0738 0646     		mov	r6, r0
 4646 073a 0F46     		mov	r7, r1
 4647 073c DDE92A01 		ldrd	r0, [sp, #168]
 4648 0740 A047     		blx	r4
 4649              	.LVL667:
 4650 0742 0246     		mov	r2, r0
 4651 0744 0B46     		mov	r3, r1
 4652 0746 3046     		mov	r0, r6
 4653 0748 3946     		mov	r1, r7
 4654 074a A847     		blx	r5
 4655              	.LVL668:
 4656 074c DDE91023 		ldrd	r2, [sp, #64]
 4657 0750 0646     		mov	r6, r0
 4658 0752 0F46     		mov	r7, r1
 4659 0754 DDE92201 		ldrd	r0, [sp, #136]
 4660 0758 A047     		blx	r4
 4661              	.LVL669:
 4662 075a 0246     		mov	r2, r0
 4663 075c 0B46     		mov	r3, r1
 4664 075e 3046     		mov	r0, r6
 4665 0760 3946     		mov	r1, r7
 4666 0762 A847     		blx	r5
 4667              	.LVL670:
1227:/home/tienluong/workspace/atlantis_fw/AsicFwS2/include/matrix.h ****         dst[6]   = tmp[1]  * mat[12] + tmp[6]  * mat[14] + tmp[9]  * mat[15];
 4668              		.loc 2 1227 0
 4669 0764 DDE90C23 		ldrd	r2, [sp, #48]
1226:/home/tienluong/workspace/atlantis_fw/AsicFwS2/include/matrix.h ****         dst[3]  -= tmp[4]  * mat[11] + tmp[0]  * mat[9]  + tmp[3]  * mat[10];
 4670              		.loc 2 1226 0
 4671 0768 8046     		mov	r8, r0
 4672 076a 8946     		mov	r9, r1
1227:/home/tienluong/workspace/atlantis_fw/AsicFwS2/include/matrix.h ****         dst[6]   = tmp[1]  * mat[12] + tmp[6]  * mat[14] + tmp[9]  * mat[15];
 4673              		.loc 2 1227 0
 4674 076c DDE92801 		ldrd	r0, [sp, #160]
 4675 0770 A047     		blx	r4
 4676              	.LVL671:
 4677 0772 DDE91023 		ldrd	r2, [sp, #64]
 4678 0776 0646     		mov	r6, r0
 4679 0778 0F46     		mov	r7, r1
 4680 077a DDE92001 		ldrd	r0, [sp, #128]
 4681 077e A047     		blx	r4
 4682              	.LVL672:
 4683 0780 0246     		mov	r2, r0
 4684 0782 0B46     		mov	r3, r1
 4685 0784 3046     		mov	r0, r6
 4686 0786 3946     		mov	r1, r7
 4687 0788 A847     		blx	r5
 4688              	.LVL673:
 4689 078a DDE90823 		ldrd	r2, [sp, #32]
 4690 078e 0646     		mov	r6, r0
 4691 0790 0F46     		mov	r7, r1
 4692 0792 DDE92601 		ldrd	r0, [sp, #152]
 4693 0796 A047     		blx	r4
 4694              	.LVL674:
 4695 0798 0246     		mov	r2, r0
 4696 079a 0B46     		mov	r3, r1
 4697 079c 3046     		mov	r0, r6
 4698 079e 3946     		mov	r1, r7
 4699 07a0 A847     		blx	r5
 4700              	.LVL675:
 4701 07a2 0246     		mov	r2, r0
 4702 07a4 0B46     		mov	r3, r1
 4703 07a6 4046     		mov	r0, r8
 4704 07a8 4946     		mov	r1, r9
 4705 07aa D847     		blx	fp
 4706              	.LVL676:
 4707 07ac 44AB     		add	r3, sp, #272
 4708 07ae C3E90001 		strd	r0, [r3]
1228:/home/tienluong/workspace/atlantis_fw/AsicFwS2/include/matrix.h ****         dst[6]  -= tmp[0]  * mat[12] + tmp[7]  * mat[14] + tmp[8]  * mat[15];
 4709              		.loc 2 1228 0
 4710 07b2 DDE92201 		ldrd	r0, [sp, #136]
 4711 07b6 DDE91623 		ldrd	r2, [sp, #88]
 4712 07ba A047     		blx	r4
 4713              	.LVL677:
 4714 07bc DDE90E23 		ldrd	r2, [sp, #56]
 4715 07c0 0646     		mov	r6, r0
 4716 07c2 0F46     		mov	r7, r1
 4717 07c4 DDE91C01 		ldrd	r0, [sp, #112]
 4718 07c8 A047     		blx	r4
 4719              	.LVL678:
 4720 07ca 0246     		mov	r2, r0
 4721 07cc 0B46     		mov	r3, r1
 4722 07ce 3046     		mov	r0, r6
 4723 07d0 3946     		mov	r1, r7
 4724 07d2 A847     		blx	r5
 4725              	.LVL679:
 4726 07d4 DDE90A23 		ldrd	r2, [sp, #40]
 4727 07d8 0646     		mov	r6, r0
 4728 07da 0F46     		mov	r7, r1
 4729 07dc DDE90401 		ldrd	r0, [sp, #16]
 4730 07e0 A047     		blx	r4
 4731              	.LVL680:
 4732 07e2 0246     		mov	r2, r0
 4733 07e4 0B46     		mov	r3, r1
 4734 07e6 3046     		mov	r0, r6
 4735 07e8 3946     		mov	r1, r7
 4736 07ea A847     		blx	r5
 4737              	.LVL681:
1229:/home/tienluong/workspace/atlantis_fw/AsicFwS2/include/matrix.h ****         dst[7]   = tmp[8]  * mat[11] + tmp[0]  * mat[8]  + tmp[7]  * mat[10];
 4738              		.loc 2 1229 0
 4739 07ec DDE91623 		ldrd	r2, [sp, #88]
1228:/home/tienluong/workspace/atlantis_fw/AsicFwS2/include/matrix.h ****         dst[6]  -= tmp[0]  * mat[12] + tmp[7]  * mat[14] + tmp[8]  * mat[15];
 4740              		.loc 2 1228 0
 4741 07f0 8046     		mov	r8, r0
 4742 07f2 8946     		mov	r9, r1
1229:/home/tienluong/workspace/atlantis_fw/AsicFwS2/include/matrix.h ****         dst[7]   = tmp[8]  * mat[11] + tmp[0]  * mat[8]  + tmp[7]  * mat[10];
 4743              		.loc 2 1229 0
 4744 07f4 DDE92001 		ldrd	r0, [sp, #128]
 4745 07f8 A047     		blx	r4
 4746              	.LVL682:
 4747 07fa DDE90E23 		ldrd	r2, [sp, #56]
 4748 07fe 0646     		mov	r6, r0
 4749 0800 0F46     		mov	r7, r1
 4750 0802 DDE90601 		ldrd	r0, [sp, #24]
 4751 0806 A047     		blx	r4
 4752              	.LVL683:
 4753 0808 0246     		mov	r2, r0
 4754 080a 0B46     		mov	r3, r1
 4755 080c 3046     		mov	r0, r6
 4756 080e 3946     		mov	r1, r7
 4757 0810 A847     		blx	r5
 4758              	.LVL684:
 4759 0812 DDE90A23 		ldrd	r2, [sp, #40]
 4760 0816 0646     		mov	r6, r0
 4761 0818 0F46     		mov	r7, r1
 4762 081a DDE91A01 		ldrd	r0, [sp, #104]
 4763 081e A047     		blx	r4
 4764              	.LVL685:
 4765 0820 0246     		mov	r2, r0
 4766 0822 0B46     		mov	r3, r1
 4767 0824 3046     		mov	r0, r6
 4768 0826 3946     		mov	r1, r7
 4769 0828 A847     		blx	r5
 4770              	.LVL686:
 4771 082a 0246     		mov	r2, r0
 4772 082c 0B46     		mov	r3, r1
 4773 082e 4046     		mov	r0, r8
 4774 0830 4946     		mov	r1, r9
 4775 0832 D847     		blx	fp
 4776              	.LVL687:
 4777 0834 4AAB     		add	r3, sp, #296
 4778 0836 C3E90001 		strd	r0, [r3]
1230:/home/tienluong/workspace/atlantis_fw/AsicFwS2/include/matrix.h ****         dst[7]  -= tmp[6]  * mat[10] + tmp[9]  * mat[11] + tmp[1]  * mat[8];
 4779              		.loc 2 1230 0
 4780 083a DDE90C23 		ldrd	r2, [sp, #48]
 4781 083e DDE91A01 		ldrd	r0, [sp, #104]
 4782 0842 A047     		blx	r4
 4783              	.LVL688:
 4784 0844 DDE91423 		ldrd	r2, [sp, #80]
 4785 0848 0646     		mov	r6, r0
 4786 084a 0F46     		mov	r7, r1
 4787 084c DDE92001 		ldrd	r0, [sp, #128]
 4788 0850 A047     		blx	r4
 4789              	.LVL689:
 4790 0852 0246     		mov	r2, r0
 4791 0854 0B46     		mov	r3, r1
 4792 0856 3046     		mov	r0, r6
 4793 0858 3946     		mov	r1, r7
 4794 085a A847     		blx	r5
 4795              	.LVL690:
 4796 085c DDE90823 		ldrd	r2, [sp, #32]
 4797 0860 0646     		mov	r6, r0
 4798 0862 0F46     		mov	r7, r1
 4799 0864 DDE90601 		ldrd	r0, [sp, #24]
 4800 0868 A047     		blx	r4
 4801              	.LVL691:
 4802 086a 0246     		mov	r2, r0
 4803 086c 0B46     		mov	r3, r1
 4804 086e 3046     		mov	r0, r6
 4805 0870 3946     		mov	r1, r7
 4806 0872 A847     		blx	r5
 4807              	.LVL692:
1231:/home/tienluong/workspace/atlantis_fw/AsicFwS2/include/matrix.h ****         dst[10]  = tmp[2]  * mat[12] + tmp[7]  * mat[13] + tmp[10] * mat[15];
 4808              		.loc 2 1231 0
 4809 0874 DDE90823 		ldrd	r2, [sp, #32]
1230:/home/tienluong/workspace/atlantis_fw/AsicFwS2/include/matrix.h ****         dst[7]  -= tmp[6]  * mat[10] + tmp[9]  * mat[11] + tmp[1]  * mat[8];
 4810              		.loc 2 1230 0
 4811 0878 8046     		mov	r8, r0
 4812 087a 8946     		mov	r9, r1
1231:/home/tienluong/workspace/atlantis_fw/AsicFwS2/include/matrix.h ****         dst[10]  = tmp[2]  * mat[12] + tmp[7]  * mat[13] + tmp[10] * mat[15];
 4813              		.loc 2 1231 0
 4814 087c DDE91C01 		ldrd	r0, [sp, #112]
 4815 0880 A047     		blx	r4
 4816              	.LVL693:
 4817 0882 DDE90C23 		ldrd	r2, [sp, #48]
 4818 0886 0646     		mov	r6, r0
 4819 0888 0F46     		mov	r7, r1
 4820 088a DDE90401 		ldrd	r0, [sp, #16]
 4821 088e A047     		blx	r4
 4822              	.LVL694:
 4823 0890 0246     		mov	r2, r0
 4824 0892 0B46     		mov	r3, r1
 4825 0894 3046     		mov	r0, r6
 4826 0896 3946     		mov	r1, r7
 4827 0898 A847     		blx	r5
 4828              	.LVL695:
 4829 089a DDE91423 		ldrd	r2, [sp, #80]
 4830 089e 0646     		mov	r6, r0
 4831 08a0 0F46     		mov	r7, r1
 4832 08a2 DDE92201 		ldrd	r0, [sp, #136]
 4833 08a6 A047     		blx	r4
 4834              	.LVL696:
 4835 08a8 0246     		mov	r2, r0
 4836 08aa 0B46     		mov	r3, r1
 4837 08ac 3046     		mov	r0, r6
 4838 08ae 3946     		mov	r1, r7
 4839 08b0 A847     		blx	r5
 4840              	.LVL697:
 4841 08b2 0246     		mov	r2, r0
 4842 08b4 0B46     		mov	r3, r1
 4843 08b6 4046     		mov	r0, r8
 4844 08b8 4946     		mov	r1, r9
 4845 08ba D847     		blx	fp
 4846              	.LVL698:
 4847 08bc 4CAB     		add	r3, sp, #304
 4848 08be C3E90001 		strd	r0, [r3]
1232:/home/tienluong/workspace/atlantis_fw/AsicFwS2/include/matrix.h ****         dst[10] -= tmp[3]  * mat[12] + tmp[6]  * mat[13] + tmp[11] * mat[15];
 4849              		.loc 2 1232 0
 4850 08c2 DDE91623 		ldrd	r2, [sp, #88]
 4851 08c6 DDE92401 		ldrd	r0, [sp, #144]
 4852 08ca A047     		blx	r4
 4853              	.LVL699:
 4854 08cc DDE91223 		ldrd	r2, [sp, #72]
 4855 08d0 0646     		mov	r6, r0
 4856 08d2 0F46     		mov	r7, r1
 4857 08d4 DDE90601 		ldrd	r0, [sp, #24]
 4858 08d8 A047     		blx	r4
 4859              	.LVL700:
 4860 08da 0246     		mov	r2, r0
 4861 08dc 0B46     		mov	r3, r1
 4862 08de 3046     		mov	r0, r6
 4863 08e0 3946     		mov	r1, r7
 4864 08e2 A847     		blx	r5
 4865              	.LVL701:
 4866 08e4 DDE90A23 		ldrd	r2, [sp, #40]
 4867 08e8 0646     		mov	r6, r0
 4868 08ea 0F46     		mov	r7, r1
 4869 08ec DDE90001 		ldrd	r0, [sp]
 4870 08f0 A047     		blx	r4
 4871              	.LVL702:
 4872 08f2 0246     		mov	r2, r0
 4873 08f4 0B46     		mov	r3, r1
 4874 08f6 3046     		mov	r0, r6
 4875 08f8 3946     		mov	r1, r7
 4876 08fa A847     		blx	r5
 4877              	.LVL703:
1233:/home/tienluong/workspace/atlantis_fw/AsicFwS2/include/matrix.h ****         dst[11]  = tmp[6]  * mat[9]  + tmp[11] * mat[11] + tmp[3]  * mat[8];
 4878              		.loc 2 1233 0
 4879 08fc DDE91623 		ldrd	r2, [sp, #88]
1232:/home/tienluong/workspace/atlantis_fw/AsicFwS2/include/matrix.h ****         dst[10] -= tmp[3]  * mat[12] + tmp[6]  * mat[13] + tmp[11] * mat[15];
 4880              		.loc 2 1232 0
 4881 0900 8046     		mov	r8, r0
 4882 0902 8946     		mov	r9, r1
1233:/home/tienluong/workspace/atlantis_fw/AsicFwS2/include/matrix.h ****         dst[11]  = tmp[6]  * mat[9]  + tmp[11] * mat[11] + tmp[3]  * mat[8];
 4883              		.loc 2 1233 0
 4884 0904 DDE92601 		ldrd	r0, [sp, #152]
 4885 0908 A047     		blx	r4
 4886              	.LVL704:
 4887 090a DDE91223 		ldrd	r2, [sp, #72]
 4888 090e 0646     		mov	r6, r0
 4889 0910 0F46     		mov	r7, r1
 4890 0912 DDE91C01 		ldrd	r0, [sp, #112]
 4891 0916 A047     		blx	r4
 4892              	.LVL705:
 4893 0918 0246     		mov	r2, r0
 4894 091a 0B46     		mov	r3, r1
 4895 091c 3046     		mov	r0, r6
 4896 091e 3946     		mov	r1, r7
 4897 0920 A847     		blx	r5
 4898              	.LVL706:
 4899 0922 DDE90A23 		ldrd	r2, [sp, #40]
 4900 0926 0646     		mov	r6, r0
 4901 0928 0F46     		mov	r7, r1
 4902 092a DDE90201 		ldrd	r0, [sp, #8]
 4903 092e A047     		blx	r4
 4904              	.LVL707:
 4905 0930 0246     		mov	r2, r0
 4906 0932 0B46     		mov	r3, r1
 4907 0934 3046     		mov	r0, r6
 4908 0936 3946     		mov	r1, r7
 4909 0938 A847     		blx	r5
 4910              	.LVL708:
 4911 093a 0246     		mov	r2, r0
 4912 093c 0B46     		mov	r3, r1
 4913 093e 4046     		mov	r0, r8
 4914 0940 4946     		mov	r1, r9
 4915 0942 D847     		blx	fp
 4916              	.LVL709:
 4917 0944 52AB     		add	r3, sp, #328
 4918 0946 C3E90001 		strd	r0, [r3]
1234:/home/tienluong/workspace/atlantis_fw/AsicFwS2/include/matrix.h ****         dst[11] -= tmp[10] * mat[11] + tmp[2]  * mat[8]  + tmp[7]  * mat[9];
 4919              		.loc 2 1234 0
 4920 094a DDE91023 		ldrd	r2, [sp, #64]
 4921 094e DDE91C01 		ldrd	r0, [sp, #112]
 4922 0952 A047     		blx	r4
 4923              	.LVL710:
 4924 0954 DDE90C23 		ldrd	r2, [sp, #48]
 4925 0958 0646     		mov	r6, r0
 4926 095a 0F46     		mov	r7, r1
 4927 095c DDE90201 		ldrd	r0, [sp, #8]
 4928 0960 A047     		blx	r4
 4929              	.LVL711:
 4930 0962 0246     		mov	r2, r0
 4931 0964 0B46     		mov	r3, r1
 4932 0966 3046     		mov	r0, r6
 4933 0968 3946     		mov	r1, r7
 4934 096a A847     		blx	r5
 4935              	.LVL712:
 4936 096c DDE91423 		ldrd	r2, [sp, #80]
 4937 0970 0646     		mov	r6, r0
 4938 0972 0F46     		mov	r7, r1
 4939 0974 DDE92601 		ldrd	r0, [sp, #152]
 4940 0978 A047     		blx	r4
 4941              	.LVL713:
 4942 097a 0246     		mov	r2, r0
 4943 097c 0B46     		mov	r3, r1
 4944 097e 3046     		mov	r0, r6
 4945 0980 3946     		mov	r1, r7
 4946 0982 A847     		blx	r5
 4947              	.LVL714:
1235:/home/tienluong/workspace/atlantis_fw/AsicFwS2/include/matrix.h ****         dst[14]  = tmp[5]  * mat[12] + tmp[8]  * mat[13] + tmp[11] * mat[14];
 4948              		.loc 2 1235 0
 4949 0984 DDE90C23 		ldrd	r2, [sp, #48]
1234:/home/tienluong/workspace/atlantis_fw/AsicFwS2/include/matrix.h ****         dst[11] -= tmp[10] * mat[11] + tmp[2]  * mat[8]  + tmp[7]  * mat[9];
 4950              		.loc 2 1234 0
 4951 0988 8046     		mov	r8, r0
 4952 098a 8946     		mov	r9, r1
1235:/home/tienluong/workspace/atlantis_fw/AsicFwS2/include/matrix.h ****         dst[14]  = tmp[5]  * mat[12] + tmp[8]  * mat[13] + tmp[11] * mat[14];
 4953              		.loc 2 1235 0
 4954 098c DDE90001 		ldrd	r0, [sp]
 4955 0990 A047     		blx	r4
 4956              	.LVL715:
 4957 0992 DDE91423 		ldrd	r2, [sp, #80]
 4958 0996 0646     		mov	r6, r0
 4959 0998 0F46     		mov	r7, r1
 4960 099a DDE92401 		ldrd	r0, [sp, #144]
 4961 099e A047     		blx	r4
 4962              	.LVL716:
 4963 09a0 0246     		mov	r2, r0
 4964 09a2 0B46     		mov	r3, r1
 4965 09a4 3046     		mov	r0, r6
 4966 09a6 3946     		mov	r1, r7
 4967 09a8 A847     		blx	r5
 4968              	.LVL717:
 4969 09aa DDE91023 		ldrd	r2, [sp, #64]
 4970 09ae 0646     		mov	r6, r0
 4971 09b0 0F46     		mov	r7, r1
 4972 09b2 DDE90601 		ldrd	r0, [sp, #24]
 4973 09b6 A047     		blx	r4
 4974              	.LVL718:
 4975 09b8 0246     		mov	r2, r0
 4976 09ba 0B46     		mov	r3, r1
 4977 09bc 3046     		mov	r0, r6
 4978 09be 3946     		mov	r1, r7
 4979 09c0 A847     		blx	r5
 4980              	.LVL719:
 4981 09c2 0246     		mov	r2, r0
 4982 09c4 0B46     		mov	r3, r1
 4983 09c6 4046     		mov	r0, r8
 4984 09c8 4946     		mov	r1, r9
 4985 09ca D847     		blx	fp
 4986              	.LVL720:
 4987 09cc 54AB     		add	r3, sp, #336
 4988 09ce C3E90001 		strd	r0, [r3]
1236:/home/tienluong/workspace/atlantis_fw/AsicFwS2/include/matrix.h ****         dst[14] -= tmp[4]  * mat[12] + tmp[9]  * mat[13] + tmp[10] * mat[14];
 4989              		.loc 2 1236 0
 4990 09d2 DDE91623 		ldrd	r2, [sp, #88]
 4991 09d6 DDE92A01 		ldrd	r0, [sp, #168]
 4992 09da A047     		blx	r4
 4993              	.LVL721:
 4994 09dc DDE91223 		ldrd	r2, [sp, #72]
 4995 09e0 0646     		mov	r6, r0
 4996 09e2 0F46     		mov	r7, r1
 4997 09e4 DDE91A01 		ldrd	r0, [sp, #104]
 4998 09e8 A047     		blx	r4
 4999              	.LVL722:
 5000 09ea 0246     		mov	r2, r0
 5001 09ec 0B46     		mov	r3, r1
 5002 09ee 3046     		mov	r0, r6
 5003 09f0 3946     		mov	r1, r7
 5004 09f2 A847     		blx	r5
 5005              	.LVL723:
 5006 09f4 0646     		mov	r6, r0
 5007 09f6 0F46     		mov	r7, r1
 5008 09f8 DDE90201 		ldrd	r0, [sp, #8]
 5009 09fc DDE90E23 		ldrd	r2, [sp, #56]
 5010 0a00 A047     		blx	r4
 5011              	.LVL724:
 5012 0a02 0246     		mov	r2, r0
 5013 0a04 0B46     		mov	r3, r1
 5014 0a06 3046     		mov	r0, r6
 5015 0a08 3946     		mov	r1, r7
 5016 0a0a A847     		blx	r5
 5017              	.LVL725:
1237:/home/tienluong/workspace/atlantis_fw/AsicFwS2/include/matrix.h ****         dst[15]  = tmp[10] * mat[10] + tmp[4]  * mat[8]  + tmp[9]  * mat[9];
 5018              		.loc 2 1237 0
 5019 0a0c DDE91623 		ldrd	r2, [sp, #88]
1236:/home/tienluong/workspace/atlantis_fw/AsicFwS2/include/matrix.h ****         dst[14] -= tmp[4]  * mat[12] + tmp[9]  * mat[13] + tmp[10] * mat[14];
 5020              		.loc 2 1236 0
 5021 0a10 8046     		mov	r8, r0
 5022 0a12 8946     		mov	r9, r1
1237:/home/tienluong/workspace/atlantis_fw/AsicFwS2/include/matrix.h ****         dst[15]  = tmp[10] * mat[10] + tmp[4]  * mat[8]  + tmp[9]  * mat[9];
 5023              		.loc 2 1237 0
 5024 0a14 DDE92801 		ldrd	r0, [sp, #160]
 5025 0a18 A047     		blx	r4
 5026              	.LVL726:
 5027 0a1a DDE91223 		ldrd	r2, [sp, #72]
 5028 0a1e 0646     		mov	r6, r0
 5029 0a20 0F46     		mov	r7, r1
 5030 0a22 DDE90401 		ldrd	r0, [sp, #16]
 5031 0a26 A047     		blx	r4
 5032              	.LVL727:
 5033 0a28 0246     		mov	r2, r0
 5034 0a2a 0B46     		mov	r3, r1
 5035 0a2c 3046     		mov	r0, r6
 5036 0a2e 3946     		mov	r1, r7
 5037 0a30 A847     		blx	r5
 5038              	.LVL728:
 5039 0a32 DDE90E23 		ldrd	r2, [sp, #56]
 5040 0a36 0646     		mov	r6, r0
 5041 0a38 0F46     		mov	r7, r1
 5042 0a3a DDE90001 		ldrd	r0, [sp]
 5043 0a3e A047     		blx	r4
 5044              	.LVL729:
 5045 0a40 0246     		mov	r2, r0
 5046 0a42 0B46     		mov	r3, r1
 5047 0a44 3046     		mov	r0, r6
 5048 0a46 3946     		mov	r1, r7
 5049 0a48 A847     		blx	r5
 5050              	.LVL730:
 5051 0a4a 0246     		mov	r2, r0
 5052 0a4c 0B46     		mov	r3, r1
 5053 0a4e 4046     		mov	r0, r8
 5054 0a50 4946     		mov	r1, r9
 5055 0a52 D847     		blx	fp
 5056              	.LVL731:
 5057 0a54 5AAB     		add	r3, sp, #360
 5058 0a56 C3E90001 		strd	r0, [r3]
1238:/home/tienluong/workspace/atlantis_fw/AsicFwS2/include/matrix.h ****         dst[15] -= tmp[8]  * mat[9]  + tmp[11] * mat[10] + tmp[5]  * mat[8];
 5059              		.loc 2 1238 0
 5060 0a5a DDE90823 		ldrd	r2, [sp, #32]
 5061 0a5e DDE90001 		ldrd	r0, [sp]
 5062 0a62 A047     		blx	r4
 5063              	.LVL732:
 5064 0a64 DDE91423 		ldrd	r2, [sp, #80]
 5065 0a68 0646     		mov	r6, r0
 5066 0a6a 0F46     		mov	r7, r1
 5067 0a6c DDE92801 		ldrd	r0, [sp, #160]
 5068 0a70 A047     		blx	r4
 5069              	.LVL733:
 5070 0a72 0246     		mov	r2, r0
 5071 0a74 0B46     		mov	r3, r1
 5072 0a76 3046     		mov	r0, r6
 5073 0a78 3946     		mov	r1, r7
 5074 0a7a A847     		blx	r5
 5075              	.LVL734:
 5076 0a7c DDE91023 		ldrd	r2, [sp, #64]
 5077 0a80 0646     		mov	r6, r0
 5078 0a82 0F46     		mov	r7, r1
 5079 0a84 DDE90401 		ldrd	r0, [sp, #16]
 5080 0a88 A047     		blx	r4
 5081              	.LVL735:
 5082 0a8a 0246     		mov	r2, r0
 5083 0a8c 0B46     		mov	r3, r1
 5084 0a8e 3046     		mov	r0, r6
 5085 0a90 3946     		mov	r1, r7
 5086 0a92 A847     		blx	r5
 5087              	.LVL736:
1239:/home/tienluong/workspace/atlantis_fw/AsicFwS2/include/matrix.h **** 
 5088              		.loc 2 1239 0
 5089 0a94 DDE91023 		ldrd	r2, [sp, #64]
1238:/home/tienluong/workspace/atlantis_fw/AsicFwS2/include/matrix.h ****         dst[15] -= tmp[8]  * mat[9]  + tmp[11] * mat[10] + tmp[5]  * mat[8];
 5090              		.loc 2 1238 0
 5091 0a98 0646     		mov	r6, r0
 5092 0a9a 0F46     		mov	r7, r1
1239:/home/tienluong/workspace/atlantis_fw/AsicFwS2/include/matrix.h **** 
 5093              		.loc 2 1239 0
 5094 0a9c DDE91A01 		ldrd	r0, [sp, #104]
 5095 0aa0 A047     		blx	r4
 5096              	.LVL737:
 5097 0aa2 DDE90823 		ldrd	r2, [sp, #32]
 5098 0aa6 8046     		mov	r8, r0
 5099 0aa8 8946     		mov	r9, r1
 5100 0aaa DDE90201 		ldrd	r0, [sp, #8]
 5101 0aae A047     		blx	r4
 5102              	.LVL738:
 5103 0ab0 0246     		mov	r2, r0
 5104 0ab2 0B46     		mov	r3, r1
 5105 0ab4 4046     		mov	r0, r8
 5106 0ab6 4946     		mov	r1, r9
 5107 0ab8 A847     		blx	r5
 5108              	.LVL739:
 5109 0aba DDE91423 		ldrd	r2, [sp, #80]
 5110 0abe 8046     		mov	r8, r0
 5111 0ac0 8946     		mov	r9, r1
 5112 0ac2 DDE92A01 		ldrd	r0, [sp, #168]
 5113 0ac6 A047     		blx	r4
 5114              	.LVL740:
 5115 0ac8 0246     		mov	r2, r0
 5116 0aca 0B46     		mov	r3, r1
 5117 0acc 4046     		mov	r0, r8
 5118 0ace 4946     		mov	r1, r9
 5119 0ad0 A847     		blx	r5
 5120              	.LVL741:
 5121 0ad2 AAF10805 		sub	r5, r10, #8
 5122 0ad6 0AF1780A 		add	r10, r10, #120
 5123              	.LVL742:
 5124 0ada 0B46     		mov	r3, r1
 5125 0adc 0246     		mov	r2, r0
 5126 0ade 3946     		mov	r1, r7
 5127 0ae0 3046     		mov	r0, r6
 5128 0ae2 D847     		blx	fp
 5129              	.LVL743:
 5130 0ae4 3CAE     		add	r6, sp, #240
 5131 0ae6 5CAB     		add	r3, sp, #368
 5132 0ae8 C3E90001 		strd	r0, [r3]
 5133              	.LVL744:
 5134              	.L114:
 5135              	.LBB317:
1242:/home/tienluong/workspace/atlantis_fw/AsicFwS2/include/matrix.h ****     }
 5136              		.loc 2 1242 0 discriminator 3
 5137 0aec F6E90201 		ldrd	r0, [r6, #8]!
 5138 0af0 DDE93823 		ldrd	r2, [sp, #224]
 5139 0af4 A047     		blx	r4
 5140              	.LVL745:
 5141 0af6 E5E90201 		strd	r0, [r5, #8]!
 5142 0afa 5545     		cmp	r5, r10
 5143 0afc F6D1     		bne	.L114
 5144              	.LBE317:
 5145              	.LBE318:
1243:/home/tienluong/workspace/atlantis_fw/AsicFwS2/include/matrix.h **** };
 5146              		.loc 2 1243 0
 5147 0afe 5FB0     		add	sp, sp, #380
 5148              	.LCFI47:
 5149              		.cfi_def_cfa_offset 36
 5150              		@ sp needed
 5151 0b00 BDE8F08F 		pop	{r4, r5, r6, r7, r8, r9, r10, fp, pc}
 5152              		.cfi_endproc
 5153              	.LFE3680:
 5155              		.section	.text._ZN4ltaf7inverseIdLi4ELb1EEENS_6MatrixIT_XT0_EXT0_EXT1_EEERKS3_,"axG",%progbits,_ZN
 5156              		.align	1
 5157              		.weak	_ZN4ltaf7inverseIdLi4ELb1EEENS_6MatrixIT_XT0_EXT0_EXT1_EEERKS3_
 5158              		.thumb
 5159              		.thumb_func
 5161              	_ZN4ltaf7inverseIdLi4ELb1EEENS_6MatrixIT_XT0_EXT0_EXT1_EEERKS3_:
 5162              	.LFB3551:
1247:/home/tienluong/workspace/atlantis_fw/AsicFwS2/include/matrix.h **** {
 5163              		.loc 2 1247 0
 5164              		.cfi_startproc
 5165              		@ args = 0, pretend = 0, frame = 8
 5166              		@ frame_needed = 0, uses_anonymous_args = 0
 5167              	.LVL746:
 5168 0000 13B5     		push	{r0, r1, r4, lr}
 5169              	.LCFI48:
 5170              		.cfi_def_cfa_offset 16
 5171              		.cfi_offset 4, -8
 5172              		.cfi_offset 14, -4
 5173              	.LBB325:
 5174              	.LBB326:
 5175              	.LBB327:
 591:/home/tienluong/workspace/atlantis_fw/AsicFwS2/include/matrix.h **** 
 5176              		.loc 2 591 0
 5177 0002 8022     		movs	r2, #128
 5178              	.LBE327:
 5179              	.LBE326:
 5180              	.LBE325:
1247:/home/tienluong/workspace/atlantis_fw/AsicFwS2/include/matrix.h **** {
 5181              		.loc 2 1247 0
 5182 0004 0446     		mov	r4, r0
 5183              	.LVL747:
 5184              	.LBB330:
 5185              	.LBB329:
 5186              	.LBB328:
 591:/home/tienluong/workspace/atlantis_fw/AsicFwS2/include/matrix.h **** 
 5187              		.loc 2 591 0
 5188 0006 044B     		ldr	r3, .L123
 5189 0008 9847     		blx	r3
 5190              	.LVL748:
 5191              	.LBE328:
 5192              	.LBE329:
1251:/home/tienluong/workspace/atlantis_fw/AsicFwS2/include/matrix.h ****     return rval;
 5193              		.loc 2 1251 0
 5194 000a 01A8     		add	r0, sp, #4
 5195 000c 2146     		mov	r1, r4
 5196 000e 034B     		ldr	r3, .L123+4
 5197 0010 9847     		blx	r3
 5198              	.LVL749:
 5199              	.LBE330:
1253:/home/tienluong/workspace/atlantis_fw/AsicFwS2/include/matrix.h **** 
 5200              		.loc 2 1253 0
 5201 0012 2046     		mov	r0, r4
 5202 0014 02B0     		add	sp, sp, #8
 5203              	.LCFI49:
 5204              		.cfi_def_cfa_offset 8
 5205              		@ sp needed
 5206 0016 10BD     		pop	{r4, pc}
 5207              	.LVL750:
 5208              	.L124:
 5209              		.align	2
 5210              	.L123:
 5211 0018 00000000 		.word	memcpy
 5212 001c 00000000 		.word	_ZNK4ltaf20SquareMatrixInverterIdLi4EE3runEPd
 5213              		.cfi_endproc
 5214              	.LFE3551:
 5216              		.section	.text._ZN4ltaf7inverseIdLi4ELb0EEENS_6MatrixIT_XT0_EXT0_EXT1_EEERKS3_,"axG",%progbits,_ZN
 5217              		.align	1
 5218              		.weak	_ZN4ltaf7inverseIdLi4ELb0EEENS_6MatrixIT_XT0_EXT0_EXT1_EEERKS3_
 5219              		.thumb
 5220              		.thumb_func
 5222              	_ZN4ltaf7inverseIdLi4ELb0EEENS_6MatrixIT_XT0_EXT0_EXT1_EEERKS3_:
 5223              	.LFB3554:
1247:/home/tienluong/workspace/atlantis_fw/AsicFwS2/include/matrix.h **** {
 5224              		.loc 2 1247 0
 5225              		.cfi_startproc
 5226              		@ args = 0, pretend = 0, frame = 8
 5227              		@ frame_needed = 0, uses_anonymous_args = 0
 5228              	.LVL751:
 5229 0000 13B5     		push	{r0, r1, r4, lr}
 5230              	.LCFI50:
 5231              		.cfi_def_cfa_offset 16
 5232              		.cfi_offset 4, -8
 5233              		.cfi_offset 14, -4
 5234              	.LBB337:
 5235              	.LBB338:
 5236              	.LBB339:
 593:/home/tienluong/workspace/atlantis_fw/AsicFwS2/include/matrix.h **** 
 5237              		.loc 2 593 0
 5238 0002 8022     		movs	r2, #128
 5239              	.LBE339:
 5240              	.LBE338:
 5241              	.LBE337:
1247:/home/tienluong/workspace/atlantis_fw/AsicFwS2/include/matrix.h **** {
 5242              		.loc 2 1247 0
 5243 0004 0446     		mov	r4, r0
 5244              	.LVL752:
 5245              	.LBB342:
 5246              	.LBB341:
 5247              	.LBB340:
 593:/home/tienluong/workspace/atlantis_fw/AsicFwS2/include/matrix.h **** 
 5248              		.loc 2 593 0
 5249 0006 044B     		ldr	r3, .L126
 5250 0008 9847     		blx	r3
 5251              	.LVL753:
 5252              	.LBE340:
 5253              	.LBE341:
1251:/home/tienluong/workspace/atlantis_fw/AsicFwS2/include/matrix.h ****     return rval;
 5254              		.loc 2 1251 0
 5255 000a 01A8     		add	r0, sp, #4
 5256 000c 2146     		mov	r1, r4
 5257 000e 034B     		ldr	r3, .L126+4
 5258 0010 9847     		blx	r3
 5259              	.LVL754:
 5260              	.LBE342:
1253:/home/tienluong/workspace/atlantis_fw/AsicFwS2/include/matrix.h **** 
 5261              		.loc 2 1253 0
 5262 0012 2046     		mov	r0, r4
 5263 0014 02B0     		add	sp, sp, #8
 5264              	.LCFI51:
 5265              		.cfi_def_cfa_offset 8
 5266              		@ sp needed
 5267 0016 10BD     		pop	{r4, pc}
 5268              	.LVL755:
 5269              	.L127:
 5270              		.align	2
 5271              	.L126:
 5272 0018 00000000 		.word	memcpy
 5273 001c 00000000 		.word	_ZNK4ltaf20SquareMatrixInverterIdLi4EE3runEPd
 5274              		.cfi_endproc
 5275              	.LFE3554:
 5277              		.section	.text._ZNK4ltaf17MatrixDeterminantIfLi3EEclEPKf,"axG",%progbits,_ZNK4ltaf17MatrixDetermin
 5278              		.align	1
 5279              		.weak	_ZNK4ltaf17MatrixDeterminantIfLi3EEclEPKf
 5280              		.thumb
 5281              		.thumb_func
 5283              	_ZNK4ltaf17MatrixDeterminantIfLi3EEclEPKf:
 5284              	.LFB3696:
1069:/home/tienluong/workspace/atlantis_fw/AsicFwS2/include/matrix.h ****     {
 5285              		.loc 2 1069 0
 5286              		.cfi_startproc
 5287              		@ args = 0, pretend = 0, frame = 16
 5288              		@ frame_needed = 0, uses_anonymous_args = 0
 5289              	.LVL756:
 5290 0000 2DE9F04F 		push	{r4, r5, r6, r7, r8, r9, r10, fp, lr}
 5291              	.LCFI52:
 5292              		.cfi_def_cfa_offset 36
 5293              		.cfi_offset 4, -36
 5294              		.cfi_offset 5, -32
 5295              		.cfi_offset 6, -28
 5296              		.cfi_offset 7, -24
 5297              		.cfi_offset 8, -20
 5298              		.cfi_offset 9, -16
 5299              		.cfi_offset 10, -12
 5300              		.cfi_offset 11, -8
 5301              		.cfi_offset 14, -4
1073:/home/tienluong/workspace/atlantis_fw/AsicFwS2/include/matrix.h ****     }
 5302              		.loc 2 1073 0
 5303 0004 0B6A     		ldr	r3, [r1, #32]	@ float
1069:/home/tienluong/workspace/atlantis_fw/AsicFwS2/include/matrix.h ****     {
 5304              		.loc 2 1069 0
 5305 0006 85B0     		sub	sp, sp, #20
 5306              	.LCFI53:
 5307              		.cfi_def_cfa_offset 56
1073:/home/tienluong/workspace/atlantis_fw/AsicFwS2/include/matrix.h ****     }
 5308              		.loc 2 1073 0
 5309 0008 D1F81080 		ldr	r8, [r1, #16]	@ float
1069:/home/tienluong/workspace/atlantis_fw/AsicFwS2/include/matrix.h ****     {
 5310              		.loc 2 1069 0
 5311 000c 0D46     		mov	r5, r1
1073:/home/tienluong/workspace/atlantis_fw/AsicFwS2/include/matrix.h ****     }
 5312              		.loc 2 1073 0
 5313 000e 1F4C     		ldr	r4, .L129
 5314 0010 4046     		mov	r0, r8
 5315              	.LVL757:
 5316 0012 D1F81C90 		ldr	r9, [r1, #28]	@ float
 5317 0016 D1F814B0 		ldr	fp, [r1, #20]	@ float
 5318 001a D1F80CA0 		ldr	r10, [r1, #12]	@ float
 5319 001e 8F69     		ldr	r7, [r1, #24]	@ float
 5320 0020 1946     		mov	r1, r3
 5321              	.LVL758:
 5322 0022 0393     		str	r3, [sp, #12]
 5323 0024 A047     		blx	r4
 5324              	.LVL759:
 5325 0026 5946     		mov	r1, fp
 5326 0028 194E     		ldr	r6, .L129+4
 5327 002a 0190     		str	r0, [sp, #4]
 5328 002c 4846     		mov	r0, r9
 5329 002e A047     		blx	r4
 5330              	.LVL760:
 5331 0030 019A     		ldr	r2, [sp, #4]
 5332 0032 0146     		mov	r1, r0
 5333 0034 1046     		mov	r0, r2
 5334 0036 B047     		blx	r6
 5335              	.LVL761:
 5336 0038 2968     		ldr	r1, [r5]	@ float
 5337 003a A047     		blx	r4
 5338              	.LVL762:
 5339 003c 039B     		ldr	r3, [sp, #12]
 5340 003e 1946     		mov	r1, r3
 5341 0040 0290     		str	r0, [sp, #8]
 5342 0042 5046     		mov	r0, r10
 5343 0044 A047     		blx	r4
 5344              	.LVL763:
 5345 0046 3946     		mov	r1, r7
 5346 0048 0190     		str	r0, [sp, #4]
 5347 004a 5846     		mov	r0, fp
 5348 004c A047     		blx	r4
 5349              	.LVL764:
 5350 004e 019B     		ldr	r3, [sp, #4]
 5351 0050 0146     		mov	r1, r0
 5352 0052 1846     		mov	r0, r3
 5353 0054 B047     		blx	r6
 5354              	.LVL765:
 5355 0056 6968     		ldr	r1, [r5, #4]	@ float
 5356 0058 A047     		blx	r4
 5357              	.LVL766:
 5358 005a 029A     		ldr	r2, [sp, #8]
 5359 005c 0146     		mov	r1, r0
 5360 005e 1046     		mov	r0, r2
 5361 0060 B047     		blx	r6
 5362              	.LVL767:
 5363 0062 4946     		mov	r1, r9
 5364 0064 8346     		mov	fp, r0
 5365 0066 5046     		mov	r0, r10
 5366 0068 A047     		blx	r4
 5367              	.LVL768:
 5368 006a 3946     		mov	r1, r7
 5369 006c 8146     		mov	r9, r0
 5370 006e 4046     		mov	r0, r8
 5371 0070 A047     		blx	r4
 5372              	.LVL769:
 5373 0072 0146     		mov	r1, r0
 5374 0074 4846     		mov	r0, r9
 5375 0076 B047     		blx	r6
 5376              	.LVL770:
 5377 0078 A968     		ldr	r1, [r5, #8]	@ float
 5378 007a A047     		blx	r4
 5379              	.LVL771:
 5380 007c 054B     		ldr	r3, .L129+8
 5381 007e 0146     		mov	r1, r0
 5382 0080 5846     		mov	r0, fp
 5383 0082 9847     		blx	r3
 5384              	.LVL772:
1074:/home/tienluong/workspace/atlantis_fw/AsicFwS2/include/matrix.h **** };
 5385              		.loc 2 1074 0
 5386 0084 05B0     		add	sp, sp, #20
 5387              	.LCFI54:
 5388              		.cfi_def_cfa_offset 36
 5389              		@ sp needed
 5390 0086 BDE8F08F 		pop	{r4, r5, r6, r7, r8, r9, r10, fp, pc}
 5391              	.LVL773:
 5392              	.L130:
 5393 008a 00BF     		.align	2
 5394              	.L129:
 5395 008c 00000000 		.word	__aeabi_fmul
 5396 0090 00000000 		.word	__aeabi_fsub
 5397 0094 00000000 		.word	__aeabi_fadd
 5398              		.cfi_endproc
 5399              	.LFE3696:
 5401              		.section	.text._ZN4ltaf11determinantIfLi3ELb1EEET_RKNS_6MatrixIS1_XT0_EXT0_EXT1_EEE,"axG",%progbit
 5402              		.align	1
 5403              		.weak	_ZN4ltaf11determinantIfLi3ELb1EEET_RKNS_6MatrixIS1_XT0_EXT0_EXT1_EEE
 5404              		.thumb
 5405              		.thumb_func
 5407              	_ZN4ltaf11determinantIfLi3ELb1EEET_RKNS_6MatrixIS1_XT0_EXT0_EXT1_EEE:
 5408              	.LFB3556:
1256:/home/tienluong/workspace/atlantis_fw/AsicFwS2/include/matrix.h **** {
 5409              		.loc 2 1256 0
 5410              		.cfi_startproc
 5411              		@ args = 0, pretend = 0, frame = 8
 5412              		@ frame_needed = 0, uses_anonymous_args = 0
 5413              	.LVL774:
 5414 0000 07B5     		push	{r0, r1, r2, lr}
 5415              	.LCFI55:
 5416              		.cfi_def_cfa_offset 16
 5417              		.cfi_offset 14, -4
 5418              	.LBB343:
1259:/home/tienluong/workspace/atlantis_fw/AsicFwS2/include/matrix.h **** }
 5419              		.loc 2 1259 0
 5420 0002 034B     		ldr	r3, .L132
 5421              	.LBE343:
1256:/home/tienluong/workspace/atlantis_fw/AsicFwS2/include/matrix.h **** {
 5422              		.loc 2 1256 0
 5423 0004 0146     		mov	r1, r0
 5424              	.LVL775:
 5425              	.LBB344:
1259:/home/tienluong/workspace/atlantis_fw/AsicFwS2/include/matrix.h **** }
 5426              		.loc 2 1259 0
 5427 0006 01A8     		add	r0, sp, #4
 5428              	.LVL776:
 5429 0008 9847     		blx	r3
 5430              	.LVL777:
 5431              	.LBE344:
 5432              		.loc 2 1260 0
 5433 000a 03B0     		add	sp, sp, #12
 5434              	.LCFI56:
 5435              		.cfi_def_cfa_offset 4
 5436              		@ sp needed
 5437 000c 5DF804FB 		ldr	pc, [sp], #4
 5438              	.L133:
 5439              		.align	2
 5440              	.L132:
 5441 0010 00000000 		.word	_ZNK4ltaf17MatrixDeterminantIfLi3EEclEPKf
 5442              		.cfi_endproc
 5443              	.LFE3556:
 5445              		.section	.text._ZN4ltaf11determinantIfLi3ELb0EEET_RKNS_6MatrixIS1_XT0_EXT0_EXT1_EEE,"axG",%progbit
 5446              		.align	1
 5447              		.weak	_ZN4ltaf11determinantIfLi3ELb0EEET_RKNS_6MatrixIS1_XT0_EXT0_EXT1_EEE
 5448              		.thumb
 5449              		.thumb_func
 5451              	_ZN4ltaf11determinantIfLi3ELb0EEET_RKNS_6MatrixIS1_XT0_EXT0_EXT1_EEE:
 5452              	.LFB3559:
1256:/home/tienluong/workspace/atlantis_fw/AsicFwS2/include/matrix.h **** {
 5453              		.loc 2 1256 0
 5454              		.cfi_startproc
 5455              		@ args = 0, pretend = 0, frame = 8
 5456              		@ frame_needed = 0, uses_anonymous_args = 0
 5457              	.LVL778:
 5458 0000 07B5     		push	{r0, r1, r2, lr}
 5459              	.LCFI57:
 5460              		.cfi_def_cfa_offset 16
 5461              		.cfi_offset 14, -4
 5462              	.LBB345:
1259:/home/tienluong/workspace/atlantis_fw/AsicFwS2/include/matrix.h **** }
 5463              		.loc 2 1259 0
 5464 0002 034B     		ldr	r3, .L135
 5465              	.LBE345:
1256:/home/tienluong/workspace/atlantis_fw/AsicFwS2/include/matrix.h **** {
 5466              		.loc 2 1256 0
 5467 0004 0146     		mov	r1, r0
 5468              	.LVL779:
 5469              	.LBB346:
1259:/home/tienluong/workspace/atlantis_fw/AsicFwS2/include/matrix.h **** }
 5470              		.loc 2 1259 0
 5471 0006 01A8     		add	r0, sp, #4
 5472              	.LVL780:
 5473 0008 9847     		blx	r3
 5474              	.LVL781:
 5475              	.LBE346:
 5476              		.loc 2 1260 0
 5477 000a 03B0     		add	sp, sp, #12
 5478              	.LCFI58:
 5479              		.cfi_def_cfa_offset 4
 5480              		@ sp needed
 5481 000c 5DF804FB 		ldr	pc, [sp], #4
 5482              	.L136:
 5483              		.align	2
 5484              	.L135:
 5485 0010 00000000 		.word	_ZNK4ltaf17MatrixDeterminantIfLi3EEclEPKf
 5486              		.cfi_endproc
 5487              	.LFE3559:
 5489              		.section	.text._ZNK4ltaf17MatrixDeterminantIfLi4EEclEPKf,"axG",%progbits,_ZNK4ltaf17MatrixDetermin
 5490              		.align	1
 5491              		.weak	_ZNK4ltaf17MatrixDeterminantIfLi4EEclEPKf
 5492              		.thumb
 5493              		.thumb_func
 5495              	_ZNK4ltaf17MatrixDeterminantIfLi4EEclEPKf:
 5496              	.LFB3698:
1080:/home/tienluong/workspace/atlantis_fw/AsicFwS2/include/matrix.h ****     {
 5497              		.loc 2 1080 0
 5498              		.cfi_startproc
 5499              		@ args = 0, pretend = 0, frame = 56
 5500              		@ frame_needed = 0, uses_anonymous_args = 0
 5501              	.LVL782:
 5502 0000 2DE9F04F 		push	{r4, r5, r6, r7, r8, r9, r10, fp, lr}
 5503              	.LCFI59:
 5504              		.cfi_def_cfa_offset 36
 5505              		.cfi_offset 4, -36
 5506              		.cfi_offset 5, -32
 5507              		.cfi_offset 6, -28
 5508              		.cfi_offset 7, -24
 5509              		.cfi_offset 8, -20
 5510              		.cfi_offset 9, -16
 5511              		.cfi_offset 10, -12
 5512              		.cfi_offset 11, -8
 5513              		.cfi_offset 14, -4
 5514              	.LBB347:
1086:/home/tienluong/workspace/atlantis_fw/AsicFwS2/include/matrix.h ****         tmp[1] = mat[11] * mat[14];
 5515              		.loc 2 1086 0
 5516 0004 D1F828A0 		ldr	r10, [r1, #40]	@ float
 5517              	.LBE347:
1080:/home/tienluong/workspace/atlantis_fw/AsicFwS2/include/matrix.h ****     {
 5518              		.loc 2 1080 0
 5519 0008 8FB0     		sub	sp, sp, #60
 5520              	.LCFI60:
 5521              		.cfi_def_cfa_offset 96
 5522              	.LBB348:
1086:/home/tienluong/workspace/atlantis_fw/AsicFwS2/include/matrix.h ****         tmp[1] = mat[11] * mat[14];
 5523              		.loc 2 1086 0
 5524 000a CD6B     		ldr	r5, [r1, #60]	@ float
 5525              	.LBE348:
1080:/home/tienluong/workspace/atlantis_fw/AsicFwS2/include/matrix.h ****     {
 5526              		.loc 2 1080 0
 5527 000c 0E46     		mov	r6, r1
 5528              	.LBB349:
1086:/home/tienluong/workspace/atlantis_fw/AsicFwS2/include/matrix.h ****         tmp[1] = mat[11] * mat[14];
 5529              		.loc 2 1086 0
 5530 000e 824C     		ldr	r4, .L138
 5531 0010 2946     		mov	r1, r5
 5532              	.LVL783:
 5533 0012 5046     		mov	r0, r10
 5534              	.LVL784:
 5535 0014 A047     		blx	r4
 5536              	.LVL785:
1087:/home/tienluong/workspace/atlantis_fw/AsicFwS2/include/matrix.h ****         tmp[2] = mat[9] * mat[15];
 5537              		.loc 2 1087 0
 5538 0016 F26A     		ldr	r2, [r6, #44]	@ float
 5539 0018 D6F838B0 		ldr	fp, [r6, #56]	@ float
 5540 001c 5946     		mov	r1, fp
 5541 001e 0392     		str	r2, [sp, #12]
1086:/home/tienluong/workspace/atlantis_fw/AsicFwS2/include/matrix.h ****         tmp[1] = mat[11] * mat[14];
 5542              		.loc 2 1086 0
 5543 0020 0090     		str	r0, [sp]	@ float
 5544              	.LVL786:
1087:/home/tienluong/workspace/atlantis_fw/AsicFwS2/include/matrix.h ****         tmp[2] = mat[9] * mat[15];
 5545              		.loc 2 1087 0
 5546 0022 1046     		mov	r0, r2
 5547              	.LVL787:
 5548 0024 A047     		blx	r4
 5549              	.LVL788:
1088:/home/tienluong/workspace/atlantis_fw/AsicFwS2/include/matrix.h ****         tmp[3] = mat[11] * mat[13];
 5550              		.loc 2 1088 0
 5551 0026 776A     		ldr	r7, [r6, #36]	@ float
 5552 0028 2946     		mov	r1, r5
1087:/home/tienluong/workspace/atlantis_fw/AsicFwS2/include/matrix.h ****         tmp[2] = mat[9] * mat[15];
 5553              		.loc 2 1087 0
 5554 002a 0190     		str	r0, [sp, #4]	@ float
 5555              	.LVL789:
1088:/home/tienluong/workspace/atlantis_fw/AsicFwS2/include/matrix.h ****         tmp[3] = mat[11] * mat[13];
 5556              		.loc 2 1088 0
 5557 002c 3846     		mov	r0, r7
 5558              	.LVL790:
 5559 002e A047     		blx	r4
 5560              	.LVL791:
1089:/home/tienluong/workspace/atlantis_fw/AsicFwS2/include/matrix.h ****         tmp[4] = mat[9] * mat[14];
 5561              		.loc 2 1089 0
 5562 0030 039A     		ldr	r2, [sp, #12]
 5563 0032 D6F83480 		ldr	r8, [r6, #52]	@ float
 5564 0036 4146     		mov	r1, r8
 5565 0038 0792     		str	r2, [sp, #28]
1088:/home/tienluong/workspace/atlantis_fw/AsicFwS2/include/matrix.h ****         tmp[3] = mat[11] * mat[13];
 5566              		.loc 2 1088 0
 5567 003a 0290     		str	r0, [sp, #8]	@ float
 5568              	.LVL792:
1089:/home/tienluong/workspace/atlantis_fw/AsicFwS2/include/matrix.h ****         tmp[4] = mat[9] * mat[14];
 5569              		.loc 2 1089 0
 5570 003c 1046     		mov	r0, r2
 5571              	.LVL793:
 5572 003e A047     		blx	r4
 5573              	.LVL794:
1090:/home/tienluong/workspace/atlantis_fw/AsicFwS2/include/matrix.h ****         tmp[5] = mat[10] * mat[13];
 5574              		.loc 2 1090 0
 5575 0040 5946     		mov	r1, fp
1089:/home/tienluong/workspace/atlantis_fw/AsicFwS2/include/matrix.h ****         tmp[4] = mat[9] * mat[14];
 5576              		.loc 2 1089 0
 5577 0042 0390     		str	r0, [sp, #12]	@ float
 5578              	.LVL795:
1090:/home/tienluong/workspace/atlantis_fw/AsicFwS2/include/matrix.h ****         tmp[5] = mat[10] * mat[13];
 5579              		.loc 2 1090 0
 5580 0044 3846     		mov	r0, r7
 5581              	.LVL796:
 5582 0046 A047     		blx	r4
 5583              	.LVL797:
1091:/home/tienluong/workspace/atlantis_fw/AsicFwS2/include/matrix.h ****         tmp[6] = mat[8] * mat[15];
 5584              		.loc 2 1091 0
 5585 0048 4146     		mov	r1, r8
1090:/home/tienluong/workspace/atlantis_fw/AsicFwS2/include/matrix.h ****         tmp[5] = mat[10] * mat[13];
 5586              		.loc 2 1090 0
 5587 004a 0490     		str	r0, [sp, #16]	@ float
 5588              	.LVL798:
1091:/home/tienluong/workspace/atlantis_fw/AsicFwS2/include/matrix.h ****         tmp[6] = mat[8] * mat[15];
 5589              		.loc 2 1091 0
 5590 004c 5046     		mov	r0, r10
 5591              	.LVL799:
 5592 004e A047     		blx	r4
 5593              	.LVL800:
1092:/home/tienluong/workspace/atlantis_fw/AsicFwS2/include/matrix.h ****         tmp[7] = mat[11] * mat[12];
 5594              		.loc 2 1092 0
 5595 0050 D6F82090 		ldr	r9, [r6, #32]	@ float
 5596 0054 2946     		mov	r1, r5
1091:/home/tienluong/workspace/atlantis_fw/AsicFwS2/include/matrix.h ****         tmp[6] = mat[8] * mat[15];
 5597              		.loc 2 1091 0
 5598 0056 0590     		str	r0, [sp, #20]	@ float
 5599              	.LVL801:
1092:/home/tienluong/workspace/atlantis_fw/AsicFwS2/include/matrix.h ****         tmp[7] = mat[11] * mat[12];
 5600              		.loc 2 1092 0
 5601 0058 4846     		mov	r0, r9
 5602              	.LVL802:
 5603 005a A047     		blx	r4
 5604              	.LVL803:
1093:/home/tienluong/workspace/atlantis_fw/AsicFwS2/include/matrix.h ****         tmp[8] = mat[8] * mat[14];
 5605              		.loc 2 1093 0
 5606 005c 079A     		ldr	r2, [sp, #28]
 5607 005e 356B     		ldr	r5, [r6, #48]	@ float
 5608 0060 2946     		mov	r1, r5
1092:/home/tienluong/workspace/atlantis_fw/AsicFwS2/include/matrix.h ****         tmp[7] = mat[11] * mat[12];
 5609              		.loc 2 1092 0
 5610 0062 0690     		str	r0, [sp, #24]	@ float
 5611              	.LVL804:
1093:/home/tienluong/workspace/atlantis_fw/AsicFwS2/include/matrix.h ****         tmp[8] = mat[8] * mat[14];
 5612              		.loc 2 1093 0
 5613 0064 1046     		mov	r0, r2
 5614              	.LVL805:
 5615 0066 A047     		blx	r4
 5616              	.LVL806:
1094:/home/tienluong/workspace/atlantis_fw/AsicFwS2/include/matrix.h ****         tmp[9] = mat[10] * mat[12];
 5617              		.loc 2 1094 0
 5618 0068 5946     		mov	r1, fp
1093:/home/tienluong/workspace/atlantis_fw/AsicFwS2/include/matrix.h ****         tmp[8] = mat[8] * mat[14];
 5619              		.loc 2 1093 0
 5620 006a 0790     		str	r0, [sp, #28]	@ float
 5621              	.LVL807:
1094:/home/tienluong/workspace/atlantis_fw/AsicFwS2/include/matrix.h ****         tmp[9] = mat[10] * mat[12];
 5622              		.loc 2 1094 0
 5623 006c 4846     		mov	r0, r9
 5624              	.LVL808:
 5625 006e A047     		blx	r4
 5626              	.LVL809:
1095:/home/tienluong/workspace/atlantis_fw/AsicFwS2/include/matrix.h ****         tmp[10] = mat[8] * mat[13];
 5627              		.loc 2 1095 0
 5628 0070 2946     		mov	r1, r5
1094:/home/tienluong/workspace/atlantis_fw/AsicFwS2/include/matrix.h ****         tmp[9] = mat[10] * mat[12];
 5629              		.loc 2 1094 0
 5630 0072 0890     		str	r0, [sp, #32]	@ float
1095:/home/tienluong/workspace/atlantis_fw/AsicFwS2/include/matrix.h ****         tmp[10] = mat[8] * mat[13];
 5631              		.loc 2 1095 0
 5632 0074 5046     		mov	r0, r10
 5633 0076 A047     		blx	r4
 5634              	.LVL810:
1096:/home/tienluong/workspace/atlantis_fw/AsicFwS2/include/matrix.h ****         tmp[11] = mat[9] * mat[12];
 5635              		.loc 2 1096 0
 5636 0078 4146     		mov	r1, r8
1095:/home/tienluong/workspace/atlantis_fw/AsicFwS2/include/matrix.h ****         tmp[10] = mat[8] * mat[13];
 5637              		.loc 2 1095 0
 5638 007a 0990     		str	r0, [sp, #36]	@ float
1096:/home/tienluong/workspace/atlantis_fw/AsicFwS2/include/matrix.h ****         tmp[11] = mat[9] * mat[12];
 5639              		.loc 2 1096 0
 5640 007c 4846     		mov	r0, r9
 5641 007e A047     		blx	r4
 5642              	.LVL811:
1097:/home/tienluong/workspace/atlantis_fw/AsicFwS2/include/matrix.h **** 
 5643              		.loc 2 1097 0
 5644 0080 2946     		mov	r1, r5
1100:/home/tienluong/workspace/atlantis_fw/AsicFwS2/include/matrix.h ****         dst[0] -= tmp[1] * mat[5] + tmp[2] * mat[6] + tmp[5]  * mat[7];
 5645              		.loc 2 1100 0
 5646 0082 664D     		ldr	r5, .L138+4
1096:/home/tienluong/workspace/atlantis_fw/AsicFwS2/include/matrix.h ****         tmp[11] = mat[9] * mat[12];
 5647              		.loc 2 1096 0
 5648 0084 0A90     		str	r0, [sp, #40]	@ float
1097:/home/tienluong/workspace/atlantis_fw/AsicFwS2/include/matrix.h **** 
 5649              		.loc 2 1097 0
 5650 0086 3846     		mov	r0, r7
 5651 0088 A047     		blx	r4
 5652              	.LVL812:
1100:/home/tienluong/workspace/atlantis_fw/AsicFwS2/include/matrix.h ****         dst[0] -= tmp[1] * mat[5] + tmp[2] * mat[6] + tmp[5]  * mat[7];
 5653              		.loc 2 1100 0
 5654 008a D6F81480 		ldr	r8, [r6, #20]	@ float
 5655 008e 4146     		mov	r1, r8
 5656 0090 B769     		ldr	r7, [r6, #24]	@ float
 5657 0092 D6F81CA0 		ldr	r10, [r6, #28]	@ float
1102:/home/tienluong/workspace/atlantis_fw/AsicFwS2/include/matrix.h ****         dst[1] -= tmp[0] * mat[4] + tmp[7] * mat[6] + tmp[8]  * mat[7];
 5658              		.loc 2 1102 0
 5659 0096 D6F81090 		ldr	r9, [r6, #16]	@ float
1097:/home/tienluong/workspace/atlantis_fw/AsicFwS2/include/matrix.h **** 
 5660              		.loc 2 1097 0
 5661 009a 0B90     		str	r0, [sp, #44]	@ float
 5662              	.LVL813:
1100:/home/tienluong/workspace/atlantis_fw/AsicFwS2/include/matrix.h ****         dst[0] -= tmp[1] * mat[5] + tmp[2] * mat[6] + tmp[5]  * mat[7];
 5663              		.loc 2 1100 0
 5664 009c 0098     		ldr	r0, [sp]	@ float
 5665              	.LVL814:
 5666 009e A047     		blx	r4
 5667              	.LVL815:
 5668 00a0 3946     		mov	r1, r7
 5669 00a2 0C90     		str	r0, [sp, #48]
 5670 00a4 0398     		ldr	r0, [sp, #12]	@ float
 5671 00a6 A047     		blx	r4
 5672              	.LVL816:
 5673 00a8 0C9B     		ldr	r3, [sp, #48]
 5674 00aa 0146     		mov	r1, r0
 5675 00ac 1846     		mov	r0, r3
 5676 00ae A847     		blx	r5
 5677              	.LVL817:
 5678 00b0 5146     		mov	r1, r10
 5679 00b2 0C90     		str	r0, [sp, #48]
 5680 00b4 0498     		ldr	r0, [sp, #16]	@ float
 5681 00b6 A047     		blx	r4
 5682              	.LVL818:
 5683 00b8 0C9B     		ldr	r3, [sp, #48]
 5684 00ba 0146     		mov	r1, r0
 5685 00bc 1846     		mov	r0, r3
 5686 00be A847     		blx	r5
 5687              	.LVL819:
1101:/home/tienluong/workspace/atlantis_fw/AsicFwS2/include/matrix.h ****         dst[1]  = tmp[1] * mat[4] + tmp[6] * mat[6] + tmp[9]  * mat[7];
 5688              		.loc 2 1101 0
 5689 00c0 4146     		mov	r1, r8
1100:/home/tienluong/workspace/atlantis_fw/AsicFwS2/include/matrix.h ****         dst[0] -= tmp[1] * mat[5] + tmp[2] * mat[6] + tmp[5]  * mat[7];
 5690              		.loc 2 1100 0
 5691 00c2 0D90     		str	r0, [sp, #52]
1101:/home/tienluong/workspace/atlantis_fw/AsicFwS2/include/matrix.h ****         dst[1]  = tmp[1] * mat[4] + tmp[6] * mat[6] + tmp[9]  * mat[7];
 5692              		.loc 2 1101 0
 5693 00c4 0198     		ldr	r0, [sp, #4]	@ float
 5694 00c6 A047     		blx	r4
 5695              	.LVL820:
 5696 00c8 3946     		mov	r1, r7
 5697 00ca 0C90     		str	r0, [sp, #48]
 5698 00cc 0298     		ldr	r0, [sp, #8]	@ float
 5699 00ce A047     		blx	r4
 5700              	.LVL821:
 5701 00d0 0C9A     		ldr	r2, [sp, #48]
 5702 00d2 0146     		mov	r1, r0
 5703 00d4 1046     		mov	r0, r2
 5704 00d6 A847     		blx	r5
 5705              	.LVL822:
 5706 00d8 5146     		mov	r1, r10
 5707 00da 0C90     		str	r0, [sp, #48]
 5708 00dc 0598     		ldr	r0, [sp, #20]	@ float
 5709 00de A047     		blx	r4
 5710              	.LVL823:
 5711 00e0 0C9A     		ldr	r2, [sp, #48]
 5712 00e2 0146     		mov	r1, r0
 5713 00e4 1046     		mov	r0, r2
 5714 00e6 A847     		blx	r5
 5715              	.LVL824:
 5716 00e8 0D9B     		ldr	r3, [sp, #52]
 5717 00ea 0146     		mov	r1, r0
 5718 00ec 1846     		mov	r0, r3
 5719 00ee 4C4B     		ldr	r3, .L138+8
 5720 00f0 9847     		blx	r3
 5721              	.LVL825:
1110:/home/tienluong/workspace/atlantis_fw/AsicFwS2/include/matrix.h ****     }
 5722              		.loc 2 1110 0
 5723 00f2 3168     		ldr	r1, [r6]	@ float
 5724 00f4 A047     		blx	r4
 5725              	.LVL826:
1102:/home/tienluong/workspace/atlantis_fw/AsicFwS2/include/matrix.h ****         dst[1] -= tmp[0] * mat[4] + tmp[7] * mat[6] + tmp[8]  * mat[7];
 5726              		.loc 2 1102 0
 5727 00f6 4946     		mov	r1, r9
1110:/home/tienluong/workspace/atlantis_fw/AsicFwS2/include/matrix.h ****     }
 5728              		.loc 2 1110 0
 5729 00f8 0C90     		str	r0, [sp, #48]
1102:/home/tienluong/workspace/atlantis_fw/AsicFwS2/include/matrix.h ****         dst[1] -= tmp[0] * mat[4] + tmp[7] * mat[6] + tmp[8]  * mat[7];
 5730              		.loc 2 1102 0
 5731 00fa 0198     		ldr	r0, [sp, #4]	@ float
 5732 00fc A047     		blx	r4
 5733              	.LVL827:
 5734 00fe 3946     		mov	r1, r7
 5735 0100 8346     		mov	fp, r0
 5736 0102 0698     		ldr	r0, [sp, #24]	@ float
 5737 0104 A047     		blx	r4
 5738              	.LVL828:
 5739 0106 0146     		mov	r1, r0
 5740 0108 5846     		mov	r0, fp
 5741 010a A847     		blx	r5
 5742              	.LVL829:
 5743 010c 5146     		mov	r1, r10
 5744 010e 8346     		mov	fp, r0
 5745 0110 0998     		ldr	r0, [sp, #36]	@ float
 5746 0112 A047     		blx	r4
 5747              	.LVL830:
 5748 0114 0146     		mov	r1, r0
 5749 0116 5846     		mov	r0, fp
 5750 0118 A847     		blx	r5
 5751              	.LVL831:
1103:/home/tienluong/workspace/atlantis_fw/AsicFwS2/include/matrix.h ****         dst[2]  = tmp[2] * mat[4] + tmp[7] * mat[5] + tmp[10] * mat[7];
 5752              		.loc 2 1103 0
 5753 011a 4946     		mov	r1, r9
1102:/home/tienluong/workspace/atlantis_fw/AsicFwS2/include/matrix.h ****         dst[1] -= tmp[0] * mat[4] + tmp[7] * mat[6] + tmp[8]  * mat[7];
 5754              		.loc 2 1102 0
 5755 011c 8346     		mov	fp, r0
1103:/home/tienluong/workspace/atlantis_fw/AsicFwS2/include/matrix.h ****         dst[2]  = tmp[2] * mat[4] + tmp[7] * mat[5] + tmp[10] * mat[7];
 5756              		.loc 2 1103 0
 5757 011e 0098     		ldr	r0, [sp]	@ float
 5758 0120 A047     		blx	r4
 5759              	.LVL832:
 5760 0122 3946     		mov	r1, r7
 5761 0124 0090     		str	r0, [sp]
 5762              	.LVL833:
 5763 0126 0798     		ldr	r0, [sp, #28]	@ float
 5764 0128 A047     		blx	r4
 5765              	.LVL834:
 5766 012a 009A     		ldr	r2, [sp]
 5767 012c 0146     		mov	r1, r0
 5768 012e 1046     		mov	r0, r2
 5769 0130 A847     		blx	r5
 5770              	.LVL835:
 5771 0132 5146     		mov	r1, r10
 5772 0134 0090     		str	r0, [sp]
 5773 0136 0898     		ldr	r0, [sp, #32]	@ float
 5774 0138 A047     		blx	r4
 5775              	.LVL836:
 5776 013a 009A     		ldr	r2, [sp]
 5777 013c 0146     		mov	r1, r0
 5778 013e 1046     		mov	r0, r2
 5779 0140 A847     		blx	r5
 5780              	.LVL837:
 5781 0142 374B     		ldr	r3, .L138+8
 5782 0144 0146     		mov	r1, r0
 5783 0146 5846     		mov	r0, fp
 5784 0148 9847     		blx	r3
 5785              	.LVL838:
1110:/home/tienluong/workspace/atlantis_fw/AsicFwS2/include/matrix.h ****     }
 5786              		.loc 2 1110 0
 5787 014a 7168     		ldr	r1, [r6, #4]	@ float
 5788 014c A047     		blx	r4
 5789              	.LVL839:
 5790 014e 0C9B     		ldr	r3, [sp, #48]
 5791 0150 0146     		mov	r1, r0
 5792 0152 1846     		mov	r0, r3
 5793 0154 A847     		blx	r5
 5794              	.LVL840:
1104:/home/tienluong/workspace/atlantis_fw/AsicFwS2/include/matrix.h ****         dst[2] -= tmp[3] * mat[4] + tmp[6] * mat[5] + tmp[11] * mat[7];
 5795              		.loc 2 1104 0
 5796 0156 4946     		mov	r1, r9
1110:/home/tienluong/workspace/atlantis_fw/AsicFwS2/include/matrix.h ****     }
 5797              		.loc 2 1110 0
 5798 0158 8346     		mov	fp, r0
1104:/home/tienluong/workspace/atlantis_fw/AsicFwS2/include/matrix.h ****         dst[2] -= tmp[3] * mat[4] + tmp[6] * mat[5] + tmp[11] * mat[7];
 5799              		.loc 2 1104 0
 5800 015a 0298     		ldr	r0, [sp, #8]	@ float
 5801 015c A047     		blx	r4
 5802              	.LVL841:
 5803 015e 4146     		mov	r1, r8
 5804 0160 0090     		str	r0, [sp]
 5805 0162 0798     		ldr	r0, [sp, #28]	@ float
 5806 0164 A047     		blx	r4
 5807              	.LVL842:
 5808 0166 009B     		ldr	r3, [sp]
 5809 0168 0146     		mov	r1, r0
 5810 016a 1846     		mov	r0, r3
 5811 016c A847     		blx	r5
 5812              	.LVL843:
 5813 016e 5146     		mov	r1, r10
 5814 0170 0090     		str	r0, [sp]
 5815 0172 0A98     		ldr	r0, [sp, #40]	@ float
 5816 0174 A047     		blx	r4
 5817              	.LVL844:
 5818 0176 009B     		ldr	r3, [sp]
 5819 0178 0146     		mov	r1, r0
 5820 017a 1846     		mov	r0, r3
 5821 017c A847     		blx	r5
 5822              	.LVL845:
1105:/home/tienluong/workspace/atlantis_fw/AsicFwS2/include/matrix.h ****         dst[3]  = tmp[5] * mat[4] + tmp[8] * mat[5] + tmp[11] * mat[6];
 5823              		.loc 2 1105 0
 5824 017e 4946     		mov	r1, r9
1104:/home/tienluong/workspace/atlantis_fw/AsicFwS2/include/matrix.h ****         dst[2] -= tmp[3] * mat[4] + tmp[6] * mat[5] + tmp[11] * mat[7];
 5825              		.loc 2 1104 0
 5826 0180 0190     		str	r0, [sp, #4]
 5827              	.LVL846:
1105:/home/tienluong/workspace/atlantis_fw/AsicFwS2/include/matrix.h ****         dst[3]  = tmp[5] * mat[4] + tmp[8] * mat[5] + tmp[11] * mat[6];
 5828              		.loc 2 1105 0
 5829 0182 0398     		ldr	r0, [sp, #12]	@ float
 5830 0184 A047     		blx	r4
 5831              	.LVL847:
 5832 0186 4146     		mov	r1, r8
 5833 0188 0090     		str	r0, [sp]
 5834 018a 0698     		ldr	r0, [sp, #24]	@ float
 5835 018c A047     		blx	r4
 5836              	.LVL848:
 5837 018e 009A     		ldr	r2, [sp]
 5838 0190 0146     		mov	r1, r0
 5839 0192 1046     		mov	r0, r2
 5840 0194 A847     		blx	r5
 5841              	.LVL849:
 5842 0196 5146     		mov	r1, r10
 5843 0198 0090     		str	r0, [sp]
 5844 019a 0B98     		ldr	r0, [sp, #44]	@ float
 5845 019c A047     		blx	r4
 5846              	.LVL850:
 5847 019e 009A     		ldr	r2, [sp]
 5848 01a0 0146     		mov	r1, r0
 5849 01a2 1046     		mov	r0, r2
 5850 01a4 A847     		blx	r5
 5851              	.LVL851:
 5852 01a6 019B     		ldr	r3, [sp, #4]
 5853 01a8 0146     		mov	r1, r0
 5854 01aa 1846     		mov	r0, r3
 5855 01ac 1C4B     		ldr	r3, .L138+8
 5856 01ae 9847     		blx	r3
 5857              	.LVL852:
1110:/home/tienluong/workspace/atlantis_fw/AsicFwS2/include/matrix.h ****     }
 5858              		.loc 2 1110 0
 5859 01b0 B168     		ldr	r1, [r6, #8]	@ float
 5860 01b2 A047     		blx	r4
 5861              	.LVL853:
 5862 01b4 0146     		mov	r1, r0
 5863 01b6 5846     		mov	r0, fp
 5864 01b8 A847     		blx	r5
 5865              	.LVL854:
1106:/home/tienluong/workspace/atlantis_fw/AsicFwS2/include/matrix.h ****         dst[3] -= tmp[4] * mat[4] + tmp[9] * mat[5] + tmp[10] * mat[6];
 5866              		.loc 2 1106 0
 5867 01ba 4946     		mov	r1, r9
1110:/home/tienluong/workspace/atlantis_fw/AsicFwS2/include/matrix.h ****     }
 5868              		.loc 2 1110 0
 5869 01bc 8246     		mov	r10, r0
 5870              	.LVL855:
1106:/home/tienluong/workspace/atlantis_fw/AsicFwS2/include/matrix.h ****         dst[3] -= tmp[4] * mat[4] + tmp[9] * mat[5] + tmp[10] * mat[6];
 5871              		.loc 2 1106 0
 5872 01be 0598     		ldr	r0, [sp, #20]	@ float
 5873 01c0 A047     		blx	r4
 5874              	.LVL856:
 5875 01c2 4146     		mov	r1, r8
 5876 01c4 8346     		mov	fp, r0
 5877 01c6 0898     		ldr	r0, [sp, #32]	@ float
 5878 01c8 A047     		blx	r4
 5879              	.LVL857:
 5880 01ca 0146     		mov	r1, r0
 5881 01cc 5846     		mov	r0, fp
 5882 01ce A847     		blx	r5
 5883              	.LVL858:
 5884 01d0 3946     		mov	r1, r7
 5885 01d2 8346     		mov	fp, r0
 5886 01d4 0B98     		ldr	r0, [sp, #44]	@ float
 5887 01d6 A047     		blx	r4
 5888              	.LVL859:
 5889 01d8 0146     		mov	r1, r0
 5890 01da 5846     		mov	r0, fp
 5891 01dc A847     		blx	r5
 5892              	.LVL860:
1107:/home/tienluong/workspace/atlantis_fw/AsicFwS2/include/matrix.h **** 
 5893              		.loc 2 1107 0
 5894 01de 4946     		mov	r1, r9
1106:/home/tienluong/workspace/atlantis_fw/AsicFwS2/include/matrix.h ****         dst[3] -= tmp[4] * mat[4] + tmp[9] * mat[5] + tmp[10] * mat[6];
 5895              		.loc 2 1106 0
 5896 01e0 8346     		mov	fp, r0
1107:/home/tienluong/workspace/atlantis_fw/AsicFwS2/include/matrix.h **** 
 5897              		.loc 2 1107 0
 5898 01e2 0498     		ldr	r0, [sp, #16]	@ float
 5899 01e4 A047     		blx	r4
 5900              	.LVL861:
 5901 01e6 4146     		mov	r1, r8
 5902 01e8 8146     		mov	r9, r0
 5903              	.LVL862:
 5904 01ea 0998     		ldr	r0, [sp, #36]	@ float
 5905 01ec A047     		blx	r4
 5906              	.LVL863:
 5907 01ee 0146     		mov	r1, r0
 5908 01f0 4846     		mov	r0, r9
 5909 01f2 A847     		blx	r5
 5910              	.LVL864:
 5911 01f4 3946     		mov	r1, r7
 5912 01f6 8046     		mov	r8, r0
 5913 01f8 0A98     		ldr	r0, [sp, #40]	@ float
 5914 01fa A047     		blx	r4
 5915              	.LVL865:
 5916 01fc 0146     		mov	r1, r0
 5917 01fe 4046     		mov	r0, r8
 5918 0200 A847     		blx	r5
 5919              	.LVL866:
 5920 0202 074B     		ldr	r3, .L138+8
 5921 0204 0146     		mov	r1, r0
 5922 0206 5846     		mov	r0, fp
 5923 0208 9847     		blx	r3
 5924              	.LVL867:
1110:/home/tienluong/workspace/atlantis_fw/AsicFwS2/include/matrix.h ****     }
 5925              		.loc 2 1110 0
 5926 020a F168     		ldr	r1, [r6, #12]	@ float
 5927 020c A047     		blx	r4
 5928              	.LVL868:
 5929 020e 0146     		mov	r1, r0
 5930 0210 5046     		mov	r0, r10
 5931 0212 A847     		blx	r5
 5932              	.LVL869:
 5933              	.LBE349:
1111:/home/tienluong/workspace/atlantis_fw/AsicFwS2/include/matrix.h **** };
 5934              		.loc 2 1111 0
 5935 0214 0FB0     		add	sp, sp, #60
 5936              	.LCFI61:
 5937              		.cfi_def_cfa_offset 36
 5938              		@ sp needed
 5939 0216 05E0     		b	.L139
 5940              	.L140:
 5941              		.align	2
 5942              	.L138:
 5943 0218 00000000 		.word	__aeabi_fmul
 5944 021c 00000000 		.word	__aeabi_fadd
 5945 0220 00000000 		.word	__aeabi_fsub
 5946              	.L139:
 5947 0224 BDE8F08F 		pop	{r4, r5, r6, r7, r8, r9, r10, fp, pc}
 5948              		.cfi_endproc
 5949              	.LFE3698:
 5951              		.section	.text._ZN4ltaf11determinantIfLi4ELb1EEET_RKNS_6MatrixIS1_XT0_EXT0_EXT1_EEE,"axG",%progbit
 5952              		.align	1
 5953              		.weak	_ZN4ltaf11determinantIfLi4ELb1EEET_RKNS_6MatrixIS1_XT0_EXT0_EXT1_EEE
 5954              		.thumb
 5955              		.thumb_func
 5957              	_ZN4ltaf11determinantIfLi4ELb1EEET_RKNS_6MatrixIS1_XT0_EXT0_EXT1_EEE:
 5958              	.LFB3557:
1256:/home/tienluong/workspace/atlantis_fw/AsicFwS2/include/matrix.h **** {
 5959              		.loc 2 1256 0
 5960              		.cfi_startproc
 5961              		@ args = 0, pretend = 0, frame = 8
 5962              		@ frame_needed = 0, uses_anonymous_args = 0
 5963              	.LVL870:
 5964 0000 07B5     		push	{r0, r1, r2, lr}
 5965              	.LCFI62:
 5966              		.cfi_def_cfa_offset 16
 5967              		.cfi_offset 14, -4
 5968              	.LBB350:
1259:/home/tienluong/workspace/atlantis_fw/AsicFwS2/include/matrix.h **** }
 5969              		.loc 2 1259 0
 5970 0002 034B     		ldr	r3, .L142
 5971              	.LBE350:
1256:/home/tienluong/workspace/atlantis_fw/AsicFwS2/include/matrix.h **** {
 5972              		.loc 2 1256 0
 5973 0004 0146     		mov	r1, r0
 5974              	.LVL871:
 5975              	.LBB351:
1259:/home/tienluong/workspace/atlantis_fw/AsicFwS2/include/matrix.h **** }
 5976              		.loc 2 1259 0
 5977 0006 01A8     		add	r0, sp, #4
 5978              	.LVL872:
 5979 0008 9847     		blx	r3
 5980              	.LVL873:
 5981              	.LBE351:
 5982              		.loc 2 1260 0
 5983 000a 03B0     		add	sp, sp, #12
 5984              	.LCFI63:
 5985              		.cfi_def_cfa_offset 4
 5986              		@ sp needed
 5987 000c 5DF804FB 		ldr	pc, [sp], #4
 5988              	.L143:
 5989              		.align	2
 5990              	.L142:
 5991 0010 00000000 		.word	_ZNK4ltaf17MatrixDeterminantIfLi4EEclEPKf
 5992              		.cfi_endproc
 5993              	.LFE3557:
 5995              		.section	.text._ZN4ltaf11determinantIfLi4ELb0EEET_RKNS_6MatrixIS1_XT0_EXT0_EXT1_EEE,"axG",%progbit
 5996              		.align	1
 5997              		.weak	_ZN4ltaf11determinantIfLi4ELb0EEET_RKNS_6MatrixIS1_XT0_EXT0_EXT1_EEE
 5998              		.thumb
 5999              		.thumb_func
 6001              	_ZN4ltaf11determinantIfLi4ELb0EEET_RKNS_6MatrixIS1_XT0_EXT0_EXT1_EEE:
 6002              	.LFB3560:
1256:/home/tienluong/workspace/atlantis_fw/AsicFwS2/include/matrix.h **** {
 6003              		.loc 2 1256 0
 6004              		.cfi_startproc
 6005              		@ args = 0, pretend = 0, frame = 8
 6006              		@ frame_needed = 0, uses_anonymous_args = 0
 6007              	.LVL874:
 6008 0000 07B5     		push	{r0, r1, r2, lr}
 6009              	.LCFI64:
 6010              		.cfi_def_cfa_offset 16
 6011              		.cfi_offset 14, -4
 6012              	.LBB352:
1259:/home/tienluong/workspace/atlantis_fw/AsicFwS2/include/matrix.h **** }
 6013              		.loc 2 1259 0
 6014 0002 034B     		ldr	r3, .L145
 6015              	.LBE352:
1256:/home/tienluong/workspace/atlantis_fw/AsicFwS2/include/matrix.h **** {
 6016              		.loc 2 1256 0
 6017 0004 0146     		mov	r1, r0
 6018              	.LVL875:
 6019              	.LBB353:
1259:/home/tienluong/workspace/atlantis_fw/AsicFwS2/include/matrix.h **** }
 6020              		.loc 2 1259 0
 6021 0006 01A8     		add	r0, sp, #4
 6022              	.LVL876:
 6023 0008 9847     		blx	r3
 6024              	.LVL877:
 6025              	.LBE353:
 6026              		.loc 2 1260 0
 6027 000a 03B0     		add	sp, sp, #12
 6028              	.LCFI65:
 6029              		.cfi_def_cfa_offset 4
 6030              		@ sp needed
 6031 000c 5DF804FB 		ldr	pc, [sp], #4
 6032              	.L146:
 6033              		.align	2
 6034              	.L145:
 6035 0010 00000000 		.word	_ZNK4ltaf17MatrixDeterminantIfLi4EEclEPKf
 6036              		.cfi_endproc
 6037              	.LFE3560:
 6039              		.section	.text._ZNK4ltaf17MatrixDeterminantIdLi3EEclEPKd,"axG",%progbits,_ZNK4ltaf17MatrixDetermin
 6040              		.align	1
 6041              		.weak	_ZNK4ltaf17MatrixDeterminantIdLi3EEclEPKd
 6042              		.thumb
 6043              		.thumb_func
 6045              	_ZNK4ltaf17MatrixDeterminantIdLi3EEclEPKd:
 6046              	.LFB3705:
1069:/home/tienluong/workspace/atlantis_fw/AsicFwS2/include/matrix.h ****     {
 6047              		.loc 2 1069 0
 6048              		.cfi_startproc
 6049              		@ args = 0, pretend = 0, frame = 48
 6050              		@ frame_needed = 0, uses_anonymous_args = 0
 6051              	.LVL878:
 6052 0000 2DE9F047 		push	{r4, r5, r6, r7, r8, r9, r10, lr}
 6053              	.LCFI66:
 6054              		.cfi_def_cfa_offset 32
 6055              		.cfi_offset 4, -32
 6056              		.cfi_offset 5, -28
 6057              		.cfi_offset 6, -24
 6058              		.cfi_offset 7, -20
 6059              		.cfi_offset 8, -16
 6060              		.cfi_offset 9, -12
 6061              		.cfi_offset 10, -8
 6062              		.cfi_offset 14, -4
 6063 0004 8CB0     		sub	sp, sp, #48
 6064              	.LCFI67:
 6065              		.cfi_def_cfa_offset 80
1073:/home/tienluong/workspace/atlantis_fw/AsicFwS2/include/matrix.h ****     }
 6066              		.loc 2 1073 0
 6067 0006 D1E90823 		ldrd	r2, [r1, #32]
1069:/home/tienluong/workspace/atlantis_fw/AsicFwS2/include/matrix.h ****     {
 6068              		.loc 2 1069 0
 6069 000a 0D46     		mov	r5, r1
1073:/home/tienluong/workspace/atlantis_fw/AsicFwS2/include/matrix.h ****     }
 6070              		.loc 2 1073 0
 6071 000c CDE90023 		strd	r2, [sp]
 6072 0010 D1E90E23 		ldrd	r2, [r1, #56]
 6073 0014 CDE90223 		strd	r2, [sp, #8]
 6074 0018 D1E90A23 		ldrd	r2, [r1, #40]
 6075 001c CDE90423 		strd	r2, [sp, #16]
 6076 0020 D1E90623 		ldrd	r2, [r1, #24]
 6077 0024 D1E91089 		ldrd	r8, [r1, #64]
 6078 0028 CDE90623 		strd	r2, [sp, #24]
 6079 002c D1E90C23 		ldrd	r2, [r1, #48]
 6080 0030 294C     		ldr	r4, .L148
 6081 0032 CDE90823 		strd	r2, [sp, #32]
 6082 0036 4246     		mov	r2, r8
 6083 0038 DDE90001 		ldrd	r0, [sp]
 6084              	.LVL879:
 6085 003c 4B46     		mov	r3, r9
 6086 003e A047     		blx	r4
 6087              	.LVL880:
 6088 0040 DDE90423 		ldrd	r2, [sp, #16]
 6089 0044 DFF898A0 		ldr	r10, .L148+8
 6090 0048 0646     		mov	r6, r0
 6091 004a 0F46     		mov	r7, r1
 6092 004c DDE90201 		ldrd	r0, [sp, #8]
 6093 0050 A047     		blx	r4
 6094              	.LVL881:
 6095 0052 0246     		mov	r2, r0
 6096 0054 0B46     		mov	r3, r1
 6097 0056 3046     		mov	r0, r6
 6098 0058 3946     		mov	r1, r7
 6099 005a D047     		blx	r10
 6100              	.LVL882:
 6101 005c D5E90023 		ldrd	r2, [r5]
 6102 0060 A047     		blx	r4
 6103              	.LVL883:
 6104 0062 4246     		mov	r2, r8
 6105 0064 4B46     		mov	r3, r9
 6106 0066 CDE90A01 		strd	r0, [sp, #40]
 6107 006a DDE90601 		ldrd	r0, [sp, #24]
 6108 006e A047     		blx	r4
 6109              	.LVL884:
 6110 0070 DDE90823 		ldrd	r2, [sp, #32]
 6111 0074 0646     		mov	r6, r0
 6112 0076 0F46     		mov	r7, r1
 6113 0078 DDE90401 		ldrd	r0, [sp, #16]
 6114 007c A047     		blx	r4
 6115              	.LVL885:
 6116 007e 0246     		mov	r2, r0
 6117 0080 0B46     		mov	r3, r1
 6118 0082 3046     		mov	r0, r6
 6119 0084 3946     		mov	r1, r7
 6120 0086 D047     		blx	r10
 6121              	.LVL886:
 6122 0088 D5E90223 		ldrd	r2, [r5, #8]
 6123 008c A047     		blx	r4
 6124              	.LVL887:
 6125 008e 0246     		mov	r2, r0
 6126 0090 0B46     		mov	r3, r1
 6127 0092 DDE90A01 		ldrd	r0, [sp, #40]
 6128 0096 D047     		blx	r10
 6129              	.LVL888:
 6130 0098 DDE90223 		ldrd	r2, [sp, #8]
 6131 009c 0646     		mov	r6, r0
 6132 009e 0F46     		mov	r7, r1
 6133 00a0 DDE90601 		ldrd	r0, [sp, #24]
 6134 00a4 A047     		blx	r4
 6135              	.LVL889:
 6136 00a6 DDE90823 		ldrd	r2, [sp, #32]
 6137 00aa 8046     		mov	r8, r0
 6138 00ac 8946     		mov	r9, r1
 6139 00ae DDE90001 		ldrd	r0, [sp]
 6140 00b2 A047     		blx	r4
 6141              	.LVL890:
 6142 00b4 0246     		mov	r2, r0
 6143 00b6 0B46     		mov	r3, r1
 6144 00b8 4046     		mov	r0, r8
 6145 00ba 4946     		mov	r1, r9
 6146 00bc D047     		blx	r10
 6147              	.LVL891:
 6148 00be D5E90423 		ldrd	r2, [r5, #16]
 6149 00c2 A047     		blx	r4
 6150              	.LVL892:
 6151 00c4 054C     		ldr	r4, .L148+4
 6152 00c6 0246     		mov	r2, r0
 6153 00c8 0B46     		mov	r3, r1
 6154 00ca 3046     		mov	r0, r6
 6155 00cc 3946     		mov	r1, r7
 6156 00ce A047     		blx	r4
 6157              	.LVL893:
1074:/home/tienluong/workspace/atlantis_fw/AsicFwS2/include/matrix.h **** };
 6158              		.loc 2 1074 0
 6159 00d0 0CB0     		add	sp, sp, #48
 6160              	.LCFI68:
 6161              		.cfi_def_cfa_offset 32
 6162              		@ sp needed
 6163 00d2 BDE8F087 		pop	{r4, r5, r6, r7, r8, r9, r10, pc}
 6164              	.LVL894:
 6165              	.L149:
 6166 00d6 00BF     		.align	2
 6167              	.L148:
 6168 00d8 00000000 		.word	__aeabi_dmul
 6169 00dc 00000000 		.word	__aeabi_dadd
 6170 00e0 00000000 		.word	__aeabi_dsub
 6171              		.cfi_endproc
 6172              	.LFE3705:
 6174              		.section	.text._ZN4ltaf11determinantIdLi3ELb1EEET_RKNS_6MatrixIS1_XT0_EXT0_EXT1_EEE,"axG",%progbit
 6175              		.align	1
 6176              		.weak	_ZN4ltaf11determinantIdLi3ELb1EEET_RKNS_6MatrixIS1_XT0_EXT0_EXT1_EEE
 6177              		.thumb
 6178              		.thumb_func
 6180              	_ZN4ltaf11determinantIdLi3ELb1EEET_RKNS_6MatrixIS1_XT0_EXT0_EXT1_EEE:
 6181              	.LFB3562:
1256:/home/tienluong/workspace/atlantis_fw/AsicFwS2/include/matrix.h **** {
 6182              		.loc 2 1256 0
 6183              		.cfi_startproc
 6184              		@ args = 0, pretend = 0, frame = 8
 6185              		@ frame_needed = 0, uses_anonymous_args = 0
 6186              	.LVL895:
 6187 0000 07B5     		push	{r0, r1, r2, lr}
 6188              	.LCFI69:
 6189              		.cfi_def_cfa_offset 16
 6190              		.cfi_offset 14, -4
 6191              	.LBB354:
1259:/home/tienluong/workspace/atlantis_fw/AsicFwS2/include/matrix.h **** }
 6192              		.loc 2 1259 0
 6193 0002 034B     		ldr	r3, .L151
 6194              	.LBE354:
1256:/home/tienluong/workspace/atlantis_fw/AsicFwS2/include/matrix.h **** {
 6195              		.loc 2 1256 0
 6196 0004 0146     		mov	r1, r0
 6197              	.LVL896:
 6198              	.LBB355:
1259:/home/tienluong/workspace/atlantis_fw/AsicFwS2/include/matrix.h **** }
 6199              		.loc 2 1259 0
 6200 0006 01A8     		add	r0, sp, #4
 6201              	.LVL897:
 6202 0008 9847     		blx	r3
 6203              	.LVL898:
 6204              	.LBE355:
 6205              		.loc 2 1260 0
 6206 000a 03B0     		add	sp, sp, #12
 6207              	.LCFI70:
 6208              		.cfi_def_cfa_offset 4
 6209              		@ sp needed
 6210 000c 5DF804FB 		ldr	pc, [sp], #4
 6211              	.L152:
 6212              		.align	2
 6213              	.L151:
 6214 0010 00000000 		.word	_ZNK4ltaf17MatrixDeterminantIdLi3EEclEPKd
 6215              		.cfi_endproc
 6216              	.LFE3562:
 6218              		.section	.text._ZN4ltaf11determinantIdLi3ELb0EEET_RKNS_6MatrixIS1_XT0_EXT0_EXT1_EEE,"axG",%progbit
 6219              		.align	1
 6220              		.weak	_ZN4ltaf11determinantIdLi3ELb0EEET_RKNS_6MatrixIS1_XT0_EXT0_EXT1_EEE
 6221              		.thumb
 6222              		.thumb_func
 6224              	_ZN4ltaf11determinantIdLi3ELb0EEET_RKNS_6MatrixIS1_XT0_EXT0_EXT1_EEE:
 6225              	.LFB3565:
1256:/home/tienluong/workspace/atlantis_fw/AsicFwS2/include/matrix.h **** {
 6226              		.loc 2 1256 0
 6227              		.cfi_startproc
 6228              		@ args = 0, pretend = 0, frame = 8
 6229              		@ frame_needed = 0, uses_anonymous_args = 0
 6230              	.LVL899:
 6231 0000 07B5     		push	{r0, r1, r2, lr}
 6232              	.LCFI71:
 6233              		.cfi_def_cfa_offset 16
 6234              		.cfi_offset 14, -4
 6235              	.LBB356:
1259:/home/tienluong/workspace/atlantis_fw/AsicFwS2/include/matrix.h **** }
 6236              		.loc 2 1259 0
 6237 0002 034B     		ldr	r3, .L154
 6238              	.LBE356:
1256:/home/tienluong/workspace/atlantis_fw/AsicFwS2/include/matrix.h **** {
 6239              		.loc 2 1256 0
 6240 0004 0146     		mov	r1, r0
 6241              	.LVL900:
 6242              	.LBB357:
1259:/home/tienluong/workspace/atlantis_fw/AsicFwS2/include/matrix.h **** }
 6243              		.loc 2 1259 0
 6244 0006 01A8     		add	r0, sp, #4
 6245              	.LVL901:
 6246 0008 9847     		blx	r3
 6247              	.LVL902:
 6248              	.LBE357:
 6249              		.loc 2 1260 0
 6250 000a 03B0     		add	sp, sp, #12
 6251              	.LCFI72:
 6252              		.cfi_def_cfa_offset 4
 6253              		@ sp needed
 6254 000c 5DF804FB 		ldr	pc, [sp], #4
 6255              	.L155:
 6256              		.align	2
 6257              	.L154:
 6258 0010 00000000 		.word	_ZNK4ltaf17MatrixDeterminantIdLi3EEclEPKd
 6259              		.cfi_endproc
 6260              	.LFE3565:
 6262              		.section	.text._ZNK4ltaf17MatrixDeterminantIdLi4EEclEPKd,"axG",%progbits,_ZNK4ltaf17MatrixDetermin
 6263              		.align	1
 6264              		.weak	_ZNK4ltaf17MatrixDeterminantIdLi4EEclEPKd
 6265              		.thumb
 6266              		.thumb_func
 6268              	_ZNK4ltaf17MatrixDeterminantIdLi4EEclEPKd:
 6269              	.LFB3707:
1080:/home/tienluong/workspace/atlantis_fw/AsicFwS2/include/matrix.h ****     {
 6270              		.loc 2 1080 0
 6271              		.cfi_startproc
 6272              		@ args = 0, pretend = 0, frame = 128
 6273              		@ frame_needed = 0, uses_anonymous_args = 0
 6274              	.LVL903:
 6275 0000 2DE9F04F 		push	{r4, r5, r6, r7, r8, r9, r10, fp, lr}
 6276              	.LCFI73:
 6277              		.cfi_def_cfa_offset 36
 6278              		.cfi_offset 4, -36
 6279              		.cfi_offset 5, -32
 6280              		.cfi_offset 6, -28
 6281              		.cfi_offset 7, -24
 6282              		.cfi_offset 8, -20
 6283              		.cfi_offset 9, -16
 6284              		.cfi_offset 10, -12
 6285              		.cfi_offset 11, -8
 6286              		.cfi_offset 14, -4
 6287 0004 A1B0     		sub	sp, sp, #132
 6288              	.LCFI74:
 6289              		.cfi_def_cfa_offset 168
 6290              	.LBB358:
1086:/home/tienluong/workspace/atlantis_fw/AsicFwS2/include/matrix.h ****         tmp[1] = mat[11] * mat[14];
 6291              		.loc 2 1086 0
 6292 0006 D1E91E67 		ldrd	r6, [r1, #120]
 6293              	.LBE358:
1080:/home/tienluong/workspace/atlantis_fw/AsicFwS2/include/matrix.h ****     {
 6294              		.loc 2 1080 0
 6295 000a 8A46     		mov	r10, r1
 6296              	.LBB359:
1086:/home/tienluong/workspace/atlantis_fw/AsicFwS2/include/matrix.h ****         tmp[1] = mat[11] * mat[14];
 6297              		.loc 2 1086 0
 6298 000c D1E91423 		ldrd	r2, [r1, #80]
 6299 0010 984C     		ldr	r4, .L157
 6300 0012 1046     		mov	r0, r2
 6301              	.LVL904:
 6302 0014 CDE90023 		strd	r2, [sp]
 6303 0018 1946     		mov	r1, r3
 6304              	.LVL905:
 6305 001a 3246     		mov	r2, r6
 6306 001c 3B46     		mov	r3, r7
 6307 001e A047     		blx	r4
 6308              	.LVL906:
1087:/home/tienluong/workspace/atlantis_fw/AsicFwS2/include/matrix.h ****         tmp[2] = mat[9] * mat[15];
 6309              		.loc 2 1087 0
 6310 0020 DAE91623 		ldrd	r2, [r10, #88]
 6311 0024 CDE90223 		strd	r2, [sp, #8]
 6312 0028 DAE91C23 		ldrd	r2, [r10, #112]
 6313 002c CDE90423 		strd	r2, [sp, #16]
1100:/home/tienluong/workspace/atlantis_fw/AsicFwS2/include/matrix.h ****         dst[0] -= tmp[1] * mat[5] + tmp[2] * mat[6] + tmp[5]  * mat[7];
 6314              		.loc 2 1100 0
 6315 0030 914D     		ldr	r5, .L157+4
1101:/home/tienluong/workspace/atlantis_fw/AsicFwS2/include/matrix.h ****         dst[1]  = tmp[1] * mat[4] + tmp[6] * mat[6] + tmp[9]  * mat[7];
 6316              		.loc 2 1101 0
 6317 0032 DFF848B2 		ldr	fp, .L157+8
1086:/home/tienluong/workspace/atlantis_fw/AsicFwS2/include/matrix.h ****         tmp[1] = mat[11] * mat[14];
 6318              		.loc 2 1086 0
 6319 0036 CDE90A01 		strd	r0, [sp, #40]
 6320              	.LVL907:
1087:/home/tienluong/workspace/atlantis_fw/AsicFwS2/include/matrix.h ****         tmp[2] = mat[9] * mat[15];
 6321              		.loc 2 1087 0
 6322 003a DDE90201 		ldrd	r0, [sp, #8]
 6323              	.LVL908:
 6324 003e A047     		blx	r4
 6325              	.LVL909:
1088:/home/tienluong/workspace/atlantis_fw/AsicFwS2/include/matrix.h ****         tmp[3] = mat[11] * mat[13];
 6326              		.loc 2 1088 0
 6327 0040 DAE91223 		ldrd	r2, [r10, #72]
 6328 0044 CDE90623 		strd	r2, [sp, #24]
1087:/home/tienluong/workspace/atlantis_fw/AsicFwS2/include/matrix.h ****         tmp[2] = mat[9] * mat[15];
 6329              		.loc 2 1087 0
 6330 0048 CDE90C01 		strd	r0, [sp, #48]
 6331              	.LVL910:
1088:/home/tienluong/workspace/atlantis_fw/AsicFwS2/include/matrix.h ****         tmp[3] = mat[11] * mat[13];
 6332              		.loc 2 1088 0
 6333 004c 1046     		mov	r0, r2
 6334              	.LVL911:
 6335 004e 1946     		mov	r1, r3
 6336 0050 3246     		mov	r2, r6
 6337 0052 3B46     		mov	r3, r7
 6338 0054 A047     		blx	r4
 6339              	.LVL912:
1089:/home/tienluong/workspace/atlantis_fw/AsicFwS2/include/matrix.h ****         tmp[4] = mat[9] * mat[14];
 6340              		.loc 2 1089 0
 6341 0056 DAE91A23 		ldrd	r2, [r10, #104]
 6342 005a CDE90823 		strd	r2, [sp, #32]
1088:/home/tienluong/workspace/atlantis_fw/AsicFwS2/include/matrix.h ****         tmp[3] = mat[11] * mat[13];
 6343              		.loc 2 1088 0
 6344 005e CDE90E01 		strd	r0, [sp, #56]
 6345              	.LVL913:
1089:/home/tienluong/workspace/atlantis_fw/AsicFwS2/include/matrix.h ****         tmp[4] = mat[9] * mat[14];
 6346              		.loc 2 1089 0
 6347 0062 DDE90201 		ldrd	r0, [sp, #8]
 6348              	.LVL914:
 6349 0066 A047     		blx	r4
 6350              	.LVL915:
1090:/home/tienluong/workspace/atlantis_fw/AsicFwS2/include/matrix.h ****         tmp[5] = mat[10] * mat[13];
 6351              		.loc 2 1090 0
 6352 0068 DDE90423 		ldrd	r2, [sp, #16]
1089:/home/tienluong/workspace/atlantis_fw/AsicFwS2/include/matrix.h ****         tmp[4] = mat[9] * mat[14];
 6353              		.loc 2 1089 0
 6354 006c CDE91001 		strd	r0, [sp, #64]
 6355              	.LVL916:
1090:/home/tienluong/workspace/atlantis_fw/AsicFwS2/include/matrix.h ****         tmp[5] = mat[10] * mat[13];
 6356              		.loc 2 1090 0
 6357 0070 DDE90601 		ldrd	r0, [sp, #24]
 6358              	.LVL917:
 6359 0074 A047     		blx	r4
 6360              	.LVL918:
1091:/home/tienluong/workspace/atlantis_fw/AsicFwS2/include/matrix.h ****         tmp[6] = mat[8] * mat[15];
 6361              		.loc 2 1091 0
 6362 0076 DDE90823 		ldrd	r2, [sp, #32]
1090:/home/tienluong/workspace/atlantis_fw/AsicFwS2/include/matrix.h ****         tmp[5] = mat[10] * mat[13];
 6363              		.loc 2 1090 0
 6364 007a CDE91201 		strd	r0, [sp, #72]
1091:/home/tienluong/workspace/atlantis_fw/AsicFwS2/include/matrix.h ****         tmp[6] = mat[8] * mat[15];
 6365              		.loc 2 1091 0
 6366 007e DDE90001 		ldrd	r0, [sp]
 6367 0082 A047     		blx	r4
 6368              	.LVL919:
1092:/home/tienluong/workspace/atlantis_fw/AsicFwS2/include/matrix.h ****         tmp[7] = mat[11] * mat[12];
 6369              		.loc 2 1092 0
 6370 0084 DAE91089 		ldrd	r8, [r10, #64]
 6371 0088 3246     		mov	r2, r6
 6372 008a 3B46     		mov	r3, r7
1091:/home/tienluong/workspace/atlantis_fw/AsicFwS2/include/matrix.h ****         tmp[6] = mat[8] * mat[15];
 6373              		.loc 2 1091 0
 6374 008c CDE91401 		strd	r0, [sp, #80]
1092:/home/tienluong/workspace/atlantis_fw/AsicFwS2/include/matrix.h ****         tmp[7] = mat[11] * mat[12];
 6375              		.loc 2 1092 0
 6376 0090 4046     		mov	r0, r8
 6377 0092 4946     		mov	r1, r9
 6378 0094 A047     		blx	r4
 6379              	.LVL920:
1093:/home/tienluong/workspace/atlantis_fw/AsicFwS2/include/matrix.h ****         tmp[8] = mat[8] * mat[14];
 6380              		.loc 2 1093 0
 6381 0096 DAE91867 		ldrd	r6, [r10, #96]
 6382 009a 3246     		mov	r2, r6
 6383 009c 3B46     		mov	r3, r7
1092:/home/tienluong/workspace/atlantis_fw/AsicFwS2/include/matrix.h ****         tmp[7] = mat[11] * mat[12];
 6384              		.loc 2 1092 0
 6385 009e CDE91601 		strd	r0, [sp, #88]
1093:/home/tienluong/workspace/atlantis_fw/AsicFwS2/include/matrix.h ****         tmp[8] = mat[8] * mat[14];
 6386              		.loc 2 1093 0
 6387 00a2 DDE90201 		ldrd	r0, [sp, #8]
 6388 00a6 A047     		blx	r4
 6389              	.LVL921:
1094:/home/tienluong/workspace/atlantis_fw/AsicFwS2/include/matrix.h ****         tmp[9] = mat[10] * mat[12];
 6390              		.loc 2 1094 0
 6391 00a8 DDE90423 		ldrd	r2, [sp, #16]
1093:/home/tienluong/workspace/atlantis_fw/AsicFwS2/include/matrix.h ****         tmp[8] = mat[8] * mat[14];
 6392              		.loc 2 1093 0
 6393 00ac CDE91801 		strd	r0, [sp, #96]
1094:/home/tienluong/workspace/atlantis_fw/AsicFwS2/include/matrix.h ****         tmp[9] = mat[10] * mat[12];
 6394              		.loc 2 1094 0
 6395 00b0 4046     		mov	r0, r8
 6396 00b2 4946     		mov	r1, r9
 6397 00b4 A047     		blx	r4
 6398              	.LVL922:
1095:/home/tienluong/workspace/atlantis_fw/AsicFwS2/include/matrix.h ****         tmp[10] = mat[8] * mat[13];
 6399              		.loc 2 1095 0
 6400 00b6 3246     		mov	r2, r6
 6401 00b8 3B46     		mov	r3, r7
1094:/home/tienluong/workspace/atlantis_fw/AsicFwS2/include/matrix.h ****         tmp[9] = mat[10] * mat[12];
 6402              		.loc 2 1094 0
 6403 00ba CDE91A01 		strd	r0, [sp, #104]
1095:/home/tienluong/workspace/atlantis_fw/AsicFwS2/include/matrix.h ****         tmp[10] = mat[8] * mat[13];
 6404              		.loc 2 1095 0
 6405 00be DDE90001 		ldrd	r0, [sp]
 6406 00c2 A047     		blx	r4
 6407              	.LVL923:
1096:/home/tienluong/workspace/atlantis_fw/AsicFwS2/include/matrix.h ****         tmp[11] = mat[9] * mat[12];
 6408              		.loc 2 1096 0
 6409 00c4 DDE90823 		ldrd	r2, [sp, #32]
1095:/home/tienluong/workspace/atlantis_fw/AsicFwS2/include/matrix.h ****         tmp[10] = mat[8] * mat[13];
 6410              		.loc 2 1095 0
 6411 00c8 CDE91C01 		strd	r0, [sp, #112]
1096:/home/tienluong/workspace/atlantis_fw/AsicFwS2/include/matrix.h ****         tmp[11] = mat[9] * mat[12];
 6412              		.loc 2 1096 0
 6413 00cc 4046     		mov	r0, r8
 6414 00ce 4946     		mov	r1, r9
 6415 00d0 A047     		blx	r4
 6416              	.LVL924:
1097:/home/tienluong/workspace/atlantis_fw/AsicFwS2/include/matrix.h **** 
 6417              		.loc 2 1097 0
 6418 00d2 3246     		mov	r2, r6
 6419 00d4 3B46     		mov	r3, r7
1096:/home/tienluong/workspace/atlantis_fw/AsicFwS2/include/matrix.h ****         tmp[11] = mat[9] * mat[12];
 6420              		.loc 2 1096 0
 6421 00d6 CDE90801 		strd	r0, [sp, #32]
1097:/home/tienluong/workspace/atlantis_fw/AsicFwS2/include/matrix.h **** 
 6422              		.loc 2 1097 0
 6423 00da DDE90601 		ldrd	r0, [sp, #24]
 6424 00de A047     		blx	r4
 6425              	.LVL925:
1100:/home/tienluong/workspace/atlantis_fw/AsicFwS2/include/matrix.h ****         dst[0] -= tmp[1] * mat[5] + tmp[2] * mat[6] + tmp[5]  * mat[7];
 6426              		.loc 2 1100 0
 6427 00e0 DAE90A23 		ldrd	r2, [r10, #40]
1097:/home/tienluong/workspace/atlantis_fw/AsicFwS2/include/matrix.h **** 
 6428              		.loc 2 1097 0
 6429 00e4 CDE90601 		strd	r0, [sp, #24]
1100:/home/tienluong/workspace/atlantis_fw/AsicFwS2/include/matrix.h ****         dst[0] -= tmp[1] * mat[5] + tmp[2] * mat[6] + tmp[5]  * mat[7];
 6430              		.loc 2 1100 0
 6431 00e8 CDE90023 		strd	r2, [sp]
 6432 00ec DAE90C23 		ldrd	r2, [r10, #48]
 6433 00f0 CDE90223 		strd	r2, [sp, #8]
1102:/home/tienluong/workspace/atlantis_fw/AsicFwS2/include/matrix.h ****         dst[1] -= tmp[0] * mat[4] + tmp[7] * mat[6] + tmp[8]  * mat[7];
 6434              		.loc 2 1102 0
 6435 00f4 DAE90823 		ldrd	r2, [r10, #32]
 6436 00f8 CDE90423 		strd	r2, [sp, #16]
1100:/home/tienluong/workspace/atlantis_fw/AsicFwS2/include/matrix.h ****         dst[0] -= tmp[1] * mat[5] + tmp[2] * mat[6] + tmp[5]  * mat[7];
 6437              		.loc 2 1100 0
 6438 00fc DDE90A01 		ldrd	r0, [sp, #40]
 6439 0100 DDE90023 		ldrd	r2, [sp]
 6440 0104 A047     		blx	r4
 6441              	.LVL926:
 6442 0106 DDE90223 		ldrd	r2, [sp, #8]
 6443 010a DAE90E89 		ldrd	r8, [r10, #56]
 6444              	.LVL927:
 6445 010e 0646     		mov	r6, r0
 6446 0110 0F46     		mov	r7, r1
 6447 0112 DDE91001 		ldrd	r0, [sp, #64]
 6448 0116 A047     		blx	r4
 6449              	.LVL928:
 6450 0118 0246     		mov	r2, r0
 6451 011a 0B46     		mov	r3, r1
 6452 011c 3046     		mov	r0, r6
 6453 011e 3946     		mov	r1, r7
 6454 0120 A847     		blx	r5
 6455              	.LVL929:
 6456 0122 4246     		mov	r2, r8
 6457 0124 4B46     		mov	r3, r9
 6458 0126 0646     		mov	r6, r0
 6459 0128 0F46     		mov	r7, r1
 6460 012a DDE91201 		ldrd	r0, [sp, #72]
 6461 012e A047     		blx	r4
 6462              	.LVL930:
 6463 0130 0246     		mov	r2, r0
 6464 0132 0B46     		mov	r3, r1
 6465 0134 3046     		mov	r0, r6
 6466 0136 3946     		mov	r1, r7
 6467 0138 A847     		blx	r5
 6468              	.LVL931:
1101:/home/tienluong/workspace/atlantis_fw/AsicFwS2/include/matrix.h ****         dst[1]  = tmp[1] * mat[4] + tmp[6] * mat[6] + tmp[9]  * mat[7];
 6469              		.loc 2 1101 0
 6470 013a DDE90023 		ldrd	r2, [sp]
1100:/home/tienluong/workspace/atlantis_fw/AsicFwS2/include/matrix.h ****         dst[0] -= tmp[1] * mat[5] + tmp[2] * mat[6] + tmp[5]  * mat[7];
 6471              		.loc 2 1100 0
 6472 013e CDE91E01 		strd	r0, [sp, #120]
1101:/home/tienluong/workspace/atlantis_fw/AsicFwS2/include/matrix.h ****         dst[1]  = tmp[1] * mat[4] + tmp[6] * mat[6] + tmp[9]  * mat[7];
 6473              		.loc 2 1101 0
 6474 0142 DDE90C01 		ldrd	r0, [sp, #48]
 6475 0146 A047     		blx	r4
 6476              	.LVL932:
 6477 0148 DDE90223 		ldrd	r2, [sp, #8]
 6478 014c 0646     		mov	r6, r0
 6479 014e 0F46     		mov	r7, r1
 6480 0150 DDE90E01 		ldrd	r0, [sp, #56]
 6481 0154 A047     		blx	r4
 6482              	.LVL933:
 6483 0156 0246     		mov	r2, r0
 6484 0158 0B46     		mov	r3, r1
 6485 015a 3046     		mov	r0, r6
 6486 015c 3946     		mov	r1, r7
 6487 015e A847     		blx	r5
 6488              	.LVL934:
 6489 0160 4246     		mov	r2, r8
 6490 0162 4B46     		mov	r3, r9
 6491 0164 0646     		mov	r6, r0
 6492 0166 0F46     		mov	r7, r1
 6493 0168 DDE91401 		ldrd	r0, [sp, #80]
 6494 016c A047     		blx	r4
 6495              	.LVL935:
 6496 016e 0246     		mov	r2, r0
 6497 0170 0B46     		mov	r3, r1
 6498 0172 3046     		mov	r0, r6
 6499 0174 3946     		mov	r1, r7
 6500 0176 A847     		blx	r5
 6501              	.LVL936:
 6502 0178 0246     		mov	r2, r0
 6503 017a 0B46     		mov	r3, r1
 6504 017c DDE91E01 		ldrd	r0, [sp, #120]
 6505 0180 D847     		blx	fp
 6506              	.LVL937:
1110:/home/tienluong/workspace/atlantis_fw/AsicFwS2/include/matrix.h ****     }
 6507              		.loc 2 1110 0
 6508 0182 DAE90023 		ldrd	r2, [r10]
 6509 0186 A047     		blx	r4
 6510              	.LVL938:
1102:/home/tienluong/workspace/atlantis_fw/AsicFwS2/include/matrix.h ****         dst[1] -= tmp[0] * mat[4] + tmp[7] * mat[6] + tmp[8]  * mat[7];
 6511              		.loc 2 1102 0
 6512 0188 DDE90423 		ldrd	r2, [sp, #16]
1110:/home/tienluong/workspace/atlantis_fw/AsicFwS2/include/matrix.h ****     }
 6513              		.loc 2 1110 0
 6514 018c CDE91E01 		strd	r0, [sp, #120]
1102:/home/tienluong/workspace/atlantis_fw/AsicFwS2/include/matrix.h ****         dst[1] -= tmp[0] * mat[4] + tmp[7] * mat[6] + tmp[8]  * mat[7];
 6515              		.loc 2 1102 0
 6516 0190 DDE90C01 		ldrd	r0, [sp, #48]
 6517 0194 A047     		blx	r4
 6518              	.LVL939:
 6519 0196 DDE90223 		ldrd	r2, [sp, #8]
 6520 019a 0646     		mov	r6, r0
 6521 019c 0F46     		mov	r7, r1
 6522 019e DDE91601 		ldrd	r0, [sp, #88]
 6523 01a2 A047     		blx	r4
 6524              	.LVL940:
 6525 01a4 0246     		mov	r2, r0
 6526 01a6 0B46     		mov	r3, r1
 6527 01a8 3046     		mov	r0, r6
 6528 01aa 3946     		mov	r1, r7
 6529 01ac A847     		blx	r5
 6530              	.LVL941:
 6531 01ae 4246     		mov	r2, r8
 6532 01b0 4B46     		mov	r3, r9
 6533 01b2 0646     		mov	r6, r0
 6534 01b4 0F46     		mov	r7, r1
 6535 01b6 DDE91C01 		ldrd	r0, [sp, #112]
 6536 01ba A047     		blx	r4
 6537              	.LVL942:
 6538 01bc 0246     		mov	r2, r0
 6539 01be 0B46     		mov	r3, r1
 6540 01c0 3046     		mov	r0, r6
 6541 01c2 3946     		mov	r1, r7
 6542 01c4 A847     		blx	r5
 6543              	.LVL943:
1103:/home/tienluong/workspace/atlantis_fw/AsicFwS2/include/matrix.h ****         dst[2]  = tmp[2] * mat[4] + tmp[7] * mat[5] + tmp[10] * mat[7];
 6544              		.loc 2 1103 0
 6545 01c6 DDE90423 		ldrd	r2, [sp, #16]
1102:/home/tienluong/workspace/atlantis_fw/AsicFwS2/include/matrix.h ****         dst[1] -= tmp[0] * mat[4] + tmp[7] * mat[6] + tmp[8]  * mat[7];
 6546              		.loc 2 1102 0
 6547 01ca CDE90C01 		strd	r0, [sp, #48]
 6548              	.LVL944:
1103:/home/tienluong/workspace/atlantis_fw/AsicFwS2/include/matrix.h ****         dst[2]  = tmp[2] * mat[4] + tmp[7] * mat[5] + tmp[10] * mat[7];
 6549              		.loc 2 1103 0
 6550 01ce DDE90A01 		ldrd	r0, [sp, #40]
 6551 01d2 A047     		blx	r4
 6552              	.LVL945:
 6553 01d4 DDE90223 		ldrd	r2, [sp, #8]
 6554 01d8 0646     		mov	r6, r0
 6555 01da 0F46     		mov	r7, r1
 6556 01dc DDE91801 		ldrd	r0, [sp, #96]
 6557 01e0 A047     		blx	r4
 6558              	.LVL946:
 6559 01e2 0246     		mov	r2, r0
 6560 01e4 0B46     		mov	r3, r1
 6561 01e6 3046     		mov	r0, r6
 6562 01e8 3946     		mov	r1, r7
 6563 01ea A847     		blx	r5
 6564              	.LVL947:
 6565 01ec 4246     		mov	r2, r8
 6566 01ee 4B46     		mov	r3, r9
 6567 01f0 0646     		mov	r6, r0
 6568 01f2 0F46     		mov	r7, r1
 6569 01f4 DDE91A01 		ldrd	r0, [sp, #104]
 6570 01f8 A047     		blx	r4
 6571              	.LVL948:
 6572 01fa 0246     		mov	r2, r0
 6573 01fc 0B46     		mov	r3, r1
 6574 01fe 3046     		mov	r0, r6
 6575 0200 3946     		mov	r1, r7
 6576 0202 A847     		blx	r5
 6577              	.LVL949:
 6578 0204 0246     		mov	r2, r0
 6579 0206 0B46     		mov	r3, r1
 6580 0208 DDE90C01 		ldrd	r0, [sp, #48]
 6581 020c D847     		blx	fp
 6582              	.LVL950:
1110:/home/tienluong/workspace/atlantis_fw/AsicFwS2/include/matrix.h ****     }
 6583              		.loc 2 1110 0
 6584 020e DAE90223 		ldrd	r2, [r10, #8]
 6585 0212 A047     		blx	r4
 6586              	.LVL951:
 6587 0214 0246     		mov	r2, r0
 6588 0216 0B46     		mov	r3, r1
 6589 0218 DDE91E01 		ldrd	r0, [sp, #120]
 6590 021c A847     		blx	r5
 6591              	.LVL952:
1104:/home/tienluong/workspace/atlantis_fw/AsicFwS2/include/matrix.h ****         dst[2] -= tmp[3] * mat[4] + tmp[6] * mat[5] + tmp[11] * mat[7];
 6592              		.loc 2 1104 0
 6593 021e DDE90423 		ldrd	r2, [sp, #16]
1110:/home/tienluong/workspace/atlantis_fw/AsicFwS2/include/matrix.h ****     }
 6594              		.loc 2 1110 0
 6595 0222 CDE90A01 		strd	r0, [sp, #40]
 6596              	.LVL953:
1104:/home/tienluong/workspace/atlantis_fw/AsicFwS2/include/matrix.h ****         dst[2] -= tmp[3] * mat[4] + tmp[6] * mat[5] + tmp[11] * mat[7];
 6597              		.loc 2 1104 0
 6598 0226 DDE90E01 		ldrd	r0, [sp, #56]
 6599 022a A047     		blx	r4
 6600              	.LVL954:
 6601 022c DDE90023 		ldrd	r2, [sp]
 6602 0230 0646     		mov	r6, r0
 6603 0232 0F46     		mov	r7, r1
 6604 0234 DDE91801 		ldrd	r0, [sp, #96]
 6605 0238 A047     		blx	r4
 6606              	.LVL955:
 6607 023a 0246     		mov	r2, r0
 6608 023c 0B46     		mov	r3, r1
 6609 023e 3046     		mov	r0, r6
 6610 0240 3946     		mov	r1, r7
 6611 0242 A847     		blx	r5
 6612              	.LVL956:
 6613 0244 4246     		mov	r2, r8
 6614 0246 4B46     		mov	r3, r9
 6615 0248 0646     		mov	r6, r0
 6616 024a 0F46     		mov	r7, r1
 6617 024c DDE90801 		ldrd	r0, [sp, #32]
 6618 0250 A047     		blx	r4
 6619              	.LVL957:
 6620 0252 0246     		mov	r2, r0
 6621 0254 0B46     		mov	r3, r1
 6622 0256 3046     		mov	r0, r6
 6623 0258 3946     		mov	r1, r7
 6624 025a A847     		blx	r5
 6625              	.LVL958:
1105:/home/tienluong/workspace/atlantis_fw/AsicFwS2/include/matrix.h ****         dst[3]  = tmp[5] * mat[4] + tmp[8] * mat[5] + tmp[11] * mat[6];
 6626              		.loc 2 1105 0
 6627 025c DDE90423 		ldrd	r2, [sp, #16]
1104:/home/tienluong/workspace/atlantis_fw/AsicFwS2/include/matrix.h ****         dst[2] -= tmp[3] * mat[4] + tmp[6] * mat[5] + tmp[11] * mat[7];
 6628              		.loc 2 1104 0
 6629 0260 CDE90C01 		strd	r0, [sp, #48]
1105:/home/tienluong/workspace/atlantis_fw/AsicFwS2/include/matrix.h ****         dst[3]  = tmp[5] * mat[4] + tmp[8] * mat[5] + tmp[11] * mat[6];
 6630              		.loc 2 1105 0
 6631 0264 DDE91001 		ldrd	r0, [sp, #64]
 6632 0268 A047     		blx	r4
 6633              	.LVL959:
 6634 026a DDE90023 		ldrd	r2, [sp]
 6635 026e 0646     		mov	r6, r0
 6636 0270 0F46     		mov	r7, r1
 6637 0272 05E0     		b	.L158
 6638              	.L159:
 6639              		.align	2
 6640              	.L157:
 6641 0274 00000000 		.word	__aeabi_dmul
 6642 0278 00000000 		.word	__aeabi_dadd
 6643 027c 00000000 		.word	__aeabi_dsub
 6644              	.L158:
 6645 0280 DDE91601 		ldrd	r0, [sp, #88]
 6646 0284 A047     		blx	r4
 6647              	.LVL960:
 6648 0286 0246     		mov	r2, r0
 6649 0288 0B46     		mov	r3, r1
 6650 028a 3046     		mov	r0, r6
 6651 028c 3946     		mov	r1, r7
 6652 028e A847     		blx	r5
 6653              	.LVL961:
 6654 0290 4246     		mov	r2, r8
 6655 0292 4B46     		mov	r3, r9
 6656 0294 0646     		mov	r6, r0
 6657 0296 0F46     		mov	r7, r1
 6658 0298 DDE90601 		ldrd	r0, [sp, #24]
 6659 029c A047     		blx	r4
 6660              	.LVL962:
 6661 029e 0246     		mov	r2, r0
 6662 02a0 0B46     		mov	r3, r1
 6663 02a2 3046     		mov	r0, r6
 6664 02a4 3946     		mov	r1, r7
 6665 02a6 A847     		blx	r5
 6666              	.LVL963:
 6667 02a8 0246     		mov	r2, r0
 6668 02aa 0B46     		mov	r3, r1
 6669 02ac DDE90C01 		ldrd	r0, [sp, #48]
 6670 02b0 D847     		blx	fp
 6671              	.LVL964:
1110:/home/tienluong/workspace/atlantis_fw/AsicFwS2/include/matrix.h ****     }
 6672              		.loc 2 1110 0
 6673 02b2 DAE90423 		ldrd	r2, [r10, #16]
 6674 02b6 A047     		blx	r4
 6675              	.LVL965:
 6676 02b8 0246     		mov	r2, r0
 6677 02ba 0B46     		mov	r3, r1
 6678 02bc DDE90A01 		ldrd	r0, [sp, #40]
 6679 02c0 A847     		blx	r5
 6680              	.LVL966:
1106:/home/tienluong/workspace/atlantis_fw/AsicFwS2/include/matrix.h ****         dst[3] -= tmp[4] * mat[4] + tmp[9] * mat[5] + tmp[10] * mat[6];
 6681              		.loc 2 1106 0
 6682 02c2 DDE90423 		ldrd	r2, [sp, #16]
1110:/home/tienluong/workspace/atlantis_fw/AsicFwS2/include/matrix.h ****     }
 6683              		.loc 2 1110 0
 6684 02c6 CDE90A01 		strd	r0, [sp, #40]
1106:/home/tienluong/workspace/atlantis_fw/AsicFwS2/include/matrix.h ****         dst[3] -= tmp[4] * mat[4] + tmp[9] * mat[5] + tmp[10] * mat[6];
 6685              		.loc 2 1106 0
 6686 02ca DDE91401 		ldrd	r0, [sp, #80]
 6687 02ce A047     		blx	r4
 6688              	.LVL967:
 6689 02d0 DDE90023 		ldrd	r2, [sp]
 6690 02d4 0646     		mov	r6, r0
 6691 02d6 0F46     		mov	r7, r1
 6692 02d8 DDE91A01 		ldrd	r0, [sp, #104]
 6693 02dc A047     		blx	r4
 6694              	.LVL968:
 6695 02de 0246     		mov	r2, r0
 6696 02e0 0B46     		mov	r3, r1
 6697 02e2 3046     		mov	r0, r6
 6698 02e4 3946     		mov	r1, r7
 6699 02e6 A847     		blx	r5
 6700              	.LVL969:
 6701 02e8 DDE90223 		ldrd	r2, [sp, #8]
 6702 02ec 0646     		mov	r6, r0
 6703 02ee 0F46     		mov	r7, r1
 6704 02f0 DDE90601 		ldrd	r0, [sp, #24]
 6705 02f4 A047     		blx	r4
 6706              	.LVL970:
 6707 02f6 0246     		mov	r2, r0
 6708 02f8 0B46     		mov	r3, r1
 6709 02fa 3046     		mov	r0, r6
 6710 02fc 3946     		mov	r1, r7
 6711 02fe A847     		blx	r5
 6712              	.LVL971:
1107:/home/tienluong/workspace/atlantis_fw/AsicFwS2/include/matrix.h **** 
 6713              		.loc 2 1107 0
 6714 0300 DDE90423 		ldrd	r2, [sp, #16]
1106:/home/tienluong/workspace/atlantis_fw/AsicFwS2/include/matrix.h ****         dst[3] -= tmp[4] * mat[4] + tmp[9] * mat[5] + tmp[10] * mat[6];
 6715              		.loc 2 1106 0
 6716 0304 8046     		mov	r8, r0
 6717              	.LVL972:
 6718 0306 8946     		mov	r9, r1
1107:/home/tienluong/workspace/atlantis_fw/AsicFwS2/include/matrix.h **** 
 6719              		.loc 2 1107 0
 6720 0308 DDE91201 		ldrd	r0, [sp, #72]
 6721 030c A047     		blx	r4
 6722              	.LVL973:
 6723 030e DDE90023 		ldrd	r2, [sp]
 6724 0312 0646     		mov	r6, r0
 6725 0314 0F46     		mov	r7, r1
 6726 0316 DDE91C01 		ldrd	r0, [sp, #112]
 6727 031a A047     		blx	r4
 6728              	.LVL974:
 6729 031c 0246     		mov	r2, r0
 6730 031e 0B46     		mov	r3, r1
 6731 0320 3046     		mov	r0, r6
 6732 0322 3946     		mov	r1, r7
 6733 0324 A847     		blx	r5
 6734              	.LVL975:
 6735 0326 0646     		mov	r6, r0
 6736 0328 0F46     		mov	r7, r1
 6737 032a DDE90801 		ldrd	r0, [sp, #32]
 6738 032e DDE90223 		ldrd	r2, [sp, #8]
 6739 0332 A047     		blx	r4
 6740              	.LVL976:
 6741 0334 0246     		mov	r2, r0
 6742 0336 0B46     		mov	r3, r1
 6743 0338 3046     		mov	r0, r6
 6744 033a 3946     		mov	r1, r7
 6745 033c A847     		blx	r5
 6746              	.LVL977:
 6747 033e 0246     		mov	r2, r0
 6748 0340 0B46     		mov	r3, r1
 6749 0342 4046     		mov	r0, r8
 6750 0344 4946     		mov	r1, r9
 6751 0346 D847     		blx	fp
 6752              	.LVL978:
1110:/home/tienluong/workspace/atlantis_fw/AsicFwS2/include/matrix.h ****     }
 6753              		.loc 2 1110 0
 6754 0348 DAE90623 		ldrd	r2, [r10, #24]
 6755 034c A047     		blx	r4
 6756              	.LVL979:
 6757 034e 0246     		mov	r2, r0
 6758 0350 0B46     		mov	r3, r1
 6759 0352 DDE90A01 		ldrd	r0, [sp, #40]
 6760 0356 A847     		blx	r5
 6761              	.LVL980:
 6762              	.LBE359:
1111:/home/tienluong/workspace/atlantis_fw/AsicFwS2/include/matrix.h **** };
 6763              		.loc 2 1111 0
 6764 0358 21B0     		add	sp, sp, #132
 6765              	.LCFI75:
 6766              		.cfi_def_cfa_offset 36
 6767              	.LVL981:
 6768              		@ sp needed
 6769 035a BDE8F08F 		pop	{r4, r5, r6, r7, r8, r9, r10, fp, pc}
 6770              		.cfi_endproc
 6771              	.LFE3707:
 6773 035e 00BF     		.section	.text._ZN4ltaf11determinantIdLi4ELb1EEET_RKNS_6MatrixIS1_XT0_EXT0_EXT1_EEE,"axG",%progbit
 6774              		.align	1
 6775              		.weak	_ZN4ltaf11determinantIdLi4ELb1EEET_RKNS_6MatrixIS1_XT0_EXT0_EXT1_EEE
 6776              		.thumb
 6777              		.thumb_func
 6779              	_ZN4ltaf11determinantIdLi4ELb1EEET_RKNS_6MatrixIS1_XT0_EXT0_EXT1_EEE:
 6780              	.LFB3563:
1256:/home/tienluong/workspace/atlantis_fw/AsicFwS2/include/matrix.h **** {
 6781              		.loc 2 1256 0
 6782              		.cfi_startproc
 6783              		@ args = 0, pretend = 0, frame = 8
 6784              		@ frame_needed = 0, uses_anonymous_args = 0
 6785              	.LVL982:
 6786 0000 07B5     		push	{r0, r1, r2, lr}
 6787              	.LCFI76:
 6788              		.cfi_def_cfa_offset 16
 6789              		.cfi_offset 14, -4
 6790              	.LBB360:
1259:/home/tienluong/workspace/atlantis_fw/AsicFwS2/include/matrix.h **** }
 6791              		.loc 2 1259 0
 6792 0002 034B     		ldr	r3, .L161
 6793              	.LBE360:
1256:/home/tienluong/workspace/atlantis_fw/AsicFwS2/include/matrix.h **** {
 6794              		.loc 2 1256 0
 6795 0004 0146     		mov	r1, r0
 6796              	.LVL983:
 6797              	.LBB361:
1259:/home/tienluong/workspace/atlantis_fw/AsicFwS2/include/matrix.h **** }
 6798              		.loc 2 1259 0
 6799 0006 01A8     		add	r0, sp, #4
 6800              	.LVL984:
 6801 0008 9847     		blx	r3
 6802              	.LVL985:
 6803              	.LBE361:
 6804              		.loc 2 1260 0
 6805 000a 03B0     		add	sp, sp, #12
 6806              	.LCFI77:
 6807              		.cfi_def_cfa_offset 4
 6808              		@ sp needed
 6809 000c 5DF804FB 		ldr	pc, [sp], #4
 6810              	.L162:
 6811              		.align	2
 6812              	.L161:
 6813 0010 00000000 		.word	_ZNK4ltaf17MatrixDeterminantIdLi4EEclEPKd
 6814              		.cfi_endproc
 6815              	.LFE3563:
 6817              		.section	.text._ZN4ltaf11determinantIdLi4ELb0EEET_RKNS_6MatrixIS1_XT0_EXT0_EXT1_EEE,"axG",%progbit
 6818              		.align	1
 6819              		.weak	_ZN4ltaf11determinantIdLi4ELb0EEET_RKNS_6MatrixIS1_XT0_EXT0_EXT1_EEE
 6820              		.thumb
 6821              		.thumb_func
 6823              	_ZN4ltaf11determinantIdLi4ELb0EEET_RKNS_6MatrixIS1_XT0_EXT0_EXT1_EEE:
 6824              	.LFB3566:
1256:/home/tienluong/workspace/atlantis_fw/AsicFwS2/include/matrix.h **** {
 6825              		.loc 2 1256 0
 6826              		.cfi_startproc
 6827              		@ args = 0, pretend = 0, frame = 8
 6828              		@ frame_needed = 0, uses_anonymous_args = 0
 6829              	.LVL986:
 6830 0000 07B5     		push	{r0, r1, r2, lr}
 6831              	.LCFI78:
 6832              		.cfi_def_cfa_offset 16
 6833              		.cfi_offset 14, -4
 6834              	.LBB362:
1259:/home/tienluong/workspace/atlantis_fw/AsicFwS2/include/matrix.h **** }
 6835              		.loc 2 1259 0
 6836 0002 034B     		ldr	r3, .L164
 6837              	.LBE362:
1256:/home/tienluong/workspace/atlantis_fw/AsicFwS2/include/matrix.h **** {
 6838              		.loc 2 1256 0
 6839 0004 0146     		mov	r1, r0
 6840              	.LVL987:
 6841              	.LBB363:
1259:/home/tienluong/workspace/atlantis_fw/AsicFwS2/include/matrix.h **** }
 6842              		.loc 2 1259 0
 6843 0006 01A8     		add	r0, sp, #4
 6844              	.LVL988:
 6845 0008 9847     		blx	r3
 6846              	.LVL989:
 6847              	.LBE363:
 6848              		.loc 2 1260 0
 6849 000a 03B0     		add	sp, sp, #12
 6850              	.LCFI79:
 6851              		.cfi_def_cfa_offset 4
 6852              		@ sp needed
 6853 000c 5DF804FB 		ldr	pc, [sp], #4
 6854              	.L165:
 6855              		.align	2
 6856              	.L164:
 6857 0010 00000000 		.word	_ZNK4ltaf17MatrixDeterminantIdLi4EEclEPKd
 6858              		.cfi_endproc
 6859              	.LFE3566:
 6861              		.section	.text.startup._GLOBAL__sub_I_initialize_optical_zoom_manager,"ax",%progbits
 6862              		.align	1
 6863              		.thumb
 6864              		.thumb_func
 6866              	_GLOBAL__sub_I_initialize_optical_zoom_manager:
 6867              	.LFB3784:
  93:/home/tienluong/workspace/atlantis_fw/AsicFwS2/src/optical_zoom_manager.cpp **** }
 6868              		.loc 1 93 0
 6869              		.cfi_startproc
 6870              		@ args = 0, pretend = 0, frame = 0
 6871              		@ frame_needed = 0, uses_anonymous_args = 0
 6872              	.LVL990:
 6873 0000 08B5     		push	{r3, lr}
 6874              	.LCFI80:
 6875              		.cfi_def_cfa_offset 8
 6876              		.cfi_offset 3, -8
 6877              		.cfi_offset 14, -4
 6878              	.LBB368:
 6879              	.LBB369:
 6880              	.LBB370:
 6881              	.LBB371:
  31:/home/tienluong/workspace/atlantis_fw/AsicFwS2/src/optical_zoom_manager.cpp **** }
 6882              		.loc 1 31 0
 6883 0002 0023     		movs	r3, #0
 6884 0004 0348     		ldr	r0, .L167
 6885 0006 0360     		str	r3, [r0]
 6886 0008 0371     		strb	r3, [r0, #4]
 6887              	.LBE371:
 6888              	.LBE370:
  28:/home/tienluong/workspace/atlantis_fw/AsicFwS2/src/optical_zoom_manager.cpp **** 
 6889              		.loc 1 28 0
 6890 000a 0349     		ldr	r1, .L167+4
 6891 000c 034A     		ldr	r2, .L167+8
 6892 000e 044B     		ldr	r3, .L167+12
 6893 0010 9847     		blx	r3
 6894              	.LVL991:
 6895 0012 08BD     		pop	{r3, pc}
 6896              	.L168:
 6897              		.align	2
 6898              	.L167:
 6899 0014 00000000 		.word	.LANCHOR0
 6900 0018 00000000 		.word	_ZN20optical_zoom_managerD1Ev
 6901 001c 00000000 		.word	__dso_handle
 6902 0020 00000000 		.word	__aeabi_atexit
 6903              	.LBE369:
 6904              	.LBE368:
 6905              		.cfi_endproc
 6906              	.LFE3784:
 6908              		.section	.init_array,"aw",%init_array
 6909              		.align	2
 6910 0000 00000000 		.word	_GLOBAL__sub_I_initialize_optical_zoom_manager(target1)
 6911              		.global	_ZN20optical_zoom_manager9instance_E
 6912              		.section	.bss._ZN20optical_zoom_manager9instance_E,"aw",%nobits
 6913              		.align	2
 6914              		.set	.LANCHOR0,. + 0
 6917              	_ZN20optical_zoom_manager9instance_E:
 6918 0000 00000000 		.space	8
 6918      00000000 
 6919              		.section	.rodata.str1.1,"aMS",%progbits,1
 6920              	.LC0:
 6921 0000 57696C6C 		.ascii	"Will not move mirror %02X as optical zoom computati"
 6921      206E6F74 
 6921      206D6F76 
 6921      65206D69 
 6921      72726F72 
 6922 0033 6F6E2066 		.ascii	"on failed\000"
 6922      61696C65 
 6922      6400
 6923              	.LC1:
 6924 003d 52657175 		.ascii	"Requesting to move mirror %02X to %d\000"
 6924      65737469 
 6924      6E672074 
 6924      6F206D6F 
 6924      7665206D 
 6925              		.text
 6926              	.Letext0:
 6927              		.file 3 "/opt/toolchains/gcc-arm-none-eabi-4_9-2015q1/arm-none-eabi/include/machine/_default_types
 6928              		.file 4 "/opt/toolchains/gcc-arm-none-eabi-4_9-2015q1/arm-none-eabi/include/stdint.h"
 6929              		.file 5 "/opt/toolchains/gcc-arm-none-eabi-4_9-2015q1/lib/gcc/arm-none-eabi/4.9.3/include/stddef.h
 6930              		.file 6 "/opt/toolchains/gcc-arm-none-eabi-4_9-2015q1/arm-none-eabi/include/sys/lock.h"
 6931              		.file 7 "/opt/toolchains/gcc-arm-none-eabi-4_9-2015q1/arm-none-eabi/include/sys/_types.h"
 6932              		.file 8 "/opt/toolchains/gcc-arm-none-eabi-4_9-2015q1/arm-none-eabi/include/sys/reent.h"
 6933              		.file 9 "/opt/toolchains/gcc-arm-none-eabi-4_9-2015q1/arm-none-eabi/include/stdlib.h"
 6934              		.file 10 "/opt/toolchains/gcc-arm-none-eabi-4_9-2015q1/lib/gcc/arm-none-eabi/4.9.3/include/stdarg.
 6935              		.file 11 "<built-in>"
 6936              		.file 12 "/home/tienluong/workspace/atlantis_fw/platform/os/Source/portable/GCC/cortex-r4/portmacr
 6937              		.file 13 "/home/tienluong/workspace/atlantis_fw/platform/os/Source/include/queue.h"
 6938              		.file 14 "/home/tienluong/workspace/atlantis_fw/platform/os/Source/include/semphr.h"
 6939              		.file 15 "/home/tienluong/workspace/atlantis_fw/platform/os/Source/include/event_groups.h"
 6940              		.file 16 "/home/tienluong/workspace/atlantis_fw/platform/asic/hal/include/hal_syncio.h"
 6941              		.file 17 "/home/tienluong/workspace/atlantis_fw/platform/asic/hal/include/hal_i2c.h"
 6942              		.file 18 "/home/tienluong/workspace/atlantis_fw/platform/common/lcc_system.h"
 6943              		.file 19 "/home/tienluong/workspace/atlantis_fw/AsicFwS2/include/img_sensor.h"
 6944              		.file 20 "/home/tienluong/workspace/atlantis_fw/AsicFwS2/include/optical.h"
 6945              		.file 21 "/home/tienluong/workspace/atlantis_fw/AsicFwS2/include/pwr_ctrl.h"
 6946              		.file 22 "/home/tienluong/workspace/atlantis_fw/platform/driver/include/eeprom.h"
 6947              		.file 23 "/home/tienluong/workspace/atlantis_fw/AsicFwS2/include/task_af_ctrl.h"
 6948              		.file 24 "/home/tienluong/workspace/atlantis_fw/AsicFwS2/include/light_system.h"
 6949              		.file 25 "/opt/toolchains/gcc-arm-none-eabi-4_9-2015q1/arm-none-eabi/include/c++/4.9.3/type_traits
 6950              		.file 26 "/opt/toolchains/gcc-arm-none-eabi-4_9-2015q1/arm-none-eabi/include/c++/4.9.3/bits/except
 6951              		.file 27 "/opt/toolchains/gcc-arm-none-eabi-4_9-2015q1/arm-none-eabi/include/c++/4.9.3/arm-none-ea
 6952              		.file 28 "/opt/toolchains/gcc-arm-none-eabi-4_9-2015q1/arm-none-eabi/include/c++/4.9.3/bits/stl_pa
 6953              		.file 29 "/opt/toolchains/gcc-arm-none-eabi-4_9-2015q1/arm-none-eabi/include/c++/4.9.3/new"
 6954              		.file 30 "/opt/toolchains/gcc-arm-none-eabi-4_9-2015q1/arm-none-eabi/include/c++/4.9.3/bits/alloca
 6955              		.file 31 "/opt/toolchains/gcc-arm-none-eabi-4_9-2015q1/arm-none-eabi/include/c++/4.9.3/cwchar"
 6956              		.file 32 "/opt/toolchains/gcc-arm-none-eabi-4_9-2015q1/arm-none-eabi/include/c++/4.9.3/bits/uses_a
 6957              		.file 33 "/opt/toolchains/gcc-arm-none-eabi-4_9-2015q1/arm-none-eabi/include/c++/4.9.3/bits/char_t
 6958              		.file 34 "/opt/toolchains/gcc-arm-none-eabi-4_9-2015q1/arm-none-eabi/include/c++/4.9.3/cstdint"
 6959              		.file 35 "/opt/toolchains/gcc-arm-none-eabi-4_9-2015q1/arm-none-eabi/include/c++/4.9.3/clocale"
 6960              		.file 36 "/opt/toolchains/gcc-arm-none-eabi-4_9-2015q1/arm-none-eabi/include/c++/4.9.3/bits/basic_
 6961              		.file 37 "/opt/toolchains/gcc-arm-none-eabi-4_9-2015q1/arm-none-eabi/include/c++/4.9.3/bits/basic_
 6962              		.file 38 "/opt/toolchains/gcc-arm-none-eabi-4_9-2015q1/arm-none-eabi/include/c++/4.9.3/tuple"
 6963              		.file 39 "/opt/toolchains/gcc-arm-none-eabi-4_9-2015q1/arm-none-eabi/include/c++/4.9.3/bits/shared
 6964              		.file 40 "/opt/toolchains/gcc-arm-none-eabi-4_9-2015q1/arm-none-eabi/include/c++/4.9.3/cstdlib"
 6965              		.file 41 "/opt/toolchains/gcc-arm-none-eabi-4_9-2015q1/arm-none-eabi/include/c++/4.9.3/cmath"
 6966              		.file 42 "/opt/toolchains/gcc-arm-none-eabi-4_9-2015q1/arm-none-eabi/include/c++/4.9.3/debug/debug
 6967              		.file 43 "/opt/toolchains/gcc-arm-none-eabi-4_9-2015q1/arm-none-eabi/include/c++/4.9.3/bits/random
 6968              		.file 44 "/opt/toolchains/gcc-arm-none-eabi-4_9-2015q1/arm-none-eabi/include/c++/4.9.3/bits/ptr_tr
 6969              		.file 45 "/opt/toolchains/gcc-arm-none-eabi-4_9-2015q1/arm-none-eabi/include/c++/4.9.3/bits/alloc_
 6970              		.file 46 "/opt/toolchains/gcc-arm-none-eabi-4_9-2015q1/arm-none-eabi/include/c++/4.9.3/bits/stl_ve
 6971              		.file 47 "/opt/toolchains/gcc-arm-none-eabi-4_9-2015q1/arm-none-eabi/include/c++/4.9.3/bits/vector
 6972              		.file 48 "/opt/toolchains/gcc-arm-none-eabi-4_9-2015q1/arm-none-eabi/include/c++/4.9.3/initializer
 6973              		.file 49 "/opt/toolchains/gcc-arm-none-eabi-4_9-2015q1/arm-none-eabi/include/c++/4.9.3/bits/stl_it
 6974              		.file 50 "/opt/toolchains/gcc-arm-none-eabi-4_9-2015q1/arm-none-eabi/include/c++/4.9.3/bits/unique
 6975              		.file 51 "/opt/toolchains/gcc-arm-none-eabi-4_9-2015q1/arm-none-eabi/include/c++/4.9.3/bitset"
 6976              		.file 52 "/opt/toolchains/gcc-arm-none-eabi-4_9-2015q1/arm-none-eabi/include/c++/4.9.3/array"
 6977              		.file 53 "/opt/toolchains/gcc-arm-none-eabi-4_9-2015q1/arm-none-eabi/include/c++/4.9.3/bits/cpp_ty
 6978              		.file 54 "/opt/toolchains/gcc-arm-none-eabi-4_9-2015q1/arm-none-eabi/include/c++/4.9.3/bits/predef
 6979              		.file 55 "/opt/toolchains/gcc-arm-none-eabi-4_9-2015q1/arm-none-eabi/include/c++/4.9.3/ext/new_all
 6980              		.file 56 "/opt/toolchains/gcc-arm-none-eabi-4_9-2015q1/arm-none-eabi/include/c++/4.9.3/ext/numeric
 6981              		.file 57 "/opt/toolchains/gcc-arm-none-eabi-4_9-2015q1/arm-none-eabi/include/c++/4.9.3/ext/concurr
 6982              		.file 58 "/opt/toolchains/gcc-arm-none-eabi-4_9-2015q1/arm-none-eabi/include/c++/4.9.3/ext/alloc_t
 6983              		.file 59 "/opt/toolchains/gcc-arm-none-eabi-4_9-2015q1/arm-none-eabi/include/c++/4.9.3/bits/stl_it
 6984              		.file 60 "/opt/toolchains/gcc-arm-none-eabi-4_9-2015q1/arm-none-eabi/include/wchar.h"
 6985              		.file 61 "/opt/toolchains/gcc-arm-none-eabi-4_9-2015q1/arm-none-eabi/include/c++/4.9.3/arm-none-ea
 6986              		.file 62 "/opt/toolchains/gcc-arm-none-eabi-4_9-2015q1/arm-none-eabi/include/locale.h"
 6987              		.file 63 "/home/tienluong/workspace/atlantis_fw/platform/common/lightheader/include/protobuf-c/pro
 6988              		.file 64 "/home/tienluong/workspace/atlantis_fw/platform/common/lightheader/include/camera_id.pb-c
 6989              		.file 65 "/home/tienluong/workspace/atlantis_fw/platform/common/lightheader/include/point2i.pb-c.h
 6990              		.file 66 "/home/tienluong/workspace/atlantis_fw/platform/common/lightheader/include/point2f.pb-c.h
 6991              		.file 67 "/home/tienluong/workspace/atlantis_fw/platform/common/lightheader/include/camera_module.
 6992              		.file 68 "/home/tienluong/workspace/atlantis_fw/platform/common/lightheader/include/time_stamp.pb-
 6993              		.file 69 "/home/tienluong/workspace/atlantis_fw/platform/common/lightheader/include/matrix3x3f.pb-
 6994              		.file 70 "/home/tienluong/workspace/atlantis_fw/platform/common/lightheader/include/point3f.pb-c.h
 6995              		.file 71 "/home/tienluong/workspace/atlantis_fw/platform/common/lightheader/include/range2f.pb-c.h
 6996              		.file 72 "/home/tienluong/workspace/atlantis_fw/platform/common/lightheader/include/mirror_system.
 6997              		.file 73 "/home/tienluong/workspace/atlantis_fw/platform/common/lightheader/include/distortion.pb-
 6998              		.file 74 "/home/tienluong/workspace/atlantis_fw/platform/common/lightheader/include/device_temp.pb
 6999              		.file 75 "/home/tienluong/workspace/atlantis_fw/platform/common/lightheader/include/geometric_cali
 7000              		.file 76 "/home/tienluong/workspace/atlantis_fw/platform/common/lightheader/include/color_calibrat
 7001              		.file 77 "/home/tienluong/workspace/atlantis_fw/platform/common/lightheader/include/sensor_charact
 7002              		.file 78 "/home/tienluong/workspace/atlantis_fw/platform/common/lightheader/include/matrix4x4f.pb-
 7003              		.file 79 "/home/tienluong/workspace/atlantis_fw/platform/common/lightheader/include/vignetting_cha
 7004              		.file 80 "/home/tienluong/workspace/atlantis_fw/platform/common/lightheader/include/hot_pixel_map.
 7005              		.file 81 "/home/tienluong/workspace/atlantis_fw/platform/common/lightheader/include/dead_pixel_map
 7006              		.file 82 "/home/tienluong/workspace/atlantis_fw/platform/common/lightheader/include/tof_calibratio
 7007              		.file 83 "/home/tienluong/workspace/atlantis_fw/platform/common/lightheader/include/flash_calibrat
 7008              		.file 84 "/home/tienluong/workspace/atlantis_fw/platform/common/lightheader/include/sensor_type.pb
 7009              		.file 85 "/home/tienluong/workspace/atlantis_fw/platform/common/lightheader/include/hw_info.pb-c.h
 7010              		.file 86 "/home/tienluong/workspace/atlantis_fw/platform/common/lightheader/include/view_preferenc
 7011              		.file 87 "/home/tienluong/workspace/atlantis_fw/platform/common/lightheader/include/proximity_sens
 7012              		.file 88 "/home/tienluong/workspace/atlantis_fw/platform/common/lightheader/include/imu_data.pb-c.
 7013              		.file 89 "/home/tienluong/workspace/atlantis_fw/platform/common/lightheader/include/lightheader.pb
 7014              		.file 90 "/opt/toolchains/gcc-arm-none-eabi-4_9-2015q1/arm-none-eabi/include/math.h"
 7015              		.file 91 "/home/tienluong/workspace/atlantis_fw/AsicFwS2/include/mirrorsystems.h"
 7016              		.file 92 "/home/tienluong/workspace/atlantis_fw/AsicFwS2/include/calibclasses.h"
 7017              		.file 93 "/home/tienluong/workspace/atlantis_fw/AsicFwS2/include/opticalzoom.h"
 7018              		.file 94 "/home/tienluong/workspace/atlantis_fw/AsicFwS2/include/calib_data_manager.h"
 7019              		.file 95 "/home/tienluong/workspace/atlantis_fw/AsicFwS2/include/optical_zoom_manager.h"
DEFINED SYMBOLS
                            *ABS*:00000000 optical_zoom_manager.cpp
     /tmp/ccLeM4yf.s:19     .text._ZN20optical_zoom_managerD2Ev:00000000 $t
     /tmp/ccLeM4yf.s:24     .text._ZN20optical_zoom_managerD2Ev:00000000 _ZN20optical_zoom_managerD2Ev
     /tmp/ccLeM4yf.s:57     .text._ZN20optical_zoom_managerD2Ev:00000010 $d
     /tmp/ccLeM4yf.s:24     .text._ZN20optical_zoom_managerD2Ev:00000000 _ZN20optical_zoom_managerD1Ev
     /tmp/ccLeM4yf.s:64     .text._ZN12_GLOBAL__N_120move_mirror_callbackEPv:00000000 $t
     /tmp/ccLeM4yf.s:68     .text._ZN12_GLOBAL__N_120move_mirror_callbackEPv:00000000 _ZN12_GLOBAL__N_120move_mirror_callbackEPv
     /tmp/ccLeM4yf.s:98     .text._ZN12_GLOBAL__N_120move_mirror_callbackEPv:00000010 $d
     /tmp/ccLeM4yf.s:107    .text._ZNK4ltaf20SquareMatrixInverterIfLi2EE3runEPf.isra.1:00000000 $t
     /tmp/ccLeM4yf.s:111    .text._ZNK4ltaf20SquareMatrixInverterIfLi2EE3runEPf.isra.1:00000000 _ZNK4ltaf20SquareMatrixInverterIfLi2EE3runEPf.isra.1
     /tmp/ccLeM4yf.s:212    .text._ZNK4ltaf20SquareMatrixInverterIfLi2EE3runEPf.isra.1:00000064 $d
     /tmp/ccLeM4yf.s:219    .text._ZN4ltaf7inverseIfLi2ELb1EEENS_6MatrixIT_XT0_EXT0_EXT1_EEERKS3_:00000000 $t
     /tmp/ccLeM4yf.s:224    .text._ZN4ltaf7inverseIfLi2ELb1EEENS_6MatrixIT_XT0_EXT0_EXT1_EEERKS3_:00000000 _ZN4ltaf7inverseIfLi2ELb1EEENS_6MatrixIT_XT0_EXT0_EXT1_EEERKS3_
     /tmp/ccLeM4yf.s:262    .text._ZN4ltaf7inverseIfLi2ELb1EEENS_6MatrixIT_XT0_EXT0_EXT1_EEERKS3_:00000014 $d
     /tmp/ccLeM4yf.s:267    .text._ZN4ltaf7inverseIfLi2ELb0EEENS_6MatrixIT_XT0_EXT0_EXT1_EEERKS3_:00000000 $t
     /tmp/ccLeM4yf.s:272    .text._ZN4ltaf7inverseIfLi2ELb0EEENS_6MatrixIT_XT0_EXT0_EXT1_EEERKS3_:00000000 _ZN4ltaf7inverseIfLi2ELb0EEENS_6MatrixIT_XT0_EXT0_EXT1_EEERKS3_
     /tmp/ccLeM4yf.s:310    .text._ZN4ltaf7inverseIfLi2ELb0EEENS_6MatrixIT_XT0_EXT0_EXT1_EEERKS3_:00000014 $d
     /tmp/ccLeM4yf.s:315    .text._ZN4ltaf11determinantIfLi2ELb1EEET_RKNS_6MatrixIS1_XT0_EXT0_EXT1_EEE:00000000 $t
     /tmp/ccLeM4yf.s:320    .text._ZN4ltaf11determinantIfLi2ELb1EEET_RKNS_6MatrixIS1_XT0_EXT0_EXT1_EEE:00000000 _ZN4ltaf11determinantIfLi2ELb1EEET_RKNS_6MatrixIS1_XT0_EXT0_EXT1_EEE
     /tmp/ccLeM4yf.s:365    .text._ZN4ltaf11determinantIfLi2ELb1EEET_RKNS_6MatrixIS1_XT0_EXT0_EXT1_EEE:00000020 $d
     /tmp/ccLeM4yf.s:371    .text._ZN4ltaf11determinantIfLi2ELb0EEET_RKNS_6MatrixIS1_XT0_EXT0_EXT1_EEE:00000000 $t
     /tmp/ccLeM4yf.s:376    .text._ZN4ltaf11determinantIfLi2ELb0EEET_RKNS_6MatrixIS1_XT0_EXT0_EXT1_EEE:00000000 _ZN4ltaf11determinantIfLi2ELb0EEET_RKNS_6MatrixIS1_XT0_EXT0_EXT1_EEE
     /tmp/ccLeM4yf.s:421    .text._ZN4ltaf11determinantIfLi2ELb0EEET_RKNS_6MatrixIS1_XT0_EXT0_EXT1_EEE:00000020 $d
     /tmp/ccLeM4yf.s:429    .text._ZN4ltaf11determinantIdLi2ELb1EEET_RKNS_6MatrixIS1_XT0_EXT0_EXT1_EEE:00000000 $t
     /tmp/ccLeM4yf.s:434    .text._ZN4ltaf11determinantIdLi2ELb1EEET_RKNS_6MatrixIS1_XT0_EXT0_EXT1_EEE:00000000 _ZN4ltaf11determinantIdLi2ELb1EEET_RKNS_6MatrixIS1_XT0_EXT0_EXT1_EEE
     /tmp/ccLeM4yf.s:484    .text._ZN4ltaf11determinantIdLi2ELb1EEET_RKNS_6MatrixIS1_XT0_EXT0_EXT1_EEE:0000002c $d
     /tmp/ccLeM4yf.s:490    .text._ZN4ltaf11determinantIdLi2ELb0EEET_RKNS_6MatrixIS1_XT0_EXT0_EXT1_EEE:00000000 $t
     /tmp/ccLeM4yf.s:495    .text._ZN4ltaf11determinantIdLi2ELb0EEET_RKNS_6MatrixIS1_XT0_EXT0_EXT1_EEE:00000000 _ZN4ltaf11determinantIdLi2ELb0EEET_RKNS_6MatrixIS1_XT0_EXT0_EXT1_EEE
     /tmp/ccLeM4yf.s:545    .text._ZN4ltaf11determinantIdLi2ELb0EEET_RKNS_6MatrixIS1_XT0_EXT0_EXT1_EEE:0000002c $d
     /tmp/ccLeM4yf.s:551    .text._ZN20optical_zoom_managerC2Ev:00000000 $t
     /tmp/ccLeM4yf.s:556    .text._ZN20optical_zoom_managerC2Ev:00000000 _ZN20optical_zoom_managerC2Ev
     /tmp/ccLeM4yf.s:556    .text._ZN20optical_zoom_managerC2Ev:00000000 _ZN20optical_zoom_managerC1Ev
     /tmp/ccLeM4yf.s:578    .text._ZN20optical_zoom_manager10initializeEv:00000000 $t
     /tmp/ccLeM4yf.s:583    .text._ZN20optical_zoom_manager10initializeEv:00000000 _ZN20optical_zoom_manager10initializeEv
     /tmp/ccLeM4yf.s:611    .text._ZN20optical_zoom_manager10initializeEv:00000010 $d
     /tmp/ccLeM4yf.s:616    .text.initialize_optical_zoom_manager:00000000 $t
     /tmp/ccLeM4yf.s:621    .text.initialize_optical_zoom_manager:00000000 initialize_optical_zoom_manager
     /tmp/ccLeM4yf.s:641    .text.initialize_optical_zoom_manager:0000000c $d
     /tmp/ccLeM4yf.s:647    .text._ZN20optical_zoom_manager23check_start_mirror_moveEhs:00000000 $t
     /tmp/ccLeM4yf.s:652    .text._ZN20optical_zoom_manager23check_start_mirror_moveEhs:00000000 _ZN20optical_zoom_manager23check_start_mirror_moveEhs
     /tmp/ccLeM4yf.s:775    .text._ZN20optical_zoom_manager23check_start_mirror_moveEhs:00000064 $d
     /tmp/ccLeM4yf.s:788    .text._ZN20optical_zoom_manager18start_mirrors_moveEv:00000000 $t
     /tmp/ccLeM4yf.s:793    .text._ZN20optical_zoom_manager18start_mirrors_moveEv:00000000 _ZN20optical_zoom_manager18start_mirrors_moveEv
     /tmp/ccLeM4yf.s:912    .text._ZN20optical_zoom_manager18start_mirrors_moveEv:00000088 $d
     /tmp/ccLeM4yf.s:924    .text._ZN20optical_zoom_manager26wait_for_mirrors_move_doneEv:00000000 $t
     /tmp/ccLeM4yf.s:929    .text._ZN20optical_zoom_manager26wait_for_mirrors_move_doneEv:00000000 _ZN20optical_zoom_manager26wait_for_mirrors_move_doneEv
     /tmp/ccLeM4yf.s:977    .text._ZN20optical_zoom_manager26wait_for_mirrors_move_doneEv:00000028 $d
     /tmp/ccLeM4yf.s:984    .text._ZNK4ltaf20SquareMatrixInverterIfLi3EE3runEPf:00000000 $t
     /tmp/ccLeM4yf.s:989    .text._ZNK4ltaf20SquareMatrixInverterIfLi3EE3runEPf:00000000 _ZNK4ltaf20SquareMatrixInverterIfLi3EE3runEPf
     /tmp/ccLeM4yf.s:1276   .text._ZNK4ltaf20SquareMatrixInverterIfLi3EE3runEPf:00000168 $d
     /tmp/ccLeM4yf.s:1284   .text._ZN4ltaf7inverseIfLi3ELb1EEENS_6MatrixIT_XT0_EXT0_EXT1_EEERKS3_:00000000 $t
     /tmp/ccLeM4yf.s:1289   .text._ZN4ltaf7inverseIfLi3ELb1EEENS_6MatrixIT_XT0_EXT0_EXT1_EEERKS3_:00000000 _ZN4ltaf7inverseIfLi3ELb1EEENS_6MatrixIT_XT0_EXT0_EXT1_EEERKS3_
     /tmp/ccLeM4yf.s:1354   .text._ZN4ltaf7inverseIfLi3ELb1EEENS_6MatrixIT_XT0_EXT0_EXT1_EEERKS3_:00000024 $d
     /tmp/ccLeM4yf.s:1359   .text._ZN4ltaf7inverseIfLi3ELb0EEENS_6MatrixIT_XT0_EXT0_EXT1_EEERKS3_:00000000 $t
     /tmp/ccLeM4yf.s:1364   .text._ZN4ltaf7inverseIfLi3ELb0EEENS_6MatrixIT_XT0_EXT0_EXT1_EEERKS3_:00000000 _ZN4ltaf7inverseIfLi3ELb0EEENS_6MatrixIT_XT0_EXT0_EXT1_EEERKS3_
     /tmp/ccLeM4yf.s:1429   .text._ZN4ltaf7inverseIfLi3ELb0EEENS_6MatrixIT_XT0_EXT0_EXT1_EEERKS3_:00000024 $d
     /tmp/ccLeM4yf.s:1434   .text._ZNK4ltaf20SquareMatrixInverterIfLi4EE3runEPf:00000000 $t
     /tmp/ccLeM4yf.s:1439   .text._ZNK4ltaf20SquareMatrixInverterIfLi4EE3runEPf:00000000 _ZNK4ltaf20SquareMatrixInverterIfLi4EE3runEPf
     /tmp/ccLeM4yf.s:1865   .text._ZNK4ltaf20SquareMatrixInverterIfLi4EE3runEPf:00000210 $d
     /tmp/ccLeM4yf.s:1870   .text._ZNK4ltaf20SquareMatrixInverterIfLi4EE3runEPf:0000021c $t
     /tmp/ccLeM4yf.s:2313   .text._ZNK4ltaf20SquareMatrixInverterIfLi4EE3runEPf:00000450 $d
     /tmp/ccLeM4yf.s:2316   .text._ZNK4ltaf20SquareMatrixInverterIfLi4EE3runEPf:00000458 $t
     /tmp/ccLeM4yf.s:2678   .text._ZNK4ltaf20SquareMatrixInverterIfLi4EE3runEPf:00000658 $d
     /tmp/ccLeM4yf.s:2680   .text._ZNK4ltaf20SquareMatrixInverterIfLi4EE3runEPf:0000065c $t
     /tmp/ccLeM4yf.s:2772   .text._ZNK4ltaf20SquareMatrixInverterIfLi4EE3runEPf:000006d0 $d
     /tmp/ccLeM4yf.s:2777   .text._ZN4ltaf7inverseIfLi4ELb1EEENS_6MatrixIT_XT0_EXT0_EXT1_EEERKS3_:00000000 $t
     /tmp/ccLeM4yf.s:2782   .text._ZN4ltaf7inverseIfLi4ELb1EEENS_6MatrixIT_XT0_EXT0_EXT1_EEERKS3_:00000000 _ZN4ltaf7inverseIfLi4ELb1EEENS_6MatrixIT_XT0_EXT0_EXT1_EEERKS3_
     /tmp/ccLeM4yf.s:2844   .text._ZN4ltaf7inverseIfLi4ELb1EEENS_6MatrixIT_XT0_EXT0_EXT1_EEERKS3_:0000002c $d
     /tmp/ccLeM4yf.s:2849   .text._ZN4ltaf7inverseIfLi4ELb0EEENS_6MatrixIT_XT0_EXT0_EXT1_EEERKS3_:00000000 $t
     /tmp/ccLeM4yf.s:2854   .text._ZN4ltaf7inverseIfLi4ELb0EEENS_6MatrixIT_XT0_EXT0_EXT1_EEERKS3_:00000000 _ZN4ltaf7inverseIfLi4ELb0EEENS_6MatrixIT_XT0_EXT0_EXT1_EEERKS3_
     /tmp/ccLeM4yf.s:2916   .text._ZN4ltaf7inverseIfLi4ELb0EEENS_6MatrixIT_XT0_EXT0_EXT1_EEERKS3_:0000002c $d
     /tmp/ccLeM4yf.s:2922   .text._ZNK4ltaf20SquareMatrixInverterIdLi2EE3runEPd:00000000 $t
     /tmp/ccLeM4yf.s:2927   .text._ZNK4ltaf20SquareMatrixInverterIdLi2EE3runEPd:00000000 _ZNK4ltaf20SquareMatrixInverterIdLi2EE3runEPd
     /tmp/ccLeM4yf.s:3049   .text._ZNK4ltaf20SquareMatrixInverterIdLi2EE3runEPd:000000a0 $d
     /tmp/ccLeM4yf.s:3057   .text._ZN4ltaf7inverseIdLi2ELb1EEENS_6MatrixIT_XT0_EXT0_EXT1_EEERKS3_:00000000 $t
     /tmp/ccLeM4yf.s:3062   .text._ZN4ltaf7inverseIdLi2ELb1EEENS_6MatrixIT_XT0_EXT0_EXT1_EEERKS3_:00000000 _ZN4ltaf7inverseIdLi2ELb1EEENS_6MatrixIT_XT0_EXT0_EXT1_EEERKS3_
     /tmp/ccLeM4yf.s:3118   .text._ZN4ltaf7inverseIdLi2ELb1EEENS_6MatrixIT_XT0_EXT0_EXT1_EEERKS3_:00000024 $d
     /tmp/ccLeM4yf.s:3123   .text._ZN4ltaf7inverseIdLi2ELb0EEENS_6MatrixIT_XT0_EXT0_EXT1_EEERKS3_:00000000 $t
     /tmp/ccLeM4yf.s:3128   .text._ZN4ltaf7inverseIdLi2ELb0EEENS_6MatrixIT_XT0_EXT0_EXT1_EEERKS3_:00000000 _ZN4ltaf7inverseIdLi2ELb0EEENS_6MatrixIT_XT0_EXT0_EXT1_EEERKS3_
     /tmp/ccLeM4yf.s:3184   .text._ZN4ltaf7inverseIdLi2ELb0EEENS_6MatrixIT_XT0_EXT0_EXT1_EEERKS3_:00000024 $d
     /tmp/ccLeM4yf.s:3190   .text._ZNK4ltaf20SquareMatrixInverterIdLi3EE3runEPd:00000000 $t
     /tmp/ccLeM4yf.s:3195   .text._ZNK4ltaf20SquareMatrixInverterIdLi3EE3runEPd:00000000 _ZNK4ltaf20SquareMatrixInverterIdLi3EE3runEPd
     /tmp/ccLeM4yf.s:3522   .text._ZNK4ltaf20SquareMatrixInverterIdLi3EE3runEPd:0000023c $d
     /tmp/ccLeM4yf.s:3531   .text._ZN4ltaf7inverseIdLi3ELb1EEENS_6MatrixIT_XT0_EXT0_EXT1_EEERKS3_:00000000 $t
     /tmp/ccLeM4yf.s:3536   .text._ZN4ltaf7inverseIdLi3ELb1EEENS_6MatrixIT_XT0_EXT0_EXT1_EEERKS3_:00000000 _ZN4ltaf7inverseIdLi3ELb1EEENS_6MatrixIT_XT0_EXT0_EXT1_EEERKS3_
     /tmp/ccLeM4yf.s:3586   .text._ZN4ltaf7inverseIdLi3ELb1EEENS_6MatrixIT_XT0_EXT0_EXT1_EEERKS3_:00000018 $d
     /tmp/ccLeM4yf.s:3592   .text._ZN4ltaf7inverseIdLi3ELb0EEENS_6MatrixIT_XT0_EXT0_EXT1_EEERKS3_:00000000 $t
     /tmp/ccLeM4yf.s:3597   .text._ZN4ltaf7inverseIdLi3ELb0EEENS_6MatrixIT_XT0_EXT0_EXT1_EEERKS3_:00000000 _ZN4ltaf7inverseIdLi3ELb0EEENS_6MatrixIT_XT0_EXT0_EXT1_EEERKS3_
     /tmp/ccLeM4yf.s:3647   .text._ZN4ltaf7inverseIdLi3ELb0EEENS_6MatrixIT_XT0_EXT0_EXT1_EEERKS3_:00000018 $d
     /tmp/ccLeM4yf.s:3653   .text._ZNK4ltaf20SquareMatrixInverterIdLi4EE3runEPd:00000000 $t
     /tmp/ccLeM4yf.s:3658   .text._ZNK4ltaf20SquareMatrixInverterIdLi4EE3runEPd:00000000 _ZNK4ltaf20SquareMatrixInverterIdLi4EE3runEPd
     /tmp/ccLeM4yf.s:3993   .text._ZNK4ltaf20SquareMatrixInverterIdLi4EE3runEPd:00000260 $d
     /tmp/ccLeM4yf.s:3998   .text._ZNK4ltaf20SquareMatrixInverterIdLi4EE3runEPd:0000026c $t
     /tmp/ccLeM4yf.s:4509   .text._ZNK4ltaf20SquareMatrixInverterIdLi4EE3runEPd:00000638 $d
     /tmp/ccLeM4yf.s:4513   .text._ZNK4ltaf20SquareMatrixInverterIdLi4EE3runEPd:00000640 $t
     /tmp/ccLeM4yf.s:5156   .text._ZN4ltaf7inverseIdLi4ELb1EEENS_6MatrixIT_XT0_EXT0_EXT1_EEERKS3_:00000000 $t
     /tmp/ccLeM4yf.s:5161   .text._ZN4ltaf7inverseIdLi4ELb1EEENS_6MatrixIT_XT0_EXT0_EXT1_EEERKS3_:00000000 _ZN4ltaf7inverseIdLi4ELb1EEENS_6MatrixIT_XT0_EXT0_EXT1_EEERKS3_
     /tmp/ccLeM4yf.s:5211   .text._ZN4ltaf7inverseIdLi4ELb1EEENS_6MatrixIT_XT0_EXT0_EXT1_EEERKS3_:00000018 $d
     /tmp/ccLeM4yf.s:5217   .text._ZN4ltaf7inverseIdLi4ELb0EEENS_6MatrixIT_XT0_EXT0_EXT1_EEERKS3_:00000000 $t
     /tmp/ccLeM4yf.s:5222   .text._ZN4ltaf7inverseIdLi4ELb0EEENS_6MatrixIT_XT0_EXT0_EXT1_EEERKS3_:00000000 _ZN4ltaf7inverseIdLi4ELb0EEENS_6MatrixIT_XT0_EXT0_EXT1_EEERKS3_
     /tmp/ccLeM4yf.s:5272   .text._ZN4ltaf7inverseIdLi4ELb0EEENS_6MatrixIT_XT0_EXT0_EXT1_EEERKS3_:00000018 $d
     /tmp/ccLeM4yf.s:5278   .text._ZNK4ltaf17MatrixDeterminantIfLi3EEclEPKf:00000000 $t
     /tmp/ccLeM4yf.s:5283   .text._ZNK4ltaf17MatrixDeterminantIfLi3EEclEPKf:00000000 _ZNK4ltaf17MatrixDeterminantIfLi3EEclEPKf
     /tmp/ccLeM4yf.s:5395   .text._ZNK4ltaf17MatrixDeterminantIfLi3EEclEPKf:0000008c $d
     /tmp/ccLeM4yf.s:5402   .text._ZN4ltaf11determinantIfLi3ELb1EEET_RKNS_6MatrixIS1_XT0_EXT0_EXT1_EEE:00000000 $t
     /tmp/ccLeM4yf.s:5407   .text._ZN4ltaf11determinantIfLi3ELb1EEET_RKNS_6MatrixIS1_XT0_EXT0_EXT1_EEE:00000000 _ZN4ltaf11determinantIfLi3ELb1EEET_RKNS_6MatrixIS1_XT0_EXT0_EXT1_EEE
     /tmp/ccLeM4yf.s:5441   .text._ZN4ltaf11determinantIfLi3ELb1EEET_RKNS_6MatrixIS1_XT0_EXT0_EXT1_EEE:00000010 $d
     /tmp/ccLeM4yf.s:5446   .text._ZN4ltaf11determinantIfLi3ELb0EEET_RKNS_6MatrixIS1_XT0_EXT0_EXT1_EEE:00000000 $t
     /tmp/ccLeM4yf.s:5451   .text._ZN4ltaf11determinantIfLi3ELb0EEET_RKNS_6MatrixIS1_XT0_EXT0_EXT1_EEE:00000000 _ZN4ltaf11determinantIfLi3ELb0EEET_RKNS_6MatrixIS1_XT0_EXT0_EXT1_EEE
     /tmp/ccLeM4yf.s:5485   .text._ZN4ltaf11determinantIfLi3ELb0EEET_RKNS_6MatrixIS1_XT0_EXT0_EXT1_EEE:00000010 $d
     /tmp/ccLeM4yf.s:5490   .text._ZNK4ltaf17MatrixDeterminantIfLi4EEclEPKf:00000000 $t
     /tmp/ccLeM4yf.s:5495   .text._ZNK4ltaf17MatrixDeterminantIfLi4EEclEPKf:00000000 _ZNK4ltaf17MatrixDeterminantIfLi4EEclEPKf
     /tmp/ccLeM4yf.s:5943   .text._ZNK4ltaf17MatrixDeterminantIfLi4EEclEPKf:00000218 $d
     /tmp/ccLeM4yf.s:5947   .text._ZNK4ltaf17MatrixDeterminantIfLi4EEclEPKf:00000224 $t
     /tmp/ccLeM4yf.s:5952   .text._ZN4ltaf11determinantIfLi4ELb1EEET_RKNS_6MatrixIS1_XT0_EXT0_EXT1_EEE:00000000 $t
     /tmp/ccLeM4yf.s:5957   .text._ZN4ltaf11determinantIfLi4ELb1EEET_RKNS_6MatrixIS1_XT0_EXT0_EXT1_EEE:00000000 _ZN4ltaf11determinantIfLi4ELb1EEET_RKNS_6MatrixIS1_XT0_EXT0_EXT1_EEE
     /tmp/ccLeM4yf.s:5991   .text._ZN4ltaf11determinantIfLi4ELb1EEET_RKNS_6MatrixIS1_XT0_EXT0_EXT1_EEE:00000010 $d
     /tmp/ccLeM4yf.s:5996   .text._ZN4ltaf11determinantIfLi4ELb0EEET_RKNS_6MatrixIS1_XT0_EXT0_EXT1_EEE:00000000 $t
     /tmp/ccLeM4yf.s:6001   .text._ZN4ltaf11determinantIfLi4ELb0EEET_RKNS_6MatrixIS1_XT0_EXT0_EXT1_EEE:00000000 _ZN4ltaf11determinantIfLi4ELb0EEET_RKNS_6MatrixIS1_XT0_EXT0_EXT1_EEE
     /tmp/ccLeM4yf.s:6035   .text._ZN4ltaf11determinantIfLi4ELb0EEET_RKNS_6MatrixIS1_XT0_EXT0_EXT1_EEE:00000010 $d
     /tmp/ccLeM4yf.s:6040   .text._ZNK4ltaf17MatrixDeterminantIdLi3EEclEPKd:00000000 $t
     /tmp/ccLeM4yf.s:6045   .text._ZNK4ltaf17MatrixDeterminantIdLi3EEclEPKd:00000000 _ZNK4ltaf17MatrixDeterminantIdLi3EEclEPKd
     /tmp/ccLeM4yf.s:6168   .text._ZNK4ltaf17MatrixDeterminantIdLi3EEclEPKd:000000d8 $d
     /tmp/ccLeM4yf.s:6175   .text._ZN4ltaf11determinantIdLi3ELb1EEET_RKNS_6MatrixIS1_XT0_EXT0_EXT1_EEE:00000000 $t
     /tmp/ccLeM4yf.s:6180   .text._ZN4ltaf11determinantIdLi3ELb1EEET_RKNS_6MatrixIS1_XT0_EXT0_EXT1_EEE:00000000 _ZN4ltaf11determinantIdLi3ELb1EEET_RKNS_6MatrixIS1_XT0_EXT0_EXT1_EEE
     /tmp/ccLeM4yf.s:6214   .text._ZN4ltaf11determinantIdLi3ELb1EEET_RKNS_6MatrixIS1_XT0_EXT0_EXT1_EEE:00000010 $d
     /tmp/ccLeM4yf.s:6219   .text._ZN4ltaf11determinantIdLi3ELb0EEET_RKNS_6MatrixIS1_XT0_EXT0_EXT1_EEE:00000000 $t
     /tmp/ccLeM4yf.s:6224   .text._ZN4ltaf11determinantIdLi3ELb0EEET_RKNS_6MatrixIS1_XT0_EXT0_EXT1_EEE:00000000 _ZN4ltaf11determinantIdLi3ELb0EEET_RKNS_6MatrixIS1_XT0_EXT0_EXT1_EEE
     /tmp/ccLeM4yf.s:6258   .text._ZN4ltaf11determinantIdLi3ELb0EEET_RKNS_6MatrixIS1_XT0_EXT0_EXT1_EEE:00000010 $d
     /tmp/ccLeM4yf.s:6263   .text._ZNK4ltaf17MatrixDeterminantIdLi4EEclEPKd:00000000 $t
     /tmp/ccLeM4yf.s:6268   .text._ZNK4ltaf17MatrixDeterminantIdLi4EEclEPKd:00000000 _ZNK4ltaf17MatrixDeterminantIdLi4EEclEPKd
     /tmp/ccLeM4yf.s:6641   .text._ZNK4ltaf17MatrixDeterminantIdLi4EEclEPKd:00000274 $d
     /tmp/ccLeM4yf.s:6645   .text._ZNK4ltaf17MatrixDeterminantIdLi4EEclEPKd:00000280 $t
     /tmp/ccLeM4yf.s:6774   .text._ZN4ltaf11determinantIdLi4ELb1EEET_RKNS_6MatrixIS1_XT0_EXT0_EXT1_EEE:00000000 $t
     /tmp/ccLeM4yf.s:6779   .text._ZN4ltaf11determinantIdLi4ELb1EEET_RKNS_6MatrixIS1_XT0_EXT0_EXT1_EEE:00000000 _ZN4ltaf11determinantIdLi4ELb1EEET_RKNS_6MatrixIS1_XT0_EXT0_EXT1_EEE
     /tmp/ccLeM4yf.s:6813   .text._ZN4ltaf11determinantIdLi4ELb1EEET_RKNS_6MatrixIS1_XT0_EXT0_EXT1_EEE:00000010 $d
     /tmp/ccLeM4yf.s:6818   .text._ZN4ltaf11determinantIdLi4ELb0EEET_RKNS_6MatrixIS1_XT0_EXT0_EXT1_EEE:00000000 $t
     /tmp/ccLeM4yf.s:6823   .text._ZN4ltaf11determinantIdLi4ELb0EEET_RKNS_6MatrixIS1_XT0_EXT0_EXT1_EEE:00000000 _ZN4ltaf11determinantIdLi4ELb0EEET_RKNS_6MatrixIS1_XT0_EXT0_EXT1_EEE
     /tmp/ccLeM4yf.s:6857   .text._ZN4ltaf11determinantIdLi4ELb0EEET_RKNS_6MatrixIS1_XT0_EXT0_EXT1_EEE:00000010 $d
     /tmp/ccLeM4yf.s:6862   .text.startup._GLOBAL__sub_I_initialize_optical_zoom_manager:00000000 $t
     /tmp/ccLeM4yf.s:6866   .text.startup._GLOBAL__sub_I_initialize_optical_zoom_manager:00000000 _GLOBAL__sub_I_initialize_optical_zoom_manager
     /tmp/ccLeM4yf.s:6899   .text.startup._GLOBAL__sub_I_initialize_optical_zoom_manager:00000014 $d
     /tmp/ccLeM4yf.s:6909   .init_array:00000000 $d
     /tmp/ccLeM4yf.s:6917   .bss._ZN20optical_zoom_manager9instance_E:00000000 _ZN20optical_zoom_manager9instance_E
     /tmp/ccLeM4yf.s:6913   .bss._ZN20optical_zoom_manager9instance_E:00000000 $d
                     .debug_frame:00000010 $d

UNDEFINED SYMBOLS
vQueueDelete
xQueueGenericSend
__aeabi_fmul
__aeabi_fsub
__aeabi_fdiv
__aeabi_dmul
__aeabi_dsub
xQueueCreateCountingSemaphore
slogf
light_system
module_to_idx
idx_to_object
cam_move_mirr_to_position
__aeabi_fcmpge
_ZN18calib_data_manager8instanceEv
_ZNK4ltaf15OpticalZoomASIC25getHallCodesByFocalLengthEfPs
xQueueGenericReceive
__aeabi_fadd
__aeabi_ddiv
__aeabi_dadd
memcpy
__dso_handle
__aeabi_atexit
