   1              		.syntax unified
   2              		.cpu cortex-r4
   3              		.fpu softvfp
   4              		.eabi_attribute 20, 1
   5              		.eabi_attribute 21, 1
   6              		.eabi_attribute 23, 3
   7              		.eabi_attribute 24, 1
   8              		.eabi_attribute 25, 1
   9              		.eabi_attribute 26, 1
  10              		.eabi_attribute 30, 4
  11              		.eabi_attribute 34, 1
  12              		.eabi_attribute 18, 4
  13              		.thumb
  14              		.file	"optical_zoom_manager.cpp"
  15              		.text
  16              	.Ltext0:
  17              		.cfi_sections	.debug_frame
  18              		.section	.text._ZN20optical_zoom_managerD2Ev,"ax",%progbits
  19              		.align	1
  20              		.global	_ZN20optical_zoom_managerD2Ev
  21              		.thumb
  22              		.thumb_func
  24              	_ZN20optical_zoom_managerD2Ev:
  25              	.LFB3509:
  26              		.file 1 "/home/tienluong/workspace/atlantis_fw/AsicFwS2/src/optical_zoom_manager.cpp"
   1:/home/tienluong/workspace/atlantis_fw/AsicFwS2/src/optical_zoom_manager.cpp **** /*******************************************************************************
   2:/home/tienluong/workspace/atlantis_fw/AsicFwS2/src/optical_zoom_manager.cpp ****  * Copyright (c) 2016, The LightCo
   3:/home/tienluong/workspace/atlantis_fw/AsicFwS2/src/optical_zoom_manager.cpp ****  * All rights reserved.
   4:/home/tienluong/workspace/atlantis_fw/AsicFwS2/src/optical_zoom_manager.cpp ****  * Redistribution and use in source and binary forms, with or without
   5:/home/tienluong/workspace/atlantis_fw/AsicFwS2/src/optical_zoom_manager.cpp ****  * modification, are strictly prohibited without prior permission
   6:/home/tienluong/workspace/atlantis_fw/AsicFwS2/src/optical_zoom_manager.cpp ****  * of The LightCo.
   7:/home/tienluong/workspace/atlantis_fw/AsicFwS2/src/optical_zoom_manager.cpp ****  *
   8:/home/tienluong/workspace/atlantis_fw/AsicFwS2/src/optical_zoom_manager.cpp ****  * @file    optical_zoom_manager.cpp
   9:/home/tienluong/workspace/atlantis_fw/AsicFwS2/src/optical_zoom_manager.cpp ****  * @author  The LightCo
  10:/home/tienluong/workspace/atlantis_fw/AsicFwS2/src/optical_zoom_manager.cpp ****  * @version V1.0.0
  11:/home/tienluong/workspace/atlantis_fw/AsicFwS2/src/optical_zoom_manager.cpp ****  * @date    Oct-13-2016
  12:/home/tienluong/workspace/atlantis_fw/AsicFwS2/src/optical_zoom_manager.cpp ****  * @brief   Optical zoom manager singleton
  13:/home/tienluong/workspace/atlantis_fw/AsicFwS2/src/optical_zoom_manager.cpp ****  *
  14:/home/tienluong/workspace/atlantis_fw/AsicFwS2/src/optical_zoom_manager.cpp ****  ******************************************************************************/
  15:/home/tienluong/workspace/atlantis_fw/AsicFwS2/src/optical_zoom_manager.cpp **** 
  16:/home/tienluong/workspace/atlantis_fw/AsicFwS2/src/optical_zoom_manager.cpp **** #include "light_system.h"
  17:/home/tienluong/workspace/atlantis_fw/AsicFwS2/src/optical_zoom_manager.cpp **** #include "log.h"
  18:/home/tienluong/workspace/atlantis_fw/AsicFwS2/src/optical_zoom_manager.cpp **** #include "calib_data_manager.h"
  19:/home/tienluong/workspace/atlantis_fw/AsicFwS2/src/optical_zoom_manager.cpp **** #include "optical_zoom_manager.h"
  20:/home/tienluong/workspace/atlantis_fw/AsicFwS2/src/optical_zoom_manager.cpp **** 
  21:/home/tienluong/workspace/atlantis_fw/AsicFwS2/src/optical_zoom_manager.cpp **** #define SLOGF_ID                SLOG_ID_AF
  22:/home/tienluong/workspace/atlantis_fw/AsicFwS2/src/optical_zoom_manager.cpp **** 
  23:/home/tienluong/workspace/atlantis_fw/AsicFwS2/src/optical_zoom_manager.cpp **** 
  24:/home/tienluong/workspace/atlantis_fw/AsicFwS2/src/optical_zoom_manager.cpp **** extern "C" void initialize_optical_zoom_manager() {
  25:/home/tienluong/workspace/atlantis_fw/AsicFwS2/src/optical_zoom_manager.cpp ****     optical_zoom_manager::instance().initialize();
  26:/home/tienluong/workspace/atlantis_fw/AsicFwS2/src/optical_zoom_manager.cpp **** }
  27:/home/tienluong/workspace/atlantis_fw/AsicFwS2/src/optical_zoom_manager.cpp **** 
  28:/home/tienluong/workspace/atlantis_fw/AsicFwS2/src/optical_zoom_manager.cpp **** optical_zoom_manager optical_zoom_manager::instance_{};
  29:/home/tienluong/workspace/atlantis_fw/AsicFwS2/src/optical_zoom_manager.cpp **** 
  30:/home/tienluong/workspace/atlantis_fw/AsicFwS2/src/optical_zoom_manager.cpp **** optical_zoom_manager::optical_zoom_manager() :
  31:/home/tienluong/workspace/atlantis_fw/AsicFwS2/src/optical_zoom_manager.cpp ****         mirror_move_done_sem_{nullptr} {
  32:/home/tienluong/workspace/atlantis_fw/AsicFwS2/src/optical_zoom_manager.cpp **** }
  33:/home/tienluong/workspace/atlantis_fw/AsicFwS2/src/optical_zoom_manager.cpp **** 
  34:/home/tienluong/workspace/atlantis_fw/AsicFwS2/src/optical_zoom_manager.cpp **** optical_zoom_manager::~optical_zoom_manager() {
  27              		.loc 1 34 0
  28              		.cfi_startproc
  29              		@ args = 0, pretend = 0, frame = 0
  30              		@ frame_needed = 0, uses_anonymous_args = 0
  31              	.LVL0:
  32 0000 10B5     		push	{r4, lr}
  33              	.LCFI0:
  34              		.cfi_def_cfa_offset 8
  35              		.cfi_offset 4, -8
  36              		.cfi_offset 14, -4
  37              		.loc 1 34 0
  38 0002 0446     		mov	r4, r0
  39              	.LBB125:
  35:/home/tienluong/workspace/atlantis_fw/AsicFwS2/src/optical_zoom_manager.cpp ****     if (mirror_move_done_sem_ != nullptr)
  40              		.loc 1 35 0
  41 0004 0068     		ldr	r0, [r0]
  42              	.LVL1:
  43 0006 08B1     		cbz	r0, .L2
  36:/home/tienluong/workspace/atlantis_fw/AsicFwS2/src/optical_zoom_manager.cpp ****         vSemaphoreDelete(mirror_move_done_sem_);
  44              		.loc 1 36 0
  45 0008 014B     		ldr	r3, .L7
  46 000a 9847     		blx	r3
  47              	.LVL2:
  48              	.L2:
  49              	.LBE125:
  37:/home/tienluong/workspace/atlantis_fw/AsicFwS2/src/optical_zoom_manager.cpp **** }
  50              		.loc 1 37 0
  51 000c 2046     		mov	r0, r4
  52 000e 10BD     		pop	{r4, pc}
  53              	.LVL3:
  54              	.L8:
  55              		.align	2
  56              	.L7:
  57 0010 00000000 		.word	vQueueDelete
  58              		.cfi_endproc
  59              	.LFE3509:
  61              		.global	_ZN20optical_zoom_managerD1Ev
  62              		.thumb_set _ZN20optical_zoom_managerD1Ev,_ZN20optical_zoom_managerD2Ev
  63              		.section	.text._ZN12_GLOBAL__N_120move_mirror_callbackEPv,"ax",%progbits
  64              		.align	1
  65              		.thumb
  66              		.thumb_func
  68              	_ZN12_GLOBAL__N_120move_mirror_callbackEPv:
  69              	.LFB3512:
  38:/home/tienluong/workspace/atlantis_fw/AsicFwS2/src/optical_zoom_manager.cpp **** 
  39:/home/tienluong/workspace/atlantis_fw/AsicFwS2/src/optical_zoom_manager.cpp **** void optical_zoom_manager::initialize() {
  40:/home/tienluong/workspace/atlantis_fw/AsicFwS2/src/optical_zoom_manager.cpp ****     mirror_move_done_sem_ = xSemaphoreCreateCounting(MAX_NUM_MIRROR , 0);
  41:/home/tienluong/workspace/atlantis_fw/AsicFwS2/src/optical_zoom_manager.cpp **** }
  42:/home/tienluong/workspace/atlantis_fw/AsicFwS2/src/optical_zoom_manager.cpp **** 
  43:/home/tienluong/workspace/atlantis_fw/AsicFwS2/src/optical_zoom_manager.cpp **** namespace {
  44:/home/tienluong/workspace/atlantis_fw/AsicFwS2/src/optical_zoom_manager.cpp ****     void move_mirror_callback(void* user_data) {
  70              		.loc 1 44 0
  71              		.cfi_startproc
  72              		@ args = 0, pretend = 0, frame = 0
  73              		@ frame_needed = 0, uses_anonymous_args = 0
  74              	.LVL4:
  75              	.LBB126:
  45:/home/tienluong/workspace/atlantis_fw/AsicFwS2/src/optical_zoom_manager.cpp ****         SemaphoreHandle_t sem = *static_cast<SemaphoreHandle_t*>(user_data);
  46:/home/tienluong/workspace/atlantis_fw/AsicFwS2/src/optical_zoom_manager.cpp ****         xSemaphoreGive(sem);
  76              		.loc 1 46 0
  77 0000 0021     		movs	r1, #0
  78              	.LBE126:
  44:/home/tienluong/workspace/atlantis_fw/AsicFwS2/src/optical_zoom_manager.cpp ****         SemaphoreHandle_t sem = *static_cast<SemaphoreHandle_t*>(user_data);
  79              		.loc 1 44 0
  80 0002 10B5     		push	{r4, lr}
  81              	.LCFI1:
  82              		.cfi_def_cfa_offset 8
  83              		.cfi_offset 4, -8
  84              		.cfi_offset 14, -4
  85              	.LBB127:
  86              		.loc 1 46 0
  87 0004 0A46     		mov	r2, r1
  88 0006 0B46     		mov	r3, r1
  89 0008 014C     		ldr	r4, .L10
  90 000a 0068     		ldr	r0, [r0]
  91              	.LVL5:
  92 000c A047     		blx	r4
  93              	.LVL6:
  94 000e 10BD     		pop	{r4, pc}
  95              	.L11:
  96              		.align	2
  97              	.L10:
  98 0010 00000000 		.word	xQueueGenericSend
  99              	.LBE127:
 100              		.cfi_endproc
 101              	.LFE3512:
 103              		.global	__aeabi_fmul
 104              		.global	__aeabi_fsub
 105              		.global	__aeabi_fdiv
 106              		.section	.text._ZNK4ltaf20SquareMatrixInverterIfLi2EE3runEPf.isra.1,"ax",%progbits
 107              		.align	1
 108              		.thumb
 109              		.thumb_func
 111              	_ZNK4ltaf20SquareMatrixInverterIfLi2EE3runEPf.isra.1:
 112              	.LFB3786:
 113              		.file 2 "/home/tienluong/workspace/atlantis_fw/AsicFwS2/include/matrix.h"
   1:/home/tienluong/workspace/atlantis_fw/AsicFwS2/include/matrix.h **** // we want to have support for the following:
   2:/home/tienluong/workspace/atlantis_fw/AsicFwS2/include/matrix.h **** // matrix3x3f, matrix4x4f, vec2f, vec3f, vec4f
   3:/home/tienluong/workspace/atlantis_fw/AsicFwS2/include/matrix.h **** // plus, minus, multiplication, inverse, transpose
   4:/home/tienluong/workspace/atlantis_fw/AsicFwS2/include/matrix.h **** 
   5:/home/tienluong/workspace/atlantis_fw/AsicFwS2/include/matrix.h **** #ifndef __MATRIX_H__
   6:/home/tienluong/workspace/atlantis_fw/AsicFwS2/include/matrix.h **** #define __MATRIX_H__
   7:/home/tienluong/workspace/atlantis_fw/AsicFwS2/include/matrix.h **** 
   8:/home/tienluong/workspace/atlantis_fw/AsicFwS2/include/matrix.h **** #ifdef __cplusplus
   9:/home/tienluong/workspace/atlantis_fw/AsicFwS2/include/matrix.h **** 
  10:/home/tienluong/workspace/atlantis_fw/AsicFwS2/include/matrix.h **** #include <cstdlib>
  11:/home/tienluong/workspace/atlantis_fw/AsicFwS2/include/matrix.h **** #include <algorithm> // has compile problem...
  12:/home/tienluong/workspace/atlantis_fw/AsicFwS2/include/matrix.h **** #include <cmath>
  13:/home/tienluong/workspace/atlantis_fw/AsicFwS2/include/matrix.h **** 
  14:/home/tienluong/workspace/atlantis_fw/AsicFwS2/include/matrix.h **** namespace ltaf { // lt auto focus
  15:/home/tienluong/workspace/atlantis_fw/AsicFwS2/include/matrix.h **** 
  16:/home/tienluong/workspace/atlantis_fw/AsicFwS2/include/matrix.h **** // -----------------------------------------------------------
  17:/home/tienluong/workspace/atlantis_fw/AsicFwS2/include/matrix.h **** // 			Vec2 class
  18:/home/tienluong/workspace/atlantis_fw/AsicFwS2/include/matrix.h **** // -----------------------------------------------------------
  19:/home/tienluong/workspace/atlantis_fw/AsicFwS2/include/matrix.h **** template<typename T>
  20:/home/tienluong/workspace/atlantis_fw/AsicFwS2/include/matrix.h **** class Vec2
  21:/home/tienluong/workspace/atlantis_fw/AsicFwS2/include/matrix.h **** {
  22:/home/tienluong/workspace/atlantis_fw/AsicFwS2/include/matrix.h **** public:
  23:/home/tienluong/workspace/atlantis_fw/AsicFwS2/include/matrix.h ****     Vec2() {}
  24:/home/tienluong/workspace/atlantis_fw/AsicFwS2/include/matrix.h ****     Vec2( T t ) : _x( t ), _y( t ) {}
  25:/home/tienluong/workspace/atlantis_fw/AsicFwS2/include/matrix.h ****     Vec2( T x, T y ) : _x( x ), _y( y ) {}
  26:/home/tienluong/workspace/atlantis_fw/AsicFwS2/include/matrix.h ****     Vec2( const Vec2 & t ) : _x( t._x ), _y( t._y ) {}
  27:/home/tienluong/workspace/atlantis_fw/AsicFwS2/include/matrix.h **** 
  28:/home/tienluong/workspace/atlantis_fw/AsicFwS2/include/matrix.h ****     template<typename U>
  29:/home/tienluong/workspace/atlantis_fw/AsicFwS2/include/matrix.h ****     explicit Vec2( const Vec2<U> & t )
  30:/home/tienluong/workspace/atlantis_fw/AsicFwS2/include/matrix.h ****         : _x( static_cast<T>( t.x() ) )
  31:/home/tienluong/workspace/atlantis_fw/AsicFwS2/include/matrix.h ****         , _y( static_cast<T>( t.y() ) ) {}
  32:/home/tienluong/workspace/atlantis_fw/AsicFwS2/include/matrix.h **** 
  33:/home/tienluong/workspace/atlantis_fw/AsicFwS2/include/matrix.h ****     Vec2 & operator=( const Vec2 & t )
  34:/home/tienluong/workspace/atlantis_fw/AsicFwS2/include/matrix.h ****     { _x = t._x; _y = t._y; return *this; }
  35:/home/tienluong/workspace/atlantis_fw/AsicFwS2/include/matrix.h **** 
  36:/home/tienluong/workspace/atlantis_fw/AsicFwS2/include/matrix.h ****     Vec2 & operator/=( const Vec2 & t )
  37:/home/tienluong/workspace/atlantis_fw/AsicFwS2/include/matrix.h ****     { _x /= t._x; _y /= t._y; return *this; }
  38:/home/tienluong/workspace/atlantis_fw/AsicFwS2/include/matrix.h **** 
  39:/home/tienluong/workspace/atlantis_fw/AsicFwS2/include/matrix.h ****     Vec2 & operator%=( const Vec2 & t )
  40:/home/tienluong/workspace/atlantis_fw/AsicFwS2/include/matrix.h ****     { _x %= t._x; _y %= t._y; return *this; }
  41:/home/tienluong/workspace/atlantis_fw/AsicFwS2/include/matrix.h **** 
  42:/home/tienluong/workspace/atlantis_fw/AsicFwS2/include/matrix.h ****     Vec2 & operator*=( const Vec2 & t )
  43:/home/tienluong/workspace/atlantis_fw/AsicFwS2/include/matrix.h ****     { _x *= t._x; _y *= t._y; return *this; }
  44:/home/tienluong/workspace/atlantis_fw/AsicFwS2/include/matrix.h **** 
  45:/home/tienluong/workspace/atlantis_fw/AsicFwS2/include/matrix.h ****     Vec2 & operator+=( const Vec2 & t )
  46:/home/tienluong/workspace/atlantis_fw/AsicFwS2/include/matrix.h ****     { _x += t._x; _y += t._y; return *this; }
  47:/home/tienluong/workspace/atlantis_fw/AsicFwS2/include/matrix.h **** 
  48:/home/tienluong/workspace/atlantis_fw/AsicFwS2/include/matrix.h ****     Vec2 & operator-=( const Vec2 & t )
  49:/home/tienluong/workspace/atlantis_fw/AsicFwS2/include/matrix.h ****     { _x -= t._x; _y -= t._y; return *this; }
  50:/home/tienluong/workspace/atlantis_fw/AsicFwS2/include/matrix.h **** 
  51:/home/tienluong/workspace/atlantis_fw/AsicFwS2/include/matrix.h ****     Vec2 & operator&=( const Vec2 & t )
  52:/home/tienluong/workspace/atlantis_fw/AsicFwS2/include/matrix.h ****     { _x &= t._x; _y &= t._y; return *this; }
  53:/home/tienluong/workspace/atlantis_fw/AsicFwS2/include/matrix.h **** 
  54:/home/tienluong/workspace/atlantis_fw/AsicFwS2/include/matrix.h ****     Vec2 & operator|=( const Vec2 & t )
  55:/home/tienluong/workspace/atlantis_fw/AsicFwS2/include/matrix.h ****     { _x |= t._x; _y |= t._y; return *this; }
  56:/home/tienluong/workspace/atlantis_fw/AsicFwS2/include/matrix.h **** 
  57:/home/tienluong/workspace/atlantis_fw/AsicFwS2/include/matrix.h ****     Vec2 & operator>>=( int t )
  58:/home/tienluong/workspace/atlantis_fw/AsicFwS2/include/matrix.h ****     { _x >>= t; _y >>= t; return *this; }
  59:/home/tienluong/workspace/atlantis_fw/AsicFwS2/include/matrix.h **** 
  60:/home/tienluong/workspace/atlantis_fw/AsicFwS2/include/matrix.h ****     Vec2 & operator<<=( int t )
  61:/home/tienluong/workspace/atlantis_fw/AsicFwS2/include/matrix.h ****     { _x <<= t; _y <<= t; return *this; }
  62:/home/tienluong/workspace/atlantis_fw/AsicFwS2/include/matrix.h **** 
  63:/home/tienluong/workspace/atlantis_fw/AsicFwS2/include/matrix.h ****     Vec2 operator-() const { return { -_x, -_y}; }
  64:/home/tienluong/workspace/atlantis_fw/AsicFwS2/include/matrix.h **** 
  65:/home/tienluong/workspace/atlantis_fw/AsicFwS2/include/matrix.h ****     template<typename U> Vec2<typename std::common_type<T, U>::type>
  66:/home/tienluong/workspace/atlantis_fw/AsicFwS2/include/matrix.h ****     operator+( const Vec2<U> & t ) const { return { _x + t.x(), _y + t.y() }; }
  67:/home/tienluong/workspace/atlantis_fw/AsicFwS2/include/matrix.h **** 
  68:/home/tienluong/workspace/atlantis_fw/AsicFwS2/include/matrix.h ****     template<typename U> Vec2<typename std::common_type<T, U>::type>
  69:/home/tienluong/workspace/atlantis_fw/AsicFwS2/include/matrix.h ****     operator-( const Vec2<U> & t ) const { return { _x - t.x(), _y - t.y() }; }
  70:/home/tienluong/workspace/atlantis_fw/AsicFwS2/include/matrix.h **** 
  71:/home/tienluong/workspace/atlantis_fw/AsicFwS2/include/matrix.h ****     template<typename U> Vec2<typename std::common_type<T, U>::type>
  72:/home/tienluong/workspace/atlantis_fw/AsicFwS2/include/matrix.h ****     operator*( const Vec2<U> & t ) const { return { _x * t.x(), _y * t.y() }; }
  73:/home/tienluong/workspace/atlantis_fw/AsicFwS2/include/matrix.h **** 
  74:/home/tienluong/workspace/atlantis_fw/AsicFwS2/include/matrix.h ****     template<typename U> Vec2<typename std::common_type<T, U>::type>
  75:/home/tienluong/workspace/atlantis_fw/AsicFwS2/include/matrix.h ****     operator/( const Vec2<U> & t ) const { return { _x / t.x(), _y / t.y() }; }
  76:/home/tienluong/workspace/atlantis_fw/AsicFwS2/include/matrix.h **** 
  77:/home/tienluong/workspace/atlantis_fw/AsicFwS2/include/matrix.h ****     template < typename U,
  78:/home/tienluong/workspace/atlantis_fw/AsicFwS2/include/matrix.h ****                typename = typename std::enable_if < std::is_integral<T>::value && std::is_integral<
  79:/home/tienluong/workspace/atlantis_fw/AsicFwS2/include/matrix.h ****     Vec2<typename std::common_type<T, U>::type>
  80:/home/tienluong/workspace/atlantis_fw/AsicFwS2/include/matrix.h ****     operator%( const Vec2<U> & t ) const { return { _x % t.x(), _y % t.y() }; }
  81:/home/tienluong/workspace/atlantis_fw/AsicFwS2/include/matrix.h **** 
  82:/home/tienluong/workspace/atlantis_fw/AsicFwS2/include/matrix.h ****     template < typename U,
  83:/home/tienluong/workspace/atlantis_fw/AsicFwS2/include/matrix.h ****                typename = typename std::enable_if < std::is_arithmetic<U>::value >::type >
  84:/home/tienluong/workspace/atlantis_fw/AsicFwS2/include/matrix.h ****     Vec2<typename std::common_type<T, U>::type>
  85:/home/tienluong/workspace/atlantis_fw/AsicFwS2/include/matrix.h ****     operator+( U t ) const { return { _x + t, _y + t }; }
  86:/home/tienluong/workspace/atlantis_fw/AsicFwS2/include/matrix.h **** 
  87:/home/tienluong/workspace/atlantis_fw/AsicFwS2/include/matrix.h ****     template < typename U,
  88:/home/tienluong/workspace/atlantis_fw/AsicFwS2/include/matrix.h ****                typename = typename std::enable_if < std::is_arithmetic<U>::value >::type >
  89:/home/tienluong/workspace/atlantis_fw/AsicFwS2/include/matrix.h ****     Vec2<typename std::common_type<T, U>::type>
  90:/home/tienluong/workspace/atlantis_fw/AsicFwS2/include/matrix.h ****     operator-( U t ) const { return { _x - t, _y - t }; }
  91:/home/tienluong/workspace/atlantis_fw/AsicFwS2/include/matrix.h **** 
  92:/home/tienluong/workspace/atlantis_fw/AsicFwS2/include/matrix.h ****     template < typename U,
  93:/home/tienluong/workspace/atlantis_fw/AsicFwS2/include/matrix.h ****                typename = typename std::enable_if < std::is_arithmetic<U>::value >::type >
  94:/home/tienluong/workspace/atlantis_fw/AsicFwS2/include/matrix.h ****     Vec2<typename std::common_type<T, U>::type>
  95:/home/tienluong/workspace/atlantis_fw/AsicFwS2/include/matrix.h ****     operator*( U t ) const { return { _x * t, _y * t }; }
  96:/home/tienluong/workspace/atlantis_fw/AsicFwS2/include/matrix.h **** 
  97:/home/tienluong/workspace/atlantis_fw/AsicFwS2/include/matrix.h ****     template < typename U,
  98:/home/tienluong/workspace/atlantis_fw/AsicFwS2/include/matrix.h ****                typename = typename std::enable_if < std::is_arithmetic<U>::value >::type >
  99:/home/tienluong/workspace/atlantis_fw/AsicFwS2/include/matrix.h ****     Vec2<typename std::common_type<T, U>::type>
 100:/home/tienluong/workspace/atlantis_fw/AsicFwS2/include/matrix.h ****     operator/( U t ) const { return { _x / t, _y / t }; }
 101:/home/tienluong/workspace/atlantis_fw/AsicFwS2/include/matrix.h **** 
 102:/home/tienluong/workspace/atlantis_fw/AsicFwS2/include/matrix.h ****     template < typename U,
 103:/home/tienluong/workspace/atlantis_fw/AsicFwS2/include/matrix.h ****                typename = typename std::enable_if < std::is_integral<T>::value && std::is_integral<
 104:/home/tienluong/workspace/atlantis_fw/AsicFwS2/include/matrix.h ****     Vec2<typename std::common_type<T, U>::type>
 105:/home/tienluong/workspace/atlantis_fw/AsicFwS2/include/matrix.h ****     operator%( U t ) const { return { _x % t, _y % t }; }
 106:/home/tienluong/workspace/atlantis_fw/AsicFwS2/include/matrix.h **** 
 107:/home/tienluong/workspace/atlantis_fw/AsicFwS2/include/matrix.h ****     T min() const { return std::min( _x, _y ); }
 108:/home/tienluong/workspace/atlantis_fw/AsicFwS2/include/matrix.h ****     T max() const { return std::max( _x, _y ); }
 109:/home/tienluong/workspace/atlantis_fw/AsicFwS2/include/matrix.h ****     T sum() const { return _x + _y; }
 110:/home/tienluong/workspace/atlantis_fw/AsicFwS2/include/matrix.h ****     T dot( const Vec2<T> & t ) const { return _x * t.x() + _y * t.y(); }
 111:/home/tienluong/workspace/atlantis_fw/AsicFwS2/include/matrix.h **** 
 112:/home/tienluong/workspace/atlantis_fw/AsicFwS2/include/matrix.h ****     Vec2 abs() const { return { std::abs( _x ), std::abs( _y ) }; }
 113:/home/tienluong/workspace/atlantis_fw/AsicFwS2/include/matrix.h ****     
 114:/home/tienluong/workspace/atlantis_fw/AsicFwS2/include/matrix.h ****     const T & x() const { return _x; }
 115:/home/tienluong/workspace/atlantis_fw/AsicFwS2/include/matrix.h ****     const T & y() const { return _y; }
 116:/home/tienluong/workspace/atlantis_fw/AsicFwS2/include/matrix.h **** 
 117:/home/tienluong/workspace/atlantis_fw/AsicFwS2/include/matrix.h ****     void setX( T x ) { _x = x; }
 118:/home/tienluong/workspace/atlantis_fw/AsicFwS2/include/matrix.h ****     void setY( T y ) { _y = y; }
 119:/home/tienluong/workspace/atlantis_fw/AsicFwS2/include/matrix.h **** 
 120:/home/tienluong/workspace/atlantis_fw/AsicFwS2/include/matrix.h **** private:
 121:/home/tienluong/workspace/atlantis_fw/AsicFwS2/include/matrix.h **** 	T _x, _y;
 122:/home/tienluong/workspace/atlantis_fw/AsicFwS2/include/matrix.h **** };
 123:/home/tienluong/workspace/atlantis_fw/AsicFwS2/include/matrix.h **** 
 124:/home/tienluong/workspace/atlantis_fw/AsicFwS2/include/matrix.h **** 
 125:/home/tienluong/workspace/atlantis_fw/AsicFwS2/include/matrix.h **** // basic add/sub/mul/div operators
 126:/home/tienluong/workspace/atlantis_fw/AsicFwS2/include/matrix.h **** template < typename T, typename U,
 127:/home/tienluong/workspace/atlantis_fw/AsicFwS2/include/matrix.h ****            typename = typename std::enable_if < std::is_arithmetic<T>::value >::type >
 128:/home/tienluong/workspace/atlantis_fw/AsicFwS2/include/matrix.h **** Vec2<typename std::common_type<T, U>::type>
 129:/home/tienluong/workspace/atlantis_fw/AsicFwS2/include/matrix.h **** operator+( T a, const Vec2<U> & b ) { return b + a; }
 130:/home/tienluong/workspace/atlantis_fw/AsicFwS2/include/matrix.h **** 
 131:/home/tienluong/workspace/atlantis_fw/AsicFwS2/include/matrix.h **** template < typename T, typename U,
 132:/home/tienluong/workspace/atlantis_fw/AsicFwS2/include/matrix.h ****            typename = typename std::enable_if < std::is_arithmetic<T>::value >::type >
 133:/home/tienluong/workspace/atlantis_fw/AsicFwS2/include/matrix.h **** Vec2<typename std::common_type<T, U>::type>
 134:/home/tienluong/workspace/atlantis_fw/AsicFwS2/include/matrix.h **** operator*( T a, const Vec2<U> & b ) { return b * a; }
 135:/home/tienluong/workspace/atlantis_fw/AsicFwS2/include/matrix.h **** 
 136:/home/tienluong/workspace/atlantis_fw/AsicFwS2/include/matrix.h **** template < typename T, typename U,
 137:/home/tienluong/workspace/atlantis_fw/AsicFwS2/include/matrix.h ****            typename = typename std::enable_if < std::is_arithmetic<T>::value >::type >
 138:/home/tienluong/workspace/atlantis_fw/AsicFwS2/include/matrix.h **** Vec2<typename std::common_type<T, U>::type>
 139:/home/tienluong/workspace/atlantis_fw/AsicFwS2/include/matrix.h **** operator-( T a, const Vec2<U> & b ) { return Vec2<T>( a ) - b; }
 140:/home/tienluong/workspace/atlantis_fw/AsicFwS2/include/matrix.h **** 
 141:/home/tienluong/workspace/atlantis_fw/AsicFwS2/include/matrix.h **** template < typename T, typename U,
 142:/home/tienluong/workspace/atlantis_fw/AsicFwS2/include/matrix.h ****            typename = typename std::enable_if < std::is_arithmetic<T>::value >::type >
 143:/home/tienluong/workspace/atlantis_fw/AsicFwS2/include/matrix.h **** Vec2<typename std::common_type<T, U>::type>
 144:/home/tienluong/workspace/atlantis_fw/AsicFwS2/include/matrix.h **** operator/( T a, const Vec2<U> & b ) { return Vec2<T>( a ) / b; }
 145:/home/tienluong/workspace/atlantis_fw/AsicFwS2/include/matrix.h **** 
 146:/home/tienluong/workspace/atlantis_fw/AsicFwS2/include/matrix.h **** // basic math functions
 147:/home/tienluong/workspace/atlantis_fw/AsicFwS2/include/matrix.h **** template<typename T>
 148:/home/tienluong/workspace/atlantis_fw/AsicFwS2/include/matrix.h **** T min( const Vec2<T> & t ) { return t.min(); }
 149:/home/tienluong/workspace/atlantis_fw/AsicFwS2/include/matrix.h **** 
 150:/home/tienluong/workspace/atlantis_fw/AsicFwS2/include/matrix.h **** template<typename T>
 151:/home/tienluong/workspace/atlantis_fw/AsicFwS2/include/matrix.h **** T max( const Vec2<T> & t ) { return t.max(); }
 152:/home/tienluong/workspace/atlantis_fw/AsicFwS2/include/matrix.h **** 
 153:/home/tienluong/workspace/atlantis_fw/AsicFwS2/include/matrix.h **** template<typename T>
 154:/home/tienluong/workspace/atlantis_fw/AsicFwS2/include/matrix.h **** T sum( const Vec2<T> & t ) { return t.sum(); }
 155:/home/tienluong/workspace/atlantis_fw/AsicFwS2/include/matrix.h **** 
 156:/home/tienluong/workspace/atlantis_fw/AsicFwS2/include/matrix.h **** template<typename T>
 157:/home/tienluong/workspace/atlantis_fw/AsicFwS2/include/matrix.h **** T dot( const Vec2<T> & a, const Vec2<T> & b ) { return a.dot( b ); }
 158:/home/tienluong/workspace/atlantis_fw/AsicFwS2/include/matrix.h **** 
 159:/home/tienluong/workspace/atlantis_fw/AsicFwS2/include/matrix.h **** template<typename T>
 160:/home/tienluong/workspace/atlantis_fw/AsicFwS2/include/matrix.h **** Vec2<T> min( const Vec2<T> & a, const Vec2<T> & b )
 161:/home/tienluong/workspace/atlantis_fw/AsicFwS2/include/matrix.h **** { return { std::min( a.x(), b.x() ), std::min( a.y(), b.y() ) }; }
 162:/home/tienluong/workspace/atlantis_fw/AsicFwS2/include/matrix.h **** 
 163:/home/tienluong/workspace/atlantis_fw/AsicFwS2/include/matrix.h **** template<typename T>
 164:/home/tienluong/workspace/atlantis_fw/AsicFwS2/include/matrix.h **** Vec2<T> abs( const Vec2<T> & t ) { return t.abs(); }
 165:/home/tienluong/workspace/atlantis_fw/AsicFwS2/include/matrix.h **** 
 166:/home/tienluong/workspace/atlantis_fw/AsicFwS2/include/matrix.h **** // template<typename T>
 167:/home/tienluong/workspace/atlantis_fw/AsicFwS2/include/matrix.h **** // Vec2<T> sign( const Vec2<T> & t ) { return t.sign(); }
 168:/home/tienluong/workspace/atlantis_fw/AsicFwS2/include/matrix.h **** 
 169:/home/tienluong/workspace/atlantis_fw/AsicFwS2/include/matrix.h **** template<typename T>
 170:/home/tienluong/workspace/atlantis_fw/AsicFwS2/include/matrix.h **** typename std::enable_if<std::is_floating_point<T>::value, T>::type
 171:/home/tienluong/workspace/atlantis_fw/AsicFwS2/include/matrix.h **** length( const Vec2<T> & a )
 172:/home/tienluong/workspace/atlantis_fw/AsicFwS2/include/matrix.h **** { return std::sqrt( dot( a, a ) ); }
 173:/home/tienluong/workspace/atlantis_fw/AsicFwS2/include/matrix.h **** 
 174:/home/tienluong/workspace/atlantis_fw/AsicFwS2/include/matrix.h **** template<typename T>
 175:/home/tienluong/workspace/atlantis_fw/AsicFwS2/include/matrix.h **** typename std::enable_if<std::is_floating_point<T>::value, Vec2<T> >::type
 176:/home/tienluong/workspace/atlantis_fw/AsicFwS2/include/matrix.h **** sqrt( const Vec2<T> & a )
 177:/home/tienluong/workspace/atlantis_fw/AsicFwS2/include/matrix.h **** { return { std::sqrt( a.x() ), std::sqrt( a.y() ) }; }
 178:/home/tienluong/workspace/atlantis_fw/AsicFwS2/include/matrix.h **** 
 179:/home/tienluong/workspace/atlantis_fw/AsicFwS2/include/matrix.h **** template<typename T>
 180:/home/tienluong/workspace/atlantis_fw/AsicFwS2/include/matrix.h **** typename std::enable_if<std::is_floating_point<T>::value, T>::type
 181:/home/tienluong/workspace/atlantis_fw/AsicFwS2/include/matrix.h **** squaredSum( const Vec2<T> & a )
 182:/home/tienluong/workspace/atlantis_fw/AsicFwS2/include/matrix.h **** { return dot( a, a ); }
 183:/home/tienluong/workspace/atlantis_fw/AsicFwS2/include/matrix.h **** 
 184:/home/tienluong/workspace/atlantis_fw/AsicFwS2/include/matrix.h **** template<typename T>
 185:/home/tienluong/workspace/atlantis_fw/AsicFwS2/include/matrix.h **** typename std::enable_if<std::is_floating_point<T>::value, Vec2<T> >::type
 186:/home/tienluong/workspace/atlantis_fw/AsicFwS2/include/matrix.h **** normalize( const Vec2<T> & a )
 187:/home/tienluong/workspace/atlantis_fw/AsicFwS2/include/matrix.h **** {
 188:/home/tienluong/workspace/atlantis_fw/AsicFwS2/include/matrix.h ****     return a / length( a );
 189:/home/tienluong/workspace/atlantis_fw/AsicFwS2/include/matrix.h **** }
 190:/home/tienluong/workspace/atlantis_fw/AsicFwS2/include/matrix.h **** 
 191:/home/tienluong/workspace/atlantis_fw/AsicFwS2/include/matrix.h **** // template<typename T>
 192:/home/tienluong/workspace/atlantis_fw/AsicFwS2/include/matrix.h **** // typename std::enable_if<std::is_floating_point<T>::value, Vec2<T> >::type
 193:/home/tienluong/workspace/atlantis_fw/AsicFwS2/include/matrix.h **** // pow( const Vec2<T> & a, const Vec2<T> & b )
 194:/home/tienluong/workspace/atlantis_fw/AsicFwS2/include/matrix.h **** // { return { std::pow( a.x(), b.x() ), std::pow( a.y(), b.y() ) }; }
 195:/home/tienluong/workspace/atlantis_fw/AsicFwS2/include/matrix.h **** 
 196:/home/tienluong/workspace/atlantis_fw/AsicFwS2/include/matrix.h **** // template<typename T>
 197:/home/tienluong/workspace/atlantis_fw/AsicFwS2/include/matrix.h **** // typename std::enable_if<std::is_floating_point<T>::value, Vec2<T> >::type
 198:/home/tienluong/workspace/atlantis_fw/AsicFwS2/include/matrix.h **** // pow( const Vec2<T> & a, T  b )
 199:/home/tienluong/workspace/atlantis_fw/AsicFwS2/include/matrix.h **** // { return { std::pow( a.x(), b ), std::pow( a.y(), b ) }; }
 200:/home/tienluong/workspace/atlantis_fw/AsicFwS2/include/matrix.h **** 
 201:/home/tienluong/workspace/atlantis_fw/AsicFwS2/include/matrix.h **** // template<typename T>
 202:/home/tienluong/workspace/atlantis_fw/AsicFwS2/include/matrix.h **** // typename std::enable_if<std::is_floating_point<T>::value, Vec2<T> >::type
 203:/home/tienluong/workspace/atlantis_fw/AsicFwS2/include/matrix.h **** // pow( T a, const Vec2<T> & b )
 204:/home/tienluong/workspace/atlantis_fw/AsicFwS2/include/matrix.h **** // { return { std::pow( a, b.x() ), std::pow( a, b.y() ) }; }
 205:/home/tienluong/workspace/atlantis_fw/AsicFwS2/include/matrix.h **** 
 206:/home/tienluong/workspace/atlantis_fw/AsicFwS2/include/matrix.h **** // template<typename T>
 207:/home/tienluong/workspace/atlantis_fw/AsicFwS2/include/matrix.h **** // typename std::enable_if<std::is_floating_point<T>::value, Vec2<T> >::type
 208:/home/tienluong/workspace/atlantis_fw/AsicFwS2/include/matrix.h **** // floor( const Vec2<T> & a )
 209:/home/tienluong/workspace/atlantis_fw/AsicFwS2/include/matrix.h **** // { return { std::floor( a.x() ), std::floor( a.y() ) }; }
 210:/home/tienluong/workspace/atlantis_fw/AsicFwS2/include/matrix.h **** 
 211:/home/tienluong/workspace/atlantis_fw/AsicFwS2/include/matrix.h **** // template<typename T>
 212:/home/tienluong/workspace/atlantis_fw/AsicFwS2/include/matrix.h **** // typename std::enable_if<std::is_floating_point<T>::value, Vec2<T> >::type
 213:/home/tienluong/workspace/atlantis_fw/AsicFwS2/include/matrix.h **** // ceil( const Vec2<T> & a )
 214:/home/tienluong/workspace/atlantis_fw/AsicFwS2/include/matrix.h **** // { return { std::ceil( a.x() ), std::ceil( a.y() ) }; }
 215:/home/tienluong/workspace/atlantis_fw/AsicFwS2/include/matrix.h **** 
 216:/home/tienluong/workspace/atlantis_fw/AsicFwS2/include/matrix.h **** 
 217:/home/tienluong/workspace/atlantis_fw/AsicFwS2/include/matrix.h **** 
 218:/home/tienluong/workspace/atlantis_fw/AsicFwS2/include/matrix.h **** 
 219:/home/tienluong/workspace/atlantis_fw/AsicFwS2/include/matrix.h **** 
 220:/home/tienluong/workspace/atlantis_fw/AsicFwS2/include/matrix.h **** // -----------------------------------------------------------
 221:/home/tienluong/workspace/atlantis_fw/AsicFwS2/include/matrix.h **** // 			Vec3 class
 222:/home/tienluong/workspace/atlantis_fw/AsicFwS2/include/matrix.h **** // -----------------------------------------------------------
 223:/home/tienluong/workspace/atlantis_fw/AsicFwS2/include/matrix.h **** template<typename T>
 224:/home/tienluong/workspace/atlantis_fw/AsicFwS2/include/matrix.h **** class Vec3
 225:/home/tienluong/workspace/atlantis_fw/AsicFwS2/include/matrix.h **** {
 226:/home/tienluong/workspace/atlantis_fw/AsicFwS2/include/matrix.h **** public:
 227:/home/tienluong/workspace/atlantis_fw/AsicFwS2/include/matrix.h ****     Vec3() {}
 228:/home/tienluong/workspace/atlantis_fw/AsicFwS2/include/matrix.h ****     Vec3( T t ) : _x( t ), _y( t ), _z( t ) {}
 229:/home/tienluong/workspace/atlantis_fw/AsicFwS2/include/matrix.h ****     Vec3( T x, T y, T z ) : _x( x ), _y( y ), _z( z ) {}
 230:/home/tienluong/workspace/atlantis_fw/AsicFwS2/include/matrix.h ****     Vec3( const Vec3 & t ) : _x( t._x ), _y( t._y ), _z( t._z ) {}
 231:/home/tienluong/workspace/atlantis_fw/AsicFwS2/include/matrix.h **** 
 232:/home/tienluong/workspace/atlantis_fw/AsicFwS2/include/matrix.h ****     template<typename U>
 233:/home/tienluong/workspace/atlantis_fw/AsicFwS2/include/matrix.h ****     explicit Vec3( const Vec3<U> & t )
 234:/home/tienluong/workspace/atlantis_fw/AsicFwS2/include/matrix.h ****         : _x( static_cast<T>( t.x() ) )
 235:/home/tienluong/workspace/atlantis_fw/AsicFwS2/include/matrix.h ****         , _y( static_cast<T>( t.y() ) )
 236:/home/tienluong/workspace/atlantis_fw/AsicFwS2/include/matrix.h ****         , _z( static_cast<T>( t.z() ) ) {}
 237:/home/tienluong/workspace/atlantis_fw/AsicFwS2/include/matrix.h **** 
 238:/home/tienluong/workspace/atlantis_fw/AsicFwS2/include/matrix.h ****     Vec3 & operator=( const Vec3 & t )
 239:/home/tienluong/workspace/atlantis_fw/AsicFwS2/include/matrix.h ****     { _x = t._x; _y = t._y; _z = t._z; return *this; }
 240:/home/tienluong/workspace/atlantis_fw/AsicFwS2/include/matrix.h **** 
 241:/home/tienluong/workspace/atlantis_fw/AsicFwS2/include/matrix.h ****     Vec3 & operator/=( const Vec3 & t )
 242:/home/tienluong/workspace/atlantis_fw/AsicFwS2/include/matrix.h ****     { _x /= t._x; _y /= t._y; _z /= t._z; return *this; }
 243:/home/tienluong/workspace/atlantis_fw/AsicFwS2/include/matrix.h **** 
 244:/home/tienluong/workspace/atlantis_fw/AsicFwS2/include/matrix.h ****     Vec3 & operator%=( const Vec3 & t )
 245:/home/tienluong/workspace/atlantis_fw/AsicFwS2/include/matrix.h ****     { _x %= t._x; _y %= t._y; _z %= t._z; return *this; }
 246:/home/tienluong/workspace/atlantis_fw/AsicFwS2/include/matrix.h **** 
 247:/home/tienluong/workspace/atlantis_fw/AsicFwS2/include/matrix.h ****     Vec3 & operator*=( const Vec3 & t )
 248:/home/tienluong/workspace/atlantis_fw/AsicFwS2/include/matrix.h ****     { _x *= t._x; _y *= t._y; _z *= t._z; return *this; }
 249:/home/tienluong/workspace/atlantis_fw/AsicFwS2/include/matrix.h **** 
 250:/home/tienluong/workspace/atlantis_fw/AsicFwS2/include/matrix.h ****     Vec3 & operator+=( const Vec3 & t )
 251:/home/tienluong/workspace/atlantis_fw/AsicFwS2/include/matrix.h ****     { _x += t._x; _y += t._y; _z += t._z; return *this; }
 252:/home/tienluong/workspace/atlantis_fw/AsicFwS2/include/matrix.h **** 
 253:/home/tienluong/workspace/atlantis_fw/AsicFwS2/include/matrix.h ****     Vec3 & operator-=( const Vec3 & t )
 254:/home/tienluong/workspace/atlantis_fw/AsicFwS2/include/matrix.h ****     { _x -= t._x; _y -= t._y; _z -= t._z; return *this; }
 255:/home/tienluong/workspace/atlantis_fw/AsicFwS2/include/matrix.h **** 
 256:/home/tienluong/workspace/atlantis_fw/AsicFwS2/include/matrix.h ****     Vec3 & operator&=( const Vec3 & t )
 257:/home/tienluong/workspace/atlantis_fw/AsicFwS2/include/matrix.h ****     { _x &= t._x; _y &= t._y; _z &= t._z; return *this; }
 258:/home/tienluong/workspace/atlantis_fw/AsicFwS2/include/matrix.h **** 
 259:/home/tienluong/workspace/atlantis_fw/AsicFwS2/include/matrix.h ****     Vec3 & operator|=( const Vec3 & t )
 260:/home/tienluong/workspace/atlantis_fw/AsicFwS2/include/matrix.h ****     { _x |= t._x; _y |= t._y; _z |= t._z; return *this; }
 261:/home/tienluong/workspace/atlantis_fw/AsicFwS2/include/matrix.h **** 
 262:/home/tienluong/workspace/atlantis_fw/AsicFwS2/include/matrix.h ****     Vec3 & operator>>=( int t )
 263:/home/tienluong/workspace/atlantis_fw/AsicFwS2/include/matrix.h ****     { _x >>= t; _y >>= t; _z >>= t; return *this; }
 264:/home/tienluong/workspace/atlantis_fw/AsicFwS2/include/matrix.h **** 
 265:/home/tienluong/workspace/atlantis_fw/AsicFwS2/include/matrix.h ****     Vec3 & operator<<=( int t )
 266:/home/tienluong/workspace/atlantis_fw/AsicFwS2/include/matrix.h ****     { _x <<= t; _y <<= t; _z <<= t; return *this; }
 267:/home/tienluong/workspace/atlantis_fw/AsicFwS2/include/matrix.h **** 
 268:/home/tienluong/workspace/atlantis_fw/AsicFwS2/include/matrix.h ****     Vec3 operator-() const { return { -_x, -_y, -_z }; }
 269:/home/tienluong/workspace/atlantis_fw/AsicFwS2/include/matrix.h **** 
 270:/home/tienluong/workspace/atlantis_fw/AsicFwS2/include/matrix.h ****     template<typename U > 
 271:/home/tienluong/workspace/atlantis_fw/AsicFwS2/include/matrix.h ****     Vec3<typename std::common_type<T, U>::type>
 272:/home/tienluong/workspace/atlantis_fw/AsicFwS2/include/matrix.h ****     operator+( const Vec3<U> & t ) const { return { _x + t.x(), _y + t.y(), _z + t.z() }; }
 273:/home/tienluong/workspace/atlantis_fw/AsicFwS2/include/matrix.h **** 
 274:/home/tienluong/workspace/atlantis_fw/AsicFwS2/include/matrix.h ****     template<typename U> Vec3<typename std::common_type<T, U>::type>
 275:/home/tienluong/workspace/atlantis_fw/AsicFwS2/include/matrix.h ****     operator-( const Vec3<U> & t ) const { return { _x - t.x(), _y - t.y(), _z - t.z() }; }
 276:/home/tienluong/workspace/atlantis_fw/AsicFwS2/include/matrix.h **** 
 277:/home/tienluong/workspace/atlantis_fw/AsicFwS2/include/matrix.h ****     template<typename U> Vec3<typename std::common_type<T, U>::type>
 278:/home/tienluong/workspace/atlantis_fw/AsicFwS2/include/matrix.h ****     operator*( const Vec3<U> & t ) const { return { _x * t.x(), _y * t.y(), _z * t.z() }; }
 279:/home/tienluong/workspace/atlantis_fw/AsicFwS2/include/matrix.h **** 
 280:/home/tienluong/workspace/atlantis_fw/AsicFwS2/include/matrix.h ****     template<typename U> Vec3<typename std::common_type<T, U>::type>
 281:/home/tienluong/workspace/atlantis_fw/AsicFwS2/include/matrix.h ****     operator/( const Vec3<U> & t ) const { return { _x / t.x(), _y / t.y(), _z / t.z() }; }
 282:/home/tienluong/workspace/atlantis_fw/AsicFwS2/include/matrix.h **** 
 283:/home/tienluong/workspace/atlantis_fw/AsicFwS2/include/matrix.h ****     template < typename U,
 284:/home/tienluong/workspace/atlantis_fw/AsicFwS2/include/matrix.h ****                typename = typename std::enable_if < std::is_integral<T>::value && std::is_integral<
 285:/home/tienluong/workspace/atlantis_fw/AsicFwS2/include/matrix.h ****     Vec3<typename std::common_type<T, U>::type>
 286:/home/tienluong/workspace/atlantis_fw/AsicFwS2/include/matrix.h ****     operator%( const Vec3<U> & t ) const { return { _x % t.x(), _y % t.y(), _z % t.z() }; }
 287:/home/tienluong/workspace/atlantis_fw/AsicFwS2/include/matrix.h **** 
 288:/home/tienluong/workspace/atlantis_fw/AsicFwS2/include/matrix.h ****     template < typename U,
 289:/home/tienluong/workspace/atlantis_fw/AsicFwS2/include/matrix.h ****                typename = typename std::enable_if < std::is_arithmetic<U>::value >::type >
 290:/home/tienluong/workspace/atlantis_fw/AsicFwS2/include/matrix.h ****     Vec3<typename std::common_type<T, U>::type>
 291:/home/tienluong/workspace/atlantis_fw/AsicFwS2/include/matrix.h ****     operator+( U t ) const { return { _x + t, _y + t, _z + t }; }
 292:/home/tienluong/workspace/atlantis_fw/AsicFwS2/include/matrix.h **** 
 293:/home/tienluong/workspace/atlantis_fw/AsicFwS2/include/matrix.h ****     template < typename U,
 294:/home/tienluong/workspace/atlantis_fw/AsicFwS2/include/matrix.h ****                typename = typename std::enable_if < std::is_arithmetic<U>::value >::type >
 295:/home/tienluong/workspace/atlantis_fw/AsicFwS2/include/matrix.h ****     Vec3<typename std::common_type<T, U>::type>
 296:/home/tienluong/workspace/atlantis_fw/AsicFwS2/include/matrix.h ****     operator-( U t ) const { return { _x - t, _y - t, _z - t }; }
 297:/home/tienluong/workspace/atlantis_fw/AsicFwS2/include/matrix.h **** 
 298:/home/tienluong/workspace/atlantis_fw/AsicFwS2/include/matrix.h ****     template < typename U,
 299:/home/tienluong/workspace/atlantis_fw/AsicFwS2/include/matrix.h ****                typename = typename std::enable_if < std::is_arithmetic<U>::value >::type >
 300:/home/tienluong/workspace/atlantis_fw/AsicFwS2/include/matrix.h ****     Vec3<typename std::common_type<T, U>::type>
 301:/home/tienluong/workspace/atlantis_fw/AsicFwS2/include/matrix.h ****     operator*( U t ) const { return { _x * t, _y * t, _z * t }; }
 302:/home/tienluong/workspace/atlantis_fw/AsicFwS2/include/matrix.h **** 
 303:/home/tienluong/workspace/atlantis_fw/AsicFwS2/include/matrix.h ****     template < typename U,
 304:/home/tienluong/workspace/atlantis_fw/AsicFwS2/include/matrix.h ****                typename = typename std::enable_if < std::is_arithmetic<U>::value >::type >
 305:/home/tienluong/workspace/atlantis_fw/AsicFwS2/include/matrix.h ****     Vec3<typename std::common_type<T, U>::type>
 306:/home/tienluong/workspace/atlantis_fw/AsicFwS2/include/matrix.h ****     operator/( U t ) const { return { _x / t, _y / t, _z / t }; }
 307:/home/tienluong/workspace/atlantis_fw/AsicFwS2/include/matrix.h **** 
 308:/home/tienluong/workspace/atlantis_fw/AsicFwS2/include/matrix.h ****     template < typename U,
 309:/home/tienluong/workspace/atlantis_fw/AsicFwS2/include/matrix.h ****                typename = typename std::enable_if < std::is_integral<T>::value && std::is_integral<
 310:/home/tienluong/workspace/atlantis_fw/AsicFwS2/include/matrix.h ****     Vec3<typename std::common_type<T, U>::type>
 311:/home/tienluong/workspace/atlantis_fw/AsicFwS2/include/matrix.h ****     operator%( U t ) const { return { _x % t, _y % t, _z % t }; }
 312:/home/tienluong/workspace/atlantis_fw/AsicFwS2/include/matrix.h ****     Vec3<bool> operator==( const Vec3 & t ) const { return { _x == t._x, _y == t._y, _z == t._z }; 
 313:/home/tienluong/workspace/atlantis_fw/AsicFwS2/include/matrix.h ****     Vec3<bool> operator!=( const Vec3 & t ) const { return { _x != t._x, _y != t._y, _z != t._z }; 
 314:/home/tienluong/workspace/atlantis_fw/AsicFwS2/include/matrix.h ****     Vec3<bool> operator>=( const Vec3 & t ) const { return { _x >= t._x, _y >= t._y, _z >= t._z }; 
 315:/home/tienluong/workspace/atlantis_fw/AsicFwS2/include/matrix.h ****     Vec3<bool> operator>( const Vec3 & t )  const { return { _x >  t._x, _y >  t._y, _z >  t._z }; 
 316:/home/tienluong/workspace/atlantis_fw/AsicFwS2/include/matrix.h ****     Vec3<bool> operator<=( const Vec3 & t ) const { return { _x <= t._x, _y <= t._y, _z <= t._z }; 
 317:/home/tienluong/workspace/atlantis_fw/AsicFwS2/include/matrix.h ****     Vec3<bool> operator<( const Vec3 & t )  const { return { _x <  t._x, _y <  t._y, _z <  t._z }; 
 318:/home/tienluong/workspace/atlantis_fw/AsicFwS2/include/matrix.h **** 
 319:/home/tienluong/workspace/atlantis_fw/AsicFwS2/include/matrix.h ****     T min() const { return std::min( std::min( _x, _y ), _z ); }
 320:/home/tienluong/workspace/atlantis_fw/AsicFwS2/include/matrix.h ****     T max() const { return std::max( std::max( _x, _y ), _z ); }
 321:/home/tienluong/workspace/atlantis_fw/AsicFwS2/include/matrix.h ****     T sum() const { return _x + _y + _z; }
 322:/home/tienluong/workspace/atlantis_fw/AsicFwS2/include/matrix.h ****     T dot( const Vec3<T> & t ) const { return _x * t.x() + _y * t.y() + _z * t.z(); }
 323:/home/tienluong/workspace/atlantis_fw/AsicFwS2/include/matrix.h **** 
 324:/home/tienluong/workspace/atlantis_fw/AsicFwS2/include/matrix.h ****     // cross product in right-hand side coordinate (i.e. if this=(1,0,0), t=(0,1,0), out=(0,0,1)).
 325:/home/tienluong/workspace/atlantis_fw/AsicFwS2/include/matrix.h ****     Vec3<T> cross( const Vec3<T> & t ) const
 326:/home/tienluong/workspace/atlantis_fw/AsicFwS2/include/matrix.h ****     { return Vec3<T> {_y * t.z() - _z * t.y(), _z * t.x() - _x * t.z(), _x * t.y() - _y * t.x()};}
 327:/home/tienluong/workspace/atlantis_fw/AsicFwS2/include/matrix.h **** 
 328:/home/tienluong/workspace/atlantis_fw/AsicFwS2/include/matrix.h ****     Vec3 abs() const { return { std::abs( _x ), std::abs( _y ), std::abs( _z ) }; }
 329:/home/tienluong/workspace/atlantis_fw/AsicFwS2/include/matrix.h **** 
 330:/home/tienluong/workspace/atlantis_fw/AsicFwS2/include/matrix.h ****     const T & x() const { return _x; }
 331:/home/tienluong/workspace/atlantis_fw/AsicFwS2/include/matrix.h ****     const T & y() const { return _y; }
 332:/home/tienluong/workspace/atlantis_fw/AsicFwS2/include/matrix.h ****     const T & z() const { return _z; }
 333:/home/tienluong/workspace/atlantis_fw/AsicFwS2/include/matrix.h **** 
 334:/home/tienluong/workspace/atlantis_fw/AsicFwS2/include/matrix.h ****     void setX( T x ) { _x = x; }
 335:/home/tienluong/workspace/atlantis_fw/AsicFwS2/include/matrix.h ****     void setY( T y ) { _y = y; }
 336:/home/tienluong/workspace/atlantis_fw/AsicFwS2/include/matrix.h ****     void setZ( T z ) { _z = z; }
 337:/home/tienluong/workspace/atlantis_fw/AsicFwS2/include/matrix.h **** 
 338:/home/tienluong/workspace/atlantis_fw/AsicFwS2/include/matrix.h ****     Vec3 & normalize()
 339:/home/tienluong/workspace/atlantis_fw/AsicFwS2/include/matrix.h ****     {
 340:/home/tienluong/workspace/atlantis_fw/AsicFwS2/include/matrix.h ****         T len = length(*this);
 341:/home/tienluong/workspace/atlantis_fw/AsicFwS2/include/matrix.h ****         _x /= len;
 342:/home/tienluong/workspace/atlantis_fw/AsicFwS2/include/matrix.h ****         _y /= len;
 343:/home/tienluong/workspace/atlantis_fw/AsicFwS2/include/matrix.h ****         _z /= len;
 344:/home/tienluong/workspace/atlantis_fw/AsicFwS2/include/matrix.h ****         return *this;
 345:/home/tienluong/workspace/atlantis_fw/AsicFwS2/include/matrix.h ****     }
 346:/home/tienluong/workspace/atlantis_fw/AsicFwS2/include/matrix.h **** 
 347:/home/tienluong/workspace/atlantis_fw/AsicFwS2/include/matrix.h **** private:
 348:/home/tienluong/workspace/atlantis_fw/AsicFwS2/include/matrix.h ****     T _x, _y, _z;
 349:/home/tienluong/workspace/atlantis_fw/AsicFwS2/include/matrix.h **** };
 350:/home/tienluong/workspace/atlantis_fw/AsicFwS2/include/matrix.h **** 
 351:/home/tienluong/workspace/atlantis_fw/AsicFwS2/include/matrix.h **** // basic math functions
 352:/home/tienluong/workspace/atlantis_fw/AsicFwS2/include/matrix.h **** template<typename T>
 353:/home/tienluong/workspace/atlantis_fw/AsicFwS2/include/matrix.h **** T min( const Vec3<T> & t ) { return t.min(); }
 354:/home/tienluong/workspace/atlantis_fw/AsicFwS2/include/matrix.h **** 
 355:/home/tienluong/workspace/atlantis_fw/AsicFwS2/include/matrix.h **** template<typename T>
 356:/home/tienluong/workspace/atlantis_fw/AsicFwS2/include/matrix.h **** T max( const Vec3<T> & t ) { return t.max(); }
 357:/home/tienluong/workspace/atlantis_fw/AsicFwS2/include/matrix.h **** 
 358:/home/tienluong/workspace/atlantis_fw/AsicFwS2/include/matrix.h **** template<typename T>
 359:/home/tienluong/workspace/atlantis_fw/AsicFwS2/include/matrix.h **** T sum( const Vec3<T> & t ) { return t.sum(); }
 360:/home/tienluong/workspace/atlantis_fw/AsicFwS2/include/matrix.h **** 
 361:/home/tienluong/workspace/atlantis_fw/AsicFwS2/include/matrix.h **** template<typename T>
 362:/home/tienluong/workspace/atlantis_fw/AsicFwS2/include/matrix.h **** T dot( const Vec3<T> & a, const Vec3<T> & b ) { return a.dot( b ); }
 363:/home/tienluong/workspace/atlantis_fw/AsicFwS2/include/matrix.h **** 
 364:/home/tienluong/workspace/atlantis_fw/AsicFwS2/include/matrix.h **** template<typename T>
 365:/home/tienluong/workspace/atlantis_fw/AsicFwS2/include/matrix.h **** Vec3<T> cross( const Vec3<T> & a, const Vec3<T> & b ) { return a.cross( b ); }
 366:/home/tienluong/workspace/atlantis_fw/AsicFwS2/include/matrix.h **** 
 367:/home/tienluong/workspace/atlantis_fw/AsicFwS2/include/matrix.h **** template<typename T>
 368:/home/tienluong/workspace/atlantis_fw/AsicFwS2/include/matrix.h **** Vec3<T> min( const Vec3<T> & a, const Vec3<T> & b )
 369:/home/tienluong/workspace/atlantis_fw/AsicFwS2/include/matrix.h **** { return { std::min( a.x(), b.x() ), std::min( a.y(), b.y() ), std::min( a.z(), b.z() ) }; }
 370:/home/tienluong/workspace/atlantis_fw/AsicFwS2/include/matrix.h **** 
 371:/home/tienluong/workspace/atlantis_fw/AsicFwS2/include/matrix.h **** // template<typename T, typename U>
 372:/home/tienluong/workspace/atlantis_fw/AsicFwS2/include/matrix.h **** // typename std::enable_if<std::is_arithmetic<U>::value, Vec3<T> >::type
 373:/home/tienluong/workspace/atlantis_fw/AsicFwS2/include/matrix.h **** // min( U a, const Vec3<T> & b )
 374:/home/tienluong/workspace/atlantis_fw/AsicFwS2/include/matrix.h **** // { return min( Vec3<T>( a ), b ); }
 375:/home/tienluong/workspace/atlantis_fw/AsicFwS2/include/matrix.h **** 
 376:/home/tienluong/workspace/atlantis_fw/AsicFwS2/include/matrix.h **** // template<typename T, typename U>
 377:/home/tienluong/workspace/atlantis_fw/AsicFwS2/include/matrix.h **** // typename std::enable_if<std::is_arithmetic<U>::value, Vec3<T> >::type
 378:/home/tienluong/workspace/atlantis_fw/AsicFwS2/include/matrix.h **** // min( const Vec3<T> & a, U b )
 379:/home/tienluong/workspace/atlantis_fw/AsicFwS2/include/matrix.h **** // { return min( a, Vec3<T>( b ) ); }
 380:/home/tienluong/workspace/atlantis_fw/AsicFwS2/include/matrix.h **** 
 381:/home/tienluong/workspace/atlantis_fw/AsicFwS2/include/matrix.h **** // template<typename T>
 382:/home/tienluong/workspace/atlantis_fw/AsicFwS2/include/matrix.h **** // Vec3<T> max( const Vec3<T> & a, const Vec3<T> & b )
 383:/home/tienluong/workspace/atlantis_fw/AsicFwS2/include/matrix.h **** // { return { max( a.x(), b.x() ), max( a.y(), b.y() ), max( a.z(), b.z() ) }; }
 384:/home/tienluong/workspace/atlantis_fw/AsicFwS2/include/matrix.h **** 
 385:/home/tienluong/workspace/atlantis_fw/AsicFwS2/include/matrix.h **** // template<typename T, typename U>
 386:/home/tienluong/workspace/atlantis_fw/AsicFwS2/include/matrix.h **** // typename std::enable_if<std::is_arithmetic<U>::value, Vec3<T> >::type
 387:/home/tienluong/workspace/atlantis_fw/AsicFwS2/include/matrix.h **** // max( U a, const Vec3<T> & b )
 388:/home/tienluong/workspace/atlantis_fw/AsicFwS2/include/matrix.h **** // { return max( Vec3<T>( a ), b ); }
 389:/home/tienluong/workspace/atlantis_fw/AsicFwS2/include/matrix.h **** 
 390:/home/tienluong/workspace/atlantis_fw/AsicFwS2/include/matrix.h **** // template<typename T, typename U>
 391:/home/tienluong/workspace/atlantis_fw/AsicFwS2/include/matrix.h **** // typename std::enable_if<std::is_arithmetic<U>::value, Vec3<T> >::type
 392:/home/tienluong/workspace/atlantis_fw/AsicFwS2/include/matrix.h **** // max( const Vec3<T> & a, U b )
 393:/home/tienluong/workspace/atlantis_fw/AsicFwS2/include/matrix.h **** // { return max( a, Vec3<T>( b ) ); }
 394:/home/tienluong/workspace/atlantis_fw/AsicFwS2/include/matrix.h **** 
 395:/home/tienluong/workspace/atlantis_fw/AsicFwS2/include/matrix.h **** // template<typename T>
 396:/home/tienluong/workspace/atlantis_fw/AsicFwS2/include/matrix.h **** // Vec3<T> clamp( const Vec3<T> & t, const Vec3<T> & min_t, const Vec3<T> & max_t )
 397:/home/tienluong/workspace/atlantis_fw/AsicFwS2/include/matrix.h **** // { return min( max( t, min_t ), max_t ); }
 398:/home/tienluong/workspace/atlantis_fw/AsicFwS2/include/matrix.h **** 
 399:/home/tienluong/workspace/atlantis_fw/AsicFwS2/include/matrix.h **** // template<typename T, typename U>
 400:/home/tienluong/workspace/atlantis_fw/AsicFwS2/include/matrix.h **** // typename std::enable_if<std::is_arithmetic<U>::value, Vec3<T> >::type
 401:/home/tienluong/workspace/atlantis_fw/AsicFwS2/include/matrix.h **** // clamp( const Vec3<T> & t, U min_t, const Vec3<T> & max_t )
 402:/home/tienluong/workspace/atlantis_fw/AsicFwS2/include/matrix.h **** // { return clamp( t, Vec3<T>( min_t ), max_t ); }
 403:/home/tienluong/workspace/atlantis_fw/AsicFwS2/include/matrix.h **** 
 404:/home/tienluong/workspace/atlantis_fw/AsicFwS2/include/matrix.h **** // template<typename T, typename U>
 405:/home/tienluong/workspace/atlantis_fw/AsicFwS2/include/matrix.h **** // typename std::enable_if<std::is_arithmetic<U>::value, Vec3<T> >::type
 406:/home/tienluong/workspace/atlantis_fw/AsicFwS2/include/matrix.h **** // clamp( const Vec3<T> & t, const Vec3<T> & min_t, U max_t )
 407:/home/tienluong/workspace/atlantis_fw/AsicFwS2/include/matrix.h **** // { return clamp( t, min_t, Vec3<T>( max_t ) ); }
 408:/home/tienluong/workspace/atlantis_fw/AsicFwS2/include/matrix.h **** 
 409:/home/tienluong/workspace/atlantis_fw/AsicFwS2/include/matrix.h **** // template<typename T, typename U, typename V>
 410:/home/tienluong/workspace/atlantis_fw/AsicFwS2/include/matrix.h **** // typename std::enable_if < std::is_arithmetic<U>::value && std::is_arithmetic<V>::value, Vec3<T> 
 411:/home/tienluong/workspace/atlantis_fw/AsicFwS2/include/matrix.h **** // clamp( const Vec3<T> & t, U min_t, V max_t )
 412:/home/tienluong/workspace/atlantis_fw/AsicFwS2/include/matrix.h **** // { return clamp( t, Vec3<T>( min_t ), Vec3<T>( max_t ) ); }
 413:/home/tienluong/workspace/atlantis_fw/AsicFwS2/include/matrix.h **** 
 414:/home/tienluong/workspace/atlantis_fw/AsicFwS2/include/matrix.h **** template<typename T>
 415:/home/tienluong/workspace/atlantis_fw/AsicFwS2/include/matrix.h **** Vec3<T> abs( const Vec3<T> & t ) { return t.abs(); }
 416:/home/tienluong/workspace/atlantis_fw/AsicFwS2/include/matrix.h **** 
 417:/home/tienluong/workspace/atlantis_fw/AsicFwS2/include/matrix.h **** // template<typename T>
 418:/home/tienluong/workspace/atlantis_fw/AsicFwS2/include/matrix.h **** // Vec3<T> sign( const Vec3<T> & t ) { return t.sign(); }
 419:/home/tienluong/workspace/atlantis_fw/AsicFwS2/include/matrix.h **** 
 420:/home/tienluong/workspace/atlantis_fw/AsicFwS2/include/matrix.h **** template<typename T>
 421:/home/tienluong/workspace/atlantis_fw/AsicFwS2/include/matrix.h **** typename std::enable_if<std::is_floating_point<T>::value, T>::type
 422:/home/tienluong/workspace/atlantis_fw/AsicFwS2/include/matrix.h **** length( const Vec3<T> & a )
 423:/home/tienluong/workspace/atlantis_fw/AsicFwS2/include/matrix.h **** { return std::sqrt( dot( a, a ) ); }
 424:/home/tienluong/workspace/atlantis_fw/AsicFwS2/include/matrix.h **** 
 425:/home/tienluong/workspace/atlantis_fw/AsicFwS2/include/matrix.h **** template<typename T>
 426:/home/tienluong/workspace/atlantis_fw/AsicFwS2/include/matrix.h **** typename std::enable_if<std::is_floating_point<T>::value, Vec3<T> >::type
 427:/home/tienluong/workspace/atlantis_fw/AsicFwS2/include/matrix.h **** sqrt( const Vec3<T> & a )
 428:/home/tienluong/workspace/atlantis_fw/AsicFwS2/include/matrix.h **** { return { std::sqrt( a.x() ), std::sqrt( a.y() ), std::sqrt( a.z() ) }; }
 429:/home/tienluong/workspace/atlantis_fw/AsicFwS2/include/matrix.h **** 
 430:/home/tienluong/workspace/atlantis_fw/AsicFwS2/include/matrix.h **** template<typename T>
 431:/home/tienluong/workspace/atlantis_fw/AsicFwS2/include/matrix.h **** typename std::enable_if<std::is_floating_point<T>::value, T>::type
 432:/home/tienluong/workspace/atlantis_fw/AsicFwS2/include/matrix.h **** squaredSum( const Vec3<T> & a )
 433:/home/tienluong/workspace/atlantis_fw/AsicFwS2/include/matrix.h **** { return dot( a, a ); }
 434:/home/tienluong/workspace/atlantis_fw/AsicFwS2/include/matrix.h **** 
 435:/home/tienluong/workspace/atlantis_fw/AsicFwS2/include/matrix.h **** template<typename T>
 436:/home/tienluong/workspace/atlantis_fw/AsicFwS2/include/matrix.h **** typename std::enable_if<std::is_floating_point<T>::value, Vec3<T> >::type
 437:/home/tienluong/workspace/atlantis_fw/AsicFwS2/include/matrix.h **** normalize( const Vec3<T> & a )
 438:/home/tienluong/workspace/atlantis_fw/AsicFwS2/include/matrix.h **** {
 439:/home/tienluong/workspace/atlantis_fw/AsicFwS2/include/matrix.h ****     return a / length( a );
 440:/home/tienluong/workspace/atlantis_fw/AsicFwS2/include/matrix.h **** }
 441:/home/tienluong/workspace/atlantis_fw/AsicFwS2/include/matrix.h **** 
 442:/home/tienluong/workspace/atlantis_fw/AsicFwS2/include/matrix.h **** // template<typename T>
 443:/home/tienluong/workspace/atlantis_fw/AsicFwS2/include/matrix.h **** // typename std::enable_if<std::is_floating_point<T>::value, Vec3<T> >::type
 444:/home/tienluong/workspace/atlantis_fw/AsicFwS2/include/matrix.h **** // pow( const Vec3<T> & a, const Vec3<T> & b )
 445:/home/tienluong/workspace/atlantis_fw/AsicFwS2/include/matrix.h **** // { return { std::pow( a.x(), b.x() ), std::pow( a.y(), b.y() ), std::pow( a.z(), b.z() ) }; }
 446:/home/tienluong/workspace/atlantis_fw/AsicFwS2/include/matrix.h **** 
 447:/home/tienluong/workspace/atlantis_fw/AsicFwS2/include/matrix.h **** // template<typename T>
 448:/home/tienluong/workspace/atlantis_fw/AsicFwS2/include/matrix.h **** // typename std::enable_if<std::is_floating_point<T>::value, Vec3<T> >::type
 449:/home/tienluong/workspace/atlantis_fw/AsicFwS2/include/matrix.h **** // pow( const Vec3<T> & a, T  b )
 450:/home/tienluong/workspace/atlantis_fw/AsicFwS2/include/matrix.h **** // { return { std::pow( a.x(), b ), std::pow( a.y(), b ), std::pow( a.z(), b ) }; }
 451:/home/tienluong/workspace/atlantis_fw/AsicFwS2/include/matrix.h **** 
 452:/home/tienluong/workspace/atlantis_fw/AsicFwS2/include/matrix.h **** // template<typename T>
 453:/home/tienluong/workspace/atlantis_fw/AsicFwS2/include/matrix.h **** // typename std::enable_if<std::is_floating_point<T>::value, Vec3<T> >::type
 454:/home/tienluong/workspace/atlantis_fw/AsicFwS2/include/matrix.h **** // pow( T a, const Vec3<T> & b )
 455:/home/tienluong/workspace/atlantis_fw/AsicFwS2/include/matrix.h **** // { return { std::pow( a, b.x() ), std::pow( a, b.y() ), std::pow( a, b.z() ) }; }
 456:/home/tienluong/workspace/atlantis_fw/AsicFwS2/include/matrix.h **** 
 457:/home/tienluong/workspace/atlantis_fw/AsicFwS2/include/matrix.h **** // template<typename T>
 458:/home/tienluong/workspace/atlantis_fw/AsicFwS2/include/matrix.h **** // typename std::enable_if<std::is_floating_point<T>::value, Vec3<T> >::type
 459:/home/tienluong/workspace/atlantis_fw/AsicFwS2/include/matrix.h **** // floor( const Vec3<T> & a )
 460:/home/tienluong/workspace/atlantis_fw/AsicFwS2/include/matrix.h **** // { return { std::floor( a.x() ), std::floor( a.y() ), std::floor( a.z() ) }; }
 461:/home/tienluong/workspace/atlantis_fw/AsicFwS2/include/matrix.h **** 
 462:/home/tienluong/workspace/atlantis_fw/AsicFwS2/include/matrix.h **** // template<typename T>
 463:/home/tienluong/workspace/atlantis_fw/AsicFwS2/include/matrix.h **** // typename std::enable_if<std::is_floating_point<T>::value, Vec3<T> >::type
 464:/home/tienluong/workspace/atlantis_fw/AsicFwS2/include/matrix.h **** // ceil( const Vec3<T> & a )
 465:/home/tienluong/workspace/atlantis_fw/AsicFwS2/include/matrix.h **** // { return { std::ceil( a.x() ), std::ceil( a.y() ), std::ceil( a.z() ) }; }
 466:/home/tienluong/workspace/atlantis_fw/AsicFwS2/include/matrix.h **** 
 467:/home/tienluong/workspace/atlantis_fw/AsicFwS2/include/matrix.h **** 
 468:/home/tienluong/workspace/atlantis_fw/AsicFwS2/include/matrix.h **** // -----------------------------------------------------------
 469:/home/tienluong/workspace/atlantis_fw/AsicFwS2/include/matrix.h **** // 			Vec4 class
 470:/home/tienluong/workspace/atlantis_fw/AsicFwS2/include/matrix.h **** // -----------------------------------------------------------
 471:/home/tienluong/workspace/atlantis_fw/AsicFwS2/include/matrix.h **** template<typename T>
 472:/home/tienluong/workspace/atlantis_fw/AsicFwS2/include/matrix.h **** class Vec4
 473:/home/tienluong/workspace/atlantis_fw/AsicFwS2/include/matrix.h **** {
 474:/home/tienluong/workspace/atlantis_fw/AsicFwS2/include/matrix.h **** public:
 475:/home/tienluong/workspace/atlantis_fw/AsicFwS2/include/matrix.h ****     Vec4() {}
 476:/home/tienluong/workspace/atlantis_fw/AsicFwS2/include/matrix.h ****     Vec4( T t ) : _x( t ), _y( t ), _z( t ), _a( t ) {}
 477:/home/tienluong/workspace/atlantis_fw/AsicFwS2/include/matrix.h ****     Vec4( T x, T y, T z, T a ) : _x( x ), _y( y ), _z( z ), _a ( a ){}
 478:/home/tienluong/workspace/atlantis_fw/AsicFwS2/include/matrix.h ****     Vec4( const Vec4 & t ) : _x( t._x ), _y( t._y ), _z( t._z ), _a( t._a ) {}
 479:/home/tienluong/workspace/atlantis_fw/AsicFwS2/include/matrix.h **** 
 480:/home/tienluong/workspace/atlantis_fw/AsicFwS2/include/matrix.h ****     template<typename U>
 481:/home/tienluong/workspace/atlantis_fw/AsicFwS2/include/matrix.h ****     explicit Vec4( const Vec4<U> & t )
 482:/home/tienluong/workspace/atlantis_fw/AsicFwS2/include/matrix.h ****         : _x( static_cast<T>( t.x() ) )
 483:/home/tienluong/workspace/atlantis_fw/AsicFwS2/include/matrix.h ****         , _y( static_cast<T>( t.y() ) )
 484:/home/tienluong/workspace/atlantis_fw/AsicFwS2/include/matrix.h ****         , _z( static_cast<T>( t.z() ) )
 485:/home/tienluong/workspace/atlantis_fw/AsicFwS2/include/matrix.h ****         , _a( static_cast<T>( t.a() ) ) {}
 486:/home/tienluong/workspace/atlantis_fw/AsicFwS2/include/matrix.h **** 
 487:/home/tienluong/workspace/atlantis_fw/AsicFwS2/include/matrix.h ****     Vec4 & operator=( const Vec4 & t )
 488:/home/tienluong/workspace/atlantis_fw/AsicFwS2/include/matrix.h ****     { _x = t._x; _y = t._y; _z = t._z; _a = t._a; return *this; }
 489:/home/tienluong/workspace/atlantis_fw/AsicFwS2/include/matrix.h **** 
 490:/home/tienluong/workspace/atlantis_fw/AsicFwS2/include/matrix.h ****     Vec4 & operator/=( const Vec4 & t )
 491:/home/tienluong/workspace/atlantis_fw/AsicFwS2/include/matrix.h ****     { _x /= t._x; _y /= t._y; _z /= t._z; _a /= t._a; return *this; }
 492:/home/tienluong/workspace/atlantis_fw/AsicFwS2/include/matrix.h **** 
 493:/home/tienluong/workspace/atlantis_fw/AsicFwS2/include/matrix.h ****     Vec4 & operator%=( const Vec4 & t )
 494:/home/tienluong/workspace/atlantis_fw/AsicFwS2/include/matrix.h ****     { _x %= t._x; _y %= t._y; _z %= t._z; _a %= t._a; return *this; }
 495:/home/tienluong/workspace/atlantis_fw/AsicFwS2/include/matrix.h **** 
 496:/home/tienluong/workspace/atlantis_fw/AsicFwS2/include/matrix.h ****     Vec4 & operator*=( const Vec4 & t )
 497:/home/tienluong/workspace/atlantis_fw/AsicFwS2/include/matrix.h ****     { _x *= t._x; _y *= t._y; _z *= t._z; _a *= t._a; return *this; }
 498:/home/tienluong/workspace/atlantis_fw/AsicFwS2/include/matrix.h **** 
 499:/home/tienluong/workspace/atlantis_fw/AsicFwS2/include/matrix.h ****     Vec4 & operator+=( const Vec4 & t )
 500:/home/tienluong/workspace/atlantis_fw/AsicFwS2/include/matrix.h ****     { _x += t._x; _y += t._y; _z += t._z; _a += t._a; return *this; }
 501:/home/tienluong/workspace/atlantis_fw/AsicFwS2/include/matrix.h **** 
 502:/home/tienluong/workspace/atlantis_fw/AsicFwS2/include/matrix.h ****     Vec4 & operator-=( const Vec4 & t )
 503:/home/tienluong/workspace/atlantis_fw/AsicFwS2/include/matrix.h ****     { _x -= t._x; _y -= t._y; _z -= t._z; _a -= t._a; return *this; }
 504:/home/tienluong/workspace/atlantis_fw/AsicFwS2/include/matrix.h **** 
 505:/home/tienluong/workspace/atlantis_fw/AsicFwS2/include/matrix.h ****     Vec4 operator-() const { return { -_x, -_y, _z, _a}; }
 506:/home/tienluong/workspace/atlantis_fw/AsicFwS2/include/matrix.h **** 
 507:/home/tienluong/workspace/atlantis_fw/AsicFwS2/include/matrix.h ****     Vec4<bool> operator==( const Vec4 & t ) const { return { _x == t._x, _y == t._y, _z == t._z, _a
 508:/home/tienluong/workspace/atlantis_fw/AsicFwS2/include/matrix.h ****     Vec4<bool> operator!=( const Vec4 & t ) const { return { _x != t._x, _y != t._y, _z != t._z, _a
 509:/home/tienluong/workspace/atlantis_fw/AsicFwS2/include/matrix.h ****     Vec4<bool> operator>=( const Vec4 & t ) const { return { _x >= t._x, _y >= t._y, _z >= t._z, _a
 510:/home/tienluong/workspace/atlantis_fw/AsicFwS2/include/matrix.h ****     Vec4<bool> operator>( const  Vec4 & t )  const { return { _x >  t._x, _y >  t._y, _z > t._z, _a
 511:/home/tienluong/workspace/atlantis_fw/AsicFwS2/include/matrix.h ****     Vec4<bool> operator<=( const Vec4 & t ) const { return { _x <= t._x, _y <= t._y, _z <= t._z, _a
 512:/home/tienluong/workspace/atlantis_fw/AsicFwS2/include/matrix.h ****     Vec4<bool> operator<( const  Vec4 & t )  const { return { _x <  t._x, _y <  t._y, _z <  t._z, _
 513:/home/tienluong/workspace/atlantis_fw/AsicFwS2/include/matrix.h **** 
 514:/home/tienluong/workspace/atlantis_fw/AsicFwS2/include/matrix.h ****     T min() const { return std::min( std::min( std::min( _x, _y ), _z ), _a); }
 515:/home/tienluong/workspace/atlantis_fw/AsicFwS2/include/matrix.h ****     T max() const { return std::max( std::max( std::max( _x, _y ), _z ), _a); }
 516:/home/tienluong/workspace/atlantis_fw/AsicFwS2/include/matrix.h ****     T sum() const { return _x + _y + _z + _a; }
 517:/home/tienluong/workspace/atlantis_fw/AsicFwS2/include/matrix.h ****     T dot( const Vec4<T> & t ) const { return _x * t.x() + _y * t.y() + _z * t.z() + _a * t.a(); }
 518:/home/tienluong/workspace/atlantis_fw/AsicFwS2/include/matrix.h **** 
 519:/home/tienluong/workspace/atlantis_fw/AsicFwS2/include/matrix.h ****     Vec4 abs() const { return { std::abs( _x ), std::abs( _y ), std::abs( _z ), std::abs( _a ) }; }
 520:/home/tienluong/workspace/atlantis_fw/AsicFwS2/include/matrix.h **** 
 521:/home/tienluong/workspace/atlantis_fw/AsicFwS2/include/matrix.h ****     const T & x() const { return _x; }
 522:/home/tienluong/workspace/atlantis_fw/AsicFwS2/include/matrix.h ****     const T & y() const { return _y; }
 523:/home/tienluong/workspace/atlantis_fw/AsicFwS2/include/matrix.h ****     const T & z() const { return _z; }
 524:/home/tienluong/workspace/atlantis_fw/AsicFwS2/include/matrix.h ****     const T & a() const { return _a; }
 525:/home/tienluong/workspace/atlantis_fw/AsicFwS2/include/matrix.h **** 
 526:/home/tienluong/workspace/atlantis_fw/AsicFwS2/include/matrix.h ****     void setX( T x ) { _x = x; }
 527:/home/tienluong/workspace/atlantis_fw/AsicFwS2/include/matrix.h ****     void setY( T y ) { _y = y; }
 528:/home/tienluong/workspace/atlantis_fw/AsicFwS2/include/matrix.h ****     void setZ( T z ) { _z = z; }
 529:/home/tienluong/workspace/atlantis_fw/AsicFwS2/include/matrix.h **** 	void setA( T a ) { _a = a; }
 530:/home/tienluong/workspace/atlantis_fw/AsicFwS2/include/matrix.h **** private:
 531:/home/tienluong/workspace/atlantis_fw/AsicFwS2/include/matrix.h ****     T _x, _y, _z, _a;
 532:/home/tienluong/workspace/atlantis_fw/AsicFwS2/include/matrix.h **** };
 533:/home/tienluong/workspace/atlantis_fw/AsicFwS2/include/matrix.h **** 
 534:/home/tienluong/workspace/atlantis_fw/AsicFwS2/include/matrix.h **** 
 535:/home/tienluong/workspace/atlantis_fw/AsicFwS2/include/matrix.h **** using Vec2f = Vec2<float>;
 536:/home/tienluong/workspace/atlantis_fw/AsicFwS2/include/matrix.h **** using Vec2d = Vec2<double>;
 537:/home/tienluong/workspace/atlantis_fw/AsicFwS2/include/matrix.h **** using Vec3u16 = Vec3<std::uint16_t>;
 538:/home/tienluong/workspace/atlantis_fw/AsicFwS2/include/matrix.h **** using Vec3f = Vec3<float>;
 539:/home/tienluong/workspace/atlantis_fw/AsicFwS2/include/matrix.h **** using Vec3d = Vec3<double>;
 540:/home/tienluong/workspace/atlantis_fw/AsicFwS2/include/matrix.h **** using Vec4f = Vec4<float>;
 541:/home/tienluong/workspace/atlantis_fw/AsicFwS2/include/matrix.h **** using Vec4d = Vec4<double>;
 542:/home/tienluong/workspace/atlantis_fw/AsicFwS2/include/matrix.h **** 
 543:/home/tienluong/workspace/atlantis_fw/AsicFwS2/include/matrix.h **** 
 544:/home/tienluong/workspace/atlantis_fw/AsicFwS2/include/matrix.h **** // -----------------------------------------------------------
 545:/home/tienluong/workspace/atlantis_fw/AsicFwS2/include/matrix.h **** // 			Matrix class
 546:/home/tienluong/workspace/atlantis_fw/AsicFwS2/include/matrix.h **** // -----------------------------------------------------------
 547:/home/tienluong/workspace/atlantis_fw/AsicFwS2/include/matrix.h **** namespace Internal
 548:/home/tienluong/workspace/atlantis_fw/AsicFwS2/include/matrix.h **** {
 549:/home/tienluong/workspace/atlantis_fw/AsicFwS2/include/matrix.h **** 
 550:/home/tienluong/workspace/atlantis_fw/AsicFwS2/include/matrix.h **** template<typename T, int R, int C>
 551:/home/tienluong/workspace/atlantis_fw/AsicFwS2/include/matrix.h **** class MatrixStorage
 552:/home/tienluong/workspace/atlantis_fw/AsicFwS2/include/matrix.h **** {
 553:/home/tienluong/workspace/atlantis_fw/AsicFwS2/include/matrix.h **** public:
 554:/home/tienluong/workspace/atlantis_fw/AsicFwS2/include/matrix.h ****     MatrixStorage() {}
 555:/home/tienluong/workspace/atlantis_fw/AsicFwS2/include/matrix.h **** protected:
 556:/home/tienluong/workspace/atlantis_fw/AsicFwS2/include/matrix.h ****     T _data[R * C];
 557:/home/tienluong/workspace/atlantis_fw/AsicFwS2/include/matrix.h **** };
 558:/home/tienluong/workspace/atlantis_fw/AsicFwS2/include/matrix.h **** 
 559:/home/tienluong/workspace/atlantis_fw/AsicFwS2/include/matrix.h **** #if 0
 560:/home/tienluong/workspace/atlantis_fw/AsicFwS2/include/matrix.h **** /// Some Matrix types require aligned storage due to SIMD acceleration
 561:/home/tienluong/workspace/atlantis_fw/AsicFwS2/include/matrix.h **** template<>
 562:/home/tienluong/workspace/atlantis_fw/AsicFwS2/include/matrix.h **** class MatrixStorage<float, 4, 4>
 563:/home/tienluong/workspace/atlantis_fw/AsicFwS2/include/matrix.h **** {
 564:/home/tienluong/workspace/atlantis_fw/AsicFwS2/include/matrix.h **** public:
 565:/home/tienluong/workspace/atlantis_fw/AsicFwS2/include/matrix.h ****     MatrixStorage() {}
 566:/home/tienluong/workspace/atlantis_fw/AsicFwS2/include/matrix.h **** protected:
 567:/home/tienluong/workspace/atlantis_fw/AsicFwS2/include/matrix.h ****     alignas( 16 ) float _data[16];
 568:/home/tienluong/workspace/atlantis_fw/AsicFwS2/include/matrix.h **** };
 569:/home/tienluong/workspace/atlantis_fw/AsicFwS2/include/matrix.h **** #endif
 570:/home/tienluong/workspace/atlantis_fw/AsicFwS2/include/matrix.h **** } // Internal namespace
 571:/home/tienluong/workspace/atlantis_fw/AsicFwS2/include/matrix.h **** 
 572:/home/tienluong/workspace/atlantis_fw/AsicFwS2/include/matrix.h **** template<typename T, int R, int C, bool RowMajor = true>
 573:/home/tienluong/workspace/atlantis_fw/AsicFwS2/include/matrix.h **** class Matrix : public Internal::MatrixStorage<T, R, C>
 574:/home/tienluong/workspace/atlantis_fw/AsicFwS2/include/matrix.h **** {
 575:/home/tienluong/workspace/atlantis_fw/AsicFwS2/include/matrix.h ****     //static_assert( std::is_floating_point<T>::value, "Matrix template class requires floating poi
 576:/home/tienluong/workspace/atlantis_fw/AsicFwS2/include/matrix.h ****     static constexpr int kSize = R * C;
 577:/home/tienluong/workspace/atlantis_fw/AsicFwS2/include/matrix.h **** 
 578:/home/tienluong/workspace/atlantis_fw/AsicFwS2/include/matrix.h ****     static inline constexpr int Idx( int row, int col )
 579:/home/tienluong/workspace/atlantis_fw/AsicFwS2/include/matrix.h ****     {
 580:/home/tienluong/workspace/atlantis_fw/AsicFwS2/include/matrix.h ****         return RowMajor ? row * C + col : col * R + row;
 581:/home/tienluong/workspace/atlantis_fw/AsicFwS2/include/matrix.h ****     }
 582:/home/tienluong/workspace/atlantis_fw/AsicFwS2/include/matrix.h **** 
 583:/home/tienluong/workspace/atlantis_fw/AsicFwS2/include/matrix.h **** public:
 584:/home/tienluong/workspace/atlantis_fw/AsicFwS2/include/matrix.h ****     using ScalarType = T;
 585:/home/tienluong/workspace/atlantis_fw/AsicFwS2/include/matrix.h **** 
 586:/home/tienluong/workspace/atlantis_fw/AsicFwS2/include/matrix.h ****     static constexpr int kRows = R;
 587:/home/tienluong/workspace/atlantis_fw/AsicFwS2/include/matrix.h ****     static constexpr int kCols = C;
 588:/home/tienluong/workspace/atlantis_fw/AsicFwS2/include/matrix.h **** 
 589:/home/tienluong/workspace/atlantis_fw/AsicFwS2/include/matrix.h ****     Matrix() { }
 590:/home/tienluong/workspace/atlantis_fw/AsicFwS2/include/matrix.h **** 
 591:/home/tienluong/workspace/atlantis_fw/AsicFwS2/include/matrix.h ****     Matrix( const Matrix<T, R, C, true> & src ) { *this = src; }
 592:/home/tienluong/workspace/atlantis_fw/AsicFwS2/include/matrix.h **** 
 593:/home/tienluong/workspace/atlantis_fw/AsicFwS2/include/matrix.h ****     Matrix( const Matrix<T, R, C, false> & src ) { *this = src; }
 594:/home/tienluong/workspace/atlantis_fw/AsicFwS2/include/matrix.h **** 
 595:/home/tienluong/workspace/atlantis_fw/AsicFwS2/include/matrix.h ****     /// Input in row-major order.
 596:/home/tienluong/workspace/atlantis_fw/AsicFwS2/include/matrix.h ****     Matrix( std::initializer_list<T> list ) { *this = list; }
 597:/home/tienluong/workspace/atlantis_fw/AsicFwS2/include/matrix.h **** 
 598:/home/tienluong/workspace/atlantis_fw/AsicFwS2/include/matrix.h ****     /// Input in row-major order.
 599:/home/tienluong/workspace/atlantis_fw/AsicFwS2/include/matrix.h ****     explicit Matrix( const std::vector<T> & data ) { *this = data; }
 600:/home/tienluong/workspace/atlantis_fw/AsicFwS2/include/matrix.h **** 
 601:/home/tienluong/workspace/atlantis_fw/AsicFwS2/include/matrix.h ****     /// Input in row-major order.
 602:/home/tienluong/workspace/atlantis_fw/AsicFwS2/include/matrix.h ****     explicit Matrix( const T * ptr )
 603:/home/tienluong/workspace/atlantis_fw/AsicFwS2/include/matrix.h ****     {
 604:/home/tienluong/workspace/atlantis_fw/AsicFwS2/include/matrix.h ****         for( int i = 0; i < R; ++i )
 605:/home/tienluong/workspace/atlantis_fw/AsicFwS2/include/matrix.h ****         {
 606:/home/tienluong/workspace/atlantis_fw/AsicFwS2/include/matrix.h ****             for( int j = 0; j < C; ++j )
 607:/home/tienluong/workspace/atlantis_fw/AsicFwS2/include/matrix.h ****             { this->_data[Idx( i, j )] = ptr[i * C + j]; }
 608:/home/tienluong/workspace/atlantis_fw/AsicFwS2/include/matrix.h ****         }
 609:/home/tienluong/workspace/atlantis_fw/AsicFwS2/include/matrix.h ****     }
 610:/home/tienluong/workspace/atlantis_fw/AsicFwS2/include/matrix.h **** 
 611:/home/tienluong/workspace/atlantis_fw/AsicFwS2/include/matrix.h ****     // generic size/type converting constructor
 612:/home/tienluong/workspace/atlantis_fw/AsicFwS2/include/matrix.h ****     // performs matrix truncation/expansion if necessary
 613:/home/tienluong/workspace/atlantis_fw/AsicFwS2/include/matrix.h ****     template<typename U, int M, int N, bool D>
 614:/home/tienluong/workspace/atlantis_fw/AsicFwS2/include/matrix.h ****     explicit Matrix( const Matrix<U, M, N, D> & src )
 615:/home/tienluong/workspace/atlantis_fw/AsicFwS2/include/matrix.h ****     {
 616:/home/tienluong/workspace/atlantis_fw/AsicFwS2/include/matrix.h ****         constexpr int kMinRow = M < R ? M : R;
 617:/home/tienluong/workspace/atlantis_fw/AsicFwS2/include/matrix.h ****         constexpr int kMinCol = N < C ? N : C;
 618:/home/tienluong/workspace/atlantis_fw/AsicFwS2/include/matrix.h ****         for( int i = 0; i < kMinRow; ++i )
 619:/home/tienluong/workspace/atlantis_fw/AsicFwS2/include/matrix.h ****         {
 620:/home/tienluong/workspace/atlantis_fw/AsicFwS2/include/matrix.h ****             for( int j = 0; j < kMinCol; ++j )
 621:/home/tienluong/workspace/atlantis_fw/AsicFwS2/include/matrix.h ****             { this->_data[Idx( i, j )] = static_cast<T>( src( i, j ) ); }
 622:/home/tienluong/workspace/atlantis_fw/AsicFwS2/include/matrix.h ****             for( int j = kMinCol; j < C; ++j )
 623:/home/tienluong/workspace/atlantis_fw/AsicFwS2/include/matrix.h ****             { this->_data[Idx( i, j )] = i == j ? T{1} : T{0}; }
 624:/home/tienluong/workspace/atlantis_fw/AsicFwS2/include/matrix.h ****         }
 625:/home/tienluong/workspace/atlantis_fw/AsicFwS2/include/matrix.h ****         for( int i = kMinRow; i < R; ++i )
 626:/home/tienluong/workspace/atlantis_fw/AsicFwS2/include/matrix.h ****         {
 627:/home/tienluong/workspace/atlantis_fw/AsicFwS2/include/matrix.h ****             for( int j = 0; j < C; ++j )
 628:/home/tienluong/workspace/atlantis_fw/AsicFwS2/include/matrix.h ****             { this->_data[Idx( i, j )] = i == j ? T{1} : T{0}; }
 629:/home/tienluong/workspace/atlantis_fw/AsicFwS2/include/matrix.h ****         }
 630:/home/tienluong/workspace/atlantis_fw/AsicFwS2/include/matrix.h ****     }
 631:/home/tienluong/workspace/atlantis_fw/AsicFwS2/include/matrix.h **** 
 632:/home/tienluong/workspace/atlantis_fw/AsicFwS2/include/matrix.h ****     template<int M, int N, bool D>
 633:/home/tienluong/workspace/atlantis_fw/AsicFwS2/include/matrix.h ****     Matrix & operator=( const Matrix<T, M, N, D> & src )
 634:/home/tienluong/workspace/atlantis_fw/AsicFwS2/include/matrix.h ****     {
 635:/home/tienluong/workspace/atlantis_fw/AsicFwS2/include/matrix.h ****         static_assert( R == M && C == N, "matrix size mismatch!" );
 636:/home/tienluong/workspace/atlantis_fw/AsicFwS2/include/matrix.h ****         if( RowMajor == D )
 637:/home/tienluong/workspace/atlantis_fw/AsicFwS2/include/matrix.h ****         {
 638:/home/tienluong/workspace/atlantis_fw/AsicFwS2/include/matrix.h ****             // same element ordering, just copy the elements
 639:/home/tienluong/workspace/atlantis_fw/AsicFwS2/include/matrix.h ****             const T * src_ptr = src.data();
 640:/home/tienluong/workspace/atlantis_fw/AsicFwS2/include/matrix.h ****             for( int i = 0; i < kSize; ++i ) { this->_data[i] = src_ptr[i]; }
 641:/home/tienluong/workspace/atlantis_fw/AsicFwS2/include/matrix.h ****         }
 642:/home/tienluong/workspace/atlantis_fw/AsicFwS2/include/matrix.h ****         else
 643:/home/tienluong/workspace/atlantis_fw/AsicFwS2/include/matrix.h ****         {
 644:/home/tienluong/workspace/atlantis_fw/AsicFwS2/include/matrix.h ****             // different element ordering requires a transpose
 645:/home/tienluong/workspace/atlantis_fw/AsicFwS2/include/matrix.h ****             for( int i = 0; i < R; ++i )
 646:/home/tienluong/workspace/atlantis_fw/AsicFwS2/include/matrix.h ****             {
 647:/home/tienluong/workspace/atlantis_fw/AsicFwS2/include/matrix.h ****                 for( int j = 0; j < C; ++j )
 648:/home/tienluong/workspace/atlantis_fw/AsicFwS2/include/matrix.h ****                 { this->_data[Idx( i, j )] = src( i, j ); }
 649:/home/tienluong/workspace/atlantis_fw/AsicFwS2/include/matrix.h ****             }
 650:/home/tienluong/workspace/atlantis_fw/AsicFwS2/include/matrix.h ****         }
 651:/home/tienluong/workspace/atlantis_fw/AsicFwS2/include/matrix.h ****         return *this;
 652:/home/tienluong/workspace/atlantis_fw/AsicFwS2/include/matrix.h ****     }
 653:/home/tienluong/workspace/atlantis_fw/AsicFwS2/include/matrix.h **** 
 654:/home/tienluong/workspace/atlantis_fw/AsicFwS2/include/matrix.h ****     /// Input in row-major order.
 655:/home/tienluong/workspace/atlantis_fw/AsicFwS2/include/matrix.h ****     Matrix & operator=( const std::vector<T> & src )
 656:/home/tienluong/workspace/atlantis_fw/AsicFwS2/include/matrix.h ****     {
 657:/home/tienluong/workspace/atlantis_fw/AsicFwS2/include/matrix.h ****         //if( src.size() != kSize )
 658:/home/tienluong/workspace/atlantis_fw/AsicFwS2/include/matrix.h ****         //{ LT_THROW( "source data and matrix size mismatch!" ); }
 659:/home/tienluong/workspace/atlantis_fw/AsicFwS2/include/matrix.h **** 
 660:/home/tienluong/workspace/atlantis_fw/AsicFwS2/include/matrix.h ****         auto it = src.begin();
 661:/home/tienluong/workspace/atlantis_fw/AsicFwS2/include/matrix.h ****         for( int i = 0; i < R; ++i )
 662:/home/tienluong/workspace/atlantis_fw/AsicFwS2/include/matrix.h ****         {
 663:/home/tienluong/workspace/atlantis_fw/AsicFwS2/include/matrix.h ****             for( int j = 0; j < C; ++j, ++it )
 664:/home/tienluong/workspace/atlantis_fw/AsicFwS2/include/matrix.h ****             { this->_data[Idx( i, j )] = *it; }
 665:/home/tienluong/workspace/atlantis_fw/AsicFwS2/include/matrix.h ****         }
 666:/home/tienluong/workspace/atlantis_fw/AsicFwS2/include/matrix.h **** 
 667:/home/tienluong/workspace/atlantis_fw/AsicFwS2/include/matrix.h ****         return *this;
 668:/home/tienluong/workspace/atlantis_fw/AsicFwS2/include/matrix.h ****     }
 669:/home/tienluong/workspace/atlantis_fw/AsicFwS2/include/matrix.h **** 
 670:/home/tienluong/workspace/atlantis_fw/AsicFwS2/include/matrix.h ****     /// Input in row-major order.
 671:/home/tienluong/workspace/atlantis_fw/AsicFwS2/include/matrix.h ****     Matrix & operator=( const std::initializer_list<T> src )
 672:/home/tienluong/workspace/atlantis_fw/AsicFwS2/include/matrix.h ****     {
 673:/home/tienluong/workspace/atlantis_fw/AsicFwS2/include/matrix.h ****         //if( src.size() != kSize )
 674:/home/tienluong/workspace/atlantis_fw/AsicFwS2/include/matrix.h ****         //{ LT_THROW( "source data and matrix size mismatch!" ); }
 675:/home/tienluong/workspace/atlantis_fw/AsicFwS2/include/matrix.h **** 
 676:/home/tienluong/workspace/atlantis_fw/AsicFwS2/include/matrix.h ****         auto it = src.begin();
 677:/home/tienluong/workspace/atlantis_fw/AsicFwS2/include/matrix.h ****         for( int i = 0; i < R; ++i )
 678:/home/tienluong/workspace/atlantis_fw/AsicFwS2/include/matrix.h ****         {
 679:/home/tienluong/workspace/atlantis_fw/AsicFwS2/include/matrix.h ****             for( int j = 0; j < C; ++j, ++it )
 680:/home/tienluong/workspace/atlantis_fw/AsicFwS2/include/matrix.h ****             { this->_data[Idx( i, j )] = *it; }
 681:/home/tienluong/workspace/atlantis_fw/AsicFwS2/include/matrix.h ****         }
 682:/home/tienluong/workspace/atlantis_fw/AsicFwS2/include/matrix.h **** 
 683:/home/tienluong/workspace/atlantis_fw/AsicFwS2/include/matrix.h ****         return *this;
 684:/home/tienluong/workspace/atlantis_fw/AsicFwS2/include/matrix.h ****     }
 685:/home/tienluong/workspace/atlantis_fw/AsicFwS2/include/matrix.h **** 
 686:/home/tienluong/workspace/atlantis_fw/AsicFwS2/include/matrix.h ****     Matrix & operator=( T scalar )
 687:/home/tienluong/workspace/atlantis_fw/AsicFwS2/include/matrix.h ****     {
 688:/home/tienluong/workspace/atlantis_fw/AsicFwS2/include/matrix.h ****         for( int i = 0; i < kSize; ++i ) { this->_data[i] = scalar; }
 689:/home/tienluong/workspace/atlantis_fw/AsicFwS2/include/matrix.h ****         return *this;
 690:/home/tienluong/workspace/atlantis_fw/AsicFwS2/include/matrix.h ****     }
 691:/home/tienluong/workspace/atlantis_fw/AsicFwS2/include/matrix.h **** 
 692:/home/tienluong/workspace/atlantis_fw/AsicFwS2/include/matrix.h ****     template<typename U, int M, int N, bool D>
 693:/home/tienluong/workspace/atlantis_fw/AsicFwS2/include/matrix.h ****     bool operator==( const Matrix<U, M, N, D> & mat ) const
 694:/home/tienluong/workspace/atlantis_fw/AsicFwS2/include/matrix.h ****     {
 695:/home/tienluong/workspace/atlantis_fw/AsicFwS2/include/matrix.h ****         static_assert( R == M && C == N, "matrix size mismatch!" );
 696:/home/tienluong/workspace/atlantis_fw/AsicFwS2/include/matrix.h ****         for( int i = 0; i < R; ++i )
 697:/home/tienluong/workspace/atlantis_fw/AsicFwS2/include/matrix.h ****         {
 698:/home/tienluong/workspace/atlantis_fw/AsicFwS2/include/matrix.h ****             for( int j = 0; j < C; ++j )
 699:/home/tienluong/workspace/atlantis_fw/AsicFwS2/include/matrix.h ****             { if( this->_data[Idx( i, j )] != mat( i, j ) ) { return false; } }
 700:/home/tienluong/workspace/atlantis_fw/AsicFwS2/include/matrix.h ****         }
 701:/home/tienluong/workspace/atlantis_fw/AsicFwS2/include/matrix.h ****         return true;
 702:/home/tienluong/workspace/atlantis_fw/AsicFwS2/include/matrix.h ****     }
 703:/home/tienluong/workspace/atlantis_fw/AsicFwS2/include/matrix.h **** 
 704:/home/tienluong/workspace/atlantis_fw/AsicFwS2/include/matrix.h ****     template<typename U, int M, int N, bool D>
 705:/home/tienluong/workspace/atlantis_fw/AsicFwS2/include/matrix.h ****     bool operator!=( const Matrix<U, M, N, D> & mat ) const
 706:/home/tienluong/workspace/atlantis_fw/AsicFwS2/include/matrix.h ****     { return !( *this == mat ); }
 707:/home/tienluong/workspace/atlantis_fw/AsicFwS2/include/matrix.h **** 
 708:/home/tienluong/workspace/atlantis_fw/AsicFwS2/include/matrix.h ****     const T * data() const { return this->_data; }
 709:/home/tienluong/workspace/atlantis_fw/AsicFwS2/include/matrix.h ****     T * data() { return this->_data; }
 710:/home/tienluong/workspace/atlantis_fw/AsicFwS2/include/matrix.h **** 
 711:/home/tienluong/workspace/atlantis_fw/AsicFwS2/include/matrix.h ****     T & operator()( int r, int c ) { return this->_data[Idx( r, c )]; }
 712:/home/tienluong/workspace/atlantis_fw/AsicFwS2/include/matrix.h ****     const T & operator()( int r, int c ) const { return this->_data[Idx( r, c )]; }
 713:/home/tienluong/workspace/atlantis_fw/AsicFwS2/include/matrix.h **** 
 714:/home/tienluong/workspace/atlantis_fw/AsicFwS2/include/matrix.h ****     template<int M, int N, bool D>
 715:/home/tienluong/workspace/atlantis_fw/AsicFwS2/include/matrix.h ****     Matrix<T, R, N> operator*( const Matrix<T, M, N, D> & mat ) const
 716:/home/tienluong/workspace/atlantis_fw/AsicFwS2/include/matrix.h ****     {
 717:/home/tienluong/workspace/atlantis_fw/AsicFwS2/include/matrix.h ****         static_assert( C == M, "invalid matrix product!" );
 718:/home/tienluong/workspace/atlantis_fw/AsicFwS2/include/matrix.h ****         Matrix<T, R, N> rval;
 719:/home/tienluong/workspace/atlantis_fw/AsicFwS2/include/matrix.h **** 
 720:/home/tienluong/workspace/atlantis_fw/AsicFwS2/include/matrix.h ****         // XXX: is this code actually more SIMD-friendly than a naive implementation?
 721:/home/tienluong/workspace/atlantis_fw/AsicFwS2/include/matrix.h ****         for( int i = 0; i < R; ++i )
 722:/home/tienluong/workspace/atlantis_fw/AsicFwS2/include/matrix.h ****         {
 723:/home/tienluong/workspace/atlantis_fw/AsicFwS2/include/matrix.h ****             // set 1st row
 724:/home/tienluong/workspace/atlantis_fw/AsicFwS2/include/matrix.h ****             for( int j = 0; j < N; ++j )
 725:/home/tienluong/workspace/atlantis_fw/AsicFwS2/include/matrix.h ****             { rval( i, j ) = this->_data[Idx( i, 0 )] * mat( 0, j ); }
 726:/home/tienluong/workspace/atlantis_fw/AsicFwS2/include/matrix.h ****             // accum n-th row
 727:/home/tienluong/workspace/atlantis_fw/AsicFwS2/include/matrix.h ****             for( int k = 1; k < M; ++k )
 728:/home/tienluong/workspace/atlantis_fw/AsicFwS2/include/matrix.h ****             {
 729:/home/tienluong/workspace/atlantis_fw/AsicFwS2/include/matrix.h ****                 for( int j = 0; j < N; ++j )
 730:/home/tienluong/workspace/atlantis_fw/AsicFwS2/include/matrix.h ****                 { rval( i, j ) += this->_data[Idx( i, k )] * mat( k, j ); }
 731:/home/tienluong/workspace/atlantis_fw/AsicFwS2/include/matrix.h ****             }
 732:/home/tienluong/workspace/atlantis_fw/AsicFwS2/include/matrix.h ****         }
 733:/home/tienluong/workspace/atlantis_fw/AsicFwS2/include/matrix.h ****         return rval;
 734:/home/tienluong/workspace/atlantis_fw/AsicFwS2/include/matrix.h ****     }
 735:/home/tienluong/workspace/atlantis_fw/AsicFwS2/include/matrix.h **** 
 736:/home/tienluong/workspace/atlantis_fw/AsicFwS2/include/matrix.h ****     template<int M, int N, bool D>
 737:/home/tienluong/workspace/atlantis_fw/AsicFwS2/include/matrix.h ****     Matrix & operator *=( const Matrix<T, M, N, D> & mat )
 738:/home/tienluong/workspace/atlantis_fw/AsicFwS2/include/matrix.h ****     {
 739:/home/tienluong/workspace/atlantis_fw/AsicFwS2/include/matrix.h ****         *this = *this * mat;
 740:/home/tienluong/workspace/atlantis_fw/AsicFwS2/include/matrix.h ****         return *this;
 741:/home/tienluong/workspace/atlantis_fw/AsicFwS2/include/matrix.h ****     }
 742:/home/tienluong/workspace/atlantis_fw/AsicFwS2/include/matrix.h **** 
 743:/home/tienluong/workspace/atlantis_fw/AsicFwS2/include/matrix.h ****     template<int M, int N, bool D>
 744:/home/tienluong/workspace/atlantis_fw/AsicFwS2/include/matrix.h ****     Matrix & operator +=( const Matrix<T, M, N, D> & mat )
 745:/home/tienluong/workspace/atlantis_fw/AsicFwS2/include/matrix.h ****     {
 746:/home/tienluong/workspace/atlantis_fw/AsicFwS2/include/matrix.h ****         static_assert( R == M && C == N, "matrix size mismatch!" );
 747:/home/tienluong/workspace/atlantis_fw/AsicFwS2/include/matrix.h ****         for( int i = 0; i < R; ++i )
 748:/home/tienluong/workspace/atlantis_fw/AsicFwS2/include/matrix.h ****         {
 749:/home/tienluong/workspace/atlantis_fw/AsicFwS2/include/matrix.h ****             for( int j = 0; j < C; ++j )
 750:/home/tienluong/workspace/atlantis_fw/AsicFwS2/include/matrix.h ****             { this->_data[Idx( i, j )] += mat( i, j ); }
 751:/home/tienluong/workspace/atlantis_fw/AsicFwS2/include/matrix.h ****         }
 752:/home/tienluong/workspace/atlantis_fw/AsicFwS2/include/matrix.h ****         return *this;
 753:/home/tienluong/workspace/atlantis_fw/AsicFwS2/include/matrix.h ****     }
 754:/home/tienluong/workspace/atlantis_fw/AsicFwS2/include/matrix.h **** 
 755:/home/tienluong/workspace/atlantis_fw/AsicFwS2/include/matrix.h ****     template<int M, int N, bool D>
 756:/home/tienluong/workspace/atlantis_fw/AsicFwS2/include/matrix.h ****     Matrix & operator -=( const Matrix<T, M, N, D> & mat )
 757:/home/tienluong/workspace/atlantis_fw/AsicFwS2/include/matrix.h ****     {
 758:/home/tienluong/workspace/atlantis_fw/AsicFwS2/include/matrix.h ****         static_assert( R == M && C == N, "matrix size mismatch!" );
 759:/home/tienluong/workspace/atlantis_fw/AsicFwS2/include/matrix.h ****         for( int i = 0; i < R; ++i )
 760:/home/tienluong/workspace/atlantis_fw/AsicFwS2/include/matrix.h ****         {
 761:/home/tienluong/workspace/atlantis_fw/AsicFwS2/include/matrix.h ****             for( int j = 0; j < C; ++j )
 762:/home/tienluong/workspace/atlantis_fw/AsicFwS2/include/matrix.h ****             { this->_data[Idx( i, j )] -= mat( i, j ); }
 763:/home/tienluong/workspace/atlantis_fw/AsicFwS2/include/matrix.h ****         }
 764:/home/tienluong/workspace/atlantis_fw/AsicFwS2/include/matrix.h ****         return *this;
 765:/home/tienluong/workspace/atlantis_fw/AsicFwS2/include/matrix.h ****     }
 766:/home/tienluong/workspace/atlantis_fw/AsicFwS2/include/matrix.h **** 
 767:/home/tienluong/workspace/atlantis_fw/AsicFwS2/include/matrix.h ****     Matrix & operator *=( T scalar )
 768:/home/tienluong/workspace/atlantis_fw/AsicFwS2/include/matrix.h ****     {
 769:/home/tienluong/workspace/atlantis_fw/AsicFwS2/include/matrix.h ****         for( int i = 0; i < kSize; ++i ) { this->_data[i] *= scalar; }
 770:/home/tienluong/workspace/atlantis_fw/AsicFwS2/include/matrix.h ****         return *this;
 771:/home/tienluong/workspace/atlantis_fw/AsicFwS2/include/matrix.h ****     }
 772:/home/tienluong/workspace/atlantis_fw/AsicFwS2/include/matrix.h **** 
 773:/home/tienluong/workspace/atlantis_fw/AsicFwS2/include/matrix.h ****     Matrix & operator +=( T scalar )
 774:/home/tienluong/workspace/atlantis_fw/AsicFwS2/include/matrix.h ****     {
 775:/home/tienluong/workspace/atlantis_fw/AsicFwS2/include/matrix.h ****         for( int i = 0; i < kSize; ++i ) { this->_data[i] += scalar; }
 776:/home/tienluong/workspace/atlantis_fw/AsicFwS2/include/matrix.h ****         return *this;
 777:/home/tienluong/workspace/atlantis_fw/AsicFwS2/include/matrix.h ****     }
 778:/home/tienluong/workspace/atlantis_fw/AsicFwS2/include/matrix.h **** 
 779:/home/tienluong/workspace/atlantis_fw/AsicFwS2/include/matrix.h ****     Matrix & operator /=( T scalar )
 780:/home/tienluong/workspace/atlantis_fw/AsicFwS2/include/matrix.h ****     {
 781:/home/tienluong/workspace/atlantis_fw/AsicFwS2/include/matrix.h ****         scalar = 1.0f / scalar;
 782:/home/tienluong/workspace/atlantis_fw/AsicFwS2/include/matrix.h ****         for( int i = 0; i < kSize; ++i ) { this->_data[i] *= scalar; }
 783:/home/tienluong/workspace/atlantis_fw/AsicFwS2/include/matrix.h ****         return *this;
 784:/home/tienluong/workspace/atlantis_fw/AsicFwS2/include/matrix.h ****     }
 785:/home/tienluong/workspace/atlantis_fw/AsicFwS2/include/matrix.h **** 
 786:/home/tienluong/workspace/atlantis_fw/AsicFwS2/include/matrix.h ****     Matrix & operator -=( T scalar )
 787:/home/tienluong/workspace/atlantis_fw/AsicFwS2/include/matrix.h ****     {
 788:/home/tienluong/workspace/atlantis_fw/AsicFwS2/include/matrix.h ****         for( int i = 0; i < kSize; ++i ) { this->_data[i] -= scalar; }
 789:/home/tienluong/workspace/atlantis_fw/AsicFwS2/include/matrix.h ****         return *this;
 790:/home/tienluong/workspace/atlantis_fw/AsicFwS2/include/matrix.h ****     }
 791:/home/tienluong/workspace/atlantis_fw/AsicFwS2/include/matrix.h **** 
 792:/home/tienluong/workspace/atlantis_fw/AsicFwS2/include/matrix.h ****     template<int M, int N, bool D>
 793:/home/tienluong/workspace/atlantis_fw/AsicFwS2/include/matrix.h ****     Matrix operator+( const Matrix<T, M, N, D> & mat ) const
 794:/home/tienluong/workspace/atlantis_fw/AsicFwS2/include/matrix.h ****     { Matrix rval{*this}; rval += mat; return rval; }
 795:/home/tienluong/workspace/atlantis_fw/AsicFwS2/include/matrix.h **** 
 796:/home/tienluong/workspace/atlantis_fw/AsicFwS2/include/matrix.h ****     template<int M, int N, bool D>
 797:/home/tienluong/workspace/atlantis_fw/AsicFwS2/include/matrix.h ****     Matrix operator-( const Matrix<T, M, N, D> & mat ) const
 798:/home/tienluong/workspace/atlantis_fw/AsicFwS2/include/matrix.h ****     { Matrix rval{*this}; rval -= mat; return rval; }
 799:/home/tienluong/workspace/atlantis_fw/AsicFwS2/include/matrix.h **** 
 800:/home/tienluong/workspace/atlantis_fw/AsicFwS2/include/matrix.h ****     Matrix operator*( T scalar ) const
 801:/home/tienluong/workspace/atlantis_fw/AsicFwS2/include/matrix.h ****     { Matrix rval{*this}; rval *= scalar; return rval; }
 802:/home/tienluong/workspace/atlantis_fw/AsicFwS2/include/matrix.h **** 
 803:/home/tienluong/workspace/atlantis_fw/AsicFwS2/include/matrix.h ****     Matrix operator+( T scalar ) const
 804:/home/tienluong/workspace/atlantis_fw/AsicFwS2/include/matrix.h ****     { Matrix rval{*this}; rval += scalar; return rval; }
 805:/home/tienluong/workspace/atlantis_fw/AsicFwS2/include/matrix.h **** 
 806:/home/tienluong/workspace/atlantis_fw/AsicFwS2/include/matrix.h ****     Matrix operator-( T scalar ) const
 807:/home/tienluong/workspace/atlantis_fw/AsicFwS2/include/matrix.h ****     { Matrix rval{*this}; rval -= scalar; return rval; }
 808:/home/tienluong/workspace/atlantis_fw/AsicFwS2/include/matrix.h **** 
 809:/home/tienluong/workspace/atlantis_fw/AsicFwS2/include/matrix.h ****     Matrix operator/( T scalar ) const
 810:/home/tienluong/workspace/atlantis_fw/AsicFwS2/include/matrix.h ****     { Matrix rval{*this}; rval /= scalar; return rval; }
 811:/home/tienluong/workspace/atlantis_fw/AsicFwS2/include/matrix.h **** 
 812:/home/tienluong/workspace/atlantis_fw/AsicFwS2/include/matrix.h ****     Matrix<T, 1, C> row( int i ) const
 813:/home/tienluong/workspace/atlantis_fw/AsicFwS2/include/matrix.h ****     {
 814:/home/tienluong/workspace/atlantis_fw/AsicFwS2/include/matrix.h ****         Matrix<T, 1, C> rval;
 815:/home/tienluong/workspace/atlantis_fw/AsicFwS2/include/matrix.h ****         for( int j = 0; j < C; ++j ) { rval( 0, j ) = this->_data[Idx( i, j )]; }
 816:/home/tienluong/workspace/atlantis_fw/AsicFwS2/include/matrix.h ****         return rval;
 817:/home/tienluong/workspace/atlantis_fw/AsicFwS2/include/matrix.h ****     }
 818:/home/tienluong/workspace/atlantis_fw/AsicFwS2/include/matrix.h **** 
 819:/home/tienluong/workspace/atlantis_fw/AsicFwS2/include/matrix.h ****     Matrix<T, 1, C> column( int i ) const
 820:/home/tienluong/workspace/atlantis_fw/AsicFwS2/include/matrix.h ****     {
 821:/home/tienluong/workspace/atlantis_fw/AsicFwS2/include/matrix.h ****         Matrix<T, R, 1> rval;
 822:/home/tienluong/workspace/atlantis_fw/AsicFwS2/include/matrix.h ****         for( int j = 0; j < R; ++j ) { rval( j, 0 ) = this->_data[Idx( j, i )]; }
 823:/home/tienluong/workspace/atlantis_fw/AsicFwS2/include/matrix.h ****         return rval;
 824:/home/tienluong/workspace/atlantis_fw/AsicFwS2/include/matrix.h ****     }
 825:/home/tienluong/workspace/atlantis_fw/AsicFwS2/include/matrix.h **** 
 826:/home/tienluong/workspace/atlantis_fw/AsicFwS2/include/matrix.h ****     Matrix & swapRow( int i, int j )
 827:/home/tienluong/workspace/atlantis_fw/AsicFwS2/include/matrix.h ****     {
 828:/home/tienluong/workspace/atlantis_fw/AsicFwS2/include/matrix.h ****         using std::swap;
 829:/home/tienluong/workspace/atlantis_fw/AsicFwS2/include/matrix.h ****         for( int k = 0; k < C; ++k )
 830:/home/tienluong/workspace/atlantis_fw/AsicFwS2/include/matrix.h ****         { swap( this->_data[Idx( i, k )], this->_data[Idx( j, k )] ); }
 831:/home/tienluong/workspace/atlantis_fw/AsicFwS2/include/matrix.h ****         return *this;
 832:/home/tienluong/workspace/atlantis_fw/AsicFwS2/include/matrix.h ****     }
 833:/home/tienluong/workspace/atlantis_fw/AsicFwS2/include/matrix.h **** 
 834:/home/tienluong/workspace/atlantis_fw/AsicFwS2/include/matrix.h ****     Matrix & swapColumn( int i, int j )
 835:/home/tienluong/workspace/atlantis_fw/AsicFwS2/include/matrix.h ****     {
 836:/home/tienluong/workspace/atlantis_fw/AsicFwS2/include/matrix.h ****         using std::swap;
 837:/home/tienluong/workspace/atlantis_fw/AsicFwS2/include/matrix.h ****         for( int k = 0; k < R; ++k )
 838:/home/tienluong/workspace/atlantis_fw/AsicFwS2/include/matrix.h ****         { swap( this->_data[Idx( k, i )], this->_data[Idx( k, j )] ); }
 839:/home/tienluong/workspace/atlantis_fw/AsicFwS2/include/matrix.h ****         return *this;
 840:/home/tienluong/workspace/atlantis_fw/AsicFwS2/include/matrix.h ****     }
 841:/home/tienluong/workspace/atlantis_fw/AsicFwS2/include/matrix.h **** 
 842:/home/tienluong/workspace/atlantis_fw/AsicFwS2/include/matrix.h ****     T sum() const
 843:/home/tienluong/workspace/atlantis_fw/AsicFwS2/include/matrix.h ****     {
 844:/home/tienluong/workspace/atlantis_fw/AsicFwS2/include/matrix.h ****         T sum = this->_data[0];
 845:/home/tienluong/workspace/atlantis_fw/AsicFwS2/include/matrix.h ****         for( int j = 1; j < kSize; ++j ) { sum += this->_data[j]; }
 846:/home/tienluong/workspace/atlantis_fw/AsicFwS2/include/matrix.h ****         return sum;
 847:/home/tienluong/workspace/atlantis_fw/AsicFwS2/include/matrix.h ****     }
 848:/home/tienluong/workspace/atlantis_fw/AsicFwS2/include/matrix.h **** 
 849:/home/tienluong/workspace/atlantis_fw/AsicFwS2/include/matrix.h ****     Matrix & setIdentity()
 850:/home/tienluong/workspace/atlantis_fw/AsicFwS2/include/matrix.h ****     {
 851:/home/tienluong/workspace/atlantis_fw/AsicFwS2/include/matrix.h ****         for( int i = 0; i < R; ++i )
 852:/home/tienluong/workspace/atlantis_fw/AsicFwS2/include/matrix.h ****         {
 853:/home/tienluong/workspace/atlantis_fw/AsicFwS2/include/matrix.h ****             for( int j = 0; j < C; ++j )
 854:/home/tienluong/workspace/atlantis_fw/AsicFwS2/include/matrix.h ****             { this->_data[Idx( i, j )] = i == j ? T{1} : T{0}; }
 855:/home/tienluong/workspace/atlantis_fw/AsicFwS2/include/matrix.h ****         }
 856:/home/tienluong/workspace/atlantis_fw/AsicFwS2/include/matrix.h ****         return *this;
 857:/home/tienluong/workspace/atlantis_fw/AsicFwS2/include/matrix.h ****     }
 858:/home/tienluong/workspace/atlantis_fw/AsicFwS2/include/matrix.h **** 
 859:/home/tienluong/workspace/atlantis_fw/AsicFwS2/include/matrix.h ****     const Matrix < T, C, R, !RowMajor > & transpose() const
 860:/home/tienluong/workspace/atlantis_fw/AsicFwS2/include/matrix.h ****     {
 861:/home/tienluong/workspace/atlantis_fw/AsicFwS2/include/matrix.h ****         return *reinterpret_cast < const Matrix < T, C, R, !RowMajor > * >( this );
 862:/home/tienluong/workspace/atlantis_fw/AsicFwS2/include/matrix.h ****     }
 863:/home/tienluong/workspace/atlantis_fw/AsicFwS2/include/matrix.h **** 
 864:/home/tienluong/workspace/atlantis_fw/AsicFwS2/include/matrix.h ****     // friend std::ostream & operator<<( std::ostream & os, const Matrix & m )
 865:/home/tienluong/workspace/atlantis_fw/AsicFwS2/include/matrix.h ****     // {
 866:/home/tienluong/workspace/atlantis_fw/AsicFwS2/include/matrix.h ****     //     std::stringstream sb;
 867:/home/tienluong/workspace/atlantis_fw/AsicFwS2/include/matrix.h ****     //     sb << std::endl << "[ ";
 868:/home/tienluong/workspace/atlantis_fw/AsicFwS2/include/matrix.h ****     //     for( int i = 0; i < R; ++i )
 869:/home/tienluong/workspace/atlantis_fw/AsicFwS2/include/matrix.h ****     //     {
 870:/home/tienluong/workspace/atlantis_fw/AsicFwS2/include/matrix.h ****     //         for( int j = 0; j < C; ++j ) { sb << m( i, j ) << " "; }
 871:/home/tienluong/workspace/atlantis_fw/AsicFwS2/include/matrix.h ****     //         if( i != R - 1 ) { sb << std::endl; }
 872:/home/tienluong/workspace/atlantis_fw/AsicFwS2/include/matrix.h ****     //     }
 873:/home/tienluong/workspace/atlantis_fw/AsicFwS2/include/matrix.h ****     //     sb << "]" << std::endl;
 874:/home/tienluong/workspace/atlantis_fw/AsicFwS2/include/matrix.h ****     //     return os << sb.rdbuf();
 875:/home/tienluong/workspace/atlantis_fw/AsicFwS2/include/matrix.h ****     // }
 876:/home/tienluong/workspace/atlantis_fw/AsicFwS2/include/matrix.h **** 
 877:/home/tienluong/workspace/atlantis_fw/AsicFwS2/include/matrix.h ****     static constexpr bool IsRowMajor() { return RowMajor; }
 878:/home/tienluong/workspace/atlantis_fw/AsicFwS2/include/matrix.h **** 
 879:/home/tienluong/workspace/atlantis_fw/AsicFwS2/include/matrix.h ****     static Matrix Identity()
 880:/home/tienluong/workspace/atlantis_fw/AsicFwS2/include/matrix.h ****     {
 881:/home/tienluong/workspace/atlantis_fw/AsicFwS2/include/matrix.h ****         Matrix rval;
 882:/home/tienluong/workspace/atlantis_fw/AsicFwS2/include/matrix.h ****         return rval.setIdentity();
 883:/home/tienluong/workspace/atlantis_fw/AsicFwS2/include/matrix.h ****     }
 884:/home/tienluong/workspace/atlantis_fw/AsicFwS2/include/matrix.h **** };
 885:/home/tienluong/workspace/atlantis_fw/AsicFwS2/include/matrix.h **** 
 886:/home/tienluong/workspace/atlantis_fw/AsicFwS2/include/matrix.h **** template<typename T, int R, int C, bool D>
 887:/home/tienluong/workspace/atlantis_fw/AsicFwS2/include/matrix.h **** Matrix < T, C, R, !D > transpose( const Matrix<T, R, C, D> & mat )
 888:/home/tienluong/workspace/atlantis_fw/AsicFwS2/include/matrix.h **** {
 889:/home/tienluong/workspace/atlantis_fw/AsicFwS2/include/matrix.h ****     // simply copy the data and flip the matrix ordering
 890:/home/tienluong/workspace/atlantis_fw/AsicFwS2/include/matrix.h ****     Matrix < T, C, R, !D > rval;
 891:/home/tienluong/workspace/atlantis_fw/AsicFwS2/include/matrix.h ****     T * dst = rval.data();
 892:/home/tienluong/workspace/atlantis_fw/AsicFwS2/include/matrix.h ****     const T * src = mat.data();
 893:/home/tienluong/workspace/atlantis_fw/AsicFwS2/include/matrix.h ****     for( int i = 0; i < R * C; ++i ) { dst[i] = src[i]; }
 894:/home/tienluong/workspace/atlantis_fw/AsicFwS2/include/matrix.h ****     return rval;
 895:/home/tienluong/workspace/atlantis_fw/AsicFwS2/include/matrix.h **** }
 896:/home/tienluong/workspace/atlantis_fw/AsicFwS2/include/matrix.h **** 
 897:/home/tienluong/workspace/atlantis_fw/AsicFwS2/include/matrix.h **** template<typename T, int N, bool D>
 898:/home/tienluong/workspace/atlantis_fw/AsicFwS2/include/matrix.h **** Matrix<T, N, N, D> inverse( const Matrix<T, N, N, D> & mat );
 899:/home/tienluong/workspace/atlantis_fw/AsicFwS2/include/matrix.h **** 
 900:/home/tienluong/workspace/atlantis_fw/AsicFwS2/include/matrix.h **** template<typename T, int N, bool D>
 901:/home/tienluong/workspace/atlantis_fw/AsicFwS2/include/matrix.h **** T determinant( const Matrix<T, N, N, D> & mat );
 902:/home/tienluong/workspace/atlantis_fw/AsicFwS2/include/matrix.h **** 
 903:/home/tienluong/workspace/atlantis_fw/AsicFwS2/include/matrix.h **** // scalar-matrix operators
 904:/home/tienluong/workspace/atlantis_fw/AsicFwS2/include/matrix.h **** template<typename T, typename U, int R, int C, bool D>
 905:/home/tienluong/workspace/atlantis_fw/AsicFwS2/include/matrix.h **** typename std::enable_if<std::is_arithmetic<T>::value, Matrix<U, R, C, D> >::type
 906:/home/tienluong/workspace/atlantis_fw/AsicFwS2/include/matrix.h **** operator+( T a, const Matrix<U, R, C, D> & b ) { return b + a; }
 907:/home/tienluong/workspace/atlantis_fw/AsicFwS2/include/matrix.h **** 
 908:/home/tienluong/workspace/atlantis_fw/AsicFwS2/include/matrix.h **** template<typename T, typename U, int R, int C, bool D>
 909:/home/tienluong/workspace/atlantis_fw/AsicFwS2/include/matrix.h **** typename std::enable_if<std::is_arithmetic<T>::value, Matrix<U, R, C, D> >::type
 910:/home/tienluong/workspace/atlantis_fw/AsicFwS2/include/matrix.h **** operator-( T a, const Matrix<U, R, C, D> & b )
 911:/home/tienluong/workspace/atlantis_fw/AsicFwS2/include/matrix.h **** {
 912:/home/tienluong/workspace/atlantis_fw/AsicFwS2/include/matrix.h ****     Matrix<U, R, C, D> rval;
 913:/home/tienluong/workspace/atlantis_fw/AsicFwS2/include/matrix.h ****     for( int i = 0; i < R; ++i )
 914:/home/tienluong/workspace/atlantis_fw/AsicFwS2/include/matrix.h ****     { for( int j = 0; j < C; ++j ) { rval( i, j ) = U( a ) - b( i, j ); } }
 915:/home/tienluong/workspace/atlantis_fw/AsicFwS2/include/matrix.h ****     return rval;
 916:/home/tienluong/workspace/atlantis_fw/AsicFwS2/include/matrix.h **** }
 917:/home/tienluong/workspace/atlantis_fw/AsicFwS2/include/matrix.h **** 
 918:/home/tienluong/workspace/atlantis_fw/AsicFwS2/include/matrix.h **** template<typename T, typename U, int R, int C, bool D>
 919:/home/tienluong/workspace/atlantis_fw/AsicFwS2/include/matrix.h **** typename std::enable_if<std::is_arithmetic<T>::value, Matrix<U, R, C, D> >::type
 920:/home/tienluong/workspace/atlantis_fw/AsicFwS2/include/matrix.h **** operator*( T a, const Matrix<U, R, C, D> & b ) { return b * a; }
 921:/home/tienluong/workspace/atlantis_fw/AsicFwS2/include/matrix.h **** 
 922:/home/tienluong/workspace/atlantis_fw/AsicFwS2/include/matrix.h **** using Matrix2x2f = Matrix<float, 2, 2>;
 923:/home/tienluong/workspace/atlantis_fw/AsicFwS2/include/matrix.h **** using Matrix3x3f = Matrix<float, 3, 3>;
 924:/home/tienluong/workspace/atlantis_fw/AsicFwS2/include/matrix.h **** using Matrix4x4f = Matrix<float, 4, 4>;
 925:/home/tienluong/workspace/atlantis_fw/AsicFwS2/include/matrix.h **** using Matrix2x2d = Matrix<double, 2, 2>;
 926:/home/tienluong/workspace/atlantis_fw/AsicFwS2/include/matrix.h **** using Matrix3x3d = Matrix<double, 3, 3>;
 927:/home/tienluong/workspace/atlantis_fw/AsicFwS2/include/matrix.h **** using Matrix4x4d = Matrix<double, 4, 4>;
 928:/home/tienluong/workspace/atlantis_fw/AsicFwS2/include/matrix.h **** 
 929:/home/tienluong/workspace/atlantis_fw/AsicFwS2/include/matrix.h **** // optimized implementation of matrix-vector operations
 930:/home/tienluong/workspace/atlantis_fw/AsicFwS2/include/matrix.h **** // mind the order of color channels in memory is BGRA, i.e.,
 931:/home/tienluong/workspace/atlantis_fw/AsicFwS2/include/matrix.h **** // blue channel corresponds to the first matrix dimension!
 932:/home/tienluong/workspace/atlantis_fw/AsicFwS2/include/matrix.h **** 
 933:/home/tienluong/workspace/atlantis_fw/AsicFwS2/include/matrix.h **** template<bool D>
 934:/home/tienluong/workspace/atlantis_fw/AsicFwS2/include/matrix.h **** Vec4f operator*( const Matrix<float, 4, 4, D> & mat, const Vec4f & vec )
 935:/home/tienluong/workspace/atlantis_fw/AsicFwS2/include/matrix.h **** {
 936:/home/tienluong/workspace/atlantis_fw/AsicFwS2/include/matrix.h ****     return
 937:/home/tienluong/workspace/atlantis_fw/AsicFwS2/include/matrix.h ****     {
 938:/home/tienluong/workspace/atlantis_fw/AsicFwS2/include/matrix.h ****         mat( 0, 0 ) * vec.x() + mat( 0, 1 ) * vec.y() + mat( 0, 2 ) * vec.z() + mat( 0, 3 ) * vec.a
 939:/home/tienluong/workspace/atlantis_fw/AsicFwS2/include/matrix.h ****         mat( 1, 0 ) * vec.x() + mat( 1, 1 ) * vec.y() + mat( 1, 2 ) * vec.z() + mat( 1, 3 ) * vec.a
 940:/home/tienluong/workspace/atlantis_fw/AsicFwS2/include/matrix.h ****         mat( 2, 0 ) * vec.x() + mat( 2, 1 ) * vec.y() + mat( 2, 2 ) * vec.z() + mat( 2, 3 ) * vec.a
 941:/home/tienluong/workspace/atlantis_fw/AsicFwS2/include/matrix.h ****         mat( 3, 0 ) * vec.x() + mat( 3, 1 ) * vec.y() + mat( 3, 2 ) * vec.z() + mat( 3, 3 ) * vec.a
 942:/home/tienluong/workspace/atlantis_fw/AsicFwS2/include/matrix.h ****     };
 943:/home/tienluong/workspace/atlantis_fw/AsicFwS2/include/matrix.h **** }
 944:/home/tienluong/workspace/atlantis_fw/AsicFwS2/include/matrix.h **** 
 945:/home/tienluong/workspace/atlantis_fw/AsicFwS2/include/matrix.h **** template<bool D>
 946:/home/tienluong/workspace/atlantis_fw/AsicFwS2/include/matrix.h **** Vec4f operator*( const Vec4f & vec, const Matrix<float, 4, 4, D> & mat )
 947:/home/tienluong/workspace/atlantis_fw/AsicFwS2/include/matrix.h **** {
 948:/home/tienluong/workspace/atlantis_fw/AsicFwS2/include/matrix.h ****     return
 949:/home/tienluong/workspace/atlantis_fw/AsicFwS2/include/matrix.h ****     {
 950:/home/tienluong/workspace/atlantis_fw/AsicFwS2/include/matrix.h ****         mat( 0, 0 ) * vec.x() + mat( 1, 0 ) * vec.y() + mat( 2, 0 ) * vec.z() + mat( 3, 0 ) * vec.a
 951:/home/tienluong/workspace/atlantis_fw/AsicFwS2/include/matrix.h ****         mat( 0, 1 ) * vec.x() + mat( 1, 1 ) * vec.y() + mat( 2, 1 ) * vec.z() + mat( 3, 1 ) * vec.a
 952:/home/tienluong/workspace/atlantis_fw/AsicFwS2/include/matrix.h ****         mat( 0, 2 ) * vec.x() + mat( 1, 2 ) * vec.y() + mat( 2, 2 ) * vec.z() + mat( 3, 2 ) * vec.a
 953:/home/tienluong/workspace/atlantis_fw/AsicFwS2/include/matrix.h ****         mat( 0, 3 ) * vec.x() + mat( 1, 3 ) * vec.y() + mat( 2, 3 ) * vec.z() + mat( 3, 3 ) * vec.a
 954:/home/tienluong/workspace/atlantis_fw/AsicFwS2/include/matrix.h ****     };
 955:/home/tienluong/workspace/atlantis_fw/AsicFwS2/include/matrix.h **** }
 956:/home/tienluong/workspace/atlantis_fw/AsicFwS2/include/matrix.h **** 
 957:/home/tienluong/workspace/atlantis_fw/AsicFwS2/include/matrix.h **** // Vec3 left- and right-hand side multiplication operator
 958:/home/tienluong/workspace/atlantis_fw/AsicFwS2/include/matrix.h **** template<typename T, typename U, bool D>
 959:/home/tienluong/workspace/atlantis_fw/AsicFwS2/include/matrix.h **** Vec3<typename std::common_type<T, U>::type> operator*( const Matrix<T, 3, 3, D> & mat, const Vec3<U
 960:/home/tienluong/workspace/atlantis_fw/AsicFwS2/include/matrix.h **** {
 961:/home/tienluong/workspace/atlantis_fw/AsicFwS2/include/matrix.h ****     return
 962:/home/tienluong/workspace/atlantis_fw/AsicFwS2/include/matrix.h ****     {
 963:/home/tienluong/workspace/atlantis_fw/AsicFwS2/include/matrix.h ****         mat( 0, 0 ) * vec.x() + mat( 0, 1 ) * vec.y() + mat( 0, 2 ) * vec.z(),
 964:/home/tienluong/workspace/atlantis_fw/AsicFwS2/include/matrix.h ****         mat( 1, 0 ) * vec.x() + mat( 1, 1 ) * vec.y() + mat( 1, 2 ) * vec.z(),
 965:/home/tienluong/workspace/atlantis_fw/AsicFwS2/include/matrix.h ****         mat( 2, 0 ) * vec.x() + mat( 2, 1 ) * vec.y() + mat( 2, 2 ) * vec.z()
 966:/home/tienluong/workspace/atlantis_fw/AsicFwS2/include/matrix.h ****     };
 967:/home/tienluong/workspace/atlantis_fw/AsicFwS2/include/matrix.h **** }
 968:/home/tienluong/workspace/atlantis_fw/AsicFwS2/include/matrix.h **** 
 969:/home/tienluong/workspace/atlantis_fw/AsicFwS2/include/matrix.h **** template<typename T, typename U, bool D>
 970:/home/tienluong/workspace/atlantis_fw/AsicFwS2/include/matrix.h **** Vec3<typename std::common_type<T, U>::type> operator*( const Vec3<T> & vec, const Matrix<U, 3, 3, D
 971:/home/tienluong/workspace/atlantis_fw/AsicFwS2/include/matrix.h **** {
 972:/home/tienluong/workspace/atlantis_fw/AsicFwS2/include/matrix.h ****     return
 973:/home/tienluong/workspace/atlantis_fw/AsicFwS2/include/matrix.h ****     {
 974:/home/tienluong/workspace/atlantis_fw/AsicFwS2/include/matrix.h ****         mat( 0, 0 ) * vec.x() + mat( 1, 0 ) * vec.y() + mat( 2, 0 ) * vec.z(),
 975:/home/tienluong/workspace/atlantis_fw/AsicFwS2/include/matrix.h ****         mat( 0, 1 ) * vec.x() + mat( 1, 1 ) * vec.y() + mat( 2, 1 ) * vec.z(),
 976:/home/tienluong/workspace/atlantis_fw/AsicFwS2/include/matrix.h ****         mat( 0, 2 ) * vec.x() + mat( 1, 2 ) * vec.y() + mat( 2, 2 ) * vec.z()
 977:/home/tienluong/workspace/atlantis_fw/AsicFwS2/include/matrix.h ****     };
 978:/home/tienluong/workspace/atlantis_fw/AsicFwS2/include/matrix.h **** }
 979:/home/tienluong/workspace/atlantis_fw/AsicFwS2/include/matrix.h **** 
 980:/home/tienluong/workspace/atlantis_fw/AsicFwS2/include/matrix.h **** 
 981:/home/tienluong/workspace/atlantis_fw/AsicFwS2/include/matrix.h **** // mat3x3 and vec2 special multiplication operation used in roitransfer
 982:/home/tienluong/workspace/atlantis_fw/AsicFwS2/include/matrix.h **** /// Return H * p for 2D p, p is made homogeneous, division in the end.
 983:/home/tienluong/workspace/atlantis_fw/AsicFwS2/include/matrix.h **** template<typename T, typename U, bool D>
 984:/home/tienluong/workspace/atlantis_fw/AsicFwS2/include/matrix.h **** Vec2<typename std::common_type<T, U>::type> operator*( const Matrix<T, 3, 3, D> & h, const Vec2<U> 
 985:/home/tienluong/workspace/atlantis_fw/AsicFwS2/include/matrix.h **** {
 986:/home/tienluong/workspace/atlantis_fw/AsicFwS2/include/matrix.h ****     T w_inv = T{1} / ( h(2, 0) * p.x() + h(2, 1) * p.y() + h(2, 2) );
 987:/home/tienluong/workspace/atlantis_fw/AsicFwS2/include/matrix.h ****     return  { 
 988:/home/tienluong/workspace/atlantis_fw/AsicFwS2/include/matrix.h ****                 ( h(0, 0) * p.x() + h(0, 1) * p.y() + h(0, 2) ) * w_inv,
 989:/home/tienluong/workspace/atlantis_fw/AsicFwS2/include/matrix.h ****                 ( h(1, 0) * p.x() + h(1, 1) * p.y() + h(1, 2) ) * w_inv
 990:/home/tienluong/workspace/atlantis_fw/AsicFwS2/include/matrix.h ****             };
 991:/home/tienluong/workspace/atlantis_fw/AsicFwS2/include/matrix.h **** }
 992:/home/tienluong/workspace/atlantis_fw/AsicFwS2/include/matrix.h **** 
 993:/home/tienluong/workspace/atlantis_fw/AsicFwS2/include/matrix.h **** 
 994:/home/tienluong/workspace/atlantis_fw/AsicFwS2/include/matrix.h **** 
 995:/home/tienluong/workspace/atlantis_fw/AsicFwS2/include/matrix.h **** // Vec2 multiplication operator
 996:/home/tienluong/workspace/atlantis_fw/AsicFwS2/include/matrix.h **** //right hand
 997:/home/tienluong/workspace/atlantis_fw/AsicFwS2/include/matrix.h **** template<typename T, typename U, bool D>
 998:/home/tienluong/workspace/atlantis_fw/AsicFwS2/include/matrix.h **** Vec2<typename std::common_type<T, U>::type> operator*( const Matrix<T, 2, 2, D> & mat, const Vec2<U
 999:/home/tienluong/workspace/atlantis_fw/AsicFwS2/include/matrix.h **** {
1000:/home/tienluong/workspace/atlantis_fw/AsicFwS2/include/matrix.h ****     return
1001:/home/tienluong/workspace/atlantis_fw/AsicFwS2/include/matrix.h ****     {
1002:/home/tienluong/workspace/atlantis_fw/AsicFwS2/include/matrix.h ****         mat( 0, 0 ) * vec.x() + mat( 0, 1 ) * vec.y(),
1003:/home/tienluong/workspace/atlantis_fw/AsicFwS2/include/matrix.h ****         mat( 1, 0 ) * vec.x() + mat( 1, 1 ) * vec.y()
1004:/home/tienluong/workspace/atlantis_fw/AsicFwS2/include/matrix.h ****     };
1005:/home/tienluong/workspace/atlantis_fw/AsicFwS2/include/matrix.h **** }
1006:/home/tienluong/workspace/atlantis_fw/AsicFwS2/include/matrix.h **** //left hand
1007:/home/tienluong/workspace/atlantis_fw/AsicFwS2/include/matrix.h **** template<typename T, typename U, bool D>
1008:/home/tienluong/workspace/atlantis_fw/AsicFwS2/include/matrix.h **** Vec2<typename std::common_type<T, U>::type> operator*( const Vec2<U> & vec, const Matrix<T, 2, 2, D
1009:/home/tienluong/workspace/atlantis_fw/AsicFwS2/include/matrix.h **** {
1010:/home/tienluong/workspace/atlantis_fw/AsicFwS2/include/matrix.h ****     return
1011:/home/tienluong/workspace/atlantis_fw/AsicFwS2/include/matrix.h ****     {
1012:/home/tienluong/workspace/atlantis_fw/AsicFwS2/include/matrix.h ****         mat( 0, 0 ) * vec.x() + mat( 1, 0 ) * vec.y(),
1013:/home/tienluong/workspace/atlantis_fw/AsicFwS2/include/matrix.h ****         mat( 0, 1 ) * vec.x() + mat( 1, 1 ) * vec.y()
1014:/home/tienluong/workspace/atlantis_fw/AsicFwS2/include/matrix.h ****     };
1015:/home/tienluong/workspace/atlantis_fw/AsicFwS2/include/matrix.h **** }
1016:/home/tienluong/workspace/atlantis_fw/AsicFwS2/include/matrix.h **** 
1017:/home/tienluong/workspace/atlantis_fw/AsicFwS2/include/matrix.h **** // Create a diagonal matrix from a vector
1018:/home/tienluong/workspace/atlantis_fw/AsicFwS2/include/matrix.h **** inline Matrix4x4f diagonal( const Vec4f & vec )
1019:/home/tienluong/workspace/atlantis_fw/AsicFwS2/include/matrix.h **** {
1020:/home/tienluong/workspace/atlantis_fw/AsicFwS2/include/matrix.h ****     return
1021:/home/tienluong/workspace/atlantis_fw/AsicFwS2/include/matrix.h ****     {
1022:/home/tienluong/workspace/atlantis_fw/AsicFwS2/include/matrix.h ****         vec.x(), 0.0f, 0.0f, 0.0f,
1023:/home/tienluong/workspace/atlantis_fw/AsicFwS2/include/matrix.h ****         0.0f, vec.y(), 0.0f, 0.0f,
1024:/home/tienluong/workspace/atlantis_fw/AsicFwS2/include/matrix.h ****         0.0f, 0.0f, vec.z(), 0.0f,
1025:/home/tienluong/workspace/atlantis_fw/AsicFwS2/include/matrix.h ****         0.0f, 0.0f, 0.0f, vec.a()
1026:/home/tienluong/workspace/atlantis_fw/AsicFwS2/include/matrix.h ****     };
1027:/home/tienluong/workspace/atlantis_fw/AsicFwS2/include/matrix.h **** }
1028:/home/tienluong/workspace/atlantis_fw/AsicFwS2/include/matrix.h **** 
1029:/home/tienluong/workspace/atlantis_fw/AsicFwS2/include/matrix.h **** template<typename T>
1030:/home/tienluong/workspace/atlantis_fw/AsicFwS2/include/matrix.h **** Matrix<T, 3, 3> diagonal( const Vec3<T> & vec )
1031:/home/tienluong/workspace/atlantis_fw/AsicFwS2/include/matrix.h **** {
1032:/home/tienluong/workspace/atlantis_fw/AsicFwS2/include/matrix.h ****     return
1033:/home/tienluong/workspace/atlantis_fw/AsicFwS2/include/matrix.h ****     {
1034:/home/tienluong/workspace/atlantis_fw/AsicFwS2/include/matrix.h ****         vec.x(), T{0}, T{0},
1035:/home/tienluong/workspace/atlantis_fw/AsicFwS2/include/matrix.h ****         T{0}, vec.y(), T{0},
1036:/home/tienluong/workspace/atlantis_fw/AsicFwS2/include/matrix.h ****         T{0}, T{0}, vec.z()
1037:/home/tienluong/workspace/atlantis_fw/AsicFwS2/include/matrix.h ****     };
1038:/home/tienluong/workspace/atlantis_fw/AsicFwS2/include/matrix.h **** }
1039:/home/tienluong/workspace/atlantis_fw/AsicFwS2/include/matrix.h **** 
1040:/home/tienluong/workspace/atlantis_fw/AsicFwS2/include/matrix.h **** template<typename T>
1041:/home/tienluong/workspace/atlantis_fw/AsicFwS2/include/matrix.h **** Matrix<T, 2, 2> diagonal( const Vec2<T> & vec )
1042:/home/tienluong/workspace/atlantis_fw/AsicFwS2/include/matrix.h **** {
1043:/home/tienluong/workspace/atlantis_fw/AsicFwS2/include/matrix.h ****     return
1044:/home/tienluong/workspace/atlantis_fw/AsicFwS2/include/matrix.h ****     {
1045:/home/tienluong/workspace/atlantis_fw/AsicFwS2/include/matrix.h ****         vec.x(), T{0},
1046:/home/tienluong/workspace/atlantis_fw/AsicFwS2/include/matrix.h ****         T{0}, vec.y(),
1047:/home/tienluong/workspace/atlantis_fw/AsicFwS2/include/matrix.h ****     };
1048:/home/tienluong/workspace/atlantis_fw/AsicFwS2/include/matrix.h **** }
1049:/home/tienluong/workspace/atlantis_fw/AsicFwS2/include/matrix.h **** 
1050:/home/tienluong/workspace/atlantis_fw/AsicFwS2/include/matrix.h **** // ------------------------------------
1051:/home/tienluong/workspace/atlantis_fw/AsicFwS2/include/matrix.h **** // determinant, inverse, etc
1052:/home/tienluong/workspace/atlantis_fw/AsicFwS2/include/matrix.h **** // ------------------------------------
1053:/home/tienluong/workspace/atlantis_fw/AsicFwS2/include/matrix.h **** 
1054:/home/tienluong/workspace/atlantis_fw/AsicFwS2/include/matrix.h **** template<typename T, int N>
1055:/home/tienluong/workspace/atlantis_fw/AsicFwS2/include/matrix.h **** struct MatrixDeterminant { };
1056:/home/tienluong/workspace/atlantis_fw/AsicFwS2/include/matrix.h **** 
1057:/home/tienluong/workspace/atlantis_fw/AsicFwS2/include/matrix.h **** template<typename T>
1058:/home/tienluong/workspace/atlantis_fw/AsicFwS2/include/matrix.h **** struct MatrixDeterminant<T, 2>
1059:/home/tienluong/workspace/atlantis_fw/AsicFwS2/include/matrix.h **** {
1060:/home/tienluong/workspace/atlantis_fw/AsicFwS2/include/matrix.h ****     T operator()( const T * mat ) const
1061:/home/tienluong/workspace/atlantis_fw/AsicFwS2/include/matrix.h ****     {
1062:/home/tienluong/workspace/atlantis_fw/AsicFwS2/include/matrix.h ****         return mat[0] * mat[3] - mat[1] * mat[2];
1063:/home/tienluong/workspace/atlantis_fw/AsicFwS2/include/matrix.h ****     }
1064:/home/tienluong/workspace/atlantis_fw/AsicFwS2/include/matrix.h **** };
1065:/home/tienluong/workspace/atlantis_fw/AsicFwS2/include/matrix.h **** 
1066:/home/tienluong/workspace/atlantis_fw/AsicFwS2/include/matrix.h **** template<typename T>
1067:/home/tienluong/workspace/atlantis_fw/AsicFwS2/include/matrix.h **** struct MatrixDeterminant<T, 3>
1068:/home/tienluong/workspace/atlantis_fw/AsicFwS2/include/matrix.h **** {
1069:/home/tienluong/workspace/atlantis_fw/AsicFwS2/include/matrix.h ****     T operator()( const T * mat ) const
1070:/home/tienluong/workspace/atlantis_fw/AsicFwS2/include/matrix.h ****     {
1071:/home/tienluong/workspace/atlantis_fw/AsicFwS2/include/matrix.h ****         return + mat[0] * ( mat[4] * mat[8] - mat[7] * mat[5] )
1072:/home/tienluong/workspace/atlantis_fw/AsicFwS2/include/matrix.h ****                - mat[1] * ( mat[3] * mat[8] - mat[5] * mat[6] )
1073:/home/tienluong/workspace/atlantis_fw/AsicFwS2/include/matrix.h ****                + mat[2] * ( mat[3] * mat[7] - mat[4] * mat[6] );
1074:/home/tienluong/workspace/atlantis_fw/AsicFwS2/include/matrix.h ****     }
1075:/home/tienluong/workspace/atlantis_fw/AsicFwS2/include/matrix.h **** };
1076:/home/tienluong/workspace/atlantis_fw/AsicFwS2/include/matrix.h **** 
1077:/home/tienluong/workspace/atlantis_fw/AsicFwS2/include/matrix.h **** template<typename T>
1078:/home/tienluong/workspace/atlantis_fw/AsicFwS2/include/matrix.h **** struct MatrixDeterminant<T, 4>
1079:/home/tienluong/workspace/atlantis_fw/AsicFwS2/include/matrix.h **** {
1080:/home/tienluong/workspace/atlantis_fw/AsicFwS2/include/matrix.h ****     T operator()( const T * mat ) const
1081:/home/tienluong/workspace/atlantis_fw/AsicFwS2/include/matrix.h ****     {
1082:/home/tienluong/workspace/atlantis_fw/AsicFwS2/include/matrix.h ****         T dst[4];
1083:/home/tienluong/workspace/atlantis_fw/AsicFwS2/include/matrix.h ****         T tmp[12];
1084:/home/tienluong/workspace/atlantis_fw/AsicFwS2/include/matrix.h **** 
1085:/home/tienluong/workspace/atlantis_fw/AsicFwS2/include/matrix.h ****         // calculate pairs for first 8 elements (cofactors)
1086:/home/tienluong/workspace/atlantis_fw/AsicFwS2/include/matrix.h ****         tmp[0] = mat[10] * mat[15];
1087:/home/tienluong/workspace/atlantis_fw/AsicFwS2/include/matrix.h ****         tmp[1] = mat[11] * mat[14];
1088:/home/tienluong/workspace/atlantis_fw/AsicFwS2/include/matrix.h ****         tmp[2] = mat[9] * mat[15];
1089:/home/tienluong/workspace/atlantis_fw/AsicFwS2/include/matrix.h ****         tmp[3] = mat[11] * mat[13];
1090:/home/tienluong/workspace/atlantis_fw/AsicFwS2/include/matrix.h ****         tmp[4] = mat[9] * mat[14];
1091:/home/tienluong/workspace/atlantis_fw/AsicFwS2/include/matrix.h ****         tmp[5] = mat[10] * mat[13];
1092:/home/tienluong/workspace/atlantis_fw/AsicFwS2/include/matrix.h ****         tmp[6] = mat[8] * mat[15];
1093:/home/tienluong/workspace/atlantis_fw/AsicFwS2/include/matrix.h ****         tmp[7] = mat[11] * mat[12];
1094:/home/tienluong/workspace/atlantis_fw/AsicFwS2/include/matrix.h ****         tmp[8] = mat[8] * mat[14];
1095:/home/tienluong/workspace/atlantis_fw/AsicFwS2/include/matrix.h ****         tmp[9] = mat[10] * mat[12];
1096:/home/tienluong/workspace/atlantis_fw/AsicFwS2/include/matrix.h ****         tmp[10] = mat[8] * mat[13];
1097:/home/tienluong/workspace/atlantis_fw/AsicFwS2/include/matrix.h ****         tmp[11] = mat[9] * mat[12];
1098:/home/tienluong/workspace/atlantis_fw/AsicFwS2/include/matrix.h **** 
1099:/home/tienluong/workspace/atlantis_fw/AsicFwS2/include/matrix.h ****         // calculate first 8 elements (cofactors)
1100:/home/tienluong/workspace/atlantis_fw/AsicFwS2/include/matrix.h ****         dst[0]  = tmp[0] * mat[5] + tmp[3] * mat[6] + tmp[4]  * mat[7];
1101:/home/tienluong/workspace/atlantis_fw/AsicFwS2/include/matrix.h ****         dst[0] -= tmp[1] * mat[5] + tmp[2] * mat[6] + tmp[5]  * mat[7];
1102:/home/tienluong/workspace/atlantis_fw/AsicFwS2/include/matrix.h ****         dst[1]  = tmp[1] * mat[4] + tmp[6] * mat[6] + tmp[9]  * mat[7];
1103:/home/tienluong/workspace/atlantis_fw/AsicFwS2/include/matrix.h ****         dst[1] -= tmp[0] * mat[4] + tmp[7] * mat[6] + tmp[8]  * mat[7];
1104:/home/tienluong/workspace/atlantis_fw/AsicFwS2/include/matrix.h ****         dst[2]  = tmp[2] * mat[4] + tmp[7] * mat[5] + tmp[10] * mat[7];
1105:/home/tienluong/workspace/atlantis_fw/AsicFwS2/include/matrix.h ****         dst[2] -= tmp[3] * mat[4] + tmp[6] * mat[5] + tmp[11] * mat[7];
1106:/home/tienluong/workspace/atlantis_fw/AsicFwS2/include/matrix.h ****         dst[3]  = tmp[5] * mat[4] + tmp[8] * mat[5] + tmp[11] * mat[6];
1107:/home/tienluong/workspace/atlantis_fw/AsicFwS2/include/matrix.h ****         dst[3] -= tmp[4] * mat[4] + tmp[9] * mat[5] + tmp[10] * mat[6];
1108:/home/tienluong/workspace/atlantis_fw/AsicFwS2/include/matrix.h **** 
1109:/home/tienluong/workspace/atlantis_fw/AsicFwS2/include/matrix.h ****         // calculate determinant
1110:/home/tienluong/workspace/atlantis_fw/AsicFwS2/include/matrix.h ****         return mat[0] * dst[0] + mat[1] * dst[1] + mat[2] * dst[2] + mat[3] * dst[3];
1111:/home/tienluong/workspace/atlantis_fw/AsicFwS2/include/matrix.h ****     }
1112:/home/tienluong/workspace/atlantis_fw/AsicFwS2/include/matrix.h **** };
1113:/home/tienluong/workspace/atlantis_fw/AsicFwS2/include/matrix.h **** 
1114:/home/tienluong/workspace/atlantis_fw/AsicFwS2/include/matrix.h **** 
1115:/home/tienluong/workspace/atlantis_fw/AsicFwS2/include/matrix.h **** template<typename T, int N>
1116:/home/tienluong/workspace/atlantis_fw/AsicFwS2/include/matrix.h **** struct SquareMatrixInverter { };
1117:/home/tienluong/workspace/atlantis_fw/AsicFwS2/include/matrix.h **** 
1118:/home/tienluong/workspace/atlantis_fw/AsicFwS2/include/matrix.h **** template<typename T>
1119:/home/tienluong/workspace/atlantis_fw/AsicFwS2/include/matrix.h **** struct SquareMatrixInverter<T, 2>
1120:/home/tienluong/workspace/atlantis_fw/AsicFwS2/include/matrix.h **** {
1121:/home/tienluong/workspace/atlantis_fw/AsicFwS2/include/matrix.h ****     void run( T * mat ) const
 114              		.loc 2 1121 0
 115              		.cfi_startproc
 116              		@ args = 0, pretend = 0, frame = 16
 117              		@ frame_needed = 0, uses_anonymous_args = 0
 118              	.LVL7:
 119 0000 2DE9FF47 		push	{r0, r1, r2, r3, r4, r5, r6, r7, r8, r9, r10, lr}
 120              	.LCFI2:
 121              		.cfi_def_cfa_offset 48
 122              		.cfi_offset 4, -32
 123              		.cfi_offset 5, -28
 124              		.cfi_offset 6, -24
 125              		.cfi_offset 7, -20
 126              		.cfi_offset 8, -16
 127              		.cfi_offset 9, -12
 128              		.cfi_offset 10, -8
 129              		.cfi_offset 14, -4
 130              	.LBB128:
1122:/home/tienluong/workspace/atlantis_fw/AsicFwS2/include/matrix.h ****     {
1123:/home/tienluong/workspace/atlantis_fw/AsicFwS2/include/matrix.h ****         const T det = mat[0] * mat[3] - mat[1] * mat[2];
 131              		.loc 2 1123 0
 132 0004 D0F80C90 		ldr	r9, [r0, #12]	@ float
 133              	.LBE128:
1121:/home/tienluong/workspace/atlantis_fw/AsicFwS2/include/matrix.h ****     {
 134              		.loc 2 1121 0
 135 0008 0546     		mov	r5, r0
 136              	.LBB131:
 137              		.loc 2 1123 0
 138 000a D0F80080 		ldr	r8, [r0]	@ float
 139 000e 4946     		mov	r1, r9
 140 0010 4768     		ldr	r7, [r0, #4]	@ float
 141 0012 8468     		ldr	r4, [r0, #8]	@ float
 142              	.LVL8:
 143 0014 4046     		mov	r0, r8
 144              	.LVL9:
 145 0016 134E     		ldr	r6, .L15
 146 0018 B047     		blx	r6
 147              	.LVL10:
 148 001a 2146     		mov	r1, r4
1124:/home/tienluong/workspace/atlantis_fw/AsicFwS2/include/matrix.h **** 
1125:/home/tienluong/workspace/atlantis_fw/AsicFwS2/include/matrix.h ****         const T invdet = T{1} / det;
1126:/home/tienluong/workspace/atlantis_fw/AsicFwS2/include/matrix.h **** 
1127:/home/tienluong/workspace/atlantis_fw/AsicFwS2/include/matrix.h ****         T tmp[4];
1128:/home/tienluong/workspace/atlantis_fw/AsicFwS2/include/matrix.h ****         tmp[0] = mat[3];
1129:/home/tienluong/workspace/atlantis_fw/AsicFwS2/include/matrix.h ****         tmp[1] = -mat[1];
1130:/home/tienluong/workspace/atlantis_fw/AsicFwS2/include/matrix.h ****         tmp[2] = -mat[2];
 149              		.loc 2 1130 0
 150 001c 04F10044 		add	r4, r4, #-2147483648
 151              	.LVL11:
1123:/home/tienluong/workspace/atlantis_fw/AsicFwS2/include/matrix.h **** 
 152              		.loc 2 1123 0
 153 0020 8246     		mov	r10, r0
 154 0022 3846     		mov	r0, r7
 155 0024 B047     		blx	r6
 156              	.LVL12:
 157 0026 104B     		ldr	r3, .L15+4
1129:/home/tienluong/workspace/atlantis_fw/AsicFwS2/include/matrix.h ****         tmp[2] = -mat[2];
 158              		.loc 2 1129 0
 159 0028 07F10047 		add	r7, r7, #-2147483648
1123:/home/tienluong/workspace/atlantis_fw/AsicFwS2/include/matrix.h **** 
 160              		.loc 2 1123 0
 161 002c 0146     		mov	r1, r0
 162 002e 5046     		mov	r0, r10
 163 0030 9847     		blx	r3
 164              	.LVL13:
1125:/home/tienluong/workspace/atlantis_fw/AsicFwS2/include/matrix.h **** 
 165              		.loc 2 1125 0
 166 0032 0E4B     		ldr	r3, .L15+8
1123:/home/tienluong/workspace/atlantis_fw/AsicFwS2/include/matrix.h **** 
 167              		.loc 2 1123 0
 168 0034 0146     		mov	r1, r0
1125:/home/tienluong/workspace/atlantis_fw/AsicFwS2/include/matrix.h **** 
 169              		.loc 2 1125 0
 170 0036 4FF07E50 		mov	r0, #1065353216
 171 003a 9847     		blx	r3
 172              	.LVL14:
 173              		.loc 2 1130 0
 174 003c 0294     		str	r4, [sp, #8]	@ float
 175              	.LBB129:
1131:/home/tienluong/workspace/atlantis_fw/AsicFwS2/include/matrix.h ****         tmp[3] = mat[0];
1132:/home/tienluong/workspace/atlantis_fw/AsicFwS2/include/matrix.h **** 
1133:/home/tienluong/workspace/atlantis_fw/AsicFwS2/include/matrix.h ****         for( int i = 0; i < 4; ++i ) { mat[i] = tmp[i] * invdet; }
 176              		.loc 2 1133 0
 177 003e 0024     		movs	r4, #0
 178              	.LBE129:
1128:/home/tienluong/workspace/atlantis_fw/AsicFwS2/include/matrix.h ****         tmp[1] = -mat[1];
 179              		.loc 2 1128 0
 180 0040 CDF80090 		str	r9, [sp]	@ float
1129:/home/tienluong/workspace/atlantis_fw/AsicFwS2/include/matrix.h ****         tmp[2] = -mat[2];
 181              		.loc 2 1129 0
 182 0044 0197     		str	r7, [sp, #4]	@ float
1131:/home/tienluong/workspace/atlantis_fw/AsicFwS2/include/matrix.h ****         tmp[3] = mat[0];
 183              		.loc 2 1131 0
 184 0046 CDF80C80 		str	r8, [sp, #12]	@ float
1125:/home/tienluong/workspace/atlantis_fw/AsicFwS2/include/matrix.h **** 
 185              		.loc 2 1125 0
 186 004a 8246     		mov	r10, r0
 187              	.LVL15:
 188              	.L13:
 189              	.LBB130:
 190              		.loc 2 1133 0
 191 004c 5DF82400 		ldr	r0, [sp, r4, lsl #2]	@ float
 192 0050 5146     		mov	r1, r10
 193 0052 B047     		blx	r6
 194              	.LVL16:
 195 0054 45F82400 		str	r0, [r5, r4, lsl #2]	@ float
 196 0058 0134     		adds	r4, r4, #1
 197              	.LVL17:
 198 005a 042C     		cmp	r4, #4
 199 005c F6D1     		bne	.L13
 200              	.LBE130:
 201              	.LBE131:
1134:/home/tienluong/workspace/atlantis_fw/AsicFwS2/include/matrix.h ****     }
 202              		.loc 2 1134 0
 203 005e 04B0     		add	sp, sp, #16
 204              	.LCFI3:
 205              		.cfi_def_cfa_offset 32
 206              		@ sp needed
 207 0060 BDE8F087 		pop	{r4, r5, r6, r7, r8, r9, r10, pc}
 208              	.LVL18:
 209              	.L16:
 210              		.align	2
 211              	.L15:
 212 0064 00000000 		.word	__aeabi_fmul
 213 0068 00000000 		.word	__aeabi_fsub
 214 006c 00000000 		.word	__aeabi_fdiv
 215              		.cfi_endproc
 216              	.LFE3786:
 218              		.section	.text._ZN4ltaf7inverseIfLi2ELb1EEENS_6MatrixIT_XT0_EXT0_EXT1_EEERKS3_,"axG",%progbits,_ZN
 219              		.align	1
 220              		.weak	_ZN4ltaf7inverseIfLi2ELb1EEENS_6MatrixIT_XT0_EXT0_EXT1_EEERKS3_
 221              		.thumb
 222              		.thumb_func
 224              	_ZN4ltaf7inverseIfLi2ELb1EEENS_6MatrixIT_XT0_EXT0_EXT1_EEERKS3_:
 225              	.LFB3543:
1135:/home/tienluong/workspace/atlantis_fw/AsicFwS2/include/matrix.h **** };
1136:/home/tienluong/workspace/atlantis_fw/AsicFwS2/include/matrix.h **** 
1137:/home/tienluong/workspace/atlantis_fw/AsicFwS2/include/matrix.h **** template<typename T>
1138:/home/tienluong/workspace/atlantis_fw/AsicFwS2/include/matrix.h **** struct SquareMatrixInverter<T, 3>
1139:/home/tienluong/workspace/atlantis_fw/AsicFwS2/include/matrix.h **** {
1140:/home/tienluong/workspace/atlantis_fw/AsicFwS2/include/matrix.h ****     void run( T * mat ) const
1141:/home/tienluong/workspace/atlantis_fw/AsicFwS2/include/matrix.h ****     {
1142:/home/tienluong/workspace/atlantis_fw/AsicFwS2/include/matrix.h ****         const T det = + mat[0] * ( mat[4] * mat[8] - mat[7] * mat[5] )
1143:/home/tienluong/workspace/atlantis_fw/AsicFwS2/include/matrix.h ****                       - mat[1] * ( mat[3] * mat[8] - mat[5] * mat[6] )
1144:/home/tienluong/workspace/atlantis_fw/AsicFwS2/include/matrix.h ****                       + mat[2] * ( mat[3] * mat[7] - mat[4] * mat[6] );
1145:/home/tienluong/workspace/atlantis_fw/AsicFwS2/include/matrix.h **** 
1146:/home/tienluong/workspace/atlantis_fw/AsicFwS2/include/matrix.h ****         const T invdet = T{1} / det;
1147:/home/tienluong/workspace/atlantis_fw/AsicFwS2/include/matrix.h **** 
1148:/home/tienluong/workspace/atlantis_fw/AsicFwS2/include/matrix.h ****         T tmp[9];
1149:/home/tienluong/workspace/atlantis_fw/AsicFwS2/include/matrix.h ****         tmp[0] =  mat[4] * mat[8] - mat[7] * mat[5];
1150:/home/tienluong/workspace/atlantis_fw/AsicFwS2/include/matrix.h ****         tmp[1] = -( mat[1] * mat[8] - mat[2] * mat[7] );
1151:/home/tienluong/workspace/atlantis_fw/AsicFwS2/include/matrix.h ****         tmp[2] =  mat[1] * mat[5] - mat[2] * mat[4];
1152:/home/tienluong/workspace/atlantis_fw/AsicFwS2/include/matrix.h ****         tmp[3] = -( mat[3] * mat[8] - mat[5] * mat[6] );
1153:/home/tienluong/workspace/atlantis_fw/AsicFwS2/include/matrix.h ****         tmp[4] =  mat[0] * mat[8] - mat[2] * mat[6];
1154:/home/tienluong/workspace/atlantis_fw/AsicFwS2/include/matrix.h ****         tmp[5] = -( mat[0] * mat[5] - mat[3] * mat[2] );
1155:/home/tienluong/workspace/atlantis_fw/AsicFwS2/include/matrix.h ****         tmp[6] =  mat[3] * mat[7] - mat[6] * mat[ 4];
1156:/home/tienluong/workspace/atlantis_fw/AsicFwS2/include/matrix.h ****         tmp[7] = -( mat[0] * mat[7] - mat[6] * mat[1] );
1157:/home/tienluong/workspace/atlantis_fw/AsicFwS2/include/matrix.h ****         tmp[8] =  mat[0] * mat[4] - mat[3] * mat[1];
1158:/home/tienluong/workspace/atlantis_fw/AsicFwS2/include/matrix.h **** 
1159:/home/tienluong/workspace/atlantis_fw/AsicFwS2/include/matrix.h ****         for( int i = 0; i < 9; ++i ) { mat[i] = tmp[i] * invdet; }
1160:/home/tienluong/workspace/atlantis_fw/AsicFwS2/include/matrix.h ****     }
1161:/home/tienluong/workspace/atlantis_fw/AsicFwS2/include/matrix.h **** };
1162:/home/tienluong/workspace/atlantis_fw/AsicFwS2/include/matrix.h **** 
1163:/home/tienluong/workspace/atlantis_fw/AsicFwS2/include/matrix.h **** template<typename T>
1164:/home/tienluong/workspace/atlantis_fw/AsicFwS2/include/matrix.h **** struct SquareMatrixInverter<T, 4>
1165:/home/tienluong/workspace/atlantis_fw/AsicFwS2/include/matrix.h **** {
1166:/home/tienluong/workspace/atlantis_fw/AsicFwS2/include/matrix.h ****     void run( T * mat ) const
1167:/home/tienluong/workspace/atlantis_fw/AsicFwS2/include/matrix.h ****     {
1168:/home/tienluong/workspace/atlantis_fw/AsicFwS2/include/matrix.h ****         T dst[16];
1169:/home/tienluong/workspace/atlantis_fw/AsicFwS2/include/matrix.h ****         T tmp[12];
1170:/home/tienluong/workspace/atlantis_fw/AsicFwS2/include/matrix.h **** 
1171:/home/tienluong/workspace/atlantis_fw/AsicFwS2/include/matrix.h ****         // calculate pairs for first 8 elements (cofactors)
1172:/home/tienluong/workspace/atlantis_fw/AsicFwS2/include/matrix.h ****         tmp[0] = mat[10] * mat[15];
1173:/home/tienluong/workspace/atlantis_fw/AsicFwS2/include/matrix.h ****         tmp[1] = mat[11] * mat[14];
1174:/home/tienluong/workspace/atlantis_fw/AsicFwS2/include/matrix.h ****         tmp[2] = mat[9] * mat[15];
1175:/home/tienluong/workspace/atlantis_fw/AsicFwS2/include/matrix.h ****         tmp[3] = mat[11] * mat[13];
1176:/home/tienluong/workspace/atlantis_fw/AsicFwS2/include/matrix.h ****         tmp[4] = mat[9] * mat[14];
1177:/home/tienluong/workspace/atlantis_fw/AsicFwS2/include/matrix.h ****         tmp[5] = mat[10] * mat[13];
1178:/home/tienluong/workspace/atlantis_fw/AsicFwS2/include/matrix.h ****         tmp[6] = mat[8] * mat[15];
1179:/home/tienluong/workspace/atlantis_fw/AsicFwS2/include/matrix.h ****         tmp[7] = mat[11] * mat[12];
1180:/home/tienluong/workspace/atlantis_fw/AsicFwS2/include/matrix.h ****         tmp[8] = mat[8] * mat[14];
1181:/home/tienluong/workspace/atlantis_fw/AsicFwS2/include/matrix.h ****         tmp[9] = mat[10] * mat[12];
1182:/home/tienluong/workspace/atlantis_fw/AsicFwS2/include/matrix.h ****         tmp[10] = mat[8] * mat[13];
1183:/home/tienluong/workspace/atlantis_fw/AsicFwS2/include/matrix.h ****         tmp[11] = mat[9] * mat[12];
1184:/home/tienluong/workspace/atlantis_fw/AsicFwS2/include/matrix.h **** 
1185:/home/tienluong/workspace/atlantis_fw/AsicFwS2/include/matrix.h ****         // calculate first 8 elements (cofactors)
1186:/home/tienluong/workspace/atlantis_fw/AsicFwS2/include/matrix.h ****         dst[0]   = tmp[0] * mat[5] + tmp[3] * mat[6] + tmp[4]  * mat[7];
1187:/home/tienluong/workspace/atlantis_fw/AsicFwS2/include/matrix.h ****         dst[0]  -= tmp[1] * mat[5] + tmp[2] * mat[6] + tmp[5]  * mat[7];
1188:/home/tienluong/workspace/atlantis_fw/AsicFwS2/include/matrix.h ****         dst[4]   = tmp[1] * mat[4] + tmp[6] * mat[6] + tmp[9]  * mat[7];
1189:/home/tienluong/workspace/atlantis_fw/AsicFwS2/include/matrix.h ****         dst[4]  -= tmp[0] * mat[4] + tmp[7] * mat[6] + tmp[8]  * mat[7];
1190:/home/tienluong/workspace/atlantis_fw/AsicFwS2/include/matrix.h ****         dst[8]   = tmp[2] * mat[4] + tmp[7] * mat[5] + tmp[10] * mat[7];
1191:/home/tienluong/workspace/atlantis_fw/AsicFwS2/include/matrix.h ****         dst[8]  -= tmp[3] * mat[4] + tmp[6] * mat[5] + tmp[11] * mat[7];
1192:/home/tienluong/workspace/atlantis_fw/AsicFwS2/include/matrix.h ****         dst[12]  = tmp[5] * mat[4] + tmp[8] * mat[5] + tmp[11] * mat[6];
1193:/home/tienluong/workspace/atlantis_fw/AsicFwS2/include/matrix.h ****         dst[12] -= tmp[4] * mat[4] + tmp[9] * mat[5] + tmp[10] * mat[6];
1194:/home/tienluong/workspace/atlantis_fw/AsicFwS2/include/matrix.h **** 
1195:/home/tienluong/workspace/atlantis_fw/AsicFwS2/include/matrix.h ****         // calculate determinant
1196:/home/tienluong/workspace/atlantis_fw/AsicFwS2/include/matrix.h ****         const T det = mat[0] * dst[0] + mat[1] * dst[4] + mat[2] * dst[8] + mat[3] * dst[12];
1197:/home/tienluong/workspace/atlantis_fw/AsicFwS2/include/matrix.h **** 
1198:/home/tienluong/workspace/atlantis_fw/AsicFwS2/include/matrix.h ****         const T inv_det = T{1} / det;
1199:/home/tienluong/workspace/atlantis_fw/AsicFwS2/include/matrix.h **** 
1200:/home/tienluong/workspace/atlantis_fw/AsicFwS2/include/matrix.h ****         dst[1]   = tmp[1] * mat[1] + tmp[2] * mat[2] + tmp[5]  * mat[3];
1201:/home/tienluong/workspace/atlantis_fw/AsicFwS2/include/matrix.h ****         dst[1]  -= tmp[0] * mat[1] + tmp[3] * mat[2] + tmp[4]  * mat[3];
1202:/home/tienluong/workspace/atlantis_fw/AsicFwS2/include/matrix.h ****         dst[5]   = tmp[0] * mat[0] + tmp[7] * mat[2] + tmp[8]  * mat[3];
1203:/home/tienluong/workspace/atlantis_fw/AsicFwS2/include/matrix.h ****         dst[5]  -= tmp[1] * mat[0] + tmp[6] * mat[2] + tmp[9]  * mat[3];
1204:/home/tienluong/workspace/atlantis_fw/AsicFwS2/include/matrix.h ****         dst[9]   = tmp[3] * mat[0] + tmp[6] * mat[1] + tmp[11] * mat[3];
1205:/home/tienluong/workspace/atlantis_fw/AsicFwS2/include/matrix.h ****         dst[9]  -= tmp[2] * mat[0] + tmp[7] * mat[1] + tmp[10] * mat[3];
1206:/home/tienluong/workspace/atlantis_fw/AsicFwS2/include/matrix.h ****         dst[13]  = tmp[4] * mat[0] + tmp[9] * mat[1] + tmp[10] * mat[2];
1207:/home/tienluong/workspace/atlantis_fw/AsicFwS2/include/matrix.h ****         dst[13] -= tmp[5] * mat[0] + tmp[8] * mat[1] + tmp[11] * mat[2];
1208:/home/tienluong/workspace/atlantis_fw/AsicFwS2/include/matrix.h **** 
1209:/home/tienluong/workspace/atlantis_fw/AsicFwS2/include/matrix.h ****         // calculate pairs for second 8 elements (cofactors)
1210:/home/tienluong/workspace/atlantis_fw/AsicFwS2/include/matrix.h ****         tmp[0] = mat[2] * mat[7];
1211:/home/tienluong/workspace/atlantis_fw/AsicFwS2/include/matrix.h ****         tmp[1] = mat[3] * mat[6];
1212:/home/tienluong/workspace/atlantis_fw/AsicFwS2/include/matrix.h ****         tmp[2] = mat[1] * mat[7];
1213:/home/tienluong/workspace/atlantis_fw/AsicFwS2/include/matrix.h ****         tmp[3] = mat[3] * mat[5];
1214:/home/tienluong/workspace/atlantis_fw/AsicFwS2/include/matrix.h ****         tmp[4] = mat[1] * mat[6];
1215:/home/tienluong/workspace/atlantis_fw/AsicFwS2/include/matrix.h ****         tmp[5] = mat[2] * mat[5];
1216:/home/tienluong/workspace/atlantis_fw/AsicFwS2/include/matrix.h ****         tmp[6] = mat[0] * mat[7];
1217:/home/tienluong/workspace/atlantis_fw/AsicFwS2/include/matrix.h ****         tmp[7] = mat[3] * mat[4];
1218:/home/tienluong/workspace/atlantis_fw/AsicFwS2/include/matrix.h ****         tmp[8] = mat[0] * mat[6];
1219:/home/tienluong/workspace/atlantis_fw/AsicFwS2/include/matrix.h ****         tmp[9] = mat[2] * mat[4];
1220:/home/tienluong/workspace/atlantis_fw/AsicFwS2/include/matrix.h ****         tmp[10] = mat[0] * mat[5];
1221:/home/tienluong/workspace/atlantis_fw/AsicFwS2/include/matrix.h ****         tmp[11] = mat[1] * mat[4];
1222:/home/tienluong/workspace/atlantis_fw/AsicFwS2/include/matrix.h **** 
1223:/home/tienluong/workspace/atlantis_fw/AsicFwS2/include/matrix.h ****         // calculate second 8 elements (cofactors)
1224:/home/tienluong/workspace/atlantis_fw/AsicFwS2/include/matrix.h ****         dst[2]   = tmp[0]  * mat[13] + tmp[3]  * mat[14] + tmp[4]  * mat[15];
1225:/home/tienluong/workspace/atlantis_fw/AsicFwS2/include/matrix.h ****         dst[2]  -= tmp[1]  * mat[13] + tmp[2]  * mat[14] + tmp[5]  * mat[15];
1226:/home/tienluong/workspace/atlantis_fw/AsicFwS2/include/matrix.h ****         dst[3]   = tmp[2]  * mat[10] + tmp[5]  * mat[11] + tmp[1]  * mat[9];
1227:/home/tienluong/workspace/atlantis_fw/AsicFwS2/include/matrix.h ****         dst[3]  -= tmp[4]  * mat[11] + tmp[0]  * mat[9]  + tmp[3]  * mat[10];
1228:/home/tienluong/workspace/atlantis_fw/AsicFwS2/include/matrix.h ****         dst[6]   = tmp[1]  * mat[12] + tmp[6]  * mat[14] + tmp[9]  * mat[15];
1229:/home/tienluong/workspace/atlantis_fw/AsicFwS2/include/matrix.h ****         dst[6]  -= tmp[0]  * mat[12] + tmp[7]  * mat[14] + tmp[8]  * mat[15];
1230:/home/tienluong/workspace/atlantis_fw/AsicFwS2/include/matrix.h ****         dst[7]   = tmp[8]  * mat[11] + tmp[0]  * mat[8]  + tmp[7]  * mat[10];
1231:/home/tienluong/workspace/atlantis_fw/AsicFwS2/include/matrix.h ****         dst[7]  -= tmp[6]  * mat[10] + tmp[9]  * mat[11] + tmp[1]  * mat[8];
1232:/home/tienluong/workspace/atlantis_fw/AsicFwS2/include/matrix.h ****         dst[10]  = tmp[2]  * mat[12] + tmp[7]  * mat[13] + tmp[10] * mat[15];
1233:/home/tienluong/workspace/atlantis_fw/AsicFwS2/include/matrix.h ****         dst[10] -= tmp[3]  * mat[12] + tmp[6]  * mat[13] + tmp[11] * mat[15];
1234:/home/tienluong/workspace/atlantis_fw/AsicFwS2/include/matrix.h ****         dst[11]  = tmp[6]  * mat[9]  + tmp[11] * mat[11] + tmp[3]  * mat[8];
1235:/home/tienluong/workspace/atlantis_fw/AsicFwS2/include/matrix.h ****         dst[11] -= tmp[10] * mat[11] + tmp[2]  * mat[8]  + tmp[7]  * mat[9];
1236:/home/tienluong/workspace/atlantis_fw/AsicFwS2/include/matrix.h ****         dst[14]  = tmp[5]  * mat[12] + tmp[8]  * mat[13] + tmp[11] * mat[14];
1237:/home/tienluong/workspace/atlantis_fw/AsicFwS2/include/matrix.h ****         dst[14] -= tmp[4]  * mat[12] + tmp[9]  * mat[13] + tmp[10] * mat[14];
1238:/home/tienluong/workspace/atlantis_fw/AsicFwS2/include/matrix.h ****         dst[15]  = tmp[10] * mat[10] + tmp[4]  * mat[8]  + tmp[9]  * mat[9];
1239:/home/tienluong/workspace/atlantis_fw/AsicFwS2/include/matrix.h ****         dst[15] -= tmp[8]  * mat[9]  + tmp[11] * mat[10] + tmp[5]  * mat[8];
1240:/home/tienluong/workspace/atlantis_fw/AsicFwS2/include/matrix.h **** 
1241:/home/tienluong/workspace/atlantis_fw/AsicFwS2/include/matrix.h ****         // calculate matrix inverse
1242:/home/tienluong/workspace/atlantis_fw/AsicFwS2/include/matrix.h ****         for( int i = 0; i < 16; i++ ) { mat[i] = dst[i] * inv_det; }
1243:/home/tienluong/workspace/atlantis_fw/AsicFwS2/include/matrix.h ****     }
1244:/home/tienluong/workspace/atlantis_fw/AsicFwS2/include/matrix.h **** };
1245:/home/tienluong/workspace/atlantis_fw/AsicFwS2/include/matrix.h **** 
1246:/home/tienluong/workspace/atlantis_fw/AsicFwS2/include/matrix.h **** template<typename T, int N, bool D>
1247:/home/tienluong/workspace/atlantis_fw/AsicFwS2/include/matrix.h **** Matrix<T, N, N, D> inverse( const Matrix<T, N, N, D> & mat )
 226              		.loc 2 1247 0
 227              		.cfi_startproc
 228              		@ args = 0, pretend = 0, frame = 0
 229              		@ frame_needed = 0, uses_anonymous_args = 0
 230              	.LVL19:
 231 0000 10B5     		push	{r4, lr}
 232              	.LCFI4:
 233              		.cfi_def_cfa_offset 8
 234              		.cfi_offset 4, -8
 235              		.cfi_offset 14, -4
 236              		.loc 2 1247 0
 237 0002 0446     		mov	r4, r0
 238              	.LVL20:
 239              	.LBB138:
 240              	.LBB139:
 241              	.LBB140:
 591:/home/tienluong/workspace/atlantis_fw/AsicFwS2/include/matrix.h **** 
 242              		.loc 2 591 0
 243 0004 0FC9     		ldmia	r1, {r0, r1, r2, r3}
 244              	.LVL21:
 245 0006 84E80F00 		stmia	r4, {r0, r1, r2, r3}
 246              	.LVL22:
 247              	.LBE140:
 248              	.LBE139:
1248:/home/tienluong/workspace/atlantis_fw/AsicFwS2/include/matrix.h **** {
1249:/home/tienluong/workspace/atlantis_fw/AsicFwS2/include/matrix.h ****     Matrix<T, N, N, D> rval( mat );
1250:/home/tienluong/workspace/atlantis_fw/AsicFwS2/include/matrix.h ****     SquareMatrixInverter<T, N> inverter;
1251:/home/tienluong/workspace/atlantis_fw/AsicFwS2/include/matrix.h ****     inverter.run( rval.data() );
 249              		.loc 2 1251 0
 250 000a 2046     		mov	r0, r4
 251 000c 014B     		ldr	r3, .L18
 252 000e 9847     		blx	r3
 253              	.LVL23:
 254              	.LBE138:
1252:/home/tienluong/workspace/atlantis_fw/AsicFwS2/include/matrix.h ****     return rval;
1253:/home/tienluong/workspace/atlantis_fw/AsicFwS2/include/matrix.h **** }
 255              		.loc 2 1253 0
 256 0010 2046     		mov	r0, r4
 257 0012 10BD     		pop	{r4, pc}
 258              	.LVL24:
 259              	.L19:
 260              		.align	2
 261              	.L18:
 262 0014 00000000 		.word	_ZNK4ltaf20SquareMatrixInverterIfLi2EE3runEPf.isra.1
 263              		.cfi_endproc
 264              	.LFE3543:
 266              		.section	.text._ZN4ltaf7inverseIfLi2ELb0EEENS_6MatrixIT_XT0_EXT0_EXT1_EEERKS3_,"axG",%progbits,_ZN
 267              		.align	1
 268              		.weak	_ZN4ltaf7inverseIfLi2ELb0EEENS_6MatrixIT_XT0_EXT0_EXT1_EEERKS3_
 269              		.thumb
 270              		.thumb_func
 272              	_ZN4ltaf7inverseIfLi2ELb0EEENS_6MatrixIT_XT0_EXT0_EXT1_EEERKS3_:
 273              	.LFB3546:
1247:/home/tienluong/workspace/atlantis_fw/AsicFwS2/include/matrix.h **** {
 274              		.loc 2 1247 0
 275              		.cfi_startproc
 276              		@ args = 0, pretend = 0, frame = 0
 277              		@ frame_needed = 0, uses_anonymous_args = 0
 278              	.LVL25:
 279 0000 10B5     		push	{r4, lr}
 280              	.LCFI5:
 281              		.cfi_def_cfa_offset 8
 282              		.cfi_offset 4, -8
 283              		.cfi_offset 14, -4
1247:/home/tienluong/workspace/atlantis_fw/AsicFwS2/include/matrix.h **** {
 284              		.loc 2 1247 0
 285 0002 0446     		mov	r4, r0
 286              	.LVL26:
 287              	.LBB147:
 288              	.LBB148:
 289              	.LBB149:
 593:/home/tienluong/workspace/atlantis_fw/AsicFwS2/include/matrix.h **** 
 290              		.loc 2 593 0
 291 0004 0FC9     		ldmia	r1, {r0, r1, r2, r3}
 292              	.LVL27:
 293 0006 84E80F00 		stmia	r4, {r0, r1, r2, r3}
 294              	.LVL28:
 295              	.LBE149:
 296              	.LBE148:
1251:/home/tienluong/workspace/atlantis_fw/AsicFwS2/include/matrix.h ****     return rval;
 297              		.loc 2 1251 0
 298 000a 2046     		mov	r0, r4
 299 000c 014B     		ldr	r3, .L21
 300 000e 9847     		blx	r3
 301              	.LVL29:
 302              	.LBE147:
 303              		.loc 2 1253 0
 304 0010 2046     		mov	r0, r4
 305 0012 10BD     		pop	{r4, pc}
 306              	.LVL30:
 307              	.L22:
 308              		.align	2
 309              	.L21:
 310 0014 00000000 		.word	_ZNK4ltaf20SquareMatrixInverterIfLi2EE3runEPf.isra.1
 311              		.cfi_endproc
 312              	.LFE3546:
 314              		.section	.text._ZN4ltaf11determinantIfLi2ELb1EEET_RKNS_6MatrixIS1_XT0_EXT0_EXT1_EEE,"axG",%progbit
 315              		.align	1
 316              		.weak	_ZN4ltaf11determinantIfLi2ELb1EEET_RKNS_6MatrixIS1_XT0_EXT0_EXT1_EEE
 317              		.thumb
 318              		.thumb_func
 320              	_ZN4ltaf11determinantIfLi2ELb1EEET_RKNS_6MatrixIS1_XT0_EXT0_EXT1_EEE:
 321              	.LFB3555:
1254:/home/tienluong/workspace/atlantis_fw/AsicFwS2/include/matrix.h **** 
1255:/home/tienluong/workspace/atlantis_fw/AsicFwS2/include/matrix.h **** template<typename T, int N, bool D>
1256:/home/tienluong/workspace/atlantis_fw/AsicFwS2/include/matrix.h **** T determinant( const Matrix<T, N, N, D> & mat )
 322              		.loc 2 1256 0
 323              		.cfi_startproc
 324              		@ args = 0, pretend = 0, frame = 0
 325              		@ frame_needed = 0, uses_anonymous_args = 0
 326              	.LVL31:
 327 0000 70B5     		push	{r4, r5, r6, lr}
 328              	.LCFI6:
 329              		.cfi_def_cfa_offset 16
 330              		.cfi_offset 4, -16
 331              		.cfi_offset 5, -12
 332              		.cfi_offset 6, -8
 333              		.cfi_offset 14, -4
 334              		.loc 2 1256 0
 335 0002 0446     		mov	r4, r0
 336              	.LBB155:
 337              	.LBB156:
 338              	.LBB157:
1062:/home/tienluong/workspace/atlantis_fw/AsicFwS2/include/matrix.h ****     }
 339              		.loc 2 1062 0
 340 0004 064D     		ldr	r5, .L24
 341 0006 0068     		ldr	r0, [r0]	@ float
 342              	.LVL32:
 343 0008 E168     		ldr	r1, [r4, #12]	@ float
 344 000a A847     		blx	r5
 345              	.LVL33:
 346 000c A168     		ldr	r1, [r4, #8]	@ float
 347 000e 0646     		mov	r6, r0
 348 0010 6068     		ldr	r0, [r4, #4]	@ float
 349 0012 A847     		blx	r5
 350              	.LVL34:
 351 0014 034B     		ldr	r3, .L24+4
 352 0016 0146     		mov	r1, r0
 353 0018 3046     		mov	r0, r6
 354 001a 9847     		blx	r3
 355              	.LVL35:
 356              	.LBE157:
 357              	.LBE156:
 358              	.LBE155:
1257:/home/tienluong/workspace/atlantis_fw/AsicFwS2/include/matrix.h **** {
1258:/home/tienluong/workspace/atlantis_fw/AsicFwS2/include/matrix.h ****     MatrixDeterminant<T, N> det;
1259:/home/tienluong/workspace/atlantis_fw/AsicFwS2/include/matrix.h ****     return det( mat.data() );
1260:/home/tienluong/workspace/atlantis_fw/AsicFwS2/include/matrix.h **** }
 359              		.loc 2 1260 0
 360 001c 70BD     		pop	{r4, r5, r6, pc}
 361              	.LVL36:
 362              	.L25:
 363 001e 00BF     		.align	2
 364              	.L24:
 365 0020 00000000 		.word	__aeabi_fmul
 366 0024 00000000 		.word	__aeabi_fsub
 367              		.cfi_endproc
 368              	.LFE3555:
 370              		.section	.text._ZN4ltaf11determinantIfLi2ELb0EEET_RKNS_6MatrixIS1_XT0_EXT0_EXT1_EEE,"axG",%progbit
 371              		.align	1
 372              		.weak	_ZN4ltaf11determinantIfLi2ELb0EEET_RKNS_6MatrixIS1_XT0_EXT0_EXT1_EEE
 373              		.thumb
 374              		.thumb_func
 376              	_ZN4ltaf11determinantIfLi2ELb0EEET_RKNS_6MatrixIS1_XT0_EXT0_EXT1_EEE:
 377              	.LFB3558:
1256:/home/tienluong/workspace/atlantis_fw/AsicFwS2/include/matrix.h **** {
 378              		.loc 2 1256 0
 379              		.cfi_startproc
 380              		@ args = 0, pretend = 0, frame = 0
 381              		@ frame_needed = 0, uses_anonymous_args = 0
 382              	.LVL37:
 383 0000 70B5     		push	{r4, r5, r6, lr}
 384              	.LCFI7:
 385              		.cfi_def_cfa_offset 16
 386              		.cfi_offset 4, -16
 387              		.cfi_offset 5, -12
 388              		.cfi_offset 6, -8
 389              		.cfi_offset 14, -4
1256:/home/tienluong/workspace/atlantis_fw/AsicFwS2/include/matrix.h **** {
 390              		.loc 2 1256 0
 391 0002 0446     		mov	r4, r0
 392              	.LBB163:
 393              	.LBB164:
 394              	.LBB165:
1062:/home/tienluong/workspace/atlantis_fw/AsicFwS2/include/matrix.h ****     }
 395              		.loc 2 1062 0
 396 0004 064D     		ldr	r5, .L27
 397 0006 0068     		ldr	r0, [r0]	@ float
 398              	.LVL38:
 399 0008 E168     		ldr	r1, [r4, #12]	@ float
 400 000a A847     		blx	r5
 401              	.LVL39:
 402 000c A168     		ldr	r1, [r4, #8]	@ float
 403 000e 0646     		mov	r6, r0
 404 0010 6068     		ldr	r0, [r4, #4]	@ float
 405 0012 A847     		blx	r5
 406              	.LVL40:
 407 0014 034B     		ldr	r3, .L27+4
 408 0016 0146     		mov	r1, r0
 409 0018 3046     		mov	r0, r6
 410 001a 9847     		blx	r3
 411              	.LVL41:
 412              	.LBE165:
 413              	.LBE164:
 414              	.LBE163:
 415              		.loc 2 1260 0
 416 001c 70BD     		pop	{r4, r5, r6, pc}
 417              	.LVL42:
 418              	.L28:
 419 001e 00BF     		.align	2
 420              	.L27:
 421 0020 00000000 		.word	__aeabi_fmul
 422 0024 00000000 		.word	__aeabi_fsub
 423              		.cfi_endproc
 424              	.LFE3558:
 426              		.global	__aeabi_dmul
 427              		.global	__aeabi_dsub
 428              		.section	.text._ZN4ltaf11determinantIdLi2ELb1EEET_RKNS_6MatrixIS1_XT0_EXT0_EXT1_EEE,"axG",%progbit
 429              		.align	1
 430              		.weak	_ZN4ltaf11determinantIdLi2ELb1EEET_RKNS_6MatrixIS1_XT0_EXT0_EXT1_EEE
 431              		.thumb
 432              		.thumb_func
 434              	_ZN4ltaf11determinantIdLi2ELb1EEET_RKNS_6MatrixIS1_XT0_EXT0_EXT1_EEE:
 435              	.LFB3561:
1256:/home/tienluong/workspace/atlantis_fw/AsicFwS2/include/matrix.h **** {
 436              		.loc 2 1256 0
 437              		.cfi_startproc
 438              		@ args = 0, pretend = 0, frame = 0
 439              		@ frame_needed = 0, uses_anonymous_args = 0
 440              	.LVL43:
 441 0000 F8B5     		push	{r3, r4, r5, r6, r7, lr}
 442              	.LCFI8:
 443              		.cfi_def_cfa_offset 24
 444              		.cfi_offset 3, -24
 445              		.cfi_offset 4, -20
 446              		.cfi_offset 5, -16
 447              		.cfi_offset 6, -12
 448              		.cfi_offset 7, -8
 449              		.cfi_offset 14, -4
1256:/home/tienluong/workspace/atlantis_fw/AsicFwS2/include/matrix.h **** {
 450              		.loc 2 1256 0
 451 0002 0446     		mov	r4, r0
 452              	.LBB171:
 453              	.LBB172:
 454              	.LBB173:
1062:/home/tienluong/workspace/atlantis_fw/AsicFwS2/include/matrix.h ****     }
 455              		.loc 2 1062 0
 456 0004 094D     		ldr	r5, .L30
 457 0006 D0E90001 		ldrd	r0, [r0]
 458              	.LVL44:
 459 000a D4E90623 		ldrd	r2, [r4, #24]
 460 000e A847     		blx	r5
 461              	.LVL45:
 462 0010 D4E90423 		ldrd	r2, [r4, #16]
 463 0014 0646     		mov	r6, r0
 464 0016 0F46     		mov	r7, r1
 465 0018 D4E90201 		ldrd	r0, [r4, #8]
 466 001c A847     		blx	r5
 467              	.LVL46:
 468 001e 044C     		ldr	r4, .L30+4
 469              	.LVL47:
 470 0020 0246     		mov	r2, r0
 471 0022 0B46     		mov	r3, r1
 472 0024 3046     		mov	r0, r6
 473 0026 3946     		mov	r1, r7
 474 0028 A047     		blx	r4
 475              	.LVL48:
 476              	.LBE173:
 477              	.LBE172:
 478              	.LBE171:
 479              		.loc 2 1260 0
 480 002a F8BD     		pop	{r3, r4, r5, r6, r7, pc}
 481              	.L31:
 482              		.align	2
 483              	.L30:
 484 002c 00000000 		.word	__aeabi_dmul
 485 0030 00000000 		.word	__aeabi_dsub
 486              		.cfi_endproc
 487              	.LFE3561:
 489              		.section	.text._ZN4ltaf11determinantIdLi2ELb0EEET_RKNS_6MatrixIS1_XT0_EXT0_EXT1_EEE,"axG",%progbit
 490              		.align	1
 491              		.weak	_ZN4ltaf11determinantIdLi2ELb0EEET_RKNS_6MatrixIS1_XT0_EXT0_EXT1_EEE
 492              		.thumb
 493              		.thumb_func
 495              	_ZN4ltaf11determinantIdLi2ELb0EEET_RKNS_6MatrixIS1_XT0_EXT0_EXT1_EEE:
 496              	.LFB3564:
1256:/home/tienluong/workspace/atlantis_fw/AsicFwS2/include/matrix.h **** {
 497              		.loc 2 1256 0
 498              		.cfi_startproc
 499              		@ args = 0, pretend = 0, frame = 0
 500              		@ frame_needed = 0, uses_anonymous_args = 0
 501              	.LVL49:
 502 0000 F8B5     		push	{r3, r4, r5, r6, r7, lr}
 503              	.LCFI9:
 504              		.cfi_def_cfa_offset 24
 505              		.cfi_offset 3, -24
 506              		.cfi_offset 4, -20
 507              		.cfi_offset 5, -16
 508              		.cfi_offset 6, -12
 509              		.cfi_offset 7, -8
 510              		.cfi_offset 14, -4
1256:/home/tienluong/workspace/atlantis_fw/AsicFwS2/include/matrix.h **** {
 511              		.loc 2 1256 0
 512 0002 0446     		mov	r4, r0
 513              	.LBB179:
 514              	.LBB180:
 515              	.LBB181:
1062:/home/tienluong/workspace/atlantis_fw/AsicFwS2/include/matrix.h ****     }
 516              		.loc 2 1062 0
 517 0004 094D     		ldr	r5, .L33
 518 0006 D0E90001 		ldrd	r0, [r0]
 519              	.LVL50:
 520 000a D4E90623 		ldrd	r2, [r4, #24]
 521 000e A847     		blx	r5
 522              	.LVL51:
 523 0010 D4E90423 		ldrd	r2, [r4, #16]
 524 0014 0646     		mov	r6, r0
 525 0016 0F46     		mov	r7, r1
 526 0018 D4E90201 		ldrd	r0, [r4, #8]
 527 001c A847     		blx	r5
 528              	.LVL52:
 529 001e 044C     		ldr	r4, .L33+4
 530              	.LVL53:
 531 0020 0246     		mov	r2, r0
 532 0022 0B46     		mov	r3, r1
 533 0024 3046     		mov	r0, r6
 534 0026 3946     		mov	r1, r7
 535 0028 A047     		blx	r4
 536              	.LVL54:
 537              	.LBE181:
 538              	.LBE180:
 539              	.LBE179:
 540              		.loc 2 1260 0
 541 002a F8BD     		pop	{r3, r4, r5, r6, r7, pc}
 542              	.L34:
 543              		.align	2
 544              	.L33:
 545 002c 00000000 		.word	__aeabi_dmul
 546 0030 00000000 		.word	__aeabi_dsub
 547              		.cfi_endproc
 548              	.LFE3564:
 550              		.section	.text._ZN20optical_zoom_managerC2Ev,"ax",%progbits
 551              		.align	1
 552              		.global	_ZN20optical_zoom_managerC2Ev
 553              		.thumb
 554              		.thumb_func
 556              	_ZN20optical_zoom_managerC2Ev:
 557              	.LFB3506:
  30:/home/tienluong/workspace/atlantis_fw/AsicFwS2/src/optical_zoom_manager.cpp ****         mirror_move_done_sem_{nullptr} {
 558              		.loc 1 30 0
 559              		.cfi_startproc
 560              		@ args = 0, pretend = 0, frame = 0
 561              		@ frame_needed = 0, uses_anonymous_args = 0
 562              		@ link register save eliminated.
 563              	.LVL55:
 564              	.LBB182:
  31:/home/tienluong/workspace/atlantis_fw/AsicFwS2/src/optical_zoom_manager.cpp **** }
 565              		.loc 1 31 0
 566 0000 0022     		movs	r2, #0
 567 0002 0260     		str	r2, [r0]
 568 0004 0271     		strb	r2, [r0, #4]
 569              	.LBE182:
  32:/home/tienluong/workspace/atlantis_fw/AsicFwS2/src/optical_zoom_manager.cpp **** 
 570              		.loc 1 32 0
 571 0006 7047     		bx	lr
 572              		.cfi_endproc
 573              	.LFE3506:
 575              		.global	_ZN20optical_zoom_managerC1Ev
 576              		.thumb_set _ZN20optical_zoom_managerC1Ev,_ZN20optical_zoom_managerC2Ev
 577              		.section	.text._ZN20optical_zoom_manager10initializeEv,"ax",%progbits
 578              		.align	1
 579              		.global	_ZN20optical_zoom_manager10initializeEv
 580              		.thumb
 581              		.thumb_func
 583              	_ZN20optical_zoom_manager10initializeEv:
 584              	.LFB3511:
  39:/home/tienluong/workspace/atlantis_fw/AsicFwS2/src/optical_zoom_manager.cpp ****     mirror_move_done_sem_ = xSemaphoreCreateCounting(MAX_NUM_MIRROR , 0);
 585              		.loc 1 39 0
 586              		.cfi_startproc
 587              		@ args = 0, pretend = 0, frame = 0
 588              		@ frame_needed = 0, uses_anonymous_args = 0
 589              	.LVL56:
 590 0000 10B5     		push	{r4, lr}
 591              	.LCFI10:
 592              		.cfi_def_cfa_offset 8
 593              		.cfi_offset 4, -8
 594              		.cfi_offset 14, -4
  40:/home/tienluong/workspace/atlantis_fw/AsicFwS2/src/optical_zoom_manager.cpp **** }
 595              		.loc 1 40 0
 596 0002 0021     		movs	r1, #0
  39:/home/tienluong/workspace/atlantis_fw/AsicFwS2/src/optical_zoom_manager.cpp ****     mirror_move_done_sem_ = xSemaphoreCreateCounting(MAX_NUM_MIRROR , 0);
 597              		.loc 1 39 0
 598 0004 0446     		mov	r4, r0
  40:/home/tienluong/workspace/atlantis_fw/AsicFwS2/src/optical_zoom_manager.cpp **** }
 599              		.loc 1 40 0
 600 0006 0620     		movs	r0, #6
 601              	.LVL57:
 602 0008 014B     		ldr	r3, .L37
 603 000a 9847     		blx	r3
 604              	.LVL58:
 605 000c 2060     		str	r0, [r4]
 606 000e 10BD     		pop	{r4, pc}
 607              	.LVL59:
 608              	.L38:
 609              		.align	2
 610              	.L37:
 611 0010 00000000 		.word	xQueueCreateCountingSemaphore
 612              		.cfi_endproc
 613              	.LFE3511:
 615              		.section	.text.initialize_optical_zoom_manager,"ax",%progbits
 616              		.align	1
 617              		.global	initialize_optical_zoom_manager
 618              		.thumb
 619              		.thumb_func
 621              	initialize_optical_zoom_manager:
 622              	.LFB3504:
  24:/home/tienluong/workspace/atlantis_fw/AsicFwS2/src/optical_zoom_manager.cpp ****     optical_zoom_manager::instance().initialize();
 623              		.loc 1 24 0
 624              		.cfi_startproc
 625              		@ args = 0, pretend = 0, frame = 0
 626              		@ frame_needed = 0, uses_anonymous_args = 0
 627 0000 08B5     		push	{r3, lr}
 628              	.LCFI11:
 629              		.cfi_def_cfa_offset 8
 630              		.cfi_offset 3, -8
 631              		.cfi_offset 14, -4
  25:/home/tienluong/workspace/atlantis_fw/AsicFwS2/src/optical_zoom_manager.cpp **** }
 632              		.loc 1 25 0
 633 0002 0248     		ldr	r0, .L40
 634 0004 024B     		ldr	r3, .L40+4
 635 0006 9847     		blx	r3
 636              	.LVL60:
 637 0008 08BD     		pop	{r3, pc}
 638              	.L41:
 639 000a 00BF     		.align	2
 640              	.L40:
 641 000c 00000000 		.word	.LANCHOR0
 642 0010 00000000 		.word	_ZN20optical_zoom_manager10initializeEv
 643              		.cfi_endproc
 644              	.LFE3504:
 646              		.section	.text._ZN20optical_zoom_manager23check_start_mirror_moveEhs,"ax",%progbits
 647              		.align	1
 648              		.global	_ZN20optical_zoom_manager23check_start_mirror_moveEhs
 649              		.thumb
 650              		.thumb_func
 652              	_ZN20optical_zoom_manager23check_start_mirror_moveEhs:
 653              	.LFB3513:
  47:/home/tienluong/workspace/atlantis_fw/AsicFwS2/src/optical_zoom_manager.cpp ****     }
  48:/home/tienluong/workspace/atlantis_fw/AsicFwS2/src/optical_zoom_manager.cpp **** }
  49:/home/tienluong/workspace/atlantis_fw/AsicFwS2/src/optical_zoom_manager.cpp **** 
  50:/home/tienluong/workspace/atlantis_fw/AsicFwS2/src/optical_zoom_manager.cpp **** bool optical_zoom_manager::check_start_mirror_move(std::uint8_t module, std::int16_t hc) {
 654              		.loc 1 50 0
 655              		.cfi_startproc
 656              		@ args = 0, pretend = 0, frame = 0
 657              		@ frame_needed = 0, uses_anonymous_args = 0
 658              	.LVL61:
 659 0000 F7B5     		push	{r0, r1, r2, r4, r5, r6, r7, lr}
 660              	.LCFI12:
 661              		.cfi_def_cfa_offset 32
 662              		.cfi_offset 4, -20
 663              		.cfi_offset 5, -16
 664              		.cfi_offset 6, -12
 665              		.cfi_offset 7, -8
 666              		.cfi_offset 14, -4
 667              	.LBB191:
  51:/home/tienluong/workspace/atlantis_fw/AsicFwS2/src/optical_zoom_manager.cpp ****     if (hc < 0) {
 668              		.loc 1 51 0
 669 0002 161E     		subs	r6, r2, #0
 670              	.LBE191:
  50:/home/tienluong/workspace/atlantis_fw/AsicFwS2/src/optical_zoom_manager.cpp ****     if (hc < 0) {
 671              		.loc 1 50 0
 672 0004 0546     		mov	r5, r0
 673 0006 0B46     		mov	r3, r1
 674              	.LBB194:
 675              		.loc 1 51 0
 676 0008 06DA     		bge	.L43
 677              	.LVL62:
 678              	.LBE194:
 679              	.LBB195:
 680              	.LBB196:
  52:/home/tienluong/workspace/atlantis_fw/AsicFwS2/src/optical_zoom_manager.cpp ****         SLOGF(SLOG_ERROR, "Will not move mirror %02X as optical zoom computation failed", module);
 681              		.loc 1 52 0
 682 000a 2B20     		movs	r0, #43
 683              	.LVL63:
 684 000c 0221     		movs	r1, #2
 685              	.LVL64:
 686 000e 154A     		ldr	r2, .L46
 687              	.LVL65:
 688 0010 154C     		ldr	r4, .L46+4
 689 0012 A047     		blx	r4
 690              	.LVL66:
 691 0014 0020     		movs	r0, #0
 692 0016 23E0     		b	.L44
 693              	.LVL67:
 694              	.L43:
 695              	.LBE196:
 696              	.LBE195:
 697              	.LBB197:
  53:/home/tienluong/workspace/atlantis_fw/AsicFwS2/src/optical_zoom_manager.cpp ****         return false;
  54:/home/tienluong/workspace/atlantis_fw/AsicFwS2/src/optical_zoom_manager.cpp ****     }
  55:/home/tienluong/workspace/atlantis_fw/AsicFwS2/src/optical_zoom_manager.cpp ****     std::uint32_t mf = light_system->m_filter;
 698              		.loc 1 55 0
 699 0018 144A     		ldr	r2, .L46+8
 700              	.LVL68:
  56:/home/tienluong/workspace/atlantis_fw/AsicFwS2/src/optical_zoom_manager.cpp ****     std::uint8_t idx = module_to_idx(module);
 701              		.loc 1 56 0
 702 001a 0846     		mov	r0, r1
 703              	.LVL69:
 704 001c 144B     		ldr	r3, .L46+12
  55:/home/tienluong/workspace/atlantis_fw/AsicFwS2/src/optical_zoom_manager.cpp ****     std::uint8_t idx = module_to_idx(module);
 705              		.loc 1 55 0
 706 001e 1268     		ldr	r2, [r2]
 707 0020 9469     		ldr	r4, [r2, #24]
 708              	.LVL70:
 709              		.loc 1 56 0
 710 0022 9847     		blx	r3
 711              	.LVL71:
 712              	.LBB192:
  57:/home/tienluong/workspace/atlantis_fw/AsicFwS2/src/optical_zoom_manager.cpp ****     if (((mf >> idx) & 1) != 0) {
 713              		.loc 1 57 0
 714 0024 24FA00F3 		lsr	r3, r4, r0
 715 0028 13F00103 		ands	r3, r3, #1
 716 002c 17D0     		beq	.L45
 717              	.LBB193:
  58:/home/tienluong/workspace/atlantis_fw/AsicFwS2/src/optical_zoom_manager.cpp ****         cam_typedef_t* pcam = idx_to_object(idx);
 718              		.loc 1 58 0
 719 002e 114B     		ldr	r3, .L46+16
 720 0030 9847     		blx	r3
 721              	.LVL72:
  59:/home/tienluong/workspace/atlantis_fw/AsicFwS2/src/optical_zoom_manager.cpp ****         SLOGF(SLOG_DEBUG, "Requesting to move mirror %02X to %d", pcam->info.module, hc);
 722              		.loc 1 59 0
 723 0032 0D4F     		ldr	r7, .L46+4
 724 0034 1021     		movs	r1, #16
 725 0036 104A     		ldr	r2, .L46+20
 726 0038 90F82930 		ldrb	r3, [r0, #41]	@ zero_extendqisi2
  58:/home/tienluong/workspace/atlantis_fw/AsicFwS2/src/optical_zoom_manager.cpp ****         cam_typedef_t* pcam = idx_to_object(idx);
 727              		.loc 1 58 0
 728 003c 0446     		mov	r4, r0
 729              	.LVL73:
 730              		.loc 1 59 0
 731 003e 0096     		str	r6, [sp]
 732 0040 2B20     		movs	r0, #43
 733              	.LVL74:
 734 0042 B847     		blx	r7
 735              	.LVL75:
  60:/home/tienluong/workspace/atlantis_fw/AsicFwS2/src/optical_zoom_manager.cpp ****         cam_move_mirr_to_position(pcam, hc, &move_mirror_callback, &mirror_move_done_sem_, 0);
 736              		.loc 1 60 0
 737 0044 0023     		movs	r3, #0
 738 0046 2046     		mov	r0, r4
 739 0048 B1B2     		uxth	r1, r6
 740 004a 0093     		str	r3, [sp]
 741 004c 2B46     		mov	r3, r5
 742 004e 0B4A     		ldr	r2, .L46+24
 743 0050 0B4C     		ldr	r4, .L46+28
 744              	.LVL76:
 745 0052 A047     		blx	r4
 746              	.LVL77:
  61:/home/tienluong/workspace/atlantis_fw/AsicFwS2/src/optical_zoom_manager.cpp ****         ++num_mirrors_moving_;
 747              		.loc 1 61 0
 748 0054 2B79     		ldrb	r3, [r5, #4]	@ zero_extendqisi2
 749 0056 0133     		adds	r3, r3, #1
  62:/home/tienluong/workspace/atlantis_fw/AsicFwS2/src/optical_zoom_manager.cpp ****         return true;
 750              		.loc 1 62 0
 751 0058 0120     		movs	r0, #1
  61:/home/tienluong/workspace/atlantis_fw/AsicFwS2/src/optical_zoom_manager.cpp ****         ++num_mirrors_moving_;
 752              		.loc 1 61 0
 753 005a 2B71     		strb	r3, [r5, #4]
 754              		.loc 1 62 0
 755 005c 00E0     		b	.L44
 756              	.LVL78:
 757              	.L45:
 758              	.LBE193:
 759              	.LBE192:
  63:/home/tienluong/workspace/atlantis_fw/AsicFwS2/src/optical_zoom_manager.cpp ****     }
  64:/home/tienluong/workspace/atlantis_fw/AsicFwS2/src/optical_zoom_manager.cpp ****     return false;
 760              		.loc 1 64 0
 761 005e 1846     		mov	r0, r3
 762              	.LVL79:
 763              	.L44:
 764              	.LBE197:
  65:/home/tienluong/workspace/atlantis_fw/AsicFwS2/src/optical_zoom_manager.cpp **** }
 765              		.loc 1 65 0
 766 0060 03B0     		add	sp, sp, #12
 767              	.LCFI13:
 768              		.cfi_def_cfa_offset 20
 769              		@ sp needed
 770 0062 F0BD     		pop	{r4, r5, r6, r7, pc}
 771              	.LVL80:
 772              	.L47:
 773              		.align	2
 774              	.L46:
 775 0064 00000000 		.word	.LC0
 776 0068 00000000 		.word	slogf
 777 006c 00000000 		.word	light_system
 778 0070 00000000 		.word	module_to_idx
 779 0074 00000000 		.word	idx_to_object
 780 0078 3D000000 		.word	.LC1
 781 007c 00000000 		.word	_ZN12_GLOBAL__N_120move_mirror_callbackEPv
 782 0080 00000000 		.word	cam_move_mirr_to_position
 783              		.cfi_endproc
 784              	.LFE3513:
 786              		.global	__aeabi_fcmpge
 787              		.section	.text._ZN20optical_zoom_manager18start_mirrors_moveEv,"ax",%progbits
 788              		.align	1
 789              		.global	_ZN20optical_zoom_manager18start_mirrors_moveEv
 790              		.thumb
 791              		.thumb_func
 793              	_ZN20optical_zoom_manager18start_mirrors_moveEv:
 794              	.LFB3514:
  66:/home/tienluong/workspace/atlantis_fw/AsicFwS2/src/optical_zoom_manager.cpp **** 
  67:/home/tienluong/workspace/atlantis_fw/AsicFwS2/src/optical_zoom_manager.cpp **** void optical_zoom_manager::start_mirrors_move() {
 795              		.loc 1 67 0
 796              		.cfi_startproc
 797              		@ args = 0, pretend = 0, frame = 16
 798              		@ frame_needed = 0, uses_anonymous_args = 0
 799              	.LVL81:
 800 0000 7FB5     		push	{r0, r1, r2, r3, r4, r5, r6, lr}
 801              	.LCFI14:
 802              		.cfi_def_cfa_offset 32
 803              		.cfi_offset 4, -16
 804              		.cfi_offset 5, -12
 805              		.cfi_offset 6, -8
 806              		.cfi_offset 14, -4
 807              	.LBB198:
  68:/home/tienluong/workspace/atlantis_fw/AsicFwS2/src/optical_zoom_manager.cpp ****     // Get mirror hall codes from zoom factor
  69:/home/tienluong/workspace/atlantis_fw/AsicFwS2/src/optical_zoom_manager.cpp ****     const ltaf::OpticalZoomASIC& oz = calib_data_manager::instance().optical_zoom();
 808              		.loc 1 69 0
 809 0002 214B     		ldr	r3, .L52
 810              	.LBE198:
  67:/home/tienluong/workspace/atlantis_fw/AsicFwS2/src/optical_zoom_manager.cpp ****     // Get mirror hall codes from zoom factor
 811              		.loc 1 67 0
 812 0004 0546     		mov	r5, r0
 813              	.LBB199:
 814              		.loc 1 69 0
 815 0006 9847     		blx	r3
 816              	.LVL82:
  70:/home/tienluong/workspace/atlantis_fw/AsicFwS2/src/optical_zoom_manager.cpp ****     float focal_length = light_system->settings->zoom_factor * 28.0f;
 817              		.loc 1 70 0
 818 0008 204B     		ldr	r3, .L52+4
 819 000a 2149     		ldr	r1, .L52+8
 820 000c 1B68     		ldr	r3, [r3]
 821 000e 9B68     		ldr	r3, [r3, #8]
  69:/home/tienluong/workspace/atlantis_fw/AsicFwS2/src/optical_zoom_manager.cpp ****     float focal_length = light_system->settings->zoom_factor * 28.0f;
 822              		.loc 1 69 0
 823 0010 0446     		mov	r4, r0
 824              	.LVL83:
 825              		.loc 1 70 0
 826 0012 D3F8A000 		ldr	r0, [r3, #160]	@ float
 827              	.LVL84:
 828 0016 1F4B     		ldr	r3, .L52+12
 829 0018 9847     		blx	r3
 830              	.LVL85:
  71:/home/tienluong/workspace/atlantis_fw/AsicFwS2/src/optical_zoom_manager.cpp ****     std::int16_t mirror_hc[ltaf::kNumMirrorModules];
  72:/home/tienluong/workspace/atlantis_fw/AsicFwS2/src/optical_zoom_manager.cpp ****     oz.getHallCodesByFocalLength(focal_length, mirror_hc);
 831              		.loc 1 72 0
 832 001a 1F4B     		ldr	r3, .L52+16
 833 001c 6A46     		mov	r2, sp
  70:/home/tienluong/workspace/atlantis_fw/AsicFwS2/src/optical_zoom_manager.cpp ****     std::int16_t mirror_hc[ltaf::kNumMirrorModules];
 834              		.loc 1 70 0
 835 001e 0646     		mov	r6, r0
 836              	.LVL86:
 837              		.loc 1 72 0
 838 0020 04F15000 		add	r0, r4, #80
 839              	.LVL87:
 840 0024 3146     		mov	r1, r6
 841 0026 9847     		blx	r3
 842              	.LVL88:
  73:/home/tienluong/workspace/atlantis_fw/AsicFwS2/src/optical_zoom_manager.cpp ****     // Start moving mirrors
  74:/home/tienluong/workspace/atlantis_fw/AsicFwS2/src/optical_zoom_manager.cpp ****     // Always move Bs
  75:/home/tienluong/workspace/atlantis_fw/AsicFwS2/src/optical_zoom_manager.cpp ****     check_start_mirror_move(0xB1, mirror_hc[0]);
 843              		.loc 1 75 0
 844 0028 1C4C     		ldr	r4, .L52+20
 845              	.LVL89:
 846 002a B121     		movs	r1, #177
 847 002c BDF90020 		ldrsh	r2, [sp]
 848 0030 2846     		mov	r0, r5
 849 0032 A047     		blx	r4
 850              	.LVL90:
  76:/home/tienluong/workspace/atlantis_fw/AsicFwS2/src/optical_zoom_manager.cpp ****     check_start_mirror_move(0xB2, mirror_hc[1]);
 851              		.loc 1 76 0
 852 0034 B221     		movs	r1, #178
 853 0036 BDF90220 		ldrsh	r2, [sp, #2]
 854 003a 2846     		mov	r0, r5
 855 003c A047     		blx	r4
 856              	.LVL91:
  77:/home/tienluong/workspace/atlantis_fw/AsicFwS2/src/optical_zoom_manager.cpp ****     check_start_mirror_move(0xB3, mirror_hc[2]);
 857              		.loc 1 77 0
 858 003e B321     		movs	r1, #179
 859 0040 BDF90420 		ldrsh	r2, [sp, #4]
 860 0044 2846     		mov	r0, r5
 861 0046 A047     		blx	r4
 862              	.LVL92:
  78:/home/tienluong/workspace/atlantis_fw/AsicFwS2/src/optical_zoom_manager.cpp ****     check_start_mirror_move(0xB5, mirror_hc[3]);
 863              		.loc 1 78 0
 864 0048 B521     		movs	r1, #181
 865 004a 2846     		mov	r0, r5
 866 004c BDF90620 		ldrsh	r2, [sp, #6]
 867 0050 A047     		blx	r4
 868              	.LVL93:
  79:/home/tienluong/workspace/atlantis_fw/AsicFwS2/src/optical_zoom_manager.cpp ****     if (focal_length >= 70.0f) {
 869              		.loc 1 79 0
 870 0052 3046     		mov	r0, r6
 871 0054 1249     		ldr	r1, .L52+24
 872 0056 134B     		ldr	r3, .L52+28
 873 0058 9847     		blx	r3
 874              	.LVL94:
 875 005a 98B1     		cbz	r0, .L48
  80:/home/tienluong/workspace/atlantis_fw/AsicFwS2/src/optical_zoom_manager.cpp ****         // BC mode, also move Cs
  81:/home/tienluong/workspace/atlantis_fw/AsicFwS2/src/optical_zoom_manager.cpp ****         check_start_mirror_move(0xC1, mirror_hc[4]);
 876              		.loc 1 81 0
 877 005c C121     		movs	r1, #193
 878 005e BDF90820 		ldrsh	r2, [sp, #8]
 879 0062 2846     		mov	r0, r5
 880 0064 A047     		blx	r4
 881              	.LVL95:
  82:/home/tienluong/workspace/atlantis_fw/AsicFwS2/src/optical_zoom_manager.cpp ****         check_start_mirror_move(0xC2, mirror_hc[5]);
 882              		.loc 1 82 0
 883 0066 C221     		movs	r1, #194
 884 0068 BDF90A20 		ldrsh	r2, [sp, #10]
 885 006c 2846     		mov	r0, r5
 886 006e A047     		blx	r4
 887              	.LVL96:
  83:/home/tienluong/workspace/atlantis_fw/AsicFwS2/src/optical_zoom_manager.cpp ****         check_start_mirror_move(0xC3, mirror_hc[6]);
 888              		.loc 1 83 0
 889 0070 C321     		movs	r1, #195
 890 0072 BDF90C20 		ldrsh	r2, [sp, #12]
 891 0076 2846     		mov	r0, r5
 892 0078 A047     		blx	r4
 893              	.LVL97:
  84:/home/tienluong/workspace/atlantis_fw/AsicFwS2/src/optical_zoom_manager.cpp ****         check_start_mirror_move(0xC4, mirror_hc[7]);
 894              		.loc 1 84 0
 895 007a 2846     		mov	r0, r5
 896 007c C421     		movs	r1, #196
 897 007e BDF90E20 		ldrsh	r2, [sp, #14]
 898 0082 A047     		blx	r4
 899              	.LVL98:
 900              	.L48:
 901              	.LBE199:
  85:/home/tienluong/workspace/atlantis_fw/AsicFwS2/src/optical_zoom_manager.cpp ****     }
  86:/home/tienluong/workspace/atlantis_fw/AsicFwS2/src/optical_zoom_manager.cpp **** }
 902              		.loc 1 86 0
 903 0084 04B0     		add	sp, sp, #16
 904              	.LCFI15:
 905              		.cfi_def_cfa_offset 16
 906              		@ sp needed
 907 0086 70BD     		pop	{r4, r5, r6, pc}
 908              	.LVL99:
 909              	.L53:
 910              		.align	2
 911              	.L52:
 912 0088 00000000 		.word	_ZN18calib_data_manager8instanceEv
 913 008c 00000000 		.word	light_system
 914 0090 0000E041 		.word	1105199104
 915 0094 00000000 		.word	__aeabi_fmul
 916 0098 00000000 		.word	_ZNK4ltaf15OpticalZoomASIC25getHallCodesByFocalLengthEfPs
 917 009c 00000000 		.word	_ZN20optical_zoom_manager23check_start_mirror_moveEhs
 918 00a0 00008C42 		.word	1116471296
 919 00a4 00000000 		.word	__aeabi_fcmpge
 920              		.cfi_endproc
 921              	.LFE3514:
 923              		.section	.text._ZN20optical_zoom_manager26wait_for_mirrors_move_doneEv,"ax",%progbits
 924              		.align	1
 925              		.global	_ZN20optical_zoom_manager26wait_for_mirrors_move_doneEv
 926              		.thumb
 927              		.thumb_func
 929              	_ZN20optical_zoom_manager26wait_for_mirrors_move_doneEv:
 930              	.LFB3515:
  87:/home/tienluong/workspace/atlantis_fw/AsicFwS2/src/optical_zoom_manager.cpp **** 
  88:/home/tienluong/workspace/atlantis_fw/AsicFwS2/src/optical_zoom_manager.cpp **** void optical_zoom_manager::wait_for_mirrors_move_done() {
 931              		.loc 1 88 0
 932              		.cfi_startproc
 933              		@ args = 0, pretend = 0, frame = 0
 934              		@ frame_needed = 0, uses_anonymous_args = 0
 935              	.LVL100:
 936 0000 70B5     		push	{r4, r5, r6, lr}
 937              	.LCFI16:
 938              		.cfi_def_cfa_offset 16
 939              		.cfi_offset 4, -16
 940              		.cfi_offset 5, -12
 941              		.cfi_offset 6, -8
 942              		.cfi_offset 14, -4
 943              		.loc 1 88 0
 944 0002 0446     		mov	r4, r0
 945              	.LBB200:
 946              	.LBB201:
  89:/home/tienluong/workspace/atlantis_fw/AsicFwS2/src/optical_zoom_manager.cpp ****     for (std::uint8_t i = 0; i < num_mirrors_moving_; ++i) {
 947              		.loc 1 89 0
 948 0004 0025     		movs	r5, #0
 949              	.LVL101:
 950              	.L55:
 951 0006 EBB2     		uxtb	r3, r5
 952              		.loc 1 89 0 is_stmt 0 discriminator 1
 953 0008 2279     		ldrb	r2, [r4, #4]	@ zero_extendqisi2
 954 000a 9A42     		cmp	r2, r3
 955 000c 05F10105 		add	r5, r5, #1
 956 0010 07D9     		bls	.L57
  90:/home/tienluong/workspace/atlantis_fw/AsicFwS2/src/optical_zoom_manager.cpp ****         xSemaphoreTake(mirror_move_done_sem_, portMAX_DELAY);
 957              		.loc 1 90 0 is_stmt 1 discriminator 3
 958 0012 0021     		movs	r1, #0
 959 0014 2068     		ldr	r0, [r4]
 960 0016 4FF0FF32 		mov	r2, #-1
 961 001a 0B46     		mov	r3, r1
 962 001c 024E     		ldr	r6, .L58
 963 001e B047     		blx	r6
 964              	.LVL102:
 965 0020 F1E7     		b	.L55
 966              	.LVL103:
 967              	.L57:
 968              	.LBE201:
  91:/home/tienluong/workspace/atlantis_fw/AsicFwS2/src/optical_zoom_manager.cpp ****     }
  92:/home/tienluong/workspace/atlantis_fw/AsicFwS2/src/optical_zoom_manager.cpp ****     num_mirrors_moving_ = 0;
 969              		.loc 1 92 0
 970 0022 0023     		movs	r3, #0
 971 0024 2371     		strb	r3, [r4, #4]
 972 0026 70BD     		pop	{r4, r5, r6, pc}
 973              	.LVL104:
 974              	.L59:
 975              		.align	2
 976              	.L58:
 977 0028 00000000 		.word	xQueueGenericReceive
 978              	.LBE200:
 979              		.cfi_endproc
 980              	.LFE3515:
 982              		.global	__aeabi_fadd
 983              		.section	.text._ZNK4ltaf20SquareMatrixInverterIfLi3EE3runEPf,"axG",%progbits,_ZNK4ltaf20SquareMatr
 984              		.align	1
 985              		.weak	_ZNK4ltaf20SquareMatrixInverterIfLi3EE3runEPf
 986              		.thumb
 987              		.thumb_func
 989              	_ZNK4ltaf20SquareMatrixInverterIfLi3EE3runEPf:
 990              	.LFB3651:
1140:/home/tienluong/workspace/atlantis_fw/AsicFwS2/include/matrix.h ****     {
 991              		.loc 2 1140 0
 992              		.cfi_startproc
 993              		@ args = 0, pretend = 0, frame = 72
 994              		@ frame_needed = 0, uses_anonymous_args = 0
 995              	.LVL105:
 996 0000 2DE9F04F 		push	{r4, r5, r6, r7, r8, r9, r10, fp, lr}
 997              	.LCFI17:
 998              		.cfi_def_cfa_offset 36
 999              		.cfi_offset 4, -36
 1000              		.cfi_offset 5, -32
 1001              		.cfi_offset 6, -28
 1002              		.cfi_offset 7, -24
 1003              		.cfi_offset 8, -20
 1004              		.cfi_offset 9, -16
 1005              		.cfi_offset 10, -12
 1006              		.cfi_offset 11, -8
 1007              		.cfi_offset 14, -4
 1008 0004 93B0     		sub	sp, sp, #76
 1009              	.LCFI18:
 1010              		.cfi_def_cfa_offset 112
 1011              	.LBB202:
1142:/home/tienluong/workspace/atlantis_fw/AsicFwS2/include/matrix.h ****                       - mat[1] * ( mat[3] * mat[8] - mat[5] * mat[6] )
 1012              		.loc 2 1142 0
 1013 0006 0B69     		ldr	r3, [r1, #16]	@ float
 1014              	.LBE202:
1140:/home/tienluong/workspace/atlantis_fw/AsicFwS2/include/matrix.h ****     {
 1015              		.loc 2 1140 0
 1016 0008 8946     		mov	r9, r1
 1017              	.LBB205:
1142:/home/tienluong/workspace/atlantis_fw/AsicFwS2/include/matrix.h ****                       - mat[1] * ( mat[3] * mat[8] - mat[5] * mat[6] )
 1018              		.loc 2 1142 0
 1019 000a D1F820A0 		ldr	r10, [r1, #32]	@ float
 1020 000e 0093     		str	r3, [sp]	@ float
 1021 0010 CB69     		ldr	r3, [r1, #28]	@ float
1144:/home/tienluong/workspace/atlantis_fw/AsicFwS2/include/matrix.h **** 
 1022              		.loc 2 1144 0
 1023 0012 554C     		ldr	r4, .L63
1142:/home/tienluong/workspace/atlantis_fw/AsicFwS2/include/matrix.h ****                       - mat[1] * ( mat[3] * mat[8] - mat[5] * mat[6] )
 1024              		.loc 2 1142 0
 1025 0014 0F68     		ldr	r7, [r1]	@ float
 1026 0016 0193     		str	r3, [sp, #4]	@ float
1144:/home/tienluong/workspace/atlantis_fw/AsicFwS2/include/matrix.h **** 
 1027              		.loc 2 1144 0
 1028 0018 0098     		ldr	r0, [sp]	@ float
 1029              	.LVL106:
1142:/home/tienluong/workspace/atlantis_fw/AsicFwS2/include/matrix.h ****                       - mat[1] * ( mat[3] * mat[8] - mat[5] * mat[6] )
 1030              		.loc 2 1142 0
 1031 001a 4B69     		ldr	r3, [r1, #20]	@ float
1144:/home/tienluong/workspace/atlantis_fw/AsicFwS2/include/matrix.h **** 
 1032              		.loc 2 1144 0
 1033 001c 5146     		mov	r1, r10
 1034              	.LVL107:
1142:/home/tienluong/workspace/atlantis_fw/AsicFwS2/include/matrix.h ****                       - mat[1] * ( mat[3] * mat[8] - mat[5] * mat[6] )
 1035              		.loc 2 1142 0
 1036 001e 0293     		str	r3, [sp, #8]	@ float
1144:/home/tienluong/workspace/atlantis_fw/AsicFwS2/include/matrix.h **** 
 1037              		.loc 2 1144 0
 1038 0020 A047     		blx	r4
 1039              	.LVL108:
 1040 0022 0299     		ldr	r1, [sp, #8]	@ float
 1041 0024 514D     		ldr	r5, .L63+4
 1042 0026 0646     		mov	r6, r0
 1043 0028 0198     		ldr	r0, [sp, #4]	@ float
 1044 002a A047     		blx	r4
 1045              	.LVL109:
 1046 002c 0146     		mov	r1, r0
 1047 002e 3046     		mov	r0, r6
 1048 0030 A847     		blx	r5
 1049              	.LVL110:
1143:/home/tienluong/workspace/atlantis_fw/AsicFwS2/include/matrix.h ****                       + mat[2] * ( mat[3] * mat[7] - mat[4] * mat[6] );
 1050              		.loc 2 1143 0
 1051 0032 D9F80C30 		ldr	r3, [r9, #12]	@ float
 1052 0036 0393     		str	r3, [sp, #12]	@ float
1144:/home/tienluong/workspace/atlantis_fw/AsicFwS2/include/matrix.h **** 
 1053              		.loc 2 1144 0
 1054 0038 5146     		mov	r1, r10
1143:/home/tienluong/workspace/atlantis_fw/AsicFwS2/include/matrix.h ****                       + mat[2] * ( mat[3] * mat[7] - mat[4] * mat[6] );
 1055              		.loc 2 1143 0
 1056 003a D9F81830 		ldr	r3, [r9, #24]	@ float
 1057 003e 0493     		str	r3, [sp, #16]	@ float
 1058 0040 D9F80460 		ldr	r6, [r9, #4]	@ float
1144:/home/tienluong/workspace/atlantis_fw/AsicFwS2/include/matrix.h **** 
 1059              		.loc 2 1144 0
 1060 0044 8346     		mov	fp, r0
 1061 0046 0398     		ldr	r0, [sp, #12]	@ float
 1062 0048 A047     		blx	r4
 1063              	.LVL111:
 1064 004a 0499     		ldr	r1, [sp, #16]	@ float
 1065 004c 8046     		mov	r8, r0
 1066 004e 0298     		ldr	r0, [sp, #8]	@ float
 1067 0050 A047     		blx	r4
 1068              	.LVL112:
 1069 0052 0146     		mov	r1, r0
 1070 0054 4046     		mov	r0, r8
 1071 0056 A847     		blx	r5
 1072              	.LVL113:
 1073 0058 0199     		ldr	r1, [sp, #4]	@ float
 1074 005a D9F80880 		ldr	r8, [r9, #8]	@ float
 1075 005e 0590     		str	r0, [sp, #20]	@ float
 1076 0060 0398     		ldr	r0, [sp, #12]	@ float
 1077 0062 A047     		blx	r4
 1078              	.LVL114:
 1079 0064 0499     		ldr	r1, [sp, #16]	@ float
 1080 0066 0690     		str	r0, [sp, #24]
 1081 0068 0098     		ldr	r0, [sp]	@ float
 1082 006a A047     		blx	r4
 1083              	.LVL115:
 1084 006c 069A     		ldr	r2, [sp, #24]
 1085 006e 0146     		mov	r1, r0
 1086 0070 1046     		mov	r0, r2
 1087 0072 A847     		blx	r5
 1088              	.LVL116:
 1089 0074 5946     		mov	r1, fp
 1090 0076 0690     		str	r0, [sp, #24]	@ float
 1091              	.LVL117:
 1092 0078 3846     		mov	r0, r7
 1093              	.LVL118:
 1094 007a A047     		blx	r4
 1095              	.LVL119:
 1096 007c 0599     		ldr	r1, [sp, #20]	@ float
 1097 007e 0790     		str	r0, [sp, #28]
 1098 0080 3046     		mov	r0, r6
 1099 0082 A047     		blx	r4
 1100              	.LVL120:
 1101 0084 079A     		ldr	r2, [sp, #28]
 1102 0086 0146     		mov	r1, r0
 1103 0088 1046     		mov	r0, r2
 1104 008a A847     		blx	r5
 1105              	.LVL121:
 1106 008c 0699     		ldr	r1, [sp, #24]	@ float
 1107 008e 0790     		str	r0, [sp, #28]
 1108 0090 4046     		mov	r0, r8
 1109 0092 A047     		blx	r4
 1110              	.LVL122:
 1111 0094 079A     		ldr	r2, [sp, #28]
 1112 0096 0146     		mov	r1, r0
 1113 0098 1046     		mov	r0, r2
 1114 009a 354A     		ldr	r2, .L63+8
 1115 009c 9047     		blx	r2
 1116              	.LVL123:
1146:/home/tienluong/workspace/atlantis_fw/AsicFwS2/include/matrix.h **** 
 1117              		.loc 2 1146 0
 1118 009e 354A     		ldr	r2, .L63+12
1144:/home/tienluong/workspace/atlantis_fw/AsicFwS2/include/matrix.h **** 
 1119              		.loc 2 1144 0
 1120 00a0 0146     		mov	r1, r0
1146:/home/tienluong/workspace/atlantis_fw/AsicFwS2/include/matrix.h **** 
 1121              		.loc 2 1146 0
 1122 00a2 4FF07E50 		mov	r0, #1065353216
 1123 00a6 9047     		blx	r2
 1124              	.LVL124:
1150:/home/tienluong/workspace/atlantis_fw/AsicFwS2/include/matrix.h ****         tmp[2] =  mat[1] * mat[5] - mat[2] * mat[4];
 1125              		.loc 2 1150 0
 1126 00a8 5146     		mov	r1, r10
1149:/home/tienluong/workspace/atlantis_fw/AsicFwS2/include/matrix.h ****         tmp[1] = -( mat[1] * mat[8] - mat[2] * mat[7] );
 1127              		.loc 2 1149 0
 1128 00aa CDF824B0 		str	fp, [sp, #36]	@ float
1146:/home/tienluong/workspace/atlantis_fw/AsicFwS2/include/matrix.h **** 
 1129              		.loc 2 1146 0
 1130 00ae 0790     		str	r0, [sp, #28]	@ float
 1131              	.LVL125:
1150:/home/tienluong/workspace/atlantis_fw/AsicFwS2/include/matrix.h ****         tmp[2] =  mat[1] * mat[5] - mat[2] * mat[4];
 1132              		.loc 2 1150 0
 1133 00b0 3046     		mov	r0, r6
 1134              	.LVL126:
 1135 00b2 A047     		blx	r4
 1136              	.LVL127:
 1137 00b4 0199     		ldr	r1, [sp, #4]	@ float
 1138 00b6 8346     		mov	fp, r0
 1139              	.LVL128:
 1140 00b8 4046     		mov	r0, r8
 1141 00ba A047     		blx	r4
 1142              	.LVL129:
 1143 00bc 0146     		mov	r1, r0
 1144 00be 5846     		mov	r0, fp
 1145 00c0 A847     		blx	r5
 1146              	.LVL130:
1151:/home/tienluong/workspace/atlantis_fw/AsicFwS2/include/matrix.h ****         tmp[3] = -( mat[3] * mat[8] - mat[5] * mat[6] );
 1147              		.loc 2 1151 0
 1148 00c2 0299     		ldr	r1, [sp, #8]	@ float
1150:/home/tienluong/workspace/atlantis_fw/AsicFwS2/include/matrix.h ****         tmp[2] =  mat[1] * mat[5] - mat[2] * mat[4];
 1149              		.loc 2 1150 0
 1150 00c4 00F10040 		add	r0, r0, #-2147483648
 1151 00c8 0A90     		str	r0, [sp, #40]	@ float
1151:/home/tienluong/workspace/atlantis_fw/AsicFwS2/include/matrix.h ****         tmp[3] = -( mat[3] * mat[8] - mat[5] * mat[6] );
 1152              		.loc 2 1151 0
 1153 00ca 3046     		mov	r0, r6
 1154 00cc A047     		blx	r4
 1155              	.LVL131:
 1156 00ce 0099     		ldr	r1, [sp]	@ float
 1157 00d0 8346     		mov	fp, r0
 1158 00d2 4046     		mov	r0, r8
 1159 00d4 A047     		blx	r4
 1160              	.LVL132:
 1161 00d6 0146     		mov	r1, r0
 1162 00d8 5846     		mov	r0, fp
 1163 00da A847     		blx	r5
 1164              	.LVL133:
1152:/home/tienluong/workspace/atlantis_fw/AsicFwS2/include/matrix.h ****         tmp[4] =  mat[0] * mat[8] - mat[2] * mat[6];
 1165              		.loc 2 1152 0
 1166 00dc 059B     		ldr	r3, [sp, #20]
1153:/home/tienluong/workspace/atlantis_fw/AsicFwS2/include/matrix.h ****         tmp[5] = -( mat[0] * mat[5] - mat[3] * mat[2] );
 1167              		.loc 2 1153 0
 1168 00de 5146     		mov	r1, r10
1152:/home/tienluong/workspace/atlantis_fw/AsicFwS2/include/matrix.h ****         tmp[4] =  mat[0] * mat[8] - mat[2] * mat[6];
 1169              		.loc 2 1152 0
 1170 00e0 03F10042 		add	r2, r3, #-2147483648
 1171 00e4 0C92     		str	r2, [sp, #48]	@ float
1151:/home/tienluong/workspace/atlantis_fw/AsicFwS2/include/matrix.h ****         tmp[3] = -( mat[3] * mat[8] - mat[5] * mat[6] );
 1172              		.loc 2 1151 0
 1173 00e6 0B90     		str	r0, [sp, #44]	@ float
1153:/home/tienluong/workspace/atlantis_fw/AsicFwS2/include/matrix.h ****         tmp[5] = -( mat[0] * mat[5] - mat[3] * mat[2] );
 1174              		.loc 2 1153 0
 1175 00e8 3846     		mov	r0, r7
 1176 00ea A047     		blx	r4
 1177              	.LVL134:
 1178 00ec 0499     		ldr	r1, [sp, #16]	@ float
 1179 00ee 8246     		mov	r10, r0
 1180 00f0 4046     		mov	r0, r8
 1181 00f2 A047     		blx	r4
 1182              	.LVL135:
 1183 00f4 0146     		mov	r1, r0
 1184 00f6 5046     		mov	r0, r10
 1185 00f8 A847     		blx	r5
 1186              	.LVL136:
1154:/home/tienluong/workspace/atlantis_fw/AsicFwS2/include/matrix.h ****         tmp[6] =  mat[3] * mat[7] - mat[6] * mat[ 4];
 1187              		.loc 2 1154 0
 1188 00fa 0299     		ldr	r1, [sp, #8]	@ float
1153:/home/tienluong/workspace/atlantis_fw/AsicFwS2/include/matrix.h ****         tmp[5] = -( mat[0] * mat[5] - mat[3] * mat[2] );
 1189              		.loc 2 1153 0
 1190 00fc 0D90     		str	r0, [sp, #52]	@ float
1154:/home/tienluong/workspace/atlantis_fw/AsicFwS2/include/matrix.h ****         tmp[6] =  mat[3] * mat[7] - mat[6] * mat[ 4];
 1191              		.loc 2 1154 0
 1192 00fe 3846     		mov	r0, r7
 1193 0100 A047     		blx	r4
 1194              	.LVL137:
 1195 0102 4146     		mov	r1, r8
 1196 0104 8246     		mov	r10, r0
 1197 0106 0398     		ldr	r0, [sp, #12]	@ float
 1198 0108 A047     		blx	r4
 1199              	.LVL138:
 1200 010a 0146     		mov	r1, r0
 1201 010c 5046     		mov	r0, r10
 1202 010e A847     		blx	r5
 1203              	.LVL139:
1155:/home/tienluong/workspace/atlantis_fw/AsicFwS2/include/matrix.h ****         tmp[7] = -( mat[0] * mat[7] - mat[6] * mat[1] );
 1204              		.loc 2 1155 0
 1205 0110 069B     		ldr	r3, [sp, #24]	@ float
1156:/home/tienluong/workspace/atlantis_fw/AsicFwS2/include/matrix.h ****         tmp[8] =  mat[0] * mat[4] - mat[3] * mat[1];
 1206              		.loc 2 1156 0
 1207 0112 0199     		ldr	r1, [sp, #4]	@ float
1155:/home/tienluong/workspace/atlantis_fw/AsicFwS2/include/matrix.h ****         tmp[7] = -( mat[0] * mat[7] - mat[6] * mat[1] );
 1208              		.loc 2 1155 0
 1209 0114 0F93     		str	r3, [sp, #60]	@ float
1154:/home/tienluong/workspace/atlantis_fw/AsicFwS2/include/matrix.h ****         tmp[6] =  mat[3] * mat[7] - mat[6] * mat[ 4];
 1210              		.loc 2 1154 0
 1211 0116 00F10040 		add	r0, r0, #-2147483648
 1212 011a 0E90     		str	r0, [sp, #56]	@ float
1156:/home/tienluong/workspace/atlantis_fw/AsicFwS2/include/matrix.h ****         tmp[8] =  mat[0] * mat[4] - mat[3] * mat[1];
 1213              		.loc 2 1156 0
 1214 011c 3846     		mov	r0, r7
 1215 011e A047     		blx	r4
 1216              	.LVL140:
 1217 0120 3146     		mov	r1, r6
 1218 0122 8046     		mov	r8, r0
 1219 0124 0498     		ldr	r0, [sp, #16]	@ float
 1220 0126 A047     		blx	r4
 1221              	.LVL141:
 1222 0128 0146     		mov	r1, r0
 1223 012a 4046     		mov	r0, r8
 1224 012c A847     		blx	r5
 1225              	.LVL142:
1157:/home/tienluong/workspace/atlantis_fw/AsicFwS2/include/matrix.h **** 
 1226              		.loc 2 1157 0
 1227 012e 0099     		ldr	r1, [sp]	@ float
1156:/home/tienluong/workspace/atlantis_fw/AsicFwS2/include/matrix.h ****         tmp[8] =  mat[0] * mat[4] - mat[3] * mat[1];
 1228              		.loc 2 1156 0
 1229 0130 00F10040 		add	r0, r0, #-2147483648
 1230 0134 1090     		str	r0, [sp, #64]	@ float
1157:/home/tienluong/workspace/atlantis_fw/AsicFwS2/include/matrix.h **** 
 1231              		.loc 2 1157 0
 1232 0136 3846     		mov	r0, r7
 1233 0138 A047     		blx	r4
 1234              	.LVL143:
 1235 013a 3146     		mov	r1, r6
 1236 013c 0746     		mov	r7, r0
 1237 013e 0398     		ldr	r0, [sp, #12]	@ float
 1238 0140 A047     		blx	r4
 1239              	.LVL144:
 1240 0142 0146     		mov	r1, r0
 1241 0144 3846     		mov	r0, r7
 1242 0146 A847     		blx	r5
 1243              	.LVL145:
 1244              	.LBB203:
1159:/home/tienluong/workspace/atlantis_fw/AsicFwS2/include/matrix.h ****     }
 1245              		.loc 2 1159 0
 1246 0148 0025     		movs	r5, #0
 1247              	.LBE203:
1157:/home/tienluong/workspace/atlantis_fw/AsicFwS2/include/matrix.h **** 
 1248              		.loc 2 1157 0
 1249 014a 1190     		str	r0, [sp, #68]	@ float
 1250              	.LVL146:
 1251              	.L61:
 1252              	.LBB204:
1159:/home/tienluong/workspace/atlantis_fw/AsicFwS2/include/matrix.h ****     }
 1253              		.loc 2 1159 0 discriminator 3
 1254 014c 09AA     		add	r2, sp, #36
 1255 014e 0799     		ldr	r1, [sp, #28]	@ float
 1256 0150 52F82500 		ldr	r0, [r2, r5, lsl #2]	@ float
 1257 0154 A047     		blx	r4
 1258              	.LVL147:
 1259 0156 49F82500 		str	r0, [r9, r5, lsl #2]	@ float
 1260 015a 0135     		adds	r5, r5, #1
 1261              	.LVL148:
 1262 015c 092D     		cmp	r5, #9
 1263 015e F5D1     		bne	.L61
 1264              	.LBE204:
 1265              	.LBE205:
1160:/home/tienluong/workspace/atlantis_fw/AsicFwS2/include/matrix.h **** };
 1266              		.loc 2 1160 0
 1267 0160 13B0     		add	sp, sp, #76
 1268              	.LCFI19:
 1269              		.cfi_def_cfa_offset 36
 1270              		@ sp needed
 1271 0162 BDE8F08F 		pop	{r4, r5, r6, r7, r8, r9, r10, fp, pc}
 1272              	.LVL149:
 1273              	.L64:
 1274 0166 00BF     		.align	2
 1275              	.L63:
 1276 0168 00000000 		.word	__aeabi_fmul
 1277 016c 00000000 		.word	__aeabi_fsub
 1278 0170 00000000 		.word	__aeabi_fadd
 1279 0174 00000000 		.word	__aeabi_fdiv
 1280              		.cfi_endproc
 1281              	.LFE3651:
 1283              		.section	.text._ZN4ltaf7inverseIfLi3ELb1EEENS_6MatrixIT_XT0_EXT0_EXT1_EEERKS3_,"axG",%progbits,_ZN
 1284              		.align	1
 1285              		.weak	_ZN4ltaf7inverseIfLi3ELb1EEENS_6MatrixIT_XT0_EXT0_EXT1_EEERKS3_
 1286              		.thumb
 1287              		.thumb_func
 1289              	_ZN4ltaf7inverseIfLi3ELb1EEENS_6MatrixIT_XT0_EXT0_EXT1_EEERKS3_:
 1290              	.LFB3544:
1247:/home/tienluong/workspace/atlantis_fw/AsicFwS2/include/matrix.h **** {
 1291              		.loc 2 1247 0
 1292              		.cfi_startproc
 1293              		@ args = 0, pretend = 0, frame = 8
 1294              		@ frame_needed = 0, uses_anonymous_args = 0
 1295              	.LVL150:
 1296 0000 73B5     		push	{r0, r1, r4, r5, r6, lr}
 1297              	.LCFI20:
 1298              		.cfi_def_cfa_offset 24
 1299              		.cfi_offset 4, -16
 1300              		.cfi_offset 5, -12
 1301              		.cfi_offset 6, -8
 1302              		.cfi_offset 14, -4
 1303              	.LBB212:
 1304              	.LBB213:
 1305              	.LBB214:
 591:/home/tienluong/workspace/atlantis_fw/AsicFwS2/include/matrix.h **** 
 1306              		.loc 2 591 0
 1307 0002 0D46     		mov	r5, r1
 1308              	.LBE214:
 1309              	.LBE213:
 1310              	.LBE212:
1247:/home/tienluong/workspace/atlantis_fw/AsicFwS2/include/matrix.h **** {
 1311              		.loc 2 1247 0
 1312 0004 0646     		mov	r6, r0
 1313              	.LBB219:
 1314              	.LBB217:
 1315              	.LBB215:
 591:/home/tienluong/workspace/atlantis_fw/AsicFwS2/include/matrix.h **** 
 1316              		.loc 2 591 0
 1317 0006 0446     		mov	r4, r0
 1318 0008 0FCD     		ldmia	r5!, {r0, r1, r2, r3}
 1319              	.LVL151:
 1320 000a 0FC4     		stmia	r4!, {r0, r1, r2, r3}
 1321              	.LVL152:
 1322 000c 0FCD     		ldmia	r5!, {r0, r1, r2, r3}
 1323              	.LVL153:
 1324 000e 0FC4     		stmia	r4!, {r0, r1, r2, r3}
 1325 0010 2B68     		ldr	r3, [r5]
 1326              	.LBE215:
 1327              	.LBE217:
1251:/home/tienluong/workspace/atlantis_fw/AsicFwS2/include/matrix.h ****     return rval;
 1328              		.loc 2 1251 0
 1329 0012 01A8     		add	r0, sp, #4
 1330              	.LBB218:
 1331              	.LBB216:
 591:/home/tienluong/workspace/atlantis_fw/AsicFwS2/include/matrix.h **** 
 1332              		.loc 2 591 0
 1333 0014 2360     		str	r3, [r4]
 1334              	.LVL154:
 1335              	.LBE216:
 1336              	.LBE218:
1251:/home/tienluong/workspace/atlantis_fw/AsicFwS2/include/matrix.h ****     return rval;
 1337              		.loc 2 1251 0
 1338 0016 3146     		mov	r1, r6
 1339 0018 024B     		ldr	r3, .L66
 1340 001a 9847     		blx	r3
 1341              	.LVL155:
 1342              	.LBE219:
1253:/home/tienluong/workspace/atlantis_fw/AsicFwS2/include/matrix.h **** 
 1343              		.loc 2 1253 0
 1344 001c 3046     		mov	r0, r6
 1345 001e 02B0     		add	sp, sp, #8
 1346              	.LCFI21:
 1347              		.cfi_def_cfa_offset 16
 1348              		@ sp needed
 1349 0020 70BD     		pop	{r4, r5, r6, pc}
 1350              	.LVL156:
 1351              	.L67:
 1352 0022 00BF     		.align	2
 1353              	.L66:
 1354 0024 00000000 		.word	_ZNK4ltaf20SquareMatrixInverterIfLi3EE3runEPf
 1355              		.cfi_endproc
 1356              	.LFE3544:
 1358              		.section	.text._ZN4ltaf7inverseIfLi3ELb0EEENS_6MatrixIT_XT0_EXT0_EXT1_EEERKS3_,"axG",%progbits,_ZN
 1359              		.align	1
 1360              		.weak	_ZN4ltaf7inverseIfLi3ELb0EEENS_6MatrixIT_XT0_EXT0_EXT1_EEERKS3_
 1361              		.thumb
 1362              		.thumb_func
 1364              	_ZN4ltaf7inverseIfLi3ELb0EEENS_6MatrixIT_XT0_EXT0_EXT1_EEERKS3_:
 1365              	.LFB3547:
1247:/home/tienluong/workspace/atlantis_fw/AsicFwS2/include/matrix.h **** {
 1366              		.loc 2 1247 0
 1367              		.cfi_startproc
 1368              		@ args = 0, pretend = 0, frame = 8
 1369              		@ frame_needed = 0, uses_anonymous_args = 0
 1370              	.LVL157:
 1371 0000 73B5     		push	{r0, r1, r4, r5, r6, lr}
 1372              	.LCFI22:
 1373              		.cfi_def_cfa_offset 24
 1374              		.cfi_offset 4, -16
 1375              		.cfi_offset 5, -12
 1376              		.cfi_offset 6, -8
 1377              		.cfi_offset 14, -4
 1378              	.LBB226:
 1379              	.LBB227:
 1380              	.LBB228:
 593:/home/tienluong/workspace/atlantis_fw/AsicFwS2/include/matrix.h **** 
 1381              		.loc 2 593 0
 1382 0002 0D46     		mov	r5, r1
 1383              	.LBE228:
 1384              	.LBE227:
 1385              	.LBE226:
1247:/home/tienluong/workspace/atlantis_fw/AsicFwS2/include/matrix.h **** {
 1386              		.loc 2 1247 0
 1387 0004 0646     		mov	r6, r0
 1388              	.LBB233:
 1389              	.LBB231:
 1390              	.LBB229:
 593:/home/tienluong/workspace/atlantis_fw/AsicFwS2/include/matrix.h **** 
 1391              		.loc 2 593 0
 1392 0006 0446     		mov	r4, r0
 1393 0008 0FCD     		ldmia	r5!, {r0, r1, r2, r3}
 1394              	.LVL158:
 1395 000a 0FC4     		stmia	r4!, {r0, r1, r2, r3}
 1396              	.LVL159:
 1397 000c 0FCD     		ldmia	r5!, {r0, r1, r2, r3}
 1398              	.LVL160:
 1399 000e 0FC4     		stmia	r4!, {r0, r1, r2, r3}
 1400 0010 2B68     		ldr	r3, [r5]
 1401              	.LBE229:
 1402              	.LBE231:
1251:/home/tienluong/workspace/atlantis_fw/AsicFwS2/include/matrix.h ****     return rval;
 1403              		.loc 2 1251 0
 1404 0012 01A8     		add	r0, sp, #4
 1405              	.LBB232:
 1406              	.LBB230:
 593:/home/tienluong/workspace/atlantis_fw/AsicFwS2/include/matrix.h **** 
 1407              		.loc 2 593 0
 1408 0014 2360     		str	r3, [r4]
 1409              	.LVL161:
 1410              	.LBE230:
 1411              	.LBE232:
1251:/home/tienluong/workspace/atlantis_fw/AsicFwS2/include/matrix.h ****     return rval;
 1412              		.loc 2 1251 0
 1413 0016 3146     		mov	r1, r6
 1414 0018 024B     		ldr	r3, .L69
 1415 001a 9847     		blx	r3
 1416              	.LVL162:
 1417              	.LBE233:
1253:/home/tienluong/workspace/atlantis_fw/AsicFwS2/include/matrix.h **** 
 1418              		.loc 2 1253 0
 1419 001c 3046     		mov	r0, r6
 1420 001e 02B0     		add	sp, sp, #8
 1421              	.LCFI23:
 1422              		.cfi_def_cfa_offset 16
 1423              		@ sp needed
 1424 0020 70BD     		pop	{r4, r5, r6, pc}
 1425              	.LVL163:
 1426              	.L70:
 1427 0022 00BF     		.align	2
 1428              	.L69:
 1429 0024 00000000 		.word	_ZNK4ltaf20SquareMatrixInverterIfLi3EE3runEPf
 1430              		.cfi_endproc
 1431              	.LFE3547:
 1433              		.section	.text._ZNK4ltaf20SquareMatrixInverterIfLi4EE3runEPf,"axG",%progbits,_ZNK4ltaf20SquareMatr
 1434              		.align	1
 1435              		.weak	_ZNK4ltaf20SquareMatrixInverterIfLi4EE3runEPf
 1436              		.thumb
 1437              		.thumb_func
 1439              	_ZNK4ltaf20SquareMatrixInverterIfLi4EE3runEPf:
 1440              	.LFB3653:
1166:/home/tienluong/workspace/atlantis_fw/AsicFwS2/include/matrix.h ****     {
 1441              		.loc 2 1166 0
 1442              		.cfi_startproc
 1443              		@ args = 0, pretend = 0, frame = 176
 1444              		@ frame_needed = 0, uses_anonymous_args = 0
 1445              	.LVL164:
 1446 0000 2DE9F04F 		push	{r4, r5, r6, r7, r8, r9, r10, fp, lr}
 1447              	.LCFI24:
 1448              		.cfi_def_cfa_offset 36
 1449              		.cfi_offset 4, -36
 1450              		.cfi_offset 5, -32
 1451              		.cfi_offset 6, -28
 1452              		.cfi_offset 7, -24
 1453              		.cfi_offset 8, -20
 1454              		.cfi_offset 9, -16
 1455              		.cfi_offset 10, -12
 1456              		.cfi_offset 11, -8
 1457              		.cfi_offset 14, -4
 1458 0004 ADB0     		sub	sp, sp, #180
 1459              	.LCFI25:
 1460              		.cfi_def_cfa_offset 216
 1461              	.LBB234:
1172:/home/tienluong/workspace/atlantis_fw/AsicFwS2/include/matrix.h ****         tmp[1] = mat[11] * mat[14];
 1462              		.loc 2 1172 0
 1463 0006 8B6A     		ldr	r3, [r1, #40]	@ float
 1464 0008 0293     		str	r3, [sp, #8]	@ float
 1465 000a CB6B     		ldr	r3, [r1, #60]	@ float
 1466 000c 804C     		ldr	r4, .L74
 1467              	.LBE234:
1166:/home/tienluong/workspace/atlantis_fw/AsicFwS2/include/matrix.h ****     {
 1468              		.loc 2 1166 0
 1469 000e 0191     		str	r1, [sp, #4]
 1470              	.LBB237:
1172:/home/tienluong/workspace/atlantis_fw/AsicFwS2/include/matrix.h ****         tmp[1] = mat[11] * mat[14];
 1471              		.loc 2 1172 0
 1472 0010 1946     		mov	r1, r3
 1473              	.LVL165:
 1474 0012 0298     		ldr	r0, [sp, #8]	@ float
 1475              	.LVL166:
 1476 0014 0393     		str	r3, [sp, #12]	@ float
 1477 0016 A047     		blx	r4
 1478              	.LVL167:
1173:/home/tienluong/workspace/atlantis_fw/AsicFwS2/include/matrix.h ****         tmp[2] = mat[9] * mat[15];
 1479              		.loc 2 1173 0
 1480 0018 019B     		ldr	r3, [sp, #4]
1186:/home/tienluong/workspace/atlantis_fw/AsicFwS2/include/matrix.h ****         dst[0]  -= tmp[1] * mat[5] + tmp[2] * mat[6] + tmp[5]  * mat[7];
 1481              		.loc 2 1186 0
 1482 001a 7E4D     		ldr	r5, .L74+4
1173:/home/tienluong/workspace/atlantis_fw/AsicFwS2/include/matrix.h ****         tmp[2] = mat[9] * mat[15];
 1483              		.loc 2 1173 0
 1484 001c DB6A     		ldr	r3, [r3, #44]	@ float
 1485 001e 0493     		str	r3, [sp, #16]	@ float
 1486 0020 019B     		ldr	r3, [sp, #4]
 1487 0022 9B6B     		ldr	r3, [r3, #56]	@ float
 1488 0024 1946     		mov	r1, r3
 1489 0026 0593     		str	r3, [sp, #20]	@ float
1172:/home/tienluong/workspace/atlantis_fw/AsicFwS2/include/matrix.h ****         tmp[1] = mat[11] * mat[14];
 1490              		.loc 2 1172 0
 1491 0028 0E90     		str	r0, [sp, #56]	@ float
 1492              	.LVL168:
1173:/home/tienluong/workspace/atlantis_fw/AsicFwS2/include/matrix.h ****         tmp[2] = mat[9] * mat[15];
 1493              		.loc 2 1173 0
 1494 002a 0498     		ldr	r0, [sp, #16]	@ float
 1495              	.LVL169:
 1496 002c A047     		blx	r4
 1497              	.LVL170:
1174:/home/tienluong/workspace/atlantis_fw/AsicFwS2/include/matrix.h ****         tmp[3] = mat[11] * mat[13];
 1498              		.loc 2 1174 0
 1499 002e 019B     		ldr	r3, [sp, #4]
 1500 0030 0399     		ldr	r1, [sp, #12]	@ float
 1501 0032 5B6A     		ldr	r3, [r3, #36]	@ float
 1502 0034 0693     		str	r3, [sp, #24]	@ float
1173:/home/tienluong/workspace/atlantis_fw/AsicFwS2/include/matrix.h ****         tmp[2] = mat[9] * mat[15];
 1503              		.loc 2 1173 0
 1504 0036 0F90     		str	r0, [sp, #60]	@ float
 1505              	.LVL171:
1174:/home/tienluong/workspace/atlantis_fw/AsicFwS2/include/matrix.h ****         tmp[3] = mat[11] * mat[13];
 1506              		.loc 2 1174 0
 1507 0038 1846     		mov	r0, r3
 1508              	.LVL172:
 1509 003a A047     		blx	r4
 1510              	.LVL173:
1175:/home/tienluong/workspace/atlantis_fw/AsicFwS2/include/matrix.h ****         tmp[4] = mat[9] * mat[14];
 1511              		.loc 2 1175 0
 1512 003c 019B     		ldr	r3, [sp, #4]
 1513 003e 5B6B     		ldr	r3, [r3, #52]	@ float
 1514 0040 1946     		mov	r1, r3
 1515 0042 0793     		str	r3, [sp, #28]	@ float
1174:/home/tienluong/workspace/atlantis_fw/AsicFwS2/include/matrix.h ****         tmp[3] = mat[11] * mat[13];
 1516              		.loc 2 1174 0
 1517 0044 1090     		str	r0, [sp, #64]	@ float
 1518              	.LVL174:
1175:/home/tienluong/workspace/atlantis_fw/AsicFwS2/include/matrix.h ****         tmp[4] = mat[9] * mat[14];
 1519              		.loc 2 1175 0
 1520 0046 0498     		ldr	r0, [sp, #16]	@ float
 1521              	.LVL175:
 1522 0048 A047     		blx	r4
 1523              	.LVL176:
1176:/home/tienluong/workspace/atlantis_fw/AsicFwS2/include/matrix.h ****         tmp[5] = mat[10] * mat[13];
 1524              		.loc 2 1176 0
 1525 004a 0599     		ldr	r1, [sp, #20]	@ float
1175:/home/tienluong/workspace/atlantis_fw/AsicFwS2/include/matrix.h ****         tmp[4] = mat[9] * mat[14];
 1526              		.loc 2 1175 0
 1527 004c 1190     		str	r0, [sp, #68]	@ float
 1528              	.LVL177:
1176:/home/tienluong/workspace/atlantis_fw/AsicFwS2/include/matrix.h ****         tmp[5] = mat[10] * mat[13];
 1529              		.loc 2 1176 0
 1530 004e 0698     		ldr	r0, [sp, #24]	@ float
 1531              	.LVL178:
 1532 0050 A047     		blx	r4
 1533              	.LVL179:
1177:/home/tienluong/workspace/atlantis_fw/AsicFwS2/include/matrix.h ****         tmp[6] = mat[8] * mat[15];
 1534              		.loc 2 1177 0
 1535 0052 0799     		ldr	r1, [sp, #28]	@ float
1176:/home/tienluong/workspace/atlantis_fw/AsicFwS2/include/matrix.h ****         tmp[5] = mat[10] * mat[13];
 1536              		.loc 2 1176 0
 1537 0054 1290     		str	r0, [sp, #72]	@ float
 1538              	.LVL180:
1177:/home/tienluong/workspace/atlantis_fw/AsicFwS2/include/matrix.h ****         tmp[6] = mat[8] * mat[15];
 1539              		.loc 2 1177 0
 1540 0056 0298     		ldr	r0, [sp, #8]	@ float
 1541              	.LVL181:
 1542 0058 A047     		blx	r4
 1543              	.LVL182:
1178:/home/tienluong/workspace/atlantis_fw/AsicFwS2/include/matrix.h ****         tmp[7] = mat[11] * mat[12];
 1544              		.loc 2 1178 0
 1545 005a 019B     		ldr	r3, [sp, #4]
 1546 005c 0399     		ldr	r1, [sp, #12]	@ float
 1547 005e 1B6A     		ldr	r3, [r3, #32]	@ float
 1548 0060 0893     		str	r3, [sp, #32]	@ float
1177:/home/tienluong/workspace/atlantis_fw/AsicFwS2/include/matrix.h ****         tmp[6] = mat[8] * mat[15];
 1549              		.loc 2 1177 0
 1550 0062 1390     		str	r0, [sp, #76]	@ float
 1551              	.LVL183:
1178:/home/tienluong/workspace/atlantis_fw/AsicFwS2/include/matrix.h ****         tmp[7] = mat[11] * mat[12];
 1552              		.loc 2 1178 0
 1553 0064 1846     		mov	r0, r3
 1554              	.LVL184:
 1555 0066 A047     		blx	r4
 1556              	.LVL185:
1179:/home/tienluong/workspace/atlantis_fw/AsicFwS2/include/matrix.h ****         tmp[8] = mat[8] * mat[14];
 1557              		.loc 2 1179 0
 1558 0068 019B     		ldr	r3, [sp, #4]
 1559 006a 1B6B     		ldr	r3, [r3, #48]	@ float
 1560 006c 1946     		mov	r1, r3
 1561 006e 0993     		str	r3, [sp, #36]	@ float
1178:/home/tienluong/workspace/atlantis_fw/AsicFwS2/include/matrix.h ****         tmp[7] = mat[11] * mat[12];
 1562              		.loc 2 1178 0
 1563 0070 1490     		str	r0, [sp, #80]	@ float
 1564              	.LVL186:
1179:/home/tienluong/workspace/atlantis_fw/AsicFwS2/include/matrix.h ****         tmp[8] = mat[8] * mat[14];
 1565              		.loc 2 1179 0
 1566 0072 0498     		ldr	r0, [sp, #16]	@ float
 1567              	.LVL187:
 1568 0074 A047     		blx	r4
 1569              	.LVL188:
1180:/home/tienluong/workspace/atlantis_fw/AsicFwS2/include/matrix.h ****         tmp[9] = mat[10] * mat[12];
 1570              		.loc 2 1180 0
 1571 0076 0599     		ldr	r1, [sp, #20]	@ float
1179:/home/tienluong/workspace/atlantis_fw/AsicFwS2/include/matrix.h ****         tmp[8] = mat[8] * mat[14];
 1572              		.loc 2 1179 0
 1573 0078 1590     		str	r0, [sp, #84]	@ float
 1574              	.LVL189:
1180:/home/tienluong/workspace/atlantis_fw/AsicFwS2/include/matrix.h ****         tmp[9] = mat[10] * mat[12];
 1575              		.loc 2 1180 0
 1576 007a 0898     		ldr	r0, [sp, #32]	@ float
 1577              	.LVL190:
 1578 007c A047     		blx	r4
 1579              	.LVL191:
1181:/home/tienluong/workspace/atlantis_fw/AsicFwS2/include/matrix.h ****         tmp[10] = mat[8] * mat[13];
 1580              		.loc 2 1181 0
 1581 007e 0999     		ldr	r1, [sp, #36]	@ float
1180:/home/tienluong/workspace/atlantis_fw/AsicFwS2/include/matrix.h ****         tmp[9] = mat[10] * mat[12];
 1582              		.loc 2 1180 0
 1583 0080 1690     		str	r0, [sp, #88]	@ float
1181:/home/tienluong/workspace/atlantis_fw/AsicFwS2/include/matrix.h ****         tmp[10] = mat[8] * mat[13];
 1584              		.loc 2 1181 0
 1585 0082 0298     		ldr	r0, [sp, #8]	@ float
 1586 0084 A047     		blx	r4
 1587              	.LVL192:
1182:/home/tienluong/workspace/atlantis_fw/AsicFwS2/include/matrix.h ****         tmp[11] = mat[9] * mat[12];
 1588              		.loc 2 1182 0
 1589 0086 0799     		ldr	r1, [sp, #28]	@ float
1181:/home/tienluong/workspace/atlantis_fw/AsicFwS2/include/matrix.h ****         tmp[10] = mat[8] * mat[13];
 1590              		.loc 2 1181 0
 1591 0088 1790     		str	r0, [sp, #92]	@ float
1182:/home/tienluong/workspace/atlantis_fw/AsicFwS2/include/matrix.h ****         tmp[11] = mat[9] * mat[12];
 1592              		.loc 2 1182 0
 1593 008a 0898     		ldr	r0, [sp, #32]	@ float
 1594 008c A047     		blx	r4
 1595              	.LVL193:
1183:/home/tienluong/workspace/atlantis_fw/AsicFwS2/include/matrix.h **** 
 1596              		.loc 2 1183 0
 1597 008e 0999     		ldr	r1, [sp, #36]	@ float
1182:/home/tienluong/workspace/atlantis_fw/AsicFwS2/include/matrix.h ****         tmp[11] = mat[9] * mat[12];
 1598              		.loc 2 1182 0
 1599 0090 1890     		str	r0, [sp, #96]	@ float
1183:/home/tienluong/workspace/atlantis_fw/AsicFwS2/include/matrix.h **** 
 1600              		.loc 2 1183 0
 1601 0092 0698     		ldr	r0, [sp, #24]	@ float
 1602 0094 A047     		blx	r4
 1603              	.LVL194:
1186:/home/tienluong/workspace/atlantis_fw/AsicFwS2/include/matrix.h ****         dst[0]  -= tmp[1] * mat[5] + tmp[2] * mat[6] + tmp[5]  * mat[7];
 1604              		.loc 2 1186 0
 1605 0096 019B     		ldr	r3, [sp, #4]
 1606 0098 5B69     		ldr	r3, [r3, #20]	@ float
 1607 009a 0A93     		str	r3, [sp, #40]	@ float
 1608 009c 019B     		ldr	r3, [sp, #4]
 1609 009e 0A99     		ldr	r1, [sp, #40]	@ float
 1610 00a0 9B69     		ldr	r3, [r3, #24]	@ float
 1611 00a2 0B93     		str	r3, [sp, #44]	@ float
 1612 00a4 019B     		ldr	r3, [sp, #4]
 1613 00a6 DB69     		ldr	r3, [r3, #28]	@ float
 1614 00a8 0C93     		str	r3, [sp, #48]	@ float
1183:/home/tienluong/workspace/atlantis_fw/AsicFwS2/include/matrix.h **** 
 1615              		.loc 2 1183 0
 1616 00aa 1990     		str	r0, [sp, #100]	@ float
1186:/home/tienluong/workspace/atlantis_fw/AsicFwS2/include/matrix.h ****         dst[0]  -= tmp[1] * mat[5] + tmp[2] * mat[6] + tmp[5]  * mat[7];
 1617              		.loc 2 1186 0
 1618 00ac 0E98     		ldr	r0, [sp, #56]	@ float
 1619 00ae A047     		blx	r4
 1620              	.LVL195:
 1621 00b0 0B99     		ldr	r1, [sp, #44]	@ float
 1622 00b2 0646     		mov	r6, r0
 1623 00b4 1198     		ldr	r0, [sp, #68]	@ float
 1624 00b6 A047     		blx	r4
 1625              	.LVL196:
 1626 00b8 0146     		mov	r1, r0
 1627 00ba 3046     		mov	r0, r6
 1628 00bc A847     		blx	r5
 1629              	.LVL197:
 1630 00be 0C99     		ldr	r1, [sp, #48]	@ float
 1631 00c0 0646     		mov	r6, r0
 1632 00c2 1298     		ldr	r0, [sp, #72]	@ float
 1633 00c4 A047     		blx	r4
 1634              	.LVL198:
 1635 00c6 0146     		mov	r1, r0
 1636 00c8 3046     		mov	r0, r6
 1637 00ca A847     		blx	r5
 1638              	.LVL199:
1187:/home/tienluong/workspace/atlantis_fw/AsicFwS2/include/matrix.h ****         dst[4]   = tmp[1] * mat[4] + tmp[6] * mat[6] + tmp[9]  * mat[7];
 1639              		.loc 2 1187 0
 1640 00cc 0A99     		ldr	r1, [sp, #40]	@ float
1186:/home/tienluong/workspace/atlantis_fw/AsicFwS2/include/matrix.h ****         dst[0]  -= tmp[1] * mat[5] + tmp[2] * mat[6] + tmp[5]  * mat[7];
 1641              		.loc 2 1186 0
 1642 00ce 0646     		mov	r6, r0
1187:/home/tienluong/workspace/atlantis_fw/AsicFwS2/include/matrix.h ****         dst[4]   = tmp[1] * mat[4] + tmp[6] * mat[6] + tmp[9]  * mat[7];
 1643              		.loc 2 1187 0
 1644 00d0 0F98     		ldr	r0, [sp, #60]	@ float
 1645 00d2 A047     		blx	r4
 1646              	.LVL200:
 1647 00d4 0746     		mov	r7, r0
 1648 00d6 1098     		ldr	r0, [sp, #64]	@ float
 1649 00d8 0B99     		ldr	r1, [sp, #44]	@ float
 1650 00da A047     		blx	r4
 1651              	.LVL201:
 1652 00dc 0146     		mov	r1, r0
 1653 00de 3846     		mov	r0, r7
 1654 00e0 A847     		blx	r5
 1655              	.LVL202:
 1656 00e2 0C99     		ldr	r1, [sp, #48]	@ float
 1657 00e4 0746     		mov	r7, r0
 1658 00e6 1398     		ldr	r0, [sp, #76]	@ float
 1659 00e8 A047     		blx	r4
 1660              	.LVL203:
 1661 00ea 0146     		mov	r1, r0
 1662 00ec 3846     		mov	r0, r7
 1663 00ee A847     		blx	r5
 1664              	.LVL204:
 1665 00f0 494B     		ldr	r3, .L74+8
 1666 00f2 0146     		mov	r1, r0
 1667 00f4 3046     		mov	r0, r6
 1668 00f6 9847     		blx	r3
 1669              	.LVL205:
1188:/home/tienluong/workspace/atlantis_fw/AsicFwS2/include/matrix.h ****         dst[4]  -= tmp[0] * mat[4] + tmp[7] * mat[6] + tmp[8]  * mat[7];
 1670              		.loc 2 1188 0
 1671 00f8 019B     		ldr	r3, [sp, #4]
 1672 00fa 1B69     		ldr	r3, [r3, #16]	@ float
 1673 00fc 1946     		mov	r1, r3
 1674 00fe 0D93     		str	r3, [sp, #52]	@ float
1187:/home/tienluong/workspace/atlantis_fw/AsicFwS2/include/matrix.h ****         dst[4]   = tmp[1] * mat[4] + tmp[6] * mat[6] + tmp[9]  * mat[7];
 1675              		.loc 2 1187 0
 1676 0100 1C90     		str	r0, [sp, #112]	@ float
 1677 0102 1A90     		str	r0, [sp, #104]
1188:/home/tienluong/workspace/atlantis_fw/AsicFwS2/include/matrix.h ****         dst[4]  -= tmp[0] * mat[4] + tmp[7] * mat[6] + tmp[8]  * mat[7];
 1678              		.loc 2 1188 0
 1679 0104 0F98     		ldr	r0, [sp, #60]	@ float
 1680 0106 A047     		blx	r4
 1681              	.LVL206:
 1682 0108 0B99     		ldr	r1, [sp, #44]	@ float
 1683 010a 0646     		mov	r6, r0
 1684 010c 1498     		ldr	r0, [sp, #80]	@ float
 1685 010e A047     		blx	r4
 1686              	.LVL207:
 1687 0110 0146     		mov	r1, r0
 1688 0112 3046     		mov	r0, r6
 1689 0114 A847     		blx	r5
 1690              	.LVL208:
 1691 0116 0C99     		ldr	r1, [sp, #48]	@ float
 1692 0118 0646     		mov	r6, r0
 1693 011a 1798     		ldr	r0, [sp, #92]	@ float
 1694 011c A047     		blx	r4
 1695              	.LVL209:
 1696 011e 0146     		mov	r1, r0
 1697 0120 3046     		mov	r0, r6
 1698 0122 A847     		blx	r5
 1699              	.LVL210:
1189:/home/tienluong/workspace/atlantis_fw/AsicFwS2/include/matrix.h ****         dst[8]   = tmp[2] * mat[4] + tmp[7] * mat[5] + tmp[10] * mat[7];
 1700              		.loc 2 1189 0
 1701 0124 0D99     		ldr	r1, [sp, #52]	@ float
1188:/home/tienluong/workspace/atlantis_fw/AsicFwS2/include/matrix.h ****         dst[4]  -= tmp[0] * mat[4] + tmp[7] * mat[6] + tmp[8]  * mat[7];
 1702              		.loc 2 1188 0
 1703 0126 0646     		mov	r6, r0
1189:/home/tienluong/workspace/atlantis_fw/AsicFwS2/include/matrix.h ****         dst[8]   = tmp[2] * mat[4] + tmp[7] * mat[5] + tmp[10] * mat[7];
 1704              		.loc 2 1189 0
 1705 0128 0E98     		ldr	r0, [sp, #56]	@ float
 1706 012a A047     		blx	r4
 1707              	.LVL211:
 1708 012c 0B99     		ldr	r1, [sp, #44]	@ float
 1709 012e 0746     		mov	r7, r0
 1710 0130 1598     		ldr	r0, [sp, #84]	@ float
 1711 0132 A047     		blx	r4
 1712              	.LVL212:
 1713 0134 0146     		mov	r1, r0
 1714 0136 3846     		mov	r0, r7
 1715 0138 A847     		blx	r5
 1716              	.LVL213:
 1717 013a 0C99     		ldr	r1, [sp, #48]	@ float
 1718 013c 0746     		mov	r7, r0
 1719 013e 1698     		ldr	r0, [sp, #88]	@ float
 1720 0140 A047     		blx	r4
 1721              	.LVL214:
 1722 0142 0146     		mov	r1, r0
 1723 0144 3846     		mov	r0, r7
 1724 0146 A847     		blx	r5
 1725              	.LVL215:
 1726 0148 334B     		ldr	r3, .L74+8
 1727 014a 0146     		mov	r1, r0
 1728 014c 3046     		mov	r0, r6
 1729 014e 9847     		blx	r3
 1730              	.LVL216:
 1731 0150 2090     		str	r0, [sp, #128]	@ float
1190:/home/tienluong/workspace/atlantis_fw/AsicFwS2/include/matrix.h ****         dst[8]  -= tmp[3] * mat[4] + tmp[6] * mat[5] + tmp[11] * mat[7];
 1732              		.loc 2 1190 0
 1733 0152 0D99     		ldr	r1, [sp, #52]	@ float
1189:/home/tienluong/workspace/atlantis_fw/AsicFwS2/include/matrix.h ****         dst[8]   = tmp[2] * mat[4] + tmp[7] * mat[5] + tmp[10] * mat[7];
 1734              		.loc 2 1189 0
 1735 0154 1B90     		str	r0, [sp, #108]
1190:/home/tienluong/workspace/atlantis_fw/AsicFwS2/include/matrix.h ****         dst[8]  -= tmp[3] * mat[4] + tmp[6] * mat[5] + tmp[11] * mat[7];
 1736              		.loc 2 1190 0
 1737 0156 1098     		ldr	r0, [sp, #64]	@ float
 1738 0158 A047     		blx	r4
 1739              	.LVL217:
 1740 015a 0A99     		ldr	r1, [sp, #40]	@ float
 1741 015c 0646     		mov	r6, r0
 1742 015e 1598     		ldr	r0, [sp, #84]	@ float
 1743 0160 A047     		blx	r4
 1744              	.LVL218:
 1745 0162 0146     		mov	r1, r0
 1746 0164 3046     		mov	r0, r6
 1747 0166 A847     		blx	r5
 1748              	.LVL219:
 1749 0168 0C99     		ldr	r1, [sp, #48]	@ float
 1750 016a 0646     		mov	r6, r0
 1751 016c 1898     		ldr	r0, [sp, #96]	@ float
 1752 016e A047     		blx	r4
 1753              	.LVL220:
 1754 0170 0146     		mov	r1, r0
 1755 0172 3046     		mov	r0, r6
 1756 0174 A847     		blx	r5
 1757              	.LVL221:
1191:/home/tienluong/workspace/atlantis_fw/AsicFwS2/include/matrix.h ****         dst[12]  = tmp[5] * mat[4] + tmp[8] * mat[5] + tmp[11] * mat[6];
 1758              		.loc 2 1191 0
 1759 0176 0D99     		ldr	r1, [sp, #52]	@ float
1190:/home/tienluong/workspace/atlantis_fw/AsicFwS2/include/matrix.h ****         dst[8]  -= tmp[3] * mat[4] + tmp[6] * mat[5] + tmp[11] * mat[7];
 1760              		.loc 2 1190 0
 1761 0178 0646     		mov	r6, r0
1191:/home/tienluong/workspace/atlantis_fw/AsicFwS2/include/matrix.h ****         dst[12]  = tmp[5] * mat[4] + tmp[8] * mat[5] + tmp[11] * mat[6];
 1762              		.loc 2 1191 0
 1763 017a 1198     		ldr	r0, [sp, #68]	@ float
 1764 017c A047     		blx	r4
 1765              	.LVL222:
 1766 017e 0A99     		ldr	r1, [sp, #40]	@ float
 1767 0180 0746     		mov	r7, r0
 1768 0182 1498     		ldr	r0, [sp, #80]	@ float
 1769 0184 A047     		blx	r4
 1770              	.LVL223:
 1771 0186 0146     		mov	r1, r0
 1772 0188 3846     		mov	r0, r7
 1773 018a A847     		blx	r5
 1774              	.LVL224:
 1775 018c 0C99     		ldr	r1, [sp, #48]	@ float
 1776 018e 0746     		mov	r7, r0
 1777 0190 1998     		ldr	r0, [sp, #100]	@ float
 1778 0192 A047     		blx	r4
 1779              	.LVL225:
 1780 0194 0146     		mov	r1, r0
 1781 0196 3846     		mov	r0, r7
 1782 0198 A847     		blx	r5
 1783              	.LVL226:
 1784 019a 1F4B     		ldr	r3, .L74+8
 1785 019c 0146     		mov	r1, r0
 1786 019e 3046     		mov	r0, r6
 1787 01a0 9847     		blx	r3
 1788              	.LVL227:
1192:/home/tienluong/workspace/atlantis_fw/AsicFwS2/include/matrix.h ****         dst[12] -= tmp[4] * mat[4] + tmp[9] * mat[5] + tmp[10] * mat[6];
 1789              		.loc 2 1192 0
 1790 01a2 0D99     		ldr	r1, [sp, #52]	@ float
1191:/home/tienluong/workspace/atlantis_fw/AsicFwS2/include/matrix.h ****         dst[12]  = tmp[5] * mat[4] + tmp[8] * mat[5] + tmp[11] * mat[6];
 1791              		.loc 2 1191 0
 1792 01a4 8346     		mov	fp, r0
 1793 01a6 2490     		str	r0, [sp, #144]	@ float
1192:/home/tienluong/workspace/atlantis_fw/AsicFwS2/include/matrix.h ****         dst[12] -= tmp[4] * mat[4] + tmp[9] * mat[5] + tmp[10] * mat[6];
 1794              		.loc 2 1192 0
 1795 01a8 1398     		ldr	r0, [sp, #76]	@ float
 1796 01aa A047     		blx	r4
 1797              	.LVL228:
 1798 01ac 0A99     		ldr	r1, [sp, #40]	@ float
 1799 01ae 0646     		mov	r6, r0
 1800 01b0 1698     		ldr	r0, [sp, #88]	@ float
 1801 01b2 A047     		blx	r4
 1802              	.LVL229:
 1803 01b4 0146     		mov	r1, r0
 1804 01b6 3046     		mov	r0, r6
 1805 01b8 A847     		blx	r5
 1806              	.LVL230:
 1807 01ba 0B99     		ldr	r1, [sp, #44]	@ float
 1808 01bc 0646     		mov	r6, r0
 1809 01be 1998     		ldr	r0, [sp, #100]	@ float
 1810 01c0 A047     		blx	r4
 1811              	.LVL231:
 1812 01c2 0146     		mov	r1, r0
 1813 01c4 3046     		mov	r0, r6
 1814 01c6 A847     		blx	r5
 1815              	.LVL232:
1193:/home/tienluong/workspace/atlantis_fw/AsicFwS2/include/matrix.h **** 
 1816              		.loc 2 1193 0
 1817 01c8 0D99     		ldr	r1, [sp, #52]	@ float
1192:/home/tienluong/workspace/atlantis_fw/AsicFwS2/include/matrix.h ****         dst[12] -= tmp[4] * mat[4] + tmp[9] * mat[5] + tmp[10] * mat[6];
 1818              		.loc 2 1192 0
 1819 01ca 0646     		mov	r6, r0
1193:/home/tienluong/workspace/atlantis_fw/AsicFwS2/include/matrix.h **** 
 1820              		.loc 2 1193 0
 1821 01cc 1298     		ldr	r0, [sp, #72]	@ float
 1822 01ce A047     		blx	r4
 1823              	.LVL233:
 1824 01d0 0A99     		ldr	r1, [sp, #40]	@ float
 1825 01d2 0746     		mov	r7, r0
 1826 01d4 1798     		ldr	r0, [sp, #92]	@ float
 1827 01d6 A047     		blx	r4
 1828              	.LVL234:
 1829 01d8 0146     		mov	r1, r0
 1830 01da 3846     		mov	r0, r7
 1831 01dc A847     		blx	r5
 1832              	.LVL235:
 1833 01de 0B99     		ldr	r1, [sp, #44]	@ float
 1834 01e0 0746     		mov	r7, r0
 1835 01e2 1898     		ldr	r0, [sp, #96]	@ float
 1836 01e4 A047     		blx	r4
 1837              	.LVL236:
 1838 01e6 0146     		mov	r1, r0
 1839 01e8 3846     		mov	r0, r7
 1840 01ea A847     		blx	r5
 1841              	.LVL237:
 1842 01ec 0A4B     		ldr	r3, .L74+8
 1843 01ee 0146     		mov	r1, r0
 1844 01f0 3046     		mov	r0, r6
 1845 01f2 9847     		blx	r3
 1846              	.LVL238:
1196:/home/tienluong/workspace/atlantis_fw/AsicFwS2/include/matrix.h **** 
 1847              		.loc 2 1196 0
 1848 01f4 019B     		ldr	r3, [sp, #4]
 1849 01f6 1A9A     		ldr	r2, [sp, #104]
 1850 01f8 1146     		mov	r1, r2
 1851 01fa 1F68     		ldr	r7, [r3]	@ float
 1852 01fc 5E68     		ldr	r6, [r3, #4]	@ float
 1853 01fe D3F80880 		ldr	r8, [r3, #8]	@ float
 1854 0202 D3F80C90 		ldr	r9, [r3, #12]	@ float
1193:/home/tienluong/workspace/atlantis_fw/AsicFwS2/include/matrix.h **** 
 1855              		.loc 2 1193 0
 1856 0206 8246     		mov	r10, r0
 1857              	.LVL239:
 1858 0208 2890     		str	r0, [sp, #160]	@ float
1196:/home/tienluong/workspace/atlantis_fw/AsicFwS2/include/matrix.h **** 
 1859              		.loc 2 1196 0
 1860 020a 3846     		mov	r0, r7
 1861 020c 06E0     		b	.L75
 1862              	.L76:
 1863 020e 00BF     		.align	2
 1864              	.L74:
 1865 0210 00000000 		.word	__aeabi_fmul
 1866 0214 00000000 		.word	__aeabi_fadd
 1867 0218 00000000 		.word	__aeabi_fsub
 1868              	.L75:
 1869              	.LVL240:
 1870 021c A047     		blx	r4
 1871              	.LVL241:
 1872 021e 1B9B     		ldr	r3, [sp, #108]
 1873 0220 1946     		mov	r1, r3
 1874 0222 1A90     		str	r0, [sp, #104]
 1875              	.LVL242:
 1876 0224 3046     		mov	r0, r6
 1877 0226 A047     		blx	r4
 1878              	.LVL243:
 1879 0228 1A9A     		ldr	r2, [sp, #104]
 1880 022a 0146     		mov	r1, r0
 1881 022c 1046     		mov	r0, r2
 1882 022e A847     		blx	r5
 1883              	.LVL244:
 1884 0230 5946     		mov	r1, fp
 1885 0232 1A90     		str	r0, [sp, #104]
 1886 0234 4046     		mov	r0, r8
 1887 0236 A047     		blx	r4
 1888              	.LVL245:
 1889 0238 1A9B     		ldr	r3, [sp, #104]
 1890 023a 0146     		mov	r1, r0
 1891 023c 1846     		mov	r0, r3
 1892 023e A847     		blx	r5
 1893              	.LVL246:
 1894 0240 5146     		mov	r1, r10
 1895 0242 8346     		mov	fp, r0
 1896 0244 4846     		mov	r0, r9
 1897 0246 A047     		blx	r4
 1898              	.LVL247:
 1899 0248 0146     		mov	r1, r0
 1900 024a 5846     		mov	r0, fp
 1901 024c A847     		blx	r5
 1902              	.LVL248:
1198:/home/tienluong/workspace/atlantis_fw/AsicFwS2/include/matrix.h **** 
 1903              		.loc 2 1198 0
 1904 024e 804B     		ldr	r3, .L77
1196:/home/tienluong/workspace/atlantis_fw/AsicFwS2/include/matrix.h **** 
 1905              		.loc 2 1196 0
 1906 0250 0146     		mov	r1, r0
1198:/home/tienluong/workspace/atlantis_fw/AsicFwS2/include/matrix.h **** 
 1907              		.loc 2 1198 0
 1908 0252 4FF07E50 		mov	r0, #1065353216
 1909 0256 9847     		blx	r3
 1910              	.LVL249:
1200:/home/tienluong/workspace/atlantis_fw/AsicFwS2/include/matrix.h ****         dst[1]  -= tmp[0] * mat[1] + tmp[3] * mat[2] + tmp[4]  * mat[3];
 1911              		.loc 2 1200 0
 1912 0258 3146     		mov	r1, r6
1198:/home/tienluong/workspace/atlantis_fw/AsicFwS2/include/matrix.h **** 
 1913              		.loc 2 1198 0
 1914 025a 1A90     		str	r0, [sp, #104]	@ float
 1915              	.LVL250:
1200:/home/tienluong/workspace/atlantis_fw/AsicFwS2/include/matrix.h ****         dst[1]  -= tmp[0] * mat[1] + tmp[3] * mat[2] + tmp[4]  * mat[3];
 1916              		.loc 2 1200 0
 1917 025c 0F98     		ldr	r0, [sp, #60]	@ float
 1918              	.LVL251:
 1919 025e A047     		blx	r4
 1920              	.LVL252:
 1921 0260 4146     		mov	r1, r8
 1922 0262 8246     		mov	r10, r0
 1923 0264 1098     		ldr	r0, [sp, #64]	@ float
 1924 0266 A047     		blx	r4
 1925              	.LVL253:
 1926 0268 0146     		mov	r1, r0
 1927 026a 5046     		mov	r0, r10
 1928 026c A847     		blx	r5
 1929              	.LVL254:
 1930 026e 4946     		mov	r1, r9
 1931 0270 8246     		mov	r10, r0
 1932 0272 1398     		ldr	r0, [sp, #76]	@ float
 1933 0274 A047     		blx	r4
 1934              	.LVL255:
 1935 0276 0146     		mov	r1, r0
 1936 0278 5046     		mov	r0, r10
 1937 027a A847     		blx	r5
 1938              	.LVL256:
1201:/home/tienluong/workspace/atlantis_fw/AsicFwS2/include/matrix.h ****         dst[5]   = tmp[0] * mat[0] + tmp[7] * mat[2] + tmp[8]  * mat[3];
 1939              		.loc 2 1201 0
 1940 027c 3146     		mov	r1, r6
1200:/home/tienluong/workspace/atlantis_fw/AsicFwS2/include/matrix.h ****         dst[1]  -= tmp[0] * mat[1] + tmp[3] * mat[2] + tmp[4]  * mat[3];
 1941              		.loc 2 1200 0
 1942 027e 8246     		mov	r10, r0
1201:/home/tienluong/workspace/atlantis_fw/AsicFwS2/include/matrix.h ****         dst[5]   = tmp[0] * mat[0] + tmp[7] * mat[2] + tmp[8]  * mat[3];
 1943              		.loc 2 1201 0
 1944 0280 0E98     		ldr	r0, [sp, #56]	@ float
 1945 0282 A047     		blx	r4
 1946              	.LVL257:
 1947 0284 4146     		mov	r1, r8
 1948 0286 8346     		mov	fp, r0
 1949 0288 1198     		ldr	r0, [sp, #68]	@ float
 1950 028a A047     		blx	r4
 1951              	.LVL258:
 1952 028c 0146     		mov	r1, r0
 1953 028e 5846     		mov	r0, fp
 1954 0290 A847     		blx	r5
 1955              	.LVL259:
 1956 0292 4946     		mov	r1, r9
 1957 0294 8346     		mov	fp, r0
 1958 0296 1298     		ldr	r0, [sp, #72]	@ float
 1959 0298 A047     		blx	r4
 1960              	.LVL260:
 1961 029a 0146     		mov	r1, r0
 1962 029c 5846     		mov	r0, fp
 1963 029e A847     		blx	r5
 1964              	.LVL261:
 1965 02a0 6C4B     		ldr	r3, .L77+4
 1966 02a2 0146     		mov	r1, r0
 1967 02a4 5046     		mov	r0, r10
 1968 02a6 9847     		blx	r3
 1969              	.LVL262:
1202:/home/tienluong/workspace/atlantis_fw/AsicFwS2/include/matrix.h ****         dst[5]  -= tmp[1] * mat[0] + tmp[6] * mat[2] + tmp[9]  * mat[3];
 1970              		.loc 2 1202 0
 1971 02a8 3946     		mov	r1, r7
1201:/home/tienluong/workspace/atlantis_fw/AsicFwS2/include/matrix.h ****         dst[5]   = tmp[0] * mat[0] + tmp[7] * mat[2] + tmp[8]  * mat[3];
 1972              		.loc 2 1201 0
 1973 02aa 1D90     		str	r0, [sp, #116]	@ float
1202:/home/tienluong/workspace/atlantis_fw/AsicFwS2/include/matrix.h ****         dst[5]  -= tmp[1] * mat[0] + tmp[6] * mat[2] + tmp[9]  * mat[3];
 1974              		.loc 2 1202 0
 1975 02ac 0E98     		ldr	r0, [sp, #56]	@ float
 1976 02ae A047     		blx	r4
 1977              	.LVL263:
 1978 02b0 4146     		mov	r1, r8
 1979 02b2 8246     		mov	r10, r0
 1980 02b4 1598     		ldr	r0, [sp, #84]	@ float
 1981 02b6 A047     		blx	r4
 1982              	.LVL264:
 1983 02b8 0146     		mov	r1, r0
 1984 02ba 5046     		mov	r0, r10
 1985 02bc A847     		blx	r5
 1986              	.LVL265:
 1987 02be 4946     		mov	r1, r9
 1988 02c0 8246     		mov	r10, r0
 1989 02c2 1698     		ldr	r0, [sp, #88]	@ float
 1990 02c4 A047     		blx	r4
 1991              	.LVL266:
 1992 02c6 0146     		mov	r1, r0
 1993 02c8 5046     		mov	r0, r10
 1994 02ca A847     		blx	r5
 1995              	.LVL267:
1203:/home/tienluong/workspace/atlantis_fw/AsicFwS2/include/matrix.h ****         dst[9]   = tmp[3] * mat[0] + tmp[6] * mat[1] + tmp[11] * mat[3];
 1996              		.loc 2 1203 0
 1997 02cc 3946     		mov	r1, r7
1202:/home/tienluong/workspace/atlantis_fw/AsicFwS2/include/matrix.h ****         dst[5]  -= tmp[1] * mat[0] + tmp[6] * mat[2] + tmp[9]  * mat[3];
 1998              		.loc 2 1202 0
 1999 02ce 8246     		mov	r10, r0
1203:/home/tienluong/workspace/atlantis_fw/AsicFwS2/include/matrix.h ****         dst[9]   = tmp[3] * mat[0] + tmp[6] * mat[1] + tmp[11] * mat[3];
 2000              		.loc 2 1203 0
 2001 02d0 0F98     		ldr	r0, [sp, #60]	@ float
 2002 02d2 A047     		blx	r4
 2003              	.LVL268:
 2004 02d4 4146     		mov	r1, r8
 2005 02d6 8346     		mov	fp, r0
 2006 02d8 1498     		ldr	r0, [sp, #80]	@ float
 2007 02da A047     		blx	r4
 2008              	.LVL269:
 2009 02dc 0146     		mov	r1, r0
 2010 02de 5846     		mov	r0, fp
 2011 02e0 A847     		blx	r5
 2012              	.LVL270:
 2013 02e2 4946     		mov	r1, r9
 2014 02e4 8346     		mov	fp, r0
 2015 02e6 1798     		ldr	r0, [sp, #92]	@ float
 2016 02e8 A047     		blx	r4
 2017              	.LVL271:
 2018 02ea 0146     		mov	r1, r0
 2019 02ec 5846     		mov	r0, fp
 2020 02ee A847     		blx	r5
 2021              	.LVL272:
 2022 02f0 584B     		ldr	r3, .L77+4
 2023 02f2 0146     		mov	r1, r0
 2024 02f4 5046     		mov	r0, r10
 2025 02f6 9847     		blx	r3
 2026              	.LVL273:
1204:/home/tienluong/workspace/atlantis_fw/AsicFwS2/include/matrix.h ****         dst[9]  -= tmp[2] * mat[0] + tmp[7] * mat[1] + tmp[10] * mat[3];
 2027              		.loc 2 1204 0
 2028 02f8 3946     		mov	r1, r7
1203:/home/tienluong/workspace/atlantis_fw/AsicFwS2/include/matrix.h ****         dst[9]   = tmp[3] * mat[0] + tmp[6] * mat[1] + tmp[11] * mat[3];
 2029              		.loc 2 1203 0
 2030 02fa 2190     		str	r0, [sp, #132]	@ float
1204:/home/tienluong/workspace/atlantis_fw/AsicFwS2/include/matrix.h ****         dst[9]  -= tmp[2] * mat[0] + tmp[7] * mat[1] + tmp[10] * mat[3];
 2031              		.loc 2 1204 0
 2032 02fc 1198     		ldr	r0, [sp, #68]	@ float
 2033 02fe A047     		blx	r4
 2034              	.LVL274:
 2035 0300 3146     		mov	r1, r6
 2036 0302 8246     		mov	r10, r0
 2037 0304 1498     		ldr	r0, [sp, #80]	@ float
 2038 0306 A047     		blx	r4
 2039              	.LVL275:
 2040 0308 0146     		mov	r1, r0
 2041 030a 5046     		mov	r0, r10
 2042 030c A847     		blx	r5
 2043              	.LVL276:
 2044 030e 4946     		mov	r1, r9
 2045 0310 8246     		mov	r10, r0
 2046 0312 1998     		ldr	r0, [sp, #100]	@ float
 2047 0314 A047     		blx	r4
 2048              	.LVL277:
 2049 0316 0146     		mov	r1, r0
 2050 0318 5046     		mov	r0, r10
 2051 031a A847     		blx	r5
 2052              	.LVL278:
1205:/home/tienluong/workspace/atlantis_fw/AsicFwS2/include/matrix.h ****         dst[13]  = tmp[4] * mat[0] + tmp[9] * mat[1] + tmp[10] * mat[2];
 2053              		.loc 2 1205 0
 2054 031c 3946     		mov	r1, r7
1204:/home/tienluong/workspace/atlantis_fw/AsicFwS2/include/matrix.h ****         dst[9]  -= tmp[2] * mat[0] + tmp[7] * mat[1] + tmp[10] * mat[3];
 2055              		.loc 2 1204 0
 2056 031e 8246     		mov	r10, r0
1205:/home/tienluong/workspace/atlantis_fw/AsicFwS2/include/matrix.h ****         dst[13]  = tmp[4] * mat[0] + tmp[9] * mat[1] + tmp[10] * mat[2];
 2057              		.loc 2 1205 0
 2058 0320 1098     		ldr	r0, [sp, #64]	@ float
 2059 0322 A047     		blx	r4
 2060              	.LVL279:
 2061 0324 3146     		mov	r1, r6
 2062 0326 8346     		mov	fp, r0
 2063 0328 1598     		ldr	r0, [sp, #84]	@ float
 2064 032a A047     		blx	r4
 2065              	.LVL280:
 2066 032c 0146     		mov	r1, r0
 2067 032e 5846     		mov	r0, fp
 2068 0330 A847     		blx	r5
 2069              	.LVL281:
 2070 0332 4946     		mov	r1, r9
 2071 0334 8346     		mov	fp, r0
 2072 0336 1898     		ldr	r0, [sp, #96]	@ float
 2073 0338 A047     		blx	r4
 2074              	.LVL282:
 2075 033a 0146     		mov	r1, r0
 2076 033c 5846     		mov	r0, fp
 2077 033e A847     		blx	r5
 2078              	.LVL283:
 2079 0340 444B     		ldr	r3, .L77+4
 2080 0342 0146     		mov	r1, r0
 2081 0344 5046     		mov	r0, r10
 2082 0346 9847     		blx	r3
 2083              	.LVL284:
1206:/home/tienluong/workspace/atlantis_fw/AsicFwS2/include/matrix.h ****         dst[13] -= tmp[5] * mat[0] + tmp[8] * mat[1] + tmp[11] * mat[2];
 2084              		.loc 2 1206 0
 2085 0348 3946     		mov	r1, r7
1205:/home/tienluong/workspace/atlantis_fw/AsicFwS2/include/matrix.h ****         dst[13]  = tmp[4] * mat[0] + tmp[9] * mat[1] + tmp[10] * mat[2];
 2086              		.loc 2 1205 0
 2087 034a 2590     		str	r0, [sp, #148]	@ float
1206:/home/tienluong/workspace/atlantis_fw/AsicFwS2/include/matrix.h ****         dst[13] -= tmp[5] * mat[0] + tmp[8] * mat[1] + tmp[11] * mat[2];
 2088              		.loc 2 1206 0
 2089 034c 1298     		ldr	r0, [sp, #72]	@ float
 2090 034e A047     		blx	r4
 2091              	.LVL285:
 2092 0350 3146     		mov	r1, r6
 2093 0352 8246     		mov	r10, r0
 2094 0354 1798     		ldr	r0, [sp, #92]	@ float
 2095 0356 A047     		blx	r4
 2096              	.LVL286:
 2097 0358 0146     		mov	r1, r0
 2098 035a 5046     		mov	r0, r10
 2099 035c A847     		blx	r5
 2100              	.LVL287:
 2101 035e 4146     		mov	r1, r8
 2102 0360 8246     		mov	r10, r0
 2103 0362 1898     		ldr	r0, [sp, #96]	@ float
 2104 0364 A047     		blx	r4
 2105              	.LVL288:
 2106 0366 0146     		mov	r1, r0
 2107 0368 5046     		mov	r0, r10
 2108 036a A847     		blx	r5
 2109              	.LVL289:
1207:/home/tienluong/workspace/atlantis_fw/AsicFwS2/include/matrix.h **** 
 2110              		.loc 2 1207 0
 2111 036c 3946     		mov	r1, r7
1206:/home/tienluong/workspace/atlantis_fw/AsicFwS2/include/matrix.h ****         dst[13] -= tmp[5] * mat[0] + tmp[8] * mat[1] + tmp[11] * mat[2];
 2112              		.loc 2 1206 0
 2113 036e 8246     		mov	r10, r0
1207:/home/tienluong/workspace/atlantis_fw/AsicFwS2/include/matrix.h **** 
 2114              		.loc 2 1207 0
 2115 0370 1398     		ldr	r0, [sp, #76]	@ float
 2116 0372 A047     		blx	r4
 2117              	.LVL290:
 2118 0374 3146     		mov	r1, r6
 2119 0376 8346     		mov	fp, r0
 2120 0378 1698     		ldr	r0, [sp, #88]	@ float
 2121 037a A047     		blx	r4
 2122              	.LVL291:
 2123 037c 0146     		mov	r1, r0
 2124 037e 5846     		mov	r0, fp
 2125 0380 A847     		blx	r5
 2126              	.LVL292:
 2127 0382 4146     		mov	r1, r8
 2128 0384 8346     		mov	fp, r0
 2129 0386 1998     		ldr	r0, [sp, #100]	@ float
 2130 0388 A047     		blx	r4
 2131              	.LVL293:
 2132 038a 0146     		mov	r1, r0
 2133 038c 5846     		mov	r0, fp
 2134 038e A847     		blx	r5
 2135              	.LVL294:
 2136 0390 304B     		ldr	r3, .L77+4
 2137 0392 0146     		mov	r1, r0
 2138 0394 5046     		mov	r0, r10
 2139 0396 9847     		blx	r3
 2140              	.LVL295:
 2141 0398 2990     		str	r0, [sp, #164]	@ float
1210:/home/tienluong/workspace/atlantis_fw/AsicFwS2/include/matrix.h ****         tmp[1] = mat[3] * mat[6];
 2142              		.loc 2 1210 0
 2143 039a 4046     		mov	r0, r8
 2144 039c 0C99     		ldr	r1, [sp, #48]	@ float
 2145 039e A047     		blx	r4
 2146              	.LVL296:
1211:/home/tienluong/workspace/atlantis_fw/AsicFwS2/include/matrix.h ****         tmp[2] = mat[1] * mat[7];
 2147              		.loc 2 1211 0
 2148 03a0 0B99     		ldr	r1, [sp, #44]	@ float
1210:/home/tienluong/workspace/atlantis_fw/AsicFwS2/include/matrix.h ****         tmp[1] = mat[3] * mat[6];
 2149              		.loc 2 1210 0
 2150 03a2 8346     		mov	fp, r0
 2151              	.LVL297:
1211:/home/tienluong/workspace/atlantis_fw/AsicFwS2/include/matrix.h ****         tmp[2] = mat[1] * mat[7];
 2152              		.loc 2 1211 0
 2153 03a4 4846     		mov	r0, r9
 2154              	.LVL298:
 2155 03a6 A047     		blx	r4
 2156              	.LVL299:
1212:/home/tienluong/workspace/atlantis_fw/AsicFwS2/include/matrix.h ****         tmp[3] = mat[3] * mat[5];
 2157              		.loc 2 1212 0
 2158 03a8 0C99     		ldr	r1, [sp, #48]	@ float
1211:/home/tienluong/workspace/atlantis_fw/AsicFwS2/include/matrix.h ****         tmp[2] = mat[1] * mat[7];
 2159              		.loc 2 1211 0
 2160 03aa 8246     		mov	r10, r0
 2161              	.LVL300:
1212:/home/tienluong/workspace/atlantis_fw/AsicFwS2/include/matrix.h ****         tmp[3] = mat[3] * mat[5];
 2162              		.loc 2 1212 0
 2163 03ac 3046     		mov	r0, r6
 2164              	.LVL301:
 2165 03ae A047     		blx	r4
 2166              	.LVL302:
1213:/home/tienluong/workspace/atlantis_fw/AsicFwS2/include/matrix.h ****         tmp[4] = mat[1] * mat[6];
 2167              		.loc 2 1213 0
 2168 03b0 0A99     		ldr	r1, [sp, #40]	@ float
1212:/home/tienluong/workspace/atlantis_fw/AsicFwS2/include/matrix.h ****         tmp[3] = mat[3] * mat[5];
 2169              		.loc 2 1212 0
 2170 03b2 0E90     		str	r0, [sp, #56]	@ float
 2171              	.LVL303:
1213:/home/tienluong/workspace/atlantis_fw/AsicFwS2/include/matrix.h ****         tmp[4] = mat[1] * mat[6];
 2172              		.loc 2 1213 0
 2173 03b4 4846     		mov	r0, r9
 2174              	.LVL304:
 2175 03b6 A047     		blx	r4
 2176              	.LVL305:
1214:/home/tienluong/workspace/atlantis_fw/AsicFwS2/include/matrix.h ****         tmp[5] = mat[2] * mat[5];
 2177              		.loc 2 1214 0
 2178 03b8 0B99     		ldr	r1, [sp, #44]	@ float
1213:/home/tienluong/workspace/atlantis_fw/AsicFwS2/include/matrix.h ****         tmp[4] = mat[1] * mat[6];
 2179              		.loc 2 1213 0
 2180 03ba 0F90     		str	r0, [sp, #60]	@ float
 2181              	.LVL306:
1214:/home/tienluong/workspace/atlantis_fw/AsicFwS2/include/matrix.h ****         tmp[5] = mat[2] * mat[5];
 2182              		.loc 2 1214 0
 2183 03bc 3046     		mov	r0, r6
 2184              	.LVL307:
 2185 03be A047     		blx	r4
 2186              	.LVL308:
1215:/home/tienluong/workspace/atlantis_fw/AsicFwS2/include/matrix.h ****         tmp[6] = mat[0] * mat[7];
 2187              		.loc 2 1215 0
 2188 03c0 0A99     		ldr	r1, [sp, #40]	@ float
1214:/home/tienluong/workspace/atlantis_fw/AsicFwS2/include/matrix.h ****         tmp[5] = mat[2] * mat[5];
 2189              		.loc 2 1214 0
 2190 03c2 1090     		str	r0, [sp, #64]	@ float
 2191              	.LVL309:
1215:/home/tienluong/workspace/atlantis_fw/AsicFwS2/include/matrix.h ****         tmp[6] = mat[0] * mat[7];
 2192              		.loc 2 1215 0
 2193 03c4 4046     		mov	r0, r8
 2194              	.LVL310:
 2195 03c6 A047     		blx	r4
 2196              	.LVL311:
1216:/home/tienluong/workspace/atlantis_fw/AsicFwS2/include/matrix.h ****         tmp[7] = mat[3] * mat[4];
 2197              		.loc 2 1216 0
 2198 03c8 0C99     		ldr	r1, [sp, #48]	@ float
1215:/home/tienluong/workspace/atlantis_fw/AsicFwS2/include/matrix.h ****         tmp[6] = mat[0] * mat[7];
 2199              		.loc 2 1215 0
 2200 03ca 1190     		str	r0, [sp, #68]	@ float
 2201              	.LVL312:
1216:/home/tienluong/workspace/atlantis_fw/AsicFwS2/include/matrix.h ****         tmp[7] = mat[3] * mat[4];
 2202              		.loc 2 1216 0
 2203 03cc 3846     		mov	r0, r7
 2204              	.LVL313:
 2205 03ce A047     		blx	r4
 2206              	.LVL314:
1217:/home/tienluong/workspace/atlantis_fw/AsicFwS2/include/matrix.h ****         tmp[8] = mat[0] * mat[6];
 2207              		.loc 2 1217 0
 2208 03d0 0D99     		ldr	r1, [sp, #52]	@ float
1216:/home/tienluong/workspace/atlantis_fw/AsicFwS2/include/matrix.h ****         tmp[7] = mat[3] * mat[4];
 2209              		.loc 2 1216 0
 2210 03d2 0C90     		str	r0, [sp, #48]	@ float
 2211              	.LVL315:
1217:/home/tienluong/workspace/atlantis_fw/AsicFwS2/include/matrix.h ****         tmp[8] = mat[0] * mat[6];
 2212              		.loc 2 1217 0
 2213 03d4 4846     		mov	r0, r9
 2214              	.LVL316:
 2215 03d6 A047     		blx	r4
 2216              	.LVL317:
1218:/home/tienluong/workspace/atlantis_fw/AsicFwS2/include/matrix.h ****         tmp[9] = mat[2] * mat[4];
