   1              		.syntax unified
   2              		.cpu cortex-r4
   3              		.fpu softvfp
   4              		.eabi_attribute 20, 1
   5              		.eabi_attribute 21, 1
   6              		.eabi_attribute 23, 3
   7              		.eabi_attribute 24, 1
   8              		.eabi_attribute 25, 1
   9              		.eabi_attribute 26, 1
  10              		.eabi_attribute 30, 4
  11              		.eabi_attribute 34, 1
  12              		.eabi_attribute 18, 4
  13              		.thumb
  14              		.file	"tof.c"
  15              		.text
  16              	.Ltext0:
  17              		.cfi_sections	.debug_frame
  18              		.section	.text.lm3644_write,"ax",%progbits
  19              		.align	1
  20              		.thumb
  21              		.thumb_func
  23              	lm3644_write:
  24              	.LFB2:
  25              		.file 1 "/home/tienluong/workspace/atlantis_fw/platform/driver/src/tof.c"
   1:/home/tienluong/workspace/atlantis_fw/platform/driver/src/tof.c **** /*******************************************************************************
   2:/home/tienluong/workspace/atlantis_fw/platform/driver/src/tof.c ****  * Copyright (c) 2016, The LightCo
   3:/home/tienluong/workspace/atlantis_fw/platform/driver/src/tof.c ****  * All rights reserved.
   4:/home/tienluong/workspace/atlantis_fw/platform/driver/src/tof.c ****  * Redistribution and use in source and binary forms, with or without
   5:/home/tienluong/workspace/atlantis_fw/platform/driver/src/tof.c ****  * modification, are strictly prohibited without prior permission of
   6:/home/tienluong/workspace/atlantis_fw/platform/driver/src/tof.c ****  * The LightCo.
   7:/home/tienluong/workspace/atlantis_fw/platform/driver/src/tof.c ****  *
   8:/home/tienluong/workspace/atlantis_fw/platform/driver/src/tof.c ****  * @file	lm3644.c
   9:/home/tienluong/workspace/atlantis_fw/platform/driver/src/tof.c ****  * @author	The LightCo
  10:/home/tienluong/workspace/atlantis_fw/platform/driver/src/tof.c ****  * @version	V1.0.0
  11:/home/tienluong/workspace/atlantis_fw/platform/driver/src/tof.c ****  * @date	Jun-1-2016
  12:/home/tienluong/workspace/atlantis_fw/platform/driver/src/tof.c ****  * @brief	This file contains expand for LM3644 flash LED driver
  13:/home/tienluong/workspace/atlantis_fw/platform/driver/src/tof.c ****  *
  14:/home/tienluong/workspace/atlantis_fw/platform/driver/src/tof.c ****  ******************************************************************************/
  15:/home/tienluong/workspace/atlantis_fw/platform/driver/src/tof.c **** /* Includes ------------------------------------------------------------------*/
  16:/home/tienluong/workspace/atlantis_fw/platform/driver/src/tof.c **** #include "std_type.h"
  17:/home/tienluong/workspace/atlantis_fw/platform/driver/src/tof.c **** #include "lcc_system.h"
  18:/home/tienluong/workspace/atlantis_fw/platform/driver/src/tof.c **** #include "os.h"
  19:/home/tienluong/workspace/atlantis_fw/platform/driver/src/tof.c **** #include "log.h"
  20:/home/tienluong/workspace/atlantis_fw/platform/driver/src/tof.c **** #include "i2cm.h"
  21:/home/tienluong/workspace/atlantis_fw/platform/driver/src/tof.c **** #include "tof.h"
  22:/home/tienluong/workspace/atlantis_fw/platform/driver/src/tof.c **** #include "flash.h"
  23:/home/tienluong/workspace/atlantis_fw/platform/driver/src/tof.c **** 
  24:/home/tienluong/workspace/atlantis_fw/platform/driver/src/tof.c **** #ifdef USING_TOF_FUNC
  25:/home/tienluong/workspace/atlantis_fw/platform/driver/src/tof.c **** #ifdef USE_MULTI_VERSION
  26:/home/tienluong/workspace/atlantis_fw/platform/driver/src/tof.c **** static VL53L0X_Error VL53L010_check_part_used(VL53L0X_DEV Dev,
  27:/home/tienluong/workspace/atlantis_fw/platform/driver/src/tof.c **** 	uint8_t *Revision, VL53L0X_DeviceInfo_t *pVL53L0X_DeviceInfo);
  28:/home/tienluong/workspace/atlantis_fw/platform/driver/src/tof.c **** static VL53L0X_Error VL53L010_get_info_from_device(VL53L0X_DEV Dev);
  29:/home/tienluong/workspace/atlantis_fw/platform/driver/src/tof.c **** static VL53L0X_Error VL53L010_load_additional_settings1(VL53L0X_DEV Dev);
  30:/home/tienluong/workspace/atlantis_fw/platform/driver/src/tof.c **** static VL53L0X_Error VL53L010_load_additional_settings3(VL53L0X_DEV Dev);
  31:/home/tienluong/workspace/atlantis_fw/platform/driver/src/tof.c **** static VL53L0X_Error VL53L010_get_vcsel_pulse_period(VL53L0X_DEV Dev, uint8_t
  32:/home/tienluong/workspace/atlantis_fw/platform/driver/src/tof.c **** 	*pVCSELPulsePeriod, uint8_t RangeIndex);
  33:/home/tienluong/workspace/atlantis_fw/platform/driver/src/tof.c **** static uint16_t VL53L010_calc_encoded_timeout(VL53L0X_DEV Dev, uint32_t
  34:/home/tienluong/workspace/atlantis_fw/platform/driver/src/tof.c **** 	timeout_period_us, uint8_t vcsel_period);
  35:/home/tienluong/workspace/atlantis_fw/platform/driver/src/tof.c **** static uint8_t VL53L010_encode_vcsel_period(uint8_t vcsel_period_pclks);
  36:/home/tienluong/workspace/atlantis_fw/platform/driver/src/tof.c **** static uint32_t VL53L010_calc_ranging_wait_us(VL53L0X_DEV Dev, uint16_t
  37:/home/tienluong/workspace/atlantis_fw/platform/driver/src/tof.c **** 	timeout_overall_periods, uint8_t vcsel_period);
  38:/home/tienluong/workspace/atlantis_fw/platform/driver/src/tof.c **** static uint8_t VL53L010_decode_vcsel_period(uint8_t vcsel_period_reg);
  39:/home/tienluong/workspace/atlantis_fw/platform/driver/src/tof.c **** static uint32_t VL53L010_calc_macro_period_ps(VL53L0X_DEV Dev,
  40:/home/tienluong/workspace/atlantis_fw/platform/driver/src/tof.c **** 		uint8_t vcsel_period);
  41:/home/tienluong/workspace/atlantis_fw/platform/driver/src/tof.c **** static uint16_t VL53L010_encode_timeout(uint32_t timeout_mclks);
  42:/home/tienluong/workspace/atlantis_fw/platform/driver/src/tof.c **** static uint32_t VL53L010_decode_timeout(uint16_t encoded_timeout);
  43:/home/tienluong/workspace/atlantis_fw/platform/driver/src/tof.c **** #endif /* USE_MULTI_VERSION */
  44:/home/tienluong/workspace/atlantis_fw/platform/driver/src/tof.c **** #endif /* USING_TOF_FUNC */
  45:/home/tienluong/workspace/atlantis_fw/platform/driver/src/tof.c **** 
  46:/home/tienluong/workspace/atlantis_fw/platform/driver/src/tof.c **** /* Privated define------------------------------------------------------------*/
  47:/home/tienluong/workspace/atlantis_fw/platform/driver/src/tof.c **** #define SLOGF_ID						SLOG_ID_TOF
  48:/home/tienluong/workspace/atlantis_fw/platform/driver/src/tof.c **** #define FLASH_LIGHT_TIMEOUT				50		/* ms */
  49:/home/tienluong/workspace/atlantis_fw/platform/driver/src/tof.c **** 
  50:/home/tienluong/workspace/atlantis_fw/platform/driver/src/tof.c **** /* LM3644 mask/enable, offset 0x01 */
  51:/home/tienluong/workspace/atlantis_fw/platform/driver/src/tof.c **** #define LM3644_SHL_EN_LED1			(10)		/* LED1 Enable */
  52:/home/tienluong/workspace/atlantis_fw/platform/driver/src/tof.c **** #define LM3644_MSK_EN_LED1			(1 << 0)	/* LED1 Enable */
  53:/home/tienluong/workspace/atlantis_fw/platform/driver/src/tof.c **** #define LM3644_SHL_EN_LED2			(1)			/* LED2 Enable */
  54:/home/tienluong/workspace/atlantis_fw/platform/driver/src/tof.c **** #define LM3644_MSK_EN_LED2			(1 << 1)	/* LED2 Enable */
  55:/home/tienluong/workspace/atlantis_fw/platform/driver/src/tof.c **** #define LM3644_SHL_EN_MODE			(2)			/* Mode Flag */
  56:/home/tienluong/workspace/atlantis_fw/platform/driver/src/tof.c **** #define LM3644_MSK_EN_MODE			(3 << 2)	/* Mode Flag */
  57:/home/tienluong/workspace/atlantis_fw/platform/driver/src/tof.c **** #define LM3644_SHL_EN_TORCH_TEMP	(4)			/* TORCH/TEMP Flag */
  58:/home/tienluong/workspace/atlantis_fw/platform/driver/src/tof.c **** #define LM3644_MSK_EN_TORCH_TEMP	(1 << 4)	/* TORCH/TEMP Flag */
  59:/home/tienluong/workspace/atlantis_fw/platform/driver/src/tof.c **** #define LM3644_SHL_EN_STROBE_ENABLE	(5)			/* Strobe Enable */
  60:/home/tienluong/workspace/atlantis_fw/platform/driver/src/tof.c **** #define LM3644_MSK_EN_STROBE_ENABLE	(1 << 5)	/* Strobe Enable */
  61:/home/tienluong/workspace/atlantis_fw/platform/driver/src/tof.c **** #define LM3644_MSK_EN_STROBE_TYPE	(1 << 6)	/* Strobe Type */
  62:/home/tienluong/workspace/atlantis_fw/platform/driver/src/tof.c **** #define LM3644_SHL_EN_TX_ENABLE		(7)			/* TX Pin Enable */
  63:/home/tienluong/workspace/atlantis_fw/platform/driver/src/tof.c **** #define LM3644_MSK_EN_TX_ENABLE		(1 << 7)	/* TX Pin Enable */
  64:/home/tienluong/workspace/atlantis_fw/platform/driver/src/tof.c **** 
  65:/home/tienluong/workspace/atlantis_fw/platform/driver/src/tof.c **** /* LM3644 IVFM Register, offset 0x02 */
  66:/home/tienluong/workspace/atlantis_fw/platform/driver/src/tof.c **** #define LM3644_MSK_IVFM_LEVEL			(0x07 << 3)
  67:/home/tienluong/workspace/atlantis_fw/platform/driver/src/tof.c **** #define LM3644_SHL_IVFM_LEVEL			(3)
  68:/home/tienluong/workspace/atlantis_fw/platform/driver/src/tof.c **** #define LM3644_IVFM_LEVEL_2V9			(0 << 3)
  69:/home/tienluong/workspace/atlantis_fw/platform/driver/src/tof.c **** #define LM3644_IVFM_LEVEL_3V0			(1 << 3)
  70:/home/tienluong/workspace/atlantis_fw/platform/driver/src/tof.c **** #define LM3644_IVFM_LEVEL_3V1			(2 << 3)
  71:/home/tienluong/workspace/atlantis_fw/platform/driver/src/tof.c **** #define LM3644_IVFM_LEVEL_3V2			(3 << 3)
  72:/home/tienluong/workspace/atlantis_fw/platform/driver/src/tof.c **** #define LM3644_IVFM_LEVEL_3V3			(4 << 3)
  73:/home/tienluong/workspace/atlantis_fw/platform/driver/src/tof.c **** #define LM3644_IVFM_LEVEL_3V4			(5 << 3)
  74:/home/tienluong/workspace/atlantis_fw/platform/driver/src/tof.c **** #define LM3644_IVFM_LEVEL_3V5			(6 << 3)
  75:/home/tienluong/workspace/atlantis_fw/platform/driver/src/tof.c **** #define LM3644_IVFM_LEVEL_3V6			(7 << 3)
  76:/home/tienluong/workspace/atlantis_fw/platform/driver/src/tof.c **** #define LM3644_MSK_IVFM_SELECTION			(0x00 << 0)
  77:/home/tienluong/workspace/atlantis_fw/platform/driver/src/tof.c **** #define LM3644_SHL_IVFM_SELECTION			(0)
  78:/home/tienluong/workspace/atlantis_fw/platform/driver/src/tof.c **** #define LM3644_IVFM_SELECTION_DISABLE		(0 << 0)
  79:/home/tienluong/workspace/atlantis_fw/platform/driver/src/tof.c **** #define LM3644_IVFM_SELECTION_STOP_HOLD		(1 << 0)
  80:/home/tienluong/workspace/atlantis_fw/platform/driver/src/tof.c **** #define LM3644_IVFM_SELECTION_DOWN			(2 << 0)
  81:/home/tienluong/workspace/atlantis_fw/platform/driver/src/tof.c **** #define LM3644_IVFM_SELECTION_UP_DOWN		(3 << 0)
  82:/home/tienluong/workspace/atlantis_fw/platform/driver/src/tof.c **** 
  83:/home/tienluong/workspace/atlantis_fw/platform/driver/src/tof.c **** /* LM3644 LED1 Flash Brightness Register, offset 0x03 */
  84:/home/tienluong/workspace/atlantis_fw/platform/driver/src/tof.c **** #define LM3644_SHL_LED2_FLASH_CURRENT_OVERRIDE	(7)
  85:/home/tienluong/workspace/atlantis_fw/platform/driver/src/tof.c **** #define LM3644_MSK_LED2_FLASH_CURRENT_OVERRIDE	(1 << 7)
  86:/home/tienluong/workspace/atlantis_fw/platform/driver/src/tof.c **** #define LM3644_SHL_LED1_FLASH_BRIGHT			(0)
  87:/home/tienluong/workspace/atlantis_fw/platform/driver/src/tof.c **** #define LM3644_MSK_LED1_FLASH_BRIGHT			(0x7F << 0)
  88:/home/tienluong/workspace/atlantis_fw/platform/driver/src/tof.c **** 
  89:/home/tienluong/workspace/atlantis_fw/platform/driver/src/tof.c **** /* LM3644 LED1 Torch Brightness Register, offset 0x05 */
  90:/home/tienluong/workspace/atlantis_fw/platform/driver/src/tof.c **** #define LM3644_SHL_LED2_TORCH_CURRENT_OVERRIDE	(7)
  91:/home/tienluong/workspace/atlantis_fw/platform/driver/src/tof.c **** #define LM3644_MSK_LED2_TORCH_CURRENT_OVERRIDE	(1 << 7)
  92:/home/tienluong/workspace/atlantis_fw/platform/driver/src/tof.c **** #define LM3644_SHL_LED1_TORCH_BRIGHT			(0)
  93:/home/tienluong/workspace/atlantis_fw/platform/driver/src/tof.c **** #define LM3644_MSK_LED1_TORCH_BRIGHT			(0x7F << 0)
  94:/home/tienluong/workspace/atlantis_fw/platform/driver/src/tof.c **** 
  95:/home/tienluong/workspace/atlantis_fw/platform/driver/src/tof.c **** /* LM3644 LED2 Torch Brightness Register, offset 0x06 */
  96:/home/tienluong/workspace/atlantis_fw/platform/driver/src/tof.c **** #define LM3644_SHL_LED2_TORCH_BRIGHT			(0)
  97:/home/tienluong/workspace/atlantis_fw/platform/driver/src/tof.c **** #define LM3644_MSK_LED2_TORCH_BRIGHT			(0x7F << 0)
  98:/home/tienluong/workspace/atlantis_fw/platform/driver/src/tof.c **** 
  99:/home/tienluong/workspace/atlantis_fw/platform/driver/src/tof.c **** /* LM3644 Boost Configuration Register, offset 0x07 */
 100:/home/tienluong/workspace/atlantis_fw/platform/driver/src/tof.c **** #define LM3644_MSK_BOOST_FREQUENCY		(1 << 1)
 101:/home/tienluong/workspace/atlantis_fw/platform/driver/src/tof.c **** #define LM3644_BOOST_FREQUENCY_2MHZ		(0 << 1)
 102:/home/tienluong/workspace/atlantis_fw/platform/driver/src/tof.c **** #define LM3644_BOOST_FREQUENCY_4MHZ		(1 << 1)
 103:/home/tienluong/workspace/atlantis_fw/platform/driver/src/tof.c **** 
 104:/home/tienluong/workspace/atlantis_fw/platform/driver/src/tof.c **** /* LM3644 Timing Configuration Register, offset 0x08 */
 105:/home/tienluong/workspace/atlantis_fw/platform/driver/src/tof.c **** #define LM3644_SHL_TIMING_TORCH_CURR_RAMP_TIME		(4)
 106:/home/tienluong/workspace/atlantis_fw/platform/driver/src/tof.c **** #define LM3644_MSK_TIMING_TORCH_CURR_RAMP_TIME		(0x07 << 4)
 107:/home/tienluong/workspace/atlantis_fw/platform/driver/src/tof.c **** #define LM3644_SHL_TIMING_FLASH_TIME_OUT_DURATION	(0)
 108:/home/tienluong/workspace/atlantis_fw/platform/driver/src/tof.c **** #define LM3644_MSK_TIMING_FLASH_TIME_OUT_DURATION	(0x1F << 0)
 109:/home/tienluong/workspace/atlantis_fw/platform/driver/src/tof.c **** 
 110:/home/tienluong/workspace/atlantis_fw/platform/driver/src/tof.c **** #define LM3644_TIMING_TORCH_CURR_RAMP_TIME_0		(0 << 4)
 111:/home/tienluong/workspace/atlantis_fw/platform/driver/src/tof.c **** #define LM3644_TIMING_TORCH_CURR_RAMP_TIME_1MS		(1 << 4)
 112:/home/tienluong/workspace/atlantis_fw/platform/driver/src/tof.c **** #define LM3644_TIMING_TORCH_CURR_RAMP_TIME_32MS		(2 << 4)
 113:/home/tienluong/workspace/atlantis_fw/platform/driver/src/tof.c **** #define LM3644_TIMING_TORCH_CURR_RAMP_TIME_64MS		(3 << 4)
 114:/home/tienluong/workspace/atlantis_fw/platform/driver/src/tof.c **** #define LM3644_TIMING_TORCH_CURR_RAMP_TIME_128MS	(4 << 4)
 115:/home/tienluong/workspace/atlantis_fw/platform/driver/src/tof.c **** #define LM3644_TIMING_TORCH_CURR_RAMP_TIME_256MS	(5 << 4)
 116:/home/tienluong/workspace/atlantis_fw/platform/driver/src/tof.c **** #define LM3644_TIMING_TORCH_CURR_RAMP_TIME_512MS	(6 << 4)
 117:/home/tienluong/workspace/atlantis_fw/platform/driver/src/tof.c **** #define LM3644_TIMING_TORCH_CURR_RAMP_TIME_1024MS	(7 << 4)
 118:/home/tienluong/workspace/atlantis_fw/platform/driver/src/tof.c **** 
 119:/home/tienluong/workspace/atlantis_fw/platform/driver/src/tof.c **** #define LM3644_TIMING_TIME_OUT_DURATION_10MS		(0 << 0)
 120:/home/tienluong/workspace/atlantis_fw/platform/driver/src/tof.c **** #define LM3644_TIMING_TIME_OUT_DURATION_20MS		(1 << 0)
 121:/home/tienluong/workspace/atlantis_fw/platform/driver/src/tof.c **** #define LM3644_TIMING_TIME_OUT_DURATION_30MS		(2 << 0)
 122:/home/tienluong/workspace/atlantis_fw/platform/driver/src/tof.c **** #define LM3644_TIMING_TIME_OUT_DURATION_40MS		(3 << 0)
 123:/home/tienluong/workspace/atlantis_fw/platform/driver/src/tof.c **** #define LM3644_TIMING_TIME_OUT_DURATION_50MS		(4 << 0)
 124:/home/tienluong/workspace/atlantis_fw/platform/driver/src/tof.c **** #define LM3644_TIMING_TIME_OUT_DURATION_60MS		(5 << 0)
 125:/home/tienluong/workspace/atlantis_fw/platform/driver/src/tof.c **** #define LM3644_TIMING_TIME_OUT_DURATION_70MS		(6 << 0)
 126:/home/tienluong/workspace/atlantis_fw/platform/driver/src/tof.c **** #define LM3644_TIMING_TIME_OUT_DURATION_80MS		(7 << 0)
 127:/home/tienluong/workspace/atlantis_fw/platform/driver/src/tof.c **** #define LM3644_TIMING_TIME_OUT_DURATION_90MS		(8 << 0)
 128:/home/tienluong/workspace/atlantis_fw/platform/driver/src/tof.c **** #define LM3644_TIMING_TIME_OUT_DURATION_100MS		(9 << 0)
 129:/home/tienluong/workspace/atlantis_fw/platform/driver/src/tof.c **** #define LM3644_TIMING_TIME_OUT_DURATION_150MS		(10 << 0)
 130:/home/tienluong/workspace/atlantis_fw/platform/driver/src/tof.c **** #define LM3644_TIMING_TIME_OUT_DURATION_200MS		(11 << 0)
 131:/home/tienluong/workspace/atlantis_fw/platform/driver/src/tof.c **** #define LM3644_TIMING_TIME_OUT_DURATION_250MS		(12 << 0)
 132:/home/tienluong/workspace/atlantis_fw/platform/driver/src/tof.c **** #define LM3644_TIMING_TIME_OUT_DURATION_300MS		(13 << 0)
 133:/home/tienluong/workspace/atlantis_fw/platform/driver/src/tof.c **** #define LM3644_TIMING_TIME_OUT_DURATION_350MS		(14 << 0)
 134:/home/tienluong/workspace/atlantis_fw/platform/driver/src/tof.c **** #define LM3644_TIMING_TIME_OUT_DURATION_400MS		(15 << 0)
 135:/home/tienluong/workspace/atlantis_fw/platform/driver/src/tof.c **** 
 136:/home/tienluong/workspace/atlantis_fw/platform/driver/src/tof.c **** /* LM3644 TEMP Register, offset 0x09 */
 137:/home/tienluong/workspace/atlantis_fw/platform/driver/src/tof.c **** #define LM3644_SHL_TEMP_DETECT_VOLTAGE_THRESH		(1)
 138:/home/tienluong/workspace/atlantis_fw/platform/driver/src/tof.c **** #define LM3644_MSK_TEMP_DETECT_VOLTAGE_THRESH		(0x07 << 1)
 139:/home/tienluong/workspace/atlantis_fw/platform/driver/src/tof.c **** #define LM3644_SHL_TORCH_TEMP_FUNC_SELECT			(0)
 140:/home/tienluong/workspace/atlantis_fw/platform/driver/src/tof.c **** #define LM3644_MSK_TORCH_TEMP_FUNC_SELECT			(1 << 0)
 141:/home/tienluong/workspace/atlantis_fw/platform/driver/src/tof.c **** 
 142:/home/tienluong/workspace/atlantis_fw/platform/driver/src/tof.c **** #define LM3644_TEMP_DETECT_VOLTAGE_THRESH_0V2		(0 << 1)
 143:/home/tienluong/workspace/atlantis_fw/platform/driver/src/tof.c **** #define LM3644_TEMP_DETECT_VOLTAGE_THRESH_0V3		(1 << 1)
 144:/home/tienluong/workspace/atlantis_fw/platform/driver/src/tof.c **** #define LM3644_TEMP_DETECT_VOLTAGE_THRESH_0V4		(2 << 1)
 145:/home/tienluong/workspace/atlantis_fw/platform/driver/src/tof.c **** #define LM3644_TEMP_DETECT_VOLTAGE_THRESH_0V5		(3 << 1)
 146:/home/tienluong/workspace/atlantis_fw/platform/driver/src/tof.c **** #define LM3644_TEMP_DETECT_VOLTAGE_THRESH_0V6		(4 << 1)
 147:/home/tienluong/workspace/atlantis_fw/platform/driver/src/tof.c **** #define LM3644_TEMP_DETECT_VOLTAGE_THRESH_0V7		(5 << 1)
 148:/home/tienluong/workspace/atlantis_fw/platform/driver/src/tof.c **** #define LM3644_TEMP_DETECT_VOLTAGE_THRESH_0V8		(6 << 1)
 149:/home/tienluong/workspace/atlantis_fw/platform/driver/src/tof.c **** #define LM3644_TEMP_DETECT_VOLTAGE_THRESH_0V9		(7 << 1)
 150:/home/tienluong/workspace/atlantis_fw/platform/driver/src/tof.c **** 
 151:/home/tienluong/workspace/atlantis_fw/platform/driver/src/tof.c **** #define LM3644_VALID_DEVICDE_ID		0
 152:/home/tienluong/workspace/atlantis_fw/platform/driver/src/tof.c **** #define LM3644_TYPE_LM3644_STANDARD	2
 153:/home/tienluong/workspace/atlantis_fw/platform/driver/src/tof.c **** #define LM3644_TYPE_LM2644_TT		4
 154:/home/tienluong/workspace/atlantis_fw/platform/driver/src/tof.c **** 
 155:/home/tienluong/workspace/atlantis_fw/platform/driver/src/tof.c **** #define LM3644_FLASH_LED_CURRENT_MASK	0x7F
 156:/home/tienluong/workspace/atlantis_fw/platform/driver/src/tof.c **** #define LM3644_FLASH_TIMEOUT_MASK		0x0F
 157:/home/tienluong/workspace/atlantis_fw/platform/driver/src/tof.c **** #define LM3644_TORCH_CURRENT_RAMP_MASK	0x70
 158:/home/tienluong/workspace/atlantis_fw/platform/driver/src/tof.c **** /* LM3644 Device ID Register, offset 0x0C */
 159:/home/tienluong/workspace/atlantis_fw/platform/driver/src/tof.c **** #define LM3644_MSK_DEVICE_ID		(0x3F << 0)
 160:/home/tienluong/workspace/atlantis_fw/platform/driver/src/tof.c **** 
 161:/home/tienluong/workspace/atlantis_fw/platform/driver/src/tof.c **** /* I FLASH (mA) = (Brightness Code * 11.725 mA) + 10.9 mA */
 162:/home/tienluong/workspace/atlantis_fw/platform/driver/src/tof.c **** #define BRIGHT_VALUE(cur_ma)	((cur_ma - 10.9) / 11.725)
 163:/home/tienluong/workspace/atlantis_fw/platform/driver/src/tof.c **** 
 164:/home/tienluong/workspace/atlantis_fw/platform/driver/src/tof.c **** /* I TORCH (mA) = (Brightness Code * 1.4 mA) + 0.977 mA */
 165:/home/tienluong/workspace/atlantis_fw/platform/driver/src/tof.c **** #define TORCH_VALUE(cur_ma)	((cur_ma - 0.977) / 1.4)
 166:/home/tienluong/workspace/atlantis_fw/platform/driver/src/tof.c **** 
 167:/home/tienluong/workspace/atlantis_fw/platform/driver/src/tof.c **** typedef struct
 168:/home/tienluong/workspace/atlantis_fw/platform/driver/src/tof.c **** {
 169:/home/tienluong/workspace/atlantis_fw/platform/driver/src/tof.c **** 	uint8_t siliconRev : 3; /* Silicon Revision Bits  */
 170:/home/tienluong/workspace/atlantis_fw/platform/driver/src/tof.c **** 	uint8_t devideID : 3; /* Device id bits */
 171:/home/tienluong/workspace/atlantis_fw/platform/driver/src/tof.c **** 	uint8_t reserve : 2; /* Reserve bits */
 172:/home/tienluong/workspace/atlantis_fw/platform/driver/src/tof.c **** } deviceID_reg_t;
 173:/home/tienluong/workspace/atlantis_fw/platform/driver/src/tof.c **** 
 174:/home/tienluong/workspace/atlantis_fw/platform/driver/src/tof.c **** /* Privated functions prototypes ---------------------------------------------*/
 175:/home/tienluong/workspace/atlantis_fw/platform/driver/src/tof.c **** /* Privated variables --------------------------------------------------------*/
 176:/home/tienluong/workspace/atlantis_fw/platform/driver/src/tof.c **** static volatile lm3644_strobe_mode_t lm3644_strobe_mode;
 177:/home/tienluong/workspace/atlantis_fw/platform/driver/src/tof.c **** hal_gpio_t gpio_flash_trig;
 178:/home/tienluong/workspace/atlantis_fw/platform/driver/src/tof.c **** hal_gpio_t gpio_torch_trig;
 179:/home/tienluong/workspace/atlantis_fw/platform/driver/src/tof.c **** hal_gpio_t gpio_tof_xShut;
 180:/home/tienluong/workspace/atlantis_fw/platform/driver/src/tof.c **** hal_pwm_init_t pwm_cfg;
 181:/home/tienluong/workspace/atlantis_fw/platform/driver/src/tof.c **** hal_pwm_output_t pwm_value;
 182:/home/tienluong/workspace/atlantis_fw/platform/driver/src/tof.c **** 
 183:/home/tienluong/workspace/atlantis_fw/platform/driver/src/tof.c **** /* Privated functions implementation -----------------------------------------*/
 184:/home/tienluong/workspace/atlantis_fw/platform/driver/src/tof.c **** 
 185:/home/tienluong/workspace/atlantis_fw/platform/driver/src/tof.c **** /*
 186:/home/tienluong/workspace/atlantis_fw/platform/driver/src/tof.c ****  * lm3644_read
 187:/home/tienluong/workspace/atlantis_fw/platform/driver/src/tof.c ****  * Read byte value
 188:/home/tienluong/workspace/atlantis_fw/platform/driver/src/tof.c ****  */
 189:/home/tienluong/workspace/atlantis_fw/platform/driver/src/tof.c **** static int lm3644_read(hal_i2c_channel_t i2c, uint8_t sla, uint8_t reg,
 190:/home/tienluong/workspace/atlantis_fw/platform/driver/src/tof.c **** 	uint8_t *data)
 191:/home/tienluong/workspace/atlantis_fw/platform/driver/src/tof.c **** {
 192:/home/tienluong/workspace/atlantis_fw/platform/driver/src/tof.c **** 	i2cm_error_t ret = i2cm.read(i2c, BYTE_ADDR8, sla, reg, data);
 193:/home/tienluong/workspace/atlantis_fw/platform/driver/src/tof.c **** 
 194:/home/tienluong/workspace/atlantis_fw/platform/driver/src/tof.c **** 	return (ret == I2CM_ERROR_TRANSCEIVED) ? LM3644_OK : LM3644_I2C_BUSY;
 195:/home/tienluong/workspace/atlantis_fw/platform/driver/src/tof.c **** }
 196:/home/tienluong/workspace/atlantis_fw/platform/driver/src/tof.c **** 
 197:/home/tienluong/workspace/atlantis_fw/platform/driver/src/tof.c **** /*
 198:/home/tienluong/workspace/atlantis_fw/platform/driver/src/tof.c ****  * lm3644_write
 199:/home/tienluong/workspace/atlantis_fw/platform/driver/src/tof.c ****  * Byte configure
 200:/home/tienluong/workspace/atlantis_fw/platform/driver/src/tof.c ****  */
 201:/home/tienluong/workspace/atlantis_fw/platform/driver/src/tof.c **** static int lm3644_write(hal_i2c_channel_t i2c, uint8_t sla, uint8_t reg,
 202:/home/tienluong/workspace/atlantis_fw/platform/driver/src/tof.c **** 	uint8_t *data)
 203:/home/tienluong/workspace/atlantis_fw/platform/driver/src/tof.c **** {
  26              		.loc 1 203 0
  27              		.cfi_startproc
  28              		@ args = 0, pretend = 0, frame = 0
  29              		@ frame_needed = 0, uses_anonymous_args = 0
  30              	.LVL0:
  31 0000 73B5     		push	{r0, r1, r4, r5, r6, lr}
  32              	.LCFI0:
  33              		.cfi_def_cfa_offset 24
  34              		.cfi_offset 4, -16
  35              		.cfi_offset 5, -12
  36              		.cfi_offset 6, -8
  37              		.cfi_offset 14, -4
 204:/home/tienluong/workspace/atlantis_fw/platform/driver/src/tof.c **** 	i2cm_error_t ret = i2cm.write(i2c, BYTE_ADDR8, sla, reg, data);
  38              		.loc 1 204 0
  39 0002 0093     		str	r3, [sp]
 203:/home/tienluong/workspace/atlantis_fw/platform/driver/src/tof.c **** 	i2cm_error_t ret = i2cm.write(i2c, BYTE_ADDR8, sla, reg, data);
  40              		.loc 1 203 0
  41 0004 0E46     		mov	r6, r1
  42              		.loc 1 204 0
  43 0006 064B     		ldr	r3, .L2
  44              	.LVL1:
  45 0008 1546     		mov	r5, r2
  46 000a 0021     		movs	r1, #0
  47              	.LVL2:
  48 000c 3246     		mov	r2, r6
  49              	.LVL3:
  50 000e 1C69     		ldr	r4, [r3, #16]
  51 0010 2B46     		mov	r3, r5
  52 0012 A047     		blx	r4
  53              	.LVL4:
 205:/home/tienluong/workspace/atlantis_fw/platform/driver/src/tof.c **** 
 206:/home/tienluong/workspace/atlantis_fw/platform/driver/src/tof.c **** 	return (ret == I2CM_ERROR_TRANSMITTED) ? LM3644_OK : LM3644_I2C_BUSY;
 207:/home/tienluong/workspace/atlantis_fw/platform/driver/src/tof.c **** }
  54              		.loc 1 207 0
  55 0014 0538     		subs	r0, r0, #5
  56              	.LVL5:
  57 0016 18BF     		it	ne
  58 0018 0120     		movne	r0, #1
  59 001a 02B0     		add	sp, sp, #8
  60              	.LCFI1:
  61              		.cfi_def_cfa_offset 16
  62              		@ sp needed
  63 001c 70BD     		pop	{r4, r5, r6, pc}
  64              	.L3:
  65 001e 00BF     		.align	2
  66              	.L2:
  67 0020 00000000 		.word	i2cm
  68              		.cfi_endproc
  69              	.LFE2:
  71              		.section	.text.flash_light_init,"ax",%progbits
  72              		.align	1
  73              		.global	flash_light_init
  74              		.thumb
  75              		.thumb_func
  77              	flash_light_init:
  78              	.LFB3:
 208:/home/tienluong/workspace/atlantis_fw/platform/driver/src/tof.c **** 
 209:/home/tienluong/workspace/atlantis_fw/platform/driver/src/tof.c **** /* Exported functions implementation -----------------------------------------*/
 210:/home/tienluong/workspace/atlantis_fw/platform/driver/src/tof.c **** /*
 211:/home/tienluong/workspace/atlantis_fw/platform/driver/src/tof.c ****  * flash_light_init
 212:/home/tienluong/workspace/atlantis_fw/platform/driver/src/tof.c ****  * Configure the Flash LED devices, input lm3644_info_t
 213:/home/tienluong/workspace/atlantis_fw/platform/driver/src/tof.c ****  */
 214:/home/tienluong/workspace/atlantis_fw/platform/driver/src/tof.c **** 
 215:/home/tienluong/workspace/atlantis_fw/platform/driver/src/tof.c **** int flash_light_init(hal_i2c_channel_t chid, lm3644_info_t *info)
 216:/home/tienluong/workspace/atlantis_fw/platform/driver/src/tof.c **** {
  79              		.loc 1 216 0
  80              		.cfi_startproc
  81              		@ args = 0, pretend = 0, frame = 24
  82              		@ frame_needed = 0, uses_anonymous_args = 0
  83              	.LVL6:
  84 0000 2DE9F04F 		push	{r4, r5, r6, r7, r8, r9, r10, fp, lr}
  85              	.LCFI2:
  86              		.cfi_def_cfa_offset 36
  87              		.cfi_offset 4, -36
  88              		.cfi_offset 5, -32
  89              		.cfi_offset 6, -28
  90              		.cfi_offset 7, -24
  91              		.cfi_offset 8, -20
  92              		.cfi_offset 9, -16
  93              		.cfi_offset 10, -12
  94              		.cfi_offset 11, -8
  95              		.cfi_offset 14, -4
 217:/home/tienluong/workspace/atlantis_fw/platform/driver/src/tof.c **** 	flash_light_status_t ret = LM3644_OK;
 218:/home/tienluong/workspace/atlantis_fw/platform/driver/src/tof.c **** 	uint8_t reg = 0;
 219:/home/tienluong/workspace/atlantis_fw/platform/driver/src/tof.c **** 	deviceID_reg_t *deviceID_reg;
 220:/home/tienluong/workspace/atlantis_fw/platform/driver/src/tof.c **** 
 221:/home/tienluong/workspace/atlantis_fw/platform/driver/src/tof.c **** 	i2cm.init(chid);
  96              		.loc 1 221 0
  97 0004 DFF8ACA1 		ldr	r10, .L12+52
 216:/home/tienluong/workspace/atlantis_fw/platform/driver/src/tof.c **** 	flash_light_status_t ret = LM3644_OK;
  98              		.loc 1 216 0
  99 0008 89B0     		sub	sp, sp, #36
 100              	.LCFI3:
 101              		.cfi_def_cfa_offset 72
 218:/home/tienluong/workspace/atlantis_fw/platform/driver/src/tof.c **** 	deviceID_reg_t *deviceID_reg;
 102              		.loc 1 218 0
 103 000a 0026     		movs	r6, #0
 104 000c 08AF     		add	r7, sp, #32
 105              		.loc 1 221 0
 106 000e DAF80030 		ldr	r3, [r10]
 216:/home/tienluong/workspace/atlantis_fw/platform/driver/src/tof.c **** 	flash_light_status_t ret = LM3644_OK;
 107              		.loc 1 216 0
 108 0012 0C46     		mov	r4, r1
 218:/home/tienluong/workspace/atlantis_fw/platform/driver/src/tof.c **** 	deviceID_reg_t *deviceID_reg;
 109              		.loc 1 218 0
 110 0014 07F8016D 		strb	r6, [r7, #-1]!
 222:/home/tienluong/workspace/atlantis_fw/platform/driver/src/tof.c **** 
 223:/home/tienluong/workspace/atlantis_fw/platform/driver/src/tof.c **** 	/* config gpio
 224:/home/tienluong/workspace/atlantis_fw/platform/driver/src/tof.c **** 	 * FLASH_TRIG = GPIO_PORTA.0
 225:/home/tienluong/workspace/atlantis_fw/platform/driver/src/tof.c **** 	 * FLASH_HWEN = GPIO_PORTA.1
 226:/home/tienluong/workspace/atlantis_fw/platform/driver/src/tof.c **** 	 * TORCH_TRIG = GPIO_PORTA.2
 227:/home/tienluong/workspace/atlantis_fw/platform/driver/src/tof.c **** 	 */
 228:/home/tienluong/workspace/atlantis_fw/platform/driver/src/tof.c **** 	/* initialize PWM channel for HW pin */
 229:/home/tienluong/workspace/atlantis_fw/platform/driver/src/tof.c **** 	pwm_cfg.align_mode = PWM_ALIGN_RIGHT;
 111              		.loc 1 229 0
 112 0018 0125     		movs	r5, #1
 216:/home/tienluong/workspace/atlantis_fw/platform/driver/src/tof.c **** 	flash_light_status_t ret = LM3644_OK;
 113              		.loc 1 216 0
 114 001a 8146     		mov	r9, r0
 221:/home/tienluong/workspace/atlantis_fw/platform/driver/src/tof.c **** 
 115              		.loc 1 221 0
 116 001c 9847     		blx	r3
 117              	.LVL7:
 230:/home/tienluong/workspace/atlantis_fw/platform/driver/src/tof.c **** 	pwm_cfg.output_gen_mode = PWM_GPIO;
 231:/home/tienluong/workspace/atlantis_fw/platform/driver/src/tof.c **** 	pwm_value.freq = 100;
 118              		.loc 1 231 0
 119 001e 6423     		movs	r3, #100
 120 0020 574A     		ldr	r2, .L12
 232:/home/tienluong/workspace/atlantis_fw/platform/driver/src/tof.c **** 	pwm_value.pattern.pair[0].duty = 0;
 233:/home/tienluong/workspace/atlantis_fw/platform/driver/src/tof.c **** 	pwm_value.pattern.pair[0].num_pulses = 1;
 234:/home/tienluong/workspace/atlantis_fw/platform/driver/src/tof.c **** 	pwm_value.pattern.num_pairs = 1;
 235:/home/tienluong/workspace/atlantis_fw/platform/driver/src/tof.c **** 	hal_pwm_init(PWM1_CH4, &pwm_cfg, &pwm_value);
 121              		.loc 1 235 0
 122 0022 0920     		movs	r0, #9
 229:/home/tienluong/workspace/atlantis_fw/platform/driver/src/tof.c **** 	pwm_cfg.output_gen_mode = PWM_GPIO;
 123              		.loc 1 229 0
 124 0024 5749     		ldr	r1, .L12+4
 236:/home/tienluong/workspace/atlantis_fw/platform/driver/src/tof.c **** 	hal_pwm_set_high(PWM1_CH4, PWM_PIN_POS);
 237:/home/tienluong/workspace/atlantis_fw/platform/driver/src/tof.c **** 
 238:/home/tienluong/workspace/atlantis_fw/platform/driver/src/tof.c **** 	gpio_flash_trig.direction	= GPIO_DIR_OUT;
 239:/home/tienluong/workspace/atlantis_fw/platform/driver/src/tof.c **** 	gpio_flash_trig.port		= GPIO_PORTC;
 240:/home/tienluong/workspace/atlantis_fw/platform/driver/src/tof.c **** 	gpio_flash_trig.pin			= 8;
 125              		.loc 1 240 0
 126 0026 4FF00808 		mov	r8, #8
 231:/home/tienluong/workspace/atlantis_fw/platform/driver/src/tof.c **** 	pwm_value.pattern.pair[0].duty = 0;
 127              		.loc 1 231 0
 128 002a D361     		str	r3, [r2, #28]
 232:/home/tienluong/workspace/atlantis_fw/platform/driver/src/tof.c **** 	pwm_value.pattern.pair[0].num_pulses = 1;
 129              		.loc 1 232 0
 130 002c 1670     		strb	r6, [r2]
 233:/home/tienluong/workspace/atlantis_fw/platform/driver/src/tof.c **** 	pwm_value.pattern.num_pairs = 1;
 131              		.loc 1 233 0
 132 002e 5560     		str	r5, [r2, #4]
 235:/home/tienluong/workspace/atlantis_fw/platform/driver/src/tof.c **** 	hal_pwm_set_high(PWM1_CH4, PWM_PIN_POS);
 133              		.loc 1 235 0
 134 0030 554B     		ldr	r3, .L12+8
 234:/home/tienluong/workspace/atlantis_fw/platform/driver/src/tof.c **** 	hal_pwm_init(PWM1_CH4, &pwm_cfg, &pwm_value);
 135              		.loc 1 234 0
 136 0032 1576     		strb	r5, [r2, #24]
 229:/home/tienluong/workspace/atlantis_fw/platform/driver/src/tof.c **** 	pwm_cfg.output_gen_mode = PWM_GPIO;
 137              		.loc 1 229 0
 138 0034 0D70     		strb	r5, [r1]
 230:/home/tienluong/workspace/atlantis_fw/platform/driver/src/tof.c **** 	pwm_value.freq = 100;
 139              		.loc 1 230 0
 140 0036 4E70     		strb	r6, [r1, #1]
 235:/home/tienluong/workspace/atlantis_fw/platform/driver/src/tof.c **** 	hal_pwm_set_high(PWM1_CH4, PWM_PIN_POS);
 141              		.loc 1 235 0
 142 0038 9847     		blx	r3
 143              	.LVL8:
 236:/home/tienluong/workspace/atlantis_fw/platform/driver/src/tof.c **** 
 144              		.loc 1 236 0
 145 003a 544B     		ldr	r3, .L12+12
 146 003c 0920     		movs	r0, #9
 147 003e 3146     		mov	r1, r6
 148 0040 9847     		blx	r3
 149              	.LVL9:
 238:/home/tienluong/workspace/atlantis_fw/platform/driver/src/tof.c **** 	gpio_flash_trig.port		= GPIO_PORTC;
 150              		.loc 1 238 0
 151 0042 DFF874B1 		ldr	fp, .L12+56
 239:/home/tienluong/workspace/atlantis_fw/platform/driver/src/tof.c **** 	gpio_flash_trig.pin			= 8;
 152              		.loc 1 239 0
 153 0046 0221     		movs	r1, #2
 241:/home/tienluong/workspace/atlantis_fw/platform/driver/src/tof.c **** 	hal_gpio_init(&gpio_flash_trig);
 154              		.loc 1 241 0
 155 0048 514A     		ldr	r2, .L12+16
 156 004a 5846     		mov	r0, fp
 239:/home/tienluong/workspace/atlantis_fw/platform/driver/src/tof.c **** 	gpio_flash_trig.pin			= 8;
 157              		.loc 1 239 0
 158 004c 8BF80010 		strb	r1, [fp]
 159 0050 0591     		str	r1, [sp, #20]
 160              		.loc 1 241 0
 161 0052 0492     		str	r2, [sp, #16]
 238:/home/tienluong/workspace/atlantis_fw/platform/driver/src/tof.c **** 	gpio_flash_trig.port		= GPIO_PORTC;
 162              		.loc 1 238 0
 163 0054 8BF80250 		strb	r5, [fp, #2]
 240:/home/tienluong/workspace/atlantis_fw/platform/driver/src/tof.c **** 	hal_gpio_init(&gpio_flash_trig);
 164              		.loc 1 240 0
 165 0058 8BF80180 		strb	r8, [fp, #1]
 166              		.loc 1 241 0
 167 005c 9047     		blx	r2
 168              	.LVL10:
 242:/home/tienluong/workspace/atlantis_fw/platform/driver/src/tof.c **** 	hal_gpio_set_low(&gpio_flash_trig);
 169              		.loc 1 242 0
 170 005e 4D4B     		ldr	r3, .L12+20
 171 0060 5846     		mov	r0, fp
 172 0062 0393     		str	r3, [sp, #12]
 173 0064 9847     		blx	r3
 174              	.LVL11:
 243:/home/tienluong/workspace/atlantis_fw/platform/driver/src/tof.c **** 
 244:/home/tienluong/workspace/atlantis_fw/platform/driver/src/tof.c **** 	gpio_torch_trig.direction	= GPIO_DIR_OUT;
 175              		.loc 1 244 0
 176 0066 DFF854B1 		ldr	fp, .L12+60
 245:/home/tienluong/workspace/atlantis_fw/platform/driver/src/tof.c **** 	gpio_torch_trig.port		= GPIO_PORTC;
 177              		.loc 1 245 0
 178 006a 0599     		ldr	r1, [sp, #20]
 246:/home/tienluong/workspace/atlantis_fw/platform/driver/src/tof.c **** 	gpio_torch_trig.pin			= 9;
 247:/home/tienluong/workspace/atlantis_fw/platform/driver/src/tof.c **** 	hal_gpio_init(&gpio_torch_trig);
 179              		.loc 1 247 0
 180 006c 5846     		mov	r0, fp
 245:/home/tienluong/workspace/atlantis_fw/platform/driver/src/tof.c **** 	gpio_torch_trig.port		= GPIO_PORTC;
 181              		.loc 1 245 0
 182 006e 8BF80010 		strb	r1, [fp]
 246:/home/tienluong/workspace/atlantis_fw/platform/driver/src/tof.c **** 	gpio_torch_trig.pin			= 9;
 183              		.loc 1 246 0
 184 0072 0921     		movs	r1, #9
 185              		.loc 1 247 0
 186 0074 049A     		ldr	r2, [sp, #16]
 246:/home/tienluong/workspace/atlantis_fw/platform/driver/src/tof.c **** 	gpio_torch_trig.pin			= 9;
 187              		.loc 1 246 0
 188 0076 8BF80110 		strb	r1, [fp, #1]
 244:/home/tienluong/workspace/atlantis_fw/platform/driver/src/tof.c **** 	gpio_torch_trig.port		= GPIO_PORTC;
 189              		.loc 1 244 0
 190 007a 8BF80250 		strb	r5, [fp, #2]
 191              		.loc 1 247 0
 192 007e 9047     		blx	r2
 193              	.LVL12:
 248:/home/tienluong/workspace/atlantis_fw/platform/driver/src/tof.c **** 	hal_gpio_set_low(&gpio_torch_trig);
 194              		.loc 1 248 0
 195 0080 5846     		mov	r0, fp
 196 0082 039B     		ldr	r3, [sp, #12]
 197 0084 9847     		blx	r3
 198              	.LVL13:
 249:/home/tienluong/workspace/atlantis_fw/platform/driver/src/tof.c **** 
 250:/home/tienluong/workspace/atlantis_fw/platform/driver/src/tof.c **** 		/* Init for Flash */
 251:/home/tienluong/workspace/atlantis_fw/platform/driver/src/tof.c **** 	info->i2c_addr = CAM_FLASH_ADDRESS;
 252:/home/tienluong/workspace/atlantis_fw/platform/driver/src/tof.c **** 	info->enable_reg.LED1 = TRUE;					/* Led 1 enable */
 199              		.loc 1 252 0
 200 0086 E378     		ldrb	r3, [r4, #3]	@ zero_extendqisi2
 253:/home/tienluong/workspace/atlantis_fw/platform/driver/src/tof.c **** 	info->enable_reg.LED2 = TRUE;					/* Led 2 enable */
 254:/home/tienluong/workspace/atlantis_fw/platform/driver/src/tof.c **** 	info->enable_reg.mode = LM3644_MODE_STANDBY;	/* Mode */
 255:/home/tienluong/workspace/atlantis_fw/platform/driver/src/tof.c **** 	info->enable_reg.torch_temp_enable = FALSE;		/* TORCH/TEMP enable */
 256:/home/tienluong/workspace/atlantis_fw/platform/driver/src/tof.c **** 	info->enable_reg.strobe_enable = TRUE;				/* Strobe enable */
 201              		.loc 1 256 0
 202 0088 03F0C003 		and	r3, r3, #192
 257:/home/tienluong/workspace/atlantis_fw/platform/driver/src/tof.c **** 	info->enable_reg.strobe_type = MODE_STROBE_LEVEL;
 203              		.loc 1 257 0
 204 008c 43F02303 		orr	r3, r3, #35
 258:/home/tienluong/workspace/atlantis_fw/platform/driver/src/tof.c **** 	info->enable_reg.tx_enable = FALSE;				/* TX pin enable */
 205              		.loc 1 258 0
 206 0090 03F0BF03 		and	r3, r3, #191
 207 0094 66F3C713 		bfi	r3, r6, #7, #1
 251:/home/tienluong/workspace/atlantis_fw/platform/driver/src/tof.c **** 	info->enable_reg.LED1 = TRUE;					/* Led 1 enable */
 208              		.loc 1 251 0
 209 0098 6322     		movs	r2, #99
 210              		.loc 1 258 0
 211 009a E370     		strb	r3, [r4, #3]
 259:/home/tienluong/workspace/atlantis_fw/platform/driver/src/tof.c **** 	info->IVFM_reg.IVFM_lvl = IVFM_LEVEL_2V9;		/* IVFM Levels */
 212              		.loc 1 259 0
 213 009c 2379     		ldrb	r3, [r4, #4]	@ zero_extendqisi2
 260:/home/tienluong/workspace/atlantis_fw/platform/driver/src/tof.c **** 	info->IVFM_reg.IVFM_sel = IVFM_SELECTION_DISABLE;	/* IVFM Selection */
 214              		.loc 1 260 0
 215 009e 03F0C703 		and	r3, r3, #199
 216 00a2 66F30103 		bfi	r3, r6, #0, #2
 251:/home/tienluong/workspace/atlantis_fw/platform/driver/src/tof.c **** 	info->enable_reg.LED1 = TRUE;					/* Led 1 enable */
 217              		.loc 1 251 0
 218 00a6 A270     		strb	r2, [r4, #2]
 219              	.LBB103:
 220              	.LBB104:
 192:/home/tienluong/workspace/atlantis_fw/platform/driver/src/tof.c **** 
 221              		.loc 1 192 0
 222 00a8 4846     		mov	r0, r9
 223              	.LBE104:
 224              	.LBE103:
 225              		.loc 1 260 0
 226 00aa 2371     		strb	r3, [r4, #4]
 261:/home/tienluong/workspace/atlantis_fw/platform/driver/src/tof.c **** 	info->boost_mode.boost_cur = TRUE; /* 2.8A */
 227              		.loc 1 261 0
 228 00ac 637D     		ldrb	r3, [r4, #21]	@ zero_extendqisi2
 262:/home/tienluong/workspace/atlantis_fw/platform/driver/src/tof.c **** 	info->boost_mode.boost_frq = BOOST_FREQUENCY_4MHZ;	/* x10mA, 1500mA
 263:/home/tienluong/workspace/atlantis_fw/platform/driver/src/tof.c **** 																max */
 264:/home/tienluong/workspace/atlantis_fw/platform/driver/src/tof.c **** 	info->boost_mode.boost_mode = FALSE; /* Normal mode */
 265:/home/tienluong/workspace/atlantis_fw/platform/driver/src/tof.c **** 	info->boost_mode.led_fault = TRUE; /* Enable led fault detection */
 229              		.loc 1 265 0
 230 00ae 03F0F003 		and	r3, r3, #240
 231 00b2 43F00B03 		orr	r3, r3, #11
 232              	.LBB109:
 233              	.LBB105:
 192:/home/tienluong/workspace/atlantis_fw/platform/driver/src/tof.c **** 
 234              		.loc 1 192 0
 235 00b6 0097     		str	r7, [sp]
 236 00b8 3146     		mov	r1, r6
 237              	.LBE105:
 238              	.LBE109:
 239              		.loc 1 265 0
 240 00ba 6375     		strb	r3, [r4, #21]
 266:/home/tienluong/workspace/atlantis_fw/platform/driver/src/tof.c **** 	info->torch_flash_time.flash_timeout = 0xF; /* Set max flash timeout */
 241              		.loc 1 266 0
 242 00bc 237B     		ldrb	r3, [r4, #12]	@ zero_extendqisi2
 243 00be 43F00F03 		orr	r3, r3, #15
 244              	.LBB110:
 245              	.LBB106:
 192:/home/tienluong/workspace/atlantis_fw/platform/driver/src/tof.c **** 
 246              		.loc 1 192 0
 247 00c2 DAF80C70 		ldr	r7, [r10, #12]
 248              	.LBE106:
 249              	.LBE110:
 250              		.loc 1 266 0
 251 00c6 2373     		strb	r3, [r4, #12]
 252              	.LVL14:
 253              	.LBB111:
 254              	.LBB107:
 192:/home/tienluong/workspace/atlantis_fw/platform/driver/src/tof.c **** 
 255              		.loc 1 192 0
 256 00c8 0C23     		movs	r3, #12
 257 00ca B847     		blx	r7
 258              	.LVL15:
 259 00cc 324F     		ldr	r7, .L12+24
 260              	.LBE107:
 261              	.LBE111:
 267:/home/tienluong/workspace/atlantis_fw/platform/driver/src/tof.c **** 	ret = lm3644_read(chid, info->i2c_addr, LM3644_REG_DEVICE_ID, &reg);
 268:/home/tienluong/workspace/atlantis_fw/platform/driver/src/tof.c **** 	if(ret == LM3644_OK)
 262              		.loc 1 268 0
 263 00ce 0728     		cmp	r0, #7
 264              	.LBB112:
 265              	.LBB108:
 192:/home/tienluong/workspace/atlantis_fw/platform/driver/src/tof.c **** 
 266              		.loc 1 192 0
 267 00d0 8346     		mov	fp, r0
 268              	.LVL16:
 269              	.LBE108:
 270              	.LBE112:
 271              		.loc 1 268 0
 272 00d2 49D1     		bne	.L5
 273              	.LVL17:
 269:/home/tienluong/workspace/atlantis_fw/platform/driver/src/tof.c **** 	{
 270:/home/tienluong/workspace/atlantis_fw/platform/driver/src/tof.c **** 		deviceID_reg = (deviceID_reg_t *)&reg;
 271:/home/tienluong/workspace/atlantis_fw/platform/driver/src/tof.c **** 		if(deviceID_reg->devideID == LM3644_VALID_DEVICDE_ID)
 274              		.loc 1 271 0
 275 00d4 9DF81F20 		ldrb	r2, [sp, #31]	@ zero_extendqisi2
 276 00d8 12F0380A 		ands	r10, r2, #56
 277 00dc 37D1     		bne	.L6
 272:/home/tienluong/workspace/atlantis_fw/platform/driver/src/tof.c **** 		{
 273:/home/tienluong/workspace/atlantis_fw/platform/driver/src/tof.c **** 			if(deviceID_reg->siliconRev == LM3644_TYPE_LM3644_STANDARD)
 278              		.loc 1 273 0
 279 00de 02F00706 		and	r6, r2, #7
 280 00e2 022E     		cmp	r6, #2
 281 00e4 1FD1     		bne	.L7
 274:/home/tienluong/workspace/atlantis_fw/platform/driver/src/tof.c **** 			{
 275:/home/tienluong/workspace/atlantis_fw/platform/driver/src/tof.c **** 				SLOGF(SLOG_INFO, "%s:[%d]: LM3644 silicon version is"
 282              		.loc 1 275 0
 283 00e6 4FF48A73 		mov	r3, #276
 284 00ea 4146     		mov	r1, r8
 285 00ec 0A20     		movs	r0, #10
 286              	.LVL18:
 287 00ee 0093     		str	r3, [sp]
 288 00f0 2A4A     		ldr	r2, .L12+28
 289 00f2 2B4B     		ldr	r3, .L12+32
 290 00f4 B847     		blx	r7
 291              	.LVL19:
 276:/home/tienluong/workspace/atlantis_fw/platform/driver/src/tof.c **** 					" \"LM3644\"", __FUNCTION__, __LINE__);
 277:/home/tienluong/workspace/atlantis_fw/platform/driver/src/tof.c **** 				ret |= lm3644_write(chid, info->i2c_addr,
 292              		.loc 1 277 0
 293 00f6 DFF8C880 		ldr	r8, .L12+64
 294 00fa A178     		ldrb	r1, [r4, #2]	@ zero_extendqisi2
 295 00fc 5A46     		mov	r2, fp
 296 00fe 04F11503 		add	r3, r4, #21
 297 0102 4846     		mov	r0, r9
 298 0104 C047     		blx	r8
 299              	.LVL20:
 278:/home/tienluong/workspace/atlantis_fw/platform/driver/src/tof.c **** 					LM3644_REG_BOOST_CONFIG, (uint8_t *) &info->boost_mode);
 279:/home/tienluong/workspace/atlantis_fw/platform/driver/src/tof.c **** 				ret |= lm3644_write(chid, info->i2c_addr,
 300              		.loc 1 279 0
 301 0106 3246     		mov	r2, r6
 302 0108 A178     		ldrb	r1, [r4, #2]	@ zero_extendqisi2
 303 010a 231D     		adds	r3, r4, #4
 277:/home/tienluong/workspace/atlantis_fw/platform/driver/src/tof.c **** 					LM3644_REG_BOOST_CONFIG, (uint8_t *) &info->boost_mode);
 304              		.loc 1 277 0
 305 010c 0746     		mov	r7, r0
 306              	.LVL21:
 307              		.loc 1 279 0
 308 010e 4846     		mov	r0, r9
 309 0110 C047     		blx	r8
 310              	.LVL22:
 280:/home/tienluong/workspace/atlantis_fw/platform/driver/src/tof.c **** 					LM3644_REG_IVFM, (uint8_t *)&info->IVFM_reg);
 281:/home/tienluong/workspace/atlantis_fw/platform/driver/src/tof.c **** 				ret |= lm3644_write(chid, info->i2c_addr,
 311              		.loc 1 281 0
 312 0112 A178     		ldrb	r1, [r4, #2]	@ zero_extendqisi2
 313 0114 2A46     		mov	r2, r5
 314 0116 E31C     		adds	r3, r4, #3
 279:/home/tienluong/workspace/atlantis_fw/platform/driver/src/tof.c **** 					LM3644_REG_IVFM, (uint8_t *)&info->IVFM_reg);
 315              		.loc 1 279 0
 316 0118 3843     		orrs	r0, r0, r7
 317 011a C6B2     		uxtb	r6, r0
 318              	.LVL23:
 319              		.loc 1 281 0
 320 011c 4846     		mov	r0, r9
 321 011e C047     		blx	r8
 322              	.LVL24:
 323 0120 3043     		orrs	r0, r0, r6
 324 0122 C0B2     		uxtb	r0, r0
 325              	.LVL25:
 326 0124 29E0     		b	.L8
 327              	.LVL26:
 328              	.L7:
 282:/home/tienluong/workspace/atlantis_fw/platform/driver/src/tof.c **** 					LM3644_REG_ENABLE, (uint8_t *)&info->enable_reg);
 283:/home/tienluong/workspace/atlantis_fw/platform/driver/src/tof.c **** 			}
 284:/home/tienluong/workspace/atlantis_fw/platform/driver/src/tof.c **** 			else if(deviceID_reg->siliconRev == LM3644_TYPE_LM2644_TT)
 329              		.loc 1 284 0
 330 0126 042E     		cmp	r6, #4
 285:/home/tienluong/workspace/atlantis_fw/platform/driver/src/tof.c **** 				SLOGF(SLOG_INFO, "%s:[%d]: LM3644 silicon vesrion is"
 331              		.loc 1 285 0
 332 0128 09BF     		itett	eq
 333 012a 4FF48F73 		moveq	r3, #286
 286:/home/tienluong/workspace/atlantis_fw/platform/driver/src/tof.c **** 					" \"LM3644TT\"", __FUNCTION__, __LINE__);
 287:/home/tienluong/workspace/atlantis_fw/platform/driver/src/tof.c **** 			else
 288:/home/tienluong/workspace/atlantis_fw/platform/driver/src/tof.c **** 				SLOGF(SLOG_WARN, "%s:[%d]:The silicon revision is invalid,"
 334              		.loc 1 288 0
 335 012e 40F22113 		movwne	r3, #289
 285:/home/tienluong/workspace/atlantis_fw/platform/driver/src/tof.c **** 				SLOGF(SLOG_INFO, "%s:[%d]: LM3644 silicon vesrion is"
 336              		.loc 1 285 0
 337 0132 0A20     		moveq	r0, #10
 338              	.LVL27:
 339 0134 0093     		streq	r3, [sp]
 340              		.loc 1 288 0
 341 0136 19BF     		ittee	ne
 342 0138 0A20     		movne	r0, #10
 343 013a 0093     		strne	r3, [sp]
 285:/home/tienluong/workspace/atlantis_fw/platform/driver/src/tof.c **** 				SLOGF(SLOG_INFO, "%s:[%d]: LM3644 silicon vesrion is"
 344              		.loc 1 285 0
 345 013c 4146     		moveq	r1, r8
 346 013e 194A     		ldreq	r2, .L12+36
 347              		.loc 1 288 0
 348 0140 1CBF     		itt	ne
 349 0142 0421     		movne	r1, #4
 350 0144 184A     		ldrne	r2, .L12+40
 351 0146 164B     		ldr	r3, .L12+32
 352 0148 B847     		blx	r7
 353              	.LVL28:
 354 014a 5046     		mov	r0, r10
 355 014c 15E0     		b	.L8
 356              	.LVL29:
 357              	.L6:
 289:/home/tienluong/workspace/atlantis_fw/platform/driver/src/tof.c **** 					" it may cause something wrong", __FUNCTION__, __LINE__);
 290:/home/tienluong/workspace/atlantis_fw/platform/driver/src/tof.c **** 		}
 291:/home/tienluong/workspace/atlantis_fw/platform/driver/src/tof.c **** 		else
 292:/home/tienluong/workspace/atlantis_fw/platform/driver/src/tof.c **** 			SLOGF(SLOG_WARN, "%s:[%d]: The LM3644 Device ID  = 0x%Xis invalid",
 358              		.loc 1 292 0
 359 014e 40F22513 		movw	r3, #293
 360 0152 C2F3C202 		ubfx	r2, r2, #3, #3
 361 0156 0A20     		movs	r0, #10
 362              	.LVL30:
 363 0158 0093     		str	r3, [sp]
 364 015a 0421     		movs	r1, #4
 365 015c 0192     		str	r2, [sp, #4]
 366 015e 104B     		ldr	r3, .L12+32
 367 0160 124A     		ldr	r2, .L12+44
 368 0162 B847     		blx	r7
 369              	.LVL31:
 370 0164 3046     		mov	r0, r6
 371 0166 08E0     		b	.L8
 372              	.LVL32:
 373              	.L5:
 293:/home/tienluong/workspace/atlantis_fw/platform/driver/src/tof.c **** 				__FUNCTION__, __LINE__, deviceID_reg->devideID);
 294:/home/tienluong/workspace/atlantis_fw/platform/driver/src/tof.c **** 	}
 295:/home/tienluong/workspace/atlantis_fw/platform/driver/src/tof.c **** 	else
 296:/home/tienluong/workspace/atlantis_fw/platform/driver/src/tof.c **** 		SLOGF(SLOG_INFO, "%s:[%d]: I2C Read time-out", __FUNCTION__, __LINE__);
 374              		.loc 1 296 0
 375 0168 4FF49473 		mov	r3, #296
 376 016c 0A20     		movs	r0, #10
 377              	.LVL33:
 378 016e 0093     		str	r3, [sp]
 379 0170 4146     		mov	r1, r8
 380 0172 0F4A     		ldr	r2, .L12+48
 381 0174 0A4B     		ldr	r3, .L12+32
 382 0176 B847     		blx	r7
 383              	.LVL34:
 384 0178 2846     		mov	r0, r5
 385              	.L8:
 386              	.LVL35:
 297:/home/tienluong/workspace/atlantis_fw/platform/driver/src/tof.c **** 	return ret;
 298:/home/tienluong/workspace/atlantis_fw/platform/driver/src/tof.c **** }
 387              		.loc 1 298 0
 388 017a 09B0     		add	sp, sp, #36
 389              	.LCFI4:
 390              		.cfi_def_cfa_offset 36
 391              		@ sp needed
 392 017c BDE8F08F 		pop	{r4, r5, r6, r7, r8, r9, r10, fp, pc}
 393              	.LVL36:
 394              	.L13:
 395              		.align	2
 396              	.L12:
 397 0180 00000000 		.word	.LANCHOR1
 398 0184 00000000 		.word	.LANCHOR0
 399 0188 00000000 		.word	hal_pwm_init
 400 018c 00000000 		.word	hal_pwm_set_high
 401 0190 00000000 		.word	hal_gpio_init
 402 0194 00000000 		.word	hal_gpio_set_low
 403 0198 00000000 		.word	slogf
 404 019c 00000000 		.word	.LC0
 405 01a0 00000000 		.word	.LANCHOR4
 406 01a4 2C000000 		.word	.LC1
 407 01a8 5A000000 		.word	.LC2
 408 01ac A0000000 		.word	.LC3
 409 01b0 D0000000 		.word	.LC4
 410 01b4 00000000 		.word	i2cm
 411 01b8 00000000 		.word	.LANCHOR2
 412 01bc 00000000 		.word	.LANCHOR3
 413 01c0 00000000 		.word	lm3644_write
 414              		.cfi_endproc
 415              	.LFE3:
 417              		.section	.text.flash_light_deinit,"ax",%progbits
 418              		.align	1
 419              		.global	flash_light_deinit
 420              		.thumb
 421              		.thumb_func
 423              	flash_light_deinit:
 424              	.LFB4:
 299:/home/tienluong/workspace/atlantis_fw/platform/driver/src/tof.c **** 
 300:/home/tienluong/workspace/atlantis_fw/platform/driver/src/tof.c **** /*
 301:/home/tienluong/workspace/atlantis_fw/platform/driver/src/tof.c ****  * lm3644_configure
 302:/home/tienluong/workspace/atlantis_fw/platform/driver/src/tof.c ****  * Configure the Flash LED devices, input lm3644_info_t
 303:/home/tienluong/workspace/atlantis_fw/platform/driver/src/tof.c ****  */
 304:/home/tienluong/workspace/atlantis_fw/platform/driver/src/tof.c **** int flash_light_deinit(hal_i2c_channel_t chid, lm3644_info_t *info)
 305:/home/tienluong/workspace/atlantis_fw/platform/driver/src/tof.c **** {
 425              		.loc 1 305 0
 426              		.cfi_startproc
 427              		@ args = 0, pretend = 0, frame = 0
 428              		@ frame_needed = 0, uses_anonymous_args = 0
 429              	.LVL37:
 430 0000 38B5     		push	{r3, r4, r5, lr}
 431              	.LCFI5:
 432              		.cfi_def_cfa_offset 16
 433              		.cfi_offset 3, -16
 434              		.cfi_offset 4, -12
 435              		.cfi_offset 5, -8
 436              		.cfi_offset 14, -4
 306:/home/tienluong/workspace/atlantis_fw/platform/driver/src/tof.c **** 	flash_light_status_t ret = LM3644_OK;
 307:/home/tienluong/workspace/atlantis_fw/platform/driver/src/tof.c **** 
 308:/home/tienluong/workspace/atlantis_fw/platform/driver/src/tof.c **** 	hal_pwm_set_low(PWM1_CH4, PWM_PIN_POS);
 437              		.loc 1 308 0
 438 0002 0021     		movs	r1, #0
 439              	.LVL38:
 440 0004 064B     		ldr	r3, .L15
 309:/home/tienluong/workspace/atlantis_fw/platform/driver/src/tof.c **** 	/* config gpio is input */
 310:/home/tienluong/workspace/atlantis_fw/platform/driver/src/tof.c **** 	gpio_flash_trig.direction	= GPIO_DIR_IN;
 441              		.loc 1 310 0
 442 0006 0024     		movs	r4, #0
 308:/home/tienluong/workspace/atlantis_fw/platform/driver/src/tof.c **** 	/* config gpio is input */
 443              		.loc 1 308 0
 444 0008 0920     		movs	r0, #9
 445              	.LVL39:
 446 000a 9847     		blx	r3
 447              	.LVL40:
 311:/home/tienluong/workspace/atlantis_fw/platform/driver/src/tof.c **** 	hal_gpio_init(&gpio_flash_trig);
 448              		.loc 1 311 0
 449 000c 054D     		ldr	r5, .L15+4
 310:/home/tienluong/workspace/atlantis_fw/platform/driver/src/tof.c **** 	hal_gpio_init(&gpio_flash_trig);
 450              		.loc 1 310 0
 451 000e 0648     		ldr	r0, .L15+8
 452 0010 8470     		strb	r4, [r0, #2]
 453              		.loc 1 311 0
 454 0012 A847     		blx	r5
 455              	.LVL41:
 312:/home/tienluong/workspace/atlantis_fw/platform/driver/src/tof.c **** 
 313:/home/tienluong/workspace/atlantis_fw/platform/driver/src/tof.c **** 	gpio_torch_trig.direction	= GPIO_DIR_IN;
 456              		.loc 1 313 0
 457 0014 0548     		ldr	r0, .L15+12
 458 0016 8470     		strb	r4, [r0, #2]
 314:/home/tienluong/workspace/atlantis_fw/platform/driver/src/tof.c **** 	hal_gpio_init(&gpio_torch_trig);
 459              		.loc 1 314 0
 460 0018 A847     		blx	r5
 461              	.LVL42:
 315:/home/tienluong/workspace/atlantis_fw/platform/driver/src/tof.c **** 
 316:/home/tienluong/workspace/atlantis_fw/platform/driver/src/tof.c **** 	return ret;
 317:/home/tienluong/workspace/atlantis_fw/platform/driver/src/tof.c **** }
 462              		.loc 1 317 0
 463 001a 2046     		mov	r0, r4
 464 001c 38BD     		pop	{r3, r4, r5, pc}
 465              	.L16:
 466 001e 00BF     		.align	2
 467              	.L15:
 468 0020 00000000 		.word	hal_pwm_set_low
 469 0024 00000000 		.word	hal_gpio_init
 470 0028 00000000 		.word	.LANCHOR2
 471 002c 00000000 		.word	.LANCHOR3
 472              		.cfi_endproc
 473              	.LFE4:
 475              		.section	.text.flash_triger_pin,"ax",%progbits
 476              		.align	1
 477              		.global	flash_triger_pin
 478              		.thumb
 479              		.thumb_func
 481              	flash_triger_pin:
 482              	.LFB5:
 318:/home/tienluong/workspace/atlantis_fw/platform/driver/src/tof.c **** 
 319:/home/tienluong/workspace/atlantis_fw/platform/driver/src/tof.c **** void flash_triger_pin(uint8_t state)
 320:/home/tienluong/workspace/atlantis_fw/platform/driver/src/tof.c **** {
 483              		.loc 1 320 0
 484              		.cfi_startproc
 485              		@ args = 0, pretend = 0, frame = 0
 486              		@ frame_needed = 0, uses_anonymous_args = 0
 487              	.LVL43:
 488 0000 08B5     		push	{r3, lr}
 489              	.LCFI6:
 490              		.cfi_def_cfa_offset 8
 491              		.cfi_offset 3, -8
 492              		.cfi_offset 14, -4
 321:/home/tienluong/workspace/atlantis_fw/platform/driver/src/tof.c **** 	if(state)
 493              		.loc 1 321 0
 494 0002 10B1     		cbz	r0, .L18
 322:/home/tienluong/workspace/atlantis_fw/platform/driver/src/tof.c **** 		hal_gpio_set_high(&gpio_flash_trig);
 495              		.loc 1 322 0
 496 0004 0348     		ldr	r0, .L21
 497              	.LVL44:
 498 0006 044B     		ldr	r3, .L21+4
 499 0008 01E0     		b	.L20
 500              	.LVL45:
 501              	.L18:
 323:/home/tienluong/workspace/atlantis_fw/platform/driver/src/tof.c **** 	else
 324:/home/tienluong/workspace/atlantis_fw/platform/driver/src/tof.c **** 		hal_gpio_set_low(&gpio_flash_trig);
 502              		.loc 1 324 0
 503 000a 0248     		ldr	r0, .L21
 504              	.LVL46:
 505 000c 034B     		ldr	r3, .L21+8
 506              	.L20:
 507 000e 9847     		blx	r3
 508              	.LVL47:
 509 0010 08BD     		pop	{r3, pc}
 510              	.L22:
 511 0012 00BF     		.align	2
 512              	.L21:
 513 0014 00000000 		.word	.LANCHOR2
 514 0018 00000000 		.word	hal_gpio_set_high
 515 001c 00000000 		.word	hal_gpio_set_low
 516              		.cfi_endproc
 517              	.LFE5:
 519              		.global	__aeabi_i2d
 520              		.global	__aeabi_dsub
 521              		.global	__aeabi_ddiv
 522              		.global	__aeabi_d2uiz
 523              		.section	.text.flash_light_control,"ax",%progbits
 524              		.align	1
 525              		.global	flash_light_control
 526              		.thumb
 527              		.thumb_func
 529              	flash_light_control:
 530              	.LFB6:
 325:/home/tienluong/workspace/atlantis_fw/platform/driver/src/tof.c **** }
 326:/home/tienluong/workspace/atlantis_fw/platform/driver/src/tof.c **** 
 327:/home/tienluong/workspace/atlantis_fw/platform/driver/src/tof.c **** uint8_t flash_light_control(uint8_t chid, lm3644_info_t *info)
 328:/home/tienluong/workspace/atlantis_fw/platform/driver/src/tof.c **** {
 531              		.loc 1 328 0
 532              		.cfi_startproc
 533              		@ args = 0, pretend = 0, frame = 16
 534              		@ frame_needed = 0, uses_anonymous_args = 0
 535              	.LVL48:
 536 0000 2DE9F04F 		push	{r4, r5, r6, r7, r8, r9, r10, fp, lr}
 537              	.LCFI7:
 538              		.cfi_def_cfa_offset 36
 539              		.cfi_offset 4, -36
 540              		.cfi_offset 5, -32
 541              		.cfi_offset 6, -28
 542              		.cfi_offset 7, -24
 543              		.cfi_offset 8, -20
 544              		.cfi_offset 9, -16
 545              		.cfi_offset 10, -12
 546              		.cfi_offset 11, -8
 547              		.cfi_offset 14, -4
 329:/home/tienluong/workspace/atlantis_fw/platform/driver/src/tof.c **** 	flash_light_status_t ret = LM3644_OK;
 330:/home/tienluong/workspace/atlantis_fw/platform/driver/src/tof.c **** 	uint8_t led1 = 0;
 331:/home/tienluong/workspace/atlantis_fw/platform/driver/src/tof.c **** 	uint8_t led2 = 0;
 332:/home/tienluong/workspace/atlantis_fw/platform/driver/src/tof.c **** 	lm3644_enable_reg_t mmode = info->enable_reg;
 333:/home/tienluong/workspace/atlantis_fw/platform/driver/src/tof.c **** 	switch(info->flash_mode)
 548              		.loc 1 333 0
 549 0004 91F81480 		ldrb	r8, [r1, #20]	@ zero_extendqisi2
 332:/home/tienluong/workspace/atlantis_fw/platform/driver/src/tof.c **** 	switch(info->flash_mode)
 550              		.loc 1 332 0
 551 0008 CB78     		ldrb	r3, [r1, #3]	@ zero_extendqisi2
 328:/home/tienluong/workspace/atlantis_fw/platform/driver/src/tof.c **** 	flash_light_status_t ret = LM3644_OK;
 552              		.loc 1 328 0
 553 000a 85B0     		sub	sp, sp, #20
 554              	.LCFI8:
 555              		.cfi_def_cfa_offset 56
 328:/home/tienluong/workspace/atlantis_fw/platform/driver/src/tof.c **** 	flash_light_status_t ret = LM3644_OK;
 556              		.loc 1 328 0
 557 000c 0646     		mov	r6, r0
 332:/home/tienluong/workspace/atlantis_fw/platform/driver/src/tof.c **** 	switch(info->flash_mode)
 558              		.loc 1 332 0
 559 000e 04AF     		add	r7, sp, #16
 330:/home/tienluong/workspace/atlantis_fw/platform/driver/src/tof.c **** 	uint8_t led2 = 0;
 560              		.loc 1 330 0
 561 0010 0020     		movs	r0, #0
 562              	.LVL49:
 563              		.loc 1 333 0
 564 0012 B8F1020F 		cmp	r8, #2
 332:/home/tienluong/workspace/atlantis_fw/platform/driver/src/tof.c **** 	switch(info->flash_mode)
 565              		.loc 1 332 0
 566 0016 07F8043D 		strb	r3, [r7, #-4]!
 328:/home/tienluong/workspace/atlantis_fw/platform/driver/src/tof.c **** 	flash_light_status_t ret = LM3644_OK;
 567              		.loc 1 328 0
 568 001a 0C46     		mov	r4, r1
 569 001c 8B78     		ldrb	r3, [r1, #2]	@ zero_extendqisi2
 330:/home/tienluong/workspace/atlantis_fw/platform/driver/src/tof.c **** 	uint8_t led2 = 0;
 570              		.loc 1 330 0
 571 001e 8DF80E00 		strb	r0, [sp, #14]
 331:/home/tienluong/workspace/atlantis_fw/platform/driver/src/tof.c **** 	lm3644_enable_reg_t mmode = info->enable_reg;
 572              		.loc 1 331 0
 573 0022 8DF80F00 		strb	r0, [sp, #15]
 574 0026 0093     		str	r3, [sp]
 575 0028 554D     		ldr	r5, .L31+32
 576              		.loc 1 333 0
 577 002a 37D0     		beq	.L25
 578 002c B8F1040F 		cmp	r8, #4
 579 0030 7BD0     		beq	.L26
 580 0032 B8F1010F 		cmp	r8, #1
 581 0036 7FD1     		bne	.L29
 334:/home/tienluong/workspace/atlantis_fw/platform/driver/src/tof.c **** 	{
 335:/home/tienluong/workspace/atlantis_fw/platform/driver/src/tof.c **** 		case FLASH_FLASH_MODE:
 336:/home/tienluong/workspace/atlantis_fw/platform/driver/src/tof.c **** 			led1 = (uint8_t)((info->led1_cur_mA - 10.9)/11.725);
 582              		.loc 1 336 0
 583 0038 DFF848B1 		ldr	fp, .L31+36
 584 003c 0889     		ldrh	r0, [r1, #8]
 585 003e D847     		blx	fp
 586              	.LVL50:
 587 0040 DFF844A1 		ldr	r10, .L31+40
 588 0044 46A3     		adr	r3, .L31
 589 0046 D3E90023 		ldrd	r2, [r3]
 590 004a D047     		blx	r10
 591              	.LVL51:
 592 004c DFF83C91 		ldr	r9, .L31+44
 593 0050 45A3     		adr	r3, .L31+8
 594 0052 D3E90023 		ldrd	r2, [r3]
 595 0056 C847     		blx	r9
 596              	.LVL52:
 597 0058 DFF83481 		ldr	r8, .L31+48
 598 005c C047     		blx	r8
 599              	.LVL53:
 600 005e 8DF80E00 		strb	r0, [sp, #14]
 337:/home/tienluong/workspace/atlantis_fw/platform/driver/src/tof.c **** 			led2 = (uint8_t)((info->led2_cur_mA - 10.9)/11.725);
 601              		.loc 1 337 0
 602 0062 6089     		ldrh	r0, [r4, #10]
 603 0064 D847     		blx	fp
 604              	.LVL54:
 605 0066 3EA3     		adr	r3, .L31
 606 0068 D3E90023 		ldrd	r2, [r3]
 607 006c D047     		blx	r10
 608              	.LVL55:
 609 006e 3EA3     		adr	r3, .L31+8
 610 0070 D3E90023 		ldrd	r2, [r3]
 611 0074 C847     		blx	r9
 612              	.LVL56:
 613 0076 C047     		blx	r8
 614              	.LVL57:
 338:/home/tienluong/workspace/atlantis_fw/platform/driver/src/tof.c **** 			ret |= lm3644_write(chid, info->i2c_addr,
 615              		.loc 1 338 0
 616 0078 0099     		ldr	r1, [sp]
 617 007a 0322     		movs	r2, #3
 618 007c 0DF10E03 		add	r3, sp, #14
 337:/home/tienluong/workspace/atlantis_fw/platform/driver/src/tof.c **** 			led2 = (uint8_t)((info->led2_cur_mA - 10.9)/11.725);
 619              		.loc 1 337 0
 620 0080 8DF80F00 		strb	r0, [sp, #15]
 621              		.loc 1 338 0
 622 0084 3046     		mov	r0, r6
 623 0086 A847     		blx	r5
 624              	.LVL58:
 339:/home/tienluong/workspace/atlantis_fw/platform/driver/src/tof.c **** 				LM3644_REG_LED1_FLASH_BRIGHT, &led1);
 340:/home/tienluong/workspace/atlantis_fw/platform/driver/src/tof.c **** 			ret |= lm3644_write(chid, info->i2c_addr,
 625              		.loc 1 340 0
 626 0088 A178     		ldrb	r1, [r4, #2]	@ zero_extendqisi2
 627 008a 0422     		movs	r2, #4
 628 008c 0DF10F03 		add	r3, sp, #15
 338:/home/tienluong/workspace/atlantis_fw/platform/driver/src/tof.c **** 			ret |= lm3644_write(chid, info->i2c_addr,
 629              		.loc 1 338 0
 630 0090 8046     		mov	r8, r0
 631              	.LVL59:
 632              		.loc 1 340 0
 633 0092 3046     		mov	r0, r6
 634 0094 A847     		blx	r5
 635              	.LVL60:
 636 0096 40EA0800 		orr	r0, r0, r8
 637 009a 43E0     		b	.L30
 638              	.LVL61:
 639              	.L25:
 341:/home/tienluong/workspace/atlantis_fw/platform/driver/src/tof.c **** 				LM3644_REG_LED2_FLASH_BRIGHT, &led2);
 342:/home/tienluong/workspace/atlantis_fw/platform/driver/src/tof.c **** 			break;
 343:/home/tienluong/workspace/atlantis_fw/platform/driver/src/tof.c **** 		case FLASH_TORCH_MODE:
 344:/home/tienluong/workspace/atlantis_fw/platform/driver/src/tof.c **** 			led1 = (uint8_t)((info->led1_cur_mA - 1.954)/2.8);
 640              		.loc 1 344 0
 641 009c DFF8E4C0 		ldr	ip, .L31+36
 642 00a0 0889     		ldrh	r0, [r1, #8]
 643 00a2 CDF804C0 		str	ip, [sp, #4]
 644 00a6 E047     		blx	ip
 645              	.LVL62:
 646 00a8 DFF8DCB0 		ldr	fp, .L31+40
 647 00ac 30A3     		adr	r3, .L31+16
 648 00ae D3E90023 		ldrd	r2, [r3]
 649 00b2 D847     		blx	fp
 650              	.LVL63:
 651 00b4 DFF8D4A0 		ldr	r10, .L31+44
 652 00b8 2FA3     		adr	r3, .L31+24
 653 00ba D3E90023 		ldrd	r2, [r3]
 654 00be D047     		blx	r10
 655              	.LVL64:
 656 00c0 DFF8CC90 		ldr	r9, .L31+48
 657 00c4 C847     		blx	r9
 658              	.LVL65:
 345:/home/tienluong/workspace/atlantis_fw/platform/driver/src/tof.c **** 			led2 = (uint8_t)((info->led2_cur_mA - 1.954)/2.8);
 659              		.loc 1 345 0
 660 00c6 DDF804C0 		ldr	ip, [sp, #4]
 344:/home/tienluong/workspace/atlantis_fw/platform/driver/src/tof.c **** 			led2 = (uint8_t)((info->led2_cur_mA - 1.954)/2.8);
 661              		.loc 1 344 0
 662 00ca 8DF80E00 		strb	r0, [sp, #14]
 663              		.loc 1 345 0
 664 00ce 6089     		ldrh	r0, [r4, #10]
 665 00d0 E047     		blx	ip
 666              	.LVL66:
 667 00d2 27A3     		adr	r3, .L31+16
 668 00d4 D3E90023 		ldrd	r2, [r3]
 669 00d8 D847     		blx	fp
 670              	.LVL67:
 671 00da 27A3     		adr	r3, .L31+24
 672 00dc D3E90023 		ldrd	r2, [r3]
 673 00e0 D047     		blx	r10
 674              	.LVL68:
 675 00e2 C847     		blx	r9
 676              	.LVL69:
 346:/home/tienluong/workspace/atlantis_fw/platform/driver/src/tof.c **** 			ret |= lm3644_write(chid, info->i2c_addr,
 677              		.loc 1 346 0
 678 00e4 0099     		ldr	r1, [sp]
 679 00e6 0522     		movs	r2, #5
 680 00e8 0DF10E03 		add	r3, sp, #14
 345:/home/tienluong/workspace/atlantis_fw/platform/driver/src/tof.c **** 			led2 = (uint8_t)((info->led2_cur_mA - 1.954)/2.8);
 681              		.loc 1 345 0
 682 00ec 8DF80F00 		strb	r0, [sp, #15]
 683              		.loc 1 346 0
 684 00f0 3046     		mov	r0, r6
 685 00f2 A847     		blx	r5
 686              	.LVL70:
 347:/home/tienluong/workspace/atlantis_fw/platform/driver/src/tof.c **** 				LM3644_REG_LED1_TORCH_BRIGHT, &led1);
 348:/home/tienluong/workspace/atlantis_fw/platform/driver/src/tof.c **** 			ret |= lm3644_write(chid, info->i2c_addr,
 687              		.loc 1 348 0
 688 00f4 A178     		ldrb	r1, [r4, #2]	@ zero_extendqisi2
 689 00f6 0622     		movs	r2, #6
 690 00f8 0DF10F03 		add	r3, sp, #15
 346:/home/tienluong/workspace/atlantis_fw/platform/driver/src/tof.c **** 			ret |= lm3644_write(chid, info->i2c_addr,
 691              		.loc 1 346 0
 692 00fc 8146     		mov	r9, r0
 693              	.LVL71:
 694              		.loc 1 348 0
 695 00fe 3046     		mov	r0, r6
 696 0100 A847     		blx	r5
 697              	.LVL72:
 349:/home/tienluong/workspace/atlantis_fw/platform/driver/src/tof.c **** 				LM3644_REG_LED2_TORCH_BRIGHT, &led2);
 350:/home/tienluong/workspace/atlantis_fw/platform/driver/src/tof.c **** 			mmode.mode = LM3644_MODE_TORCH;
 698              		.loc 1 350 0
 699 0102 9DF80C30 		ldrb	r3, [sp, #12]	@ zero_extendqisi2
 700 0106 68F38303 		bfi	r3, r8, #2, #2
 351:/home/tienluong/workspace/atlantis_fw/platform/driver/src/tof.c **** 			ret |= lm3644_write(chid, info->i2c_addr,
 701              		.loc 1 351 0
 702 010a A178     		ldrb	r1, [r4, #2]	@ zero_extendqisi2
 703 010c 0122     		movs	r2, #1
 350:/home/tienluong/workspace/atlantis_fw/platform/driver/src/tof.c **** 			ret |= lm3644_write(chid, info->i2c_addr,
 704              		.loc 1 350 0
 705 010e 8DF80C30 		strb	r3, [sp, #12]
 706              		.loc 1 351 0
 707 0112 3B46     		mov	r3, r7
 348:/home/tienluong/workspace/atlantis_fw/platform/driver/src/tof.c **** 				LM3644_REG_LED2_TORCH_BRIGHT, &led2);
 708              		.loc 1 348 0
 709 0114 40EA0900 		orr	r0, r0, r9
 710 0118 5FFA80F9 		uxtb	r9, r0
 711              	.LVL73:
 712              		.loc 1 351 0
 713 011c 3046     		mov	r0, r6
 714 011e A847     		blx	r5
 715              	.LVL74:
 716 0120 49EA0000 		orr	r0, r9, r0
 717              	.LVL75:
 718              	.L30:
 719 0124 5FFA80F8 		uxtb	r8, r0
 720              	.LVL76:
 352:/home/tienluong/workspace/atlantis_fw/platform/driver/src/tof.c **** 				LM3644_REG_ENABLE, (uint8_t *) &mmode);
 353:/home/tienluong/workspace/atlantis_fw/platform/driver/src/tof.c **** 			break;
 721              		.loc 1 353 0
 722 0128 07E0     		b	.L24
 723              	.LVL77:
 724              	.L26:
 354:/home/tienluong/workspace/atlantis_fw/platform/driver/src/tof.c **** 		case FLASH_IR_MODE:
 355:/home/tienluong/workspace/atlantis_fw/platform/driver/src/tof.c **** 			mmode.mode = LM3644_MODE_IR_DRIVE;
 725              		.loc 1 355 0
 726 012a 0122     		movs	r2, #1
 727 012c 9DF80C30 		ldrb	r3, [sp, #12]	@ zero_extendqisi2
 728 0130 62F38303 		bfi	r3, r2, #2, #2
 729 0134 8DF80C30 		strb	r3, [sp, #12]
 730              	.L29:
 329:/home/tienluong/workspace/atlantis_fw/platform/driver/src/tof.c **** 	uint8_t led1 = 0;
 731              		.loc 1 329 0
 732 0138 8046     		mov	r8, r0
 733              	.LVL78:
 734              	.L24:
 356:/home/tienluong/workspace/atlantis_fw/platform/driver/src/tof.c **** 			break;
 357:/home/tienluong/workspace/atlantis_fw/platform/driver/src/tof.c **** 	}
 358:/home/tienluong/workspace/atlantis_fw/platform/driver/src/tof.c **** 	mmode.strobe_enable = 1;
 735              		.loc 1 358 0
 736 013a 9DF80C30 		ldrb	r3, [sp, #12]	@ zero_extendqisi2
 737 013e 43F02003 		orr	r3, r3, #32
 359:/home/tienluong/workspace/atlantis_fw/platform/driver/src/tof.c **** 	ret |= lm3644_write(chid, info->i2c_addr,
 738              		.loc 1 359 0
 739 0142 3046     		mov	r0, r6
 740 0144 A178     		ldrb	r1, [r4, #2]	@ zero_extendqisi2
 358:/home/tienluong/workspace/atlantis_fw/platform/driver/src/tof.c **** 	ret |= lm3644_write(chid, info->i2c_addr,
 741              		.loc 1 358 0
 742 0146 8DF80C30 		strb	r3, [sp, #12]
 743              		.loc 1 359 0
 744 014a 0122     		movs	r2, #1
 745 014c 3B46     		mov	r3, r7
 746 014e A847     		blx	r5
 747              	.LVL79:
 748 0150 40EA0800 		orr	r0, r0, r8
 749              	.LVL80:
 360:/home/tienluong/workspace/atlantis_fw/platform/driver/src/tof.c **** 		LM3644_REG_ENABLE, (uint8_t *) &mmode);
 361:/home/tienluong/workspace/atlantis_fw/platform/driver/src/tof.c **** 	return ret;
 362:/home/tienluong/workspace/atlantis_fw/platform/driver/src/tof.c **** }
 750              		.loc 1 362 0
 751 0154 C0B2     		uxtb	r0, r0
 752 0156 05B0     		add	sp, sp, #20
 753              	.LCFI9:
 754              		.cfi_def_cfa_offset 36
 755              		@ sp needed
 756 0158 BDE8F08F 		pop	{r4, r5, r6, r7, r8, r9, r10, fp, pc}
 757              	.LVL81:
 758              	.L32:
 759 015c AFF30080 		.align	3
 760              	.L31:
 761 0160 CDCCCCCC 		.word	-858993459
 762 0164 CCCC2540 		.word	1076219084
 763 0168 33333333 		.word	858993459
 764 016c 33732740 		.word	1076327219
 765 0170 DD240681 		.word	-2130303779
 766 0174 9543FF3F 		.word	1073693589
 767 0178 66666666 		.word	1717986918
 768 017c 66660640 		.word	1074161254
 769 0180 00000000 		.word	lm3644_write
 770 0184 00000000 		.word	__aeabi_i2d
 771 0188 00000000 		.word	__aeabi_dsub
 772 018c 00000000 		.word	__aeabi_ddiv
 773 0190 00000000 		.word	__aeabi_d2uiz
 774              		.cfi_endproc
 775              	.LFE6:
 777 0194 AFF30080 		.section	.text.VL53L0X_WrByte,"ax",%progbits
 778              		.align	1
 779              		.global	VL53L0X_WrByte
 780              		.thumb
 781              		.thumb_func
 783              	VL53L0X_WrByte:
 784              	.LFB7:
 363:/home/tienluong/workspace/atlantis_fw/platform/driver/src/tof.c **** #ifdef USING_TOF_FUNC
 364:/home/tienluong/workspace/atlantis_fw/platform/driver/src/tof.c **** /*******************************************************************************
 365:/home/tienluong/workspace/atlantis_fw/platform/driver/src/tof.c ****  *     The below source codes using for ToF VL53L0 ported from ST's example    *
 366:/home/tienluong/workspace/atlantis_fw/platform/driver/src/tof.c ****  ******************************************************************************/
 367:/home/tienluong/workspace/atlantis_fw/platform/driver/src/tof.c **** 
 368:/home/tienluong/workspace/atlantis_fw/platform/driver/src/tof.c **** uint8_t DefaultTuningSettings[] =
 369:/home/tienluong/workspace/atlantis_fw/platform/driver/src/tof.c **** {
 370:/home/tienluong/workspace/atlantis_fw/platform/driver/src/tof.c **** 	0x01, 0xFF, 0x01,
 371:/home/tienluong/workspace/atlantis_fw/platform/driver/src/tof.c **** 	0x01, 0x00, 0x00,
 372:/home/tienluong/workspace/atlantis_fw/platform/driver/src/tof.c **** 
 373:/home/tienluong/workspace/atlantis_fw/platform/driver/src/tof.c **** 	0x01, 0xFF, 0x00,
 374:/home/tienluong/workspace/atlantis_fw/platform/driver/src/tof.c **** 	0x01, 0x09, 0x00,
 375:/home/tienluong/workspace/atlantis_fw/platform/driver/src/tof.c **** 	0x01, 0x10, 0x00,
 376:/home/tienluong/workspace/atlantis_fw/platform/driver/src/tof.c **** 	0x01, 0x11, 0x00,
 377:/home/tienluong/workspace/atlantis_fw/platform/driver/src/tof.c **** 
 378:/home/tienluong/workspace/atlantis_fw/platform/driver/src/tof.c **** 	0x01, 0x24, 0x01,
 379:/home/tienluong/workspace/atlantis_fw/platform/driver/src/tof.c **** 	0x01, 0x25, 0xff,
 380:/home/tienluong/workspace/atlantis_fw/platform/driver/src/tof.c **** 	0x01, 0x75, 0x00,
 381:/home/tienluong/workspace/atlantis_fw/platform/driver/src/tof.c **** 
 382:/home/tienluong/workspace/atlantis_fw/platform/driver/src/tof.c **** 	0x01, 0xFF, 0x01,
 383:/home/tienluong/workspace/atlantis_fw/platform/driver/src/tof.c **** 	0x01, 0x4e, 0x2c,
 384:/home/tienluong/workspace/atlantis_fw/platform/driver/src/tof.c **** 	0x01, 0x48, 0x00,
 385:/home/tienluong/workspace/atlantis_fw/platform/driver/src/tof.c **** 	0x01, 0x30, 0x20,
 386:/home/tienluong/workspace/atlantis_fw/platform/driver/src/tof.c **** 
 387:/home/tienluong/workspace/atlantis_fw/platform/driver/src/tof.c **** 	0x01, 0xFF, 0x00,
 388:/home/tienluong/workspace/atlantis_fw/platform/driver/src/tof.c **** 	0x01, 0x30, 0x09,
 389:/home/tienluong/workspace/atlantis_fw/platform/driver/src/tof.c **** 	0x01, 0x54, 0x00,
 390:/home/tienluong/workspace/atlantis_fw/platform/driver/src/tof.c **** 	0x01, 0x31, 0x04,
 391:/home/tienluong/workspace/atlantis_fw/platform/driver/src/tof.c **** 	0x01, 0x32, 0x03,
 392:/home/tienluong/workspace/atlantis_fw/platform/driver/src/tof.c **** 	0x01, 0x40, 0x83,
 393:/home/tienluong/workspace/atlantis_fw/platform/driver/src/tof.c **** 	0x01, 0x46, 0x25,
 394:/home/tienluong/workspace/atlantis_fw/platform/driver/src/tof.c **** 	0x01, 0x60, 0x00,
 395:/home/tienluong/workspace/atlantis_fw/platform/driver/src/tof.c **** 	0x01, 0x27, 0x00,
 396:/home/tienluong/workspace/atlantis_fw/platform/driver/src/tof.c **** 	0x01, 0x50, 0x06,
 397:/home/tienluong/workspace/atlantis_fw/platform/driver/src/tof.c **** 	0x01, 0x51, 0x00,
 398:/home/tienluong/workspace/atlantis_fw/platform/driver/src/tof.c **** 	0x01, 0x52, 0x96,
 399:/home/tienluong/workspace/atlantis_fw/platform/driver/src/tof.c **** 	0x01, 0x56, 0x08,
 400:/home/tienluong/workspace/atlantis_fw/platform/driver/src/tof.c **** 	0x01, 0x57, 0x30,
 401:/home/tienluong/workspace/atlantis_fw/platform/driver/src/tof.c **** 	0x01, 0x61, 0x00,
 402:/home/tienluong/workspace/atlantis_fw/platform/driver/src/tof.c **** 	0x01, 0x62, 0x00,
 403:/home/tienluong/workspace/atlantis_fw/platform/driver/src/tof.c **** 	0x01, 0x64, 0x00,
 404:/home/tienluong/workspace/atlantis_fw/platform/driver/src/tof.c **** 	0x01, 0x65, 0x00,
 405:/home/tienluong/workspace/atlantis_fw/platform/driver/src/tof.c **** 	0x01, 0x66, 0xa0,
 406:/home/tienluong/workspace/atlantis_fw/platform/driver/src/tof.c **** 
 407:/home/tienluong/workspace/atlantis_fw/platform/driver/src/tof.c **** 	0x01, 0xFF, 0x01,
 408:/home/tienluong/workspace/atlantis_fw/platform/driver/src/tof.c **** 	0x01, 0x22, 0x32,
 409:/home/tienluong/workspace/atlantis_fw/platform/driver/src/tof.c **** 	0x01, 0x47, 0x14,
 410:/home/tienluong/workspace/atlantis_fw/platform/driver/src/tof.c **** 	0x01, 0x49, 0xff,
 411:/home/tienluong/workspace/atlantis_fw/platform/driver/src/tof.c **** 	0x01, 0x4a, 0x00,
 412:/home/tienluong/workspace/atlantis_fw/platform/driver/src/tof.c **** 
 413:/home/tienluong/workspace/atlantis_fw/platform/driver/src/tof.c **** 	0x01, 0xFF, 0x00,
 414:/home/tienluong/workspace/atlantis_fw/platform/driver/src/tof.c **** 	0x01, 0x7a, 0x0a,
 415:/home/tienluong/workspace/atlantis_fw/platform/driver/src/tof.c **** 	0x01, 0x7b, 0x00,
 416:/home/tienluong/workspace/atlantis_fw/platform/driver/src/tof.c **** 	0x01, 0x78, 0x21,
 417:/home/tienluong/workspace/atlantis_fw/platform/driver/src/tof.c **** 
 418:/home/tienluong/workspace/atlantis_fw/platform/driver/src/tof.c **** 	0x01, 0xFF, 0x01,
 419:/home/tienluong/workspace/atlantis_fw/platform/driver/src/tof.c **** 	0x01, 0x23, 0x34,
 420:/home/tienluong/workspace/atlantis_fw/platform/driver/src/tof.c **** 	0x01, 0x42, 0x00,
 421:/home/tienluong/workspace/atlantis_fw/platform/driver/src/tof.c **** 	0x01, 0x44, 0xff,
 422:/home/tienluong/workspace/atlantis_fw/platform/driver/src/tof.c **** 	0x01, 0x45, 0x26,
 423:/home/tienluong/workspace/atlantis_fw/platform/driver/src/tof.c **** 	0x01, 0x46, 0x05,
 424:/home/tienluong/workspace/atlantis_fw/platform/driver/src/tof.c **** 	0x01, 0x40, 0x40,
 425:/home/tienluong/workspace/atlantis_fw/platform/driver/src/tof.c **** 	0x01, 0x0E, 0x06,
 426:/home/tienluong/workspace/atlantis_fw/platform/driver/src/tof.c **** 	0x01, 0x20, 0x1a,
 427:/home/tienluong/workspace/atlantis_fw/platform/driver/src/tof.c **** 	0x01, 0x43, 0x40,
 428:/home/tienluong/workspace/atlantis_fw/platform/driver/src/tof.c **** 
 429:/home/tienluong/workspace/atlantis_fw/platform/driver/src/tof.c **** 	0x01, 0xFF, 0x00,
 430:/home/tienluong/workspace/atlantis_fw/platform/driver/src/tof.c **** 	0x01, 0x34, 0x03,
 431:/home/tienluong/workspace/atlantis_fw/platform/driver/src/tof.c **** 	0x01, 0x35, 0x44,
 432:/home/tienluong/workspace/atlantis_fw/platform/driver/src/tof.c **** 
 433:/home/tienluong/workspace/atlantis_fw/platform/driver/src/tof.c **** 	0x01, 0xFF, 0x01,
 434:/home/tienluong/workspace/atlantis_fw/platform/driver/src/tof.c **** 	0x01, 0x31, 0x04,
 435:/home/tienluong/workspace/atlantis_fw/platform/driver/src/tof.c **** 	0x01, 0x4b, 0x09,
 436:/home/tienluong/workspace/atlantis_fw/platform/driver/src/tof.c **** 	0x01, 0x4c, 0x05,
 437:/home/tienluong/workspace/atlantis_fw/platform/driver/src/tof.c **** 	0x01, 0x4d, 0x04,
 438:/home/tienluong/workspace/atlantis_fw/platform/driver/src/tof.c **** 
 439:/home/tienluong/workspace/atlantis_fw/platform/driver/src/tof.c **** 	0x01, 0xFF, 0x00,
 440:/home/tienluong/workspace/atlantis_fw/platform/driver/src/tof.c **** 	0x01, 0x44, 0x00,
 441:/home/tienluong/workspace/atlantis_fw/platform/driver/src/tof.c **** 	0x01, 0x45, 0x20,
 442:/home/tienluong/workspace/atlantis_fw/platform/driver/src/tof.c **** 	0x01, 0x47, 0x08,
 443:/home/tienluong/workspace/atlantis_fw/platform/driver/src/tof.c **** 	0x01, 0x48, 0x28,
 444:/home/tienluong/workspace/atlantis_fw/platform/driver/src/tof.c **** 	0x01, 0x67, 0x00,
 445:/home/tienluong/workspace/atlantis_fw/platform/driver/src/tof.c **** 	0x01, 0x70, 0x04,
 446:/home/tienluong/workspace/atlantis_fw/platform/driver/src/tof.c **** 	0x01, 0x71, 0x01,
 447:/home/tienluong/workspace/atlantis_fw/platform/driver/src/tof.c **** 	0x01, 0x72, 0xfe,
 448:/home/tienluong/workspace/atlantis_fw/platform/driver/src/tof.c **** 	0x01, 0x76, 0x00,
 449:/home/tienluong/workspace/atlantis_fw/platform/driver/src/tof.c **** 	0x01, 0x77, 0x00,
 450:/home/tienluong/workspace/atlantis_fw/platform/driver/src/tof.c **** 
 451:/home/tienluong/workspace/atlantis_fw/platform/driver/src/tof.c **** 	0x01, 0xFF, 0x01,
 452:/home/tienluong/workspace/atlantis_fw/platform/driver/src/tof.c **** 	0x01, 0x0d, 0x01,
 453:/home/tienluong/workspace/atlantis_fw/platform/driver/src/tof.c **** 
 454:/home/tienluong/workspace/atlantis_fw/platform/driver/src/tof.c **** 	0x01, 0xFF, 0x00,
 455:/home/tienluong/workspace/atlantis_fw/platform/driver/src/tof.c **** 	0x01, 0x80, 0x01,
 456:/home/tienluong/workspace/atlantis_fw/platform/driver/src/tof.c **** 	0x01, 0x01, 0xF8,
 457:/home/tienluong/workspace/atlantis_fw/platform/driver/src/tof.c **** 
 458:/home/tienluong/workspace/atlantis_fw/platform/driver/src/tof.c **** 	0x01, 0xFF, 0x01,
 459:/home/tienluong/workspace/atlantis_fw/platform/driver/src/tof.c **** 	0x01, 0x8e, 0x01,
 460:/home/tienluong/workspace/atlantis_fw/platform/driver/src/tof.c **** 	0x01, 0x00, 0x01,
 461:/home/tienluong/workspace/atlantis_fw/platform/driver/src/tof.c **** 	0x01, 0xFF, 0x00,
 462:/home/tienluong/workspace/atlantis_fw/platform/driver/src/tof.c **** 	0x01, 0x80, 0x00,
 463:/home/tienluong/workspace/atlantis_fw/platform/driver/src/tof.c **** 
 464:/home/tienluong/workspace/atlantis_fw/platform/driver/src/tof.c **** 	0x00, 0x00, 0x00
 465:/home/tienluong/workspace/atlantis_fw/platform/driver/src/tof.c **** };
 466:/home/tienluong/workspace/atlantis_fw/platform/driver/src/tof.c **** 
 467:/home/tienluong/workspace/atlantis_fw/platform/driver/src/tof.c **** uint8_t InterruptThresholdSettings[] =
 468:/home/tienluong/workspace/atlantis_fw/platform/driver/src/tof.c **** {
 469:/home/tienluong/workspace/atlantis_fw/platform/driver/src/tof.c **** 	0x1, 0xff, 0x00,
 470:/home/tienluong/workspace/atlantis_fw/platform/driver/src/tof.c **** 	0x1, 0x80, 0x01,
 471:/home/tienluong/workspace/atlantis_fw/platform/driver/src/tof.c **** 	0x1, 0xff, 0x01,
 472:/home/tienluong/workspace/atlantis_fw/platform/driver/src/tof.c **** 	0x1, 0x00, 0x00,
 473:/home/tienluong/workspace/atlantis_fw/platform/driver/src/tof.c **** 	0x1, 0xff, 0x01,
 474:/home/tienluong/workspace/atlantis_fw/platform/driver/src/tof.c **** 	0x1, 0x4f, 0x02,
 475:/home/tienluong/workspace/atlantis_fw/platform/driver/src/tof.c **** 	0x1, 0xFF, 0x0E,
 476:/home/tienluong/workspace/atlantis_fw/platform/driver/src/tof.c **** 	0x1, 0x00, 0x03,
 477:/home/tienluong/workspace/atlantis_fw/platform/driver/src/tof.c **** 	0x1, 0x01, 0x84,
 478:/home/tienluong/workspace/atlantis_fw/platform/driver/src/tof.c **** 	0x1, 0x02, 0x0A,
 479:/home/tienluong/workspace/atlantis_fw/platform/driver/src/tof.c **** 	0x1, 0x03, 0x03,
 480:/home/tienluong/workspace/atlantis_fw/platform/driver/src/tof.c **** 	0x1, 0x04, 0x08,
 481:/home/tienluong/workspace/atlantis_fw/platform/driver/src/tof.c **** 	0x1, 0x05, 0xC8,
 482:/home/tienluong/workspace/atlantis_fw/platform/driver/src/tof.c **** 	0x1, 0x06, 0x03,
 483:/home/tienluong/workspace/atlantis_fw/platform/driver/src/tof.c **** 	0x1, 0x07, 0x8D,
 484:/home/tienluong/workspace/atlantis_fw/platform/driver/src/tof.c **** 	0x1, 0x08, 0x08,
 485:/home/tienluong/workspace/atlantis_fw/platform/driver/src/tof.c **** 	0x1, 0x09, 0xC6,
 486:/home/tienluong/workspace/atlantis_fw/platform/driver/src/tof.c **** 	0x1, 0x0A, 0x01,
 487:/home/tienluong/workspace/atlantis_fw/platform/driver/src/tof.c **** 	0x1, 0x0B, 0x02,
 488:/home/tienluong/workspace/atlantis_fw/platform/driver/src/tof.c **** 	0x1, 0x0C, 0x00,
 489:/home/tienluong/workspace/atlantis_fw/platform/driver/src/tof.c **** 	0x1, 0x0D, 0xD5,
 490:/home/tienluong/workspace/atlantis_fw/platform/driver/src/tof.c **** 	0x1, 0x0E, 0x18,
 491:/home/tienluong/workspace/atlantis_fw/platform/driver/src/tof.c **** 	0x1, 0x0F, 0x12,
 492:/home/tienluong/workspace/atlantis_fw/platform/driver/src/tof.c **** 	0x1, 0x10, 0x01,
 493:/home/tienluong/workspace/atlantis_fw/platform/driver/src/tof.c **** 	0x1, 0x11, 0x82,
 494:/home/tienluong/workspace/atlantis_fw/platform/driver/src/tof.c **** 	0x1, 0x12, 0x00,
 495:/home/tienluong/workspace/atlantis_fw/platform/driver/src/tof.c **** 	0x1, 0x13, 0xD5,
 496:/home/tienluong/workspace/atlantis_fw/platform/driver/src/tof.c **** 	0x1, 0x14, 0x18,
 497:/home/tienluong/workspace/atlantis_fw/platform/driver/src/tof.c **** 	0x1, 0x15, 0x13,
 498:/home/tienluong/workspace/atlantis_fw/platform/driver/src/tof.c **** 	0x1, 0x16, 0x03,
 499:/home/tienluong/workspace/atlantis_fw/platform/driver/src/tof.c **** 	0x1, 0x17, 0x86,
 500:/home/tienluong/workspace/atlantis_fw/platform/driver/src/tof.c **** 	0x1, 0x18, 0x0A,
 501:/home/tienluong/workspace/atlantis_fw/platform/driver/src/tof.c **** 	0x1, 0x19, 0x09,
 502:/home/tienluong/workspace/atlantis_fw/platform/driver/src/tof.c **** 	0x1, 0x1A, 0x08,
 503:/home/tienluong/workspace/atlantis_fw/platform/driver/src/tof.c **** 	0x1, 0x1B, 0xC2,
 504:/home/tienluong/workspace/atlantis_fw/platform/driver/src/tof.c **** 	0x1, 0x1C, 0x03,
 505:/home/tienluong/workspace/atlantis_fw/platform/driver/src/tof.c **** 	0x1, 0x1D, 0x8F,
 506:/home/tienluong/workspace/atlantis_fw/platform/driver/src/tof.c **** 	0x1, 0x1E, 0x0A,
 507:/home/tienluong/workspace/atlantis_fw/platform/driver/src/tof.c **** 	0x1, 0x1F, 0x06,
 508:/home/tienluong/workspace/atlantis_fw/platform/driver/src/tof.c **** 	0x1, 0x20, 0x01,
 509:/home/tienluong/workspace/atlantis_fw/platform/driver/src/tof.c **** 	0x1, 0x21, 0x02,
 510:/home/tienluong/workspace/atlantis_fw/platform/driver/src/tof.c **** 	0x1, 0x22, 0x00,
 511:/home/tienluong/workspace/atlantis_fw/platform/driver/src/tof.c **** 	0x1, 0x23, 0xD5,
 512:/home/tienluong/workspace/atlantis_fw/platform/driver/src/tof.c **** 	0x1, 0x24, 0x18,
 513:/home/tienluong/workspace/atlantis_fw/platform/driver/src/tof.c **** 	0x1, 0x25, 0x22,
 514:/home/tienluong/workspace/atlantis_fw/platform/driver/src/tof.c **** 	0x1, 0x26, 0x01,
 515:/home/tienluong/workspace/atlantis_fw/platform/driver/src/tof.c **** 	0x1, 0x27, 0x82,
 516:/home/tienluong/workspace/atlantis_fw/platform/driver/src/tof.c **** 	0x1, 0x28, 0x00,
 517:/home/tienluong/workspace/atlantis_fw/platform/driver/src/tof.c **** 	0x1, 0x29, 0xD5,
 518:/home/tienluong/workspace/atlantis_fw/platform/driver/src/tof.c **** 	0x1, 0x2A, 0x18,
 519:/home/tienluong/workspace/atlantis_fw/platform/driver/src/tof.c **** 	0x1, 0x2B, 0x0B,
 520:/home/tienluong/workspace/atlantis_fw/platform/driver/src/tof.c **** 	0x1, 0x2C, 0x28,
 521:/home/tienluong/workspace/atlantis_fw/platform/driver/src/tof.c **** 	0x1, 0x2D, 0x78,
 522:/home/tienluong/workspace/atlantis_fw/platform/driver/src/tof.c **** 	0x1, 0x2E, 0x28,
 523:/home/tienluong/workspace/atlantis_fw/platform/driver/src/tof.c **** 	0x1, 0x2F, 0x91,
 524:/home/tienluong/workspace/atlantis_fw/platform/driver/src/tof.c **** 	0x1, 0x30, 0x00,
 525:/home/tienluong/workspace/atlantis_fw/platform/driver/src/tof.c **** 	0x1, 0x31, 0x0B,
 526:/home/tienluong/workspace/atlantis_fw/platform/driver/src/tof.c **** 	0x1, 0x32, 0x00,
 527:/home/tienluong/workspace/atlantis_fw/platform/driver/src/tof.c **** 	0x1, 0x33, 0x0B,
 528:/home/tienluong/workspace/atlantis_fw/platform/driver/src/tof.c **** 	0x1, 0x34, 0x00,
 529:/home/tienluong/workspace/atlantis_fw/platform/driver/src/tof.c **** 	0x1, 0x35, 0xA1,
 530:/home/tienluong/workspace/atlantis_fw/platform/driver/src/tof.c **** 	0x1, 0x36, 0x00,
 531:/home/tienluong/workspace/atlantis_fw/platform/driver/src/tof.c **** 	0x1, 0x37, 0xA0,
 532:/home/tienluong/workspace/atlantis_fw/platform/driver/src/tof.c **** 	0x1, 0x38, 0x00,
 533:/home/tienluong/workspace/atlantis_fw/platform/driver/src/tof.c **** 	0x1, 0x39, 0x04,
 534:/home/tienluong/workspace/atlantis_fw/platform/driver/src/tof.c **** 	0x1, 0x3A, 0x28,
 535:/home/tienluong/workspace/atlantis_fw/platform/driver/src/tof.c **** 	0x1, 0x3B, 0x30,
 536:/home/tienluong/workspace/atlantis_fw/platform/driver/src/tof.c **** 	0x1, 0x3C, 0x0C,
 537:/home/tienluong/workspace/atlantis_fw/platform/driver/src/tof.c **** 	0x1, 0x3D, 0x04,
 538:/home/tienluong/workspace/atlantis_fw/platform/driver/src/tof.c **** 	0x1, 0x3E, 0x0F,
 539:/home/tienluong/workspace/atlantis_fw/platform/driver/src/tof.c **** 	0x1, 0x3F, 0x79,
 540:/home/tienluong/workspace/atlantis_fw/platform/driver/src/tof.c **** 	0x1, 0x40, 0x28,
 541:/home/tienluong/workspace/atlantis_fw/platform/driver/src/tof.c **** 	0x1, 0x41, 0x1E,
 542:/home/tienluong/workspace/atlantis_fw/platform/driver/src/tof.c **** 	0x1, 0x42, 0x2F,
 543:/home/tienluong/workspace/atlantis_fw/platform/driver/src/tof.c **** 	0x1, 0x43, 0x87,
 544:/home/tienluong/workspace/atlantis_fw/platform/driver/src/tof.c **** 	0x1, 0x44, 0x00,
 545:/home/tienluong/workspace/atlantis_fw/platform/driver/src/tof.c **** 	0x1, 0x45, 0x0B,
 546:/home/tienluong/workspace/atlantis_fw/platform/driver/src/tof.c **** 	0x1, 0x46, 0x00,
 547:/home/tienluong/workspace/atlantis_fw/platform/driver/src/tof.c **** 	0x1, 0x47, 0x0B,
 548:/home/tienluong/workspace/atlantis_fw/platform/driver/src/tof.c **** 	0x1, 0x48, 0x00,
 549:/home/tienluong/workspace/atlantis_fw/platform/driver/src/tof.c **** 	0x1, 0x49, 0xA7,
 550:/home/tienluong/workspace/atlantis_fw/platform/driver/src/tof.c **** 	0x1, 0x4A, 0x00,
 551:/home/tienluong/workspace/atlantis_fw/platform/driver/src/tof.c **** 	0x1, 0x4B, 0xA6,
 552:/home/tienluong/workspace/atlantis_fw/platform/driver/src/tof.c **** 	0x1, 0x4C, 0x00,
 553:/home/tienluong/workspace/atlantis_fw/platform/driver/src/tof.c **** 	0x1, 0x4D, 0x04,
 554:/home/tienluong/workspace/atlantis_fw/platform/driver/src/tof.c **** 	0x1, 0x4E, 0x01,
 555:/home/tienluong/workspace/atlantis_fw/platform/driver/src/tof.c **** 	0x1, 0x4F, 0x00,
 556:/home/tienluong/workspace/atlantis_fw/platform/driver/src/tof.c **** 	0x1, 0x50, 0x00,
 557:/home/tienluong/workspace/atlantis_fw/platform/driver/src/tof.c **** 	0x1, 0x51, 0x80,
 558:/home/tienluong/workspace/atlantis_fw/platform/driver/src/tof.c **** 	0x1, 0x52, 0x09,
 559:/home/tienluong/workspace/atlantis_fw/platform/driver/src/tof.c **** 	0x1, 0x53, 0x08,
 560:/home/tienluong/workspace/atlantis_fw/platform/driver/src/tof.c **** 	0x1, 0x54, 0x01,
 561:/home/tienluong/workspace/atlantis_fw/platform/driver/src/tof.c **** 	0x1, 0x55, 0x00,
 562:/home/tienluong/workspace/atlantis_fw/platform/driver/src/tof.c **** 	0x1, 0x56, 0x0F,
 563:/home/tienluong/workspace/atlantis_fw/platform/driver/src/tof.c **** 	0x1, 0x57, 0x79,
 564:/home/tienluong/workspace/atlantis_fw/platform/driver/src/tof.c **** 	0x1, 0x58, 0x09,
 565:/home/tienluong/workspace/atlantis_fw/platform/driver/src/tof.c **** 	0x1, 0x59, 0x05,
 566:/home/tienluong/workspace/atlantis_fw/platform/driver/src/tof.c **** 	0x1, 0x5A, 0x00,
 567:/home/tienluong/workspace/atlantis_fw/platform/driver/src/tof.c **** 	0x1, 0x5B, 0x60,
 568:/home/tienluong/workspace/atlantis_fw/platform/driver/src/tof.c **** 	0x1, 0x5C, 0x05,
 569:/home/tienluong/workspace/atlantis_fw/platform/driver/src/tof.c **** 	0x1, 0x5D, 0xD1,
 570:/home/tienluong/workspace/atlantis_fw/platform/driver/src/tof.c **** 	0x1, 0x5E, 0x0C,
 571:/home/tienluong/workspace/atlantis_fw/platform/driver/src/tof.c **** 	0x1, 0x5F, 0x3C,
 572:/home/tienluong/workspace/atlantis_fw/platform/driver/src/tof.c **** 	0x1, 0x60, 0x00,
 573:/home/tienluong/workspace/atlantis_fw/platform/driver/src/tof.c **** 	0x1, 0x61, 0xD0,
 574:/home/tienluong/workspace/atlantis_fw/platform/driver/src/tof.c **** 	0x1, 0x62, 0x0B,
 575:/home/tienluong/workspace/atlantis_fw/platform/driver/src/tof.c **** 	0x1, 0x63, 0x03,
 576:/home/tienluong/workspace/atlantis_fw/platform/driver/src/tof.c **** 	0x1, 0x64, 0x28,
 577:/home/tienluong/workspace/atlantis_fw/platform/driver/src/tof.c **** 	0x1, 0x65, 0x10,
 578:/home/tienluong/workspace/atlantis_fw/platform/driver/src/tof.c **** 	0x1, 0x66, 0x2A,
 579:/home/tienluong/workspace/atlantis_fw/platform/driver/src/tof.c **** 	0x1, 0x67, 0x39,
 580:/home/tienluong/workspace/atlantis_fw/platform/driver/src/tof.c **** 	0x1, 0x68, 0x0B,
 581:/home/tienluong/workspace/atlantis_fw/platform/driver/src/tof.c **** 	0x1, 0x69, 0x02,
 582:/home/tienluong/workspace/atlantis_fw/platform/driver/src/tof.c **** 	0x1, 0x6A, 0x28,
 583:/home/tienluong/workspace/atlantis_fw/platform/driver/src/tof.c **** 	0x1, 0x6B, 0x10,
 584:/home/tienluong/workspace/atlantis_fw/platform/driver/src/tof.c **** 	0x1, 0x6C, 0x2A,
 585:/home/tienluong/workspace/atlantis_fw/platform/driver/src/tof.c **** 	0x1, 0x6D, 0x61,
 586:/home/tienluong/workspace/atlantis_fw/platform/driver/src/tof.c **** 	0x1, 0x6E, 0x0C,
 587:/home/tienluong/workspace/atlantis_fw/platform/driver/src/tof.c **** 	0x1, 0x6F, 0x00,
 588:/home/tienluong/workspace/atlantis_fw/platform/driver/src/tof.c **** 	0x1, 0x70, 0x0F,
 589:/home/tienluong/workspace/atlantis_fw/platform/driver/src/tof.c **** 	0x1, 0x71, 0x79,
 590:/home/tienluong/workspace/atlantis_fw/platform/driver/src/tof.c **** 	0x1, 0x72, 0x00,
 591:/home/tienluong/workspace/atlantis_fw/platform/driver/src/tof.c **** 	0x1, 0x73, 0x0B,
 592:/home/tienluong/workspace/atlantis_fw/platform/driver/src/tof.c **** 	0x1, 0x74, 0x00,
 593:/home/tienluong/workspace/atlantis_fw/platform/driver/src/tof.c **** 	0x1, 0x75, 0x0B,
 594:/home/tienluong/workspace/atlantis_fw/platform/driver/src/tof.c **** 	0x1, 0x76, 0x00,
 595:/home/tienluong/workspace/atlantis_fw/platform/driver/src/tof.c **** 	0x1, 0x77, 0xA1,
 596:/home/tienluong/workspace/atlantis_fw/platform/driver/src/tof.c **** 	0x1, 0x78, 0x00,
 597:/home/tienluong/workspace/atlantis_fw/platform/driver/src/tof.c **** 	0x1, 0x79, 0xA0,
 598:/home/tienluong/workspace/atlantis_fw/platform/driver/src/tof.c **** 	0x1, 0x7A, 0x00,
 599:/home/tienluong/workspace/atlantis_fw/platform/driver/src/tof.c **** 	0x1, 0x7B, 0x04,
 600:/home/tienluong/workspace/atlantis_fw/platform/driver/src/tof.c **** 	0x1, 0xFF, 0x04,
 601:/home/tienluong/workspace/atlantis_fw/platform/driver/src/tof.c **** 	0x1, 0x79, 0x1D,
 602:/home/tienluong/workspace/atlantis_fw/platform/driver/src/tof.c **** 	0x1, 0x7B, 0x27,
 603:/home/tienluong/workspace/atlantis_fw/platform/driver/src/tof.c **** 	0x1, 0x96, 0x0E,
 604:/home/tienluong/workspace/atlantis_fw/platform/driver/src/tof.c **** 	0x1, 0x97, 0xFE,
 605:/home/tienluong/workspace/atlantis_fw/platform/driver/src/tof.c **** 	0x1, 0x98, 0x03,
 606:/home/tienluong/workspace/atlantis_fw/platform/driver/src/tof.c **** 	0x1, 0x99, 0xEF,
 607:/home/tienluong/workspace/atlantis_fw/platform/driver/src/tof.c **** 	0x1, 0x9A, 0x02,
 608:/home/tienluong/workspace/atlantis_fw/platform/driver/src/tof.c **** 	0x1, 0x9B, 0x44,
 609:/home/tienluong/workspace/atlantis_fw/platform/driver/src/tof.c **** 	0x1, 0x73, 0x07,
 610:/home/tienluong/workspace/atlantis_fw/platform/driver/src/tof.c **** 	0x1, 0x70, 0x01,
 611:/home/tienluong/workspace/atlantis_fw/platform/driver/src/tof.c **** 	0x1, 0xff, 0x01,
 612:/home/tienluong/workspace/atlantis_fw/platform/driver/src/tof.c **** 	0x1, 0x00, 0x01,
 613:/home/tienluong/workspace/atlantis_fw/platform/driver/src/tof.c **** 	0x1, 0xff, 0x00,
 614:/home/tienluong/workspace/atlantis_fw/platform/driver/src/tof.c **** 	0x00, 0x00, 0x00
 615:/home/tienluong/workspace/atlantis_fw/platform/driver/src/tof.c **** };
 616:/home/tienluong/workspace/atlantis_fw/platform/driver/src/tof.c **** uint32_t refArrayQuadrants[4] = {REF_ARRAY_SPAD_10, REF_ARRAY_SPAD_5,
 617:/home/tienluong/workspace/atlantis_fw/platform/driver/src/tof.c **** 		REF_ARRAY_SPAD_0, REF_ARRAY_SPAD_5 };
 618:/home/tienluong/workspace/atlantis_fw/platform/driver/src/tof.c **** 
 619:/home/tienluong/workspace/atlantis_fw/platform/driver/src/tof.c **** VL53L0X_Error VL53L0X_WrByte(VL53L0X_DEV Dev, uint8_t reg, uint8_t data)
 620:/home/tienluong/workspace/atlantis_fw/platform/driver/src/tof.c **** {
 785              		.loc 1 620 0
 786              		.cfi_startproc
 787              		@ args = 0, pretend = 0, frame = 8
 788              		@ frame_needed = 0, uses_anonymous_args = 0
 789              	.LVL82:
 790 0000 1FB5     		push	{r0, r1, r2, r3, r4, lr}
 791              	.LCFI10:
 792              		.cfi_def_cfa_offset 24
 793              		.cfi_offset 4, -8
 794              		.cfi_offset 14, -4
 621:/home/tienluong/workspace/atlantis_fw/platform/driver/src/tof.c **** 	uint8_t tmp = data;
 622:/home/tienluong/workspace/atlantis_fw/platform/driver/src/tof.c **** 	if(I2CM_ERROR_TRANSMITTED == i2cm.write(HAL_I2C_MASTER, BYTE_ADDR8,
 795              		.loc 1 622 0
 796 0002 0B46     		mov	r3, r1
 621:/home/tienluong/workspace/atlantis_fw/platform/driver/src/tof.c **** 	uint8_t tmp = data;
 797              		.loc 1 621 0
 798 0004 04AC     		add	r4, sp, #16
 799              		.loc 1 622 0
 800 0006 0849     		ldr	r1, .L36
 801              	.LVL83:
 621:/home/tienluong/workspace/atlantis_fw/platform/driver/src/tof.c **** 	uint8_t tmp = data;
 802              		.loc 1 621 0
 803 0008 04F8012D 		strb	r2, [r4, #-1]!
 804              		.loc 1 622 0
 805 000c 90F85C21 		ldrb	r2, [r0, #348]	@ zero_extendqisi2
 806              	.LVL84:
 807 0010 0094     		str	r4, [sp]
 808 0012 1220     		movs	r0, #18
 809              	.LVL85:
 810 0014 0C69     		ldr	r4, [r1, #16]
 811              	.LVL86:
 812 0016 0021     		movs	r1, #0
 813 0018 A047     		blx	r4
 814              	.LVL87:
 815 001a 0528     		cmp	r0, #5
 623:/home/tienluong/workspace/atlantis_fw/platform/driver/src/tof.c **** 		Dev->I2cDevAddr, reg, &tmp))
 624:/home/tienluong/workspace/atlantis_fw/platform/driver/src/tof.c **** 		return VL53L0X_ERROR_NONE;
 625:/home/tienluong/workspace/atlantis_fw/platform/driver/src/tof.c **** 	else
 626:/home/tienluong/workspace/atlantis_fw/platform/driver/src/tof.c **** 		return VL53L0X_ERROR_CONTROL_INTERFACE;
 627:/home/tienluong/workspace/atlantis_fw/platform/driver/src/tof.c **** }
 816              		.loc 1 627 0
 817 001c 14BF     		ite	ne
 818 001e 6FF01300 		mvnne	r0, #19
 819 0022 0020     		moveq	r0, #0
 820 0024 04B0     		add	sp, sp, #16
 821              	.LCFI11:
 822              		.cfi_def_cfa_offset 8
 823              		@ sp needed
 824 0026 10BD     		pop	{r4, pc}
 825              	.L37:
 826              		.align	2
 827              	.L36:
 828 0028 00000000 		.word	i2cm
 829              		.cfi_endproc
 830              	.LFE7:
 832              		.section	.text.VL53L0X_WrWord,"ax",%progbits
 833              		.align	1
 834              		.global	VL53L0X_WrWord
 835              		.thumb
 836              		.thumb_func
 838              	VL53L0X_WrWord:
 839              	.LFB8:
 628:/home/tienluong/workspace/atlantis_fw/platform/driver/src/tof.c **** 
 629:/home/tienluong/workspace/atlantis_fw/platform/driver/src/tof.c **** VL53L0X_Error VL53L0X_WrWord(VL53L0X_DEV Dev, uint8_t reg, uint16_t data)
 630:/home/tienluong/workspace/atlantis_fw/platform/driver/src/tof.c **** {
 840              		.loc 1 630 0
 841              		.cfi_startproc
 842              		@ args = 0, pretend = 0, frame = 8
 843              		@ frame_needed = 0, uses_anonymous_args = 0
 844              	.LVL88:
 845 0000 1FB5     		push	{r0, r1, r2, r3, r4, lr}
 846              	.LCFI12:
 847              		.cfi_def_cfa_offset 24
 848              		.cfi_offset 4, -8
 849              		.cfi_offset 14, -4
 850              		.loc 1 630 0
 851 0002 0B46     		mov	r3, r1
 631:/home/tienluong/workspace/atlantis_fw/platform/driver/src/tof.c **** 	uint8_t tmp[3];
 632:/home/tienluong/workspace/atlantis_fw/platform/driver/src/tof.c **** 	tmp[0] = reg;
 852              		.loc 1 632 0
 853 0004 8DF80C10 		strb	r1, [sp, #12]
 633:/home/tienluong/workspace/atlantis_fw/platform/driver/src/tof.c **** 	tmp[1] = (uint8_t)data >> 8;
 854              		.loc 1 633 0
 855 0008 0021     		movs	r1, #0
 856              	.LVL89:
 634:/home/tienluong/workspace/atlantis_fw/platform/driver/src/tof.c **** 	tmp[2] = (uint8_t)data >> 0 & 0xFF;
 857              		.loc 1 634 0
 858 000a 8DF80E20 		strb	r2, [sp, #14]
 635:/home/tienluong/workspace/atlantis_fw/platform/driver/src/tof.c **** 	if(I2CM_ERROR_TRANSMITTED == i2cm.write(HAL_I2C_MASTER, WORD_ADDR8,
 859              		.loc 1 635 0
 860 000e 90F85C21 		ldrb	r2, [r0, #348]	@ zero_extendqisi2
 861              	.LVL90:
 633:/home/tienluong/workspace/atlantis_fw/platform/driver/src/tof.c **** 	tmp[1] = (uint8_t)data >> 8;
 862              		.loc 1 633 0
 863 0012 8DF80D10 		strb	r1, [sp, #13]
 864              		.loc 1 635 0
 865 0016 0DF10D01 		add	r1, sp, #13
 866 001a 1220     		movs	r0, #18
 867              	.LVL91:
 868 001c 0091     		str	r1, [sp]
 869 001e 0549     		ldr	r1, .L41
 870 0020 0C69     		ldr	r4, [r1, #16]
 871 0022 0221     		movs	r1, #2
 872 0024 A047     		blx	r4
 873              	.LVL92:
 874 0026 0528     		cmp	r0, #5
 636:/home/tienluong/workspace/atlantis_fw/platform/driver/src/tof.c **** 		Dev->I2cDevAddr, reg, &tmp[1]))
 637:/home/tienluong/workspace/atlantis_fw/platform/driver/src/tof.c **** 		return VL53L0X_ERROR_NONE;
 638:/home/tienluong/workspace/atlantis_fw/platform/driver/src/tof.c **** 	else
 639:/home/tienluong/workspace/atlantis_fw/platform/driver/src/tof.c **** 		return VL53L0X_ERROR_CONTROL_INTERFACE;
 640:/home/tienluong/workspace/atlantis_fw/platform/driver/src/tof.c **** }
 875              		.loc 1 640 0
 876 0028 14BF     		ite	ne
 877 002a 6FF01300 		mvnne	r0, #19
 878 002e 0020     		moveq	r0, #0
 879 0030 04B0     		add	sp, sp, #16
 880              	.LCFI13:
 881              		.cfi_def_cfa_offset 8
 882              		@ sp needed
 883 0032 10BD     		pop	{r4, pc}
 884              	.L42:
 885              		.align	2
 886              	.L41:
 887 0034 00000000 		.word	i2cm
 888              		.cfi_endproc
 889              	.LFE8:
 891              		.section	.text.VL53L0X_RdByte,"ax",%progbits
 892              		.align	1
 893              		.global	VL53L0X_RdByte
 894              		.thumb
 895              		.thumb_func
 897              	VL53L0X_RdByte:
 898              	.LFB9:
 641:/home/tienluong/workspace/atlantis_fw/platform/driver/src/tof.c **** 
 642:/home/tienluong/workspace/atlantis_fw/platform/driver/src/tof.c **** VL53L0X_Error VL53L0X_RdByte(VL53L0X_DEV Dev, uint8_t reg, uint8_t *data)
 643:/home/tienluong/workspace/atlantis_fw/platform/driver/src/tof.c **** {
 899              		.loc 1 643 0
 900              		.cfi_startproc
 901              		@ args = 0, pretend = 0, frame = 0
 902              		@ frame_needed = 0, uses_anonymous_args = 0
 903              	.LVL93:
 904 0000 37B5     		push	{r0, r1, r2, r4, r5, lr}
 905              	.LCFI14:
 906              		.cfi_def_cfa_offset 24
 907              		.cfi_offset 4, -12
 908              		.cfi_offset 5, -8
 909              		.cfi_offset 14, -4
 644:/home/tienluong/workspace/atlantis_fw/platform/driver/src/tof.c **** 	if(I2CM_ERROR_TRANSCEIVED == i2cm.read(HAL_I2C_MASTER, BYTE_ADDR8,
 910              		.loc 1 644 0
 911 0002 90F85C51 		ldrb	r5, [r0, #348]	@ zero_extendqisi2
 912 0006 0092     		str	r2, [sp]
 913 0008 0B46     		mov	r3, r1
 914 000a 064A     		ldr	r2, .L46
 915              	.LVL94:
 916 000c 0021     		movs	r1, #0
 917              	.LVL95:
 918 000e 1220     		movs	r0, #18
 919              	.LVL96:
 920 0010 D468     		ldr	r4, [r2, #12]
 921 0012 2A46     		mov	r2, r5
 922 0014 A047     		blx	r4
 923              	.LVL97:
 924 0016 0728     		cmp	r0, #7
 645:/home/tienluong/workspace/atlantis_fw/platform/driver/src/tof.c **** 		Dev->I2cDevAddr, reg, data))
 646:/home/tienluong/workspace/atlantis_fw/platform/driver/src/tof.c **** 	{
 647:/home/tienluong/workspace/atlantis_fw/platform/driver/src/tof.c **** 		return VL53L0X_ERROR_NONE;
 648:/home/tienluong/workspace/atlantis_fw/platform/driver/src/tof.c **** 	}
 649:/home/tienluong/workspace/atlantis_fw/platform/driver/src/tof.c **** 	else
 650:/home/tienluong/workspace/atlantis_fw/platform/driver/src/tof.c **** 		return VL53L0X_ERROR_CONTROL_INTERFACE;
 651:/home/tienluong/workspace/atlantis_fw/platform/driver/src/tof.c **** }
 925              		.loc 1 651 0
 926 0018 14BF     		ite	ne
 927 001a 6FF01300 		mvnne	r0, #19
 928 001e 0020     		moveq	r0, #0
 929 0020 03B0     		add	sp, sp, #12
 930              	.LCFI15:
 931              		.cfi_def_cfa_offset 12
 932              		@ sp needed
 933 0022 30BD     		pop	{r4, r5, pc}
 934              	.L47:
 935              		.align	2
 936              	.L46:
 937 0024 00000000 		.word	i2cm
 938              		.cfi_endproc
 939              	.LFE9:
 941              		.section	.text.VL53L0X_RdWord,"ax",%progbits
 942              		.align	1
 943              		.global	VL53L0X_RdWord
 944              		.thumb
 945              		.thumb_func
 947              	VL53L0X_RdWord:
 948              	.LFB10:
 652:/home/tienluong/workspace/atlantis_fw/platform/driver/src/tof.c **** 
 653:/home/tienluong/workspace/atlantis_fw/platform/driver/src/tof.c **** VL53L0X_Error VL53L0X_RdWord(VL53L0X_DEV Dev, uint8_t reg, uint16_t *data)
 654:/home/tienluong/workspace/atlantis_fw/platform/driver/src/tof.c **** {
 949              		.loc 1 654 0
 950              		.cfi_startproc
 951              		@ args = 0, pretend = 0, frame = 8
 952              		@ frame_needed = 0, uses_anonymous_args = 0
 953              	.LVL98:
 954 0000 30B5     		push	{r4, r5, lr}
 955              	.LCFI16:
 956              		.cfi_def_cfa_offset 12
 957              		.cfi_offset 4, -12
 958              		.cfi_offset 5, -8
 959              		.cfi_offset 14, -4
 960 0002 85B0     		sub	sp, sp, #20
 961              	.LCFI17:
 962              		.cfi_def_cfa_offset 32
 655:/home/tienluong/workspace/atlantis_fw/platform/driver/src/tof.c **** 	uint8_t tmp[2];
 656:/home/tienluong/workspace/atlantis_fw/platform/driver/src/tof.c **** 	if(I2CM_ERROR_TRANSCEIVED == i2cm.read(HAL_I2C_MASTER, WORD_ADDR8,
 963              		.loc 1 656 0
 964 0004 0B46     		mov	r3, r1
 965 0006 03A9     		add	r1, sp, #12
 966              	.LVL99:
 654:/home/tienluong/workspace/atlantis_fw/platform/driver/src/tof.c **** 	uint8_t tmp[2];
 967              		.loc 1 654 0
 968 0008 1446     		mov	r4, r2
 969              		.loc 1 656 0
 970 000a 90F85C21 		ldrb	r2, [r0, #348]	@ zero_extendqisi2
 971              	.LVL100:
 972 000e 0091     		str	r1, [sp]
 973 0010 1220     		movs	r0, #18
 974              	.LVL101:
 975 0012 0949     		ldr	r1, .L51
 976 0014 CD68     		ldr	r5, [r1, #12]
 977 0016 0221     		movs	r1, #2
 978 0018 A847     		blx	r5
 979              	.LVL102:
 980 001a 0728     		cmp	r0, #7
 657:/home/tienluong/workspace/atlantis_fw/platform/driver/src/tof.c **** 		Dev->I2cDevAddr, reg, tmp))
 658:/home/tienluong/workspace/atlantis_fw/platform/driver/src/tof.c **** 	{
 659:/home/tienluong/workspace/atlantis_fw/platform/driver/src/tof.c **** 		*data = (uint16_t)((uint16_t)(tmp[0] << 8) | (uint16_t) (tmp[1] << 0));
 981              		.loc 1 659 0
 982 001c 01BF     		itttt	eq
 983 001e 9DF80D30 		ldrbeq	r3, [sp, #13]	@ zero_extendqisi2
 984 0022 9DF80C20 		ldrbeq	r2, [sp, #12]	@ zero_extendqisi2
 660:/home/tienluong/workspace/atlantis_fw/platform/driver/src/tof.c **** 		return VL53L0X_ERROR_NONE;
 985              		.loc 1 660 0
 986 0026 0020     		moveq	r0, #0
 659:/home/tienluong/workspace/atlantis_fw/platform/driver/src/tof.c **** 		return VL53L0X_ERROR_NONE;
 987              		.loc 1 659 0
 988 0028 43EA0223 		orreq	r3, r3, r2, lsl #8
 661:/home/tienluong/workspace/atlantis_fw/platform/driver/src/tof.c **** 	}
 662:/home/tienluong/workspace/atlantis_fw/platform/driver/src/tof.c **** 	else
 663:/home/tienluong/workspace/atlantis_fw/platform/driver/src/tof.c **** 		return VL53L0X_ERROR_CONTROL_INTERFACE;
 989              		.loc 1 663 0
 990 002c 14BF     		ite	ne
 991 002e EC20     		movne	r0, #236
 659:/home/tienluong/workspace/atlantis_fw/platform/driver/src/tof.c **** 		return VL53L0X_ERROR_NONE;
 992              		.loc 1 659 0
 993 0030 2380     		strheq	r3, [r4]	@ movhi
 664:/home/tienluong/workspace/atlantis_fw/platform/driver/src/tof.c **** }
 994              		.loc 1 664 0
 995 0032 40B2     		sxtb	r0, r0
 996 0034 05B0     		add	sp, sp, #20
 997              	.LCFI18:
 998              		.cfi_def_cfa_offset 12
 999              		@ sp needed
 1000 0036 30BD     		pop	{r4, r5, pc}
 1001              	.LVL103:
 1002              	.L52:
 1003              		.align	2
 1004              	.L51:
 1005 0038 00000000 		.word	i2cm
 1006              		.cfi_endproc
 1007              	.LFE10:
 1009              		.section	.text.VL53L0X_RdDWord,"ax",%progbits
 1010              		.align	1
 1011              		.global	VL53L0X_RdDWord
 1012              		.thumb
 1013              		.thumb_func
 1015              	VL53L0X_RdDWord:
 1016              	.LFB11:
 665:/home/tienluong/workspace/atlantis_fw/platform/driver/src/tof.c **** 
 666:/home/tienluong/workspace/atlantis_fw/platform/driver/src/tof.c **** VL53L0X_Error VL53L0X_RdDWord(VL53L0X_DEV Dev, uint8_t reg, uint32_t *data)
 667:/home/tienluong/workspace/atlantis_fw/platform/driver/src/tof.c **** {
 1017              		.loc 1 667 0
 1018              		.cfi_startproc
 1019              		@ args = 0, pretend = 0, frame = 8
 1020              		@ frame_needed = 0, uses_anonymous_args = 0
 1021              	.LVL104:
 1022 0000 30B5     		push	{r4, r5, lr}
 1023              	.LCFI19:
 1024              		.cfi_def_cfa_offset 12
 1025              		.cfi_offset 4, -12
 1026              		.cfi_offset 5, -8
 1027              		.cfi_offset 14, -4
 1028 0002 85B0     		sub	sp, sp, #20
 1029              	.LCFI20:
 1030              		.cfi_def_cfa_offset 32
 1031              		.loc 1 667 0
 1032 0004 1446     		mov	r4, r2
 668:/home/tienluong/workspace/atlantis_fw/platform/driver/src/tof.c **** 	i2cm_error_t status;
 669:/home/tienluong/workspace/atlantis_fw/platform/driver/src/tof.c **** 	uint8_t reg_tmp = reg;
 670:/home/tienluong/workspace/atlantis_fw/platform/driver/src/tof.c **** 	uint8_t tmp[4];
 671:/home/tienluong/workspace/atlantis_fw/platform/driver/src/tof.c **** 
 672:/home/tienluong/workspace/atlantis_fw/platform/driver/src/tof.c **** 	status = i2cm.transceiver(HAL_I2C_MASTER, Dev->I2cDevAddr, &reg_tmp,
 1033              		.loc 1 672 0
 1034 0006 03AB     		add	r3, sp, #12
 669:/home/tienluong/workspace/atlantis_fw/platform/driver/src/tof.c **** 	uint8_t tmp[4];
 1035              		.loc 1 669 0
 1036 0008 04AA     		add	r2, sp, #16
 1037              	.LVL105:
 1038 000a 02F8051D 		strb	r1, [r2, #-5]!
 1039              		.loc 1 672 0
 1040 000e 90F85C11 		ldrb	r1, [r0, #348]	@ zero_extendqisi2
 1041              	.LVL106:
 1042 0012 0093     		str	r3, [sp]
 1043 0014 0423     		movs	r3, #4
 1044 0016 1220     		movs	r0, #18
 1045              	.LVL107:
 1046 0018 0193     		str	r3, [sp, #4]
 1047 001a 0D4B     		ldr	r3, .L56
 1048 001c 9D68     		ldr	r5, [r3, #8]
 1049 001e 0123     		movs	r3, #1
 1050 0020 A847     		blx	r5
 1051              	.LVL108:
 673:/home/tienluong/workspace/atlantis_fw/platform/driver/src/tof.c **** 								sizeof(uint8_t), tmp, sizeof(uint32_t));
 674:/home/tienluong/workspace/atlantis_fw/platform/driver/src/tof.c **** 	*data = (uint32_t)((uint32_t)tmp[0] << 24 | (uint32_t)tmp[1] << 16 |
 1052              		.loc 1 674 0
 1053 0022 9DF80D30 		ldrb	r3, [sp, #13]	@ zero_extendqisi2
 1054 0026 1B04     		lsls	r3, r3, #16
 1055 0028 9DF80C20 		ldrb	r2, [sp, #12]	@ zero_extendqisi2
 1056 002c 43EA0263 		orr	r3, r3, r2, lsl #24
 675:/home/tienluong/workspace/atlantis_fw/platform/driver/src/tof.c **** 			(uint32_t)tmp[2] << 8 | (uint32_t)tmp[3] << 0);
 1057              		.loc 1 675 0
 1058 0030 9DF80F20 		ldrb	r2, [sp, #15]	@ zero_extendqisi2
 1059 0034 1343     		orrs	r3, r3, r2
 1060 0036 9DF80E20 		ldrb	r2, [sp, #14]	@ zero_extendqisi2
 674:/home/tienluong/workspace/atlantis_fw/platform/driver/src/tof.c **** 			(uint32_t)tmp[2] << 8 | (uint32_t)tmp[3] << 0);
 1061              		.loc 1 674 0
 1062 003a 43EA0223 		orr	r3, r3, r2, lsl #8
 1063 003e 2360     		str	r3, [r4]
 676:/home/tienluong/workspace/atlantis_fw/platform/driver/src/tof.c **** 	return (status == I2CM_ERROR_TRANSCEIVED) ?
 1064              		.loc 1 676 0
 1065 0040 0728     		cmp	r0, #7
 677:/home/tienluong/workspace/atlantis_fw/platform/driver/src/tof.c **** 			VL53L0X_ERROR_NONE : VL53L0X_ERROR_CONTROL_INTERFACE;
 678:/home/tienluong/workspace/atlantis_fw/platform/driver/src/tof.c **** }
 1066              		.loc 1 678 0
 1067 0042 14BF     		ite	ne
 1068 0044 6FF01300 		mvnne	r0, #19
 1069              	.LVL109:
 1070 0048 0020     		moveq	r0, #0
 1071 004a 05B0     		add	sp, sp, #20
 1072              	.LCFI21:
 1073              		.cfi_def_cfa_offset 12
 1074              		@ sp needed
 1075 004c 30BD     		pop	{r4, r5, pc}
 1076              	.LVL110:
 1077              	.L57:
 1078 004e 00BF     		.align	2
 1079              	.L56:
 1080 0050 00000000 		.word	i2cm
 1081              		.cfi_endproc
 1082              	.LFE11:
 1084              		.section	.text.VL53L0X_WrDWord,"ax",%progbits
 1085              		.align	1
 1086              		.global	VL53L0X_WrDWord
 1087              		.thumb
 1088              		.thumb_func
 1090              	VL53L0X_WrDWord:
 1091              	.LFB12:
 679:/home/tienluong/workspace/atlantis_fw/platform/driver/src/tof.c **** 
 680:/home/tienluong/workspace/atlantis_fw/platform/driver/src/tof.c **** VL53L0X_Error VL53L0X_WrDWord(VL53L0X_DEV Dev, uint8_t reg, uint32_t data)
 681:/home/tienluong/workspace/atlantis_fw/platform/driver/src/tof.c **** {
 1092              		.loc 1 681 0
 1093              		.cfi_startproc
 1094              		@ args = 0, pretend = 0, frame = 8
 1095              		@ frame_needed = 0, uses_anonymous_args = 0
 1096              	.LVL111:
 1097 0000 1FB5     		push	{r0, r1, r2, r3, r4, lr}
 1098              	.LCFI22:
 1099              		.cfi_def_cfa_offset 24
 1100              		.cfi_offset 4, -8
 1101              		.cfi_offset 14, -4
 682:/home/tienluong/workspace/atlantis_fw/platform/driver/src/tof.c **** 	uint8_t byte[5];
 683:/home/tienluong/workspace/atlantis_fw/platform/driver/src/tof.c **** 	byte[0] = reg;
 1102              		.loc 1 683 0
 1103 0002 8DF80810 		strb	r1, [sp, #8]
 684:/home/tienluong/workspace/atlantis_fw/platform/driver/src/tof.c **** 	byte[1] = (uint8_t)data >> 24;
 685:/home/tienluong/workspace/atlantis_fw/platform/driver/src/tof.c **** 	byte[2] = (uint8_t)(data >> 16) & 0xFF;
 1104              		.loc 1 685 0
 1105 0006 110C     		lsrs	r1, r2, #16
 1106              	.LVL112:
 684:/home/tienluong/workspace/atlantis_fw/platform/driver/src/tof.c **** 	byte[1] = (uint8_t)data >> 24;
 1107              		.loc 1 684 0
 1108 0008 0023     		movs	r3, #0
 1109              		.loc 1 685 0
 1110 000a 8DF80A10 		strb	r1, [sp, #10]
 686:/home/tienluong/workspace/atlantis_fw/platform/driver/src/tof.c **** 	byte[3] = (uint8_t)(data >> 8) & 0xFF;
 1111              		.loc 1 686 0
 1112 000e 110A     		lsrs	r1, r2, #8
 684:/home/tienluong/workspace/atlantis_fw/platform/driver/src/tof.c **** 	byte[1] = (uint8_t)data >> 24;
 1113              		.loc 1 684 0
 1114 0010 8DF80930 		strb	r3, [sp, #9]
 1115              		.loc 1 686 0
 1116 0014 8DF80B10 		strb	r1, [sp, #11]
 687:/home/tienluong/workspace/atlantis_fw/platform/driver/src/tof.c **** 	byte[4] = (uint8_t)(data >> 0) & 0xFF;
 688:/home/tienluong/workspace/atlantis_fw/platform/driver/src/tof.c **** 
 689:/home/tienluong/workspace/atlantis_fw/platform/driver/src/tof.c **** 	return (i2cm.transceiver(HAL_I2C_MASTER, Dev->I2cDevAddr, byte,
 1117              		.loc 1 689 0
 1118 0018 90F85C11 		ldrb	r1, [r0, #348]	@ zero_extendqisi2
 1119 001c 0093     		str	r3, [sp]
 1120 001e 1220     		movs	r0, #18
 1121              	.LVL113:
 1122 0020 0193     		str	r3, [sp, #4]
 1123 0022 074B     		ldr	r3, .L61
 687:/home/tienluong/workspace/atlantis_fw/platform/driver/src/tof.c **** 	byte[4] = (uint8_t)(data >> 0) & 0xFF;
 1124              		.loc 1 687 0
 1125 0024 8DF80C20 		strb	r2, [sp, #12]
 1126              		.loc 1 689 0
 1127 0028 02AA     		add	r2, sp, #8
 1128              	.LVL114:
 1129 002a 9C68     		ldr	r4, [r3, #8]
 1130 002c 0523     		movs	r3, #5
 1131 002e A047     		blx	r4
 1132              	.LVL115:
 1133 0030 0528     		cmp	r0, #5
 690:/home/tienluong/workspace/atlantis_fw/platform/driver/src/tof.c **** 							sizeof(uint32_t) + 1, NULL, 0)
 691:/home/tienluong/workspace/atlantis_fw/platform/driver/src/tof.c **** 				== I2CM_ERROR_TRANSMITTED) ?
 692:/home/tienluong/workspace/atlantis_fw/platform/driver/src/tof.c **** 			VL53L0X_ERROR_NONE : VL53L0X_ERROR_CONTROL_INTERFACE;
 693:/home/tienluong/workspace/atlantis_fw/platform/driver/src/tof.c **** }
 1134              		.loc 1 693 0
 1135 0032 14BF     		ite	ne
 1136 0034 6FF01300 		mvnne	r0, #19
 1137 0038 0020     		moveq	r0, #0
 1138 003a 04B0     		add	sp, sp, #16
 1139              	.LCFI23:
 1140              		.cfi_def_cfa_offset 8
 1141              		@ sp needed
 1142 003c 10BD     		pop	{r4, pc}
 1143              	.L62:
 1144 003e 00BF     		.align	2
 1145              	.L61:
 1146 0040 00000000 		.word	i2cm
 1147              		.cfi_endproc
 1148              	.LFE12:
 1150              		.section	.text.VL53L0X_ReadMulti,"ax",%progbits
 1151              		.align	1
 1152              		.global	VL53L0X_ReadMulti
 1153              		.thumb
 1154              		.thumb_func
 1156              	VL53L0X_ReadMulti:
 1157              	.LFB13:
 694:/home/tienluong/workspace/atlantis_fw/platform/driver/src/tof.c **** 
 695:/home/tienluong/workspace/atlantis_fw/platform/driver/src/tof.c **** VL53L0X_Error VL53L0X_ReadMulti(VL53L0X_DEV Dev, uint8_t reg, uint8_t *buf,
 696:/home/tienluong/workspace/atlantis_fw/platform/driver/src/tof.c **** 	uint8_t len)
 697:/home/tienluong/workspace/atlantis_fw/platform/driver/src/tof.c **** {
 1158              		.loc 1 697 0
 1159              		.cfi_startproc
 1160              		@ args = 0, pretend = 0, frame = 8
 1161              		@ frame_needed = 0, uses_anonymous_args = 0
 1162              	.LVL116:
 1163 0000 30B5     		push	{r4, r5, lr}
 1164              	.LCFI24:
 1165              		.cfi_def_cfa_offset 12
 1166              		.cfi_offset 4, -12
 1167              		.cfi_offset 5, -8
 1168              		.cfi_offset 14, -4
 1169 0002 85B0     		sub	sp, sp, #20
 1170              	.LCFI25:
 1171              		.cfi_def_cfa_offset 32
 1172              		.loc 1 697 0
 1173 0004 04AC     		add	r4, sp, #16
 1174 0006 04F8011D 		strb	r1, [r4, #-1]!
 698:/home/tienluong/workspace/atlantis_fw/platform/driver/src/tof.c **** 	return (i2cm.transceiver(HAL_I2C_MASTER, Dev->I2cDevAddr, &reg,
 1175              		.loc 1 698 0
 1176 000a 90F85C11 		ldrb	r1, [r0, #348]	@ zero_extendqisi2
 1177              	.LVL117:
 1178 000e 8DE80C00 		stmia	sp, {r2, r3}
 1179 0012 1220     		movs	r0, #18
 1180              	.LVL118:
 1181 0014 054B     		ldr	r3, .L66
 1182              	.LVL119:
 1183 0016 2246     		mov	r2, r4
 1184              	.LVL120:
 1185 0018 9D68     		ldr	r5, [r3, #8]
 1186 001a 0123     		movs	r3, #1
 1187 001c A847     		blx	r5
 1188              	.LVL121:
 1189 001e 0728     		cmp	r0, #7
 699:/home/tienluong/workspace/atlantis_fw/platform/driver/src/tof.c **** 								sizeof(uint8_t), buf, len)
 700:/home/tienluong/workspace/atlantis_fw/platform/driver/src/tof.c **** 				== I2CM_ERROR_TRANSCEIVED) ?
 701:/home/tienluong/workspace/atlantis_fw/platform/driver/src/tof.c **** 			VL53L0X_ERROR_NONE : VL53L0X_ERROR_CONTROL_INTERFACE;
 702:/home/tienluong/workspace/atlantis_fw/platform/driver/src/tof.c **** }
 1190              		.loc 1 702 0
 1191 0020 14BF     		ite	ne
 1192 0022 6FF01300 		mvnne	r0, #19
 1193 0026 0020     		moveq	r0, #0
 1194 0028 05B0     		add	sp, sp, #20
 1195              	.LCFI26:
 1196              		.cfi_def_cfa_offset 12
 1197              		@ sp needed
 1198 002a 30BD     		pop	{r4, r5, pc}
 1199              	.LVL122:
 1200              	.L67:
 1201              		.align	2
 1202              	.L66:
 1203 002c 00000000 		.word	i2cm
 1204              		.cfi_endproc
 1205              	.LFE13:
 1207              		.section	.text.VL53L0X_WriteMulti,"ax",%progbits
 1208              		.align	1
 1209              		.global	VL53L0X_WriteMulti
 1210              		.thumb
 1211              		.thumb_func
 1213              	VL53L0X_WriteMulti:
 1214              	.LFB14:
 703:/home/tienluong/workspace/atlantis_fw/platform/driver/src/tof.c **** 
 704:/home/tienluong/workspace/atlantis_fw/platform/driver/src/tof.c **** VL53L0X_Error VL53L0X_WriteMulti(VL53L0X_DEV Dev, uint8_t reg, uint8_t *buf,
 705:/home/tienluong/workspace/atlantis_fw/platform/driver/src/tof.c **** 	uint8_t len)
 706:/home/tienluong/workspace/atlantis_fw/platform/driver/src/tof.c **** {
 1215              		.loc 1 706 0
 1216              		.cfi_startproc
 1217              		@ args = 0, pretend = 0, frame = 0
 1218              		@ frame_needed = 1, uses_anonymous_args = 0
 1219              	.LVL123:
 1220 0000 F0B5     		push	{r4, r5, r6, r7, lr}
 1221              	.LCFI27:
 1222              		.cfi_def_cfa_offset 20
 1223              		.cfi_offset 4, -20
 1224              		.cfi_offset 5, -16
 1225              		.cfi_offset 6, -12
 1226              		.cfi_offset 7, -8
 1227              		.cfi_offset 14, -4
 1228 0002 1C46     		mov	r4, r3
 707:/home/tienluong/workspace/atlantis_fw/platform/driver/src/tof.c **** 	uint8_t tmp[len + 1];
 1229              		.loc 1 707 0
 1230 0004 0833     		adds	r3, r3, #8
 1231              	.LVL124:
 706:/home/tienluong/workspace/atlantis_fw/platform/driver/src/tof.c **** 	uint8_t tmp[len + 1];
 1232              		.loc 1 706 0
 1233 0006 83B0     		sub	sp, sp, #12
 1234              	.LCFI28:
 1235              		.cfi_def_cfa_offset 32
 1236              		.loc 1 707 0
 1237 0008 23F00703 		bic	r3, r3, #7
 706:/home/tienluong/workspace/atlantis_fw/platform/driver/src/tof.c **** 	uint8_t tmp[len + 1];
 1238              		.loc 1 706 0
 1239 000c 02AF     		add	r7, sp, #8
 1240              	.LCFI29:
 1241              		.cfi_def_cfa 7, 24
 1242              		.loc 1 707 0
 1243 000e ADEB030D 		sub	sp, sp, r3
 706:/home/tienluong/workspace/atlantis_fw/platform/driver/src/tof.c **** 	uint8_t tmp[len + 1];
 1244              		.loc 1 706 0
 1245 0012 0546     		mov	r5, r0
 708:/home/tienluong/workspace/atlantis_fw/platform/driver/src/tof.c **** 	tmp[0] = reg;
 709:/home/tienluong/workspace/atlantis_fw/platform/driver/src/tof.c **** 	memcpy(&tmp[1], buf, len);
 1246              		.loc 1 709 0
 1247 0014 0DF10900 		add	r0, sp, #9
 1248              	.LVL125:
 708:/home/tienluong/workspace/atlantis_fw/platform/driver/src/tof.c **** 	tmp[0] = reg;
 1249              		.loc 1 708 0
 1250 0018 8DF80810 		strb	r1, [sp, #8]
 1251              		.loc 1 709 0
 1252 001c 1146     		mov	r1, r2
 1253              	.LVL126:
 1254 001e 0B4B     		ldr	r3, .L71
 1255 0020 2246     		mov	r2, r4
 1256              	.LVL127:
 1257 0022 9847     		blx	r3
 1258              	.LVL128:
 710:/home/tienluong/workspace/atlantis_fw/platform/driver/src/tof.c **** 	return (i2cm.transceiver(HAL_I2C_MASTER, Dev->I2cDevAddr, tmp, len + 1,
 1259              		.loc 1 710 0
 1260 0024 0023     		movs	r3, #0
 1261 0026 95F85C11 		ldrb	r1, [r5, #348]	@ zero_extendqisi2
 707:/home/tienluong/workspace/atlantis_fw/platform/driver/src/tof.c **** 	tmp[0] = reg;
 1262              		.loc 1 707 0
 1263 002a 02AE     		add	r6, sp, #8
 1264              	.LVL129:
 1265              		.loc 1 710 0
 1266 002c 0093     		str	r3, [sp]
 1267 002e 3246     		mov	r2, r6
 1268 0030 0193     		str	r3, [sp, #4]
 1269 0032 1220     		movs	r0, #18
 1270 0034 064B     		ldr	r3, .L71+4
 1271 0036 9D68     		ldr	r5, [r3, #8]
 1272              	.LVL130:
 1273 0038 631C     		adds	r3, r4, #1
 1274 003a A847     		blx	r5
 1275              	.LVL131:
 711:/home/tienluong/workspace/atlantis_fw/platform/driver/src/tof.c **** 								NULL, 0)
 712:/home/tienluong/workspace/atlantis_fw/platform/driver/src/tof.c **** 				== I2CM_ERROR_TRANSMITTED) ?
 713:/home/tienluong/workspace/atlantis_fw/platform/driver/src/tof.c **** 			VL53L0X_ERROR_NONE : VL53L0X_ERROR_CONTROL_INTERFACE;
 714:/home/tienluong/workspace/atlantis_fw/platform/driver/src/tof.c **** }
 1276              		.loc 1 714 0
 1277 003c 0437     		adds	r7, r7, #4
 1278              	.LCFI30:
 1279              		.cfi_def_cfa_offset 20
 710:/home/tienluong/workspace/atlantis_fw/platform/driver/src/tof.c **** 								NULL, 0)
 1280              		.loc 1 710 0
 1281 003e 0528     		cmp	r0, #5
 1282              		.loc 1 714 0
 1283 0040 14BF     		ite	ne
 1284 0042 6FF01300 		mvnne	r0, #19
 1285 0046 0020     		moveq	r0, #0
 1286 0048 BD46     		mov	sp, r7
 1287              	.LCFI31:
 1288              		.cfi_def_cfa_register 13
 1289              		@ sp needed
 1290 004a F0BD     		pop	{r4, r5, r6, r7, pc}
 1291              	.LVL132:
 1292              	.L72:
 1293              		.align	2
 1294              	.L71:
 1295 004c 00000000 		.word	memcpy
 1296 0050 00000000 		.word	i2cm
 1297              		.cfi_endproc
 1298              	.LFE14:
 1300              		.section	.text.VL53L0X_UpdateByte,"ax",%progbits
 1301              		.align	1
 1302              		.global	VL53L0X_UpdateByte
 1303              		.thumb
 1304              		.thumb_func
 1306              	VL53L0X_UpdateByte:
 1307              	.LFB15:
 715:/home/tienluong/workspace/atlantis_fw/platform/driver/src/tof.c **** 
 716:/home/tienluong/workspace/atlantis_fw/platform/driver/src/tof.c **** VL53L0X_Error VL53L0X_UpdateByte(VL53L0X_DEV Dev, uint8_t index,
 717:/home/tienluong/workspace/atlantis_fw/platform/driver/src/tof.c **** 				uint8_t AndData, uint8_t OrData)
 718:/home/tienluong/workspace/atlantis_fw/platform/driver/src/tof.c **** {
 1308              		.loc 1 718 0
 1309              		.cfi_startproc
 1310              		@ args = 0, pretend = 0, frame = 8
 1311              		@ frame_needed = 0, uses_anonymous_args = 0
 1312              	.LVL133:
 1313 0000 F7B5     		push	{r0, r1, r2, r4, r5, r6, r7, lr}
 1314              	.LCFI32:
 1315              		.cfi_def_cfa_offset 32
 1316              		.cfi_offset 4, -20
 1317              		.cfi_offset 5, -16
 1318              		.cfi_offset 6, -12
 1319              		.cfi_offset 7, -8
 1320              		.cfi_offset 14, -4
 1321              		.loc 1 718 0
 1322 0002 1746     		mov	r7, r2
 1323 0004 1E46     		mov	r6, r3
 719:/home/tienluong/workspace/atlantis_fw/platform/driver/src/tof.c **** 	VL53L0X_Error Status = VL53L0X_ERROR_NONE;
 720:/home/tienluong/workspace/atlantis_fw/platform/driver/src/tof.c **** 	uint8_t data;
 721:/home/tienluong/workspace/atlantis_fw/platform/driver/src/tof.c **** 	VL53L0X_RdByte(Dev, index, &data);
 1324              		.loc 1 721 0
 1325 0006 0DF10702 		add	r2, sp, #7
 1326              	.LVL134:
 1327 000a 084B     		ldr	r3, .L74
 1328              	.LVL135:
 718:/home/tienluong/workspace/atlantis_fw/platform/driver/src/tof.c **** 	VL53L0X_Error Status = VL53L0X_ERROR_NONE;
 1329              		.loc 1 718 0
 1330 000c 0546     		mov	r5, r0
 1331 000e 0C46     		mov	r4, r1
 1332              		.loc 1 721 0
 1333 0010 9847     		blx	r3
 1334              	.LVL136:
 722:/home/tienluong/workspace/atlantis_fw/platform/driver/src/tof.c **** 	if(VL53L0X_ERROR_NONE == Status)
 723:/home/tienluong/workspace/atlantis_fw/platform/driver/src/tof.c **** 	{
 724:/home/tienluong/workspace/atlantis_fw/platform/driver/src/tof.c **** 		data = (data & AndData) | OrData;
 1335              		.loc 1 724 0
 1336 0012 9DF80720 		ldrb	r2, [sp, #7]	@ zero_extendqisi2
 1337 0016 3A40     		ands	r2, r2, r7
 1338 0018 3243     		orrs	r2, r2, r6
 725:/home/tienluong/workspace/atlantis_fw/platform/driver/src/tof.c **** 		Status = VL53L0X_WrByte(Dev, index, data);
 1339              		.loc 1 725 0
 1340 001a 2846     		mov	r0, r5
 1341 001c 2146     		mov	r1, r4
 1342 001e 044B     		ldr	r3, .L74+4
 724:/home/tienluong/workspace/atlantis_fw/platform/driver/src/tof.c **** 		Status = VL53L0X_WrByte(Dev, index, data);
 1343              		.loc 1 724 0
 1344 0020 8DF80720 		strb	r2, [sp, #7]
 1345              		.loc 1 725 0
 1346 0024 9847     		blx	r3
 1347              	.LVL137:
 726:/home/tienluong/workspace/atlantis_fw/platform/driver/src/tof.c **** 	}
 727:/home/tienluong/workspace/atlantis_fw/platform/driver/src/tof.c **** 	return Status;
 728:/home/tienluong/workspace/atlantis_fw/platform/driver/src/tof.c **** }
 1348              		.loc 1 728 0
 1349 0026 03B0     		add	sp, sp, #12
 1350              	.LCFI33:
 1351              		.cfi_def_cfa_offset 20
 1352              		@ sp needed
 1353 0028 F0BD     		pop	{r4, r5, r6, r7, pc}
 1354              	.LVL138:
 1355              	.L75:
 1356 002a 00BF     		.align	2
 1357              	.L74:
 1358 002c 00000000 		.word	VL53L0X_RdByte
 1359 0030 00000000 		.word	VL53L0X_WrByte
 1360              		.cfi_endproc
 1361              	.LFE15:
 1363              		.section	.text.VL53L0X_get_device_error_string,"ax",%progbits
 1364              		.align	1
 1365              		.global	VL53L0X_get_device_error_string
 1366              		.thumb
 1367              		.thumb_func
 1369              	VL53L0X_get_device_error_string:
 1370              	.LFB18:
 729:/home/tienluong/workspace/atlantis_fw/platform/driver/src/tof.c **** 
 730:/home/tienluong/workspace/atlantis_fw/platform/driver/src/tof.c **** VL53L0X_Error VL53L0X_check_part_used(VL53L0X_DEV Dev, uint8_t *Revision,
 731:/home/tienluong/workspace/atlantis_fw/platform/driver/src/tof.c **** 		VL53L0X_DeviceInfo_t *pVL53L0X_DeviceInfo)
 732:/home/tienluong/workspace/atlantis_fw/platform/driver/src/tof.c **** {
 733:/home/tienluong/workspace/atlantis_fw/platform/driver/src/tof.c **** 	VL53L0X_Error Status = VL53L0X_ERROR_NONE;
 734:/home/tienluong/workspace/atlantis_fw/platform/driver/src/tof.c **** 	uint8_t ModuleIdInt;
 735:/home/tienluong/workspace/atlantis_fw/platform/driver/src/tof.c **** 	char *ProductId_tmp;
 736:/home/tienluong/workspace/atlantis_fw/platform/driver/src/tof.c **** 
 737:/home/tienluong/workspace/atlantis_fw/platform/driver/src/tof.c **** 	Status = VL53L0X_get_info_from_device(Dev, 2);
 738:/home/tienluong/workspace/atlantis_fw/platform/driver/src/tof.c **** 	if (Status == VL53L0X_ERROR_NONE)
 739:/home/tienluong/workspace/atlantis_fw/platform/driver/src/tof.c **** 	{
 740:/home/tienluong/workspace/atlantis_fw/platform/driver/src/tof.c **** 		ModuleIdInt = VL53L0X_GETDEVICESPECIFICPARAMETER(Dev, ModuleId);
 741:/home/tienluong/workspace/atlantis_fw/platform/driver/src/tof.c **** 
 742:/home/tienluong/workspace/atlantis_fw/platform/driver/src/tof.c **** 		if (ModuleIdInt == 0) {
 743:/home/tienluong/workspace/atlantis_fw/platform/driver/src/tof.c **** 			*Revision = 0;
 744:/home/tienluong/workspace/atlantis_fw/platform/driver/src/tof.c **** 			VL53L0X_COPYSTRING(pVL53L0X_DeviceInfo->ProductId, "");
 745:/home/tienluong/workspace/atlantis_fw/platform/driver/src/tof.c **** 		}
 746:/home/tienluong/workspace/atlantis_fw/platform/driver/src/tof.c **** 		else
 747:/home/tienluong/workspace/atlantis_fw/platform/driver/src/tof.c **** 		{
 748:/home/tienluong/workspace/atlantis_fw/platform/driver/src/tof.c **** 			*Revision = VL53L0X_GETDEVICESPECIFICPARAMETER(Dev, Revision);
 749:/home/tienluong/workspace/atlantis_fw/platform/driver/src/tof.c **** 			ProductId_tmp = VL53L0X_GETDEVICESPECIFICPARAMETER(Dev, ProductId);
 750:/home/tienluong/workspace/atlantis_fw/platform/driver/src/tof.c **** 			VL53L0X_COPYSTRING(pVL53L0X_DeviceInfo->ProductId, ProductId_tmp);
 751:/home/tienluong/workspace/atlantis_fw/platform/driver/src/tof.c **** 		}
 752:/home/tienluong/workspace/atlantis_fw/platform/driver/src/tof.c **** 	}
 753:/home/tienluong/workspace/atlantis_fw/platform/driver/src/tof.c **** 	return Status;
 754:/home/tienluong/workspace/atlantis_fw/platform/driver/src/tof.c **** }
 755:/home/tienluong/workspace/atlantis_fw/platform/driver/src/tof.c **** 
 756:/home/tienluong/workspace/atlantis_fw/platform/driver/src/tof.c **** VL53L0X_Error VL53L0X_get_device_info(VL53L0X_DEV Dev,
 757:/home/tienluong/workspace/atlantis_fw/platform/driver/src/tof.c **** 				VL53L0X_DeviceInfo_t *pVL53L0X_DeviceInfo)
 758:/home/tienluong/workspace/atlantis_fw/platform/driver/src/tof.c **** {
 759:/home/tienluong/workspace/atlantis_fw/platform/driver/src/tof.c **** 	VL53L0X_Error Status = VL53L0X_ERROR_NONE;
 760:/home/tienluong/workspace/atlantis_fw/platform/driver/src/tof.c **** 	uint8_t revision_id;
 761:/home/tienluong/workspace/atlantis_fw/platform/driver/src/tof.c **** 	uint8_t Revision;
 762:/home/tienluong/workspace/atlantis_fw/platform/driver/src/tof.c **** 
 763:/home/tienluong/workspace/atlantis_fw/platform/driver/src/tof.c **** 	Status = VL53L0X_check_part_used(Dev, &Revision, pVL53L0X_DeviceInfo);
 764:/home/tienluong/workspace/atlantis_fw/platform/driver/src/tof.c **** 
 765:/home/tienluong/workspace/atlantis_fw/platform/driver/src/tof.c **** 	if (Status == VL53L0X_ERROR_NONE) {
 766:/home/tienluong/workspace/atlantis_fw/platform/driver/src/tof.c **** 		if (Revision == 0)
 767:/home/tienluong/workspace/atlantis_fw/platform/driver/src/tof.c **** 			VL53L0X_COPYSTRING(pVL53L0X_DeviceInfo->Name,
 768:/home/tienluong/workspace/atlantis_fw/platform/driver/src/tof.c **** 				VL53L0X_STRING_DEVICE_INFO_NAME_TS0);
 769:/home/tienluong/workspace/atlantis_fw/platform/driver/src/tof.c **** 		else if ((Revision <= 34) && (Revision != 32))
 770:/home/tienluong/workspace/atlantis_fw/platform/driver/src/tof.c **** 			VL53L0X_COPYSTRING(pVL53L0X_DeviceInfo->Name,
 771:/home/tienluong/workspace/atlantis_fw/platform/driver/src/tof.c **** 				VL53L0X_STRING_DEVICE_INFO_NAME_TS1);
 772:/home/tienluong/workspace/atlantis_fw/platform/driver/src/tof.c **** 		else if (Revision < 39)
 773:/home/tienluong/workspace/atlantis_fw/platform/driver/src/tof.c **** 			VL53L0X_COPYSTRING(pVL53L0X_DeviceInfo->Name,
 774:/home/tienluong/workspace/atlantis_fw/platform/driver/src/tof.c **** 				VL53L0X_STRING_DEVICE_INFO_NAME_TS2);
 775:/home/tienluong/workspace/atlantis_fw/platform/driver/src/tof.c **** 		else
 776:/home/tienluong/workspace/atlantis_fw/platform/driver/src/tof.c **** 			VL53L0X_COPYSTRING(pVL53L0X_DeviceInfo->Name,
 777:/home/tienluong/workspace/atlantis_fw/platform/driver/src/tof.c **** 				VL53L0X_STRING_DEVICE_INFO_NAME_ES1);
 778:/home/tienluong/workspace/atlantis_fw/platform/driver/src/tof.c **** 		VL53L0X_COPYSTRING(pVL53L0X_DeviceInfo->Type,
 779:/home/tienluong/workspace/atlantis_fw/platform/driver/src/tof.c **** 			VL53L0X_STRING_DEVICE_INFO_TYPE);
 780:/home/tienluong/workspace/atlantis_fw/platform/driver/src/tof.c **** 	}
 781:/home/tienluong/workspace/atlantis_fw/platform/driver/src/tof.c **** 
 782:/home/tienluong/workspace/atlantis_fw/platform/driver/src/tof.c **** 	if (Status == VL53L0X_ERROR_NONE) {
 783:/home/tienluong/workspace/atlantis_fw/platform/driver/src/tof.c **** 		Status = VL53L0X_RdByte(Dev, VL53L0X_REG_IDENTIFICATION_MODEL_ID,
 784:/home/tienluong/workspace/atlantis_fw/platform/driver/src/tof.c **** 				&pVL53L0X_DeviceInfo->ProductType);
 785:/home/tienluong/workspace/atlantis_fw/platform/driver/src/tof.c **** 	}
 786:/home/tienluong/workspace/atlantis_fw/platform/driver/src/tof.c **** 
 787:/home/tienluong/workspace/atlantis_fw/platform/driver/src/tof.c **** 	if (Status == VL53L0X_ERROR_NONE) {
 788:/home/tienluong/workspace/atlantis_fw/platform/driver/src/tof.c **** 		Status = VL53L0X_RdByte(Dev,
 789:/home/tienluong/workspace/atlantis_fw/platform/driver/src/tof.c **** 			VL53L0X_REG_IDENTIFICATION_REVISION_ID,
 790:/home/tienluong/workspace/atlantis_fw/platform/driver/src/tof.c **** 				&revision_id);
 791:/home/tienluong/workspace/atlantis_fw/platform/driver/src/tof.c **** 		pVL53L0X_DeviceInfo->ProductRevisionMajor = 1;
 792:/home/tienluong/workspace/atlantis_fw/platform/driver/src/tof.c **** 		pVL53L0X_DeviceInfo->ProductRevisionMinor =
 793:/home/tienluong/workspace/atlantis_fw/platform/driver/src/tof.c **** 					(revision_id & 0xF0) >> 4;
 794:/home/tienluong/workspace/atlantis_fw/platform/driver/src/tof.c **** 	}
 795:/home/tienluong/workspace/atlantis_fw/platform/driver/src/tof.c **** 	return Status;
 796:/home/tienluong/workspace/atlantis_fw/platform/driver/src/tof.c **** }
 797:/home/tienluong/workspace/atlantis_fw/platform/driver/src/tof.c **** 
 798:/home/tienluong/workspace/atlantis_fw/platform/driver/src/tof.c **** 
 799:/home/tienluong/workspace/atlantis_fw/platform/driver/src/tof.c **** VL53L0X_Error VL53L0X_get_device_error_string(VL53L0X_DeviceError ErrorCode,
 800:/home/tienluong/workspace/atlantis_fw/platform/driver/src/tof.c **** 		char *pDeviceErrorString)
 801:/home/tienluong/workspace/atlantis_fw/platform/driver/src/tof.c **** {
 1371              		.loc 1 801 0
 1372              		.cfi_startproc
 1373              		@ args = 0, pretend = 0, frame = 0
 1374              		@ frame_needed = 0, uses_anonymous_args = 0
 1375              	.LVL139:
 1376 0000 08B5     		push	{r3, lr}
 1377              	.LCFI34:
 1378              		.cfi_def_cfa_offset 8
 1379              		.cfi_offset 3, -8
 1380              		.cfi_offset 14, -4
 1381 0002 1F4B     		ldr	r3, .L96
 802:/home/tienluong/workspace/atlantis_fw/platform/driver/src/tof.c **** 	VL53L0X_Error Status = VL53L0X_ERROR_NONE;
 803:/home/tienluong/workspace/atlantis_fw/platform/driver/src/tof.c **** 
 804:/home/tienluong/workspace/atlantis_fw/platform/driver/src/tof.c **** 	switch (ErrorCode) {
 1382              		.loc 1 804 0
 1383 0004 0E28     		cmp	r0, #14
 1384 0006 36D8     		bhi	.L77
 1385 0008 DFE800F0 		tbb	[pc, r0]
 1386              	.L79:
 1387 000c 08       		.byte	(.L78-.L79)/2
 1388 000d 0B       		.byte	(.L80-.L79)/2
 1389 000e 0E       		.byte	(.L81-.L79)/2
 1390 000f 11       		.byte	(.L82-.L79)/2
 1391 0010 14       		.byte	(.L83-.L79)/2
 1392 0011 17       		.byte	(.L84-.L79)/2
 1393 0012 1A       		.byte	(.L85-.L79)/2
 1394 0013 1D       		.byte	(.L86-.L79)/2
 1395 0014 20       		.byte	(.L87-.L79)/2
 1396 0015 23       		.byte	(.L88-.L79)/2
 1397 0016 26       		.byte	(.L89-.L79)/2
 1398 0017 29       		.byte	(.L90-.L79)/2
 1399 0018 2C       		.byte	(.L91-.L79)/2
 1400 0019 2F       		.byte	(.L92-.L79)/2
 1401 001a 32       		.byte	(.L93-.L79)/2
 1402 001b 00       		.p2align 1
 1403              	.L78:
 805:/home/tienluong/workspace/atlantis_fw/platform/driver/src/tof.c **** 	case VL53L0X_DEVICEERROR_NONE:
 806:/home/tienluong/workspace/atlantis_fw/platform/driver/src/tof.c **** 		VL53L0X_COPYSTRING(pDeviceErrorString,
 1404              		.loc 1 806 0
 1405 001c 0846     		mov	r0, r1
 1406              	.LVL140:
 1407 001e 1949     		ldr	r1, .L96+4
 1408              	.LVL141:
 1409 0020 2BE0     		b	.L95
 1410              	.LVL142:
 1411              	.L80:
 807:/home/tienluong/workspace/atlantis_fw/platform/driver/src/tof.c **** 			VL53L0X_STRING_DEVICEERROR_NONE);
 808:/home/tienluong/workspace/atlantis_fw/platform/driver/src/tof.c **** 	break;
 809:/home/tienluong/workspace/atlantis_fw/platform/driver/src/tof.c **** 	case VL53L0X_DEVICEERROR_VCSELCONTINUITYTESTFAILURE:
 810:/home/tienluong/workspace/atlantis_fw/platform/driver/src/tof.c **** 		VL53L0X_COPYSTRING(pDeviceErrorString,
 1412              		.loc 1 810 0
 1413 0022 0846     		mov	r0, r1
 1414              	.LVL143:
 1415 0024 1849     		ldr	r1, .L96+8
 1416              	.LVL144:
 1417 0026 28E0     		b	.L95
 1418              	.LVL145:
 1419              	.L81:
 811:/home/tienluong/workspace/atlantis_fw/platform/driver/src/tof.c **** 			VL53L0X_STRING_DEVICEERROR_VCSELCONTINUITYTESTFAILURE);
 812:/home/tienluong/workspace/atlantis_fw/platform/driver/src/tof.c **** 	break;
 813:/home/tienluong/workspace/atlantis_fw/platform/driver/src/tof.c **** 	case VL53L0X_DEVICEERROR_VCSELWATCHDOGTESTFAILURE:
 814:/home/tienluong/workspace/atlantis_fw/platform/driver/src/tof.c **** 		VL53L0X_COPYSTRING(pDeviceErrorString,
 1420              		.loc 1 814 0
 1421 0028 0846     		mov	r0, r1
 1422              	.LVL146:
 1423 002a 1849     		ldr	r1, .L96+12
 1424              	.LVL147:
 1425 002c 25E0     		b	.L95
 1426              	.LVL148:
 1427              	.L82:
 815:/home/tienluong/workspace/atlantis_fw/platform/driver/src/tof.c **** 			VL53L0X_STRING_DEVICEERROR_VCSELWATCHDOGTESTFAILURE);
 816:/home/tienluong/workspace/atlantis_fw/platform/driver/src/tof.c **** 	break;
 817:/home/tienluong/workspace/atlantis_fw/platform/driver/src/tof.c **** 	case VL53L0X_DEVICEERROR_NOVHVVALUEFOUND:
 818:/home/tienluong/workspace/atlantis_fw/platform/driver/src/tof.c **** 		VL53L0X_COPYSTRING(pDeviceErrorString,
 1428              		.loc 1 818 0
 1429 002e 0846     		mov	r0, r1
 1430              	.LVL149:
 1431 0030 1749     		ldr	r1, .L96+16
 1432              	.LVL150:
 1433 0032 22E0     		b	.L95
 1434              	.LVL151:
 1435              	.L83:
 819:/home/tienluong/workspace/atlantis_fw/platform/driver/src/tof.c **** 			VL53L0X_STRING_DEVICEERROR_NOVHVVALUEFOUND);
 820:/home/tienluong/workspace/atlantis_fw/platform/driver/src/tof.c **** 	break;
 821:/home/tienluong/workspace/atlantis_fw/platform/driver/src/tof.c **** 	case VL53L0X_DEVICEERROR_MSRCNOTARGET:
 822:/home/tienluong/workspace/atlantis_fw/platform/driver/src/tof.c **** 		VL53L0X_COPYSTRING(pDeviceErrorString,
 1436              		.loc 1 822 0
 1437 0034 0846     		mov	r0, r1
 1438              	.LVL152:
 1439 0036 1749     		ldr	r1, .L96+20
 1440              	.LVL153:
 1441 0038 1FE0     		b	.L95
 1442              	.LVL154:
 1443              	.L84:
 823:/home/tienluong/workspace/atlantis_fw/platform/driver/src/tof.c **** 			VL53L0X_STRING_DEVICEERROR_MSRCNOTARGET);
 824:/home/tienluong/workspace/atlantis_fw/platform/driver/src/tof.c **** 	break;
 825:/home/tienluong/workspace/atlantis_fw/platform/driver/src/tof.c **** 	case VL53L0X_DEVICEERROR_SNRCHECK:
 826:/home/tienluong/workspace/atlantis_fw/platform/driver/src/tof.c **** 		VL53L0X_COPYSTRING(pDeviceErrorString,
 1444              		.loc 1 826 0
 1445 003a 0846     		mov	r0, r1
 1446              	.LVL155:
 1447 003c 1649     		ldr	r1, .L96+24
 1448              	.LVL156:
 1449 003e 1CE0     		b	.L95
 1450              	.LVL157:
 1451              	.L85:
 827:/home/tienluong/workspace/atlantis_fw/platform/driver/src/tof.c **** 			VL53L0X_STRING_DEVICEERROR_SNRCHECK);
 828:/home/tienluong/workspace/atlantis_fw/platform/driver/src/tof.c **** 	break;
 829:/home/tienluong/workspace/atlantis_fw/platform/driver/src/tof.c **** 	case VL53L0X_DEVICEERROR_RANGEPHASECHECK:
 830:/home/tienluong/workspace/atlantis_fw/platform/driver/src/tof.c **** 		VL53L0X_COPYSTRING(pDeviceErrorString,
 1452              		.loc 1 830 0
 1453 0040 0846     		mov	r0, r1
 1454              	.LVL158:
 1455 0042 1649     		ldr	r1, .L96+28
 1456              	.LVL159:
 1457 0044 19E0     		b	.L95
 1458              	.LVL160:
 1459              	.L86:
 831:/home/tienluong/workspace/atlantis_fw/platform/driver/src/tof.c **** 			VL53L0X_STRING_DEVICEERROR_RANGEPHASECHECK);
 832:/home/tienluong/workspace/atlantis_fw/platform/driver/src/tof.c **** 	break;
 833:/home/tienluong/workspace/atlantis_fw/platform/driver/src/tof.c **** 	case VL53L0X_DEVICEERROR_SIGMATHRESHOLDCHECK:
 834:/home/tienluong/workspace/atlantis_fw/platform/driver/src/tof.c **** 		VL53L0X_COPYSTRING(pDeviceErrorString,
 1460              		.loc 1 834 0
 1461 0046 0846     		mov	r0, r1
 1462              	.LVL161:
 1463 0048 1549     		ldr	r1, .L96+32
 1464              	.LVL162:
 1465 004a 16E0     		b	.L95
 1466              	.LVL163:
 1467              	.L87:
 835:/home/tienluong/workspace/atlantis_fw/platform/driver/src/tof.c **** 			VL53L0X_STRING_DEVICEERROR_SIGMATHRESHOLDCHECK);
 836:/home/tienluong/workspace/atlantis_fw/platform/driver/src/tof.c **** 	break;
 837:/home/tienluong/workspace/atlantis_fw/platform/driver/src/tof.c **** 	case VL53L0X_DEVICEERROR_TCC:
 838:/home/tienluong/workspace/atlantis_fw/platform/driver/src/tof.c **** 		VL53L0X_COPYSTRING(pDeviceErrorString,
 1468              		.loc 1 838 0
 1469 004c 0846     		mov	r0, r1
 1470              	.LVL164:
 1471 004e 1549     		ldr	r1, .L96+36
 1472              	.LVL165:
 1473 0050 13E0     		b	.L95
 1474              	.LVL166:
 1475              	.L88:
 839:/home/tienluong/workspace/atlantis_fw/platform/driver/src/tof.c **** 			VL53L0X_STRING_DEVICEERROR_TCC);
 840:/home/tienluong/workspace/atlantis_fw/platform/driver/src/tof.c **** 	break;
 841:/home/tienluong/workspace/atlantis_fw/platform/driver/src/tof.c **** 	case VL53L0X_DEVICEERROR_PHASECONSISTENCY:
 842:/home/tienluong/workspace/atlantis_fw/platform/driver/src/tof.c **** 		VL53L0X_COPYSTRING(pDeviceErrorString,
 1476              		.loc 1 842 0
 1477 0052 0846     		mov	r0, r1
 1478              	.LVL167:
 1479 0054 1449     		ldr	r1, .L96+40
 1480              	.LVL168:
 1481 0056 10E0     		b	.L95
 1482              	.LVL169:
 1483              	.L89:
 843:/home/tienluong/workspace/atlantis_fw/platform/driver/src/tof.c **** 			VL53L0X_STRING_DEVICEERROR_PHASECONSISTENCY);
 844:/home/tienluong/workspace/atlantis_fw/platform/driver/src/tof.c **** 	break;
 845:/home/tienluong/workspace/atlantis_fw/platform/driver/src/tof.c **** 	case VL53L0X_DEVICEERROR_MINCLIP:
 846:/home/tienluong/workspace/atlantis_fw/platform/driver/src/tof.c **** 		VL53L0X_COPYSTRING(pDeviceErrorString,
 1484              		.loc 1 846 0
 1485 0058 0846     		mov	r0, r1
 1486              	.LVL170:
 1487 005a 1449     		ldr	r1, .L96+44
 1488              	.LVL171:
 1489 005c 0DE0     		b	.L95
 1490              	.LVL172:
 1491              	.L90:
 847:/home/tienluong/workspace/atlantis_fw/platform/driver/src/tof.c **** 			VL53L0X_STRING_DEVICEERROR_MINCLIP);
 848:/home/tienluong/workspace/atlantis_fw/platform/driver/src/tof.c **** 	break;
 849:/home/tienluong/workspace/atlantis_fw/platform/driver/src/tof.c **** 	case VL53L0X_DEVICEERROR_RANGECOMPLETE:
 850:/home/tienluong/workspace/atlantis_fw/platform/driver/src/tof.c **** 		VL53L0X_COPYSTRING(pDeviceErrorString,
 1492              		.loc 1 850 0
 1493 005e 0846     		mov	r0, r1
 1494              	.LVL173:
 1495 0060 1349     		ldr	r1, .L96+48
 1496              	.LVL174:
 1497 0062 0AE0     		b	.L95
 1498              	.LVL175:
 1499              	.L91:
 851:/home/tienluong/workspace/atlantis_fw/platform/driver/src/tof.c **** 			VL53L0X_STRING_DEVICEERROR_RANGECOMPLETE);
 852:/home/tienluong/workspace/atlantis_fw/platform/driver/src/tof.c **** 	break;
 853:/home/tienluong/workspace/atlantis_fw/platform/driver/src/tof.c **** 	case VL53L0X_DEVICEERROR_ALGOUNDERFLOW:
 854:/home/tienluong/workspace/atlantis_fw/platform/driver/src/tof.c **** 		VL53L0X_COPYSTRING(pDeviceErrorString,
 1500              		.loc 1 854 0
 1501 0064 0846     		mov	r0, r1
 1502              	.LVL176:
 1503 0066 1349     		ldr	r1, .L96+52
 1504              	.LVL177:
 1505 0068 07E0     		b	.L95
 1506              	.LVL178:
 1507              	.L92:
 855:/home/tienluong/workspace/atlantis_fw/platform/driver/src/tof.c **** 			VL53L0X_STRING_DEVICEERROR_ALGOUNDERFLOW);
 856:/home/tienluong/workspace/atlantis_fw/platform/driver/src/tof.c **** 	break;
 857:/home/tienluong/workspace/atlantis_fw/platform/driver/src/tof.c **** 	case VL53L0X_DEVICEERROR_ALGOOVERFLOW:
 858:/home/tienluong/workspace/atlantis_fw/platform/driver/src/tof.c **** 		VL53L0X_COPYSTRING(pDeviceErrorString,
 1508              		.loc 1 858 0
 1509 006a 0846     		mov	r0, r1
 1510              	.LVL179:
 1511 006c 1249     		ldr	r1, .L96+56
 1512              	.LVL180:
 1513 006e 04E0     		b	.L95
 1514              	.LVL181:
 1515              	.L93:
 859:/home/tienluong/workspace/atlantis_fw/platform/driver/src/tof.c **** 			VL53L0X_STRING_DEVICEERROR_ALGOOVERFLOW);
 860:/home/tienluong/workspace/atlantis_fw/platform/driver/src/tof.c **** 	break;
 861:/home/tienluong/workspace/atlantis_fw/platform/driver/src/tof.c **** 	case VL53L0X_DEVICEERROR_RANGEIGNORETHRESHOLD:
 862:/home/tienluong/workspace/atlantis_fw/platform/driver/src/tof.c **** 		VL53L0X_COPYSTRING(pDeviceErrorString,
 1516              		.loc 1 862 0
 1517 0070 0846     		mov	r0, r1
 1518              	.LVL182:
 1519 0072 1249     		ldr	r1, .L96+60
 1520              	.LVL183:
 1521 0074 01E0     		b	.L95
 1522              	.LVL184:
 1523              	.L77:
 863:/home/tienluong/workspace/atlantis_fw/platform/driver/src/tof.c **** 			VL53L0X_STRING_DEVICEERROR_RANGEIGNORETHRESHOLD);
 864:/home/tienluong/workspace/atlantis_fw/platform/driver/src/tof.c **** 	break;
 865:/home/tienluong/workspace/atlantis_fw/platform/driver/src/tof.c **** 
 866:/home/tienluong/workspace/atlantis_fw/platform/driver/src/tof.c **** 	default:
 867:/home/tienluong/workspace/atlantis_fw/platform/driver/src/tof.c **** 		VL53L0X_COPYSTRING(pDeviceErrorString,
 1524              		.loc 1 867 0
 1525 0076 0846     		mov	r0, r1
 1526              	.LVL185:
 1527 0078 1149     		ldr	r1, .L96+64
 1528              	.LVL186:
 1529              	.L95:
 1530 007a 9847     		blx	r3
 1531              	.LVL187:
 868:/home/tienluong/workspace/atlantis_fw/platform/driver/src/tof.c **** 			VL53L0X_STRING_UNKNOWN_ERROR_CODE);
 869:/home/tienluong/workspace/atlantis_fw/platform/driver/src/tof.c **** 	}
 870:/home/tienluong/workspace/atlantis_fw/platform/driver/src/tof.c **** 	return Status;
 871:/home/tienluong/workspace/atlantis_fw/platform/driver/src/tof.c **** }
 1532              		.loc 1 871 0
 1533 007c 0020     		movs	r0, #0
 1534 007e 08BD     		pop	{r3, pc}
 1535              	.L97:
 1536              		.align	2
 1537              	.L96:
 1538 0080 00000000 		.word	strcpy
 1539 0084 EB000000 		.word	.LC5
 1540 0088 F5000000 		.word	.LC6
 1541 008c 13010000 		.word	.LC7
 1542 0090 2F010000 		.word	.LC8
 1543 0094 42010000 		.word	.LC9
 1544 0098 57010000 		.word	.LC10
 1545 009c 66010000 		.word	.LC11
 1546 00a0 7E010000 		.word	.LC12
 1547 00a4 9A010000 		.word	.LC13
 1548 00a8 A4010000 		.word	.LC14
 1549 00ac BC010000 		.word	.LC15
 1550 00b0 CB010000 		.word	.LC16
 1551 00b4 DA010000 		.word	.LC17
 1552 00b8 F5010000 		.word	.LC18
 1553 00bc 0E020000 		.word	.LC19
 1554 00c0 2B020000 		.word	.LC20
 1555              		.cfi_endproc
 1556              	.LFE18:
 1558              		.section	.text.VL53L0X_get_range_status_string,"ax",%progbits
 1559              		.align	1
 1560              		.global	VL53L0X_get_range_status_string
 1561              		.thumb
 1562              		.thumb_func
 1564              	VL53L0X_get_range_status_string:
 1565              	.LFB19:
 872:/home/tienluong/workspace/atlantis_fw/platform/driver/src/tof.c **** 
 873:/home/tienluong/workspace/atlantis_fw/platform/driver/src/tof.c **** VL53L0X_Error VL53L0X_get_range_status_string(uint8_t RangeStatus,
 874:/home/tienluong/workspace/atlantis_fw/platform/driver/src/tof.c **** 		char *pRangeStatusString)
 875:/home/tienluong/workspace/atlantis_fw/platform/driver/src/tof.c **** {
 1566              		.loc 1 875 0
 1567              		.cfi_startproc
 1568              		@ args = 0, pretend = 0, frame = 0
 1569              		@ frame_needed = 0, uses_anonymous_args = 0
 1570              	.LVL188:
 1571 0000 08B5     		push	{r3, lr}
 1572              	.LCFI35:
 1573              		.cfi_def_cfa_offset 8
 1574              		.cfi_offset 3, -8
 1575              		.cfi_offset 14, -4
 1576 0002 0F4B     		ldr	r3, .L109
 876:/home/tienluong/workspace/atlantis_fw/platform/driver/src/tof.c **** 	VL53L0X_Error Status = VL53L0X_ERROR_NONE;
 877:/home/tienluong/workspace/atlantis_fw/platform/driver/src/tof.c **** 
 878:/home/tienluong/workspace/atlantis_fw/platform/driver/src/tof.c **** 	switch (RangeStatus) {
 1577              		.loc 1 878 0
 1578 0004 0528     		cmp	r0, #5
 1579 0006 16D8     		bhi	.L99
 1580 0008 DFE800F0 		tbb	[pc, r0]
 1581              	.L101:
 1582 000c 03       		.byte	(.L100-.L101)/2
 1583 000d 06       		.byte	(.L102-.L101)/2
 1584 000e 09       		.byte	(.L103-.L101)/2
 1585 000f 0C       		.byte	(.L104-.L101)/2
 1586 0010 0F       		.byte	(.L105-.L101)/2
 1587 0011 12       		.byte	(.L106-.L101)/2
 1588              		.p2align 1
 1589              	.L100:
 879:/home/tienluong/workspace/atlantis_fw/platform/driver/src/tof.c **** 	case 0:
 880:/home/tienluong/workspace/atlantis_fw/platform/driver/src/tof.c **** 		VL53L0X_COPYSTRING(pRangeStatusString,
 1590              		.loc 1 880 0
 1591 0012 0846     		mov	r0, r1
 1592              	.LVL189:
 1593 0014 0B49     		ldr	r1, .L109+4
 1594              	.LVL190:
 1595 0016 10E0     		b	.L108
 1596              	.LVL191:
 1597              	.L102:
 881:/home/tienluong/workspace/atlantis_fw/platform/driver/src/tof.c **** 			VL53L0X_STRING_RANGESTATUS_RANGEVALID);
 882:/home/tienluong/workspace/atlantis_fw/platform/driver/src/tof.c **** 	break;
 883:/home/tienluong/workspace/atlantis_fw/platform/driver/src/tof.c **** 	case 1:
 884:/home/tienluong/workspace/atlantis_fw/platform/driver/src/tof.c **** 		VL53L0X_COPYSTRING(pRangeStatusString,
 1598              		.loc 1 884 0
 1599 0018 0846     		mov	r0, r1
 1600              	.LVL192:
 1601 001a 0B49     		ldr	r1, .L109+8
 1602              	.LVL193:
 1603 001c 0DE0     		b	.L108
 1604              	.LVL194:
 1605              	.L103:
 885:/home/tienluong/workspace/atlantis_fw/platform/driver/src/tof.c **** 			VL53L0X_STRING_RANGESTATUS_SIGMA);
 886:/home/tienluong/workspace/atlantis_fw/platform/driver/src/tof.c **** 	break;
 887:/home/tienluong/workspace/atlantis_fw/platform/driver/src/tof.c **** 	case 2:
 888:/home/tienluong/workspace/atlantis_fw/platform/driver/src/tof.c **** 		VL53L0X_COPYSTRING(pRangeStatusString,
 1606              		.loc 1 888 0
 1607 001e 0846     		mov	r0, r1
 1608              	.LVL195:
 1609 0020 0A49     		ldr	r1, .L109+12
 1610              	.LVL196:
 1611 0022 0AE0     		b	.L108
 1612              	.LVL197:
 1613              	.L104:
 889:/home/tienluong/workspace/atlantis_fw/platform/driver/src/tof.c **** 			VL53L0X_STRING_RANGESTATUS_SIGNAL);
 890:/home/tienluong/workspace/atlantis_fw/platform/driver/src/tof.c **** 	break;
 891:/home/tienluong/workspace/atlantis_fw/platform/driver/src/tof.c **** 	case 3:
 892:/home/tienluong/workspace/atlantis_fw/platform/driver/src/tof.c **** 		VL53L0X_COPYSTRING(pRangeStatusString,
 1614              		.loc 1 892 0
 1615 0024 0846     		mov	r0, r1
 1616              	.LVL198:
 1617 0026 0A49     		ldr	r1, .L109+16
 1618              	.LVL199:
 1619 0028 07E0     		b	.L108
 1620              	.LVL200:
 1621              	.L105:
 893:/home/tienluong/workspace/atlantis_fw/platform/driver/src/tof.c **** 			VL53L0X_STRING_RANGESTATUS_MINRANGE);
 894:/home/tienluong/workspace/atlantis_fw/platform/driver/src/tof.c **** 	break;
 895:/home/tienluong/workspace/atlantis_fw/platform/driver/src/tof.c **** 	case 4:
 896:/home/tienluong/workspace/atlantis_fw/platform/driver/src/tof.c **** 		VL53L0X_COPYSTRING(pRangeStatusString,
 1622              		.loc 1 896 0
 1623 002a 0846     		mov	r0, r1
 1624              	.LVL201:
 1625 002c 0949     		ldr	r1, .L109+20
 1626              	.LVL202:
 1627 002e 04E0     		b	.L108
 1628              	.LVL203:
 1629              	.L106:
 897:/home/tienluong/workspace/atlantis_fw/platform/driver/src/tof.c **** 			VL53L0X_STRING_RANGESTATUS_PHASE);
 898:/home/tienluong/workspace/atlantis_fw/platform/driver/src/tof.c **** 	break;
 899:/home/tienluong/workspace/atlantis_fw/platform/driver/src/tof.c **** 	case 5:
 900:/home/tienluong/workspace/atlantis_fw/platform/driver/src/tof.c **** 		VL53L0X_COPYSTRING(pRangeStatusString,
 1630              		.loc 1 900 0
 1631 0030 0846     		mov	r0, r1
 1632              	.LVL204:
 1633 0032 0949     		ldr	r1, .L109+24
 1634              	.LVL205:
 1635 0034 01E0     		b	.L108
 1636              	.LVL206:
 1637              	.L99:
 901:/home/tienluong/workspace/atlantis_fw/platform/driver/src/tof.c **** 			VL53L0X_STRING_RANGESTATUS_HW);
 902:/home/tienluong/workspace/atlantis_fw/platform/driver/src/tof.c **** 	break;
 903:/home/tienluong/workspace/atlantis_fw/platform/driver/src/tof.c **** 
 904:/home/tienluong/workspace/atlantis_fw/platform/driver/src/tof.c **** 	default: /**/
 905:/home/tienluong/workspace/atlantis_fw/platform/driver/src/tof.c **** 		VL53L0X_COPYSTRING(pRangeStatusString,
 1638              		.loc 1 905 0
 1639 0036 0846     		mov	r0, r1
 1640              	.LVL207:
 1641 0038 0849     		ldr	r1, .L109+28
 1642              	.LVL208:
 1643              	.L108:
 1644 003a 9847     		blx	r3
 1645              	.LVL209:
 906:/home/tienluong/workspace/atlantis_fw/platform/driver/src/tof.c **** 				VL53L0X_STRING_RANGESTATUS_NONE);
 907:/home/tienluong/workspace/atlantis_fw/platform/driver/src/tof.c **** 	}
 908:/home/tienluong/workspace/atlantis_fw/platform/driver/src/tof.c **** 	return Status;
 909:/home/tienluong/workspace/atlantis_fw/platform/driver/src/tof.c **** }
 1646              		.loc 1 909 0
 1647 003c 0020     		movs	r0, #0
 1648 003e 08BD     		pop	{r3, pc}
 1649              	.L110:
 1650              		.align	2
 1651              	.L109:
 1652 0040 00000000 		.word	strcpy
 1653 0044 3E020000 		.word	.LC21
 1654 0048 4A020000 		.word	.LC22
 1655 004c 55020000 		.word	.LC23
 1656 0050 61020000 		.word	.LC24
 1657 0054 70020000 		.word	.LC25
 1658 0058 7B020000 		.word	.LC26
 1659 005c EB000000 		.word	.LC5
 1660              		.cfi_endproc
 1661              	.LFE19:
 1663              		.section	.text.VL53L0X_get_pal_error_string,"ax",%progbits
 1664              		.align	1
 1665              		.global	VL53L0X_get_pal_error_string
 1666              		.thumb
 1667              		.thumb_func
 1669              	VL53L0X_get_pal_error_string:
 1670              	.LFB20:
 910:/home/tienluong/workspace/atlantis_fw/platform/driver/src/tof.c **** 
 911:/home/tienluong/workspace/atlantis_fw/platform/driver/src/tof.c **** VL53L0X_Error VL53L0X_get_pal_error_string(VL53L0X_Error PalErrorCode,
 912:/home/tienluong/workspace/atlantis_fw/platform/driver/src/tof.c **** 		char *pPalErrorString)
 913:/home/tienluong/workspace/atlantis_fw/platform/driver/src/tof.c **** {
 1671              		.loc 1 913 0
 1672              		.cfi_startproc
 1673              		@ args = 0, pretend = 0, frame = 0
 1674              		@ frame_needed = 0, uses_anonymous_args = 0
 1675              	.LVL210:
 1676 0000 0246     		mov	r2, r0
 1677 0002 0846     		mov	r0, r1
 1678              	.LVL211:
 914:/home/tienluong/workspace/atlantis_fw/platform/driver/src/tof.c **** 	VL53L0X_Error Status = VL53L0X_ERROR_NONE;
 915:/home/tienluong/workspace/atlantis_fw/platform/driver/src/tof.c **** 
 916:/home/tienluong/workspace/atlantis_fw/platform/driver/src/tof.c **** 	switch (PalErrorCode) {
 1679              		.loc 1 916 0
 1680 0004 12F1090F 		cmn	r2, #9
 913:/home/tienluong/workspace/atlantis_fw/platform/driver/src/tof.c **** 	VL53L0X_Error Status = VL53L0X_ERROR_NONE;
 1681              		.loc 1 913 0
 1682 0008 08B5     		push	{r3, lr}
 1683              	.LCFI36:
 1684              		.cfi_def_cfa_offset 8
 1685              		.cfi_offset 3, -8
 1686              		.cfi_offset 14, -4
 1687 000a 294B     		ldr	r3, .L137
 1688              		.loc 1 916 0
 1689 000c 41D0     		beq	.L113
 1690 000e 1CDC     		bgt	.L114
 1691 0010 12F11E0F 		cmn	r2, #30
 1692 0014 41D0     		beq	.L115
 1693 0016 09DC     		bgt	.L116
 1694 0018 12F1320F 		cmn	r2, #50
 1695 001c 41D0     		beq	.L117
 1696 001e 12F1280F 		cmn	r2, #40
 1697 0022 3CD0     		beq	.L118
 1698 0024 6332     		adds	r2, r2, #99
 1699 0026 3ED1     		bne	.L112
 917:/home/tienluong/workspace/atlantis_fw/platform/driver/src/tof.c **** 	case VL53L0X_ERROR_NONE:
 918:/home/tienluong/workspace/atlantis_fw/platform/driver/src/tof.c **** 		VL53L0X_COPYSTRING(pPalErrorString,
 919:/home/tienluong/workspace/atlantis_fw/platform/driver/src/tof.c **** 			VL53L0X_STRING_ERROR_NONE);
 920:/home/tienluong/workspace/atlantis_fw/platform/driver/src/tof.c **** 	break;
 921:/home/tienluong/workspace/atlantis_fw/platform/driver/src/tof.c **** 	case VL53L0X_ERROR_CALIBRATION_WARNING:
 922:/home/tienluong/workspace/atlantis_fw/platform/driver/src/tof.c **** 		VL53L0X_COPYSTRING(pPalErrorString,
 923:/home/tienluong/workspace/atlantis_fw/platform/driver/src/tof.c **** 			VL53L0X_STRING_ERROR_CALIBRATION_WARNING);
 924:/home/tienluong/workspace/atlantis_fw/platform/driver/src/tof.c **** 	break;
 925:/home/tienluong/workspace/atlantis_fw/platform/driver/src/tof.c **** 	case VL53L0X_ERROR_MIN_CLIPPED:
 926:/home/tienluong/workspace/atlantis_fw/platform/driver/src/tof.c **** 		VL53L0X_COPYSTRING(pPalErrorString,
 927:/home/tienluong/workspace/atlantis_fw/platform/driver/src/tof.c **** 			VL53L0X_STRING_ERROR_MIN_CLIPPED);
 928:/home/tienluong/workspace/atlantis_fw/platform/driver/src/tof.c **** 	break;
 929:/home/tienluong/workspace/atlantis_fw/platform/driver/src/tof.c **** 	case VL53L0X_ERROR_UNDEFINED:
 930:/home/tienluong/workspace/atlantis_fw/platform/driver/src/tof.c **** 		VL53L0X_COPYSTRING(pPalErrorString,
 931:/home/tienluong/workspace/atlantis_fw/platform/driver/src/tof.c **** 			VL53L0X_STRING_ERROR_UNDEFINED);
 932:/home/tienluong/workspace/atlantis_fw/platform/driver/src/tof.c **** 	break;
 933:/home/tienluong/workspace/atlantis_fw/platform/driver/src/tof.c **** 	case VL53L0X_ERROR_INVALID_PARAMS:
 934:/home/tienluong/workspace/atlantis_fw/platform/driver/src/tof.c **** 		VL53L0X_COPYSTRING(pPalErrorString,
 935:/home/tienluong/workspace/atlantis_fw/platform/driver/src/tof.c **** 			VL53L0X_STRING_ERROR_INVALID_PARAMS);
 936:/home/tienluong/workspace/atlantis_fw/platform/driver/src/tof.c **** 	break;
 937:/home/tienluong/workspace/atlantis_fw/platform/driver/src/tof.c **** 	case VL53L0X_ERROR_NOT_SUPPORTED:
 938:/home/tienluong/workspace/atlantis_fw/platform/driver/src/tof.c **** 		VL53L0X_COPYSTRING(pPalErrorString,
 939:/home/tienluong/workspace/atlantis_fw/platform/driver/src/tof.c **** 			VL53L0X_STRING_ERROR_NOT_SUPPORTED);
 940:/home/tienluong/workspace/atlantis_fw/platform/driver/src/tof.c **** 	break;
 941:/home/tienluong/workspace/atlantis_fw/platform/driver/src/tof.c **** 	case VL53L0X_ERROR_INTERRUPT_NOT_CLEARED:
 942:/home/tienluong/workspace/atlantis_fw/platform/driver/src/tof.c **** 		VL53L0X_COPYSTRING(pPalErrorString,
 943:/home/tienluong/workspace/atlantis_fw/platform/driver/src/tof.c **** 			VL53L0X_STRING_ERROR_INTERRUPT_NOT_CLEARED);
 944:/home/tienluong/workspace/atlantis_fw/platform/driver/src/tof.c **** 	break;
 945:/home/tienluong/workspace/atlantis_fw/platform/driver/src/tof.c **** 	case VL53L0X_ERROR_RANGE_ERROR:
 946:/home/tienluong/workspace/atlantis_fw/platform/driver/src/tof.c **** 		VL53L0X_COPYSTRING(pPalErrorString,
 947:/home/tienluong/workspace/atlantis_fw/platform/driver/src/tof.c **** 			VL53L0X_STRING_ERROR_RANGE_ERROR);
 948:/home/tienluong/workspace/atlantis_fw/platform/driver/src/tof.c **** 	break;
 949:/home/tienluong/workspace/atlantis_fw/platform/driver/src/tof.c **** 	case VL53L0X_ERROR_TIME_OUT:
 950:/home/tienluong/workspace/atlantis_fw/platform/driver/src/tof.c **** 		VL53L0X_COPYSTRING(pPalErrorString,
 951:/home/tienluong/workspace/atlantis_fw/platform/driver/src/tof.c **** 			VL53L0X_STRING_ERROR_TIME_OUT);
 952:/home/tienluong/workspace/atlantis_fw/platform/driver/src/tof.c **** 	break;
 953:/home/tienluong/workspace/atlantis_fw/platform/driver/src/tof.c **** 	case VL53L0X_ERROR_MODE_NOT_SUPPORTED:
 954:/home/tienluong/workspace/atlantis_fw/platform/driver/src/tof.c **** 		VL53L0X_COPYSTRING(pPalErrorString,
 955:/home/tienluong/workspace/atlantis_fw/platform/driver/src/tof.c **** 			VL53L0X_STRING_ERROR_MODE_NOT_SUPPORTED);
 956:/home/tienluong/workspace/atlantis_fw/platform/driver/src/tof.c **** 	break;
 957:/home/tienluong/workspace/atlantis_fw/platform/driver/src/tof.c **** 	case VL53L0X_ERROR_BUFFER_TOO_SMALL:
 958:/home/tienluong/workspace/atlantis_fw/platform/driver/src/tof.c **** 		VL53L0X_COPYSTRING(pPalErrorString,
 959:/home/tienluong/workspace/atlantis_fw/platform/driver/src/tof.c **** 			VL53L0X_STRING_ERROR_BUFFER_TOO_SMALL);
 960:/home/tienluong/workspace/atlantis_fw/platform/driver/src/tof.c **** 	break;
 961:/home/tienluong/workspace/atlantis_fw/platform/driver/src/tof.c **** 	case VL53L0X_ERROR_GPIO_NOT_EXISTING:
 962:/home/tienluong/workspace/atlantis_fw/platform/driver/src/tof.c **** 		VL53L0X_COPYSTRING(pPalErrorString,
 963:/home/tienluong/workspace/atlantis_fw/platform/driver/src/tof.c **** 			VL53L0X_STRING_ERROR_GPIO_NOT_EXISTING);
 964:/home/tienluong/workspace/atlantis_fw/platform/driver/src/tof.c **** 	break;
 965:/home/tienluong/workspace/atlantis_fw/platform/driver/src/tof.c **** 	case VL53L0X_ERROR_GPIO_FUNCTIONALITY_NOT_SUPPORTED:
 966:/home/tienluong/workspace/atlantis_fw/platform/driver/src/tof.c **** 		VL53L0X_COPYSTRING(pPalErrorString,
 967:/home/tienluong/workspace/atlantis_fw/platform/driver/src/tof.c **** 			VL53L0X_STRING_ERROR_GPIO_FUNCTIONALITY_NOT_SUPPORTED);
 968:/home/tienluong/workspace/atlantis_fw/platform/driver/src/tof.c **** 	break;
 969:/home/tienluong/workspace/atlantis_fw/platform/driver/src/tof.c **** 	case VL53L0X_ERROR_CONTROL_INTERFACE:
 970:/home/tienluong/workspace/atlantis_fw/platform/driver/src/tof.c **** 		VL53L0X_COPYSTRING(pPalErrorString,
 971:/home/tienluong/workspace/atlantis_fw/platform/driver/src/tof.c **** 			VL53L0X_STRING_ERROR_CONTROL_INTERFACE);
 972:/home/tienluong/workspace/atlantis_fw/platform/driver/src/tof.c **** 	break;
 973:/home/tienluong/workspace/atlantis_fw/platform/driver/src/tof.c **** 	case VL53L0X_ERROR_INVALID_COMMAND:
 974:/home/tienluong/workspace/atlantis_fw/platform/driver/src/tof.c **** 		VL53L0X_COPYSTRING(pPalErrorString,
 975:/home/tienluong/workspace/atlantis_fw/platform/driver/src/tof.c **** 			VL53L0X_STRING_ERROR_INVALID_COMMAND);
 976:/home/tienluong/workspace/atlantis_fw/platform/driver/src/tof.c **** 	break;
 977:/home/tienluong/workspace/atlantis_fw/platform/driver/src/tof.c **** 	case VL53L0X_ERROR_DIVISION_BY_ZERO:
 978:/home/tienluong/workspace/atlantis_fw/platform/driver/src/tof.c **** 		VL53L0X_COPYSTRING(pPalErrorString,
 979:/home/tienluong/workspace/atlantis_fw/platform/driver/src/tof.c **** 			VL53L0X_STRING_ERROR_DIVISION_BY_ZERO);
 980:/home/tienluong/workspace/atlantis_fw/platform/driver/src/tof.c **** 	break;
 981:/home/tienluong/workspace/atlantis_fw/platform/driver/src/tof.c **** 	case VL53L0X_ERROR_REF_SPAD_INIT:
 982:/home/tienluong/workspace/atlantis_fw/platform/driver/src/tof.c **** 		VL53L0X_COPYSTRING(pPalErrorString,
 983:/home/tienluong/workspace/atlantis_fw/platform/driver/src/tof.c **** 			VL53L0X_STRING_ERROR_REF_SPAD_INIT);
 984:/home/tienluong/workspace/atlantis_fw/platform/driver/src/tof.c **** 	break;
 985:/home/tienluong/workspace/atlantis_fw/platform/driver/src/tof.c **** 	case VL53L0X_ERROR_NOT_IMPLEMENTED:
 986:/home/tienluong/workspace/atlantis_fw/platform/driver/src/tof.c **** 		VL53L0X_COPYSTRING(pPalErrorString,
 1700              		.loc 1 986 0
 1701 0028 2249     		ldr	r1, .L137+4
 1702              	.LVL212:
 1703 002a 3DE0     		b	.L136
 1704              	.L116:
 916:/home/tienluong/workspace/atlantis_fw/platform/driver/src/tof.c **** 	case VL53L0X_ERROR_NONE:
 1705              		.loc 1 916 0
 1706 002c 12F10C0F 		cmn	r2, #12
 1707 0030 27D0     		beq	.L120
 1708 0032 03DC     		bgt	.L121
 1709 0034 1432     		adds	r2, r2, #20
 1710 0036 36D1     		bne	.L112
 970:/home/tienluong/workspace/atlantis_fw/platform/driver/src/tof.c **** 			VL53L0X_STRING_ERROR_CONTROL_INTERFACE);
 1711              		.loc 1 970 0
 1712 0038 1F49     		ldr	r1, .L137+8
 1713 003a 35E0     		b	.L136
 1714              	.L121:
 916:/home/tienluong/workspace/atlantis_fw/platform/driver/src/tof.c **** 	case VL53L0X_ERROR_NONE:
 1715              		.loc 1 916 0
 1716 003c 12F10B0F 		cmn	r2, #11
 1717 0040 29D0     		beq	.L123
 1718 0042 0A32     		adds	r2, r2, #10
 1719 0044 2FD1     		bne	.L112
 962:/home/tienluong/workspace/atlantis_fw/platform/driver/src/tof.c **** 			VL53L0X_STRING_ERROR_GPIO_NOT_EXISTING);
 1720              		.loc 1 962 0
 1721 0046 1D49     		ldr	r1, .L137+12
 1722 0048 2EE0     		b	.L136
 1723              	.L114:
 916:/home/tienluong/workspace/atlantis_fw/platform/driver/src/tof.c **** 	case VL53L0X_ERROR_NONE:
 1724              		.loc 1 916 0
 1725 004a 111D     		adds	r1, r2, #4
 1726 004c 17D0     		beq	.L125
 1727 004e 08DC     		bgt	.L126
 1728 0050 D11D     		adds	r1, r2, #7
 1729 0052 1AD0     		beq	.L127
 1730 0054 1BDB     		blt	.L128
 1731 0056 911D     		adds	r1, r2, #6
 1732 0058 15D0     		beq	.L129
 1733 005a 0532     		adds	r2, r2, #5
 1734 005c 23D1     		bne	.L112
 938:/home/tienluong/workspace/atlantis_fw/platform/driver/src/tof.c **** 			VL53L0X_STRING_ERROR_NOT_SUPPORTED);
 1735              		.loc 1 938 0
 1736 005e 1849     		ldr	r1, .L137+16
 1737 0060 22E0     		b	.L136
 1738              	.L126:
 916:/home/tienluong/workspace/atlantis_fw/platform/driver/src/tof.c **** 	case VL53L0X_ERROR_NONE:
 1739              		.loc 1 916 0
 1740 0062 911C     		adds	r1, r2, #2
 1741 0064 07D0     		beq	.L131
 1742 0066 08DB     		blt	.L132
 1743 0068 511C     		adds	r1, r2, #1
 1744 006a 02D0     		beq	.L133
 1745 006c DAB9     		cbnz	r2, .L112
 918:/home/tienluong/workspace/atlantis_fw/platform/driver/src/tof.c **** 			VL53L0X_STRING_ERROR_NONE);
 1746              		.loc 1 918 0
 1747 006e 1549     		ldr	r1, .L137+20
 1748 0070 1AE0     		b	.L136
 1749              	.L133:
 922:/home/tienluong/workspace/atlantis_fw/platform/driver/src/tof.c **** 			VL53L0X_STRING_ERROR_CALIBRATION_WARNING);
 1750              		.loc 1 922 0
 1751 0072 1549     		ldr	r1, .L137+24
 1752 0074 18E0     		b	.L136
 1753              	.L131:
 926:/home/tienluong/workspace/atlantis_fw/platform/driver/src/tof.c **** 			VL53L0X_STRING_ERROR_MIN_CLIPPED);
 1754              		.loc 1 926 0
 1755 0076 1549     		ldr	r1, .L137+28
 1756 0078 16E0     		b	.L136
 1757              	.L132:
 930:/home/tienluong/workspace/atlantis_fw/platform/driver/src/tof.c **** 			VL53L0X_STRING_ERROR_UNDEFINED);
 1758              		.loc 1 930 0
 1759 007a 1549     		ldr	r1, .L137+32
 1760 007c 14E0     		b	.L136
 1761              	.L125:
 934:/home/tienluong/workspace/atlantis_fw/platform/driver/src/tof.c **** 			VL53L0X_STRING_ERROR_INVALID_PARAMS);
 1762              		.loc 1 934 0
 1763 007e 1549     		ldr	r1, .L137+36
 1764 0080 12E0     		b	.L136
 1765              	.L120:
 942:/home/tienluong/workspace/atlantis_fw/platform/driver/src/tof.c **** 			VL53L0X_STRING_ERROR_INTERRUPT_NOT_CLEARED);
 1766              		.loc 1 942 0
 1767 0082 1549     		ldr	r1, .L137+40
 1768 0084 10E0     		b	.L136
 1769              	.L129:
 946:/home/tienluong/workspace/atlantis_fw/platform/driver/src/tof.c **** 			VL53L0X_STRING_ERROR_RANGE_ERROR);
 1770              		.loc 1 946 0
 1771 0086 1549     		ldr	r1, .L137+44
 1772 0088 0EE0     		b	.L136
 1773              	.L127:
 950:/home/tienluong/workspace/atlantis_fw/platform/driver/src/tof.c **** 			VL53L0X_STRING_ERROR_TIME_OUT);
 1774              		.loc 1 950 0
 1775 008a 1549     		ldr	r1, .L137+48
 1776 008c 0CE0     		b	.L136
 1777              	.L128:
 954:/home/tienluong/workspace/atlantis_fw/platform/driver/src/tof.c **** 			VL53L0X_STRING_ERROR_MODE_NOT_SUPPORTED);
 1778              		.loc 1 954 0
 1779 008e 1549     		ldr	r1, .L137+52
 1780 0090 0AE0     		b	.L136
 1781              	.L113:
 958:/home/tienluong/workspace/atlantis_fw/platform/driver/src/tof.c **** 			VL53L0X_STRING_ERROR_BUFFER_TOO_SMALL);
 1782              		.loc 1 958 0
 1783 0092 1549     		ldr	r1, .L137+56
 1784 0094 08E0     		b	.L136
 1785              	.L123:
 966:/home/tienluong/workspace/atlantis_fw/platform/driver/src/tof.c **** 			VL53L0X_STRING_ERROR_GPIO_FUNCTIONALITY_NOT_SUPPORTED);
 1786              		.loc 1 966 0
 1787 0096 1549     		ldr	r1, .L137+60
 1788 0098 06E0     		b	.L136
 1789              	.L115:
 974:/home/tienluong/workspace/atlantis_fw/platform/driver/src/tof.c **** 			VL53L0X_STRING_ERROR_INVALID_COMMAND);
 1790              		.loc 1 974 0
 1791 009a 1549     		ldr	r1, .L137+64
 1792 009c 04E0     		b	.L136
 1793              	.L118:
 978:/home/tienluong/workspace/atlantis_fw/platform/driver/src/tof.c **** 			VL53L0X_STRING_ERROR_DIVISION_BY_ZERO);
 1794              		.loc 1 978 0
 1795 009e 1549     		ldr	r1, .L137+68
 1796 00a0 02E0     		b	.L136
 1797              	.L117:
 982:/home/tienluong/workspace/atlantis_fw/platform/driver/src/tof.c **** 			VL53L0X_STRING_ERROR_REF_SPAD_INIT);
 1798              		.loc 1 982 0
 1799 00a2 1549     		ldr	r1, .L137+72
 1800 00a4 00E0     		b	.L136
 1801              	.L112:
 987:/home/tienluong/workspace/atlantis_fw/platform/driver/src/tof.c **** 			VL53L0X_STRING_ERROR_NOT_IMPLEMENTED);
 988:/home/tienluong/workspace/atlantis_fw/platform/driver/src/tof.c **** 	break;
 989:/home/tienluong/workspace/atlantis_fw/platform/driver/src/tof.c **** 
 990:/home/tienluong/workspace/atlantis_fw/platform/driver/src/tof.c **** 	default:
 991:/home/tienluong/workspace/atlantis_fw/platform/driver/src/tof.c **** 		VL53L0X_COPYSTRING(pPalErrorString, VL53L0X_STRING_UNKNOWN_ERROR_CODE);
 1802              		.loc 1 991 0
 1803 00a6 1549     		ldr	r1, .L137+76
 1804              	.L136:
 1805 00a8 9847     		blx	r3
 1806              	.LVL213:
 992:/home/tienluong/workspace/atlantis_fw/platform/driver/src/tof.c **** 	}
 993:/home/tienluong/workspace/atlantis_fw/platform/driver/src/tof.c **** 	return Status;
 994:/home/tienluong/workspace/atlantis_fw/platform/driver/src/tof.c **** }
 1807              		.loc 1 994 0
 1808 00aa 0020     		movs	r0, #0
 1809 00ac 08BD     		pop	{r3, pc}
 1810              	.L138:
 1811 00ae 00BF     		.align	2
 1812              	.L137:
 1813 00b0 00000000 		.word	strcpy
 1814 00b4 E0030000 		.word	.LC44
 1815 00b8 81030000 		.word	.LC40
 1816 00bc 56030000 		.word	.LC38
 1817 00c0 E7020000 		.word	.LC32
 1818 00c4 89020000 		.word	.LC27
 1819 00c8 92020000 		.word	.LC28
 1820 00cc AC020000 		.word	.LC29
 1821 00d0 BE020000 		.word	.LC30
 1822 00d4 CE020000 		.word	.LC31
 1823 00d8 FB020000 		.word	.LC33
 1824 00dc 11030000 		.word	.LC34
 1825 00e0 1D030000 		.word	.LC35
 1826 00e4 2C030000 		.word	.LC36
 1827 00e8 45030000 		.word	.LC37
 1828 00ec 68030000 		.word	.LC39
 1829 00f0 99030000 		.word	.LC41
 1830 00f4 AF030000 		.word	.LC42
 1831 00f8 C6030000 		.word	.LC43
 1832 00fc 2B020000 		.word	.LC20
 1833              		.cfi_endproc
 1834              	.LFE20:
 1836              		.section	.text.VL53L0X_get_pal_state_string,"ax",%progbits
 1837              		.align	1
 1838              		.global	VL53L0X_get_pal_state_string
 1839              		.thumb
 1840              		.thumb_func
 1842              	VL53L0X_get_pal_state_string:
 1843              	.LFB21:
 995:/home/tienluong/workspace/atlantis_fw/platform/driver/src/tof.c **** 
 996:/home/tienluong/workspace/atlantis_fw/platform/driver/src/tof.c **** VL53L0X_Error VL53L0X_get_pal_state_string(VL53L0X_State PalStateCode,
 997:/home/tienluong/workspace/atlantis_fw/platform/driver/src/tof.c **** 		char *pPalStateString)
 998:/home/tienluong/workspace/atlantis_fw/platform/driver/src/tof.c **** {
 1844              		.loc 1 998 0
 1845              		.cfi_startproc
 1846              		@ args = 0, pretend = 0, frame = 0
 1847              		@ frame_needed = 0, uses_anonymous_args = 0
 1848              	.LVL214:
 1849 0000 0246     		mov	r2, r0
 1850 0002 0846     		mov	r0, r1
 1851              	.LVL215:
 999:/home/tienluong/workspace/atlantis_fw/platform/driver/src/tof.c **** 	VL53L0X_Error Status = VL53L0X_ERROR_NONE;
1000:/home/tienluong/workspace/atlantis_fw/platform/driver/src/tof.c **** 
1001:/home/tienluong/workspace/atlantis_fw/platform/driver/src/tof.c **** 	switch (PalStateCode) {
 1852              		.loc 1 1001 0
 1853 0004 032A     		cmp	r2, #3
 998:/home/tienluong/workspace/atlantis_fw/platform/driver/src/tof.c **** 	VL53L0X_Error Status = VL53L0X_ERROR_NONE;
 1854              		.loc 1 998 0
 1855 0006 08B5     		push	{r3, lr}
 1856              	.LCFI37:
 1857              		.cfi_def_cfa_offset 8
 1858              		.cfi_offset 3, -8
 1859              		.cfi_offset 14, -4
 1860 0008 0D4B     		ldr	r3, .L154
 1861              		.loc 1 1001 0
 1862 000a 11D0     		beq	.L141
 1863 000c 04D8     		bhi	.L142
 1864 000e 012A     		cmp	r2, #1
 1865 0010 0AD0     		beq	.L143
 1866 0012 0BD8     		bhi	.L153
1002:/home/tienluong/workspace/atlantis_fw/platform/driver/src/tof.c **** 	case VL53L0X_STATE_POWERDOWN:
1003:/home/tienluong/workspace/atlantis_fw/platform/driver/src/tof.c **** 		VL53L0X_COPYSTRING(pPalStateString,
 1867              		.loc 1 1003 0
 1868 0014 0B49     		ldr	r1, .L154+4
 1869              	.LVL216:
 1870 0016 10E0     		b	.L152
 1871              	.L142:
1001:/home/tienluong/workspace/atlantis_fw/platform/driver/src/tof.c **** 	case VL53L0X_STATE_POWERDOWN:
 1872              		.loc 1 1001 0
 1873 0018 622A     		cmp	r2, #98
 1874 001a 0DD0     		beq	.L151
 1875 001c 632A     		cmp	r2, #99
 1876 001e 09D0     		beq	.L147
 1877 0020 042A     		cmp	r2, #4
 1878 0022 09D1     		bne	.L151
1004:/home/tienluong/workspace/atlantis_fw/platform/driver/src/tof.c **** 			VL53L0X_STRING_STATE_POWERDOWN);
1005:/home/tienluong/workspace/atlantis_fw/platform/driver/src/tof.c **** 	break;
1006:/home/tienluong/workspace/atlantis_fw/platform/driver/src/tof.c **** 	case VL53L0X_STATE_WAIT_STATICINIT:
1007:/home/tienluong/workspace/atlantis_fw/platform/driver/src/tof.c **** 		VL53L0X_COPYSTRING(pPalStateString,
1008:/home/tienluong/workspace/atlantis_fw/platform/driver/src/tof.c **** 			VL53L0X_STRING_STATE_WAIT_STATICINIT);
1009:/home/tienluong/workspace/atlantis_fw/platform/driver/src/tof.c **** 	break;
1010:/home/tienluong/workspace/atlantis_fw/platform/driver/src/tof.c **** 	case VL53L0X_STATE_STANDBY:
1011:/home/tienluong/workspace/atlantis_fw/platform/driver/src/tof.c **** 		VL53L0X_COPYSTRING(pPalStateString,
1012:/home/tienluong/workspace/atlantis_fw/platform/driver/src/tof.c **** 			VL53L0X_STRING_STATE_STANDBY);
1013:/home/tienluong/workspace/atlantis_fw/platform/driver/src/tof.c **** 	break;
1014:/home/tienluong/workspace/atlantis_fw/platform/driver/src/tof.c **** 	case VL53L0X_STATE_IDLE:
1015:/home/tienluong/workspace/atlantis_fw/platform/driver/src/tof.c **** 		VL53L0X_COPYSTRING(pPalStateString,
1016:/home/tienluong/workspace/atlantis_fw/platform/driver/src/tof.c **** 			VL53L0X_STRING_STATE_IDLE);
1017:/home/tienluong/workspace/atlantis_fw/platform/driver/src/tof.c **** 	break;
1018:/home/tienluong/workspace/atlantis_fw/platform/driver/src/tof.c **** 	case VL53L0X_STATE_RUNNING:
1019:/home/tienluong/workspace/atlantis_fw/platform/driver/src/tof.c **** 		VL53L0X_COPYSTRING(pPalStateString,
 1879              		.loc 1 1019 0
 1880 0024 0849     		ldr	r1, .L154+8
 1881 0026 08E0     		b	.L152
 1882              	.L143:
1007:/home/tienluong/workspace/atlantis_fw/platform/driver/src/tof.c **** 			VL53L0X_STRING_STATE_WAIT_STATICINIT);
 1883              		.loc 1 1007 0
 1884 0028 0849     		ldr	r1, .L154+12
 1885 002a 06E0     		b	.L152
 1886              	.L153:
1011:/home/tienluong/workspace/atlantis_fw/platform/driver/src/tof.c **** 			VL53L0X_STRING_STATE_STANDBY);
 1887              		.loc 1 1011 0
 1888 002c 0849     		ldr	r1, .L154+16
 1889 002e 04E0     		b	.L152
 1890              	.L141:
1015:/home/tienluong/workspace/atlantis_fw/platform/driver/src/tof.c **** 			VL53L0X_STRING_STATE_IDLE);
 1891              		.loc 1 1015 0
 1892 0030 0849     		ldr	r1, .L154+20
 1893 0032 02E0     		b	.L152
 1894              	.L147:
1020:/home/tienluong/workspace/atlantis_fw/platform/driver/src/tof.c **** 			VL53L0X_STRING_STATE_RUNNING);
1021:/home/tienluong/workspace/atlantis_fw/platform/driver/src/tof.c **** 	break;
1022:/home/tienluong/workspace/atlantis_fw/platform/driver/src/tof.c **** 	case VL53L0X_STATE_UNKNOWN:
1023:/home/tienluong/workspace/atlantis_fw/platform/driver/src/tof.c **** 		VL53L0X_COPYSTRING(pPalStateString,
1024:/home/tienluong/workspace/atlantis_fw/platform/driver/src/tof.c **** 			VL53L0X_STRING_STATE_UNKNOWN);
1025:/home/tienluong/workspace/atlantis_fw/platform/driver/src/tof.c **** 	break;
1026:/home/tienluong/workspace/atlantis_fw/platform/driver/src/tof.c **** 	case VL53L0X_STATE_ERROR:
1027:/home/tienluong/workspace/atlantis_fw/platform/driver/src/tof.c **** 		VL53L0X_COPYSTRING(pPalStateString,
 1895              		.loc 1 1027 0
 1896 0034 0849     		ldr	r1, .L154+24
 1897 0036 00E0     		b	.L152
 1898              	.L151:
1028:/home/tienluong/workspace/atlantis_fw/platform/driver/src/tof.c **** 			VL53L0X_STRING_STATE_ERROR);
1029:/home/tienluong/workspace/atlantis_fw/platform/driver/src/tof.c **** 	break;
1030:/home/tienluong/workspace/atlantis_fw/platform/driver/src/tof.c **** 
1031:/home/tienluong/workspace/atlantis_fw/platform/driver/src/tof.c **** 	default:
1032:/home/tienluong/workspace/atlantis_fw/platform/driver/src/tof.c **** 		VL53L0X_COPYSTRING(pPalStateString,
 1899              		.loc 1 1032 0
 1900 0038 0849     		ldr	r1, .L154+28
 1901              	.L152:
 1902 003a 9847     		blx	r3
 1903              	.LVL217:
1033:/home/tienluong/workspace/atlantis_fw/platform/driver/src/tof.c **** 			VL53L0X_STRING_STATE_UNKNOWN);
1034:/home/tienluong/workspace/atlantis_fw/platform/driver/src/tof.c **** 	}
1035:/home/tienluong/workspace/atlantis_fw/platform/driver/src/tof.c **** 	return Status;
1036:/home/tienluong/workspace/atlantis_fw/platform/driver/src/tof.c **** }
 1904              		.loc 1 1036 0
 1905 003c 0020     		movs	r0, #0
 1906 003e 08BD     		pop	{r3, pc}
 1907              	.L155:
 1908              		.align	2
 1909              	.L154:
 1910 0040 00000000 		.word	strcpy
 1911 0044 F6030000 		.word	.LC45
 1912 0048 39040000 		.word	.LC49
 1913 004c 06040000 		.word	.LC46
 1914 0050 20040000 		.word	.LC47
 1915 0054 2E040000 		.word	.LC48
 1916 0058 55040000 		.word	.LC51
 1917 005c 47040000 		.word	.LC50
 1918              		.cfi_endproc
 1919              	.LFE21:
 1921              		.section	.text.VL53L0X_get_sequence_steps_info,"ax",%progbits
 1922              		.align	1
 1923              		.global	VL53L0X_get_sequence_steps_info
 1924              		.thumb
 1925              		.thumb_func
 1927              	VL53L0X_get_sequence_steps_info:
 1928              	.LFB22:
1037:/home/tienluong/workspace/atlantis_fw/platform/driver/src/tof.c **** 
1038:/home/tienluong/workspace/atlantis_fw/platform/driver/src/tof.c **** VL53L0X_Error VL53L0X_get_sequence_steps_info(
1039:/home/tienluong/workspace/atlantis_fw/platform/driver/src/tof.c **** 		VL53L0X_SequenceStepId SequenceStepId,
1040:/home/tienluong/workspace/atlantis_fw/platform/driver/src/tof.c **** 		char *pSequenceStepsString)
1041:/home/tienluong/workspace/atlantis_fw/platform/driver/src/tof.c **** {
 1929              		.loc 1 1041 0
 1930              		.cfi_startproc
 1931              		@ args = 0, pretend = 0, frame = 0
 1932              		@ frame_needed = 0, uses_anonymous_args = 0
 1933              	.LVL218:
 1934 0000 08B5     		push	{r3, lr}
 1935              	.LCFI38:
 1936              		.cfi_def_cfa_offset 8
 1937              		.cfi_offset 3, -8
 1938              		.cfi_offset 14, -4
1042:/home/tienluong/workspace/atlantis_fw/platform/driver/src/tof.c **** 	VL53L0X_Error Status = VL53L0X_ERROR_NONE;
1043:/home/tienluong/workspace/atlantis_fw/platform/driver/src/tof.c **** 
1044:/home/tienluong/workspace/atlantis_fw/platform/driver/src/tof.c **** 	switch (SequenceStepId) {
 1939              		.loc 1 1044 0
 1940 0002 0428     		cmp	r0, #4
 1941 0004 16D8     		bhi	.L164
 1942 0006 DFE800F0 		tbb	[pc, r0]
 1943              	.L159:
 1944 000a 03       		.byte	(.L158-.L159)/2
 1945 000b 06       		.byte	(.L160-.L159)/2
 1946 000c 09       		.byte	(.L161-.L159)/2
 1947 000d 0C       		.byte	(.L162-.L159)/2
 1948 000e 0F       		.byte	(.L163-.L159)/2
 1949 000f 00       		.p2align 1
 1950              	.L158:
1045:/home/tienluong/workspace/atlantis_fw/platform/driver/src/tof.c **** 	case VL53L0X_SEQUENCESTEP_TCC:
1046:/home/tienluong/workspace/atlantis_fw/platform/driver/src/tof.c **** 		VL53L0X_COPYSTRING(pSequenceStepsString,
 1951              		.loc 1 1046 0
 1952 0010 0846     		mov	r0, r1
 1953              	.LVL219:
 1954 0012 0A49     		ldr	r1, .L166
 1955              	.LVL220:
 1956 0014 0AE0     		b	.L165
 1957              	.LVL221:
 1958              	.L160:
1047:/home/tienluong/workspace/atlantis_fw/platform/driver/src/tof.c **** 			VL53L0X_STRING_SEQUENCESTEP_TCC);
1048:/home/tienluong/workspace/atlantis_fw/platform/driver/src/tof.c **** 	break;
1049:/home/tienluong/workspace/atlantis_fw/platform/driver/src/tof.c **** 	case VL53L0X_SEQUENCESTEP_DSS:
1050:/home/tienluong/workspace/atlantis_fw/platform/driver/src/tof.c **** 		VL53L0X_COPYSTRING(pSequenceStepsString,
 1959              		.loc 1 1050 0
 1960 0016 0846     		mov	r0, r1
 1961              	.LVL222:
 1962 0018 0949     		ldr	r1, .L166+4
 1963              	.LVL223:
 1964 001a 07E0     		b	.L165
 1965              	.LVL224:
 1966              	.L161:
1051:/home/tienluong/workspace/atlantis_fw/platform/driver/src/tof.c **** 			VL53L0X_STRING_SEQUENCESTEP_DSS);
1052:/home/tienluong/workspace/atlantis_fw/platform/driver/src/tof.c **** 	break;
1053:/home/tienluong/workspace/atlantis_fw/platform/driver/src/tof.c **** 	case VL53L0X_SEQUENCESTEP_MSRC:
1054:/home/tienluong/workspace/atlantis_fw/platform/driver/src/tof.c **** 		VL53L0X_COPYSTRING(pSequenceStepsString,
 1967              		.loc 1 1054 0
 1968 001c 0846     		mov	r0, r1
 1969              	.LVL225:
 1970 001e 0949     		ldr	r1, .L166+8
 1971              	.LVL226:
 1972 0020 04E0     		b	.L165
 1973              	.LVL227:
 1974              	.L162:
1055:/home/tienluong/workspace/atlantis_fw/platform/driver/src/tof.c **** 			VL53L0X_STRING_SEQUENCESTEP_MSRC);
1056:/home/tienluong/workspace/atlantis_fw/platform/driver/src/tof.c **** 	break;
1057:/home/tienluong/workspace/atlantis_fw/platform/driver/src/tof.c **** 	case VL53L0X_SEQUENCESTEP_PRE_RANGE:
1058:/home/tienluong/workspace/atlantis_fw/platform/driver/src/tof.c **** 		VL53L0X_COPYSTRING(pSequenceStepsString,
 1975              		.loc 1 1058 0
 1976 0022 0846     		mov	r0, r1
 1977              	.LVL228:
 1978 0024 0849     		ldr	r1, .L166+12
 1979              	.LVL229:
 1980 0026 01E0     		b	.L165
 1981              	.LVL230:
 1982              	.L163:
1059:/home/tienluong/workspace/atlantis_fw/platform/driver/src/tof.c **** 			VL53L0X_STRING_SEQUENCESTEP_PRE_RANGE);
1060:/home/tienluong/workspace/atlantis_fw/platform/driver/src/tof.c **** 	break;
1061:/home/tienluong/workspace/atlantis_fw/platform/driver/src/tof.c **** 	case VL53L0X_SEQUENCESTEP_FINAL_RANGE:
1062:/home/tienluong/workspace/atlantis_fw/platform/driver/src/tof.c **** 		VL53L0X_COPYSTRING(pSequenceStepsString,
 1983              		.loc 1 1062 0
 1984 0028 0846     		mov	r0, r1
 1985              	.LVL231:
 1986 002a 0849     		ldr	r1, .L166+16
 1987              	.LVL232:
 1988              	.L165:
 1989 002c 084B     		ldr	r3, .L166+20
 1990 002e 9847     		blx	r3
 1991              	.LVL233:
1042:/home/tienluong/workspace/atlantis_fw/platform/driver/src/tof.c **** 
 1992              		.loc 1 1042 0
 1993 0030 0020     		movs	r0, #0
1063:/home/tienluong/workspace/atlantis_fw/platform/driver/src/tof.c **** 			VL53L0X_STRING_SEQUENCESTEP_FINAL_RANGE);
1064:/home/tienluong/workspace/atlantis_fw/platform/driver/src/tof.c **** 	break;
 1994              		.loc 1 1064 0
 1995 0032 00E0     		b	.L157
 1996              	.LVL234:
 1997              	.L164:
1065:/home/tienluong/workspace/atlantis_fw/platform/driver/src/tof.c **** 
1066:/home/tienluong/workspace/atlantis_fw/platform/driver/src/tof.c **** 	default:
1067:/home/tienluong/workspace/atlantis_fw/platform/driver/src/tof.c **** 		Status = VL53L0X_ERROR_INVALID_PARAMS;
 1998              		.loc 1 1067 0
 1999 0034 FC20     		movs	r0, #252
 2000              	.LVL235:
 2001              	.L157:
1068:/home/tienluong/workspace/atlantis_fw/platform/driver/src/tof.c **** 	}
1069:/home/tienluong/workspace/atlantis_fw/platform/driver/src/tof.c **** 	return Status;
1070:/home/tienluong/workspace/atlantis_fw/platform/driver/src/tof.c **** }
 2002              		.loc 1 1070 0
 2003 0036 40B2     		sxtb	r0, r0
 2004 0038 08BD     		pop	{r3, pc}
 2005              	.L167:
 2006 003a 00BF     		.align	2
 2007              	.L166:
 2008 003c 61040000 		.word	.LC52
 2009 0040 65040000 		.word	.LC53
 2010 0044 69040000 		.word	.LC54
 2011 0048 6E040000 		.word	.LC55
 2012 004c 78040000 		.word	.LC56
 2013 0050 00000000 		.word	strcpy
 2014              		.cfi_endproc
 2015              	.LFE22:
 2017              		.section	.text.VL53L0X_get_limit_check_info,"ax",%progbits
 2018              		.align	1
 2019              		.global	VL53L0X_get_limit_check_info
 2020              		.thumb
 2021              		.thumb_func
 2023              	VL53L0X_get_limit_check_info:
 2024              	.LFB23:
1071:/home/tienluong/workspace/atlantis_fw/platform/driver/src/tof.c **** 
1072:/home/tienluong/workspace/atlantis_fw/platform/driver/src/tof.c **** VL53L0X_Error VL53L0X_get_limit_check_info(VL53L0X_DEV Dev,
1073:/home/tienluong/workspace/atlantis_fw/platform/driver/src/tof.c **** 	uint16_t LimitCheckId, char *pLimitCheckString)
1074:/home/tienluong/workspace/atlantis_fw/platform/driver/src/tof.c **** {
 2025              		.loc 1 1074 0
 2026              		.cfi_startproc
 2027              		@ args = 0, pretend = 0, frame = 0
 2028              		@ frame_needed = 0, uses_anonymous_args = 0
 2029              	.LVL236:
 2030 0000 08B5     		push	{r3, lr}
 2031              	.LCFI39:
 2032              		.cfi_def_cfa_offset 8
 2033              		.cfi_offset 3, -8
 2034              		.cfi_offset 14, -4
 2035              		.loc 1 1074 0
 2036 0002 1046     		mov	r0, r2
 2037              	.LVL237:
 2038 0004 0B4B     		ldr	r3, .L179
1075:/home/tienluong/workspace/atlantis_fw/platform/driver/src/tof.c **** 	VL53L0X_Error Status = VL53L0X_ERROR_NONE;
1076:/home/tienluong/workspace/atlantis_fw/platform/driver/src/tof.c **** 
1077:/home/tienluong/workspace/atlantis_fw/platform/driver/src/tof.c **** 	switch (LimitCheckId) {
 2039              		.loc 1 1077 0
 2040 0006 0529     		cmp	r1, #5
 2041 0008 10D8     		bhi	.L169
 2042 000a DFE801F0 		tbb	[pc, r1]
 2043              	.LVL238:
 2044              	.L171:
 2045 000e 03       		.byte	(.L170-.L171)/2
 2046 000f 05       		.byte	(.L172-.L171)/2
 2047 0010 07       		.byte	(.L173-.L171)/2
 2048 0011 09       		.byte	(.L174-.L171)/2
 2049 0012 0B       		.byte	(.L175-.L171)/2
 2050 0013 0D       		.byte	(.L176-.L171)/2
 2051              		.p2align 1
 2052              	.L170:
1078:/home/tienluong/workspace/atlantis_fw/platform/driver/src/tof.c **** 	case VL53L0X_CHECKENABLE_SIGMA_FINAL_RANGE:
1079:/home/tienluong/workspace/atlantis_fw/platform/driver/src/tof.c **** 		VL53L0X_COPYSTRING(pLimitCheckString,
 2053              		.loc 1 1079 0
 2054 0014 0849     		ldr	r1, .L179+4
 2055              	.LVL239:
 2056 0016 0AE0     		b	.L178
 2057              	.LVL240:
 2058              	.L172:
1080:/home/tienluong/workspace/atlantis_fw/platform/driver/src/tof.c **** 			VL53L0X_STRING_CHECKENABLE_SIGMA_FINAL_RANGE);
1081:/home/tienluong/workspace/atlantis_fw/platform/driver/src/tof.c **** 	break;
1082:/home/tienluong/workspace/atlantis_fw/platform/driver/src/tof.c **** 	case VL53L0X_CHECKENABLE_SIGNAL_RATE_FINAL_RANGE:
1083:/home/tienluong/workspace/atlantis_fw/platform/driver/src/tof.c **** 		VL53L0X_COPYSTRING(pLimitCheckString,
 2059              		.loc 1 1083 0
 2060 0018 0849     		ldr	r1, .L179+8
 2061              	.LVL241:
 2062 001a 08E0     		b	.L178
 2063              	.LVL242:
 2064              	.L173:
1084:/home/tienluong/workspace/atlantis_fw/platform/driver/src/tof.c **** 			VL53L0X_STRING_CHECKENABLE_SIGNAL_RATE_FINAL_RANGE);
1085:/home/tienluong/workspace/atlantis_fw/platform/driver/src/tof.c **** 	break;
1086:/home/tienluong/workspace/atlantis_fw/platform/driver/src/tof.c **** 	case VL53L0X_CHECKENABLE_SIGNAL_REF_CLIP:
1087:/home/tienluong/workspace/atlantis_fw/platform/driver/src/tof.c **** 		VL53L0X_COPYSTRING(pLimitCheckString,
 2065              		.loc 1 1087 0
 2066 001c 0849     		ldr	r1, .L179+12
 2067              	.LVL243:
 2068 001e 06E0     		b	.L178
 2069              	.LVL244:
 2070              	.L174:
1088:/home/tienluong/workspace/atlantis_fw/platform/driver/src/tof.c **** 			VL53L0X_STRING_CHECKENABLE_SIGNAL_REF_CLIP);
1089:/home/tienluong/workspace/atlantis_fw/platform/driver/src/tof.c **** 	break;
1090:/home/tienluong/workspace/atlantis_fw/platform/driver/src/tof.c **** 	case VL53L0X_CHECKENABLE_RANGE_IGNORE_THRESHOLD:
1091:/home/tienluong/workspace/atlantis_fw/platform/driver/src/tof.c **** 		VL53L0X_COPYSTRING(pLimitCheckString,
 2071              		.loc 1 1091 0
 2072 0020 0849     		ldr	r1, .L179+16
 2073              	.LVL245:
 2074 0022 04E0     		b	.L178
 2075              	.LVL246:
 2076              	.L175:
1092:/home/tienluong/workspace/atlantis_fw/platform/driver/src/tof.c **** 			VL53L0X_STRING_CHECKENABLE_RANGE_IGNORE_THRESHOLD);
1093:/home/tienluong/workspace/atlantis_fw/platform/driver/src/tof.c **** 	break;
1094:/home/tienluong/workspace/atlantis_fw/platform/driver/src/tof.c **** 
1095:/home/tienluong/workspace/atlantis_fw/platform/driver/src/tof.c **** 	case VL53L0X_CHECKENABLE_SIGNAL_RATE_MSRC:
1096:/home/tienluong/workspace/atlantis_fw/platform/driver/src/tof.c **** 		VL53L0X_COPYSTRING(pLimitCheckString,
 2077              		.loc 1 1096 0
 2078 0024 0849     		ldr	r1, .L179+20
 2079              	.LVL247:
 2080 0026 02E0     		b	.L178
 2081              	.LVL248:
 2082              	.L176:
1097:/home/tienluong/workspace/atlantis_fw/platform/driver/src/tof.c **** 			VL53L0X_STRING_CHECKENABLE_SIGNAL_RATE_MSRC);
1098:/home/tienluong/workspace/atlantis_fw/platform/driver/src/tof.c **** 	break;
1099:/home/tienluong/workspace/atlantis_fw/platform/driver/src/tof.c **** 
1100:/home/tienluong/workspace/atlantis_fw/platform/driver/src/tof.c **** 	case VL53L0X_CHECKENABLE_SIGNAL_RATE_PRE_RANGE:
1101:/home/tienluong/workspace/atlantis_fw/platform/driver/src/tof.c **** 		VL53L0X_COPYSTRING(pLimitCheckString,
 2083              		.loc 1 1101 0
 2084 0028 0849     		ldr	r1, .L179+24
 2085              	.LVL249:
 2086 002a 00E0     		b	.L178
 2087              	.LVL250:
 2088              	.L169:
1102:/home/tienluong/workspace/atlantis_fw/platform/driver/src/tof.c **** 			VL53L0X_STRING_CHECKENABLE_SIGNAL_RATE_PRE_RANGE);
1103:/home/tienluong/workspace/atlantis_fw/platform/driver/src/tof.c **** 	break;
1104:/home/tienluong/workspace/atlantis_fw/platform/driver/src/tof.c **** 
1105:/home/tienluong/workspace/atlantis_fw/platform/driver/src/tof.c **** 	default:
1106:/home/tienluong/workspace/atlantis_fw/platform/driver/src/tof.c **** 		VL53L0X_COPYSTRING(pLimitCheckString,
 2089              		.loc 1 1106 0
 2090 002c 0849     		ldr	r1, .L179+28
 2091              	.LVL251:
 2092              	.L178:
 2093 002e 9847     		blx	r3
 2094              	.LVL252:
1107:/home/tienluong/workspace/atlantis_fw/platform/driver/src/tof.c **** 			VL53L0X_STRING_UNKNOWN_ERROR_CODE);
1108:/home/tienluong/workspace/atlantis_fw/platform/driver/src/tof.c **** 	}
1109:/home/tienluong/workspace/atlantis_fw/platform/driver/src/tof.c **** 	return Status;
1110:/home/tienluong/workspace/atlantis_fw/platform/driver/src/tof.c **** }
 2095              		.loc 1 1110 0
 2096 0030 0020     		movs	r0, #0
 2097 0032 08BD     		pop	{r3, pc}
 2098              	.L180:
 2099              		.align	2
 2100              	.L179:
 2101 0034 00000000 		.word	strcpy
 2102 0038 84040000 		.word	.LC57
 2103 003c 96040000 		.word	.LC58
 2104 0040 AE040000 		.word	.LC59
 2105 0044 BE040000 		.word	.LC60
 2106 0048 D5040000 		.word	.LC61
 2107 004c E6040000 		.word	.LC62
 2108 0050 2B020000 		.word	.LC20
 2109              		.cfi_endproc
 2110              	.LFE23:
 2112              		.section	.text.VL53L0X_reverse_bytes,"ax",%progbits
 2113              		.align	1
 2114              		.global	VL53L0X_reverse_bytes
 2115              		.thumb
 2116              		.thumb_func
 2118              	VL53L0X_reverse_bytes:
 2119              	.LFB24:
1111:/home/tienluong/workspace/atlantis_fw/platform/driver/src/tof.c **** 
1112:/home/tienluong/workspace/atlantis_fw/platform/driver/src/tof.c **** VL53L0X_Error VL53L0X_reverse_bytes(uint8_t *data, uint32_t size)
1113:/home/tienluong/workspace/atlantis_fw/platform/driver/src/tof.c **** {
 2120              		.loc 1 1113 0
 2121              		.cfi_startproc
 2122              		@ args = 0, pretend = 0, frame = 0
 2123              		@ frame_needed = 0, uses_anonymous_args = 0
 2124              	.LVL253:
1114:/home/tienluong/workspace/atlantis_fw/platform/driver/src/tof.c **** 	VL53L0X_Error Status = VL53L0X_ERROR_NONE;
1115:/home/tienluong/workspace/atlantis_fw/platform/driver/src/tof.c **** 	uint8_t tempData;
1116:/home/tienluong/workspace/atlantis_fw/platform/driver/src/tof.c **** 	uint32_t mirrorIndex;
1117:/home/tienluong/workspace/atlantis_fw/platform/driver/src/tof.c **** 	uint32_t middle = size/2;
 2125              		.loc 1 1117 0
 2126 0000 4A08     		lsrs	r2, r1, #1
 2127              	.LVL254:
1118:/home/tienluong/workspace/atlantis_fw/platform/driver/src/tof.c **** 	uint32_t index;
1119:/home/tienluong/workspace/atlantis_fw/platform/driver/src/tof.c **** 
1120:/home/tienluong/workspace/atlantis_fw/platform/driver/src/tof.c **** 	for (index = 0; index < middle; index++) {
 2128              		.loc 1 1120 0
 2129 0002 0023     		movs	r3, #0
 2130 0004 0144     		add	r1, r1, r0
 2131              	.LVL255:
1113:/home/tienluong/workspace/atlantis_fw/platform/driver/src/tof.c **** 	VL53L0X_Error Status = VL53L0X_ERROR_NONE;
 2132              		.loc 1 1113 0
 2133 0006 30B5     		push	{r4, r5, lr}
 2134              	.LCFI40:
 2135              		.cfi_def_cfa_offset 12
 2136              		.cfi_offset 4, -12
 2137              		.cfi_offset 5, -8
 2138              		.cfi_offset 14, -4
 2139              	.LVL256:
 2140              	.L182:
 2141              		.loc 1 1120 0 discriminator 1
 2142 0008 9342     		cmp	r3, r2
 2143 000a 01F1FF31 		add	r1, r1, #-1
 2144 000e 05D0     		beq	.L184
 2145              	.LVL257:
1121:/home/tienluong/workspace/atlantis_fw/platform/driver/src/tof.c **** 		mirrorIndex      = size - index - 1;
1122:/home/tienluong/workspace/atlantis_fw/platform/driver/src/tof.c **** 		tempData         = data[index];
 2146              		.loc 1 1122 0 discriminator 3
 2147 0010 C45C     		ldrb	r4, [r0, r3]	@ zero_extendqisi2
 2148              	.LVL258:
1123:/home/tienluong/workspace/atlantis_fw/platform/driver/src/tof.c **** 		data[index]      = data[mirrorIndex];
 2149              		.loc 1 1123 0 discriminator 3
 2150 0012 0D78     		ldrb	r5, [r1]	@ zero_extendqisi2
 2151 0014 C554     		strb	r5, [r0, r3]
1120:/home/tienluong/workspace/atlantis_fw/platform/driver/src/tof.c **** 		mirrorIndex      = size - index - 1;
 2152              		.loc 1 1120 0 discriminator 3
 2153 0016 0133     		adds	r3, r3, #1
 2154              	.LVL259:
1124:/home/tienluong/workspace/atlantis_fw/platform/driver/src/tof.c **** 		data[mirrorIndex] = tempData;
 2155              		.loc 1 1124 0 discriminator 3
 2156 0018 0C70     		strb	r4, [r1]
 2157 001a F5E7     		b	.L182
 2158              	.LVL260:
 2159              	.L184:
1125:/home/tienluong/workspace/atlantis_fw/platform/driver/src/tof.c **** 	}
1126:/home/tienluong/workspace/atlantis_fw/platform/driver/src/tof.c **** 	return Status;
1127:/home/tienluong/workspace/atlantis_fw/platform/driver/src/tof.c **** }
 2160              		.loc 1 1127 0
 2161 001c 0020     		movs	r0, #0
 2162              	.LVL261:
 2163 001e 30BD     		pop	{r4, r5, pc}
 2164              		.cfi_endproc
 2165              	.LFE24:
 2167              		.section	.text.VL53L0X_decode_vcsel_period,"ax",%progbits
 2168              		.align	1
 2169              		.global	VL53L0X_decode_vcsel_period
 2170              		.thumb
 2171              		.thumb_func
 2173              	VL53L0X_decode_vcsel_period:
 2174              	.LFB26:
1128:/home/tienluong/workspace/atlantis_fw/platform/driver/src/tof.c **** 
1129:/home/tienluong/workspace/atlantis_fw/platform/driver/src/tof.c **** VL53L0X_Error VL53L0X_measurement_poll_for_completion(VL53L0X_DEV Dev)
1130:/home/tienluong/workspace/atlantis_fw/platform/driver/src/tof.c **** {
1131:/home/tienluong/workspace/atlantis_fw/platform/driver/src/tof.c **** 	VL53L0X_Error Status = VL53L0X_ERROR_NONE;
1132:/home/tienluong/workspace/atlantis_fw/platform/driver/src/tof.c **** 	uint8_t NewDataReady = 0;
1133:/home/tienluong/workspace/atlantis_fw/platform/driver/src/tof.c **** 	uint32_t LoopNb;
1134:/home/tienluong/workspace/atlantis_fw/platform/driver/src/tof.c **** 
1135:/home/tienluong/workspace/atlantis_fw/platform/driver/src/tof.c **** 	LoopNb = 0;
1136:/home/tienluong/workspace/atlantis_fw/platform/driver/src/tof.c **** 
1137:/home/tienluong/workspace/atlantis_fw/platform/driver/src/tof.c **** 	do {
1138:/home/tienluong/workspace/atlantis_fw/platform/driver/src/tof.c **** 		Status = VL53L0X_GetMeasurementDataReady(Dev, &NewDataReady);
1139:/home/tienluong/workspace/atlantis_fw/platform/driver/src/tof.c **** 		if (Status != 0)
1140:/home/tienluong/workspace/atlantis_fw/platform/driver/src/tof.c **** 		{
1141:/home/tienluong/workspace/atlantis_fw/platform/driver/src/tof.c **** 			break; /* the error is set */
1142:/home/tienluong/workspace/atlantis_fw/platform/driver/src/tof.c **** 		}
1143:/home/tienluong/workspace/atlantis_fw/platform/driver/src/tof.c **** 
1144:/home/tienluong/workspace/atlantis_fw/platform/driver/src/tof.c **** 		if (NewDataReady == 1)
1145:/home/tienluong/workspace/atlantis_fw/platform/driver/src/tof.c **** 		{
1146:/home/tienluong/workspace/atlantis_fw/platform/driver/src/tof.c **** 			break; /* done note that status == 0 */
1147:/home/tienluong/workspace/atlantis_fw/platform/driver/src/tof.c **** 		}
1148:/home/tienluong/workspace/atlantis_fw/platform/driver/src/tof.c **** 		LoopNb++;
1149:/home/tienluong/workspace/atlantis_fw/platform/driver/src/tof.c **** 		if (LoopNb >= VL53L0X_DEFAULT_MAX_LOOP) {
1150:/home/tienluong/workspace/atlantis_fw/platform/driver/src/tof.c **** 			Status = VL53L0X_ERROR_TIME_OUT;
1151:/home/tienluong/workspace/atlantis_fw/platform/driver/src/tof.c **** 			break;
1152:/home/tienluong/workspace/atlantis_fw/platform/driver/src/tof.c **** 		}
1153:/home/tienluong/workspace/atlantis_fw/platform/driver/src/tof.c **** 		VL53L0X_PollingDelay(Dev);
1154:/home/tienluong/workspace/atlantis_fw/platform/driver/src/tof.c **** 	} while (1);
1155:/home/tienluong/workspace/atlantis_fw/platform/driver/src/tof.c **** 	return Status;
1156:/home/tienluong/workspace/atlantis_fw/platform/driver/src/tof.c **** }
1157:/home/tienluong/workspace/atlantis_fw/platform/driver/src/tof.c **** 
1158:/home/tienluong/workspace/atlantis_fw/platform/driver/src/tof.c **** uint8_t VL53L0X_decode_vcsel_period(uint8_t vcsel_period_reg)
1159:/home/tienluong/workspace/atlantis_fw/platform/driver/src/tof.c **** {
 2175              		.loc 1 1159 0
 2176              		.cfi_startproc
 2177              		@ args = 0, pretend = 0, frame = 0
 2178              		@ frame_needed = 0, uses_anonymous_args = 0
 2179              		@ link register save eliminated.
 2180              	.LVL262:
1160:/home/tienluong/workspace/atlantis_fw/platform/driver/src/tof.c **** 	/*!
1161:/home/tienluong/workspace/atlantis_fw/platform/driver/src/tof.c **** 	 * Converts the encoded VCSEL period register value into the real
1162:/home/tienluong/workspace/atlantis_fw/platform/driver/src/tof.c **** 	 * period in PLL clocks
1163:/home/tienluong/workspace/atlantis_fw/platform/driver/src/tof.c **** 	 */
1164:/home/tienluong/workspace/atlantis_fw/platform/driver/src/tof.c **** 	uint8_t vcsel_period_pclks = 0;
1165:/home/tienluong/workspace/atlantis_fw/platform/driver/src/tof.c **** 	vcsel_period_pclks = (vcsel_period_reg + 1) << 1;
 2181              		.loc 1 1165 0
 2182 0000 0130     		adds	r0, r0, #1
 2183              	.LVL263:
 2184 0002 4000     		lsls	r0, r0, #1
1166:/home/tienluong/workspace/atlantis_fw/platform/driver/src/tof.c **** 	return vcsel_period_pclks;
1167:/home/tienluong/workspace/atlantis_fw/platform/driver/src/tof.c **** }
 2185              		.loc 1 1167 0
 2186 0004 00F0FE00 		and	r0, r0, #254
 2187 0008 7047     		bx	lr
 2188              		.cfi_endproc
 2189              	.LFE26:
 2191              		.section	.text.VL53L0X_encode_vcsel_period,"ax",%progbits
 2192              		.align	1
 2193              		.global	VL53L0X_encode_vcsel_period
 2194              		.thumb
 2195              		.thumb_func
 2197              	VL53L0X_encode_vcsel_period:
 2198              	.LFB27:
1168:/home/tienluong/workspace/atlantis_fw/platform/driver/src/tof.c **** 
1169:/home/tienluong/workspace/atlantis_fw/platform/driver/src/tof.c **** uint8_t VL53L0X_encode_vcsel_period(uint8_t vcsel_period_pclks)
1170:/home/tienluong/workspace/atlantis_fw/platform/driver/src/tof.c **** {
 2199              		.loc 1 1170 0
 2200              		.cfi_startproc
 2201              		@ args = 0, pretend = 0, frame = 0
 2202              		@ frame_needed = 0, uses_anonymous_args = 0
 2203              		@ link register save eliminated.
 2204              	.LVL264:
1171:/home/tienluong/workspace/atlantis_fw/platform/driver/src/tof.c **** 	/*!
1172:/home/tienluong/workspace/atlantis_fw/platform/driver/src/tof.c **** 	 * Converts the encoded VCSEL period register value into the real period
1173:/home/tienluong/workspace/atlantis_fw/platform/driver/src/tof.c **** 	 * in PLL clocks
1174:/home/tienluong/workspace/atlantis_fw/platform/driver/src/tof.c **** 	 */
1175:/home/tienluong/workspace/atlantis_fw/platform/driver/src/tof.c **** 	uint8_t vcsel_period_reg = 0;
1176:/home/tienluong/workspace/atlantis_fw/platform/driver/src/tof.c **** 	vcsel_period_reg = (vcsel_period_pclks >> 1) - 1;
 2205              		.loc 1 1176 0
 2206 0000 4008     		lsrs	r0, r0, #1
 2207              	.LVL265:
 2208 0002 0138     		subs	r0, r0, #1
1177:/home/tienluong/workspace/atlantis_fw/platform/driver/src/tof.c **** 	return vcsel_period_reg;
1178:/home/tienluong/workspace/atlantis_fw/platform/driver/src/tof.c **** }
 2209              		.loc 1 1178 0
 2210 0004 C0B2     		uxtb	r0, r0
 2211 0006 7047     		bx	lr
 2212              		.cfi_endproc
 2213              	.LFE27:
 2215              		.section	.text.VL53L0X_isqrt,"ax",%progbits
 2216              		.align	1
 2217              		.global	VL53L0X_isqrt
 2218              		.thumb
 2219              		.thumb_func
 2221              	VL53L0X_isqrt:
 2222              	.LFB28:
1179:/home/tienluong/workspace/atlantis_fw/platform/driver/src/tof.c **** 
1180:/home/tienluong/workspace/atlantis_fw/platform/driver/src/tof.c **** 
1181:/home/tienluong/workspace/atlantis_fw/platform/driver/src/tof.c **** uint32_t VL53L0X_isqrt(uint32_t num)
1182:/home/tienluong/workspace/atlantis_fw/platform/driver/src/tof.c **** {
 2223              		.loc 1 1182 0
 2224              		.cfi_startproc
 2225              		@ args = 0, pretend = 0, frame = 0
 2226              		@ frame_needed = 0, uses_anonymous_args = 0
 2227              	.LVL266:
 2228 0000 0146     		mov	r1, r0
1183:/home/tienluong/workspace/atlantis_fw/platform/driver/src/tof.c **** 	/*
1184:/home/tienluong/workspace/atlantis_fw/platform/driver/src/tof.c **** 	 * Implements an integer square root
1185:/home/tienluong/workspace/atlantis_fw/platform/driver/src/tof.c **** 	 *
1186:/home/tienluong/workspace/atlantis_fw/platform/driver/src/tof.c **** 	 * From: http://en.wikipedia.org/wiki/Methods_of_computing_square_roots
1187:/home/tienluong/workspace/atlantis_fw/platform/driver/src/tof.c **** 	 */
1188:/home/tienluong/workspace/atlantis_fw/platform/driver/src/tof.c **** 
1189:/home/tienluong/workspace/atlantis_fw/platform/driver/src/tof.c **** 	uint32_t  res = 0;
1190:/home/tienluong/workspace/atlantis_fw/platform/driver/src/tof.c **** 	uint32_t  bit = 1 << 30;
 2229              		.loc 1 1190 0
 2230 0002 4FF08042 		mov	r2, #1073741824
1182:/home/tienluong/workspace/atlantis_fw/platform/driver/src/tof.c **** 	/*
 2231              		.loc 1 1182 0
 2232 0006 10B5     		push	{r4, lr}
 2233              	.LCFI41:
 2234              		.cfi_def_cfa_offset 8
 2235              		.cfi_offset 4, -8
 2236              		.cfi_offset 14, -4
 2237              	.LVL267:
 2238              	.L188:
1191:/home/tienluong/workspace/atlantis_fw/platform/driver/src/tof.c **** 	/* The second-to-top bit is set:
1192:/home/tienluong/workspace/atlantis_fw/platform/driver/src/tof.c **** 	 *  1 << 14 for 16-bits, 1 << 30 for 32 bits */
1193:/home/tienluong/workspace/atlantis_fw/platform/driver/src/tof.c **** 
1194:/home/tienluong/workspace/atlantis_fw/platform/driver/src/tof.c **** 	 /* "bit" starts at the highest power of four <= the argument. */
1195:/home/tienluong/workspace/atlantis_fw/platform/driver/src/tof.c **** 	while (bit > num)
 2239              		.loc 1 1195 0
 2240 0008 8A42     		cmp	r2, r1
 2241 000a 01D9     		bls	.L194
1196:/home/tienluong/workspace/atlantis_fw/platform/driver/src/tof.c **** 		bit >>= 2;
 2242              		.loc 1 1196 0
 2243 000c 9208     		lsrs	r2, r2, #2
 2244              	.LVL268:
 2245 000e FBE7     		b	.L188
 2246              	.L194:
1195:/home/tienluong/workspace/atlantis_fw/platform/driver/src/tof.c **** 		bit >>= 2;
 2247              		.loc 1 1195 0
 2248 0010 0020     		movs	r0, #0
 2249              	.LVL269:
 2250              	.L190:
1197:/home/tienluong/workspace/atlantis_fw/platform/driver/src/tof.c **** 
1198:/home/tienluong/workspace/atlantis_fw/platform/driver/src/tof.c **** 	while (bit != 0) {
 2251              		.loc 1 1198 0
 2252 0012 4AB1     		cbz	r2, .L195
1199:/home/tienluong/workspace/atlantis_fw/platform/driver/src/tof.c **** 		if (num >= res + bit) {
 2253              		.loc 1 1199 0
 2254 0014 1418     		adds	r4, r2, r0
 2255 0016 A142     		cmp	r1, r4
 2256 0018 4FEA5003 		lsr	r3, r0, #1
1200:/home/tienluong/workspace/atlantis_fw/platform/driver/src/tof.c **** 			num -= res + bit;
1201:/home/tienluong/workspace/atlantis_fw/platform/driver/src/tof.c **** 			res = (res >> 1) + bit;
 2257              		.loc 1 1201 0
 2258 001c 26BF     		itte	cs
 2259 001e 9818     		addcs	r0, r3, r2
 2260              	.LVL270:
1200:/home/tienluong/workspace/atlantis_fw/platform/driver/src/tof.c **** 			num -= res + bit;
 2261              		.loc 1 1200 0
 2262 0020 091B     		subcs	r1, r1, r4
 2263              	.LVL271:
1202:/home/tienluong/workspace/atlantis_fw/platform/driver/src/tof.c **** 		} else
1203:/home/tienluong/workspace/atlantis_fw/platform/driver/src/tof.c **** 			res >>= 1;
 2264              		.loc 1 1203 0
 2265 0022 1846     		movcc	r0, r3
 2266              	.LVL272:
1204:/home/tienluong/workspace/atlantis_fw/platform/driver/src/tof.c **** 		bit >>= 2;
 2267              		.loc 1 1204 0
 2268 0024 9208     		lsrs	r2, r2, #2
 2269              	.LVL273:
 2270 0026 F4E7     		b	.L190
 2271              	.L195:
1205:/home/tienluong/workspace/atlantis_fw/platform/driver/src/tof.c **** 	}
1206:/home/tienluong/workspace/atlantis_fw/platform/driver/src/tof.c **** 	return res;
1207:/home/tienluong/workspace/atlantis_fw/platform/driver/src/tof.c **** }
 2272              		.loc 1 1207 0
 2273 0028 10BD     		pop	{r4, pc}
 2274              		.cfi_endproc
 2275              	.LFE28:
 2277              		.section	.text.VL53L0X_quadrature_sum,"ax",%progbits
 2278              		.align	1
 2279              		.global	VL53L0X_quadrature_sum
 2280              		.thumb
 2281              		.thumb_func
 2283              	VL53L0X_quadrature_sum:
 2284              	.LFB29:
1208:/home/tienluong/workspace/atlantis_fw/platform/driver/src/tof.c **** 
1209:/home/tienluong/workspace/atlantis_fw/platform/driver/src/tof.c **** 
1210:/home/tienluong/workspace/atlantis_fw/platform/driver/src/tof.c **** uint32_t VL53L0X_quadrature_sum(uint32_t a, uint32_t b)
1211:/home/tienluong/workspace/atlantis_fw/platform/driver/src/tof.c **** {
 2285              		.loc 1 1211 0
 2286              		.cfi_startproc
 2287              		@ args = 0, pretend = 0, frame = 0
 2288              		@ frame_needed = 0, uses_anonymous_args = 0
 2289              	.LVL274:
1212:/home/tienluong/workspace/atlantis_fw/platform/driver/src/tof.c **** 	/*
1213:/home/tienluong/workspace/atlantis_fw/platform/driver/src/tof.c **** 	 * Implements a quadrature sum
1214:/home/tienluong/workspace/atlantis_fw/platform/driver/src/tof.c **** 	 *
1215:/home/tienluong/workspace/atlantis_fw/platform/driver/src/tof.c **** 	 * rea = sqrt(a^2 + b^2)
1216:/home/tienluong/workspace/atlantis_fw/platform/driver/src/tof.c **** 	 *
1217:/home/tienluong/workspace/atlantis_fw/platform/driver/src/tof.c **** 	 * Trap overflow case max input value is 65535 (16-bit value)
1218:/home/tienluong/workspace/atlantis_fw/platform/driver/src/tof.c **** 	 * as internal calc are 32-bit wide
1219:/home/tienluong/workspace/atlantis_fw/platform/driver/src/tof.c **** 	 *
1220:/home/tienluong/workspace/atlantis_fw/platform/driver/src/tof.c **** 	 * If overflow then seta output to maximum
1221:/home/tienluong/workspace/atlantis_fw/platform/driver/src/tof.c **** 	 */
1222:/home/tienluong/workspace/atlantis_fw/platform/driver/src/tof.c **** 	uint32_t  res = 0;
1223:/home/tienluong/workspace/atlantis_fw/platform/driver/src/tof.c **** 
1224:/home/tienluong/workspace/atlantis_fw/platform/driver/src/tof.c **** 	if (a > 65535 || b > 65535)
 2290              		.loc 1 1224 0
 2291 0000 B0F5803F 		cmp	r0, #65536
1211:/home/tienluong/workspace/atlantis_fw/platform/driver/src/tof.c **** 	/*
 2292              		.loc 1 1211 0
 2293 0004 08B5     		push	{r3, lr}
 2294              	.LCFI42:
 2295              		.cfi_def_cfa_offset 8
 2296              		.cfi_offset 3, -8
 2297              		.cfi_offset 14, -4
 2298              		.loc 1 1224 0
 2299 0006 08D2     		bcs	.L199
 2300              		.loc 1 1224 0 is_stmt 0 discriminator 1
 2301 0008 B1F5803F 		cmp	r1, #65536
 2302 000c 05D2     		bcs	.L199
1225:/home/tienluong/workspace/atlantis_fw/platform/driver/src/tof.c **** 		res = 65535;
1226:/home/tienluong/workspace/atlantis_fw/platform/driver/src/tof.c **** 	else
1227:/home/tienluong/workspace/atlantis_fw/platform/driver/src/tof.c **** 		res = VL53L0X_isqrt(a * a + b * b);
 2303              		.loc 1 1227 0 is_stmt 1
 2304 000e 4943     		muls	r1, r1, r1
 2305              	.LVL275:
 2306 0010 034B     		ldr	r3, .L200
 2307 0012 00FB0010 		mla	r0, r0, r0, r1
 2308              	.LVL276:
 2309 0016 9847     		blx	r3
 2310              	.LVL277:
 2311 0018 08BD     		pop	{r3, pc}
 2312              	.LVL278:
 2313              	.L199:
1225:/home/tienluong/workspace/atlantis_fw/platform/driver/src/tof.c **** 		res = 65535;
 2314              		.loc 1 1225 0
 2315 001a 4FF6FF70 		movw	r0, #65535
 2316              	.LVL279:
1228:/home/tienluong/workspace/atlantis_fw/platform/driver/src/tof.c **** 	return res;
1229:/home/tienluong/workspace/atlantis_fw/platform/driver/src/tof.c **** }
 2317              		.loc 1 1229 0
 2318 001e 08BD     		pop	{r3, pc}
 2319              	.L201:
 2320              		.align	2
 2321              	.L200:
 2322 0020 00000000 		.word	VL53L0X_isqrt
 2323              		.cfi_endproc
 2324              	.LFE29:
 2326              		.section	.text.VL53L0X_device_read_strobe,"ax",%progbits
 2327              		.align	1
 2328              		.global	VL53L0X_device_read_strobe
 2329              		.thumb
 2330              		.thumb_func
 2332              	VL53L0X_device_read_strobe:
 2333              	.LFB30:
1230:/home/tienluong/workspace/atlantis_fw/platform/driver/src/tof.c **** 
1231:/home/tienluong/workspace/atlantis_fw/platform/driver/src/tof.c **** VL53L0X_Error VL53L0X_device_read_strobe(VL53L0X_DEV Dev)
1232:/home/tienluong/workspace/atlantis_fw/platform/driver/src/tof.c **** {
 2334              		.loc 1 1232 0
 2335              		.cfi_startproc
 2336              		@ args = 0, pretend = 0, frame = 8
 2337              		@ frame_needed = 0, uses_anonymous_args = 0
 2338              	.LVL280:
 2339 0000 F7B5     		push	{r0, r1, r2, r4, r5, r6, r7, lr}
 2340              	.LCFI43:
 2341              		.cfi_def_cfa_offset 32
 2342              		.cfi_offset 4, -20
 2343              		.cfi_offset 5, -16
 2344              		.cfi_offset 6, -12
 2345              		.cfi_offset 7, -8
 2346              		.cfi_offset 14, -4
1233:/home/tienluong/workspace/atlantis_fw/platform/driver/src/tof.c **** 	VL53L0X_Error Status = VL53L0X_ERROR_NONE;
1234:/home/tienluong/workspace/atlantis_fw/platform/driver/src/tof.c **** 	uint8_t strobe;
1235:/home/tienluong/workspace/atlantis_fw/platform/driver/src/tof.c **** 	uint32_t LoopNb;
1236:/home/tienluong/workspace/atlantis_fw/platform/driver/src/tof.c **** 
1237:/home/tienluong/workspace/atlantis_fw/platform/driver/src/tof.c **** 	Status |= VL53L0X_WrByte(Dev, 0x83, 0x00);
 2347              		.loc 1 1237 0
 2348 0002 8321     		movs	r1, #131
 2349 0004 0022     		movs	r2, #0
 2350 0006 0E4D     		ldr	r5, .L206
1232:/home/tienluong/workspace/atlantis_fw/platform/driver/src/tof.c **** 	VL53L0X_Error Status = VL53L0X_ERROR_NONE;
 2351              		.loc 1 1232 0
 2352 0008 0746     		mov	r7, r0
 2353              		.loc 1 1237 0
 2354 000a A847     		blx	r5
 2355              	.LVL281:
1238:/home/tienluong/workspace/atlantis_fw/platform/driver/src/tof.c **** 
1239:/home/tienluong/workspace/atlantis_fw/platform/driver/src/tof.c **** 	/* polling
1240:/home/tienluong/workspace/atlantis_fw/platform/driver/src/tof.c **** 	 * use timeout to avoid deadlock*/
1241:/home/tienluong/workspace/atlantis_fw/platform/driver/src/tof.c **** 	if (Status == VL53L0X_ERROR_NONE) {
 2356              		.loc 1 1241 0
 2357 000c 0446     		mov	r4, r0
 2358 000e 70B9     		cbnz	r0, .L203
 2359 0010 C826     		movs	r6, #200
 2360              	.L204:
 2361              	.LVL282:
1242:/home/tienluong/workspace/atlantis_fw/platform/driver/src/tof.c **** 		LoopNb = 0;
1243:/home/tienluong/workspace/atlantis_fw/platform/driver/src/tof.c **** 		do {
1244:/home/tienluong/workspace/atlantis_fw/platform/driver/src/tof.c **** 			Status = VL53L0X_RdByte(Dev, 0x83, &strobe);
 2362              		.loc 1 1244 0
 2363 0012 0C4B     		ldr	r3, .L206+4
 2364 0014 3846     		mov	r0, r7
 2365              	.LVL283:
 2366 0016 8321     		movs	r1, #131
 2367 0018 0DF10702 		add	r2, sp, #7
 2368 001c 9847     		blx	r3
 2369              	.LVL284:
1245:/home/tienluong/workspace/atlantis_fw/platform/driver/src/tof.c **** 			if ((strobe != 0x00) || Status != VL53L0X_ERROR_NONE)
 2370              		.loc 1 1245 0
 2371 001e 9DF80730 		ldrb	r3, [sp, #7]	@ zero_extendqisi2
1244:/home/tienluong/workspace/atlantis_fw/platform/driver/src/tof.c **** 			if ((strobe != 0x00) || Status != VL53L0X_ERROR_NONE)
 2372              		.loc 1 1244 0
 2373 0022 0446     		mov	r4, r0
 2374              	.LVL285:
 2375              		.loc 1 1245 0
 2376 0024 1BB9     		cbnz	r3, .L203
 2377              		.loc 1 1245 0 is_stmt 0 discriminator 1
 2378 0026 10B9     		cbnz	r0, .L203
 2379              	.LVL286:
1246:/home/tienluong/workspace/atlantis_fw/platform/driver/src/tof.c **** 				break;
1247:/home/tienluong/workspace/atlantis_fw/platform/driver/src/tof.c **** 			LoopNb = LoopNb + 1;
1248:/home/tienluong/workspace/atlantis_fw/platform/driver/src/tof.c **** 		} while (LoopNb < VL53L0X_DEFAULT_MAX_LOOP);
 2380              		.loc 1 1248 0 is_stmt 1
 2381 0028 013E     		subs	r6, r6, #1
 2382              	.LVL287:
 2383 002a F2D1     		bne	.L204
1249:/home/tienluong/workspace/atlantis_fw/platform/driver/src/tof.c **** 		if (LoopNb >= VL53L0X_DEFAULT_MAX_LOOP)
1250:/home/tienluong/workspace/atlantis_fw/platform/driver/src/tof.c **** 			Status = VL53L0X_ERROR_TIME_OUT;
 2384              		.loc 1 1250 0
 2385 002c F924     		movs	r4, #249
 2386              	.LVL288:
 2387              	.L203:
1251:/home/tienluong/workspace/atlantis_fw/platform/driver/src/tof.c **** 	}
1252:/home/tienluong/workspace/atlantis_fw/platform/driver/src/tof.c **** 	Status |= VL53L0X_WrByte(Dev, 0x83, 0x01);
 2388              		.loc 1 1252 0
 2389 002e 3846     		mov	r0, r7
 2390 0030 8321     		movs	r1, #131
 2391 0032 0122     		movs	r2, #1
 2392 0034 A847     		blx	r5
 2393              	.LVL289:
 2394 0036 2043     		orrs	r0, r0, r4
 2395              	.LVL290:
1253:/home/tienluong/workspace/atlantis_fw/platform/driver/src/tof.c **** 	return Status;
1254:/home/tienluong/workspace/atlantis_fw/platform/driver/src/tof.c **** }
 2396              		.loc 1 1254 0
 2397 0038 40B2     		sxtb	r0, r0
 2398 003a 03B0     		add	sp, sp, #12
 2399              	.LCFI44:
 2400              		.cfi_def_cfa_offset 20
 2401              		@ sp needed
 2402 003c F0BD     		pop	{r4, r5, r6, r7, pc}
 2403              	.LVL291:
 2404              	.L207:
 2405 003e 00BF     		.align	2
 2406              	.L206:
 2407 0040 00000000 		.word	VL53L0X_WrByte
 2408 0044 00000000 		.word	VL53L0X_RdByte
 2409              		.cfi_endproc
 2410              	.LFE30:
 2412              		.section	.text.VL53L0X_get_info_from_device,"ax",%progbits
 2413              		.align	1
 2414              		.global	VL53L0X_get_info_from_device
 2415              		.thumb
 2416              		.thumb_func
 2418              	VL53L0X_get_info_from_device:
 2419              	.LFB31:
1255:/home/tienluong/workspace/atlantis_fw/platform/driver/src/tof.c **** 
1256:/home/tienluong/workspace/atlantis_fw/platform/driver/src/tof.c **** VL53L0X_Error VL53L0X_get_info_from_device(VL53L0X_DEV Dev, uint8_t option)
1257:/home/tienluong/workspace/atlantis_fw/platform/driver/src/tof.c **** {
 2420              		.loc 1 1257 0
 2421              		.cfi_startproc
 2422              		@ args = 0, pretend = 0, frame = 72
 2423              		@ frame_needed = 0, uses_anonymous_args = 0
 2424              	.LVL292:
 2425 0000 2DE9F04F 		push	{r4, r5, r6, r7, r8, r9, r10, fp, lr}
 2426              	.LCFI45:
 2427              		.cfi_def_cfa_offset 36
 2428              		.cfi_offset 4, -36
 2429              		.cfi_offset 5, -32
 2430              		.cfi_offset 6, -28
 2431              		.cfi_offset 7, -24
 2432              		.cfi_offset 8, -20
 2433              		.cfi_offset 9, -16
 2434              		.cfi_offset 10, -12
 2435              		.cfi_offset 11, -8
 2436              		.cfi_offset 14, -4
1258:/home/tienluong/workspace/atlantis_fw/platform/driver/src/tof.c **** 	VL53L0X_Error Status = VL53L0X_ERROR_NONE;
1259:/home/tienluong/workspace/atlantis_fw/platform/driver/src/tof.c **** 	uint8_t byte;
1260:/home/tienluong/workspace/atlantis_fw/platform/driver/src/tof.c **** 	uint32_t TmpDWord;
1261:/home/tienluong/workspace/atlantis_fw/platform/driver/src/tof.c **** 	uint8_t ModuleId;
1262:/home/tienluong/workspace/atlantis_fw/platform/driver/src/tof.c **** 	uint8_t Revision;
1263:/home/tienluong/workspace/atlantis_fw/platform/driver/src/tof.c **** 	uint8_t ReferenceSpadCount = 0;
1264:/home/tienluong/workspace/atlantis_fw/platform/driver/src/tof.c **** 	uint8_t ReferenceSpadType = 0;
1265:/home/tienluong/workspace/atlantis_fw/platform/driver/src/tof.c **** 	uint32_t PartUIDUpper = 0;
1266:/home/tienluong/workspace/atlantis_fw/platform/driver/src/tof.c **** 	uint32_t PartUIDLower = 0;
1267:/home/tienluong/workspace/atlantis_fw/platform/driver/src/tof.c **** 	uint32_t OffsetFixed1104_mm = 0;
1268:/home/tienluong/workspace/atlantis_fw/platform/driver/src/tof.c **** 	int16_t OffsetMicroMeters = 0;
1269:/home/tienluong/workspace/atlantis_fw/platform/driver/src/tof.c **** 	uint32_t DistMeasTgtFixed1104_mm = 400 << 4;
1270:/home/tienluong/workspace/atlantis_fw/platform/driver/src/tof.c **** 	uint32_t DistMeasFixed1104_400_mm = 0;
1271:/home/tienluong/workspace/atlantis_fw/platform/driver/src/tof.c **** 	uint32_t SignalRateMeasFixed1104_400_mm = 0;
1272:/home/tienluong/workspace/atlantis_fw/platform/driver/src/tof.c **** 	char ProductId[19];
1273:/home/tienluong/workspace/atlantis_fw/platform/driver/src/tof.c **** 	char *ProductId_tmp;
1274:/home/tienluong/workspace/atlantis_fw/platform/driver/src/tof.c **** 	uint8_t ReadDataFromDeviceDone;
1275:/home/tienluong/workspace/atlantis_fw/platform/driver/src/tof.c **** 	FixPoint1616_t SignalRateMeasFixed400mmFix = 0;
1276:/home/tienluong/workspace/atlantis_fw/platform/driver/src/tof.c **** 	uint8_t NvmRefGoodSpadMap[VL53L0X_REF_SPAD_BUFFER_SIZE];
1277:/home/tienluong/workspace/atlantis_fw/platform/driver/src/tof.c **** 	int i;
1278:/home/tienluong/workspace/atlantis_fw/platform/driver/src/tof.c **** 
1279:/home/tienluong/workspace/atlantis_fw/platform/driver/src/tof.c **** 	ReadDataFromDeviceDone = VL53L0X_GETDEVICESPECIFICPARAMETER(Dev,
 2437              		.loc 1 1279 0
 2438 0004 90F8F050 		ldrb	r5, [r0, #240]	@ zero_extendqisi2
1257:/home/tienluong/workspace/atlantis_fw/platform/driver/src/tof.c **** 	VL53L0X_Error Status = VL53L0X_ERROR_NONE;
 2439              		.loc 1 1257 0
 2440 0008 93B0     		sub	sp, sp, #76
 2441              	.LCFI46:
 2442              		.cfi_def_cfa_offset 112
1265:/home/tienluong/workspace/atlantis_fw/platform/driver/src/tof.c **** 	uint32_t PartUIDLower = 0;
 2443              		.loc 1 1265 0
 2444 000a 4FF00008 		mov	r8, #0
1280:/home/tienluong/workspace/atlantis_fw/platform/driver/src/tof.c **** 			ReadDataFromDeviceDone);
1281:/home/tienluong/workspace/atlantis_fw/platform/driver/src/tof.c **** 
1282:/home/tienluong/workspace/atlantis_fw/platform/driver/src/tof.c **** 	/* This access is done only once after that a GetDeviceInfo or
1283:/home/tienluong/workspace/atlantis_fw/platform/driver/src/tof.c **** 	 * datainit is done*/
1284:/home/tienluong/workspace/atlantis_fw/platform/driver/src/tof.c **** 	if (ReadDataFromDeviceDone != 7) {
 2445              		.loc 1 1284 0
 2446 000e 072D     		cmp	r5, #7
1257:/home/tienluong/workspace/atlantis_fw/platform/driver/src/tof.c **** 	VL53L0X_Error Status = VL53L0X_ERROR_NONE;
 2447              		.loc 1 1257 0
 2448 0010 0446     		mov	r4, r0
 2449 0012 8A46     		mov	r10, r1
1265:/home/tienluong/workspace/atlantis_fw/platform/driver/src/tof.c **** 	uint32_t PartUIDLower = 0;
 2450              		.loc 1 1265 0
 2451 0014 CDF82480 		str	r8, [sp, #36]
1266:/home/tienluong/workspace/atlantis_fw/platform/driver/src/tof.c **** 	uint32_t OffsetFixed1104_mm = 0;
 2452              		.loc 1 1266 0
 2453 0018 CDF82880 		str	r8, [sp, #40]
 2454              	.LVL293:
 2455              		.loc 1 1284 0
 2456 001c 00F0DA82 		beq	.L209
1285:/home/tienluong/workspace/atlantis_fw/platform/driver/src/tof.c **** 
1286:/home/tienluong/workspace/atlantis_fw/platform/driver/src/tof.c **** 		Status |= VL53L0X_WrByte(Dev, 0x80, 0x01);
 2457              		.loc 1 1286 0
 2458 0020 4F4E     		ldr	r6, .L237
 2459 0022 8021     		movs	r1, #128
 2460              	.LVL294:
 2461 0024 0122     		movs	r2, #1
 2462 0026 B047     		blx	r6
 2463              	.LVL295:
1287:/home/tienluong/workspace/atlantis_fw/platform/driver/src/tof.c **** 		Status |= VL53L0X_WrByte(Dev, 0xFF, 0x01);
 2464              		.loc 1 1287 0
 2465 0028 FF21     		movs	r1, #255
 2466 002a 0122     		movs	r2, #1
1286:/home/tienluong/workspace/atlantis_fw/platform/driver/src/tof.c **** 		Status |= VL53L0X_WrByte(Dev, 0xFF, 0x01);
 2467              		.loc 1 1286 0
 2468 002c 0746     		mov	r7, r0
 2469              	.LVL296:
 2470              		.loc 1 1287 0
 2471 002e 2046     		mov	r0, r4
 2472 0030 B047     		blx	r6
 2473              	.LVL297:
1288:/home/tienluong/workspace/atlantis_fw/platform/driver/src/tof.c **** 		Status |= VL53L0X_WrByte(Dev, 0x00, 0x00);
 2474              		.loc 1 1288 0
 2475 0032 4146     		mov	r1, r8
 2476 0034 4246     		mov	r2, r8
1287:/home/tienluong/workspace/atlantis_fw/platform/driver/src/tof.c **** 		Status |= VL53L0X_WrByte(Dev, 0xFF, 0x01);
 2477              		.loc 1 1287 0
 2478 0036 3843     		orrs	r0, r0, r7
 2479 0038 C7B2     		uxtb	r7, r0
 2480              	.LVL298:
 2481              		.loc 1 1288 0
 2482 003a 2046     		mov	r0, r4
 2483 003c B047     		blx	r6
 2484              	.LVL299:
1289:/home/tienluong/workspace/atlantis_fw/platform/driver/src/tof.c **** 
1290:/home/tienluong/workspace/atlantis_fw/platform/driver/src/tof.c **** 		Status |= VL53L0X_WrByte(Dev, 0xFF, 0x06);
 2485              		.loc 1 1290 0
 2486 003e FF21     		movs	r1, #255
 2487 0040 0622     		movs	r2, #6
1288:/home/tienluong/workspace/atlantis_fw/platform/driver/src/tof.c **** 		Status |= VL53L0X_WrByte(Dev, 0x00, 0x00);
 2488              		.loc 1 1288 0
 2489 0042 3843     		orrs	r0, r0, r7
 2490 0044 C7B2     		uxtb	r7, r0
 2491              	.LVL300:
 2492              		.loc 1 1290 0
 2493 0046 2046     		mov	r0, r4
 2494 0048 B047     		blx	r6
 2495              	.LVL301:
1291:/home/tienluong/workspace/atlantis_fw/platform/driver/src/tof.c **** 		Status |= VL53L0X_RdByte(Dev, 0x83, &byte);
 2496              		.loc 1 1291 0
 2497 004a 464B     		ldr	r3, .L237+4
 2498 004c 8321     		movs	r1, #131
 2499 004e 0DF11D02 		add	r2, sp, #29
1290:/home/tienluong/workspace/atlantis_fw/platform/driver/src/tof.c **** 		Status |= VL53L0X_RdByte(Dev, 0x83, &byte);
 2500              		.loc 1 1290 0
 2501 0052 3843     		orrs	r0, r0, r7
 2502 0054 C7B2     		uxtb	r7, r0
 2503              	.LVL302:
 2504              		.loc 1 1291 0
 2505 0056 2046     		mov	r0, r4
 2506 0058 9847     		blx	r3
 2507              	.LVL303:
1292:/home/tienluong/workspace/atlantis_fw/platform/driver/src/tof.c **** 		Status |= VL53L0X_WrByte(Dev, 0x83, byte|4);
 2508              		.loc 1 1292 0
 2509 005a 9DF81D20 		ldrb	r2, [sp, #29]	@ zero_extendqisi2
 2510 005e 8321     		movs	r1, #131
 2511 0060 42F00402 		orr	r2, r2, #4
1291:/home/tienluong/workspace/atlantis_fw/platform/driver/src/tof.c **** 		Status |= VL53L0X_RdByte(Dev, 0x83, &byte);
 2512              		.loc 1 1291 0
 2513 0064 3843     		orrs	r0, r0, r7
 2514 0066 C7B2     		uxtb	r7, r0
 2515              	.LVL304:
 2516              		.loc 1 1292 0
 2517 0068 2046     		mov	r0, r4
 2518 006a B047     		blx	r6
 2519              	.LVL305:
1293:/home/tienluong/workspace/atlantis_fw/platform/driver/src/tof.c **** 		Status |= VL53L0X_WrByte(Dev, 0xFF, 0x07);
 2520              		.loc 1 1293 0
 2521 006c FF21     		movs	r1, #255
 2522 006e 0722     		movs	r2, #7
1292:/home/tienluong/workspace/atlantis_fw/platform/driver/src/tof.c **** 		Status |= VL53L0X_WrByte(Dev, 0x83, byte|4);
 2523              		.loc 1 1292 0
 2524 0070 3843     		orrs	r0, r0, r7
 2525 0072 C7B2     		uxtb	r7, r0
 2526              	.LVL306:
 2527              		.loc 1 1293 0
 2528 0074 2046     		mov	r0, r4
 2529 0076 B047     		blx	r6
 2530              	.LVL307:
1294:/home/tienluong/workspace/atlantis_fw/platform/driver/src/tof.c **** 		Status |= VL53L0X_WrByte(Dev, 0x81, 0x01);
 2531              		.loc 1 1294 0
 2532 0078 8121     		movs	r1, #129
 2533 007a 0122     		movs	r2, #1
1293:/home/tienluong/workspace/atlantis_fw/platform/driver/src/tof.c **** 		Status |= VL53L0X_WrByte(Dev, 0xFF, 0x07);
 2534              		.loc 1 1293 0
 2535 007c 3843     		orrs	r0, r0, r7
 2536 007e C7B2     		uxtb	r7, r0
 2537              	.LVL308:
 2538              		.loc 1 1294 0
 2539 0080 2046     		mov	r0, r4
 2540 0082 B047     		blx	r6
 2541              	.LVL309:
1295:/home/tienluong/workspace/atlantis_fw/platform/driver/src/tof.c **** 
1296:/home/tienluong/workspace/atlantis_fw/platform/driver/src/tof.c **** 		VL53L0X_PollingDelay(Dev);
 2542              		.loc 1 1296 0
 2543 0084 384B     		ldr	r3, .L237+8
1294:/home/tienluong/workspace/atlantis_fw/platform/driver/src/tof.c **** 		Status |= VL53L0X_WrByte(Dev, 0x81, 0x01);
 2544              		.loc 1 1294 0
 2545 0086 3843     		orrs	r0, r0, r7
 2546 0088 C7B2     		uxtb	r7, r0
 2547              	.LVL310:
 2548              		.loc 1 1296 0
 2549 008a 1920     		movs	r0, #25
 2550 008c 9847     		blx	r3
 2551              	.LVL311:
1297:/home/tienluong/workspace/atlantis_fw/platform/driver/src/tof.c **** 
1298:/home/tienluong/workspace/atlantis_fw/platform/driver/src/tof.c **** 		Status |= VL53L0X_WrByte(Dev, 0x80, 0x01);
 2552              		.loc 1 1298 0
 2553 008e 2046     		mov	r0, r4
 2554 0090 8021     		movs	r1, #128
 2555 0092 0122     		movs	r2, #1
 2556 0094 B047     		blx	r6
 2557              	.LVL312:
1299:/home/tienluong/workspace/atlantis_fw/platform/driver/src/tof.c **** 
1300:/home/tienluong/workspace/atlantis_fw/platform/driver/src/tof.c **** 		if (((option & 1) == 1) &&
 2558              		.loc 1 1300 0
 2559 0096 1AF00103 		ands	r3, r10, #1
 2560 009a 0293     		str	r3, [sp, #8]
1298:/home/tienluong/workspace/atlantis_fw/platform/driver/src/tof.c **** 
 2561              		.loc 1 1298 0
 2562 009c 40EA0700 		orr	r0, r0, r7
 2563 00a0 C7B2     		uxtb	r7, r0
 2564              	.LVL313:
 2565              		.loc 1 1300 0
 2566 00a2 5AD0     		beq	.L223
 2567              		.loc 1 1300 0 is_stmt 0 discriminator 1
 2568 00a4 EB07     		lsls	r3, r5, #31
 2569 00a6 65D4     		bmi	.L224
1301:/home/tienluong/workspace/atlantis_fw/platform/driver/src/tof.c **** 			((ReadDataFromDeviceDone & 1) == 0)) {
1302:/home/tienluong/workspace/atlantis_fw/platform/driver/src/tof.c **** 			Status |= VL53L0X_WrByte(Dev, 0x94, 0x6b);
 2570              		.loc 1 1302 0 is_stmt 1
 2571 00a8 9421     		movs	r1, #148
 2572 00aa 6B22     		movs	r2, #107
 2573 00ac 2046     		mov	r0, r4
 2574 00ae B047     		blx	r6
 2575              	.LVL314:
1303:/home/tienluong/workspace/atlantis_fw/platform/driver/src/tof.c **** 			Status |= VL53L0X_device_read_strobe(Dev);
 2576              		.loc 1 1303 0
 2577 00b0 DFF8BC80 		ldr	r8, .L237+16
1302:/home/tienluong/workspace/atlantis_fw/platform/driver/src/tof.c **** 			Status |= VL53L0X_device_read_strobe(Dev);
 2578              		.loc 1 1302 0
 2579 00b4 8146     		mov	r9, r0
 2580              	.LVL315:
 2581              		.loc 1 1303 0
 2582 00b6 2046     		mov	r0, r4
 2583 00b8 C047     		blx	r8
 2584              	.LVL316:
1304:/home/tienluong/workspace/atlantis_fw/platform/driver/src/tof.c **** 			Status |= VL53L0X_RdDWord(Dev, 0x90, &TmpDWord);
 2585              		.loc 1 1304 0
 2586 00ba 9021     		movs	r1, #144
 2587 00bc 08AA     		add	r2, sp, #32
 2588 00be 49EA0000 		orr	r0, r9, r0
1303:/home/tienluong/workspace/atlantis_fw/platform/driver/src/tof.c **** 			Status |= VL53L0X_device_read_strobe(Dev);
 2589              		.loc 1 1303 0
 2590 00c2 3843     		orrs	r0, r0, r7
 2591              		.loc 1 1304 0
 2592 00c4 294F     		ldr	r7, .L237+12
 2593              	.LVL317:
1303:/home/tienluong/workspace/atlantis_fw/platform/driver/src/tof.c **** 			Status |= VL53L0X_device_read_strobe(Dev);
 2594              		.loc 1 1303 0
 2595 00c6 5FFA80F9 		uxtb	r9, r0
 2596              	.LVL318:
 2597              		.loc 1 1304 0
 2598 00ca 2046     		mov	r0, r4
 2599 00cc B847     		blx	r7
 2600              	.LVL319:
1305:/home/tienluong/workspace/atlantis_fw/platform/driver/src/tof.c **** 
1306:/home/tienluong/workspace/atlantis_fw/platform/driver/src/tof.c **** 			ReferenceSpadCount = (uint8_t)((TmpDWord >> 8) & 0x07f);
1307:/home/tienluong/workspace/atlantis_fw/platform/driver/src/tof.c **** 			ReferenceSpadType  = (uint8_t)((TmpDWord >> 15) & 0x01);
1308:/home/tienluong/workspace/atlantis_fw/platform/driver/src/tof.c **** 
1309:/home/tienluong/workspace/atlantis_fw/platform/driver/src/tof.c **** 			Status |= VL53L0X_WrByte(Dev, 0x94, 0x24);
 2601              		.loc 1 1309 0
 2602 00ce 9421     		movs	r1, #148
 2603 00d0 2422     		movs	r2, #36
1304:/home/tienluong/workspace/atlantis_fw/platform/driver/src/tof.c **** 			Status |= VL53L0X_RdDWord(Dev, 0x90, &TmpDWord);
 2604              		.loc 1 1304 0
 2605 00d2 40EA0900 		orr	r0, r0, r9
 2606 00d6 5FFA80F9 		uxtb	r9, r0
 2607              	.LVL320:
1306:/home/tienluong/workspace/atlantis_fw/platform/driver/src/tof.c **** 			ReferenceSpadType  = (uint8_t)((TmpDWord >> 15) & 0x01);
 2608              		.loc 1 1306 0
 2609 00da 0898     		ldr	r0, [sp, #32]
 2610 00dc C0F30623 		ubfx	r3, r0, #8, #7
 2611 00e0 0193     		str	r3, [sp, #4]
 2612              	.LVL321:
1307:/home/tienluong/workspace/atlantis_fw/platform/driver/src/tof.c **** 
 2613              		.loc 1 1307 0
 2614 00e2 C0F3C033 		ubfx	r3, r0, #15, #1
 2615              		.loc 1 1309 0
 2616 00e6 2046     		mov	r0, r4
1307:/home/tienluong/workspace/atlantis_fw/platform/driver/src/tof.c **** 
 2617              		.loc 1 1307 0
 2618 00e8 0093     		str	r3, [sp]
 2619              	.LVL322:
 2620              		.loc 1 1309 0
 2621 00ea B047     		blx	r6
 2622              	.LVL323:
 2623 00ec 40EA0900 		orr	r0, r0, r9
 2624 00f0 5FFA80F9 		uxtb	r9, r0
 2625              	.LVL324:
1310:/home/tienluong/workspace/atlantis_fw/platform/driver/src/tof.c **** 			Status |= VL53L0X_device_read_strobe(Dev);
 2626              		.loc 1 1310 0
 2627 00f4 2046     		mov	r0, r4
 2628 00f6 C047     		blx	r8
 2629              	.LVL325:
1311:/home/tienluong/workspace/atlantis_fw/platform/driver/src/tof.c **** 			Status |= VL53L0X_RdDWord(Dev, 0x90, &TmpDWord);
 2630              		.loc 1 1311 0
 2631 00f8 9021     		movs	r1, #144
 2632 00fa 08AA     		add	r2, sp, #32
1310:/home/tienluong/workspace/atlantis_fw/platform/driver/src/tof.c **** 			Status |= VL53L0X_device_read_strobe(Dev);
 2633              		.loc 1 1310 0
 2634 00fc 40EA0900 		orr	r0, r0, r9
 2635 0100 5FFA80F9 		uxtb	r9, r0
 2636              	.LVL326:
 2637              		.loc 1 1311 0
 2638 0104 2046     		mov	r0, r4
 2639 0106 B847     		blx	r7
 2640              	.LVL327:
1312:/home/tienluong/workspace/atlantis_fw/platform/driver/src/tof.c **** 
1313:/home/tienluong/workspace/atlantis_fw/platform/driver/src/tof.c **** 
1314:/home/tienluong/workspace/atlantis_fw/platform/driver/src/tof.c **** 			NvmRefGoodSpadMap[0] = (uint8_t)((TmpDWord >> 24)
 2641              		.loc 1 1314 0
 2642 0108 089B     		ldr	r3, [sp, #32]
1315:/home/tienluong/workspace/atlantis_fw/platform/driver/src/tof.c **** 				& 0xff);
1316:/home/tienluong/workspace/atlantis_fw/platform/driver/src/tof.c **** 			NvmRefGoodSpadMap[1] = (uint8_t)((TmpDWord >> 16)
1317:/home/tienluong/workspace/atlantis_fw/platform/driver/src/tof.c **** 				& 0xff);
1318:/home/tienluong/workspace/atlantis_fw/platform/driver/src/tof.c **** 			NvmRefGoodSpadMap[2] = (uint8_t)((TmpDWord >> 8)
1319:/home/tienluong/workspace/atlantis_fw/platform/driver/src/tof.c **** 				& 0xff);
1320:/home/tienluong/workspace/atlantis_fw/platform/driver/src/tof.c **** 			NvmRefGoodSpadMap[3] = (uint8_t)(TmpDWord & 0xff);
1321:/home/tienluong/workspace/atlantis_fw/platform/driver/src/tof.c **** 
1322:/home/tienluong/workspace/atlantis_fw/platform/driver/src/tof.c **** 			Status |= VL53L0X_WrByte(Dev, 0x94, 0x25);
 2643              		.loc 1 1322 0
 2644 010a 9421     		movs	r1, #148
1320:/home/tienluong/workspace/atlantis_fw/platform/driver/src/tof.c **** 
 2645              		.loc 1 1320 0
 2646 010c 8DF82F30 		strb	r3, [sp, #47]
1314:/home/tienluong/workspace/atlantis_fw/platform/driver/src/tof.c **** 				& 0xff);
 2647              		.loc 1 1314 0
 2648 0110 1A0E     		lsrs	r2, r3, #24
 2649 0112 8DF82C20 		strb	r2, [sp, #44]
1316:/home/tienluong/workspace/atlantis_fw/platform/driver/src/tof.c **** 				& 0xff);
 2650              		.loc 1 1316 0
 2651 0116 1A0C     		lsrs	r2, r3, #16
 2652 0118 8DF82D20 		strb	r2, [sp, #45]
1318:/home/tienluong/workspace/atlantis_fw/platform/driver/src/tof.c **** 				& 0xff);
 2653              		.loc 1 1318 0
 2654 011c 1A0A     		lsrs	r2, r3, #8
 2655 011e 8DF82E20 		strb	r2, [sp, #46]
 2656              		.loc 1 1322 0
 2657 0122 2522     		movs	r2, #37
1311:/home/tienluong/workspace/atlantis_fw/platform/driver/src/tof.c **** 
 2658              		.loc 1 1311 0
 2659 0124 40EA0900 		orr	r0, r0, r9
 2660 0128 5FFA80F9 		uxtb	r9, r0
 2661              	.LVL328:
 2662              		.loc 1 1322 0
 2663 012c 2046     		mov	r0, r4
 2664 012e B047     		blx	r6
 2665              	.LVL329:
 2666 0130 40EA0900 		orr	r0, r0, r9
 2667 0134 C6B2     		uxtb	r6, r0
 2668              	.LVL330:
1323:/home/tienluong/workspace/atlantis_fw/platform/driver/src/tof.c **** 			Status |= VL53L0X_device_read_strobe(Dev);
 2669              		.loc 1 1323 0
 2670 0136 2046     		mov	r0, r4
 2671 0138 C047     		blx	r8
 2672              	.LVL331:
1324:/home/tienluong/workspace/atlantis_fw/platform/driver/src/tof.c **** 			Status |= VL53L0X_RdDWord(Dev, 0x90, &TmpDWord);
 2673              		.loc 1 1324 0
 2674 013a 08AA     		add	r2, sp, #32
 2675 013c 9021     		movs	r1, #144
1323:/home/tienluong/workspace/atlantis_fw/platform/driver/src/tof.c **** 			Status |= VL53L0X_device_read_strobe(Dev);
 2676              		.loc 1 1323 0
 2677 013e 3043     		orrs	r0, r0, r6
 2678 0140 C6B2     		uxtb	r6, r0
 2679              	.LVL332:
 2680              		.loc 1 1324 0
 2681 0142 2046     		mov	r0, r4
 2682 0144 B847     		blx	r7
 2683              	.LVL333:
1325:/home/tienluong/workspace/atlantis_fw/platform/driver/src/tof.c **** 
1326:/home/tienluong/workspace/atlantis_fw/platform/driver/src/tof.c **** 			NvmRefGoodSpadMap[4] = (uint8_t)((TmpDWord >> 24)
 2684              		.loc 1 1326 0
 2685 0146 089B     		ldr	r3, [sp, #32]
 2686 0148 1A0E     		lsrs	r2, r3, #24
1327:/home/tienluong/workspace/atlantis_fw/platform/driver/src/tof.c **** 				& 0xff);
1328:/home/tienluong/workspace/atlantis_fw/platform/driver/src/tof.c **** 			NvmRefGoodSpadMap[5] = (uint8_t)((TmpDWord >> 16)
 2687              		.loc 1 1328 0
 2688 014a 1B0C     		lsrs	r3, r3, #16
1326:/home/tienluong/workspace/atlantis_fw/platform/driver/src/tof.c **** 				& 0xff);
 2689              		.loc 1 1326 0
 2690 014c 8DF83020 		strb	r2, [sp, #48]
 2691              		.loc 1 1328 0
 2692 0150 8DF83130 		strb	r3, [sp, #49]
1324:/home/tienluong/workspace/atlantis_fw/platform/driver/src/tof.c **** 
 2693              		.loc 1 1324 0
 2694 0154 3043     		orrs	r0, r0, r6
 2695 0156 C7B2     		uxtb	r7, r0
 2696              	.LVL334:
 2697 0158 10E0     		b	.L210
 2698              	.LVL335:
 2699              	.L223:
1264:/home/tienluong/workspace/atlantis_fw/platform/driver/src/tof.c **** 	uint32_t PartUIDUpper = 0;
 2700              		.loc 1 1264 0
 2701 015a 029B     		ldr	r3, [sp, #8]
 2702 015c 0093     		str	r3, [sp]
 2703 015e 0CE0     		b	.L236
 2704              	.L238:
 2705              		.align	2
 2706              	.L237:
 2707 0160 00000000 		.word	VL53L0X_WrByte
 2708 0164 00000000 		.word	VL53L0X_RdByte
 2709 0168 00000000 		.word	vTaskDelay
 2710 016c 00000000 		.word	VL53L0X_RdDWord
 2711 0170 00000000 		.word	VL53L0X_device_read_strobe
 2712              	.L224:
1263:/home/tienluong/workspace/atlantis_fw/platform/driver/src/tof.c **** 	uint8_t ReferenceSpadType = 0;
 2713              		.loc 1 1263 0
 2714 0174 4346     		mov	r3, r8
1264:/home/tienluong/workspace/atlantis_fw/platform/driver/src/tof.c **** 	uint32_t PartUIDUpper = 0;
 2715              		.loc 1 1264 0
 2716 0176 CDF80080 		str	r8, [sp]
 2717              	.L236:
1263:/home/tienluong/workspace/atlantis_fw/platform/driver/src/tof.c **** 	uint8_t ReferenceSpadType = 0;
 2718              		.loc 1 1263 0
 2719 017a 0193     		str	r3, [sp, #4]
 2720              	.LVL336:
 2721              	.L210:
1329:/home/tienluong/workspace/atlantis_fw/platform/driver/src/tof.c **** 				& 0xff);
1330:/home/tienluong/workspace/atlantis_fw/platform/driver/src/tof.c **** 		}
1331:/home/tienluong/workspace/atlantis_fw/platform/driver/src/tof.c **** 
1332:/home/tienluong/workspace/atlantis_fw/platform/driver/src/tof.c **** 		if (((option & 2) == 2) &&
 2722              		.loc 1 1332 0
 2723 017c 0AF00203 		and	r3, r10, #2
 2724 0180 03F0FF02 		and	r2, r3, #255
 2725 0184 0392     		str	r2, [sp, #12]
 2726 0186 002B     		cmp	r3, #0
 2727 0188 00F0E480 		beq	.L211
1333:/home/tienluong/workspace/atlantis_fw/platform/driver/src/tof.c **** 			((ReadDataFromDeviceDone & 2) == 0)) {
 2728              		.loc 1 1333 0 discriminator 1
 2729 018c 05F00203 		and	r3, r5, #2
1332:/home/tienluong/workspace/atlantis_fw/platform/driver/src/tof.c **** 			((ReadDataFromDeviceDone & 2) == 0)) {
 2730              		.loc 1 1332 0 discriminator 1
 2731 0190 03F0FF09 		and	r9, r3, #255
 2732 0194 002B     		cmp	r3, #0
 2733 0196 40F0DD80 		bne	.L211
1334:/home/tienluong/workspace/atlantis_fw/platform/driver/src/tof.c **** 
1335:/home/tienluong/workspace/atlantis_fw/platform/driver/src/tof.c **** 			Status |= VL53L0X_WrByte(Dev, 0x94, 0x02);
 2734              		.loc 1 1335 0
 2735 019a DFF82483 		ldr	r8, .L239+12
 2736 019e 9421     		movs	r1, #148
 2737 01a0 0222     		movs	r2, #2
 2738 01a2 2046     		mov	r0, r4
 2739 01a4 C047     		blx	r8
 2740              	.LVL337:
1336:/home/tienluong/workspace/atlantis_fw/platform/driver/src/tof.c **** 			Status |= VL53L0X_device_read_strobe(Dev);
 2741              		.loc 1 1336 0
 2742 01a6 C34E     		ldr	r6, .L239
1335:/home/tienluong/workspace/atlantis_fw/platform/driver/src/tof.c **** 			Status |= VL53L0X_device_read_strobe(Dev);
 2743              		.loc 1 1335 0
 2744 01a8 8346     		mov	fp, r0
 2745              	.LVL338:
 2746              		.loc 1 1336 0
 2747 01aa 2046     		mov	r0, r4
 2748 01ac B047     		blx	r6
 2749              	.LVL339:
1337:/home/tienluong/workspace/atlantis_fw/platform/driver/src/tof.c **** 			Status |= VL53L0X_RdByte(Dev, 0x90, &ModuleId);
 2750              		.loc 1 1337 0
 2751 01ae 9021     		movs	r1, #144
 2752 01b0 0DF11E02 		add	r2, sp, #30
 2753 01b4 4BEA0000 		orr	r0, fp, r0
1336:/home/tienluong/workspace/atlantis_fw/platform/driver/src/tof.c **** 			Status |= VL53L0X_device_read_strobe(Dev);
 2754              		.loc 1 1336 0
 2755 01b8 0743     		orrs	r7, r7, r0
 2756              	.LVL340:
 2757              		.loc 1 1337 0
 2758 01ba DFF800B3 		ldr	fp, .L239+8
 2759 01be 2046     		mov	r0, r4
 2760 01c0 D847     		blx	fp
 2761              	.LVL341:
1336:/home/tienluong/workspace/atlantis_fw/platform/driver/src/tof.c **** 			Status |= VL53L0X_device_read_strobe(Dev);
 2762              		.loc 1 1336 0
 2763 01c2 FFB2     		uxtb	r7, r7
 2764              	.LVL342:
1338:/home/tienluong/workspace/atlantis_fw/platform/driver/src/tof.c **** 
1339:/home/tienluong/workspace/atlantis_fw/platform/driver/src/tof.c **** 			Status |= VL53L0X_WrByte(Dev, 0x94, 0x7B);
 2765              		.loc 1 1339 0
 2766 01c4 9421     		movs	r1, #148
 2767 01c6 7B22     		movs	r2, #123
1337:/home/tienluong/workspace/atlantis_fw/platform/driver/src/tof.c **** 			Status |= VL53L0X_RdByte(Dev, 0x90, &ModuleId);
 2768              		.loc 1 1337 0
 2769 01c8 3843     		orrs	r0, r0, r7
 2770 01ca C7B2     		uxtb	r7, r0
 2771              	.LVL343:
 2772              		.loc 1 1339 0
 2773 01cc 2046     		mov	r0, r4
 2774 01ce C047     		blx	r8
 2775              	.LVL344:
 2776 01d0 3843     		orrs	r0, r0, r7
 2777 01d2 C7B2     		uxtb	r7, r0
 2778              	.LVL345:
1340:/home/tienluong/workspace/atlantis_fw/platform/driver/src/tof.c **** 			Status |= VL53L0X_device_read_strobe(Dev);
 2779              		.loc 1 1340 0
 2780 01d4 2046     		mov	r0, r4
 2781 01d6 B047     		blx	r6
 2782              	.LVL346:
1341:/home/tienluong/workspace/atlantis_fw/platform/driver/src/tof.c **** 			Status |= VL53L0X_RdByte(Dev, 0x90, &Revision);
 2783              		.loc 1 1341 0
 2784 01d8 9021     		movs	r1, #144
 2785 01da 0DF11F02 		add	r2, sp, #31
1340:/home/tienluong/workspace/atlantis_fw/platform/driver/src/tof.c **** 			Status |= VL53L0X_device_read_strobe(Dev);
 2786              		.loc 1 1340 0
 2787 01de 3843     		orrs	r0, r0, r7
 2788 01e0 C7B2     		uxtb	r7, r0
 2789              	.LVL347:
 2790              		.loc 1 1341 0
 2791 01e2 2046     		mov	r0, r4
 2792 01e4 D847     		blx	fp
 2793              	.LVL348:
1342:/home/tienluong/workspace/atlantis_fw/platform/driver/src/tof.c **** 
1343:/home/tienluong/workspace/atlantis_fw/platform/driver/src/tof.c **** 			Status |= VL53L0X_WrByte(Dev, 0x94, 0x77);
 2794              		.loc 1 1343 0
 2795 01e6 9421     		movs	r1, #148
 2796 01e8 7722     		movs	r2, #119
1341:/home/tienluong/workspace/atlantis_fw/platform/driver/src/tof.c **** 			Status |= VL53L0X_RdByte(Dev, 0x90, &Revision);
