   1              		.syntax unified
   2              		.cpu cortex-r4
   3              		.fpu softvfp
   4              		.eabi_attribute 20, 1
   5              		.eabi_attribute 21, 1
   6              		.eabi_attribute 23, 3
   7              		.eabi_attribute 24, 1
   8              		.eabi_attribute 25, 1
   9              		.eabi_attribute 26, 1
  10              		.eabi_attribute 30, 4
  11              		.eabi_attribute 34, 1
  12              		.eabi_attribute 18, 4
  13              		.thumb
  14              		.file	"vignetting_characterization.pb-c.c"
  15              		.text
  16              	.Ltext0:
  17              		.cfi_sections	.debug_frame
  18              		.section	.text.ltpb__vignetting_characterization__crosstalk_model__init,"ax",%progbits
  19              		.align	1
  20              		.global	ltpb__vignetting_characterization__crosstalk_model__init
  21              		.thumb
  22              		.thumb_func
  24              	ltpb__vignetting_characterization__crosstalk_model__init:
  25              	.LFB1:
  26              		.file 1 "/home/tienluong/workspace/atlantis_fw/platform/common/lightheader/src/vignetting_characte
   1:/home/tienluong/workspace/atlantis_fw/platform/common/lightheader/src/vignetting_characterization.pb-c.c **** /* Generated by the protocol buffer compiler.  DO NOT EDIT! */
   2:/home/tienluong/workspace/atlantis_fw/platform/common/lightheader/src/vignetting_characterization.pb-c.c **** /* Generated from: vignetting_characterization.proto */
   3:/home/tienluong/workspace/atlantis_fw/platform/common/lightheader/src/vignetting_characterization.pb-c.c **** 
   4:/home/tienluong/workspace/atlantis_fw/platform/common/lightheader/src/vignetting_characterization.pb-c.c **** /* Do not generate deprecated warnings for self */
   5:/home/tienluong/workspace/atlantis_fw/platform/common/lightheader/src/vignetting_characterization.pb-c.c **** #ifndef PROTOBUF_C__NO_DEPRECATED
   6:/home/tienluong/workspace/atlantis_fw/platform/common/lightheader/src/vignetting_characterization.pb-c.c **** #define PROTOBUF_C__NO_DEPRECATED
   7:/home/tienluong/workspace/atlantis_fw/platform/common/lightheader/src/vignetting_characterization.pb-c.c **** #endif
   8:/home/tienluong/workspace/atlantis_fw/platform/common/lightheader/src/vignetting_characterization.pb-c.c **** 
   9:/home/tienluong/workspace/atlantis_fw/platform/common/lightheader/src/vignetting_characterization.pb-c.c **** #include "sections.h"
  10:/home/tienluong/workspace/atlantis_fw/platform/common/lightheader/src/vignetting_characterization.pb-c.c **** #include "vignetting_characterization.pb-c.h"
  11:/home/tienluong/workspace/atlantis_fw/platform/common/lightheader/src/vignetting_characterization.pb-c.c **** LIGHT_HEADER_FUNC void   ltpb__vignetting_characterization__crosstalk_model__init
  12:/home/tienluong/workspace/atlantis_fw/platform/common/lightheader/src/vignetting_characterization.pb-c.c ****                      (Ltpb__VignettingCharacterization__CrosstalkModel         *message)
  13:/home/tienluong/workspace/atlantis_fw/platform/common/lightheader/src/vignetting_characterization.pb-c.c **** {
  27              		.loc 1 13 0
  28              		.cfi_startproc
  29              		@ args = 0, pretend = 0, frame = 0
  30              		@ frame_needed = 0, uses_anonymous_args = 0
  31              	.LVL0:
  32 0000 30B5     		push	{r4, r5, lr}
  33              	.LCFI0:
  34              		.cfi_def_cfa_offset 12
  35              		.cfi_offset 4, -12
  36              		.cfi_offset 5, -8
  37              		.cfi_offset 14, -4
  14:/home/tienluong/workspace/atlantis_fw/platform/common/lightheader/src/vignetting_characterization.pb-c.c ****   static Ltpb__VignettingCharacterization__CrosstalkModel init_value = LTPB__VIGNETTING_CHARACTERIZ
  15:/home/tienluong/workspace/atlantis_fw/platform/common/lightheader/src/vignetting_characterization.pb-c.c ****   *message = init_value;
  38              		.loc 1 15 0
  39 0002 044D     		ldr	r5, .L2
  40 0004 0446     		mov	r4, r0
  41 0006 0FCD     		ldmia	r5!, {r0, r1, r2, r3}
  42              	.LVL1:
  43 0008 0FC4     		stmia	r4!, {r0, r1, r2, r3}
  44              	.LVL2:
  45 000a 0FCD     		ldmia	r5!, {r0, r1, r2, r3}
  46 000c 0FC4     		stmia	r4!, {r0, r1, r2, r3}
  47              	.LVL3:
  48 000e 2B68     		ldr	r3, [r5]
  49 0010 2360     		str	r3, [r4]
  50 0012 30BD     		pop	{r4, r5, pc}
  51              	.LVL4:
  52              	.L3:
  53              		.align	2
  54              	.L2:
  55 0014 00000000 		.word	.LANCHOR0
  56              		.cfi_endproc
  57              	.LFE1:
  59              		.section	.text.ltpb__vignetting_characterization__vignetting_model__init,"ax",%progbits
  60              		.align	1
  61              		.global	ltpb__vignetting_characterization__vignetting_model__init
  62              		.thumb
  63              		.thumb_func
  65              	ltpb__vignetting_characterization__vignetting_model__init:
  66              	.LFB2:
  16:/home/tienluong/workspace/atlantis_fw/platform/common/lightheader/src/vignetting_characterization.pb-c.c **** }
  17:/home/tienluong/workspace/atlantis_fw/platform/common/lightheader/src/vignetting_characterization.pb-c.c **** LIGHT_HEADER_FUNC void   ltpb__vignetting_characterization__vignetting_model__init
  18:/home/tienluong/workspace/atlantis_fw/platform/common/lightheader/src/vignetting_characterization.pb-c.c ****                      (Ltpb__VignettingCharacterization__VignettingModel         *message)
  19:/home/tienluong/workspace/atlantis_fw/platform/common/lightheader/src/vignetting_characterization.pb-c.c **** {
  67              		.loc 1 19 0
  68              		.cfi_startproc
  69              		@ args = 0, pretend = 0, frame = 0
  70              		@ frame_needed = 0, uses_anonymous_args = 0
  71              	.LVL5:
  72 0000 30B5     		push	{r4, r5, lr}
  73              	.LCFI1:
  74              		.cfi_def_cfa_offset 12
  75              		.cfi_offset 4, -12
  76              		.cfi_offset 5, -8
  77              		.cfi_offset 14, -4
  20:/home/tienluong/workspace/atlantis_fw/platform/common/lightheader/src/vignetting_characterization.pb-c.c ****   static Ltpb__VignettingCharacterization__VignettingModel init_value = LTPB__VIGNETTING_CHARACTERI
  21:/home/tienluong/workspace/atlantis_fw/platform/common/lightheader/src/vignetting_characterization.pb-c.c ****   *message = init_value;
  78              		.loc 1 21 0
  79 0002 044D     		ldr	r5, .L5
  80 0004 0446     		mov	r4, r0
  81 0006 0FCD     		ldmia	r5!, {r0, r1, r2, r3}
  82              	.LVL6:
  83 0008 0FC4     		stmia	r4!, {r0, r1, r2, r3}
  84              	.LVL7:
  85 000a 95E80700 		ldmia	r5, {r0, r1, r2}
  86 000e 84E80700 		stmia	r4, {r0, r1, r2}
  87 0012 30BD     		pop	{r4, r5, pc}
  88              	.LVL8:
  89              	.L6:
  90              		.align	2
  91              	.L5:
  92 0014 00000000 		.word	.LANCHOR1
  93              		.cfi_endproc
  94              	.LFE2:
  96              		.section	.text.ltpb__vignetting_characterization__mirror_vignetting_model__init,"ax",%progbits
  97              		.align	1
  98              		.global	ltpb__vignetting_characterization__mirror_vignetting_model__init
  99              		.thumb
 100              		.thumb_func
 102              	ltpb__vignetting_characterization__mirror_vignetting_model__init:
 103              	.LFB3:
  22:/home/tienluong/workspace/atlantis_fw/platform/common/lightheader/src/vignetting_characterization.pb-c.c **** }
  23:/home/tienluong/workspace/atlantis_fw/platform/common/lightheader/src/vignetting_characterization.pb-c.c **** LIGHT_HEADER_FUNC void   ltpb__vignetting_characterization__mirror_vignetting_model__init
  24:/home/tienluong/workspace/atlantis_fw/platform/common/lightheader/src/vignetting_characterization.pb-c.c ****                      (Ltpb__VignettingCharacterization__MirrorVignettingModel         *message)
  25:/home/tienluong/workspace/atlantis_fw/platform/common/lightheader/src/vignetting_characterization.pb-c.c **** {
 104              		.loc 1 25 0
 105              		.cfi_startproc
 106              		@ args = 0, pretend = 0, frame = 0
 107              		@ frame_needed = 0, uses_anonymous_args = 0
 108              	.LVL9:
 109 0000 30B5     		push	{r4, r5, lr}
 110              	.LCFI2:
 111              		.cfi_def_cfa_offset 12
 112              		.cfi_offset 4, -12
 113              		.cfi_offset 5, -8
 114              		.cfi_offset 14, -4
  26:/home/tienluong/workspace/atlantis_fw/platform/common/lightheader/src/vignetting_characterization.pb-c.c ****   static Ltpb__VignettingCharacterization__MirrorVignettingModel init_value = LTPB__VIGNETTING_CHAR
  27:/home/tienluong/workspace/atlantis_fw/platform/common/lightheader/src/vignetting_characterization.pb-c.c ****   *message = init_value;
 115              		.loc 1 27 0
 116 0002 034D     		ldr	r5, .L8
 117 0004 0446     		mov	r4, r0
 118 0006 0FCD     		ldmia	r5!, {r0, r1, r2, r3}
 119              	.LVL10:
 120 0008 0FC4     		stmia	r4!, {r0, r1, r2, r3}
 121              	.LVL11:
 122 000a 2B68     		ldr	r3, [r5]
 123 000c 2360     		str	r3, [r4]
 124 000e 30BD     		pop	{r4, r5, pc}
 125              	.LVL12:
 126              	.L9:
 127              		.align	2
 128              	.L8:
 129 0010 00000000 		.word	.LANCHOR2
 130              		.cfi_endproc
 131              	.LFE3:
 133              		.section	.text.ltpb__vignetting_characterization__init,"ax",%progbits
 134              		.align	1
 135              		.global	ltpb__vignetting_characterization__init
 136              		.thumb
 137              		.thumb_func
 139              	ltpb__vignetting_characterization__init:
 140              	.LFB4:
  28:/home/tienluong/workspace/atlantis_fw/platform/common/lightheader/src/vignetting_characterization.pb-c.c **** }
  29:/home/tienluong/workspace/atlantis_fw/platform/common/lightheader/src/vignetting_characterization.pb-c.c **** LIGHT_HEADER_FUNC void   ltpb__vignetting_characterization__init
  30:/home/tienluong/workspace/atlantis_fw/platform/common/lightheader/src/vignetting_characterization.pb-c.c ****                      (Ltpb__VignettingCharacterization         *message)
  31:/home/tienluong/workspace/atlantis_fw/platform/common/lightheader/src/vignetting_characterization.pb-c.c **** {
 141              		.loc 1 31 0
 142              		.cfi_startproc
 143              		@ args = 0, pretend = 0, frame = 0
 144              		@ frame_needed = 0, uses_anonymous_args = 0
 145              	.LVL13:
 146 0000 30B5     		push	{r4, r5, lr}
 147              	.LCFI3:
 148              		.cfi_def_cfa_offset 12
 149              		.cfi_offset 4, -12
 150              		.cfi_offset 5, -8
 151              		.cfi_offset 14, -4
  32:/home/tienluong/workspace/atlantis_fw/platform/common/lightheader/src/vignetting_characterization.pb-c.c ****   static Ltpb__VignettingCharacterization init_value = LTPB__VIGNETTING_CHARACTERIZATION__INIT;
  33:/home/tienluong/workspace/atlantis_fw/platform/common/lightheader/src/vignetting_characterization.pb-c.c ****   *message = init_value;
 152              		.loc 1 33 0
 153 0002 044D     		ldr	r5, .L11
 154 0004 0446     		mov	r4, r0
 155 0006 0FCD     		ldmia	r5!, {r0, r1, r2, r3}
 156              	.LVL14:
 157 0008 0FC4     		stmia	r4!, {r0, r1, r2, r3}
 158              	.LVL15:
 159 000a 95E80300 		ldmia	r5, {r0, r1}
 160 000e 84E80300 		stmia	r4, {r0, r1}
 161 0012 30BD     		pop	{r4, r5, pc}
 162              	.LVL16:
 163              	.L12:
 164              		.align	2
 165              	.L11:
 166 0014 00000000 		.word	.LANCHOR3
 167              		.cfi_endproc
 168              	.LFE4:
 170              		.section	.text.ltpb__vignetting_characterization__get_packed_size,"ax",%progbits
 171              		.align	1
 172              		.global	ltpb__vignetting_characterization__get_packed_size
 173              		.thumb
 174              		.thumb_func
 176              	ltpb__vignetting_characterization__get_packed_size:
 177              	.LFB5:
  34:/home/tienluong/workspace/atlantis_fw/platform/common/lightheader/src/vignetting_characterization.pb-c.c **** }
  35:/home/tienluong/workspace/atlantis_fw/platform/common/lightheader/src/vignetting_characterization.pb-c.c **** LIGHT_HEADER_FUNC size_t ltpb__vignetting_characterization__get_packed_size
  36:/home/tienluong/workspace/atlantis_fw/platform/common/lightheader/src/vignetting_characterization.pb-c.c ****                      (const Ltpb__VignettingCharacterization *message)
  37:/home/tienluong/workspace/atlantis_fw/platform/common/lightheader/src/vignetting_characterization.pb-c.c **** {
 178              		.loc 1 37 0
 179              		.cfi_startproc
 180              		@ args = 0, pretend = 0, frame = 0
 181              		@ frame_needed = 0, uses_anonymous_args = 0
 182              	.LVL17:
  38:/home/tienluong/workspace/atlantis_fw/platform/common/lightheader/src/vignetting_characterization.pb-c.c ****   assert(message->base.descriptor == &ltpb__vignetting_characterization__descriptor);
 183              		.loc 1 38 0
 184 0000 0268     		ldr	r2, [r0]
 185 0002 064B     		ldr	r3, .L16
  37:/home/tienluong/workspace/atlantis_fw/platform/common/lightheader/src/vignetting_characterization.pb-c.c ****   assert(message->base.descriptor == &ltpb__vignetting_characterization__descriptor);
 186              		.loc 1 37 0
 187 0004 10B5     		push	{r4, lr}
 188              	.LCFI4:
 189              		.cfi_def_cfa_offset 8
 190              		.cfi_offset 4, -8
 191              		.cfi_offset 14, -4
 192              		.loc 1 38 0
 193 0006 9A42     		cmp	r2, r3
  37:/home/tienluong/workspace/atlantis_fw/platform/common/lightheader/src/vignetting_characterization.pb-c.c ****   assert(message->base.descriptor == &ltpb__vignetting_characterization__descriptor);
 194              		.loc 1 37 0
 195 0008 0446     		mov	r4, r0
 196              		.loc 1 38 0
 197 000a 03D0     		beq	.L14
 198              		.loc 1 38 0 is_stmt 0 discriminator 1
 199 000c 0448     		ldr	r0, .L16+4
 200              	.LVL18:
 201 000e 2621     		movs	r1, #38
 202 0010 044B     		ldr	r3, .L16+8
 203 0012 9847     		blx	r3
 204              	.LVL19:
 205              	.L14:
  39:/home/tienluong/workspace/atlantis_fw/platform/common/lightheader/src/vignetting_characterization.pb-c.c ****   return protobuf_c_message_get_packed_size ((const ProtobufCMessage*)(message));
 206              		.loc 1 39 0 is_stmt 1
 207 0014 2046     		mov	r0, r4
 208 0016 044B     		ldr	r3, .L16+12
 209 0018 9847     		blx	r3
 210              	.LVL20:
  40:/home/tienluong/workspace/atlantis_fw/platform/common/lightheader/src/vignetting_characterization.pb-c.c **** }
 211              		.loc 1 40 0
 212 001a 10BD     		pop	{r4, pc}
 213              	.LVL21:
 214              	.L17:
 215              		.align	2
 216              	.L16:
 217 001c 00000000 		.word	.LANCHOR4
 218 0020 00000000 		.word	.LANCHOR5
 219 0024 00000000 		.word	assert_failed
 220 0028 00000000 		.word	protobuf_c_message_get_packed_size
 221              		.cfi_endproc
 222              	.LFE5:
 224              		.section	.text.ltpb__vignetting_characterization__pack,"ax",%progbits
 225              		.align	1
 226              		.global	ltpb__vignetting_characterization__pack
 227              		.thumb
 228              		.thumb_func
 230              	ltpb__vignetting_characterization__pack:
 231              	.LFB6:
  41:/home/tienluong/workspace/atlantis_fw/platform/common/lightheader/src/vignetting_characterization.pb-c.c **** LIGHT_HEADER_FUNC size_t ltpb__vignetting_characterization__pack
  42:/home/tienluong/workspace/atlantis_fw/platform/common/lightheader/src/vignetting_characterization.pb-c.c ****                      (const Ltpb__VignettingCharacterization *message,
  43:/home/tienluong/workspace/atlantis_fw/platform/common/lightheader/src/vignetting_characterization.pb-c.c ****                       uint8_t       *out)
  44:/home/tienluong/workspace/atlantis_fw/platform/common/lightheader/src/vignetting_characterization.pb-c.c **** {
 232              		.loc 1 44 0
 233              		.cfi_startproc
 234              		@ args = 0, pretend = 0, frame = 0
 235              		@ frame_needed = 0, uses_anonymous_args = 0
 236              	.LVL22:
 237 0000 38B5     		push	{r3, r4, r5, lr}
 238              	.LCFI5:
 239              		.cfi_def_cfa_offset 16
 240              		.cfi_offset 3, -16
 241              		.cfi_offset 4, -12
 242              		.cfi_offset 5, -8
 243              		.cfi_offset 14, -4
  45:/home/tienluong/workspace/atlantis_fw/platform/common/lightheader/src/vignetting_characterization.pb-c.c ****   assert(message->base.descriptor == &ltpb__vignetting_characterization__descriptor);
 244              		.loc 1 45 0
 245 0002 0268     		ldr	r2, [r0]
  44:/home/tienluong/workspace/atlantis_fw/platform/common/lightheader/src/vignetting_characterization.pb-c.c ****   assert(message->base.descriptor == &ltpb__vignetting_characterization__descriptor);
 246              		.loc 1 44 0
 247 0004 0446     		mov	r4, r0
 248              		.loc 1 45 0
 249 0006 064B     		ldr	r3, .L20
  44:/home/tienluong/workspace/atlantis_fw/platform/common/lightheader/src/vignetting_characterization.pb-c.c ****   assert(message->base.descriptor == &ltpb__vignetting_characterization__descriptor);
 250              		.loc 1 44 0
 251 0008 0D46     		mov	r5, r1
 252              		.loc 1 45 0
 253 000a 9A42     		cmp	r2, r3
 254 000c 03D0     		beq	.L19
 255              		.loc 1 45 0 is_stmt 0 discriminator 1
 256 000e 0548     		ldr	r0, .L20+4
 257              	.LVL23:
 258 0010 2D21     		movs	r1, #45
 259              	.LVL24:
 260 0012 054B     		ldr	r3, .L20+8
 261 0014 9847     		blx	r3
 262              	.LVL25:
 263              	.L19:
  46:/home/tienluong/workspace/atlantis_fw/platform/common/lightheader/src/vignetting_characterization.pb-c.c ****   return protobuf_c_message_pack ((const ProtobufCMessage*)message, out);
 264              		.loc 1 46 0 is_stmt 1
 265 0016 2046     		mov	r0, r4
 266 0018 2946     		mov	r1, r5
 267 001a 044B     		ldr	r3, .L20+12
 268 001c 9847     		blx	r3
 269              	.LVL26:
  47:/home/tienluong/workspace/atlantis_fw/platform/common/lightheader/src/vignetting_characterization.pb-c.c **** }
 270              		.loc 1 47 0
 271 001e 38BD     		pop	{r3, r4, r5, pc}
 272              	.LVL27:
 273              	.L21:
 274              		.align	2
 275              	.L20:
 276 0020 00000000 		.word	.LANCHOR4
 277 0024 00000000 		.word	.LANCHOR6
 278 0028 00000000 		.word	assert_failed
 279 002c 00000000 		.word	protobuf_c_message_pack
 280              		.cfi_endproc
 281              	.LFE6:
 283              		.section	.text.ltpb__vignetting_characterization__pack_to_buffer,"ax",%progbits
 284              		.align	1
 285              		.global	ltpb__vignetting_characterization__pack_to_buffer
 286              		.thumb
 287              		.thumb_func
 289              	ltpb__vignetting_characterization__pack_to_buffer:
 290              	.LFB7:
  48:/home/tienluong/workspace/atlantis_fw/platform/common/lightheader/src/vignetting_characterization.pb-c.c **** LIGHT_HEADER_FUNC size_t ltpb__vignetting_characterization__pack_to_buffer
  49:/home/tienluong/workspace/atlantis_fw/platform/common/lightheader/src/vignetting_characterization.pb-c.c ****                      (const Ltpb__VignettingCharacterization *message,
  50:/home/tienluong/workspace/atlantis_fw/platform/common/lightheader/src/vignetting_characterization.pb-c.c ****                       ProtobufCBuffer *buffer)
  51:/home/tienluong/workspace/atlantis_fw/platform/common/lightheader/src/vignetting_characterization.pb-c.c **** {
 291              		.loc 1 51 0
 292              		.cfi_startproc
 293              		@ args = 0, pretend = 0, frame = 0
 294              		@ frame_needed = 0, uses_anonymous_args = 0
 295              	.LVL28:
 296 0000 38B5     		push	{r3, r4, r5, lr}
 297              	.LCFI6:
 298              		.cfi_def_cfa_offset 16
 299              		.cfi_offset 3, -16
 300              		.cfi_offset 4, -12
 301              		.cfi_offset 5, -8
 302              		.cfi_offset 14, -4
  52:/home/tienluong/workspace/atlantis_fw/platform/common/lightheader/src/vignetting_characterization.pb-c.c ****   assert(message->base.descriptor == &ltpb__vignetting_characterization__descriptor);
 303              		.loc 1 52 0
 304 0002 0268     		ldr	r2, [r0]
  51:/home/tienluong/workspace/atlantis_fw/platform/common/lightheader/src/vignetting_characterization.pb-c.c ****   assert(message->base.descriptor == &ltpb__vignetting_characterization__descriptor);
 305              		.loc 1 51 0
 306 0004 0446     		mov	r4, r0
 307              		.loc 1 52 0
 308 0006 064B     		ldr	r3, .L24
  51:/home/tienluong/workspace/atlantis_fw/platform/common/lightheader/src/vignetting_characterization.pb-c.c ****   assert(message->base.descriptor == &ltpb__vignetting_characterization__descriptor);
 309              		.loc 1 51 0
 310 0008 0D46     		mov	r5, r1
 311              		.loc 1 52 0
 312 000a 9A42     		cmp	r2, r3
 313 000c 03D0     		beq	.L23
 314              		.loc 1 52 0 is_stmt 0 discriminator 1
 315 000e 0548     		ldr	r0, .L24+4
 316              	.LVL29:
 317 0010 3421     		movs	r1, #52
 318              	.LVL30:
 319 0012 054B     		ldr	r3, .L24+8
 320 0014 9847     		blx	r3
 321              	.LVL31:
 322              	.L23:
  53:/home/tienluong/workspace/atlantis_fw/platform/common/lightheader/src/vignetting_characterization.pb-c.c ****   return protobuf_c_message_pack_to_buffer ((const ProtobufCMessage*)message, buffer);
 323              		.loc 1 53 0 is_stmt 1
 324 0016 2046     		mov	r0, r4
 325 0018 2946     		mov	r1, r5
 326 001a 044B     		ldr	r3, .L24+12
 327 001c 9847     		blx	r3
 328              	.LVL32:
  54:/home/tienluong/workspace/atlantis_fw/platform/common/lightheader/src/vignetting_characterization.pb-c.c **** }
 329              		.loc 1 54 0
 330 001e 38BD     		pop	{r3, r4, r5, pc}
 331              	.LVL33:
 332              	.L25:
 333              		.align	2
 334              	.L24:
 335 0020 00000000 		.word	.LANCHOR4
 336 0024 00000000 		.word	.LANCHOR7
 337 0028 00000000 		.word	assert_failed
 338 002c 00000000 		.word	protobuf_c_message_pack_to_buffer
 339              		.cfi_endproc
 340              	.LFE7:
 342              		.section	.text.ltpb__vignetting_characterization__unpack,"ax",%progbits
 343              		.align	1
 344              		.global	ltpb__vignetting_characterization__unpack
 345              		.thumb
 346              		.thumb_func
 348              	ltpb__vignetting_characterization__unpack:
 349              	.LFB8:
  55:/home/tienluong/workspace/atlantis_fw/platform/common/lightheader/src/vignetting_characterization.pb-c.c **** LIGHT_HEADER_FUNC Ltpb__VignettingCharacterization *
  56:/home/tienluong/workspace/atlantis_fw/platform/common/lightheader/src/vignetting_characterization.pb-c.c ****        ltpb__vignetting_characterization__unpack
  57:/home/tienluong/workspace/atlantis_fw/platform/common/lightheader/src/vignetting_characterization.pb-c.c ****                      (ProtobufCAllocator  *allocator,
  58:/home/tienluong/workspace/atlantis_fw/platform/common/lightheader/src/vignetting_characterization.pb-c.c ****                       size_t               len,
  59:/home/tienluong/workspace/atlantis_fw/platform/common/lightheader/src/vignetting_characterization.pb-c.c ****                       const uint8_t       *data)
  60:/home/tienluong/workspace/atlantis_fw/platform/common/lightheader/src/vignetting_characterization.pb-c.c **** {
 350              		.loc 1 60 0
 351              		.cfi_startproc
 352              		@ args = 0, pretend = 0, frame = 0
 353              		@ frame_needed = 0, uses_anonymous_args = 0
 354              	.LVL34:
 355 0000 38B5     		push	{r3, r4, r5, lr}
 356              	.LCFI7:
 357              		.cfi_def_cfa_offset 16
 358              		.cfi_offset 3, -16
 359              		.cfi_offset 4, -12
 360              		.cfi_offset 5, -8
 361              		.cfi_offset 14, -4
 362              		.loc 1 60 0
 363 0002 0546     		mov	r5, r0
 364 0004 0C46     		mov	r4, r1
 365 0006 1346     		mov	r3, r2
  61:/home/tienluong/workspace/atlantis_fw/platform/common/lightheader/src/vignetting_characterization.pb-c.c ****   return (Ltpb__VignettingCharacterization *)
 366              		.loc 1 61 0
 367 0008 2946     		mov	r1, r5
 368              	.LVL35:
 369 000a 2246     		mov	r2, r4
 370              	.LVL36:
 371 000c 0148     		ldr	r0, .L27
 372              	.LVL37:
 373 000e 024C     		ldr	r4, .L27+4
 374              	.LVL38:
 375 0010 A047     		blx	r4
 376              	.LVL39:
  62:/home/tienluong/workspace/atlantis_fw/platform/common/lightheader/src/vignetting_characterization.pb-c.c ****      protobuf_c_message_unpack (&ltpb__vignetting_characterization__descriptor,
  63:/home/tienluong/workspace/atlantis_fw/platform/common/lightheader/src/vignetting_characterization.pb-c.c ****                                 allocator, len, data);
  64:/home/tienluong/workspace/atlantis_fw/platform/common/lightheader/src/vignetting_characterization.pb-c.c **** }
 377              		.loc 1 64 0
 378 0012 38BD     		pop	{r3, r4, r5, pc}
 379              	.LVL40:
 380              	.L28:
 381              		.align	2
 382              	.L27:
 383 0014 00000000 		.word	.LANCHOR4
 384 0018 00000000 		.word	protobuf_c_message_unpack
 385              		.cfi_endproc
 386              	.LFE8:
 388              		.section	.text.ltpb__vignetting_characterization__free_unpacked,"ax",%progbits
 389              		.align	1
 390              		.global	ltpb__vignetting_characterization__free_unpacked
 391              		.thumb
 392              		.thumb_func
 394              	ltpb__vignetting_characterization__free_unpacked:
 395              	.LFB9:
  65:/home/tienluong/workspace/atlantis_fw/platform/common/lightheader/src/vignetting_characterization.pb-c.c **** LIGHT_HEADER_FUNC void   ltpb__vignetting_characterization__free_unpacked
  66:/home/tienluong/workspace/atlantis_fw/platform/common/lightheader/src/vignetting_characterization.pb-c.c ****                      (Ltpb__VignettingCharacterization *message,
  67:/home/tienluong/workspace/atlantis_fw/platform/common/lightheader/src/vignetting_characterization.pb-c.c ****                       ProtobufCAllocator *allocator)
  68:/home/tienluong/workspace/atlantis_fw/platform/common/lightheader/src/vignetting_characterization.pb-c.c **** {
 396              		.loc 1 68 0
 397              		.cfi_startproc
 398              		@ args = 0, pretend = 0, frame = 0
 399              		@ frame_needed = 0, uses_anonymous_args = 0
 400              	.LVL41:
 401 0000 38B5     		push	{r3, r4, r5, lr}
 402              	.LCFI8:
 403              		.cfi_def_cfa_offset 16
 404              		.cfi_offset 3, -16
 405              		.cfi_offset 4, -12
 406              		.cfi_offset 5, -8
 407              		.cfi_offset 14, -4
  69:/home/tienluong/workspace/atlantis_fw/platform/common/lightheader/src/vignetting_characterization.pb-c.c ****   assert(message->base.descriptor == &ltpb__vignetting_characterization__descriptor);
 408              		.loc 1 69 0
 409 0002 0268     		ldr	r2, [r0]
  68:/home/tienluong/workspace/atlantis_fw/platform/common/lightheader/src/vignetting_characterization.pb-c.c ****   assert(message->base.descriptor == &ltpb__vignetting_characterization__descriptor);
 410              		.loc 1 68 0
 411 0004 0446     		mov	r4, r0
 412              		.loc 1 69 0
 413 0006 064B     		ldr	r3, .L31
  68:/home/tienluong/workspace/atlantis_fw/platform/common/lightheader/src/vignetting_characterization.pb-c.c ****   assert(message->base.descriptor == &ltpb__vignetting_characterization__descriptor);
 414              		.loc 1 68 0
 415 0008 0D46     		mov	r5, r1
 416              		.loc 1 69 0
 417 000a 9A42     		cmp	r2, r3
 418 000c 03D0     		beq	.L30
 419              		.loc 1 69 0 is_stmt 0 discriminator 1
 420 000e 0548     		ldr	r0, .L31+4
 421              	.LVL42:
 422 0010 4521     		movs	r1, #69
 423              	.LVL43:
 424 0012 054B     		ldr	r3, .L31+8
 425 0014 9847     		blx	r3
 426              	.LVL44:
 427              	.L30:
  70:/home/tienluong/workspace/atlantis_fw/platform/common/lightheader/src/vignetting_characterization.pb-c.c ****   protobuf_c_message_free_unpacked ((ProtobufCMessage*)message, allocator);
 428              		.loc 1 70 0 is_stmt 1
 429 0016 2046     		mov	r0, r4
 430 0018 2946     		mov	r1, r5
 431 001a 044B     		ldr	r3, .L31+12
 432 001c 9847     		blx	r3
 433              	.LVL45:
 434 001e 38BD     		pop	{r3, r4, r5, pc}
 435              	.LVL46:
 436              	.L32:
 437              		.align	2
 438              	.L31:
 439 0020 00000000 		.word	.LANCHOR4
 440 0024 00000000 		.word	.LANCHOR8
 441 0028 00000000 		.word	assert_failed
 442 002c 00000000 		.word	protobuf_c_message_free_unpacked
 443              		.cfi_endproc
 444              	.LFE9:
 446              		.global	ltpb__vignetting_characterization__descriptor
 447              		.global	ltpb__vignetting_characterization__mirror_vignetting_model__descriptor
 448              		.global	ltpb__vignetting_characterization__vignetting_model__descriptor
 449              		.global	ltpb__vignetting_characterization__crosstalk_model__descriptor
 450              		.section	.rodata.ltpb__vignetting_characterization__vignetting_model__number_ranges,"a",%progbits
 451              		.align	2
 454              	ltpb__vignetting_characterization__vignetting_model__number_ranges:
 455 0000 01000000 		.word	1
 456 0004 00000000 		.word	0
 457 0008 00000000 		.word	0
 458 000c 03000000 		.word	3
 459              		.section	.rodata.init_value.6506,"a",%progbits
 460              		.align	2
 461              		.set	.LANCHOR0,. + 0
 464              	init_value.6506:
 465 0000 00000000 		.word	ltpb__vignetting_characterization__crosstalk_model__descriptor
 466 0004 00000000 		.word	0
 467 0008 00000000 		.word	0
 468 000c 00000000 		.word	0
 469 0010 00000000 		.word	0
 470 0014 00000000 		.word	0
 471 0018 00000000 		.word	0
 472 001c 00000000 		.word	0
 473 0020 00000000 		.word	0
 474              		.section	.rodata.ltpb__vignetting_characterization__vignetting_model__field_indices_by_name,"a",%p
 475              		.align	2
 478              	ltpb__vignetting_characterization__vignetting_model__field_indices_by_name:
 479 0000 02000000 		.word	2
 480 0004 01000000 		.word	1
 481 0008 00000000 		.word	0
 482              		.section	.rodata.ltpb__vignetting_characterization__crosstalk_model__number_ranges,"a",%progbits
 483              		.align	2
 486              	ltpb__vignetting_characterization__crosstalk_model__number_ranges:
 487 0000 01000000 		.word	1
 488 0004 00000000 		.word	0
 489 0008 00000000 		.word	0
 490 000c 04000000 		.word	4
 491              		.section	.rodata.ltpb__vignetting_characterization__mirror_vignetting_model__number_ranges,"a",%pr
 492              		.align	2
 495              	ltpb__vignetting_characterization__mirror_vignetting_model__number_ranges:
 496 0000 01000000 		.word	1
 497 0004 00000000 		.word	0
 498 0008 00000000 		.word	0
 499 000c 02000000 		.word	2
 500              		.section	.rodata.ltpb__vignetting_characterization__descriptor,"a",%progbits
 501              		.align	2
 502              		.set	.LANCHOR4,. + 0
 505              	ltpb__vignetting_characterization__descriptor:
 506 0000 F9EEAA28 		.word	682290937
 507 0004 00000000 		.word	.LC0
 508 0008 20000000 		.word	.LC1
 509 000c 3B000000 		.word	.LC2
 510 0010 5C000000 		.word	.LC3
 511 0014 18000000 		.word	24
 512 0018 02000000 		.word	2
 513 001c 00000000 		.word	ltpb__vignetting_characterization__field_descriptors
 514 0020 00000000 		.word	ltpb__vignetting_characterization__field_indices_by_name
 515 0024 01000000 		.word	1
 516 0028 00000000 		.word	ltpb__vignetting_characterization__number_ranges
 517 002c 00000000 		.word	ltpb__vignetting_characterization__init
 518 0030 00000000 		.word	0
 519 0034 00000000 		.word	0
 520 0038 00000000 		.word	0
 521              		.section	.rodata.init_value.6510,"a",%progbits
 522              		.align	2
 523              		.set	.LANCHOR1,. + 0
 526              	init_value.6510:
 527 0000 00000000 		.word	ltpb__vignetting_characterization__vignetting_model__descriptor
 528 0004 00000000 		.word	0
 529 0008 00000000 		.word	0
 530 000c 00000000 		.word	0
 531 0010 00000000 		.word	0
 532 0014 00000000 		.word	0
 533 0018 00000000 		.word	0
 534              		.section	.rodata.ltpb__vignetting_characterization__vignetting_model__descriptor,"a",%progbits
 535              		.align	2
 538              	ltpb__vignetting_characterization__vignetting_model__descriptor:
 539 0000 F9EEAA28 		.word	682290937
 540 0004 04010000 		.word	.LC10
 541 0008 34010000 		.word	.LC11
 542 000c 44010000 		.word	.LC12
 543 0010 5C000000 		.word	.LC3
 544 0014 1C000000 		.word	28
 545 0018 03000000 		.word	3
 546 001c 00000000 		.word	ltpb__vignetting_characterization__vignetting_model__field_descriptors
 547 0020 00000000 		.word	ltpb__vignetting_characterization__vignetting_model__field_indices_by_name
 548 0024 01000000 		.word	1
 549 0028 00000000 		.word	ltpb__vignetting_characterization__vignetting_model__number_ranges
 550 002c 00000000 		.word	ltpb__vignetting_characterization__vignetting_model__init
 551 0030 00000000 		.word	0
 552 0034 00000000 		.word	0
 553 0038 00000000 		.word	0
 554              		.section	.rodata.init_value.6518,"a",%progbits
 555              		.align	2
 556              		.set	.LANCHOR3,. + 0
 559              	init_value.6518:
 560 0000 00000000 		.word	ltpb__vignetting_characterization__descriptor
 561 0004 00000000 		.word	0
 562 0008 00000000 		.word	0
 563 000c 00000000 		.word	0
 564 0010 00000000 		.word	0
 565 0014 00000000 		.word	0
 566              		.section	.rodata.ltpb__vignetting_characterization__number_ranges,"a",%progbits
 567              		.align	2
 570              	ltpb__vignetting_characterization__number_ranges:
 571 0000 01000000 		.word	1
 572 0004 00000000 		.word	0
 573 0008 00000000 		.word	0
 574 000c 02000000 		.word	2
 575              		.section	.rodata.str1.1,"aMS",%progbits,1
 576              	.LC0:
 577 0000 6C747062 		.ascii	"ltpb.VignettingCharacterization\000"
 577      2E566967 
 577      6E657474 
 577      696E6743 
 577      68617261 
 578              	.LC1:
 579 0020 5669676E 		.ascii	"VignettingCharacterization\000"
 579      65747469 
 579      6E674368 
 579      61726163 
 579      74657269 
 580              	.LC2:
 581 003b 4C747062 		.ascii	"Ltpb__VignettingCharacterization\000"
 581      5F5F5669 
 581      676E6574 
 581      74696E67 
 581      43686172 
 582              	.LC3:
 583 005c 6C747062 		.ascii	"ltpb\000"
 583      00
 584              	.LC4:
 585 0061 63726F73 		.ascii	"crosstalk\000"
 585      7374616C 
 585      6B00
 586              	.LC5:
 587 006b 7669676E 		.ascii	"vignetting\000"
 587      65747469 
 587      6E6700
 588              	.LC6:
 589 0076 6C747062 		.ascii	"ltpb.VignettingCharacterization.MirrorVignettingMod"
 589      2E566967 
 589      6E657474 
 589      696E6743 
 589      68617261 
 590 00a9 656C00   		.ascii	"el\000"
 591              	.LC7:
 592 00ac 4D697272 		.ascii	"MirrorVignettingModel\000"
 592      6F725669 
 592      676E6574 
 592      74696E67 
 592      4D6F6465 
 593              	.LC8:
 594 00c2 4C747062 		.ascii	"Ltpb__VignettingCharacterization__MirrorVignettingM"
 594      5F5F5669 
 594      676E6574 
 594      74696E67 
 594      43686172 
 595 00f5 6F64656C 		.ascii	"odel\000"
 595      00
 596              	.LC9:
 597 00fa 68616C6C 		.ascii	"hall_code\000"
 597      5F636F64 
 597      6500
 598              	.LC10:
 599 0104 6C747062 		.ascii	"ltpb.VignettingCharacterization.VignettingModel\000"
 599      2E566967 
 599      6E657474 
 599      696E6743 
 599      68617261 
 600              	.LC11:
 601 0134 5669676E 		.ascii	"VignettingModel\000"
 601      65747469 
 601      6E674D6F 
 601      64656C00 
 602              	.LC12:
 603 0144 4C747062 		.ascii	"Ltpb__VignettingCharacterization__VignettingModel\000"
 603      5F5F5669 
 603      676E6574 
 603      74696E67 
 603      43686172 
 604              	.LC13:
 605 0176 77696474 		.ascii	"width\000"
 605      6800
 606              	.LC14:
 607 017c 68656967 		.ascii	"height\000"
 607      687400
 608              	.LC15:
 609 0183 64617461 		.ascii	"data\000"
 609      00
 610              	.LC16:
 611 0188 6C747062 		.ascii	"ltpb.VignettingCharacterization.CrosstalkModel\000"
 611      2E566967 
 611      6E657474 
 611      696E6743 
 611      68617261 
 612              	.LC17:
 613 01b7 43726F73 		.ascii	"CrosstalkModel\000"
 613      7374616C 
 613      6B4D6F64 
 613      656C00
 614              	.LC18:
 615 01c6 4C747062 		.ascii	"Ltpb__VignettingCharacterization__CrosstalkModel\000"
 615      5F5F5669 
 615      676E6574 
 615      74696E67 
 615      43686172 
 616              	.LC19:
 617 01f7 64617461 		.ascii	"data_packed\000"
 617      5F706163 
 617      6B656400 
 618              		.section	.rodata.ltpb__vignetting_characterization__crosstalk_model__field_indices_by_name,"a",%pr
 619              		.align	2
 622              	ltpb__vignetting_characterization__crosstalk_model__field_indices_by_name:
 623 0000 02000000 		.word	2
 624 0004 03000000 		.word	3
 625 0008 01000000 		.word	1
 626 000c 00000000 		.word	0
 627              		.section	.rodata.ltpb__vignetting_characterization__vignetting_model__field_descriptors,"a",%progb
 628              		.align	2
 631              	ltpb__vignetting_characterization__vignetting_model__field_descriptors:
 632 0000 76010000 		.word	.LC13
 633 0004 01000000 		.word	1
 634 0008 00       		.byte	0
 635 0009 06       		.byte	6
 636 000a 0000     		.space	2
 637 000c 00000000 		.word	0
 638 0010 0C000000 		.word	12
 639 0014 00000000 		.word	0
 640 0018 00000000 		.word	0
 641 001c 00000000 		.word	0
 642 0020 00000000 		.word	0
 643 0024 00000000 		.word	0
 644 0028 00000000 		.word	0
 645 002c 7C010000 		.word	.LC14
 646 0030 02000000 		.word	2
 647 0034 00       		.byte	0
 648 0035 06       		.byte	6
 649 0036 0000     		.space	2
 650 0038 00000000 		.word	0
 651 003c 10000000 		.word	16
 652 0040 00000000 		.word	0
 653 0044 00000000 		.word	0
 654 0048 00000000 		.word	0
 655 004c 00000000 		.word	0
 656 0050 00000000 		.word	0
 657 0054 00000000 		.word	0
 658 0058 83010000 		.word	.LC15
 659 005c 03000000 		.word	3
 660 0060 02       		.byte	2
 661 0061 0A       		.byte	10
 662 0062 0000     		.space	2
 663 0064 14000000 		.word	20
 664 0068 18000000 		.word	24
 665 006c 00000000 		.word	0
 666 0070 00000000 		.word	0
 667 0074 01000000 		.word	1
 668 0078 00000000 		.word	0
 669 007c 00000000 		.word	0
 670 0080 00000000 		.word	0
 671              		.section	.rodata.__FUNCTION__.6522,"a",%progbits
 672              		.set	.LANCHOR5,. + 0
 675              	__FUNCTION__.6522:
 676 0000 6C747062 		.ascii	"ltpb__vignetting_characterization__get_packed_size\000"
 676      5F5F7669 
 676      676E6574 
 676      74696E67 
 676      5F636861 
 677              		.section	.rodata.ltpb__vignetting_characterization__crosstalk_model__descriptor,"a",%progbits
 678              		.align	2
 681              	ltpb__vignetting_characterization__crosstalk_model__descriptor:
 682 0000 F9EEAA28 		.word	682290937
 683 0004 88010000 		.word	.LC16
 684 0008 B7010000 		.word	.LC17
 685 000c C6010000 		.word	.LC18
 686 0010 5C000000 		.word	.LC3
 687 0014 24000000 		.word	36
 688 0018 04000000 		.word	4
 689 001c 00000000 		.word	ltpb__vignetting_characterization__crosstalk_model__field_descriptors
 690 0020 00000000 		.word	ltpb__vignetting_characterization__crosstalk_model__field_indices_by_name
 691 0024 01000000 		.word	1
 692 0028 00000000 		.word	ltpb__vignetting_characterization__crosstalk_model__number_ranges
 693 002c 00000000 		.word	ltpb__vignetting_characterization__crosstalk_model__init
 694 0030 00000000 		.word	0
 695 0034 00000000 		.word	0
 696 0038 00000000 		.word	0
 697              		.section	.rodata.__FUNCTION__.6527,"a",%progbits
 698              		.set	.LANCHOR6,. + 0
 701              	__FUNCTION__.6527:
 702 0000 6C747062 		.ascii	"ltpb__vignetting_characterization__pack\000"
 702      5F5F7669 
 702      676E6574 
 702      74696E67 
 702      5F636861 
 703              		.section	.rodata.__FUNCTION__.6532,"a",%progbits
 704              		.set	.LANCHOR7,. + 0
 707              	__FUNCTION__.6532:
 708 0000 6C747062 		.ascii	"ltpb__vignetting_characterization__pack_to_buffer\000"
 708      5F5F7669 
 708      676E6574 
 708      74696E67 
 708      5F636861 
 709              		.section	.rodata.init_value.6514,"a",%progbits
 710              		.align	2
 711              		.set	.LANCHOR2,. + 0
 714              	init_value.6514:
 715 0000 00000000 		.word	ltpb__vignetting_characterization__mirror_vignetting_model__descriptor
 716 0004 00000000 		.word	0
 717 0008 00000000 		.word	0
 718 000c 00000000 		.word	0
 719 0010 00000000 		.word	0
 720              		.section	.rodata.ltpb__vignetting_characterization__mirror_vignetting_model__field_descriptors,"a"
 721              		.align	2
 724              	ltpb__vignetting_characterization__mirror_vignetting_model__field_descriptors:
 725 0000 FA000000 		.word	.LC9
 726 0004 01000000 		.word	1
 727 0008 00       		.byte	0
 728 0009 00       		.byte	0
 729 000a 0000     		.space	2
 730 000c 00000000 		.word	0
 731 0010 0C000000 		.word	12
 732 0014 00000000 		.word	0
 733 0018 00000000 		.word	0
 734 001c 00000000 		.word	0
 735 0020 00000000 		.word	0
 736 0024 00000000 		.word	0
 737 0028 00000000 		.word	0
 738 002c 6B000000 		.word	.LC5
 739 0030 02000000 		.word	2
 740 0034 00       		.byte	0
 741 0035 10       		.byte	16
 742 0036 0000     		.space	2
 743 0038 00000000 		.word	0
 744 003c 10000000 		.word	16
 745 0040 00000000 		.word	ltpb__vignetting_characterization__vignetting_model__descriptor
 746 0044 00000000 		.word	0
 747 0048 00000000 		.word	0
 748 004c 00000000 		.word	0
 749 0050 00000000 		.word	0
 750 0054 00000000 		.word	0
 751              		.section	.rodata.__FUNCTION__.6542,"a",%progbits
 752              		.set	.LANCHOR8,. + 0
 755              	__FUNCTION__.6542:
 756 0000 6C747062 		.ascii	"ltpb__vignetting_characterization__free_unpacked\000"
 756      5F5F7669 
 756      676E6574 
 756      74696E67 
 756      5F636861 
 757              		.section	.rodata.ltpb__vignetting_characterization__field_descriptors,"a",%progbits
 758              		.align	2
 761              	ltpb__vignetting_characterization__field_descriptors:
 762 0000 61000000 		.word	.LC4
 763 0004 01000000 		.word	1
 764 0008 00       		.byte	0
 765 0009 10       		.byte	16
 766 000a 0000     		.space	2
 767 000c 00000000 		.word	0
 768 0010 0C000000 		.word	12
 769 0014 00000000 		.word	ltpb__vignetting_characterization__crosstalk_model__descriptor
 770 0018 00000000 		.word	0
 771 001c 00000000 		.word	0
 772 0020 00000000 		.word	0
 773 0024 00000000 		.word	0
 774 0028 00000000 		.word	0
 775 002c 6B000000 		.word	.LC5
 776 0030 02000000 		.word	2
 777 0034 02       		.byte	2
 778 0035 10       		.byte	16
 779 0036 0000     		.space	2
 780 0038 10000000 		.word	16
 781 003c 14000000 		.word	20
 782 0040 00000000 		.word	ltpb__vignetting_characterization__mirror_vignetting_model__descriptor
 783 0044 00000000 		.word	0
 784 0048 00000000 		.word	0
 785 004c 00000000 		.word	0
 786 0050 00000000 		.word	0
 787 0054 00000000 		.word	0
 788              		.section	.rodata.ltpb__vignetting_characterization__crosstalk_model__field_descriptors,"a",%progbi
 789              		.align	2
 792              	ltpb__vignetting_characterization__crosstalk_model__field_descriptors:
 793 0000 76010000 		.word	.LC13
 794 0004 01000000 		.word	1
 795 0008 00       		.byte	0
 796 0009 06       		.byte	6
 797 000a 0000     		.space	2
 798 000c 00000000 		.word	0
 799 0010 0C000000 		.word	12
 800 0014 00000000 		.word	0
 801 0018 00000000 		.word	0
 802 001c 00000000 		.word	0
 803 0020 00000000 		.word	0
 804 0024 00000000 		.word	0
 805 0028 00000000 		.word	0
 806 002c 7C010000 		.word	.LC14
 807 0030 02000000 		.word	2
 808 0034 00       		.byte	0
 809 0035 06       		.byte	6
 810 0036 0000     		.space	2
 811 0038 00000000 		.word	0
 812 003c 10000000 		.word	16
 813 0040 00000000 		.word	0
 814 0044 00000000 		.word	0
 815 0048 00000000 		.word	0
 816 004c 00000000 		.word	0
 817 0050 00000000 		.word	0
 818 0054 00000000 		.word	0
 819 0058 83010000 		.word	.LC15
 820 005c 03000000 		.word	3
 821 0060 02       		.byte	2
 822 0061 10       		.byte	16
 823 0062 0000     		.space	2
 824 0064 14000000 		.word	20
 825 0068 18000000 		.word	24
 826 006c 00000000 		.word	ltpb__matrix4x4_f__descriptor
 827 0070 00000000 		.word	0
 828 0074 00000000 		.word	0
 829 0078 00000000 		.word	0
 830 007c 00000000 		.word	0
 831 0080 00000000 		.word	0
 832 0084 F7010000 		.word	.LC19
 833 0088 04000000 		.word	4
 834 008c 02       		.byte	2
 835 008d 0A       		.byte	10
 836 008e 0000     		.space	2
 837 0090 1C000000 		.word	28
 838 0094 20000000 		.word	32
 839 0098 00000000 		.word	0
 840 009c 00000000 		.word	0
 841 00a0 01000000 		.word	1
 842 00a4 00000000 		.word	0
 843 00a8 00000000 		.word	0
 844 00ac 00000000 		.word	0
 845              		.section	.rodata.ltpb__vignetting_characterization__mirror_vignetting_model__descriptor,"a",%progb
 846              		.align	2
 849              	ltpb__vignetting_characterization__mirror_vignetting_model__descriptor:
 850 0000 F9EEAA28 		.word	682290937
 851 0004 76000000 		.word	.LC6
 852 0008 AC000000 		.word	.LC7
 853 000c C2000000 		.word	.LC8
 854 0010 5C000000 		.word	.LC3
 855 0014 14000000 		.word	20
 856 0018 02000000 		.word	2
 857 001c 00000000 		.word	ltpb__vignetting_characterization__mirror_vignetting_model__field_descriptors
 858 0020 00000000 		.word	ltpb__vignetting_characterization__mirror_vignetting_model__field_indices_by_name
 859 0024 01000000 		.word	1
 860 0028 00000000 		.word	ltpb__vignetting_characterization__mirror_vignetting_model__number_ranges
 861 002c 00000000 		.word	ltpb__vignetting_characterization__mirror_vignetting_model__init
 862 0030 00000000 		.word	0
 863 0034 00000000 		.word	0
 864 0038 00000000 		.word	0
 865              		.section	.rodata.ltpb__vignetting_characterization__mirror_vignetting_model__field_indices_by_name
 866              		.align	2
 869              	ltpb__vignetting_characterization__mirror_vignetting_model__field_indices_by_name:
 870 0000 00000000 		.word	0
 871 0004 01000000 		.word	1
 872              		.section	.rodata.ltpb__vignetting_characterization__field_indices_by_name,"a",%progbits
 873              		.align	2
 876              	ltpb__vignetting_characterization__field_indices_by_name:
 877 0000 00000000 		.word	0
 878 0004 01000000 		.word	1
 879              		.text
 880              	.Letext0:
 881              		.file 2 "/opt/toolchains/gcc-arm-none-eabi-4_9-2015q1/arm-none-eabi/include/machine/_default_types
 882              		.file 3 "/opt/toolchains/gcc-arm-none-eabi-4_9-2015q1/lib/gcc/arm-none-eabi/4.9.3/include/stddef.h
 883              		.file 4 "/opt/toolchains/gcc-arm-none-eabi-4_9-2015q1/arm-none-eabi/include/stdint.h"
 884              		.file 5 "/home/tienluong/workspace/atlantis_fw/platform/os/Source/portable/GCC/cortex-r4/portmacro
 885              		.file 6 "/home/tienluong/workspace/atlantis_fw/platform/common/lightheader/include/protobuf-c/prot
 886              		.file 7 "/home/tienluong/workspace/atlantis_fw/platform/common/lightheader/include/matrix4x4f.pb-c
 887              		.file 8 "/home/tienluong/workspace/atlantis_fw/platform/common/lightheader/include/vignetting_char
DEFINED SYMBOLS
                            *ABS*:00000000 vignetting_characterization.pb-c.c
     /tmp/ccsBnvoD.s:19     .text.ltpb__vignetting_characterization__crosstalk_model__init:00000000 $t
     /tmp/ccsBnvoD.s:24     .text.ltpb__vignetting_characterization__crosstalk_model__init:00000000 ltpb__vignetting_characterization__crosstalk_model__init
     /tmp/ccsBnvoD.s:55     .text.ltpb__vignetting_characterization__crosstalk_model__init:00000014 $d
     /tmp/ccsBnvoD.s:60     .text.ltpb__vignetting_characterization__vignetting_model__init:00000000 $t
     /tmp/ccsBnvoD.s:65     .text.ltpb__vignetting_characterization__vignetting_model__init:00000000 ltpb__vignetting_characterization__vignetting_model__init
     /tmp/ccsBnvoD.s:92     .text.ltpb__vignetting_characterization__vignetting_model__init:00000014 $d
     /tmp/ccsBnvoD.s:97     .text.ltpb__vignetting_characterization__mirror_vignetting_model__init:00000000 $t
     /tmp/ccsBnvoD.s:102    .text.ltpb__vignetting_characterization__mirror_vignetting_model__init:00000000 ltpb__vignetting_characterization__mirror_vignetting_model__init
     /tmp/ccsBnvoD.s:129    .text.ltpb__vignetting_characterization__mirror_vignetting_model__init:00000010 $d
     /tmp/ccsBnvoD.s:134    .text.ltpb__vignetting_characterization__init:00000000 $t
     /tmp/ccsBnvoD.s:139    .text.ltpb__vignetting_characterization__init:00000000 ltpb__vignetting_characterization__init
     /tmp/ccsBnvoD.s:166    .text.ltpb__vignetting_characterization__init:00000014 $d
     /tmp/ccsBnvoD.s:171    .text.ltpb__vignetting_characterization__get_packed_size:00000000 $t
     /tmp/ccsBnvoD.s:176    .text.ltpb__vignetting_characterization__get_packed_size:00000000 ltpb__vignetting_characterization__get_packed_size
     /tmp/ccsBnvoD.s:217    .text.ltpb__vignetting_characterization__get_packed_size:0000001c $d
     /tmp/ccsBnvoD.s:225    .text.ltpb__vignetting_characterization__pack:00000000 $t
     /tmp/ccsBnvoD.s:230    .text.ltpb__vignetting_characterization__pack:00000000 ltpb__vignetting_characterization__pack
     /tmp/ccsBnvoD.s:276    .text.ltpb__vignetting_characterization__pack:00000020 $d
     /tmp/ccsBnvoD.s:284    .text.ltpb__vignetting_characterization__pack_to_buffer:00000000 $t
     /tmp/ccsBnvoD.s:289    .text.ltpb__vignetting_characterization__pack_to_buffer:00000000 ltpb__vignetting_characterization__pack_to_buffer
     /tmp/ccsBnvoD.s:335    .text.ltpb__vignetting_characterization__pack_to_buffer:00000020 $d
     /tmp/ccsBnvoD.s:343    .text.ltpb__vignetting_characterization__unpack:00000000 $t
     /tmp/ccsBnvoD.s:348    .text.ltpb__vignetting_characterization__unpack:00000000 ltpb__vignetting_characterization__unpack
     /tmp/ccsBnvoD.s:383    .text.ltpb__vignetting_characterization__unpack:00000014 $d
     /tmp/ccsBnvoD.s:389    .text.ltpb__vignetting_characterization__free_unpacked:00000000 $t
     /tmp/ccsBnvoD.s:394    .text.ltpb__vignetting_characterization__free_unpacked:00000000 ltpb__vignetting_characterization__free_unpacked
     /tmp/ccsBnvoD.s:439    .text.ltpb__vignetting_characterization__free_unpacked:00000020 $d
     /tmp/ccsBnvoD.s:505    .rodata.ltpb__vignetting_characterization__descriptor:00000000 ltpb__vignetting_characterization__descriptor
     /tmp/ccsBnvoD.s:849    .rodata.ltpb__vignetting_characterization__mirror_vignetting_model__descriptor:00000000 ltpb__vignetting_characterization__mirror_vignetting_model__descriptor
     /tmp/ccsBnvoD.s:538    .rodata.ltpb__vignetting_characterization__vignetting_model__descriptor:00000000 ltpb__vignetting_characterization__vignetting_model__descriptor
     /tmp/ccsBnvoD.s:681    .rodata.ltpb__vignetting_characterization__crosstalk_model__descriptor:00000000 ltpb__vignetting_characterization__crosstalk_model__descriptor
     /tmp/ccsBnvoD.s:451    .rodata.ltpb__vignetting_characterization__vignetting_model__number_ranges:00000000 $d
     /tmp/ccsBnvoD.s:454    .rodata.ltpb__vignetting_characterization__vignetting_model__number_ranges:00000000 ltpb__vignetting_characterization__vignetting_model__number_ranges
     /tmp/ccsBnvoD.s:460    .rodata.init_value.6506:00000000 $d
     /tmp/ccsBnvoD.s:464    .rodata.init_value.6506:00000000 init_value.6506
     /tmp/ccsBnvoD.s:475    .rodata.ltpb__vignetting_characterization__vignetting_model__field_indices_by_name:00000000 $d
     /tmp/ccsBnvoD.s:478    .rodata.ltpb__vignetting_characterization__vignetting_model__field_indices_by_name:00000000 ltpb__vignetting_characterization__vignetting_model__field_indices_by_name
     /tmp/ccsBnvoD.s:483    .rodata.ltpb__vignetting_characterization__crosstalk_model__number_ranges:00000000 $d
     /tmp/ccsBnvoD.s:486    .rodata.ltpb__vignetting_characterization__crosstalk_model__number_ranges:00000000 ltpb__vignetting_characterization__crosstalk_model__number_ranges
     /tmp/ccsBnvoD.s:492    .rodata.ltpb__vignetting_characterization__mirror_vignetting_model__number_ranges:00000000 $d
     /tmp/ccsBnvoD.s:495    .rodata.ltpb__vignetting_characterization__mirror_vignetting_model__number_ranges:00000000 ltpb__vignetting_characterization__mirror_vignetting_model__number_ranges
     /tmp/ccsBnvoD.s:501    .rodata.ltpb__vignetting_characterization__descriptor:00000000 $d
     /tmp/ccsBnvoD.s:761    .rodata.ltpb__vignetting_characterization__field_descriptors:00000000 ltpb__vignetting_characterization__field_descriptors
     /tmp/ccsBnvoD.s:876    .rodata.ltpb__vignetting_characterization__field_indices_by_name:00000000 ltpb__vignetting_characterization__field_indices_by_name
     /tmp/ccsBnvoD.s:570    .rodata.ltpb__vignetting_characterization__number_ranges:00000000 ltpb__vignetting_characterization__number_ranges
     /tmp/ccsBnvoD.s:522    .rodata.init_value.6510:00000000 $d
     /tmp/ccsBnvoD.s:526    .rodata.init_value.6510:00000000 init_value.6510
     /tmp/ccsBnvoD.s:535    .rodata.ltpb__vignetting_characterization__vignetting_model__descriptor:00000000 $d
     /tmp/ccsBnvoD.s:631    .rodata.ltpb__vignetting_characterization__vignetting_model__field_descriptors:00000000 ltpb__vignetting_characterization__vignetting_model__field_descriptors
     /tmp/ccsBnvoD.s:555    .rodata.init_value.6518:00000000 $d
     /tmp/ccsBnvoD.s:559    .rodata.init_value.6518:00000000 init_value.6518
     /tmp/ccsBnvoD.s:567    .rodata.ltpb__vignetting_characterization__number_ranges:00000000 $d
     /tmp/ccsBnvoD.s:619    .rodata.ltpb__vignetting_characterization__crosstalk_model__field_indices_by_name:00000000 $d
     /tmp/ccsBnvoD.s:622    .rodata.ltpb__vignetting_characterization__crosstalk_model__field_indices_by_name:00000000 ltpb__vignetting_characterization__crosstalk_model__field_indices_by_name
     /tmp/ccsBnvoD.s:628    .rodata.ltpb__vignetting_characterization__vignetting_model__field_descriptors:00000000 $d
     /tmp/ccsBnvoD.s:675    .rodata.__FUNCTION__.6522:00000000 __FUNCTION__.6522
     /tmp/ccsBnvoD.s:678    .rodata.ltpb__vignetting_characterization__crosstalk_model__descriptor:00000000 $d
     /tmp/ccsBnvoD.s:792    .rodata.ltpb__vignetting_characterization__crosstalk_model__field_descriptors:00000000 ltpb__vignetting_characterization__crosstalk_model__field_descriptors
     /tmp/ccsBnvoD.s:701    .rodata.__FUNCTION__.6527:00000000 __FUNCTION__.6527
     /tmp/ccsBnvoD.s:707    .rodata.__FUNCTION__.6532:00000000 __FUNCTION__.6532
     /tmp/ccsBnvoD.s:710    .rodata.init_value.6514:00000000 $d
     /tmp/ccsBnvoD.s:714    .rodata.init_value.6514:00000000 init_value.6514
     /tmp/ccsBnvoD.s:721    .rodata.ltpb__vignetting_characterization__mirror_vignetting_model__field_descriptors:00000000 $d
     /tmp/ccsBnvoD.s:724    .rodata.ltpb__vignetting_characterization__mirror_vignetting_model__field_descriptors:00000000 ltpb__vignetting_characterization__mirror_vignetting_model__field_descriptors
     /tmp/ccsBnvoD.s:755    .rodata.__FUNCTION__.6542:00000000 __FUNCTION__.6542
     /tmp/ccsBnvoD.s:758    .rodata.ltpb__vignetting_characterization__field_descriptors:00000000 $d
     /tmp/ccsBnvoD.s:789    .rodata.ltpb__vignetting_characterization__crosstalk_model__field_descriptors:00000000 $d
     /tmp/ccsBnvoD.s:846    .rodata.ltpb__vignetting_characterization__mirror_vignetting_model__descriptor:00000000 $d
     /tmp/ccsBnvoD.s:869    .rodata.ltpb__vignetting_characterization__mirror_vignetting_model__field_indices_by_name:00000000 ltpb__vignetting_characterization__mirror_vignetting_model__field_indices_by_name
     /tmp/ccsBnvoD.s:866    .rodata.ltpb__vignetting_characterization__mirror_vignetting_model__field_indices_by_name:00000000 $d
     /tmp/ccsBnvoD.s:873    .rodata.ltpb__vignetting_characterization__field_indices_by_name:00000000 $d
                     .debug_frame:00000010 $d

UNDEFINED SYMBOLS
assert_failed
protobuf_c_message_get_packed_size
protobuf_c_message_pack
protobuf_c_message_pack_to_buffer
protobuf_c_message_unpack
protobuf_c_message_free_unpacked
ltpb__matrix4x4_f__descriptor
