   1              		.syntax unified
   2              		.cpu cortex-r4
   3              		.fpu softvfp
   4              		.eabi_attribute 20, 1
   5              		.eabi_attribute 21, 1
   6              		.eabi_attribute 23, 3
   7              		.eabi_attribute 24, 1
   8              		.eabi_attribute 25, 1
   9              		.eabi_attribute 26, 1
  10              		.eabi_attribute 30, 4
  11              		.eabi_attribute 34, 1
  12              		.eabi_attribute 18, 4
  13              		.thumb
  14              		.file	"distortion.pb-c.c"
  15              		.text
  16              	.Ltext0:
  17              		.cfi_sections	.debug_frame
  18              		.section	.text.ltpb__distortion__polynomial__init,"ax",%progbits
  19              		.align	1
  20              		.global	ltpb__distortion__polynomial__init
  21              		.thumb
  22              		.thumb_func
  24              	ltpb__distortion__polynomial__init:
  25              	.LFB1:
  26              		.file 1 "/home/tienluong/workspace/atlantis_fw/platform/common/lightheader/src/distortion.pb-c.c"
   1:/home/tienluong/workspace/atlantis_fw/platform/common/lightheader/src/distortion.pb-c.c **** /* Generated by the protocol buffer compiler.  DO NOT EDIT! */
   2:/home/tienluong/workspace/atlantis_fw/platform/common/lightheader/src/distortion.pb-c.c **** /* Generated from: distortion.proto */
   3:/home/tienluong/workspace/atlantis_fw/platform/common/lightheader/src/distortion.pb-c.c **** 
   4:/home/tienluong/workspace/atlantis_fw/platform/common/lightheader/src/distortion.pb-c.c **** /* Do not generate deprecated warnings for self */
   5:/home/tienluong/workspace/atlantis_fw/platform/common/lightheader/src/distortion.pb-c.c **** #ifndef PROTOBUF_C__NO_DEPRECATED
   6:/home/tienluong/workspace/atlantis_fw/platform/common/lightheader/src/distortion.pb-c.c **** #define PROTOBUF_C__NO_DEPRECATED
   7:/home/tienluong/workspace/atlantis_fw/platform/common/lightheader/src/distortion.pb-c.c **** #endif
   8:/home/tienluong/workspace/atlantis_fw/platform/common/lightheader/src/distortion.pb-c.c **** #include "sections.h"
   9:/home/tienluong/workspace/atlantis_fw/platform/common/lightheader/src/distortion.pb-c.c **** #include "distortion.pb-c.h"
  10:/home/tienluong/workspace/atlantis_fw/platform/common/lightheader/src/distortion.pb-c.c **** LIGHT_HEADER_FUNC void   ltpb__distortion__polynomial__init
  11:/home/tienluong/workspace/atlantis_fw/platform/common/lightheader/src/distortion.pb-c.c ****                      (Ltpb__Distortion__Polynomial         *message)
  12:/home/tienluong/workspace/atlantis_fw/platform/common/lightheader/src/distortion.pb-c.c **** {
  27              		.loc 1 12 0
  28              		.cfi_startproc
  29              		@ args = 0, pretend = 0, frame = 0
  30              		@ frame_needed = 0, uses_anonymous_args = 0
  31              	.LVL0:
  32 0000 30B5     		push	{r4, r5, lr}
  33              	.LCFI0:
  34              		.cfi_def_cfa_offset 12
  35              		.cfi_offset 4, -12
  36              		.cfi_offset 5, -8
  37              		.cfi_offset 14, -4
  13:/home/tienluong/workspace/atlantis_fw/platform/common/lightheader/src/distortion.pb-c.c ****   LIGHT_HEADER_STATIC static Ltpb__Distortion__Polynomial init_value = LTPB__DISTORTION__POLYNOMIAL
  14:/home/tienluong/workspace/atlantis_fw/platform/common/lightheader/src/distortion.pb-c.c ****   *message = init_value;
  38              		.loc 1 14 0
  39 0002 044D     		ldr	r5, .L2
  40 0004 0446     		mov	r4, r0
  41 0006 0FCD     		ldmia	r5!, {r0, r1, r2, r3}
  42              	.LVL1:
  43 0008 0FC4     		stmia	r4!, {r0, r1, r2, r3}
  44              	.LVL2:
  45 000a 0FCD     		ldmia	r5!, {r0, r1, r2, r3}
  46 000c 0FC4     		stmia	r4!, {r0, r1, r2, r3}
  47              	.LVL3:
  48 000e 2B68     		ldr	r3, [r5]
  49 0010 2360     		str	r3, [r4]
  50 0012 30BD     		pop	{r4, r5, pc}
  51              	.LVL4:
  52              	.L3:
  53              		.align	2
  54              	.L2:
  55 0014 00000000 		.word	.LANCHOR0
  56              		.cfi_endproc
  57              	.LFE1:
  59              		.section	.text.ltpb__distortion__cra__init,"ax",%progbits
  60              		.align	1
  61              		.global	ltpb__distortion__cra__init
  62              		.thumb
  63              		.thumb_func
  65              	ltpb__distortion__cra__init:
  66              	.LFB2:
  15:/home/tienluong/workspace/atlantis_fw/platform/common/lightheader/src/distortion.pb-c.c **** }
  16:/home/tienluong/workspace/atlantis_fw/platform/common/lightheader/src/distortion.pb-c.c **** LIGHT_HEADER_FUNC void   ltpb__distortion__cra__init
  17:/home/tienluong/workspace/atlantis_fw/platform/common/lightheader/src/distortion.pb-c.c ****                      (Ltpb__Distortion__CRA         *message)
  18:/home/tienluong/workspace/atlantis_fw/platform/common/lightheader/src/distortion.pb-c.c **** {
  67              		.loc 1 18 0
  68              		.cfi_startproc
  69              		@ args = 0, pretend = 0, frame = 0
  70              		@ frame_needed = 0, uses_anonymous_args = 0
  71              	.LVL5:
  72 0000 30B5     		push	{r4, r5, lr}
  73              	.LCFI1:
  74              		.cfi_def_cfa_offset 12
  75              		.cfi_offset 4, -12
  76              		.cfi_offset 5, -8
  77              		.cfi_offset 14, -4
  19:/home/tienluong/workspace/atlantis_fw/platform/common/lightheader/src/distortion.pb-c.c ****   LIGHT_HEADER_STATIC static Ltpb__Distortion__CRA init_value = LTPB__DISTORTION__CRA__INIT;
  20:/home/tienluong/workspace/atlantis_fw/platform/common/lightheader/src/distortion.pb-c.c ****   *message = init_value;
  78              		.loc 1 20 0
  79 0002 054D     		ldr	r5, .L5
  80 0004 0446     		mov	r4, r0
  81 0006 0FCD     		ldmia	r5!, {r0, r1, r2, r3}
  82              	.LVL6:
  83 0008 0FC4     		stmia	r4!, {r0, r1, r2, r3}
  84              	.LVL7:
  85 000a 0FCD     		ldmia	r5!, {r0, r1, r2, r3}
  86 000c 0FC4     		stmia	r4!, {r0, r1, r2, r3}
  87              	.LVL8:
  88 000e 0FCD     		ldmia	r5!, {r0, r1, r2, r3}
  89 0010 0FC4     		stmia	r4!, {r0, r1, r2, r3}
  90              	.LVL9:
  91 0012 2B68     		ldr	r3, [r5]
  92 0014 2360     		str	r3, [r4]
  93 0016 30BD     		pop	{r4, r5, pc}
  94              	.LVL10:
  95              	.L6:
  96              		.align	2
  97              	.L5:
  98 0018 00000000 		.word	.LANCHOR1
  99              		.cfi_endproc
 100              	.LFE2:
 102              		.section	.text.ltpb__distortion__init,"ax",%progbits
 103              		.align	1
 104              		.global	ltpb__distortion__init
 105              		.thumb
 106              		.thumb_func
 108              	ltpb__distortion__init:
 109              	.LFB3:
  21:/home/tienluong/workspace/atlantis_fw/platform/common/lightheader/src/distortion.pb-c.c **** }
  22:/home/tienluong/workspace/atlantis_fw/platform/common/lightheader/src/distortion.pb-c.c **** LIGHT_HEADER_FUNC void   ltpb__distortion__init
  23:/home/tienluong/workspace/atlantis_fw/platform/common/lightheader/src/distortion.pb-c.c ****                      (Ltpb__Distortion         *message)
  24:/home/tienluong/workspace/atlantis_fw/platform/common/lightheader/src/distortion.pb-c.c **** {
 110              		.loc 1 24 0
 111              		.cfi_startproc
 112              		@ args = 0, pretend = 0, frame = 0
 113              		@ frame_needed = 0, uses_anonymous_args = 0
 114              	.LVL11:
 115 0000 30B5     		push	{r4, r5, lr}
 116              	.LCFI2:
 117              		.cfi_def_cfa_offset 12
 118              		.cfi_offset 4, -12
 119              		.cfi_offset 5, -8
 120              		.cfi_offset 14, -4
  25:/home/tienluong/workspace/atlantis_fw/platform/common/lightheader/src/distortion.pb-c.c ****   LIGHT_HEADER_STATIC static Ltpb__Distortion init_value = LTPB__DISTORTION__INIT;
  26:/home/tienluong/workspace/atlantis_fw/platform/common/lightheader/src/distortion.pb-c.c ****   *message = init_value;
 121              		.loc 1 26 0
 122 0002 034D     		ldr	r5, .L8
 123 0004 0446     		mov	r4, r0
 124 0006 0FCD     		ldmia	r5!, {r0, r1, r2, r3}
 125              	.LVL12:
 126 0008 0FC4     		stmia	r4!, {r0, r1, r2, r3}
 127              	.LVL13:
 128 000a 2B68     		ldr	r3, [r5]
 129 000c 2360     		str	r3, [r4]
 130 000e 30BD     		pop	{r4, r5, pc}
 131              	.LVL14:
 132              	.L9:
 133              		.align	2
 134              	.L8:
 135 0010 00000000 		.word	.LANCHOR2
 136              		.cfi_endproc
 137              	.LFE3:
 139              		.section	.text.ltpb__distortion__get_packed_size,"ax",%progbits
 140              		.align	1
 141              		.global	ltpb__distortion__get_packed_size
 142              		.thumb
 143              		.thumb_func
 145              	ltpb__distortion__get_packed_size:
 146              	.LFB4:
  27:/home/tienluong/workspace/atlantis_fw/platform/common/lightheader/src/distortion.pb-c.c **** }
  28:/home/tienluong/workspace/atlantis_fw/platform/common/lightheader/src/distortion.pb-c.c **** LIGHT_HEADER_FUNC size_t ltpb__distortion__get_packed_size
  29:/home/tienluong/workspace/atlantis_fw/platform/common/lightheader/src/distortion.pb-c.c ****                      (const Ltpb__Distortion *message)
  30:/home/tienluong/workspace/atlantis_fw/platform/common/lightheader/src/distortion.pb-c.c **** {
 147              		.loc 1 30 0
 148              		.cfi_startproc
 149              		@ args = 0, pretend = 0, frame = 0
 150              		@ frame_needed = 0, uses_anonymous_args = 0
 151              	.LVL15:
  31:/home/tienluong/workspace/atlantis_fw/platform/common/lightheader/src/distortion.pb-c.c ****   assert(message->base.descriptor == &ltpb__distortion__descriptor);
 152              		.loc 1 31 0
 153 0000 0268     		ldr	r2, [r0]
 154 0002 064B     		ldr	r3, .L13
  30:/home/tienluong/workspace/atlantis_fw/platform/common/lightheader/src/distortion.pb-c.c ****   assert(message->base.descriptor == &ltpb__distortion__descriptor);
 155              		.loc 1 30 0
 156 0004 10B5     		push	{r4, lr}
 157              	.LCFI3:
 158              		.cfi_def_cfa_offset 8
 159              		.cfi_offset 4, -8
 160              		.cfi_offset 14, -4
 161              		.loc 1 31 0
 162 0006 9A42     		cmp	r2, r3
  30:/home/tienluong/workspace/atlantis_fw/platform/common/lightheader/src/distortion.pb-c.c ****   assert(message->base.descriptor == &ltpb__distortion__descriptor);
 163              		.loc 1 30 0
 164 0008 0446     		mov	r4, r0
 165              		.loc 1 31 0
 166 000a 03D0     		beq	.L11
 167              		.loc 1 31 0 is_stmt 0 discriminator 1
 168 000c 0448     		ldr	r0, .L13+4
 169              	.LVL16:
 170 000e 1F21     		movs	r1, #31
 171 0010 044B     		ldr	r3, .L13+8
 172 0012 9847     		blx	r3
 173              	.LVL17:
 174              	.L11:
  32:/home/tienluong/workspace/atlantis_fw/platform/common/lightheader/src/distortion.pb-c.c ****   return protobuf_c_message_get_packed_size ((const ProtobufCMessage*)(message));
 175              		.loc 1 32 0 is_stmt 1
 176 0014 2046     		mov	r0, r4
 177 0016 044B     		ldr	r3, .L13+12
 178 0018 9847     		blx	r3
 179              	.LVL18:
  33:/home/tienluong/workspace/atlantis_fw/platform/common/lightheader/src/distortion.pb-c.c **** }
 180              		.loc 1 33 0
 181 001a 10BD     		pop	{r4, pc}
 182              	.LVL19:
 183              	.L14:
 184              		.align	2
 185              	.L13:
 186 001c 00000000 		.word	.LANCHOR3
 187 0020 00000000 		.word	.LANCHOR4
 188 0024 00000000 		.word	assert_failed
 189 0028 00000000 		.word	protobuf_c_message_get_packed_size
 190              		.cfi_endproc
 191              	.LFE4:
 193              		.section	.text.ltpb__distortion__pack,"ax",%progbits
 194              		.align	1
 195              		.global	ltpb__distortion__pack
 196              		.thumb
 197              		.thumb_func
 199              	ltpb__distortion__pack:
 200              	.LFB5:
  34:/home/tienluong/workspace/atlantis_fw/platform/common/lightheader/src/distortion.pb-c.c **** LIGHT_HEADER_FUNC size_t ltpb__distortion__pack
  35:/home/tienluong/workspace/atlantis_fw/platform/common/lightheader/src/distortion.pb-c.c ****                      (const Ltpb__Distortion *message,
  36:/home/tienluong/workspace/atlantis_fw/platform/common/lightheader/src/distortion.pb-c.c ****                       uint8_t       *out)
  37:/home/tienluong/workspace/atlantis_fw/platform/common/lightheader/src/distortion.pb-c.c **** {
 201              		.loc 1 37 0
 202              		.cfi_startproc
 203              		@ args = 0, pretend = 0, frame = 0
 204              		@ frame_needed = 0, uses_anonymous_args = 0
 205              	.LVL20:
 206 0000 38B5     		push	{r3, r4, r5, lr}
 207              	.LCFI4:
 208              		.cfi_def_cfa_offset 16
 209              		.cfi_offset 3, -16
 210              		.cfi_offset 4, -12
 211              		.cfi_offset 5, -8
 212              		.cfi_offset 14, -4
  38:/home/tienluong/workspace/atlantis_fw/platform/common/lightheader/src/distortion.pb-c.c ****   assert(message->base.descriptor == &ltpb__distortion__descriptor);
 213              		.loc 1 38 0
 214 0002 0268     		ldr	r2, [r0]
  37:/home/tienluong/workspace/atlantis_fw/platform/common/lightheader/src/distortion.pb-c.c ****   assert(message->base.descriptor == &ltpb__distortion__descriptor);
 215              		.loc 1 37 0
 216 0004 0446     		mov	r4, r0
 217              		.loc 1 38 0
 218 0006 064B     		ldr	r3, .L17
  37:/home/tienluong/workspace/atlantis_fw/platform/common/lightheader/src/distortion.pb-c.c ****   assert(message->base.descriptor == &ltpb__distortion__descriptor);
 219              		.loc 1 37 0
 220 0008 0D46     		mov	r5, r1
 221              		.loc 1 38 0
 222 000a 9A42     		cmp	r2, r3
 223 000c 03D0     		beq	.L16
 224              		.loc 1 38 0 is_stmt 0 discriminator 1
 225 000e 0548     		ldr	r0, .L17+4
 226              	.LVL21:
 227 0010 2621     		movs	r1, #38
 228              	.LVL22:
 229 0012 054B     		ldr	r3, .L17+8
 230 0014 9847     		blx	r3
 231              	.LVL23:
 232              	.L16:
  39:/home/tienluong/workspace/atlantis_fw/platform/common/lightheader/src/distortion.pb-c.c ****   return protobuf_c_message_pack ((const ProtobufCMessage*)message, out);
 233              		.loc 1 39 0 is_stmt 1
 234 0016 2046     		mov	r0, r4
 235 0018 2946     		mov	r1, r5
 236 001a 044B     		ldr	r3, .L17+12
 237 001c 9847     		blx	r3
 238              	.LVL24:
  40:/home/tienluong/workspace/atlantis_fw/platform/common/lightheader/src/distortion.pb-c.c **** }
 239              		.loc 1 40 0
 240 001e 38BD     		pop	{r3, r4, r5, pc}
 241              	.LVL25:
 242              	.L18:
 243              		.align	2
 244              	.L17:
 245 0020 00000000 		.word	.LANCHOR3
 246 0024 00000000 		.word	.LANCHOR5
 247 0028 00000000 		.word	assert_failed
 248 002c 00000000 		.word	protobuf_c_message_pack
 249              		.cfi_endproc
 250              	.LFE5:
 252              		.section	.text.ltpb__distortion__pack_to_buffer,"ax",%progbits
 253              		.align	1
 254              		.global	ltpb__distortion__pack_to_buffer
 255              		.thumb
 256              		.thumb_func
 258              	ltpb__distortion__pack_to_buffer:
 259              	.LFB6:
  41:/home/tienluong/workspace/atlantis_fw/platform/common/lightheader/src/distortion.pb-c.c **** LIGHT_HEADER_FUNC size_t ltpb__distortion__pack_to_buffer
  42:/home/tienluong/workspace/atlantis_fw/platform/common/lightheader/src/distortion.pb-c.c ****                      (const Ltpb__Distortion *message,
  43:/home/tienluong/workspace/atlantis_fw/platform/common/lightheader/src/distortion.pb-c.c ****                       ProtobufCBuffer *buffer)
  44:/home/tienluong/workspace/atlantis_fw/platform/common/lightheader/src/distortion.pb-c.c **** {
 260              		.loc 1 44 0
 261              		.cfi_startproc
 262              		@ args = 0, pretend = 0, frame = 0
 263              		@ frame_needed = 0, uses_anonymous_args = 0
 264              	.LVL26:
 265 0000 38B5     		push	{r3, r4, r5, lr}
 266              	.LCFI5:
 267              		.cfi_def_cfa_offset 16
 268              		.cfi_offset 3, -16
 269              		.cfi_offset 4, -12
 270              		.cfi_offset 5, -8
 271              		.cfi_offset 14, -4
  45:/home/tienluong/workspace/atlantis_fw/platform/common/lightheader/src/distortion.pb-c.c ****   assert(message->base.descriptor == &ltpb__distortion__descriptor);
 272              		.loc 1 45 0
 273 0002 0268     		ldr	r2, [r0]
  44:/home/tienluong/workspace/atlantis_fw/platform/common/lightheader/src/distortion.pb-c.c ****   assert(message->base.descriptor == &ltpb__distortion__descriptor);
 274              		.loc 1 44 0
 275 0004 0446     		mov	r4, r0
 276              		.loc 1 45 0
 277 0006 064B     		ldr	r3, .L21
  44:/home/tienluong/workspace/atlantis_fw/platform/common/lightheader/src/distortion.pb-c.c ****   assert(message->base.descriptor == &ltpb__distortion__descriptor);
 278              		.loc 1 44 0
 279 0008 0D46     		mov	r5, r1
 280              		.loc 1 45 0
 281 000a 9A42     		cmp	r2, r3
 282 000c 03D0     		beq	.L20
 283              		.loc 1 45 0 is_stmt 0 discriminator 1
 284 000e 0548     		ldr	r0, .L21+4
 285              	.LVL27:
 286 0010 2D21     		movs	r1, #45
 287              	.LVL28:
 288 0012 054B     		ldr	r3, .L21+8
 289 0014 9847     		blx	r3
 290              	.LVL29:
 291              	.L20:
  46:/home/tienluong/workspace/atlantis_fw/platform/common/lightheader/src/distortion.pb-c.c ****   return protobuf_c_message_pack_to_buffer ((const ProtobufCMessage*)message, buffer);
 292              		.loc 1 46 0 is_stmt 1
 293 0016 2046     		mov	r0, r4
 294 0018 2946     		mov	r1, r5
 295 001a 044B     		ldr	r3, .L21+12
 296 001c 9847     		blx	r3
 297              	.LVL30:
  47:/home/tienluong/workspace/atlantis_fw/platform/common/lightheader/src/distortion.pb-c.c **** }
 298              		.loc 1 47 0
 299 001e 38BD     		pop	{r3, r4, r5, pc}
 300              	.LVL31:
 301              	.L22:
 302              		.align	2
 303              	.L21:
 304 0020 00000000 		.word	.LANCHOR3
 305 0024 00000000 		.word	.LANCHOR6
 306 0028 00000000 		.word	assert_failed
 307 002c 00000000 		.word	protobuf_c_message_pack_to_buffer
 308              		.cfi_endproc
 309              	.LFE6:
 311              		.section	.text.ltpb__distortion__unpack,"ax",%progbits
 312              		.align	1
 313              		.global	ltpb__distortion__unpack
 314              		.thumb
 315              		.thumb_func
 317              	ltpb__distortion__unpack:
 318              	.LFB7:
  48:/home/tienluong/workspace/atlantis_fw/platform/common/lightheader/src/distortion.pb-c.c **** LIGHT_HEADER_FUNC Ltpb__Distortion *
  49:/home/tienluong/workspace/atlantis_fw/platform/common/lightheader/src/distortion.pb-c.c ****        ltpb__distortion__unpack
  50:/home/tienluong/workspace/atlantis_fw/platform/common/lightheader/src/distortion.pb-c.c ****                      (ProtobufCAllocator  *allocator,
  51:/home/tienluong/workspace/atlantis_fw/platform/common/lightheader/src/distortion.pb-c.c ****                       size_t               len,
  52:/home/tienluong/workspace/atlantis_fw/platform/common/lightheader/src/distortion.pb-c.c ****                       const uint8_t       *data)
  53:/home/tienluong/workspace/atlantis_fw/platform/common/lightheader/src/distortion.pb-c.c **** {
 319              		.loc 1 53 0
 320              		.cfi_startproc
 321              		@ args = 0, pretend = 0, frame = 0
 322              		@ frame_needed = 0, uses_anonymous_args = 0
 323              	.LVL32:
 324 0000 38B5     		push	{r3, r4, r5, lr}
 325              	.LCFI6:
 326              		.cfi_def_cfa_offset 16
 327              		.cfi_offset 3, -16
 328              		.cfi_offset 4, -12
 329              		.cfi_offset 5, -8
 330              		.cfi_offset 14, -4
 331              		.loc 1 53 0
 332 0002 0546     		mov	r5, r0
 333 0004 0C46     		mov	r4, r1
 334 0006 1346     		mov	r3, r2
  54:/home/tienluong/workspace/atlantis_fw/platform/common/lightheader/src/distortion.pb-c.c ****   return (Ltpb__Distortion *)
 335              		.loc 1 54 0
 336 0008 2946     		mov	r1, r5
 337              	.LVL33:
 338 000a 2246     		mov	r2, r4
 339              	.LVL34:
 340 000c 0148     		ldr	r0, .L24
 341              	.LVL35:
 342 000e 024C     		ldr	r4, .L24+4
 343              	.LVL36:
 344 0010 A047     		blx	r4
 345              	.LVL37:
  55:/home/tienluong/workspace/atlantis_fw/platform/common/lightheader/src/distortion.pb-c.c ****      protobuf_c_message_unpack (&ltpb__distortion__descriptor,
  56:/home/tienluong/workspace/atlantis_fw/platform/common/lightheader/src/distortion.pb-c.c ****                                 allocator, len, data);
  57:/home/tienluong/workspace/atlantis_fw/platform/common/lightheader/src/distortion.pb-c.c **** }
 346              		.loc 1 57 0
 347 0012 38BD     		pop	{r3, r4, r5, pc}
 348              	.LVL38:
 349              	.L25:
 350              		.align	2
 351              	.L24:
 352 0014 00000000 		.word	.LANCHOR3
 353 0018 00000000 		.word	protobuf_c_message_unpack
 354              		.cfi_endproc
 355              	.LFE7:
 357              		.section	.text.ltpb__distortion__free_unpacked,"ax",%progbits
 358              		.align	1
 359              		.global	ltpb__distortion__free_unpacked
 360              		.thumb
 361              		.thumb_func
 363              	ltpb__distortion__free_unpacked:
 364              	.LFB8:
  58:/home/tienluong/workspace/atlantis_fw/platform/common/lightheader/src/distortion.pb-c.c **** LIGHT_HEADER_FUNC void   ltpb__distortion__free_unpacked
  59:/home/tienluong/workspace/atlantis_fw/platform/common/lightheader/src/distortion.pb-c.c ****                      (Ltpb__Distortion *message,
  60:/home/tienluong/workspace/atlantis_fw/platform/common/lightheader/src/distortion.pb-c.c ****                       ProtobufCAllocator *allocator)
  61:/home/tienluong/workspace/atlantis_fw/platform/common/lightheader/src/distortion.pb-c.c **** {
 365              		.loc 1 61 0
 366              		.cfi_startproc
 367              		@ args = 0, pretend = 0, frame = 0
 368              		@ frame_needed = 0, uses_anonymous_args = 0
 369              	.LVL39:
 370 0000 38B5     		push	{r3, r4, r5, lr}
 371              	.LCFI7:
 372              		.cfi_def_cfa_offset 16
 373              		.cfi_offset 3, -16
 374              		.cfi_offset 4, -12
 375              		.cfi_offset 5, -8
 376              		.cfi_offset 14, -4
  62:/home/tienluong/workspace/atlantis_fw/platform/common/lightheader/src/distortion.pb-c.c ****   assert(message->base.descriptor == &ltpb__distortion__descriptor);
 377              		.loc 1 62 0
 378 0002 0268     		ldr	r2, [r0]
  61:/home/tienluong/workspace/atlantis_fw/platform/common/lightheader/src/distortion.pb-c.c ****   assert(message->base.descriptor == &ltpb__distortion__descriptor);
 379              		.loc 1 61 0
 380 0004 0446     		mov	r4, r0
 381              		.loc 1 62 0
 382 0006 064B     		ldr	r3, .L28
  61:/home/tienluong/workspace/atlantis_fw/platform/common/lightheader/src/distortion.pb-c.c ****   assert(message->base.descriptor == &ltpb__distortion__descriptor);
 383              		.loc 1 61 0
 384 0008 0D46     		mov	r5, r1
 385              		.loc 1 62 0
 386 000a 9A42     		cmp	r2, r3
 387 000c 03D0     		beq	.L27
 388              		.loc 1 62 0 is_stmt 0 discriminator 1
 389 000e 0548     		ldr	r0, .L28+4
 390              	.LVL40:
 391 0010 3E21     		movs	r1, #62
 392              	.LVL41:
 393 0012 054B     		ldr	r3, .L28+8
 394 0014 9847     		blx	r3
 395              	.LVL42:
 396              	.L27:
  63:/home/tienluong/workspace/atlantis_fw/platform/common/lightheader/src/distortion.pb-c.c ****   protobuf_c_message_free_unpacked ((ProtobufCMessage*)message, allocator);
 397              		.loc 1 63 0 is_stmt 1
 398 0016 2046     		mov	r0, r4
 399 0018 2946     		mov	r1, r5
 400 001a 044B     		ldr	r3, .L28+12
 401 001c 9847     		blx	r3
 402              	.LVL43:
 403 001e 38BD     		pop	{r3, r4, r5, pc}
 404              	.LVL44:
 405              	.L29:
 406              		.align	2
 407              	.L28:
 408 0020 00000000 		.word	.LANCHOR3
 409 0024 00000000 		.word	.LANCHOR7
 410 0028 00000000 		.word	assert_failed
 411 002c 00000000 		.word	protobuf_c_message_free_unpacked
 412              		.cfi_endproc
 413              	.LFE8:
 415              		.global	ltpb__distortion__descriptor
 416              		.global	ltpb__distortion__cra__descriptor
 417              		.global	ltpb__distortion__polynomial__descriptor
 418              		.section	.rodata.__FUNCTION__.6508,"a",%progbits
 419              		.set	.LANCHOR6,. + 0
 422              	__FUNCTION__.6508:
 423 0000 6C747062 		.ascii	"ltpb__distortion__pack_to_buffer\000"
 423      5F5F6469 
 423      73746F72 
 423      74696F6E 
 423      5F5F7061 
 424              		.section	.rodata.init_value.6490,"a",%progbits
 425              		.align	2
 426              		.set	.LANCHOR1,. + 0
 429              	init_value.6490:
 430 0000 00000000 		.word	ltpb__distortion__cra__descriptor
 431 0004 00000000 		.word	0
 432 0008 00000000 		.word	0
 433 000c 00000000 		.word	0
 434 0010 00000000 		.word	0
 435 0014 00000000 		.word	0
 436 0018 00000000 		.word	0
 437 001c 00000000 		.word	0
 438 0020 00000000 		.word	0
 439 0024 00000000 		.word	0
 440 0028 00000000 		.word	0
 441 002c 00000000 		.word	0
 442 0030 00000000 		.word	0
 443              		.section	.rodata.init_value.6486,"a",%progbits
 444              		.align	2
 445              		.set	.LANCHOR0,. + 0
 448              	init_value.6486:
 449 0000 00000000 		.word	ltpb__distortion__polynomial__descriptor
 450 0004 00000000 		.word	0
 451 0008 00000000 		.word	0
 452 000c 00000000 		.word	0
 453 0010 00000000 		.word	0
 454 0014 00000000 		.word	0
 455 0018 00000000 		.word	0
 456 001c 00000000 		.word	0
 457 0020 00000000 		.word	0
 458              		.section	.rodata.__FUNCTION__.6518,"a",%progbits
 459              		.set	.LANCHOR7,. + 0
 462              	__FUNCTION__.6518:
 463 0000 6C747062 		.ascii	"ltpb__distortion__free_unpacked\000"
 463      5F5F6469 
 463      73746F72 
 463      74696F6E 
 463      5F5F6672 
 464              		.section	.rodata.init_value.6494,"a",%progbits
 465              		.align	2
 466              		.set	.LANCHOR2,. + 0
 469              	init_value.6494:
 470 0000 00000000 		.word	ltpb__distortion__descriptor
 471 0004 00000000 		.word	0
 472 0008 00000000 		.word	0
 473 000c 00000000 		.word	0
 474 0010 00000000 		.word	0
 475              		.section	.rodata.ltpb__distortion__field_indices_by_name,"a",%progbits
 476              		.align	2
 479              	ltpb__distortion__field_indices_by_name:
 480 0000 01000000 		.word	1
 481 0004 00000000 		.word	0
 482              		.section	.rodata.ltpb__distortion__cra__descriptor,"a",%progbits
 483              		.align	2
 486              	ltpb__distortion__cra__descriptor:
 487 0000 F9EEAA28 		.word	682290937
 488 0004 40000000 		.word	.LC6
 489 0008 54000000 		.word	.LC7
 490 000c 58000000 		.word	.LC8
 491 0010 2C000000 		.word	.LC3
 492 0014 34000000 		.word	52
 493 0018 07000000 		.word	7
 494 001c 00000000 		.word	ltpb__distortion__cra__field_descriptors
 495 0020 00000000 		.word	ltpb__distortion__cra__field_indices_by_name
 496 0024 01000000 		.word	1
 497 0028 00000000 		.word	ltpb__distortion__cra__number_ranges
 498 002c 00000000 		.word	ltpb__distortion__cra__init
 499 0030 00000000 		.word	0
 500 0034 00000000 		.word	0
 501 0038 00000000 		.word	0
 502              		.section	.rodata.ltpb__distortion__polynomial__field_descriptors,"a",%progbits
 503              		.align	2
 506              	ltpb__distortion__polynomial__field_descriptors:
 507 0000 6E000000 		.word	.LC9
 508 0004 01000000 		.word	1
 509 0008 00       		.byte	0
 510 0009 10       		.byte	16
 511 000a 0000     		.space	2
 512 000c 00000000 		.word	0
 513 0010 0C000000 		.word	12
 514 0014 00000000 		.word	ltpb__point2_f__descriptor
 515 0018 00000000 		.word	0
 516 001c 00000000 		.word	0
 517 0020 00000000 		.word	0
 518 0024 00000000 		.word	0
 519 0028 00000000 		.word	0
 520 002c 02010000 		.word	.LC18
 521 0030 02000000 		.word	2
 522 0034 00       		.byte	0
 523 0035 10       		.byte	16
 524 0036 0000     		.space	2
 525 0038 00000000 		.word	0
 526 003c 10000000 		.word	16
 527 0040 00000000 		.word	ltpb__point2_f__descriptor
 528 0044 00000000 		.word	0
 529 0048 00000000 		.word	0
 530 004c 00000000 		.word	0
 531 0050 00000000 		.word	0
 532 0054 00000000 		.word	0
 533 0058 AF000000 		.word	.LC13
 534 005c 03000000 		.word	3
 535 0060 02       		.byte	2
 536 0061 0A       		.byte	10
 537 0062 0000     		.space	2
 538 0064 14000000 		.word	20
 539 0068 18000000 		.word	24
 540 006c 00000000 		.word	0
 541 0070 00000000 		.word	0
 542 0074 01000000 		.word	1
 543 0078 00000000 		.word	0
 544 007c 00000000 		.word	0
 545 0080 00000000 		.word	0
 546 0084 B6000000 		.word	.LC14
 547 0088 04000000 		.word	4
 548 008c 01       		.byte	1
 549 008d 0A       		.byte	10
 550 008e 0000     		.space	2
 551 0090 1C000000 		.word	28
 552 0094 20000000 		.word	32
 553 0098 00000000 		.word	0
 554 009c 00000000 		.word	0
 555 00a0 00000000 		.word	0
 556 00a4 00000000 		.word	0
 557 00a8 00000000 		.word	0
 558 00ac 00000000 		.word	0
 559              		.section	.rodata.str1.1,"aMS",%progbits,1
 560              	.LC0:
 561 0000 6C747062 		.ascii	"ltpb.Distortion\000"
 561      2E446973 
 561      746F7274 
 561      696F6E00 
 562              	.LC1:
 563 0010 44697374 		.ascii	"Distortion\000"
 563      6F727469 
 563      6F6E00
 564              	.LC2:
 565 001b 4C747062 		.ascii	"Ltpb__Distortion\000"
 565      5F5F4469 
 565      73746F72 
 565      74696F6E 
 565      00
 566              	.LC3:
 567 002c 6C747062 		.ascii	"ltpb\000"
 567      00
 568              	.LC4:
 569 0031 706F6C79 		.ascii	"polynomial\000"
 569      6E6F6D69 
 569      616C00
 570              	.LC5:
 571 003c 63726100 		.ascii	"cra\000"
 572              	.LC6:
 573 0040 6C747062 		.ascii	"ltpb.Distortion.CRA\000"
 573      2E446973 
 573      746F7274 
 573      696F6E2E 
 573      43524100 
 574              	.LC7:
 575 0054 43524100 		.ascii	"CRA\000"
 576              	.LC8:
 577 0058 4C747062 		.ascii	"Ltpb__Distortion__CRA\000"
 577      5F5F4469 
 577      73746F72 
 577      74696F6E 
 577      5F5F4352 
 578              	.LC9:
 579 006e 64697374 		.ascii	"distortion_center\000"
 579      6F727469 
 579      6F6E5F63 
 579      656E7465 
 579      7200
 580              	.LC10:
 581 0080 73656E73 		.ascii	"sensor_distance\000"
 581      6F725F64 
 581      69737461 
 581      6E636500 
 582              	.LC11:
 583 0090 65786974 		.ascii	"exit_pupil_distance\000"
 583      5F707570 
 583      696C5F64 
 583      69737461 
 583      6E636500 
 584              	.LC12:
 585 00a4 70697865 		.ascii	"pixel_size\000"
 585      6C5F7369 
 585      7A6500
 586              	.LC13:
 587 00af 636F6566 		.ascii	"coeffs\000"
 587      667300
 588              	.LC14:
 589 00b6 6669745F 		.ascii	"fit_cost\000"
 589      636F7374 
 589      00
 590              	.LC15:
 591 00bf 6C747062 		.ascii	"ltpb.Distortion.Polynomial\000"
 591      2E446973 
 591      746F7274 
 591      696F6E2E 
 591      506F6C79 
 592              	.LC16:
 593 00da 506F6C79 		.ascii	"Polynomial\000"
 593      6E6F6D69 
 593      616C00
 594              	.LC17:
 595 00e5 4C747062 		.ascii	"Ltpb__Distortion__Polynomial\000"
 595      5F5F4469 
 595      73746F72 
 595      74696F6E 
 595      5F5F506F 
 596              	.LC18:
 597 0102 6E6F726D 		.ascii	"normalization\000"
 597      616C697A 
 597      6174696F 
 597      6E00
 598              		.section	.rodata.ltpb__distortion__polynomial__number_ranges,"a",%progbits
 599              		.align	2
 602              	ltpb__distortion__polynomial__number_ranges:
 603 0000 01000000 		.word	1
 604 0004 00000000 		.word	0
 605 0008 00000000 		.word	0
 606 000c 04000000 		.word	4
 607              		.section	.rodata.ltpb__distortion__field_descriptors,"a",%progbits
 608              		.align	2
 611              	ltpb__distortion__field_descriptors:
 612 0000 31000000 		.word	.LC4
 613 0004 01000000 		.word	1
 614 0008 01       		.byte	1
 615 0009 10       		.byte	16
 616 000a 0000     		.space	2
 617 000c 00000000 		.word	0
 618 0010 0C000000 		.word	12
 619 0014 00000000 		.word	ltpb__distortion__polynomial__descriptor
 620 0018 00000000 		.word	0
 621 001c 00000000 		.word	0
 622 0020 00000000 		.word	0
 623 0024 00000000 		.word	0
 624 0028 00000000 		.word	0
 625 002c 3C000000 		.word	.LC5
 626 0030 02000000 		.word	2
 627 0034 01       		.byte	1
 628 0035 10       		.byte	16
 629 0036 0000     		.space	2
 630 0038 00000000 		.word	0
 631 003c 10000000 		.word	16
 632 0040 00000000 		.word	ltpb__distortion__cra__descriptor
 633 0044 00000000 		.word	0
 634 0048 00000000 		.word	0
 635 004c 00000000 		.word	0
 636 0050 00000000 		.word	0
 637 0054 00000000 		.word	0
 638              		.section	.rodata.ltpb__distortion__polynomial__descriptor,"a",%progbits
 639              		.align	2
 642              	ltpb__distortion__polynomial__descriptor:
 643 0000 F9EEAA28 		.word	682290937
 644 0004 BF000000 		.word	.LC15
 645 0008 DA000000 		.word	.LC16
 646 000c E5000000 		.word	.LC17
 647 0010 2C000000 		.word	.LC3
 648 0014 24000000 		.word	36
 649 0018 04000000 		.word	4
 650 001c 00000000 		.word	ltpb__distortion__polynomial__field_descriptors
 651 0020 00000000 		.word	ltpb__distortion__polynomial__field_indices_by_name
 652 0024 01000000 		.word	1
 653 0028 00000000 		.word	ltpb__distortion__polynomial__number_ranges
 654 002c 00000000 		.word	ltpb__distortion__polynomial__init
 655 0030 00000000 		.word	0
 656 0034 00000000 		.word	0
 657 0038 00000000 		.word	0
 658              		.section	.rodata.ltpb__distortion__number_ranges,"a",%progbits
 659              		.align	2
 662              	ltpb__distortion__number_ranges:
 663 0000 01000000 		.word	1
 664 0004 00000000 		.word	0
 665 0008 00000000 		.word	0
 666 000c 02000000 		.word	2
 667              		.section	.rodata.__FUNCTION__.6498,"a",%progbits
 668              		.set	.LANCHOR4,. + 0
 671              	__FUNCTION__.6498:
 672 0000 6C747062 		.ascii	"ltpb__distortion__get_packed_size\000"
 672      5F5F6469 
 672      73746F72 
 672      74696F6E 
 672      5F5F6765 
 673              		.section	.rodata.ltpb__distortion__cra__number_ranges,"a",%progbits
 674              		.align	2
 677              	ltpb__distortion__cra__number_ranges:
 678 0000 01000000 		.word	1
 679 0004 00000000 		.word	0
 680 0008 00000000 		.word	0
 681 000c 07000000 		.word	7
 682              		.section	.rodata.ltpb__distortion__cra__field_indices_by_name,"a",%progbits
 683              		.align	2
 686              	ltpb__distortion__cra__field_indices_by_name:
 687 0000 05000000 		.word	5
 688 0004 04000000 		.word	4
 689 0008 00000000 		.word	0
 690 000c 02000000 		.word	2
 691 0010 06000000 		.word	6
 692 0014 03000000 		.word	3
 693 0018 01000000 		.word	1
 694              		.section	.rodata.ltpb__distortion__descriptor,"a",%progbits
 695              		.align	2
 696              		.set	.LANCHOR3,. + 0
 699              	ltpb__distortion__descriptor:
 700 0000 F9EEAA28 		.word	682290937
 701 0004 00000000 		.word	.LC0
 702 0008 10000000 		.word	.LC1
 703 000c 1B000000 		.word	.LC2
 704 0010 2C000000 		.word	.LC3
 705 0014 14000000 		.word	20
 706 0018 02000000 		.word	2
 707 001c 00000000 		.word	ltpb__distortion__field_descriptors
 708 0020 00000000 		.word	ltpb__distortion__field_indices_by_name
 709 0024 01000000 		.word	1
 710 0028 00000000 		.word	ltpb__distortion__number_ranges
 711 002c 00000000 		.word	ltpb__distortion__init
 712 0030 00000000 		.word	0
 713 0034 00000000 		.word	0
 714 0038 00000000 		.word	0
 715              		.section	.rodata.__FUNCTION__.6503,"a",%progbits
 716              		.set	.LANCHOR5,. + 0
 719              	__FUNCTION__.6503:
 720 0000 6C747062 		.ascii	"ltpb__distortion__pack\000"
 720      5F5F6469 
 720      73746F72 
 720      74696F6E 
 720      5F5F7061 
 721              		.section	.rodata.ltpb__distortion__polynomial__field_indices_by_name,"a",%progbits
 722              		.align	2
 725              	ltpb__distortion__polynomial__field_indices_by_name:
 726 0000 02000000 		.word	2
 727 0004 00000000 		.word	0
 728 0008 03000000 		.word	3
 729 000c 01000000 		.word	1
 730              		.section	.rodata.ltpb__distortion__cra__field_descriptors,"a",%progbits
 731              		.align	2
 734              	ltpb__distortion__cra__field_descriptors:
 735 0000 6E000000 		.word	.LC9
 736 0004 01000000 		.word	1
 737 0008 00       		.byte	0
 738 0009 10       		.byte	16
 739 000a 0000     		.space	2
 740 000c 00000000 		.word	0
 741 0010 0C000000 		.word	12
 742 0014 00000000 		.word	ltpb__point2_f__descriptor
 743 0018 00000000 		.word	0
 744 001c 00000000 		.word	0
 745 0020 00000000 		.word	0
 746 0024 00000000 		.word	0
 747 0028 00000000 		.word	0
 748 002c 80000000 		.word	.LC10
 749 0030 02000000 		.word	2
 750 0034 00       		.byte	0
 751 0035 0A       		.byte	10
 752 0036 0000     		.space	2
 753 0038 00000000 		.word	0
 754 003c 10000000 		.word	16
 755 0040 00000000 		.word	0
 756 0044 00000000 		.word	0
 757 0048 00000000 		.word	0
 758 004c 00000000 		.word	0
 759 0050 00000000 		.word	0
 760 0054 00000000 		.word	0
 761 0058 90000000 		.word	.LC11
 762 005c 03000000 		.word	3
 763 0060 00       		.byte	0
 764 0061 0A       		.byte	10
 765 0062 0000     		.space	2
 766 0064 00000000 		.word	0
 767 0068 14000000 		.word	20
 768 006c 00000000 		.word	0
 769 0070 00000000 		.word	0
 770 0074 00000000 		.word	0
 771 0078 00000000 		.word	0
 772 007c 00000000 		.word	0
 773 0080 00000000 		.word	0
 774 0084 A4000000 		.word	.LC12
 775 0088 04000000 		.word	4
 776 008c 00       		.byte	0
 777 008d 0A       		.byte	10
 778 008e 0000     		.space	2
 779 0090 00000000 		.word	0
 780 0094 18000000 		.word	24
 781 0098 00000000 		.word	0
 782 009c 00000000 		.word	0
 783 00a0 00000000 		.word	0
 784 00a4 00000000 		.word	0
 785 00a8 00000000 		.word	0
 786 00ac 00000000 		.word	0
 787 00b0 3C000000 		.word	.LC5
 788 00b4 05000000 		.word	5
 789 00b8 02       		.byte	2
 790 00b9 10       		.byte	16
 791 00ba 0000     		.space	2
 792 00bc 1C000000 		.word	28
 793 00c0 20000000 		.word	32
 794 00c4 00000000 		.word	ltpb__point2_f__descriptor
 795 00c8 00000000 		.word	0
 796 00cc 00000000 		.word	0
 797 00d0 00000000 		.word	0
 798 00d4 00000000 		.word	0
 799 00d8 00000000 		.word	0
 800 00dc AF000000 		.word	.LC13
 801 00e0 06000000 		.word	6
 802 00e4 02       		.byte	2
 803 00e5 10       		.byte	16
 804 00e6 0000     		.space	2
 805 00e8 24000000 		.word	36
 806 00ec 28000000 		.word	40
 807 00f0 00000000 		.word	ltpb__point2_f__descriptor
 808 00f4 00000000 		.word	0
 809 00f8 00000000 		.word	0
 810 00fc 00000000 		.word	0
 811 0100 00000000 		.word	0
 812 0104 00000000 		.word	0
 813 0108 B6000000 		.word	.LC14
 814 010c 07000000 		.word	7
 815 0110 01       		.byte	1
 816 0111 0A       		.byte	10
 817 0112 0000     		.space	2
 818 0114 2C000000 		.word	44
 819 0118 30000000 		.word	48
 820 011c 00000000 		.word	0
 821 0120 00000000 		.word	0
 822 0124 00000000 		.word	0
 823 0128 00000000 		.word	0
 824 012c 00000000 		.word	0
 825 0130 00000000 		.word	0
 826              		.text
 827              	.Letext0:
 828              		.file 2 "/opt/toolchains/gcc-arm-none-eabi-4_9-2015q1/arm-none-eabi/include/machine/_default_types
 829              		.file 3 "/opt/toolchains/gcc-arm-none-eabi-4_9-2015q1/lib/gcc/arm-none-eabi/4.9.3/include/stddef.h
 830              		.file 4 "/opt/toolchains/gcc-arm-none-eabi-4_9-2015q1/arm-none-eabi/include/stdint.h"
 831              		.file 5 "/home/tienluong/workspace/atlantis_fw/platform/os/Source/portable/GCC/cortex-r4/portmacro
 832              		.file 6 "/home/tienluong/workspace/atlantis_fw/platform/common/lightheader/include/protobuf-c/prot
 833              		.file 7 "/home/tienluong/workspace/atlantis_fw/platform/common/lightheader/include/point2f.pb-c.h"
 834              		.file 8 "/home/tienluong/workspace/atlantis_fw/platform/common/lightheader/include/distortion.pb-c
DEFINED SYMBOLS
                            *ABS*:00000000 distortion.pb-c.c
     /tmp/cc1flpZy.s:19     .text.ltpb__distortion__polynomial__init:00000000 $t
     /tmp/cc1flpZy.s:24     .text.ltpb__distortion__polynomial__init:00000000 ltpb__distortion__polynomial__init
     /tmp/cc1flpZy.s:55     .text.ltpb__distortion__polynomial__init:00000014 $d
     /tmp/cc1flpZy.s:60     .text.ltpb__distortion__cra__init:00000000 $t
     /tmp/cc1flpZy.s:65     .text.ltpb__distortion__cra__init:00000000 ltpb__distortion__cra__init
     /tmp/cc1flpZy.s:98     .text.ltpb__distortion__cra__init:00000018 $d
     /tmp/cc1flpZy.s:103    .text.ltpb__distortion__init:00000000 $t
     /tmp/cc1flpZy.s:108    .text.ltpb__distortion__init:00000000 ltpb__distortion__init
     /tmp/cc1flpZy.s:135    .text.ltpb__distortion__init:00000010 $d
     /tmp/cc1flpZy.s:140    .text.ltpb__distortion__get_packed_size:00000000 $t
     /tmp/cc1flpZy.s:145    .text.ltpb__distortion__get_packed_size:00000000 ltpb__distortion__get_packed_size
     /tmp/cc1flpZy.s:186    .text.ltpb__distortion__get_packed_size:0000001c $d
     /tmp/cc1flpZy.s:194    .text.ltpb__distortion__pack:00000000 $t
     /tmp/cc1flpZy.s:199    .text.ltpb__distortion__pack:00000000 ltpb__distortion__pack
     /tmp/cc1flpZy.s:245    .text.ltpb__distortion__pack:00000020 $d
     /tmp/cc1flpZy.s:253    .text.ltpb__distortion__pack_to_buffer:00000000 $t
     /tmp/cc1flpZy.s:258    .text.ltpb__distortion__pack_to_buffer:00000000 ltpb__distortion__pack_to_buffer
     /tmp/cc1flpZy.s:304    .text.ltpb__distortion__pack_to_buffer:00000020 $d
     /tmp/cc1flpZy.s:312    .text.ltpb__distortion__unpack:00000000 $t
     /tmp/cc1flpZy.s:317    .text.ltpb__distortion__unpack:00000000 ltpb__distortion__unpack
     /tmp/cc1flpZy.s:352    .text.ltpb__distortion__unpack:00000014 $d
     /tmp/cc1flpZy.s:358    .text.ltpb__distortion__free_unpacked:00000000 $t
     /tmp/cc1flpZy.s:363    .text.ltpb__distortion__free_unpacked:00000000 ltpb__distortion__free_unpacked
     /tmp/cc1flpZy.s:408    .text.ltpb__distortion__free_unpacked:00000020 $d
     /tmp/cc1flpZy.s:699    .rodata.ltpb__distortion__descriptor:00000000 ltpb__distortion__descriptor
     /tmp/cc1flpZy.s:486    .rodata.ltpb__distortion__cra__descriptor:00000000 ltpb__distortion__cra__descriptor
     /tmp/cc1flpZy.s:642    .rodata.ltpb__distortion__polynomial__descriptor:00000000 ltpb__distortion__polynomial__descriptor
     /tmp/cc1flpZy.s:422    .rodata.__FUNCTION__.6508:00000000 __FUNCTION__.6508
     /tmp/cc1flpZy.s:425    .rodata.init_value.6490:00000000 $d
     /tmp/cc1flpZy.s:429    .rodata.init_value.6490:00000000 init_value.6490
     /tmp/cc1flpZy.s:444    .rodata.init_value.6486:00000000 $d
     /tmp/cc1flpZy.s:448    .rodata.init_value.6486:00000000 init_value.6486
     /tmp/cc1flpZy.s:462    .rodata.__FUNCTION__.6518:00000000 __FUNCTION__.6518
     /tmp/cc1flpZy.s:465    .rodata.init_value.6494:00000000 $d
     /tmp/cc1flpZy.s:469    .rodata.init_value.6494:00000000 init_value.6494
     /tmp/cc1flpZy.s:476    .rodata.ltpb__distortion__field_indices_by_name:00000000 $d
     /tmp/cc1flpZy.s:479    .rodata.ltpb__distortion__field_indices_by_name:00000000 ltpb__distortion__field_indices_by_name
     /tmp/cc1flpZy.s:483    .rodata.ltpb__distortion__cra__descriptor:00000000 $d
     /tmp/cc1flpZy.s:734    .rodata.ltpb__distortion__cra__field_descriptors:00000000 ltpb__distortion__cra__field_descriptors
     /tmp/cc1flpZy.s:686    .rodata.ltpb__distortion__cra__field_indices_by_name:00000000 ltpb__distortion__cra__field_indices_by_name
     /tmp/cc1flpZy.s:677    .rodata.ltpb__distortion__cra__number_ranges:00000000 ltpb__distortion__cra__number_ranges
     /tmp/cc1flpZy.s:503    .rodata.ltpb__distortion__polynomial__field_descriptors:00000000 $d
     /tmp/cc1flpZy.s:506    .rodata.ltpb__distortion__polynomial__field_descriptors:00000000 ltpb__distortion__polynomial__field_descriptors
     /tmp/cc1flpZy.s:599    .rodata.ltpb__distortion__polynomial__number_ranges:00000000 $d
     /tmp/cc1flpZy.s:602    .rodata.ltpb__distortion__polynomial__number_ranges:00000000 ltpb__distortion__polynomial__number_ranges
     /tmp/cc1flpZy.s:608    .rodata.ltpb__distortion__field_descriptors:00000000 $d
     /tmp/cc1flpZy.s:611    .rodata.ltpb__distortion__field_descriptors:00000000 ltpb__distortion__field_descriptors
     /tmp/cc1flpZy.s:639    .rodata.ltpb__distortion__polynomial__descriptor:00000000 $d
     /tmp/cc1flpZy.s:725    .rodata.ltpb__distortion__polynomial__field_indices_by_name:00000000 ltpb__distortion__polynomial__field_indices_by_name
     /tmp/cc1flpZy.s:659    .rodata.ltpb__distortion__number_ranges:00000000 $d
     /tmp/cc1flpZy.s:662    .rodata.ltpb__distortion__number_ranges:00000000 ltpb__distortion__number_ranges
     /tmp/cc1flpZy.s:671    .rodata.__FUNCTION__.6498:00000000 __FUNCTION__.6498
     /tmp/cc1flpZy.s:674    .rodata.ltpb__distortion__cra__number_ranges:00000000 $d
     /tmp/cc1flpZy.s:683    .rodata.ltpb__distortion__cra__field_indices_by_name:00000000 $d
     /tmp/cc1flpZy.s:695    .rodata.ltpb__distortion__descriptor:00000000 $d
     /tmp/cc1flpZy.s:719    .rodata.__FUNCTION__.6503:00000000 __FUNCTION__.6503
     /tmp/cc1flpZy.s:722    .rodata.ltpb__distortion__polynomial__field_indices_by_name:00000000 $d
     /tmp/cc1flpZy.s:731    .rodata.ltpb__distortion__cra__field_descriptors:00000000 $d
                     .debug_frame:00000010 $d

UNDEFINED SYMBOLS
assert_failed
protobuf_c_message_get_packed_size
protobuf_c_message_pack
protobuf_c_message_pack_to_buffer
protobuf_c_message_unpack
protobuf_c_message_free_unpacked
ltpb__point2_f__descriptor
