   1              		.syntax unified
   2              		.cpu cortex-r4
   3              		.fpu softvfp
   4              		.eabi_attribute 20, 1
   5              		.eabi_attribute 21, 1
   6              		.eabi_attribute 23, 3
   7              		.eabi_attribute 24, 1
   8              		.eabi_attribute 25, 1
   9              		.eabi_attribute 26, 1
  10              		.eabi_attribute 30, 4
  11              		.eabi_attribute 34, 1
  12              		.eabi_attribute 18, 4
  13              		.thumb
  14              		.file	"hot_pixel_map.pb-c.c"
  15              		.text
  16              	.Ltext0:
  17              		.cfi_sections	.debug_frame
  18              		.section	.text.ltpb__hot_pixel_map__hot_pixel_measurement__init,"ax",%progbits
  19              		.align	1
  20              		.global	ltpb__hot_pixel_map__hot_pixel_measurement__init
  21              		.thumb
  22              		.thumb_func
  24              	ltpb__hot_pixel_map__hot_pixel_measurement__init:
  25              	.LFB1:
  26              		.file 1 "/home/tienluong/workspace/atlantis_fw/platform/common/lightheader/src/hot_pixel_map.pb-c.
   1:/home/tienluong/workspace/atlantis_fw/platform/common/lightheader/src/hot_pixel_map.pb-c.c **** /* Generated by the protocol buffer compiler.  DO NOT EDIT! */
   2:/home/tienluong/workspace/atlantis_fw/platform/common/lightheader/src/hot_pixel_map.pb-c.c **** /* Generated from: hot_pixel_map.proto */
   3:/home/tienluong/workspace/atlantis_fw/platform/common/lightheader/src/hot_pixel_map.pb-c.c **** 
   4:/home/tienluong/workspace/atlantis_fw/platform/common/lightheader/src/hot_pixel_map.pb-c.c **** /* Do not generate deprecated warnings for self */
   5:/home/tienluong/workspace/atlantis_fw/platform/common/lightheader/src/hot_pixel_map.pb-c.c **** #ifndef PROTOBUF_C__NO_DEPRECATED
   6:/home/tienluong/workspace/atlantis_fw/platform/common/lightheader/src/hot_pixel_map.pb-c.c **** #define PROTOBUF_C__NO_DEPRECATED
   7:/home/tienluong/workspace/atlantis_fw/platform/common/lightheader/src/hot_pixel_map.pb-c.c **** #endif
   8:/home/tienluong/workspace/atlantis_fw/platform/common/lightheader/src/hot_pixel_map.pb-c.c **** #include "sections.h"
   9:/home/tienluong/workspace/atlantis_fw/platform/common/lightheader/src/hot_pixel_map.pb-c.c **** #include "hot_pixel_map.pb-c.h"
  10:/home/tienluong/workspace/atlantis_fw/platform/common/lightheader/src/hot_pixel_map.pb-c.c **** LIGHT_HEADER_FUNC void   ltpb__hot_pixel_map__hot_pixel_measurement__init
  11:/home/tienluong/workspace/atlantis_fw/platform/common/lightheader/src/hot_pixel_map.pb-c.c ****                      (Ltpb__HotPixelMap__HotPixelMeasurement         *message)
  12:/home/tienluong/workspace/atlantis_fw/platform/common/lightheader/src/hot_pixel_map.pb-c.c **** {
  27              		.loc 1 12 0
  28              		.cfi_startproc
  29              		@ args = 0, pretend = 0, frame = 0
  30              		@ frame_needed = 0, uses_anonymous_args = 0
  31              	.LVL0:
  32 0000 30B5     		push	{r4, r5, lr}
  33              	.LCFI0:
  34              		.cfi_def_cfa_offset 12
  35              		.cfi_offset 4, -12
  36              		.cfi_offset 5, -8
  37              		.cfi_offset 14, -4
  13:/home/tienluong/workspace/atlantis_fw/platform/common/lightheader/src/hot_pixel_map.pb-c.c ****   LIGHT_HEADER_STATIC static Ltpb__HotPixelMap__HotPixelMeasurement init_value = LTPB__HOT_PIXEL_MA
  14:/home/tienluong/workspace/atlantis_fw/platform/common/lightheader/src/hot_pixel_map.pb-c.c ****   *message = init_value;
  38              		.loc 1 14 0
  39 0002 064D     		ldr	r5, .L2
  40 0004 0446     		mov	r4, r0
  41 0006 0FCD     		ldmia	r5!, {r0, r1, r2, r3}
  42              	.LVL1:
  43 0008 0FC4     		stmia	r4!, {r0, r1, r2, r3}
  44              	.LVL2:
  45 000a 0FCD     		ldmia	r5!, {r0, r1, r2, r3}
  46 000c 0FC4     		stmia	r4!, {r0, r1, r2, r3}
  47              	.LVL3:
  48 000e 0FCD     		ldmia	r5!, {r0, r1, r2, r3}
  49 0010 0FC4     		stmia	r4!, {r0, r1, r2, r3}
  50              	.LVL4:
  51 0012 95E80F00 		ldmia	r5, {r0, r1, r2, r3}
  52 0016 84E80F00 		stmia	r4, {r0, r1, r2, r3}
  53 001a 30BD     		pop	{r4, r5, pc}
  54              	.LVL5:
  55              	.L3:
  56              		.align	2
  57              	.L2:
  58 001c 00000000 		.word	.LANCHOR0
  59              		.cfi_endproc
  60              	.LFE1:
  62              		.section	.text.ltpb__hot_pixel_map__init,"ax",%progbits
  63              		.align	1
  64              		.global	ltpb__hot_pixel_map__init
  65              		.thumb
  66              		.thumb_func
  68              	ltpb__hot_pixel_map__init:
  69              	.LFB2:
  15:/home/tienluong/workspace/atlantis_fw/platform/common/lightheader/src/hot_pixel_map.pb-c.c **** }
  16:/home/tienluong/workspace/atlantis_fw/platform/common/lightheader/src/hot_pixel_map.pb-c.c **** LIGHT_HEADER_FUNC void   ltpb__hot_pixel_map__init
  17:/home/tienluong/workspace/atlantis_fw/platform/common/lightheader/src/hot_pixel_map.pb-c.c ****                      (Ltpb__HotPixelMap         *message)
  18:/home/tienluong/workspace/atlantis_fw/platform/common/lightheader/src/hot_pixel_map.pb-c.c **** {
  70              		.loc 1 18 0
  71              		.cfi_startproc
  72              		@ args = 0, pretend = 0, frame = 0
  73              		@ frame_needed = 0, uses_anonymous_args = 0
  74              	.LVL6:
  75 0000 30B5     		push	{r4, r5, lr}
  76              	.LCFI1:
  77              		.cfi_def_cfa_offset 12
  78              		.cfi_offset 4, -12
  79              		.cfi_offset 5, -8
  80              		.cfi_offset 14, -4
  19:/home/tienluong/workspace/atlantis_fw/platform/common/lightheader/src/hot_pixel_map.pb-c.c ****   LIGHT_HEADER_STATIC static Ltpb__HotPixelMap init_value = LTPB__HOT_PIXEL_MAP__INIT;
  20:/home/tienluong/workspace/atlantis_fw/platform/common/lightheader/src/hot_pixel_map.pb-c.c ****   *message = init_value;
  81              		.loc 1 20 0
  82 0002 034D     		ldr	r5, .L5
  83 0004 0446     		mov	r4, r0
  84 0006 0FCD     		ldmia	r5!, {r0, r1, r2, r3}
  85              	.LVL7:
  86 0008 0FC4     		stmia	r4!, {r0, r1, r2, r3}
  87              	.LVL8:
  88 000a 2B68     		ldr	r3, [r5]
  89 000c 2360     		str	r3, [r4]
  90 000e 30BD     		pop	{r4, r5, pc}
  91              	.LVL9:
  92              	.L6:
  93              		.align	2
  94              	.L5:
  95 0010 00000000 		.word	.LANCHOR1
  96              		.cfi_endproc
  97              	.LFE2:
  99              		.section	.text.ltpb__hot_pixel_map__get_packed_size,"ax",%progbits
 100              		.align	1
 101              		.global	ltpb__hot_pixel_map__get_packed_size
 102              		.thumb
 103              		.thumb_func
 105              	ltpb__hot_pixel_map__get_packed_size:
 106              	.LFB3:
  21:/home/tienluong/workspace/atlantis_fw/platform/common/lightheader/src/hot_pixel_map.pb-c.c **** }
  22:/home/tienluong/workspace/atlantis_fw/platform/common/lightheader/src/hot_pixel_map.pb-c.c **** LIGHT_HEADER_FUNC size_t ltpb__hot_pixel_map__get_packed_size
  23:/home/tienluong/workspace/atlantis_fw/platform/common/lightheader/src/hot_pixel_map.pb-c.c ****                      (const Ltpb__HotPixelMap *message)
  24:/home/tienluong/workspace/atlantis_fw/platform/common/lightheader/src/hot_pixel_map.pb-c.c **** {
 107              		.loc 1 24 0
 108              		.cfi_startproc
 109              		@ args = 0, pretend = 0, frame = 0
 110              		@ frame_needed = 0, uses_anonymous_args = 0
 111              	.LVL10:
  25:/home/tienluong/workspace/atlantis_fw/platform/common/lightheader/src/hot_pixel_map.pb-c.c ****   assert(message->base.descriptor == &ltpb__hot_pixel_map__descriptor);
 112              		.loc 1 25 0
 113 0000 0268     		ldr	r2, [r0]
 114 0002 064B     		ldr	r3, .L10
  24:/home/tienluong/workspace/atlantis_fw/platform/common/lightheader/src/hot_pixel_map.pb-c.c ****   assert(message->base.descriptor == &ltpb__hot_pixel_map__descriptor);
 115              		.loc 1 24 0
 116 0004 10B5     		push	{r4, lr}
 117              	.LCFI2:
 118              		.cfi_def_cfa_offset 8
 119              		.cfi_offset 4, -8
 120              		.cfi_offset 14, -4
 121              		.loc 1 25 0
 122 0006 9A42     		cmp	r2, r3
  24:/home/tienluong/workspace/atlantis_fw/platform/common/lightheader/src/hot_pixel_map.pb-c.c ****   assert(message->base.descriptor == &ltpb__hot_pixel_map__descriptor);
 123              		.loc 1 24 0
 124 0008 0446     		mov	r4, r0
 125              		.loc 1 25 0
 126 000a 03D0     		beq	.L8
 127              		.loc 1 25 0 is_stmt 0 discriminator 1
 128 000c 0448     		ldr	r0, .L10+4
 129              	.LVL11:
 130 000e 1921     		movs	r1, #25
 131 0010 044B     		ldr	r3, .L10+8
 132 0012 9847     		blx	r3
 133              	.LVL12:
 134              	.L8:
  26:/home/tienluong/workspace/atlantis_fw/platform/common/lightheader/src/hot_pixel_map.pb-c.c ****   return protobuf_c_message_get_packed_size ((const ProtobufCMessage*)(message));
 135              		.loc 1 26 0 is_stmt 1
 136 0014 2046     		mov	r0, r4
 137 0016 044B     		ldr	r3, .L10+12
 138 0018 9847     		blx	r3
 139              	.LVL13:
  27:/home/tienluong/workspace/atlantis_fw/platform/common/lightheader/src/hot_pixel_map.pb-c.c **** }
 140              		.loc 1 27 0
 141 001a 10BD     		pop	{r4, pc}
 142              	.LVL14:
 143              	.L11:
 144              		.align	2
 145              	.L10:
 146 001c 00000000 		.word	.LANCHOR2
 147 0020 00000000 		.word	.LANCHOR3
 148 0024 00000000 		.word	assert_failed
 149 0028 00000000 		.word	protobuf_c_message_get_packed_size
 150              		.cfi_endproc
 151              	.LFE3:
 153              		.section	.text.ltpb__hot_pixel_map__pack,"ax",%progbits
 154              		.align	1
 155              		.global	ltpb__hot_pixel_map__pack
 156              		.thumb
 157              		.thumb_func
 159              	ltpb__hot_pixel_map__pack:
 160              	.LFB4:
  28:/home/tienluong/workspace/atlantis_fw/platform/common/lightheader/src/hot_pixel_map.pb-c.c **** LIGHT_HEADER_FUNC size_t ltpb__hot_pixel_map__pack
  29:/home/tienluong/workspace/atlantis_fw/platform/common/lightheader/src/hot_pixel_map.pb-c.c ****                      (const Ltpb__HotPixelMap *message,
  30:/home/tienluong/workspace/atlantis_fw/platform/common/lightheader/src/hot_pixel_map.pb-c.c ****                       uint8_t       *out)
  31:/home/tienluong/workspace/atlantis_fw/platform/common/lightheader/src/hot_pixel_map.pb-c.c **** {
 161              		.loc 1 31 0
 162              		.cfi_startproc
 163              		@ args = 0, pretend = 0, frame = 0
 164              		@ frame_needed = 0, uses_anonymous_args = 0
 165              	.LVL15:
 166 0000 38B5     		push	{r3, r4, r5, lr}
 167              	.LCFI3:
 168              		.cfi_def_cfa_offset 16
 169              		.cfi_offset 3, -16
 170              		.cfi_offset 4, -12
 171              		.cfi_offset 5, -8
 172              		.cfi_offset 14, -4
  32:/home/tienluong/workspace/atlantis_fw/platform/common/lightheader/src/hot_pixel_map.pb-c.c ****   assert(message->base.descriptor == &ltpb__hot_pixel_map__descriptor);
 173              		.loc 1 32 0
 174 0002 0268     		ldr	r2, [r0]
  31:/home/tienluong/workspace/atlantis_fw/platform/common/lightheader/src/hot_pixel_map.pb-c.c ****   assert(message->base.descriptor == &ltpb__hot_pixel_map__descriptor);
 175              		.loc 1 31 0
 176 0004 0446     		mov	r4, r0
 177              		.loc 1 32 0
 178 0006 064B     		ldr	r3, .L14
  31:/home/tienluong/workspace/atlantis_fw/platform/common/lightheader/src/hot_pixel_map.pb-c.c ****   assert(message->base.descriptor == &ltpb__hot_pixel_map__descriptor);
 179              		.loc 1 31 0
 180 0008 0D46     		mov	r5, r1
 181              		.loc 1 32 0
 182 000a 9A42     		cmp	r2, r3
 183 000c 03D0     		beq	.L13
 184              		.loc 1 32 0 is_stmt 0 discriminator 1
 185 000e 0548     		ldr	r0, .L14+4
 186              	.LVL16:
 187 0010 2021     		movs	r1, #32
 188              	.LVL17:
 189 0012 054B     		ldr	r3, .L14+8
 190 0014 9847     		blx	r3
 191              	.LVL18:
 192              	.L13:
  33:/home/tienluong/workspace/atlantis_fw/platform/common/lightheader/src/hot_pixel_map.pb-c.c ****   return protobuf_c_message_pack ((const ProtobufCMessage*)message, out);
 193              		.loc 1 33 0 is_stmt 1
 194 0016 2046     		mov	r0, r4
 195 0018 2946     		mov	r1, r5
 196 001a 044B     		ldr	r3, .L14+12
 197 001c 9847     		blx	r3
 198              	.LVL19:
  34:/home/tienluong/workspace/atlantis_fw/platform/common/lightheader/src/hot_pixel_map.pb-c.c **** }
 199              		.loc 1 34 0
 200 001e 38BD     		pop	{r3, r4, r5, pc}
 201              	.LVL20:
 202              	.L15:
 203              		.align	2
 204              	.L14:
 205 0020 00000000 		.word	.LANCHOR2
 206 0024 00000000 		.word	.LANCHOR4
 207 0028 00000000 		.word	assert_failed
 208 002c 00000000 		.word	protobuf_c_message_pack
 209              		.cfi_endproc
 210              	.LFE4:
 212              		.section	.text.ltpb__hot_pixel_map__pack_to_buffer,"ax",%progbits
 213              		.align	1
 214              		.global	ltpb__hot_pixel_map__pack_to_buffer
 215              		.thumb
 216              		.thumb_func
 218              	ltpb__hot_pixel_map__pack_to_buffer:
 219              	.LFB5:
  35:/home/tienluong/workspace/atlantis_fw/platform/common/lightheader/src/hot_pixel_map.pb-c.c **** LIGHT_HEADER_FUNC size_t ltpb__hot_pixel_map__pack_to_buffer
  36:/home/tienluong/workspace/atlantis_fw/platform/common/lightheader/src/hot_pixel_map.pb-c.c ****                      (const Ltpb__HotPixelMap *message,
  37:/home/tienluong/workspace/atlantis_fw/platform/common/lightheader/src/hot_pixel_map.pb-c.c ****                       ProtobufCBuffer *buffer)
  38:/home/tienluong/workspace/atlantis_fw/platform/common/lightheader/src/hot_pixel_map.pb-c.c **** {
 220              		.loc 1 38 0
 221              		.cfi_startproc
 222              		@ args = 0, pretend = 0, frame = 0
 223              		@ frame_needed = 0, uses_anonymous_args = 0
 224              	.LVL21:
 225 0000 38B5     		push	{r3, r4, r5, lr}
 226              	.LCFI4:
 227              		.cfi_def_cfa_offset 16
 228              		.cfi_offset 3, -16
 229              		.cfi_offset 4, -12
 230              		.cfi_offset 5, -8
 231              		.cfi_offset 14, -4
  39:/home/tienluong/workspace/atlantis_fw/platform/common/lightheader/src/hot_pixel_map.pb-c.c ****   assert(message->base.descriptor == &ltpb__hot_pixel_map__descriptor);
 232              		.loc 1 39 0
 233 0002 0268     		ldr	r2, [r0]
  38:/home/tienluong/workspace/atlantis_fw/platform/common/lightheader/src/hot_pixel_map.pb-c.c ****   assert(message->base.descriptor == &ltpb__hot_pixel_map__descriptor);
 234              		.loc 1 38 0
 235 0004 0446     		mov	r4, r0
 236              		.loc 1 39 0
 237 0006 064B     		ldr	r3, .L18
  38:/home/tienluong/workspace/atlantis_fw/platform/common/lightheader/src/hot_pixel_map.pb-c.c ****   assert(message->base.descriptor == &ltpb__hot_pixel_map__descriptor);
 238              		.loc 1 38 0
 239 0008 0D46     		mov	r5, r1
 240              		.loc 1 39 0
 241 000a 9A42     		cmp	r2, r3
 242 000c 03D0     		beq	.L17
 243              		.loc 1 39 0 is_stmt 0 discriminator 1
 244 000e 0548     		ldr	r0, .L18+4
 245              	.LVL22:
 246 0010 2721     		movs	r1, #39
 247              	.LVL23:
 248 0012 054B     		ldr	r3, .L18+8
 249 0014 9847     		blx	r3
 250              	.LVL24:
 251              	.L17:
  40:/home/tienluong/workspace/atlantis_fw/platform/common/lightheader/src/hot_pixel_map.pb-c.c ****   return protobuf_c_message_pack_to_buffer ((const ProtobufCMessage*)message, buffer);
 252              		.loc 1 40 0 is_stmt 1
 253 0016 2046     		mov	r0, r4
 254 0018 2946     		mov	r1, r5
 255 001a 044B     		ldr	r3, .L18+12
 256 001c 9847     		blx	r3
 257              	.LVL25:
  41:/home/tienluong/workspace/atlantis_fw/platform/common/lightheader/src/hot_pixel_map.pb-c.c **** }
 258              		.loc 1 41 0
 259 001e 38BD     		pop	{r3, r4, r5, pc}
 260              	.LVL26:
 261              	.L19:
 262              		.align	2
 263              	.L18:
 264 0020 00000000 		.word	.LANCHOR2
 265 0024 00000000 		.word	.LANCHOR5
 266 0028 00000000 		.word	assert_failed
 267 002c 00000000 		.word	protobuf_c_message_pack_to_buffer
 268              		.cfi_endproc
 269              	.LFE5:
 271              		.section	.text.ltpb__hot_pixel_map__unpack,"ax",%progbits
 272              		.align	1
 273              		.global	ltpb__hot_pixel_map__unpack
 274              		.thumb
 275              		.thumb_func
 277              	ltpb__hot_pixel_map__unpack:
 278              	.LFB6:
  42:/home/tienluong/workspace/atlantis_fw/platform/common/lightheader/src/hot_pixel_map.pb-c.c **** LIGHT_HEADER_FUNC Ltpb__HotPixelMap *
  43:/home/tienluong/workspace/atlantis_fw/platform/common/lightheader/src/hot_pixel_map.pb-c.c ****        ltpb__hot_pixel_map__unpack
  44:/home/tienluong/workspace/atlantis_fw/platform/common/lightheader/src/hot_pixel_map.pb-c.c ****                      (ProtobufCAllocator  *allocator,
  45:/home/tienluong/workspace/atlantis_fw/platform/common/lightheader/src/hot_pixel_map.pb-c.c ****                       size_t               len,
  46:/home/tienluong/workspace/atlantis_fw/platform/common/lightheader/src/hot_pixel_map.pb-c.c ****                       const uint8_t       *data)
  47:/home/tienluong/workspace/atlantis_fw/platform/common/lightheader/src/hot_pixel_map.pb-c.c **** {
 279              		.loc 1 47 0
 280              		.cfi_startproc
 281              		@ args = 0, pretend = 0, frame = 0
 282              		@ frame_needed = 0, uses_anonymous_args = 0
 283              	.LVL27:
 284 0000 38B5     		push	{r3, r4, r5, lr}
 285              	.LCFI5:
 286              		.cfi_def_cfa_offset 16
 287              		.cfi_offset 3, -16
 288              		.cfi_offset 4, -12
 289              		.cfi_offset 5, -8
 290              		.cfi_offset 14, -4
 291              		.loc 1 47 0
 292 0002 0546     		mov	r5, r0
 293 0004 0C46     		mov	r4, r1
 294 0006 1346     		mov	r3, r2
  48:/home/tienluong/workspace/atlantis_fw/platform/common/lightheader/src/hot_pixel_map.pb-c.c ****   return (Ltpb__HotPixelMap *)
 295              		.loc 1 48 0
 296 0008 2946     		mov	r1, r5
 297              	.LVL28:
 298 000a 2246     		mov	r2, r4
 299              	.LVL29:
 300 000c 0148     		ldr	r0, .L21
 301              	.LVL30:
 302 000e 024C     		ldr	r4, .L21+4
 303              	.LVL31:
 304 0010 A047     		blx	r4
 305              	.LVL32:
  49:/home/tienluong/workspace/atlantis_fw/platform/common/lightheader/src/hot_pixel_map.pb-c.c ****      protobuf_c_message_unpack (&ltpb__hot_pixel_map__descriptor,
  50:/home/tienluong/workspace/atlantis_fw/platform/common/lightheader/src/hot_pixel_map.pb-c.c ****                                 allocator, len, data);
  51:/home/tienluong/workspace/atlantis_fw/platform/common/lightheader/src/hot_pixel_map.pb-c.c **** }
 306              		.loc 1 51 0
 307 0012 38BD     		pop	{r3, r4, r5, pc}
 308              	.LVL33:
 309              	.L22:
 310              		.align	2
 311              	.L21:
 312 0014 00000000 		.word	.LANCHOR2
 313 0018 00000000 		.word	protobuf_c_message_unpack
 314              		.cfi_endproc
 315              	.LFE6:
 317              		.section	.text.ltpb__hot_pixel_map__free_unpacked,"ax",%progbits
 318              		.align	1
 319              		.global	ltpb__hot_pixel_map__free_unpacked
 320              		.thumb
 321              		.thumb_func
 323              	ltpb__hot_pixel_map__free_unpacked:
 324              	.LFB7:
  52:/home/tienluong/workspace/atlantis_fw/platform/common/lightheader/src/hot_pixel_map.pb-c.c **** LIGHT_HEADER_FUNC void   ltpb__hot_pixel_map__free_unpacked
  53:/home/tienluong/workspace/atlantis_fw/platform/common/lightheader/src/hot_pixel_map.pb-c.c ****                      (Ltpb__HotPixelMap *message,
  54:/home/tienluong/workspace/atlantis_fw/platform/common/lightheader/src/hot_pixel_map.pb-c.c ****                       ProtobufCAllocator *allocator)
  55:/home/tienluong/workspace/atlantis_fw/platform/common/lightheader/src/hot_pixel_map.pb-c.c **** {
 325              		.loc 1 55 0
 326              		.cfi_startproc
 327              		@ args = 0, pretend = 0, frame = 0
 328              		@ frame_needed = 0, uses_anonymous_args = 0
 329              	.LVL34:
 330 0000 38B5     		push	{r3, r4, r5, lr}
 331              	.LCFI6:
 332              		.cfi_def_cfa_offset 16
 333              		.cfi_offset 3, -16
 334              		.cfi_offset 4, -12
 335              		.cfi_offset 5, -8
 336              		.cfi_offset 14, -4
  56:/home/tienluong/workspace/atlantis_fw/platform/common/lightheader/src/hot_pixel_map.pb-c.c ****   assert(message->base.descriptor == &ltpb__hot_pixel_map__descriptor);
 337              		.loc 1 56 0
 338 0002 0268     		ldr	r2, [r0]
  55:/home/tienluong/workspace/atlantis_fw/platform/common/lightheader/src/hot_pixel_map.pb-c.c ****   assert(message->base.descriptor == &ltpb__hot_pixel_map__descriptor);
 339              		.loc 1 55 0
 340 0004 0446     		mov	r4, r0
 341              		.loc 1 56 0
 342 0006 064B     		ldr	r3, .L25
  55:/home/tienluong/workspace/atlantis_fw/platform/common/lightheader/src/hot_pixel_map.pb-c.c ****   assert(message->base.descriptor == &ltpb__hot_pixel_map__descriptor);
 343              		.loc 1 55 0
 344 0008 0D46     		mov	r5, r1
 345              		.loc 1 56 0
 346 000a 9A42     		cmp	r2, r3
 347 000c 03D0     		beq	.L24
 348              		.loc 1 56 0 is_stmt 0 discriminator 1
 349 000e 0548     		ldr	r0, .L25+4
 350              	.LVL35:
 351 0010 3821     		movs	r1, #56
 352              	.LVL36:
 353 0012 054B     		ldr	r3, .L25+8
 354 0014 9847     		blx	r3
 355              	.LVL37:
 356              	.L24:
  57:/home/tienluong/workspace/atlantis_fw/platform/common/lightheader/src/hot_pixel_map.pb-c.c ****   protobuf_c_message_free_unpacked ((ProtobufCMessage*)message, allocator);
 357              		.loc 1 57 0 is_stmt 1
 358 0016 2046     		mov	r0, r4
 359 0018 2946     		mov	r1, r5
 360 001a 044B     		ldr	r3, .L25+12
 361 001c 9847     		blx	r3
 362              	.LVL38:
 363 001e 38BD     		pop	{r3, r4, r5, pc}
 364              	.LVL39:
 365              	.L26:
 366              		.align	2
 367              	.L25:
 368 0020 00000000 		.word	.LANCHOR2
 369 0024 00000000 		.word	.LANCHOR6
 370 0028 00000000 		.word	assert_failed
 371 002c 00000000 		.word	protobuf_c_message_free_unpacked
 372              		.cfi_endproc
 373              	.LFE7:
 375              		.global	ltpb__hot_pixel_map__descriptor
 376              		.global	ltpb__hot_pixel_map__hot_pixel_measurement__descriptor
 377              		.section	.rodata.__FUNCTION__.6457,"a",%progbits
 378              		.set	.LANCHOR4,. + 0
 381              	__FUNCTION__.6457:
 382 0000 6C747062 		.ascii	"ltpb__hot_pixel_map__pack\000"
 382      5F5F686F 
 382      745F7069 
 382      78656C5F 
 382      6D61705F 
 383              		.section	.rodata.__FUNCTION__.6472,"a",%progbits
 384              		.set	.LANCHOR6,. + 0
 387              	__FUNCTION__.6472:
 388 0000 6C747062 		.ascii	"ltpb__hot_pixel_map__free_unpacked\000"
 388      5F5F686F 
 388      745F7069 
 388      78656C5F 
 388      6D61705F 
 389              		.section	.rodata.ltpb__hot_pixel_map__hot_pixel_measurement__field_indices_by_name,"a",%progbits
 390              		.align	2
 393              	ltpb__hot_pixel_map__hot_pixel_measurement__field_indices_by_name:
 394 0000 05000000 		.word	5
 395 0004 00000000 		.word	0
 396 0008 01000000 		.word	1
 397 000c 03000000 		.word	3
 398 0010 02000000 		.word	2
 399 0014 04000000 		.word	4
 400              		.section	.rodata.ltpb__hot_pixel_map__hot_pixel_measurement__number_ranges,"a",%progbits
 401              		.align	2
 404              	ltpb__hot_pixel_map__hot_pixel_measurement__number_ranges:
 405 0000 01000000 		.word	1
 406 0004 00000000 		.word	0
 407 0008 00000000 		.word	0
 408 000c 06000000 		.word	6
 409              		.section	.rodata.ltpb__hot_pixel_map__hot_pixel_measurement__descriptor,"a",%progbits
 410              		.align	2
 413              	ltpb__hot_pixel_map__hot_pixel_measurement__descriptor:
 414 0000 F9EEAA28 		.word	682290937
 415 0004 39000000 		.word	.LC5
 416 0008 5E000000 		.word	.LC6
 417 000c 72000000 		.word	.LC7
 418 0010 2F000000 		.word	.LC3
 419 0014 40000000 		.word	64
 420 0018 06000000 		.word	6
 421 001c 00000000 		.word	ltpb__hot_pixel_map__hot_pixel_measurement__field_descriptors
 422 0020 00000000 		.word	ltpb__hot_pixel_map__hot_pixel_measurement__field_indices_by_name
 423 0024 01000000 		.word	1
 424 0028 00000000 		.word	ltpb__hot_pixel_map__hot_pixel_measurement__number_ranges
 425 002c 00000000 		.word	ltpb__hot_pixel_map__hot_pixel_measurement__init
 426 0030 00000000 		.word	0
 427 0034 00000000 		.word	0
 428 0038 00000000 		.word	0
 429              		.section	.rodata.ltpb__hot_pixel_map__number_ranges,"a",%progbits
 430              		.align	2
 433              	ltpb__hot_pixel_map__number_ranges:
 434 0000 01000000 		.word	1
 435 0004 00000000 		.word	0
 436 0008 00000000 		.word	0
 437 000c 01000000 		.word	1
 438              		.section	.rodata.init_value.6444,"a",%progbits
 439              		.align	3
 440              		.set	.LANCHOR0,. + 0
 443              	init_value.6444:
 444 0000 00000000 		.word	ltpb__hot_pixel_map__hot_pixel_measurement__descriptor
 445 0004 00000000 		.word	0
 446 0008 00000000 		.word	0
 447 000c 00000000 		.space	4
 448 0010 00000000 		.word	0
 449 0014 00000000 		.word	0
 450 0018 00000000 		.word	0
 451 001c 00000000 		.word	0
 452 0020 00000000 		.word	0
 453 0024 00000000 		.space	4
 454 0028 00000000 		.word	0
 455 002c 00000000 		.word	0
 456 0030 00000000 		.word	0
 457 0034 00000000 		.word	0
 458 0038 00000000 		.word	0
 459 003c 00000000 		.word	0
 460              		.section	.rodata.str1.1,"aMS",%progbits,1
 461              	.LC0:
 462 0000 6C747062 		.ascii	"ltpb.HotPixelMap\000"
 462      2E486F74 
 462      50697865 
 462      6C4D6170 
 462      00
 463              	.LC1:
 464 0011 486F7450 		.ascii	"HotPixelMap\000"
 464      6978656C 
 464      4D617000 
 465              	.LC2:
 466 001d 4C747062 		.ascii	"Ltpb__HotPixelMap\000"
 466      5F5F486F 
 466      74506978 
 466      656C4D61 
 466      7000
 467              	.LC3:
 468 002f 6C747062 		.ascii	"ltpb\000"
 468      00
 469              	.LC4:
 470 0034 64617461 		.ascii	"data\000"
 470      00
 471              	.LC5:
 472 0039 6C747062 		.ascii	"ltpb.HotPixelMap.HotPixelMeasurement\000"
 472      2E486F74 
 472      50697865 
 472      6C4D6170 
 472      2E486F74 
 473              	.LC6:
 474 005e 486F7450 		.ascii	"HotPixelMeasurement\000"
 474      6978656C 
 474      4D656173 
 474      7572656D 
 474      656E7400 
 475              	.LC7:
 476 0072 4C747062 		.ascii	"Ltpb__HotPixelMap__HotPixelMeasurement\000"
 476      5F5F486F 
 476      74506978 
 476      656C4D61 
 476      705F5F48 
 477              	.LC8:
 478 0099 64617461 		.ascii	"data_offset\000"
 478      5F6F6666 
 478      73657400 
 479              	.LC9:
 480 00a5 64617461 		.ascii	"data_size\000"
 480      5F73697A 
 480      6500
 481              	.LC10:
 482 00af 6761696E 		.ascii	"gain\000"
 482      00
 483              	.LC11:
 484 00b4 6578706F 		.ascii	"exposure\000"
 484      73757265 
 484      00
 485              	.LC12:
 486 00bd 67726164 		.ascii	"gradient_threshold\000"
 486      69656E74 
 486      5F746872 
 486      6573686F 
 486      6C6400
 487              	.LC13:
 488 00d0 626C6163 		.ascii	"black_level_threshold\000"
 488      6B5F6C65 
 488      76656C5F 
 488      74687265 
 488      73686F6C 
 489              		.section	.rodata.init_value.6448,"a",%progbits
 490              		.align	2
 491              		.set	.LANCHOR1,. + 0
 494              	init_value.6448:
 495 0000 00000000 		.word	ltpb__hot_pixel_map__descriptor
 496 0004 00000000 		.word	0
 497 0008 00000000 		.word	0
 498 000c 00000000 		.word	0
 499 0010 00000000 		.word	0
 500              		.section	.rodata.ltpb__hot_pixel_map__descriptor,"a",%progbits
 501              		.align	2
 502              		.set	.LANCHOR2,. + 0
 505              	ltpb__hot_pixel_map__descriptor:
 506 0000 F9EEAA28 		.word	682290937
 507 0004 00000000 		.word	.LC0
 508 0008 11000000 		.word	.LC1
 509 000c 1D000000 		.word	.LC2
 510 0010 2F000000 		.word	.LC3
 511 0014 14000000 		.word	20
 512 0018 01000000 		.word	1
 513 001c 00000000 		.word	ltpb__hot_pixel_map__field_descriptors
 514 0020 00000000 		.word	ltpb__hot_pixel_map__field_indices_by_name
 515 0024 01000000 		.word	1
 516 0028 00000000 		.word	ltpb__hot_pixel_map__number_ranges
 517 002c 00000000 		.word	ltpb__hot_pixel_map__init
 518 0030 00000000 		.word	0
 519 0034 00000000 		.word	0
 520 0038 00000000 		.word	0
 521              		.section	.rodata.__FUNCTION__.6462,"a",%progbits
 522              		.set	.LANCHOR5,. + 0
 525              	__FUNCTION__.6462:
 526 0000 6C747062 		.ascii	"ltpb__hot_pixel_map__pack_to_buffer\000"
 526      5F5F686F 
 526      745F7069 
 526      78656C5F 
 526      6D61705F 
 527              		.section	.rodata.ltpb__hot_pixel_map__hot_pixel_measurement__field_descriptors,"a",%progbits
 528              		.align	2
 531              	ltpb__hot_pixel_map__hot_pixel_measurement__field_descriptors:
 532 0000 99000000 		.word	.LC8
 533 0004 01000000 		.word	1
 534 0008 00       		.byte	0
 535 0009 08       		.byte	8
 536 000a 0000     		.space	2
 537 000c 00000000 		.word	0
 538 0010 10000000 		.word	16
 539 0014 00000000 		.word	0
 540 0018 00000000 		.word	0
 541 001c 00000000 		.word	0
 542 0020 00000000 		.word	0
 543 0024 00000000 		.word	0
 544 0028 00000000 		.word	0
 545 002c A5000000 		.word	.LC9
 546 0030 02000000 		.word	2
 547 0034 00       		.byte	0
 548 0035 06       		.byte	6
 549 0036 0000     		.space	2
 550 0038 00000000 		.word	0
 551 003c 18000000 		.word	24
 552 0040 00000000 		.word	0
 553 0044 00000000 		.word	0
 554 0048 00000000 		.word	0
 555 004c 00000000 		.word	0
 556 0050 00000000 		.word	0
 557 0054 00000000 		.word	0
 558 0058 AF000000 		.word	.LC10
 559 005c 03000000 		.word	3
 560 0060 00       		.byte	0
 561 0061 06       		.byte	6
 562 0062 0000     		.space	2
 563 0064 00000000 		.word	0
 564 0068 1C000000 		.word	28
 565 006c 00000000 		.word	0
 566 0070 00000000 		.word	0
 567 0074 00000000 		.word	0
 568 0078 00000000 		.word	0
 569 007c 00000000 		.word	0
 570 0080 00000000 		.word	0
 571 0084 B4000000 		.word	.LC11
 572 0088 04000000 		.word	4
 573 008c 01       		.byte	1
 574 008d 08       		.byte	8
 575 008e 0000     		.space	2
 576 0090 20000000 		.word	32
 577 0094 28000000 		.word	40
 578 0098 00000000 		.word	0
 579 009c 00000000 		.word	0
 580 00a0 00000000 		.word	0
 581 00a4 00000000 		.word	0
 582 00a8 00000000 		.word	0
 583 00ac 00000000 		.word	0
 584 00b0 BD000000 		.word	.LC12
 585 00b4 05000000 		.word	5
 586 00b8 01       		.byte	1
 587 00b9 0A       		.byte	10
 588 00ba 0000     		.space	2
 589 00bc 30000000 		.word	48
 590 00c0 34000000 		.word	52
 591 00c4 00000000 		.word	0
 592 00c8 00000000 		.word	0
 593 00cc 00000000 		.word	0
 594 00d0 00000000 		.word	0
 595 00d4 00000000 		.word	0
 596 00d8 00000000 		.word	0
 597 00dc D0000000 		.word	.LC13
 598 00e0 06000000 		.word	6
 599 00e4 01       		.byte	1
 600 00e5 0A       		.byte	10
 601 00e6 0000     		.space	2
 602 00e8 38000000 		.word	56
 603 00ec 3C000000 		.word	60
 604 00f0 00000000 		.word	0
 605 00f4 00000000 		.word	0
 606 00f8 00000000 		.word	0
 607 00fc 00000000 		.word	0
 608 0100 00000000 		.word	0
 609 0104 00000000 		.word	0
 610              		.section	.rodata.__FUNCTION__.6452,"a",%progbits
 611              		.set	.LANCHOR3,. + 0
 614              	__FUNCTION__.6452:
 615 0000 6C747062 		.ascii	"ltpb__hot_pixel_map__get_packed_size\000"
 615      5F5F686F 
 615      745F7069 
 615      78656C5F 
 615      6D61705F 
 616              		.section	.rodata.ltpb__hot_pixel_map__field_indices_by_name,"a",%progbits
 617              		.align	2
 620              	ltpb__hot_pixel_map__field_indices_by_name:
 621 0000 00000000 		.space	4
 622              		.section	.rodata.ltpb__hot_pixel_map__field_descriptors,"a",%progbits
 623              		.align	2
 626              	ltpb__hot_pixel_map__field_descriptors:
 627 0000 34000000 		.word	.LC4
 628 0004 01000000 		.word	1
 629 0008 02       		.byte	2
 630 0009 10       		.byte	16
 631 000a 0000     		.space	2
 632 000c 0C000000 		.word	12
 633 0010 10000000 		.word	16
 634 0014 00000000 		.word	ltpb__hot_pixel_map__hot_pixel_measurement__descriptor
 635 0018 00000000 		.word	0
 636 001c 00000000 		.word	0
 637 0020 00000000 		.word	0
 638 0024 00000000 		.word	0
 639 0028 00000000 		.word	0
 640              		.text
 641              	.Letext0:
 642              		.file 2 "/opt/toolchains/gcc-arm-none-eabi-4_9-2015q1/arm-none-eabi/include/machine/_default_types
 643              		.file 3 "/opt/toolchains/gcc-arm-none-eabi-4_9-2015q1/lib/gcc/arm-none-eabi/4.9.3/include/stddef.h
 644              		.file 4 "/opt/toolchains/gcc-arm-none-eabi-4_9-2015q1/arm-none-eabi/include/stdint.h"
 645              		.file 5 "/home/tienluong/workspace/atlantis_fw/platform/os/Source/portable/GCC/cortex-r4/portmacro
 646              		.file 6 "/home/tienluong/workspace/atlantis_fw/platform/common/lightheader/include/protobuf-c/prot
 647              		.file 7 "/home/tienluong/workspace/atlantis_fw/platform/common/lightheader/include/hot_pixel_map.p
DEFINED SYMBOLS
                            *ABS*:00000000 hot_pixel_map.pb-c.c
     /tmp/cchsNiak.s:19     .text.ltpb__hot_pixel_map__hot_pixel_measurement__init:00000000 $t
     /tmp/cchsNiak.s:24     .text.ltpb__hot_pixel_map__hot_pixel_measurement__init:00000000 ltpb__hot_pixel_map__hot_pixel_measurement__init
     /tmp/cchsNiak.s:58     .text.ltpb__hot_pixel_map__hot_pixel_measurement__init:0000001c $d
     /tmp/cchsNiak.s:63     .text.ltpb__hot_pixel_map__init:00000000 $t
     /tmp/cchsNiak.s:68     .text.ltpb__hot_pixel_map__init:00000000 ltpb__hot_pixel_map__init
     /tmp/cchsNiak.s:95     .text.ltpb__hot_pixel_map__init:00000010 $d
     /tmp/cchsNiak.s:100    .text.ltpb__hot_pixel_map__get_packed_size:00000000 $t
     /tmp/cchsNiak.s:105    .text.ltpb__hot_pixel_map__get_packed_size:00000000 ltpb__hot_pixel_map__get_packed_size
     /tmp/cchsNiak.s:146    .text.ltpb__hot_pixel_map__get_packed_size:0000001c $d
     /tmp/cchsNiak.s:154    .text.ltpb__hot_pixel_map__pack:00000000 $t
     /tmp/cchsNiak.s:159    .text.ltpb__hot_pixel_map__pack:00000000 ltpb__hot_pixel_map__pack
     /tmp/cchsNiak.s:205    .text.ltpb__hot_pixel_map__pack:00000020 $d
     /tmp/cchsNiak.s:213    .text.ltpb__hot_pixel_map__pack_to_buffer:00000000 $t
     /tmp/cchsNiak.s:218    .text.ltpb__hot_pixel_map__pack_to_buffer:00000000 ltpb__hot_pixel_map__pack_to_buffer
     /tmp/cchsNiak.s:264    .text.ltpb__hot_pixel_map__pack_to_buffer:00000020 $d
     /tmp/cchsNiak.s:272    .text.ltpb__hot_pixel_map__unpack:00000000 $t
     /tmp/cchsNiak.s:277    .text.ltpb__hot_pixel_map__unpack:00000000 ltpb__hot_pixel_map__unpack
     /tmp/cchsNiak.s:312    .text.ltpb__hot_pixel_map__unpack:00000014 $d
     /tmp/cchsNiak.s:318    .text.ltpb__hot_pixel_map__free_unpacked:00000000 $t
     /tmp/cchsNiak.s:323    .text.ltpb__hot_pixel_map__free_unpacked:00000000 ltpb__hot_pixel_map__free_unpacked
     /tmp/cchsNiak.s:368    .text.ltpb__hot_pixel_map__free_unpacked:00000020 $d
     /tmp/cchsNiak.s:505    .rodata.ltpb__hot_pixel_map__descriptor:00000000 ltpb__hot_pixel_map__descriptor
     /tmp/cchsNiak.s:413    .rodata.ltpb__hot_pixel_map__hot_pixel_measurement__descriptor:00000000 ltpb__hot_pixel_map__hot_pixel_measurement__descriptor
     /tmp/cchsNiak.s:381    .rodata.__FUNCTION__.6457:00000000 __FUNCTION__.6457
     /tmp/cchsNiak.s:387    .rodata.__FUNCTION__.6472:00000000 __FUNCTION__.6472
     /tmp/cchsNiak.s:390    .rodata.ltpb__hot_pixel_map__hot_pixel_measurement__field_indices_by_name:00000000 $d
     /tmp/cchsNiak.s:393    .rodata.ltpb__hot_pixel_map__hot_pixel_measurement__field_indices_by_name:00000000 ltpb__hot_pixel_map__hot_pixel_measurement__field_indices_by_name
     /tmp/cchsNiak.s:401    .rodata.ltpb__hot_pixel_map__hot_pixel_measurement__number_ranges:00000000 $d
     /tmp/cchsNiak.s:404    .rodata.ltpb__hot_pixel_map__hot_pixel_measurement__number_ranges:00000000 ltpb__hot_pixel_map__hot_pixel_measurement__number_ranges
     /tmp/cchsNiak.s:410    .rodata.ltpb__hot_pixel_map__hot_pixel_measurement__descriptor:00000000 $d
     /tmp/cchsNiak.s:531    .rodata.ltpb__hot_pixel_map__hot_pixel_measurement__field_descriptors:00000000 ltpb__hot_pixel_map__hot_pixel_measurement__field_descriptors
     /tmp/cchsNiak.s:430    .rodata.ltpb__hot_pixel_map__number_ranges:00000000 $d
     /tmp/cchsNiak.s:433    .rodata.ltpb__hot_pixel_map__number_ranges:00000000 ltpb__hot_pixel_map__number_ranges
     /tmp/cchsNiak.s:439    .rodata.init_value.6444:00000000 $d
     /tmp/cchsNiak.s:443    .rodata.init_value.6444:00000000 init_value.6444
     /tmp/cchsNiak.s:490    .rodata.init_value.6448:00000000 $d
     /tmp/cchsNiak.s:494    .rodata.init_value.6448:00000000 init_value.6448
     /tmp/cchsNiak.s:501    .rodata.ltpb__hot_pixel_map__descriptor:00000000 $d
     /tmp/cchsNiak.s:626    .rodata.ltpb__hot_pixel_map__field_descriptors:00000000 ltpb__hot_pixel_map__field_descriptors
     /tmp/cchsNiak.s:620    .rodata.ltpb__hot_pixel_map__field_indices_by_name:00000000 ltpb__hot_pixel_map__field_indices_by_name
     /tmp/cchsNiak.s:525    .rodata.__FUNCTION__.6462:00000000 __FUNCTION__.6462
     /tmp/cchsNiak.s:528    .rodata.ltpb__hot_pixel_map__hot_pixel_measurement__field_descriptors:00000000 $d
     /tmp/cchsNiak.s:614    .rodata.__FUNCTION__.6452:00000000 __FUNCTION__.6452
     /tmp/cchsNiak.s:617    .rodata.ltpb__hot_pixel_map__field_indices_by_name:00000000 $d
     /tmp/cchsNiak.s:623    .rodata.ltpb__hot_pixel_map__field_descriptors:00000000 $d
                     .debug_frame:00000010 $d

UNDEFINED SYMBOLS
assert_failed
protobuf_c_message_get_packed_size
protobuf_c_message_pack
protobuf_c_message_pack_to_buffer
protobuf_c_message_unpack
protobuf_c_message_free_unpacked
