   1              		.syntax unified
   2              		.cpu cortex-r4
   3              		.fpu softvfp
   4              		.eabi_attribute 20, 1
   5              		.eabi_attribute 21, 1
   6              		.eabi_attribute 23, 3
   7              		.eabi_attribute 24, 1
   8              		.eabi_attribute 25, 1
   9              		.eabi_attribute 26, 1
  10              		.eabi_attribute 30, 4
  11              		.eabi_attribute 34, 1
  12              		.eabi_attribute 18, 4
  13              		.thumb
  14              		.file	"light_header.c"
  15              		.text
  16              	.Ltext0:
  17              		.cfi_sections	.debug_frame
  18              		.section	.text.alloc_pbuf_lh,"ax",%progbits
  19              		.align	1
  20              		.thumb
  21              		.thumb_func
  23              	alloc_pbuf_lh:
  24              	.LFB34:
  25              		.file 1 "/home/tienluong/workspace/atlantis_fw/platform/common/lightheader/src/light_header.c"
   1:/home/tienluong/workspace/atlantis_fw/platform/common/lightheader/src/light_header.c **** /*******************************************************************************
   2:/home/tienluong/workspace/atlantis_fw/platform/common/lightheader/src/light_header.c ****  * Copyright (c) 2016, The LightCo
   3:/home/tienluong/workspace/atlantis_fw/platform/common/lightheader/src/light_header.c ****  * All rights reserved.
   4:/home/tienluong/workspace/atlantis_fw/platform/common/lightheader/src/light_header.c ****  * Redistribution and use in source and binary forms,
   5:/home/tienluong/workspace/atlantis_fw/platform/common/lightheader/src/light_header.c ****  * with or without modification,
   6:/home/tienluong/workspace/atlantis_fw/platform/common/lightheader/src/light_header.c ****  * are strictly prohibited without prior permission of The LightCo.
   7:/home/tienluong/workspace/atlantis_fw/platform/common/lightheader/src/light_header.c ****  *
   8:/home/tienluong/workspace/atlantis_fw/platform/common/lightheader/src/light_header.c ****  * @file    light_header.c
   9:/home/tienluong/workspace/atlantis_fw/platform/common/lightheader/src/light_header.c ****  * @author  The LightCo
  10:/home/tienluong/workspace/atlantis_fw/platform/common/lightheader/src/light_header.c ****  * @version V1.0.0
  11:/home/tienluong/workspace/atlantis_fw/platform/common/lightheader/src/light_header.c ****  * @date    July-25-2016
  12:/home/tienluong/workspace/atlantis_fw/platform/common/lightheader/src/light_header.c ****  * @brief
  13:/home/tienluong/workspace/atlantis_fw/platform/common/lightheader/src/light_header.c ****  *
  14:/home/tienluong/workspace/atlantis_fw/platform/common/lightheader/src/light_header.c ****  ******************************************************************************/
  15:/home/tienluong/workspace/atlantis_fw/platform/common/lightheader/src/light_header.c **** /* Includes ------------------------------------------------------------------*/
  16:/home/tienluong/workspace/atlantis_fw/platform/common/lightheader/src/light_header.c **** #include "light_header.h"
  17:/home/tienluong/workspace/atlantis_fw/platform/common/lightheader/src/light_header.c **** #include "img_sensor.h"
  18:/home/tienluong/workspace/atlantis_fw/platform/common/lightheader/src/light_header.c **** #include "light_system.h"
  19:/home/tienluong/workspace/atlantis_fw/platform/common/lightheader/src/light_header.c **** #include "task_cam_ctrl.h"
  20:/home/tienluong/workspace/atlantis_fw/platform/common/lightheader/src/light_header.c **** #include "temperature.h"
  21:/home/tienluong/workspace/atlantis_fw/platform/common/lightheader/src/light_header.c **** #include "timestamp.h"
  22:/home/tienluong/workspace/atlantis_fw/platform/common/lightheader/src/light_header.c **** #include "stdint.h"
  23:/home/tienluong/workspace/atlantis_fw/platform/common/lightheader/src/light_header.c **** #include "i2cm.h"
  24:/home/tienluong/workspace/atlantis_fw/platform/common/lightheader/src/light_header.c **** #include "img_sensor.h"
  25:/home/tienluong/workspace/atlantis_fw/platform/common/lightheader/src/light_header.c **** #include "sections.h"
  26:/home/tienluong/workspace/atlantis_fw/platform/common/lightheader/src/light_header.c **** #include "rtc.h"
  27:/home/tienluong/workspace/atlantis_fw/platform/common/lightheader/src/light_header.c **** #include "ar1335.h"
  28:/home/tienluong/workspace/atlantis_fw/platform/common/lightheader/src/light_header.c **** #include "gen_heap.h"
  29:/home/tienluong/workspace/atlantis_fw/platform/common/lightheader/src/light_header.c **** #include "ddr_heap.h"
  30:/home/tienluong/workspace/atlantis_fw/platform/common/lightheader/src/light_header.c **** 
  31:/home/tienluong/workspace/atlantis_fw/platform/common/lightheader/src/light_header.c **** /* Private typedef -----------------------------------------------------------*/
  32:/home/tienluong/workspace/atlantis_fw/platform/common/lightheader/src/light_header.c **** 
  33:/home/tienluong/workspace/atlantis_fw/platform/common/lightheader/src/light_header.c **** typedef enum color_t
  34:/home/tienluong/workspace/atlantis_fw/platform/common/lightheader/src/light_header.c **** {
  35:/home/tienluong/workspace/atlantis_fw/platform/common/lightheader/src/light_header.c **** 	RED = 0,
  36:/home/tienluong/workspace/atlantis_fw/platform/common/lightheader/src/light_header.c **** 	GREEN,
  37:/home/tienluong/workspace/atlantis_fw/platform/common/lightheader/src/light_header.c **** 	BLUE,
  38:/home/tienluong/workspace/atlantis_fw/platform/common/lightheader/src/light_header.c **** 	PANCHROMATIC
  39:/home/tienluong/workspace/atlantis_fw/platform/common/lightheader/src/light_header.c **** } color;
  40:/home/tienluong/workspace/atlantis_fw/platform/common/lightheader/src/light_header.c **** 
  41:/home/tienluong/workspace/atlantis_fw/platform/common/lightheader/src/light_header.c **** /* Private define ------------------------------------------------------------*/
  42:/home/tienluong/workspace/atlantis_fw/platform/common/lightheader/src/light_header.c **** #define SELECT_ALL_CAM					(uint32_t)0x1ffff
  43:/home/tienluong/workspace/atlantis_fw/platform/common/lightheader/src/light_header.c **** #define	GLOBAL_BIT_MASK					0x01
  44:/home/tienluong/workspace/atlantis_fw/platform/common/lightheader/src/light_header.c **** #define CAM_MODULE_OPEN					(1 << 4)
  45:/home/tienluong/workspace/atlantis_fw/platform/common/lightheader/src/light_header.c **** 
  46:/home/tienluong/workspace/atlantis_fw/platform/common/lightheader/src/light_header.c **** #define BYTE_MASK						0xff
  47:/home/tienluong/workspace/atlantis_fw/platform/common/lightheader/src/light_header.c **** #define RAW_MASK						0x3ff
  48:/home/tienluong/workspace/atlantis_fw/platform/common/lightheader/src/light_header.c **** 
  49:/home/tienluong/workspace/atlantis_fw/platform/common/lightheader/src/light_header.c **** #define VERTICAL_FLIP_MASK				BIT15
  50:/home/tienluong/workspace/atlantis_fw/platform/common/lightheader/src/light_header.c **** #define HORIZOTAL_FLIP_MASK				BIT14
  51:/home/tienluong/workspace/atlantis_fw/platform/common/lightheader/src/light_header.c **** 
  52:/home/tienluong/workspace/atlantis_fw/platform/common/lightheader/src/light_header.c **** #define CAM_A1							0xA1
  53:/home/tienluong/workspace/atlantis_fw/platform/common/lightheader/src/light_header.c **** #define CAM_A2							0xA2
  54:/home/tienluong/workspace/atlantis_fw/platform/common/lightheader/src/light_header.c **** #define CAM_A3							0xA3
  55:/home/tienluong/workspace/atlantis_fw/platform/common/lightheader/src/light_header.c **** #define CAM_A4							0xA4
  56:/home/tienluong/workspace/atlantis_fw/platform/common/lightheader/src/light_header.c **** #define CAM_A5							0xA5
  57:/home/tienluong/workspace/atlantis_fw/platform/common/lightheader/src/light_header.c **** #define CAM_B1							0xB1
  58:/home/tienluong/workspace/atlantis_fw/platform/common/lightheader/src/light_header.c **** #define CAM_B2							0xB2
  59:/home/tienluong/workspace/atlantis_fw/platform/common/lightheader/src/light_header.c **** #define CAM_B3							0xB3
  60:/home/tienluong/workspace/atlantis_fw/platform/common/lightheader/src/light_header.c **** #define CAM_B4							0xB4
  61:/home/tienluong/workspace/atlantis_fw/platform/common/lightheader/src/light_header.c **** #define CAM_B5							0xB5
  62:/home/tienluong/workspace/atlantis_fw/platform/common/lightheader/src/light_header.c **** #define CAM_C1							0xC1
  63:/home/tienluong/workspace/atlantis_fw/platform/common/lightheader/src/light_header.c **** #define CAM_C2							0xC2
  64:/home/tienluong/workspace/atlantis_fw/platform/common/lightheader/src/light_header.c **** #define CAM_C3							0xC3
  65:/home/tienluong/workspace/atlantis_fw/platform/common/lightheader/src/light_header.c **** #define CAM_C4							0xC4
  66:/home/tienluong/workspace/atlantis_fw/platform/common/lightheader/src/light_header.c **** #define CAM_C5							0xC5
  67:/home/tienluong/workspace/atlantis_fw/platform/common/lightheader/src/light_header.c **** #define CAM_C6							0xC6
  68:/home/tienluong/workspace/atlantis_fw/platform/common/lightheader/src/light_header.c **** 
  69:/home/tienluong/workspace/atlantis_fw/platform/common/lightheader/src/light_header.c **** #define TIME_STAMP_BUFF_SIZE			10
  70:/home/tienluong/workspace/atlantis_fw/platform/common/lightheader/src/light_header.c **** 
  71:/home/tienluong/workspace/atlantis_fw/platform/common/lightheader/src/light_header.c **** #define	FORMAT_RAW8						0x2A
  72:/home/tienluong/workspace/atlantis_fw/platform/common/lightheader/src/light_header.c **** #define	FORMAT_RAW10					0x2B
  73:/home/tienluong/workspace/atlantis_fw/platform/common/lightheader/src/light_header.c **** #define	FORMAT_RAW12					0x2C
  74:/home/tienluong/workspace/atlantis_fw/platform/common/lightheader/src/light_header.c **** #define	FORMAT_RAW14					0x2D
  75:/home/tienluong/workspace/atlantis_fw/platform/common/lightheader/src/light_header.c **** #define	FORMAT_LIGHT_RAW				0x30
  76:/home/tienluong/workspace/atlantis_fw/platform/common/lightheader/src/light_header.c **** 
  77:/home/tienluong/workspace/atlantis_fw/platform/common/lightheader/src/light_header.c **** #define TEMP_SENSOR_RESET				0x0000
  78:/home/tienluong/workspace/atlantis_fw/platform/common/lightheader/src/light_header.c **** #define TEMP_SENSOR_RESET_DATA			0x0021
  79:/home/tienluong/workspace/atlantis_fw/platform/common/lightheader/src/light_header.c **** #define TEMP_SENSOR_START_READ			0x0011
  80:/home/tienluong/workspace/atlantis_fw/platform/common/lightheader/src/light_header.c **** #define TEMP_SENSOR_CTRL_REG			0x3126
  81:/home/tienluong/workspace/atlantis_fw/platform/common/lightheader/src/light_header.c **** #define TEMP_SENSOR_DATA_REG			0x3124
  82:/home/tienluong/workspace/atlantis_fw/platform/common/lightheader/src/light_header.c **** #define TEMP_SENSOR_CAL1_REG			0x3128
  83:/home/tienluong/workspace/atlantis_fw/platform/common/lightheader/src/light_header.c **** #define TEMP_SENSOR_CAL2_REG			0x312A
  84:/home/tienluong/workspace/atlantis_fw/platform/common/lightheader/src/light_header.c **** #define CAMERA_IMAGE_SENSOR_ADDRESS		(0x6C >> 1)  /* Aptina */
  85:/home/tienluong/workspace/atlantis_fw/platform/common/lightheader/src/light_header.c **** #define TEMP_RAW_MASK					0x3ff
  86:/home/tienluong/workspace/atlantis_fw/platform/common/lightheader/src/light_header.c **** 
  87:/home/tienluong/workspace/atlantis_fw/platform/common/lightheader/src/light_header.c **** #define BLACK_LEVEL						(42)
  88:/home/tienluong/workspace/atlantis_fw/platform/common/lightheader/src/light_header.c **** #define WHITE_LEVEL						(1023)
  89:/home/tienluong/workspace/atlantis_fw/platform/common/lightheader/src/light_header.c **** #define CLIFF_SLOPE						(2)
  90:/home/tienluong/workspace/atlantis_fw/platform/common/lightheader/src/light_header.c **** 
  91:/home/tienluong/workspace/atlantis_fw/platform/common/lightheader/src/light_header.c **** #define MAX_ANALOG_GAIN						(float)(7.75)
  92:/home/tienluong/workspace/atlantis_fw/platform/common/lightheader/src/light_header.c **** 
  93:/home/tienluong/workspace/atlantis_fw/platform/common/lightheader/src/light_header.c **** static heap_attribute_t* const light_header_heap = &ddr_heap_attribute;
  94:/home/tienluong/workspace/atlantis_fw/platform/common/lightheader/src/light_header.c **** 
  95:/home/tienluong/workspace/atlantis_fw/platform/common/lightheader/src/light_header.c **** /* Private macro -------------------------------------------------------------*/
  96:/home/tienluong/workspace/atlantis_fw/platform/common/lightheader/src/light_header.c **** /* Private variables ---------------------------------------------------------*/
  97:/home/tienluong/workspace/atlantis_fw/platform/common/lightheader/src/light_header.c **** 
  98:/home/tienluong/workspace/atlantis_fw/platform/common/lightheader/src/light_header.c **** /* Private function prototypes -----------------------------------------------*/
  99:/home/tienluong/workspace/atlantis_fw/platform/common/lightheader/src/light_header.c **** LIGHT_HEADER_FUNC uint8_t get_cam_total_number(uint32_t m_bitmask);
 100:/home/tienluong/workspace/atlantis_fw/platform/common/lightheader/src/light_header.c **** 
 101:/home/tienluong/workspace/atlantis_fw/platform/common/lightheader/src/light_header.c **** LIGHT_HEADER_FUNC Ltpb__CameraID get_cam_id(cam_typedef_t *pcam);
 102:/home/tienluong/workspace/atlantis_fw/platform/common/lightheader/src/light_header.c **** LIGHT_HEADER_FUNC Ltpb__CameraModule *get_cam_module(cam_typedef_t *pcam);
 103:/home/tienluong/workspace/atlantis_fw/platform/common/lightheader/src/light_header.c **** 
 104:/home/tienluong/workspace/atlantis_fw/platform/common/lightheader/src/light_header.c **** /*
 105:/home/tienluong/workspace/atlantis_fw/platform/common/lightheader/src/light_header.c ****  * static uint8_t check_mirror_present(cam_typedef_t *pcam);
 106:/home/tienluong/workspace/atlantis_fw/platform/common/lightheader/src/light_header.c ****  * static Ltpb__Point2I *get_bayer_red_coord(cam_typedef_t *pcam);
 107:/home/tienluong/workspace/atlantis_fw/platform/common/lightheader/src/light_header.c ****  * static Ltpb__SensorType get_sensor_type(cam_typedef_t *pcam);
 108:/home/tienluong/workspace/atlantis_fw/platform/common/lightheader/src/light_header.c ****  */
 109:/home/tienluong/workspace/atlantis_fw/platform/common/lightheader/src/light_header.c **** 
 110:/home/tienluong/workspace/atlantis_fw/platform/common/lightheader/src/light_header.c **** LIGHT_HEADER_FUNC Ltpb__CameraModule__AFInfo *get_auto_focus_info(cam_typedef_t *pcam);
 111:/home/tienluong/workspace/atlantis_fw/platform/common/lightheader/src/light_header.c **** 
 112:/home/tienluong/workspace/atlantis_fw/platform/common/lightheader/src/light_header.c **** LIGHT_HEADER_FUNC int32_t get_img_focal_length(cam_typedef_t *ref_cam);
 113:/home/tienluong/workspace/atlantis_fw/platform/common/lightheader/src/light_header.c **** LIGHT_HEADER_FUNC char *get_device_asic_fw_version(void);
 114:/home/tienluong/workspace/atlantis_fw/platform/common/lightheader/src/light_header.c **** LIGHT_HEADER_FUNC char *get_device_fw_version(void);
 115:/home/tienluong/workspace/atlantis_fw/platform/common/lightheader/src/light_header.c **** LIGHT_HEADER_FUNC char *get_device_model_name(void);
 116:/home/tienluong/workspace/atlantis_fw/platform/common/lightheader/src/light_header.c **** LIGHT_HEADER_FUNC uint8_t  *get_device_unique_id(cam_typedef_t *pcam);
 117:/home/tienluong/workspace/atlantis_fw/platform/common/lightheader/src/light_header.c **** 
 118:/home/tienluong/workspace/atlantis_fw/platform/common/lightheader/src/light_header.c **** extern cam_typedef_t *get_cam_thumbnail(uint32_t m_bitmask);
 119:/home/tienluong/workspace/atlantis_fw/platform/common/lightheader/src/light_header.c **** extern uint8_t cam_mem_idx[6];
 120:/home/tienluong/workspace/atlantis_fw/platform/common/lightheader/src/light_header.c **** extern uint32_t img_bytes;
 121:/home/tienluong/workspace/atlantis_fw/platform/common/lightheader/src/light_header.c **** 
 122:/home/tienluong/workspace/atlantis_fw/platform/common/lightheader/src/light_header.c **** /* Private functions ---------------------------------------------------------*/
 123:/home/tienluong/workspace/atlantis_fw/platform/common/lightheader/src/light_header.c **** LIGHT_HEADER_FUNC Ltpb__Point2I *get_default_point2i(int x, int y)
 124:/home/tienluong/workspace/atlantis_fw/platform/common/lightheader/src/light_header.c **** {
 125:/home/tienluong/workspace/atlantis_fw/platform/common/lightheader/src/light_header.c **** 	Ltpb__Point2I *p = gen_pvPortMalloc(light_header_heap, sizeof(Ltpb__Point2I));
 126:/home/tienluong/workspace/atlantis_fw/platform/common/lightheader/src/light_header.c **** 	ltpb__point2_i__init(p);
 127:/home/tienluong/workspace/atlantis_fw/platform/common/lightheader/src/light_header.c **** 	p->x = x;
 128:/home/tienluong/workspace/atlantis_fw/platform/common/lightheader/src/light_header.c **** 	p->y = y;
 129:/home/tienluong/workspace/atlantis_fw/platform/common/lightheader/src/light_header.c **** 	return p;
 130:/home/tienluong/workspace/atlantis_fw/platform/common/lightheader/src/light_header.c **** }
 131:/home/tienluong/workspace/atlantis_fw/platform/common/lightheader/src/light_header.c **** LIGHT_HEADER_FUNC Ltpb__Point2F *get_default_point2f(float x, float y)
 132:/home/tienluong/workspace/atlantis_fw/platform/common/lightheader/src/light_header.c **** {
 133:/home/tienluong/workspace/atlantis_fw/platform/common/lightheader/src/light_header.c **** 	Ltpb__Point2F *p = gen_pvPortMalloc(light_header_heap, sizeof(Ltpb__Point2F));
 134:/home/tienluong/workspace/atlantis_fw/platform/common/lightheader/src/light_header.c **** 	ltpb__point2_f__init(p);
 135:/home/tienluong/workspace/atlantis_fw/platform/common/lightheader/src/light_header.c **** 	p->x = x;
 136:/home/tienluong/workspace/atlantis_fw/platform/common/lightheader/src/light_header.c **** 	p->y = y;
 137:/home/tienluong/workspace/atlantis_fw/platform/common/lightheader/src/light_header.c **** 	return p;
 138:/home/tienluong/workspace/atlantis_fw/platform/common/lightheader/src/light_header.c **** 
 139:/home/tienluong/workspace/atlantis_fw/platform/common/lightheader/src/light_header.c **** }
 140:/home/tienluong/workspace/atlantis_fw/platform/common/lightheader/src/light_header.c **** LIGHT_HEADER_FUNC short cam_read_temperature(cam_typedef_t *pcam)
 141:/home/tienluong/workspace/atlantis_fw/platform/common/lightheader/src/light_header.c **** {
 142:/home/tienluong/workspace/atlantis_fw/platform/common/lightheader/src/light_header.c **** 	uint16_t tmp_raw = 0;
 143:/home/tienluong/workspace/atlantis_fw/platform/common/lightheader/src/light_header.c **** 	uint16_t calib = 0;
 144:/home/tienluong/workspace/atlantis_fw/platform/common/lightheader/src/light_header.c **** 	short temp = 0.0;
 145:/home/tienluong/workspace/atlantis_fw/platform/common/lightheader/src/light_header.c **** 
 146:/home/tienluong/workspace/atlantis_fw/platform/common/lightheader/src/light_header.c **** 	img_sensor_t *img_sensor;
 147:/home/tienluong/workspace/atlantis_fw/platform/common/lightheader/src/light_header.c **** 	img_sensor = pcam->image;
 148:/home/tienluong/workspace/atlantis_fw/platform/common/lightheader/src/light_header.c **** 
 149:/home/tienluong/workspace/atlantis_fw/platform/common/lightheader/src/light_header.c **** 	/* Reset temp data */
 150:/home/tienluong/workspace/atlantis_fw/platform/common/lightheader/src/light_header.c **** 	if (I2CM_ERROR_TRANSMITTED
 151:/home/tienluong/workspace/atlantis_fw/platform/common/lightheader/src/light_header.c **** 			== img_sensor_write_reg(img_sensor, TEMP_SENSOR_CTRL_REG,
 152:/home/tienluong/workspace/atlantis_fw/platform/common/lightheader/src/light_header.c **** 			                        TEMP_SENSOR_RESET, TWO_BYTES))
 153:/home/tienluong/workspace/atlantis_fw/platform/common/lightheader/src/light_header.c **** 	{
 154:/home/tienluong/workspace/atlantis_fw/platform/common/lightheader/src/light_header.c **** 		/* Turn on temp sensor */
 155:/home/tienluong/workspace/atlantis_fw/platform/common/lightheader/src/light_header.c **** 		if (I2CM_ERROR_TRANSMITTED
 156:/home/tienluong/workspace/atlantis_fw/platform/common/lightheader/src/light_header.c **** 				== img_sensor_write_reg(img_sensor, TEMP_SENSOR_CTRL_REG,
 157:/home/tienluong/workspace/atlantis_fw/platform/common/lightheader/src/light_header.c **** 										TEMP_SENSOR_RESET_DATA, TWO_BYTES))
 158:/home/tienluong/workspace/atlantis_fw/platform/common/lightheader/src/light_header.c **** 		{
 159:/home/tienluong/workspace/atlantis_fw/platform/common/lightheader/src/light_header.c **** 			/* Start the temp sensor */
 160:/home/tienluong/workspace/atlantis_fw/platform/common/lightheader/src/light_header.c **** 			if(I2CM_ERROR_TRANSMITTED
 161:/home/tienluong/workspace/atlantis_fw/platform/common/lightheader/src/light_header.c **** 					== img_sensor_write_reg(img_sensor, TEMP_SENSOR_CTRL_REG,
 162:/home/tienluong/workspace/atlantis_fw/platform/common/lightheader/src/light_header.c **** 											TEMP_SENSOR_START_READ, TWO_BYTES))
 163:/home/tienluong/workspace/atlantis_fw/platform/common/lightheader/src/light_header.c **** 			{
 164:/home/tienluong/workspace/atlantis_fw/platform/common/lightheader/src/light_header.c **** 				vTaskDelay(2);
 165:/home/tienluong/workspace/atlantis_fw/platform/common/lightheader/src/light_header.c **** 
 166:/home/tienluong/workspace/atlantis_fw/platform/common/lightheader/src/light_header.c **** 				/* Read temp raw data */
 167:/home/tienluong/workspace/atlantis_fw/platform/common/lightheader/src/light_header.c **** 				tmp_raw = img_sensor_read_reg(img_sensor, TEMP_SENSOR_DATA_REG,
 168:/home/tienluong/workspace/atlantis_fw/platform/common/lightheader/src/light_header.c **** 						TWO_BYTES);
 169:/home/tienluong/workspace/atlantis_fw/platform/common/lightheader/src/light_header.c **** 
 170:/home/tienluong/workspace/atlantis_fw/platform/common/lightheader/src/light_header.c **** 				if (tmp_raw)
 171:/home/tienluong/workspace/atlantis_fw/platform/common/lightheader/src/light_header.c **** 				{
 172:/home/tienluong/workspace/atlantis_fw/platform/common/lightheader/src/light_header.c **** 					tmp_raw &= 0x3FF;
 173:/home/tienluong/workspace/atlantis_fw/platform/common/lightheader/src/light_header.c **** 					/* Clear temp data */
 174:/home/tienluong/workspace/atlantis_fw/platform/common/lightheader/src/light_header.c **** 					if (I2CM_ERROR_TRANSMITTED
 175:/home/tienluong/workspace/atlantis_fw/platform/common/lightheader/src/light_header.c **** 							== img_sensor_write_reg(img_sensor,
 176:/home/tienluong/workspace/atlantis_fw/platform/common/lightheader/src/light_header.c **** 											TEMP_SENSOR_CTRL_REG,
 177:/home/tienluong/workspace/atlantis_fw/platform/common/lightheader/src/light_header.c **** 											TEMP_SENSOR_RESET_DATA, TWO_BYTES))
 178:/home/tienluong/workspace/atlantis_fw/platform/common/lightheader/src/light_header.c **** 					{
 179:/home/tienluong/workspace/atlantis_fw/platform/common/lightheader/src/light_header.c **** 						/* Read the calib data */
 180:/home/tienluong/workspace/atlantis_fw/platform/common/lightheader/src/light_header.c **** 						calib = img_sensor_read_reg(img_sensor,
 181:/home/tienluong/workspace/atlantis_fw/platform/common/lightheader/src/light_header.c **** 						TEMP_SENSOR_CAL1_REG, TWO_BYTES);
 182:/home/tienluong/workspace/atlantis_fw/platform/common/lightheader/src/light_header.c **** 						if (calib)
 183:/home/tienluong/workspace/atlantis_fw/platform/common/lightheader/src/light_header.c **** 						{
 184:/home/tienluong/workspace/atlantis_fw/platform/common/lightheader/src/light_header.c **** 							temp = (short) ((float) ((tmp_raw - calib + 90)
 185:/home/tienluong/workspace/atlantis_fw/platform/common/lightheader/src/light_header.c **** 									/ 1.51));
 186:/home/tienluong/workspace/atlantis_fw/platform/common/lightheader/src/light_header.c **** 						}
 187:/home/tienluong/workspace/atlantis_fw/platform/common/lightheader/src/light_header.c **** 					}
 188:/home/tienluong/workspace/atlantis_fw/platform/common/lightheader/src/light_header.c **** 				}
 189:/home/tienluong/workspace/atlantis_fw/platform/common/lightheader/src/light_header.c **** 			}
 190:/home/tienluong/workspace/atlantis_fw/platform/common/lightheader/src/light_header.c **** 		}
 191:/home/tienluong/workspace/atlantis_fw/platform/common/lightheader/src/light_header.c **** 	}
 192:/home/tienluong/workspace/atlantis_fw/platform/common/lightheader/src/light_header.c **** 
 193:/home/tienluong/workspace/atlantis_fw/platform/common/lightheader/src/light_header.c **** 	return temp;
 194:/home/tienluong/workspace/atlantis_fw/platform/common/lightheader/src/light_header.c **** }
 195:/home/tienluong/workspace/atlantis_fw/platform/common/lightheader/src/light_header.c **** 
 196:/home/tienluong/workspace/atlantis_fw/platform/common/lightheader/src/light_header.c **** LIGHT_HEADER_FUNC float get_sensitivity(cam_typedef_t *pcam)
 197:/home/tienluong/workspace/atlantis_fw/platform/common/lightheader/src/light_header.c **** {
 198:/home/tienluong/workspace/atlantis_fw/platform/common/lightheader/src/light_header.c **** 	if(!pcam)
 199:/home/tienluong/workspace/atlantis_fw/platform/common/lightheader/src/light_header.c **** 		return FALSE;
 200:/home/tienluong/workspace/atlantis_fw/platform/common/lightheader/src/light_header.c **** 	uint8_t ch;
 201:/home/tienluong/workspace/atlantis_fw/platform/common/lightheader/src/light_header.c **** 	uint16_t total_gain_code;
 202:/home/tienluong/workspace/atlantis_fw/platform/common/lightheader/src/light_header.c **** 	float total_gain;
 203:/home/tienluong/workspace/atlantis_fw/platform/common/lightheader/src/light_header.c **** 	ch = pcam->info.ch - 1;
 204:/home/tienluong/workspace/atlantis_fw/platform/common/lightheader/src/light_header.c **** 	if(I2CM_ERROR_TRANSCEIVED == i2cm.read(ch, WORD_ADDR16,
 205:/home/tienluong/workspace/atlantis_fw/platform/common/lightheader/src/light_header.c **** 	IMAGE_SENSOR_ADDRESS, CAM_REG_SENSITIVITY, (uint8_t *)&total_gain_code))
 206:/home/tienluong/workspace/atlantis_fw/platform/common/lightheader/src/light_header.c **** 	{
 207:/home/tienluong/workspace/atlantis_fw/platform/common/lightheader/src/light_header.c **** 		total_gain_code = __builtin_bswap16(total_gain_code);
 208:/home/tienluong/workspace/atlantis_fw/platform/common/lightheader/src/light_header.c **** 		total_gain = get_total_gain(total_gain_code, UCID_HIRES_CAPTURE);
 209:/home/tienluong/workspace/atlantis_fw/platform/common/lightheader/src/light_header.c **** 		return total_gain;
 210:/home/tienluong/workspace/atlantis_fw/platform/common/lightheader/src/light_header.c **** 	}
 211:/home/tienluong/workspace/atlantis_fw/platform/common/lightheader/src/light_header.c **** 	return FALSE;
 212:/home/tienluong/workspace/atlantis_fw/platform/common/lightheader/src/light_header.c **** }
 213:/home/tienluong/workspace/atlantis_fw/platform/common/lightheader/src/light_header.c **** 
 214:/home/tienluong/workspace/atlantis_fw/platform/common/lightheader/src/light_header.c **** LIGHT_HEADER_FUNC uint64_t get_exposure_ustime(cam_typedef_t *pcam)
 215:/home/tienluong/workspace/atlantis_fw/platform/common/lightheader/src/light_header.c **** {
 216:/home/tienluong/workspace/atlantis_fw/platform/common/lightheader/src/light_header.c **** 	uint64_t exposure = 0;
 217:/home/tienluong/workspace/atlantis_fw/platform/common/lightheader/src/light_header.c **** 	uint32_t llpclk = img_sensor_read_reg(pcam->image, LINE_LENGTH_PCLK_CAM_REG, TWO_BYTES);
 218:/home/tienluong/workspace/atlantis_fw/platform/common/lightheader/src/light_header.c **** 	uint32_t vtpixclk = img_sensor_get_vt_pix_clk_mhz(pcam->image);
 219:/home/tienluong/workspace/atlantis_fw/platform/common/lightheader/src/light_header.c **** 	uint32_t cit = img_sensor_read_reg(pcam->image, CIT_CAM_REG, TWO_BYTES);
 220:/home/tienluong/workspace/atlantis_fw/platform/common/lightheader/src/light_header.c **** 	double it_time = (double)(cit * llpclk * 1.0)	/ (double)(2 * vtpixclk * MHZ_TO_HZ * 1.0);
 221:/home/tienluong/workspace/atlantis_fw/platform/common/lightheader/src/light_header.c **** 
 222:/home/tienluong/workspace/atlantis_fw/platform/common/lightheader/src/light_header.c **** 	exposure = (uint64_t)(it_time * 1000 * 1000 * 1000); /* convert to nano second */
 223:/home/tienluong/workspace/atlantis_fw/platform/common/lightheader/src/light_header.c **** 
 224:/home/tienluong/workspace/atlantis_fw/platform/common/lightheader/src/light_header.c **** 	return exposure;
 225:/home/tienluong/workspace/atlantis_fw/platform/common/lightheader/src/light_header.c **** }
 226:/home/tienluong/workspace/atlantis_fw/platform/common/lightheader/src/light_header.c **** 
 227:/home/tienluong/workspace/atlantis_fw/platform/common/lightheader/src/light_header.c **** LIGHT_HEADER_FUNC protobuf_c_boolean get_cam_is_enabled(cam_typedef_t *pcam)
 228:/home/tienluong/workspace/atlantis_fw/platform/common/lightheader/src/light_header.c **** {
 229:/home/tienluong/workspace/atlantis_fw/platform/common/lightheader/src/light_header.c **** 	uint32_t status = 0;
 230:/home/tienluong/workspace/atlantis_fw/platform/common/lightheader/src/light_header.c **** 	uint8_t *pstatus;
 231:/home/tienluong/workspace/atlantis_fw/platform/common/lightheader/src/light_header.c **** 
 232:/home/tienluong/workspace/atlantis_fw/platform/common/lightheader/src/light_header.c **** 	pstatus = pcam->settings->status;
 233:/home/tienluong/workspace/atlantis_fw/platform/common/lightheader/src/light_header.c **** 	status = S_MODULE_SW_STANDBY & (*(uint32_t *)pstatus) ;
 234:/home/tienluong/workspace/atlantis_fw/platform/common/lightheader/src/light_header.c **** 
 235:/home/tienluong/workspace/atlantis_fw/platform/common/lightheader/src/light_header.c **** 	if(status)
 236:/home/tienluong/workspace/atlantis_fw/platform/common/lightheader/src/light_header.c **** 	{
 237:/home/tienluong/workspace/atlantis_fw/platform/common/lightheader/src/light_header.c **** 		/* return true */
 238:/home/tienluong/workspace/atlantis_fw/platform/common/lightheader/src/light_header.c **** 		return 1;
 239:/home/tienluong/workspace/atlantis_fw/platform/common/lightheader/src/light_header.c **** 	}
 240:/home/tienluong/workspace/atlantis_fw/platform/common/lightheader/src/light_header.c **** 	/* return false: */
 241:/home/tienluong/workspace/atlantis_fw/platform/common/lightheader/src/light_header.c **** 	return 0;
 242:/home/tienluong/workspace/atlantis_fw/platform/common/lightheader/src/light_header.c **** }
 243:/home/tienluong/workspace/atlantis_fw/platform/common/lightheader/src/light_header.c **** 
 244:/home/tienluong/workspace/atlantis_fw/platform/common/lightheader/src/light_header.c **** LIGHT_HEADER_FUNC Ltpb__CameraModule__Surface *get_sensor_data_surface(cam_typedef_t *pcam)
 245:/home/tienluong/workspace/atlantis_fw/platform/common/lightheader/src/light_header.c **** {
 246:/home/tienluong/workspace/atlantis_fw/platform/common/lightheader/src/light_header.c **** 	Ltpb__CameraModule__Surface *sensor_surface;
 247:/home/tienluong/workspace/atlantis_fw/platform/common/lightheader/src/light_header.c **** 
 248:/home/tienluong/workspace/atlantis_fw/platform/common/lightheader/src/light_header.c **** 	sensor_surface = (Ltpb__CameraModule__Surface *)gen_pvPortMalloc(light_header_heap,
 249:/home/tienluong/workspace/atlantis_fw/platform/common/lightheader/src/light_header.c **** 								sizeof(Ltpb__CameraModule__Surface));
 250:/home/tienluong/workspace/atlantis_fw/platform/common/lightheader/src/light_header.c **** 
 251:/home/tienluong/workspace/atlantis_fw/platform/common/lightheader/src/light_header.c **** 	ltpb__camera_module__surface__init(sensor_surface);
 252:/home/tienluong/workspace/atlantis_fw/platform/common/lightheader/src/light_header.c **** 
 253:/home/tienluong/workspace/atlantis_fw/platform/common/lightheader/src/light_header.c **** 	uint16_t width;
 254:/home/tienluong/workspace/atlantis_fw/platform/common/lightheader/src/light_header.c **** 
 255:/home/tienluong/workspace/atlantis_fw/platform/common/lightheader/src/light_header.c **** 	width = pcam->image->x_size; //img_sensor_read_reg(pcam->image, X_OUTPUT_SIZE_CAM_REG, TWO_BYTES);
 256:/home/tienluong/workspace/atlantis_fw/platform/common/lightheader/src/light_header.c **** 
 257:/home/tienluong/workspace/atlantis_fw/platform/common/lightheader/src/light_header.c **** 	uint16_t byte_per_raw = (width * BITS_PER_PIXEL_RAW10) / 8;
 258:/home/tienluong/workspace/atlantis_fw/platform/common/lightheader/src/light_header.c **** 
 259:/home/tienluong/workspace/atlantis_fw/platform/common/lightheader/src/light_header.c **** 	if(byte_per_raw % 16 != 0)
 260:/home/tienluong/workspace/atlantis_fw/platform/common/lightheader/src/light_header.c **** 	{
 261:/home/tienluong/workspace/atlantis_fw/platform/common/lightheader/src/light_header.c **** 		byte_per_raw = ((byte_per_raw / 16) + 1) * 16;
 262:/home/tienluong/workspace/atlantis_fw/platform/common/lightheader/src/light_header.c **** 	}
 263:/home/tienluong/workspace/atlantis_fw/platform/common/lightheader/src/light_header.c **** 
 264:/home/tienluong/workspace/atlantis_fw/platform/common/lightheader/src/light_header.c **** 	/* TODO: */
 265:/home/tienluong/workspace/atlantis_fw/platform/common/lightheader/src/light_header.c **** 	sensor_surface->data_offset = (uint32_t)(sizeof(lightheader_info_t)
 266:/home/tienluong/workspace/atlantis_fw/platform/common/lightheader/src/light_header.c **** 								+ cam_mem_idx[pcam->info.ch - 1] * img_bytes);
 267:/home/tienluong/workspace/atlantis_fw/platform/common/lightheader/src/light_header.c **** 	sensor_surface->row_stride = byte_per_raw;
 268:/home/tienluong/workspace/atlantis_fw/platform/common/lightheader/src/light_header.c **** 	sensor_surface->format = LTPB__CAMERA_MODULE__SURFACE__FORMAT_TYPE__RAW_PACKED_10BPP;
 269:/home/tienluong/workspace/atlantis_fw/platform/common/lightheader/src/light_header.c **** 
 270:/home/tienluong/workspace/atlantis_fw/platform/common/lightheader/src/light_header.c **** 	sensor_surface->data_scale = get_default_point2f(1, 1);
 271:/home/tienluong/workspace/atlantis_fw/platform/common/lightheader/src/light_header.c **** 	sensor_surface->size = get_default_point2i(pcam->image->x_size, pcam->image->y_size);
 272:/home/tienluong/workspace/atlantis_fw/platform/common/lightheader/src/light_header.c **** 	sensor_surface->start = get_default_point2i(0, 0);
 273:/home/tienluong/workspace/atlantis_fw/platform/common/lightheader/src/light_header.c **** 
 274:/home/tienluong/workspace/atlantis_fw/platform/common/lightheader/src/light_header.c **** 	return sensor_surface;
 275:/home/tienluong/workspace/atlantis_fw/platform/common/lightheader/src/light_header.c **** }
 276:/home/tienluong/workspace/atlantis_fw/platform/common/lightheader/src/light_header.c **** 
 277:/home/tienluong/workspace/atlantis_fw/platform/common/lightheader/src/light_header.c **** LIGHT_HEADER_FUNC uint8_t get_cam_total_number(uint32_t m_bitmask)
 278:/home/tienluong/workspace/atlantis_fw/platform/common/lightheader/src/light_header.c **** {
 279:/home/tienluong/workspace/atlantis_fw/platform/common/lightheader/src/light_header.c **** 	uint8_t cam_idx = 0;
 280:/home/tienluong/workspace/atlantis_fw/platform/common/lightheader/src/light_header.c **** 	uint8_t total_cam = 0;
 281:/home/tienluong/workspace/atlantis_fw/platform/common/lightheader/src/light_header.c **** 
 282:/home/tienluong/workspace/atlantis_fw/platform/common/lightheader/src/light_header.c **** 	m_bitmask &= light_system->m_filter;
 283:/home/tienluong/workspace/atlantis_fw/platform/common/lightheader/src/light_header.c **** 	while(m_bitmask)
 284:/home/tienluong/workspace/atlantis_fw/platform/common/lightheader/src/light_header.c **** 	{
 285:/home/tienluong/workspace/atlantis_fw/platform/common/lightheader/src/light_header.c **** 		if(m_bitmask & 1)
 286:/home/tienluong/workspace/atlantis_fw/platform/common/lightheader/src/light_header.c **** 		{
 287:/home/tienluong/workspace/atlantis_fw/platform/common/lightheader/src/light_header.c **** 			if(idx_to_object(cam_idx) != NULL)
 288:/home/tienluong/workspace/atlantis_fw/platform/common/lightheader/src/light_header.c **** 			{
 289:/home/tienluong/workspace/atlantis_fw/platform/common/lightheader/src/light_header.c **** 				total_cam++;
 290:/home/tienluong/workspace/atlantis_fw/platform/common/lightheader/src/light_header.c **** 			}
 291:/home/tienluong/workspace/atlantis_fw/platform/common/lightheader/src/light_header.c **** 		}
 292:/home/tienluong/workspace/atlantis_fw/platform/common/lightheader/src/light_header.c **** 		m_bitmask >>= 1;
 293:/home/tienluong/workspace/atlantis_fw/platform/common/lightheader/src/light_header.c **** 		cam_idx++;
 294:/home/tienluong/workspace/atlantis_fw/platform/common/lightheader/src/light_header.c **** 	}
 295:/home/tienluong/workspace/atlantis_fw/platform/common/lightheader/src/light_header.c **** 	return total_cam;
 296:/home/tienluong/workspace/atlantis_fw/platform/common/lightheader/src/light_header.c **** }
 297:/home/tienluong/workspace/atlantis_fw/platform/common/lightheader/src/light_header.c **** 
 298:/home/tienluong/workspace/atlantis_fw/platform/common/lightheader/src/light_header.c **** LIGHT_HEADER_FUNC Ltpb__CameraID get_cam_id(cam_typedef_t *pcam)
 299:/home/tienluong/workspace/atlantis_fw/platform/common/lightheader/src/light_header.c **** {
 300:/home/tienluong/workspace/atlantis_fw/platform/common/lightheader/src/light_header.c **** 	uint8_t cam_id = 0;
 301:/home/tienluong/workspace/atlantis_fw/platform/common/lightheader/src/light_header.c **** 
 302:/home/tienluong/workspace/atlantis_fw/platform/common/lightheader/src/light_header.c **** 	if(pcam == NULL)
 303:/home/tienluong/workspace/atlantis_fw/platform/common/lightheader/src/light_header.c **** 		return 0;
 304:/home/tienluong/workspace/atlantis_fw/platform/common/lightheader/src/light_header.c **** 	switch(pcam->info.module)
 305:/home/tienluong/workspace/atlantis_fw/platform/common/lightheader/src/light_header.c **** 	{
 306:/home/tienluong/workspace/atlantis_fw/platform/common/lightheader/src/light_header.c **** 		case CAM_A1:
 307:/home/tienluong/workspace/atlantis_fw/platform/common/lightheader/src/light_header.c **** 			cam_id = LTPB__CAMERA_ID__A1;
 308:/home/tienluong/workspace/atlantis_fw/platform/common/lightheader/src/light_header.c **** 			break;
 309:/home/tienluong/workspace/atlantis_fw/platform/common/lightheader/src/light_header.c **** 		case CAM_A2:
 310:/home/tienluong/workspace/atlantis_fw/platform/common/lightheader/src/light_header.c **** 			cam_id = LTPB__CAMERA_ID__A2;
 311:/home/tienluong/workspace/atlantis_fw/platform/common/lightheader/src/light_header.c **** 			break;
 312:/home/tienluong/workspace/atlantis_fw/platform/common/lightheader/src/light_header.c **** 		case CAM_A3:
 313:/home/tienluong/workspace/atlantis_fw/platform/common/lightheader/src/light_header.c **** 			cam_id = LTPB__CAMERA_ID__A3;
 314:/home/tienluong/workspace/atlantis_fw/platform/common/lightheader/src/light_header.c **** 			break;
 315:/home/tienluong/workspace/atlantis_fw/platform/common/lightheader/src/light_header.c **** 		case CAM_A4:
 316:/home/tienluong/workspace/atlantis_fw/platform/common/lightheader/src/light_header.c **** 			cam_id = LTPB__CAMERA_ID__A4;
 317:/home/tienluong/workspace/atlantis_fw/platform/common/lightheader/src/light_header.c **** 			break;
 318:/home/tienluong/workspace/atlantis_fw/platform/common/lightheader/src/light_header.c **** 		case CAM_A5:
 319:/home/tienluong/workspace/atlantis_fw/platform/common/lightheader/src/light_header.c **** 			cam_id = LTPB__CAMERA_ID__A5;
 320:/home/tienluong/workspace/atlantis_fw/platform/common/lightheader/src/light_header.c **** 			break;
 321:/home/tienluong/workspace/atlantis_fw/platform/common/lightheader/src/light_header.c **** 		case CAM_B1:
 322:/home/tienluong/workspace/atlantis_fw/platform/common/lightheader/src/light_header.c **** 			cam_id = LTPB__CAMERA_ID__B1;
 323:/home/tienluong/workspace/atlantis_fw/platform/common/lightheader/src/light_header.c **** 			break;
 324:/home/tienluong/workspace/atlantis_fw/platform/common/lightheader/src/light_header.c **** 		case CAM_B2:
 325:/home/tienluong/workspace/atlantis_fw/platform/common/lightheader/src/light_header.c **** 			cam_id = LTPB__CAMERA_ID__B2;
 326:/home/tienluong/workspace/atlantis_fw/platform/common/lightheader/src/light_header.c **** 			break;
 327:/home/tienluong/workspace/atlantis_fw/platform/common/lightheader/src/light_header.c **** 		case CAM_B3:
 328:/home/tienluong/workspace/atlantis_fw/platform/common/lightheader/src/light_header.c **** 			cam_id = LTPB__CAMERA_ID__B3;
 329:/home/tienluong/workspace/atlantis_fw/platform/common/lightheader/src/light_header.c **** 			break;
 330:/home/tienluong/workspace/atlantis_fw/platform/common/lightheader/src/light_header.c **** 		case CAM_B4:
 331:/home/tienluong/workspace/atlantis_fw/platform/common/lightheader/src/light_header.c **** 			cam_id = LTPB__CAMERA_ID__B4;
 332:/home/tienluong/workspace/atlantis_fw/platform/common/lightheader/src/light_header.c **** 			break;
 333:/home/tienluong/workspace/atlantis_fw/platform/common/lightheader/src/light_header.c **** 		case CAM_B5:
 334:/home/tienluong/workspace/atlantis_fw/platform/common/lightheader/src/light_header.c **** 			cam_id = LTPB__CAMERA_ID__B5;
 335:/home/tienluong/workspace/atlantis_fw/platform/common/lightheader/src/light_header.c **** 			break;
 336:/home/tienluong/workspace/atlantis_fw/platform/common/lightheader/src/light_header.c **** 		case CAM_C1:
 337:/home/tienluong/workspace/atlantis_fw/platform/common/lightheader/src/light_header.c **** 			cam_id = LTPB__CAMERA_ID__C1;
 338:/home/tienluong/workspace/atlantis_fw/platform/common/lightheader/src/light_header.c **** 			break;
 339:/home/tienluong/workspace/atlantis_fw/platform/common/lightheader/src/light_header.c **** 		case CAM_C2:
 340:/home/tienluong/workspace/atlantis_fw/platform/common/lightheader/src/light_header.c **** 			cam_id = LTPB__CAMERA_ID__C2;
 341:/home/tienluong/workspace/atlantis_fw/platform/common/lightheader/src/light_header.c **** 			break;
 342:/home/tienluong/workspace/atlantis_fw/platform/common/lightheader/src/light_header.c **** 		case CAM_C3:
 343:/home/tienluong/workspace/atlantis_fw/platform/common/lightheader/src/light_header.c **** 			cam_id = LTPB__CAMERA_ID__C3;
 344:/home/tienluong/workspace/atlantis_fw/platform/common/lightheader/src/light_header.c **** 			break;
 345:/home/tienluong/workspace/atlantis_fw/platform/common/lightheader/src/light_header.c **** 		case CAM_C4:
 346:/home/tienluong/workspace/atlantis_fw/platform/common/lightheader/src/light_header.c **** 			cam_id = LTPB__CAMERA_ID__C4;
 347:/home/tienluong/workspace/atlantis_fw/platform/common/lightheader/src/light_header.c **** 			break;
 348:/home/tienluong/workspace/atlantis_fw/platform/common/lightheader/src/light_header.c **** 		case CAM_C5:
 349:/home/tienluong/workspace/atlantis_fw/platform/common/lightheader/src/light_header.c **** 			cam_id = LTPB__CAMERA_ID__C5;
 350:/home/tienluong/workspace/atlantis_fw/platform/common/lightheader/src/light_header.c **** 			break;
 351:/home/tienluong/workspace/atlantis_fw/platform/common/lightheader/src/light_header.c **** 		case CAM_C6:
 352:/home/tienluong/workspace/atlantis_fw/platform/common/lightheader/src/light_header.c **** 			cam_id = LTPB__CAMERA_ID__C6;
 353:/home/tienluong/workspace/atlantis_fw/platform/common/lightheader/src/light_header.c **** 			break;
 354:/home/tienluong/workspace/atlantis_fw/platform/common/lightheader/src/light_header.c **** 		default:
 355:/home/tienluong/workspace/atlantis_fw/platform/common/lightheader/src/light_header.c **** 			cam_id = LTPB__CAMERA_ID__A1;
 356:/home/tienluong/workspace/atlantis_fw/platform/common/lightheader/src/light_header.c **** 			break;
 357:/home/tienluong/workspace/atlantis_fw/platform/common/lightheader/src/light_header.c **** 	}
 358:/home/tienluong/workspace/atlantis_fw/platform/common/lightheader/src/light_header.c **** 	return cam_id;
 359:/home/tienluong/workspace/atlantis_fw/platform/common/lightheader/src/light_header.c **** }
 360:/home/tienluong/workspace/atlantis_fw/platform/common/lightheader/src/light_header.c **** 
 361:/home/tienluong/workspace/atlantis_fw/platform/common/lightheader/src/light_header.c **** LIGHT_HEADER_FUNC Ltpb__CameraModule__AFInfo *get_auto_focus_info(cam_typedef_t *pcam)
 362:/home/tienluong/workspace/atlantis_fw/platform/common/lightheader/src/light_header.c **** {
 363:/home/tienluong/workspace/atlantis_fw/platform/common/lightheader/src/light_header.c **** 	Ltpb__CameraModule__AFInfo *af_info = gen_pvPortMalloc(light_header_heap, sizeof(Ltpb__CameraModul
 364:/home/tienluong/workspace/atlantis_fw/platform/common/lightheader/src/light_header.c **** 	/* Initialize */
 365:/home/tienluong/workspace/atlantis_fw/platform/common/lightheader/src/light_header.c **** 	ltpb__camera_module__afinfo__init(af_info);
 366:/home/tienluong/workspace/atlantis_fw/platform/common/lightheader/src/light_header.c **** 	af_info->has_roi_estimated_disparity = 1;
 367:/home/tienluong/workspace/atlantis_fw/platform/common/lightheader/src/light_header.c **** 	af_info->mode = LTPB__CAMERA_MODULE__AFINFO__AFMODE__AUTO;
 368:/home/tienluong/workspace/atlantis_fw/platform/common/lightheader/src/light_header.c **** 	af_info->roi_center = get_default_point2f(pcam->cam_common_data.roi_center_x, pcam->cam_common_dat
 369:/home/tienluong/workspace/atlantis_fw/platform/common/lightheader/src/light_header.c **** 	af_info->roi_estimated_disparity = light_system->settings->roi_transfer.distance_mm;
 370:/home/tienluong/workspace/atlantis_fw/platform/common/lightheader/src/light_header.c **** 
 371:/home/tienluong/workspace/atlantis_fw/platform/common/lightheader/src/light_header.c **** 	return af_info;
 372:/home/tienluong/workspace/atlantis_fw/platform/common/lightheader/src/light_header.c **** }
 373:/home/tienluong/workspace/atlantis_fw/platform/common/lightheader/src/light_header.c **** 
 374:/home/tienluong/workspace/atlantis_fw/platform/common/lightheader/src/light_header.c **** LIGHT_HEADER_FUNC int32_t get_img_focal_length(cam_typedef_t *ref_cam)
 375:/home/tienluong/workspace/atlantis_fw/platform/common/lightheader/src/light_header.c **** {
 376:/home/tienluong/workspace/atlantis_fw/platform/common/lightheader/src/light_header.c **** 	if(NULL == ref_cam)
 377:/home/tienluong/workspace/atlantis_fw/platform/common/lightheader/src/light_header.c **** 		return 0;
 378:/home/tienluong/workspace/atlantis_fw/platform/common/lightheader/src/light_header.c **** 
 379:/home/tienluong/workspace/atlantis_fw/platform/common/lightheader/src/light_header.c **** 	/* Get image focal length */
 380:/home/tienluong/workspace/atlantis_fw/platform/common/lightheader/src/light_header.c **** 	uint16_t *p_focal_length = (uint16_t *)ref_cam->optical->settings->focal_length;
 381:/home/tienluong/workspace/atlantis_fw/platform/common/lightheader/src/light_header.c **** 	int32_t focal_length = light_system->settings->zoom_factor * (*p_focal_length);
 382:/home/tienluong/workspace/atlantis_fw/platform/common/lightheader/src/light_header.c **** 	/* image_focal_length is per capture and for the whole image */
 383:/home/tienluong/workspace/atlantis_fw/platform/common/lightheader/src/light_header.c **** 	return focal_length;
 384:/home/tienluong/workspace/atlantis_fw/platform/common/lightheader/src/light_header.c **** }
 385:/home/tienluong/workspace/atlantis_fw/platform/common/lightheader/src/light_header.c **** 
 386:/home/tienluong/workspace/atlantis_fw/platform/common/lightheader/src/light_header.c **** LIGHT_HEADER_FUNC uint8_t  *get_device_unique_id(cam_typedef_t *pcam)
 387:/home/tienluong/workspace/atlantis_fw/platform/common/lightheader/src/light_header.c **** {
 388:/home/tienluong/workspace/atlantis_fw/platform/common/lightheader/src/light_header.c **** 	/* TODO: will implement in future */
 389:/home/tienluong/workspace/atlantis_fw/platform/common/lightheader/src/light_header.c **** 	return pcam->settings->uuid;
 390:/home/tienluong/workspace/atlantis_fw/platform/common/lightheader/src/light_header.c **** }
 391:/home/tienluong/workspace/atlantis_fw/platform/common/lightheader/src/light_header.c **** 
 392:/home/tienluong/workspace/atlantis_fw/platform/common/lightheader/src/light_header.c **** LIGHT_HEADER_FUNC char *get_device_model_name(void)
 393:/home/tienluong/workspace/atlantis_fw/platform/common/lightheader/src/light_header.c **** {
 394:/home/tienluong/workspace/atlantis_fw/platform/common/lightheader/src/light_header.c **** 	/* TODO: will implement in future */
 395:/home/tienluong/workspace/atlantis_fw/platform/common/lightheader/src/light_header.c **** 	char *device_model_name = NULL;
 396:/home/tienluong/workspace/atlantis_fw/platform/common/lightheader/src/light_header.c **** 
 397:/home/tienluong/workspace/atlantis_fw/platform/common/lightheader/src/light_header.c **** 	return device_model_name;
 398:/home/tienluong/workspace/atlantis_fw/platform/common/lightheader/src/light_header.c **** }
 399:/home/tienluong/workspace/atlantis_fw/platform/common/lightheader/src/light_header.c **** 
 400:/home/tienluong/workspace/atlantis_fw/platform/common/lightheader/src/light_header.c **** LIGHT_HEADER_FUNC char *get_device_asic_fw_version(void)
 401:/home/tienluong/workspace/atlantis_fw/platform/common/lightheader/src/light_header.c **** {
 402:/home/tienluong/workspace/atlantis_fw/platform/common/lightheader/src/light_header.c **** 	/* TODO: will implement in future */
 403:/home/tienluong/workspace/atlantis_fw/platform/common/lightheader/src/light_header.c **** 	char *device_asic_fw_version = NULL;
 404:/home/tienluong/workspace/atlantis_fw/platform/common/lightheader/src/light_header.c **** 
 405:/home/tienluong/workspace/atlantis_fw/platform/common/lightheader/src/light_header.c **** 	return device_asic_fw_version;
 406:/home/tienluong/workspace/atlantis_fw/platform/common/lightheader/src/light_header.c **** }
 407:/home/tienluong/workspace/atlantis_fw/platform/common/lightheader/src/light_header.c **** 
 408:/home/tienluong/workspace/atlantis_fw/platform/common/lightheader/src/light_header.c **** LIGHT_HEADER_FUNC char *get_device_fw_version(void)
 409:/home/tienluong/workspace/atlantis_fw/platform/common/lightheader/src/light_header.c **** {
 410:/home/tienluong/workspace/atlantis_fw/platform/common/lightheader/src/light_header.c ****     size_t len = sizeof(light_system->settings->fw_version);
 411:/home/tienluong/workspace/atlantis_fw/platform/common/lightheader/src/light_header.c ****     char* device_fw_version = (char*)gen_pvPortMalloc(light_header_heap, len);
 412:/home/tienluong/workspace/atlantis_fw/platform/common/lightheader/src/light_header.c ****     memcpy(device_fw_version, light_system->settings->fw_version, len);
 413:/home/tienluong/workspace/atlantis_fw/platform/common/lightheader/src/light_header.c ****     return device_fw_version;
 414:/home/tienluong/workspace/atlantis_fw/platform/common/lightheader/src/light_header.c **** }
 415:/home/tienluong/workspace/atlantis_fw/platform/common/lightheader/src/light_header.c **** 
 416:/home/tienluong/workspace/atlantis_fw/platform/common/lightheader/src/light_header.c **** LIGHT_HEADER_FUNC Ltpb__TimeStamp *get_time_stamp(void)
 417:/home/tienluong/workspace/atlantis_fw/platform/common/lightheader/src/light_header.c **** {
 418:/home/tienluong/workspace/atlantis_fw/platform/common/lightheader/src/light_header.c **** 	Ltpb__TimeStamp *time = (Ltpb__TimeStamp *)gen_pvPortMalloc(light_header_heap, sizeof(Ltpb__TimeSt
 419:/home/tienluong/workspace/atlantis_fw/platform/common/lightheader/src/light_header.c **** 	ltpb__time_stamp__init(time);
 420:/home/tienluong/workspace/atlantis_fw/platform/common/lightheader/src/light_header.c **** 
 421:/home/tienluong/workspace/atlantis_fw/platform/common/lightheader/src/light_header.c **** 	rtc_t rtc_time = rtc_get_time();
 422:/home/tienluong/workspace/atlantis_fw/platform/common/lightheader/src/light_header.c **** 	unsigned long long total_seconds = rtc_time.milisec / 1000;
 423:/home/tienluong/workspace/atlantis_fw/platform/common/lightheader/src/light_header.c **** 
 424:/home/tienluong/workspace/atlantis_fw/platform/common/lightheader/src/light_header.c **** 	/* TODO: get system date */
 425:/home/tienluong/workspace/atlantis_fw/platform/common/lightheader/src/light_header.c **** 	time->hour		= ((total_seconds / 60) / 60) % 24;
 426:/home/tienluong/workspace/atlantis_fw/platform/common/lightheader/src/light_header.c **** 	time->minute	= (total_seconds / 60) % 60;
 427:/home/tienluong/workspace/atlantis_fw/platform/common/lightheader/src/light_header.c **** 	time->second	= total_seconds % 60;
 428:/home/tienluong/workspace/atlantis_fw/platform/common/lightheader/src/light_header.c **** 
 429:/home/tienluong/workspace/atlantis_fw/platform/common/lightheader/src/light_header.c **** 	time->day = 1;
 430:/home/tienluong/workspace/atlantis_fw/platform/common/lightheader/src/light_header.c **** 	time->month = 9;
 431:/home/tienluong/workspace/atlantis_fw/platform/common/lightheader/src/light_header.c **** 	time->year = 2016;
 432:/home/tienluong/workspace/atlantis_fw/platform/common/lightheader/src/light_header.c **** 
 433:/home/tienluong/workspace/atlantis_fw/platform/common/lightheader/src/light_header.c **** 	return time;
 434:/home/tienluong/workspace/atlantis_fw/platform/common/lightheader/src/light_header.c **** }
 435:/home/tienluong/workspace/atlantis_fw/platform/common/lightheader/src/light_header.c **** 
 436:/home/tienluong/workspace/atlantis_fw/platform/common/lightheader/src/light_header.c **** LIGHT_HEADER_FUNC uint32_t get_iso(float sensitivity)
 437:/home/tienluong/workspace/atlantis_fw/platform/common/lightheader/src/light_header.c **** {
 438:/home/tienluong/workspace/atlantis_fw/platform/common/lightheader/src/light_header.c **** 	uint32_t iso = 0;
 439:/home/tienluong/workspace/atlantis_fw/platform/common/lightheader/src/light_header.c **** 	uint8_t i;
 440:/home/tienluong/workspace/atlantis_fw/platform/common/lightheader/src/light_header.c **** 
 441:/home/tienluong/workspace/atlantis_fw/platform/common/lightheader/src/light_header.c **** 	/* the sensitivity smaller than smallest value in lookup table */
 442:/home/tienluong/workspace/atlantis_fw/platform/common/lightheader/src/light_header.c **** 	if(sensitivity < iso_table[0].total_gain)
 443:/home/tienluong/workspace/atlantis_fw/platform/common/lightheader/src/light_header.c **** 	{
 444:/home/tienluong/workspace/atlantis_fw/platform/common/lightheader/src/light_header.c **** 		iso = iso_table[0].iso;
 445:/home/tienluong/workspace/atlantis_fw/platform/common/lightheader/src/light_header.c **** 	}
 446:/home/tienluong/workspace/atlantis_fw/platform/common/lightheader/src/light_header.c **** 	/* the sensitivity bigger than biggest value in lookup table */
 447:/home/tienluong/workspace/atlantis_fw/platform/common/lightheader/src/light_header.c **** 	else if(sensitivity >= iso_table[iso_table_size - 1].total_gain)
 448:/home/tienluong/workspace/atlantis_fw/platform/common/lightheader/src/light_header.c **** 	{
 449:/home/tienluong/workspace/atlantis_fw/platform/common/lightheader/src/light_header.c **** 		iso = iso_table[iso_table_size - 1].iso;
 450:/home/tienluong/workspace/atlantis_fw/platform/common/lightheader/src/light_header.c **** 	}
 451:/home/tienluong/workspace/atlantis_fw/platform/common/lightheader/src/light_header.c **** 	/* other case */
 452:/home/tienluong/workspace/atlantis_fw/platform/common/lightheader/src/light_header.c **** 	else
 453:/home/tienluong/workspace/atlantis_fw/platform/common/lightheader/src/light_header.c **** 	{
 454:/home/tienluong/workspace/atlantis_fw/platform/common/lightheader/src/light_header.c **** 		for(i = 0; i < (iso_table_size - 1); i++)
 455:/home/tienluong/workspace/atlantis_fw/platform/common/lightheader/src/light_header.c **** 		{
 456:/home/tienluong/workspace/atlantis_fw/platform/common/lightheader/src/light_header.c **** 			if((sensitivity >= iso_table[i].total_gain) && (sensitivity < iso_table[i + 1].total_gain))
 457:/home/tienluong/workspace/atlantis_fw/platform/common/lightheader/src/light_header.c **** 			{
 458:/home/tienluong/workspace/atlantis_fw/platform/common/lightheader/src/light_header.c **** 				iso = iso_table[i].iso;
 459:/home/tienluong/workspace/atlantis_fw/platform/common/lightheader/src/light_header.c **** 				break;
 460:/home/tienluong/workspace/atlantis_fw/platform/common/lightheader/src/light_header.c **** 			}
 461:/home/tienluong/workspace/atlantis_fw/platform/common/lightheader/src/light_header.c **** 		}
 462:/home/tienluong/workspace/atlantis_fw/platform/common/lightheader/src/light_header.c **** 	}
 463:/home/tienluong/workspace/atlantis_fw/platform/common/lightheader/src/light_header.c **** 
 464:/home/tienluong/workspace/atlantis_fw/platform/common/lightheader/src/light_header.c **** 	return iso;
 465:/home/tienluong/workspace/atlantis_fw/platform/common/lightheader/src/light_header.c **** }
 466:/home/tienluong/workspace/atlantis_fw/platform/common/lightheader/src/light_header.c **** 
 467:/home/tienluong/workspace/atlantis_fw/platform/common/lightheader/src/light_header.c **** LIGHT_HEADER_FUNC Ltpb__SensorCharacterization__VstNoiseModel__VstModel *get_vst_noise_vst_model(
 468:/home/tienluong/workspace/atlantis_fw/platform/common/lightheader/src/light_header.c **** 		cam_typedef_t *pcam, color cam_color)
 469:/home/tienluong/workspace/atlantis_fw/platform/common/lightheader/src/light_header.c **** {
 470:/home/tienluong/workspace/atlantis_fw/platform/common/lightheader/src/light_header.c **** 	Ltpb__SensorCharacterization__VstNoiseModel__VstModel *vst_model;
 471:/home/tienluong/workspace/atlantis_fw/platform/common/lightheader/src/light_header.c **** 	vst_model =
 472:/home/tienluong/workspace/atlantis_fw/platform/common/lightheader/src/light_header.c **** 			(Ltpb__SensorCharacterization__VstNoiseModel__VstModel *)gen_pvPortMalloc(light_header_heap,
 473:/home/tienluong/workspace/atlantis_fw/platform/common/lightheader/src/light_header.c **** 					sizeof(Ltpb__SensorCharacterization__VstNoiseModel__VstModel));
 474:/home/tienluong/workspace/atlantis_fw/platform/common/lightheader/src/light_header.c **** 
 475:/home/tienluong/workspace/atlantis_fw/platform/common/lightheader/src/light_header.c **** 	ltpb__sensor_characterization__vst_noise_model__vst_model__init(vst_model);
 476:/home/tienluong/workspace/atlantis_fw/platform/common/lightheader/src/light_header.c **** 
 477:/home/tienluong/workspace/atlantis_fw/platform/common/lightheader/src/light_header.c **** 	/* TODO: implement */
 478:/home/tienluong/workspace/atlantis_fw/platform/common/lightheader/src/light_header.c **** 	vst_model->a = 0;
 479:/home/tienluong/workspace/atlantis_fw/platform/common/lightheader/src/light_header.c **** 	vst_model->b = 0;
 480:/home/tienluong/workspace/atlantis_fw/platform/common/lightheader/src/light_header.c **** 
 481:/home/tienluong/workspace/atlantis_fw/platform/common/lightheader/src/light_header.c **** 	return vst_model;
 482:/home/tienluong/workspace/atlantis_fw/platform/common/lightheader/src/light_header.c **** }
 483:/home/tienluong/workspace/atlantis_fw/platform/common/lightheader/src/light_header.c **** 
 484:/home/tienluong/workspace/atlantis_fw/platform/common/lightheader/src/light_header.c **** LIGHT_HEADER_FUNC Ltpb__SensorCharacterization__VstNoiseModel *get_sensor_characterization_vst_nois
 485:/home/tienluong/workspace/atlantis_fw/platform/common/lightheader/src/light_header.c **** 															cam_typedef_t *pcam)
 486:/home/tienluong/workspace/atlantis_fw/platform/common/lightheader/src/light_header.c **** {
 487:/home/tienluong/workspace/atlantis_fw/platform/common/lightheader/src/light_header.c **** 	Ltpb__SensorCharacterization__VstNoiseModel *vst_noise;
 488:/home/tienluong/workspace/atlantis_fw/platform/common/lightheader/src/light_header.c **** 	vst_noise = (Ltpb__SensorCharacterization__VstNoiseModel *)gen_pvPortMalloc(light_header_heap,
 489:/home/tienluong/workspace/atlantis_fw/platform/common/lightheader/src/light_header.c **** 			sizeof(Ltpb__SensorCharacterization__VstNoiseModel));
 490:/home/tienluong/workspace/atlantis_fw/platform/common/lightheader/src/light_header.c **** 
 491:/home/tienluong/workspace/atlantis_fw/platform/common/lightheader/src/light_header.c **** 	ltpb__sensor_characterization__vst_noise_model__init(vst_noise);
 492:/home/tienluong/workspace/atlantis_fw/platform/common/lightheader/src/light_header.c **** 
 493:/home/tienluong/workspace/atlantis_fw/platform/common/lightheader/src/light_header.c **** 	/* TODO: what is vst noise ? */
 494:/home/tienluong/workspace/atlantis_fw/platform/common/lightheader/src/light_header.c **** 	/* gain in ISO unit at which the noise was characterized */
 495:/home/tienluong/workspace/atlantis_fw/platform/common/lightheader/src/light_header.c **** 	vst_noise->gain = 0;
 496:/home/tienluong/workspace/atlantis_fw/platform/common/lightheader/src/light_header.c **** 	/* noise threshold (the same for all color channels) */
 497:/home/tienluong/workspace/atlantis_fw/platform/common/lightheader/src/light_header.c **** 	vst_noise->threshold = 0;
 498:/home/tienluong/workspace/atlantis_fw/platform/common/lightheader/src/light_header.c **** 	/* normalizes VST transfrom output to 0..1 range */
 499:/home/tienluong/workspace/atlantis_fw/platform/common/lightheader/src/light_header.c **** 	vst_noise->scale = 0;
 500:/home/tienluong/workspace/atlantis_fw/platform/common/lightheader/src/light_header.c **** 
 501:/home/tienluong/workspace/atlantis_fw/platform/common/lightheader/src/light_header.c **** 	vst_noise->red = get_vst_noise_vst_model(pcam, RED);
 502:/home/tienluong/workspace/atlantis_fw/platform/common/lightheader/src/light_header.c **** 	vst_noise->green = get_vst_noise_vst_model(pcam, GREEN);
 503:/home/tienluong/workspace/atlantis_fw/platform/common/lightheader/src/light_header.c **** 	vst_noise->blue = get_vst_noise_vst_model(pcam, BLUE);
 504:/home/tienluong/workspace/atlantis_fw/platform/common/lightheader/src/light_header.c **** 	vst_noise->panchromatic = get_vst_noise_vst_model(pcam, PANCHROMATIC);
 505:/home/tienluong/workspace/atlantis_fw/platform/common/lightheader/src/light_header.c **** 
 506:/home/tienluong/workspace/atlantis_fw/platform/common/lightheader/src/light_header.c **** 	return vst_noise;
 507:/home/tienluong/workspace/atlantis_fw/platform/common/lightheader/src/light_header.c **** }
 508:/home/tienluong/workspace/atlantis_fw/platform/common/lightheader/src/light_header.c **** 
 509:/home/tienluong/workspace/atlantis_fw/platform/common/lightheader/src/light_header.c **** LIGHT_HEADER_FUNC Ltpb__SensorCharacterization *get_sensor_characterization_data(cam_typedef_t *pca
 510:/home/tienluong/workspace/atlantis_fw/platform/common/lightheader/src/light_header.c **** {
 511:/home/tienluong/workspace/atlantis_fw/platform/common/lightheader/src/light_header.c **** 	Ltpb__SensorCharacterization *sensor_char =
 512:/home/tienluong/workspace/atlantis_fw/platform/common/lightheader/src/light_header.c **** 			(Ltpb__SensorCharacterization *)gen_pvPortMalloc(light_header_heap,
 513:/home/tienluong/workspace/atlantis_fw/platform/common/lightheader/src/light_header.c **** 					sizeof(Ltpb__SensorCharacterization));
 514:/home/tienluong/workspace/atlantis_fw/platform/common/lightheader/src/light_header.c **** 
 515:/home/tienluong/workspace/atlantis_fw/platform/common/lightheader/src/light_header.c **** 	ltpb__sensor_characterization__init(sensor_char);
 516:/home/tienluong/workspace/atlantis_fw/platform/common/lightheader/src/light_header.c **** 
 517:/home/tienluong/workspace/atlantis_fw/platform/common/lightheader/src/light_header.c **** 	sensor_char->black_level = BLACK_LEVEL;
 518:/home/tienluong/workspace/atlantis_fw/platform/common/lightheader/src/light_header.c **** 	sensor_char->white_level = WHITE_LEVEL;
 519:/home/tienluong/workspace/atlantis_fw/platform/common/lightheader/src/light_header.c **** 
 520:/home/tienluong/workspace/atlantis_fw/platform/common/lightheader/src/light_header.c **** 	sensor_char->has_cliff_slope = TRUE;
 521:/home/tienluong/workspace/atlantis_fw/platform/common/lightheader/src/light_header.c **** 	sensor_char->cliff_slope = CLIFF_SLOPE;
 522:/home/tienluong/workspace/atlantis_fw/platform/common/lightheader/src/light_header.c **** 
 523:/home/tienluong/workspace/atlantis_fw/platform/common/lightheader/src/light_header.c **** 	sensor_char->n_vst_model = 0;
 524:/home/tienluong/workspace/atlantis_fw/platform/common/lightheader/src/light_header.c **** 	/*sensor_char->vst_model =
 525:/home/tienluong/workspace/atlantis_fw/platform/common/lightheader/src/light_header.c **** 	 (Ltpb__SensorCharacterization__VstNoiseModel **)gen_pvPortMalloc(light_header_heap,
 526:/home/tienluong/workspace/atlantis_fw/platform/common/lightheader/src/light_header.c **** 	 sensor_char->n_vst_model
 527:/home/tienluong/workspace/atlantis_fw/platform/common/lightheader/src/light_header.c **** 	 * sizeof(Ltpb__SensorCharacterization__VstNoiseModel));*/
 528:/home/tienluong/workspace/atlantis_fw/platform/common/lightheader/src/light_header.c **** 
 529:/home/tienluong/workspace/atlantis_fw/platform/common/lightheader/src/light_header.c **** 	return sensor_char;
 530:/home/tienluong/workspace/atlantis_fw/platform/common/lightheader/src/light_header.c **** }
 531:/home/tienluong/workspace/atlantis_fw/platform/common/lightheader/src/light_header.c **** 
 532:/home/tienluong/workspace/atlantis_fw/platform/common/lightheader/src/light_header.c **** 
 533:/home/tienluong/workspace/atlantis_fw/platform/common/lightheader/src/light_header.c **** LIGHT_HEADER_FUNC Ltpb__Point2I *get_sensor_bayer_red_override(cam_typedef_t *pcam)
 534:/home/tienluong/workspace/atlantis_fw/platform/common/lightheader/src/light_header.c **** {
 535:/home/tienluong/workspace/atlantis_fw/platform/common/lightheader/src/light_header.c **** 	Ltpb__Point2I *sensor_bayer_red_override = (Ltpb__Point2I *)gen_pvPortMalloc(light_header_heap,
 536:/home/tienluong/workspace/atlantis_fw/platform/common/lightheader/src/light_header.c **** 			sizeof(Ltpb__Point2I));
 537:/home/tienluong/workspace/atlantis_fw/platform/common/lightheader/src/light_header.c **** 	ltpb__point2_i__init(sensor_bayer_red_override);
 538:/home/tienluong/workspace/atlantis_fw/platform/common/lightheader/src/light_header.c **** 
 539:/home/tienluong/workspace/atlantis_fw/platform/common/lightheader/src/light_header.c **** 	uint8_t reg = img_sensor_read_pixel_order(pcam->image);
 540:/home/tienluong/workspace/atlantis_fw/platform/common/lightheader/src/light_header.c **** 
 541:/home/tienluong/workspace/atlantis_fw/platform/common/lightheader/src/light_header.c **** 	/* To handle pan chromatic sensor */
 542:/home/tienluong/workspace/atlantis_fw/platform/common/lightheader/src/light_header.c **** 	if (pcam->image->sensor_type == AR1335_PAN_SENSOR)
 543:/home/tienluong/workspace/atlantis_fw/platform/common/lightheader/src/light_header.c **** 	{
 544:/home/tienluong/workspace/atlantis_fw/platform/common/lightheader/src/light_header.c **** 		sensor_bayer_red_override->x = -1;
 545:/home/tienluong/workspace/atlantis_fw/platform/common/lightheader/src/light_header.c **** 		sensor_bayer_red_override->y = -1;
 546:/home/tienluong/workspace/atlantis_fw/platform/common/lightheader/src/light_header.c **** 		return sensor_bayer_red_override;
 547:/home/tienluong/workspace/atlantis_fw/platform/common/lightheader/src/light_header.c **** 	}
 548:/home/tienluong/workspace/atlantis_fw/platform/common/lightheader/src/light_header.c **** 	switch(reg)
 549:/home/tienluong/workspace/atlantis_fw/platform/common/lightheader/src/light_header.c **** 	{
 550:/home/tienluong/workspace/atlantis_fw/platform/common/lightheader/src/light_header.c **** 	case 0:
 551:/home/tienluong/workspace/atlantis_fw/platform/common/lightheader/src/light_header.c **** 		sensor_bayer_red_override->x = 1;
 552:/home/tienluong/workspace/atlantis_fw/platform/common/lightheader/src/light_header.c **** 		sensor_bayer_red_override->y = 0;
 553:/home/tienluong/workspace/atlantis_fw/platform/common/lightheader/src/light_header.c **** 		break;
 554:/home/tienluong/workspace/atlantis_fw/platform/common/lightheader/src/light_header.c **** 	case 1:
 555:/home/tienluong/workspace/atlantis_fw/platform/common/lightheader/src/light_header.c **** 		sensor_bayer_red_override->x = 0;
 556:/home/tienluong/workspace/atlantis_fw/platform/common/lightheader/src/light_header.c **** 		sensor_bayer_red_override->y = 0;
 557:/home/tienluong/workspace/atlantis_fw/platform/common/lightheader/src/light_header.c **** 		break;
 558:/home/tienluong/workspace/atlantis_fw/platform/common/lightheader/src/light_header.c **** 	case 2:
 559:/home/tienluong/workspace/atlantis_fw/platform/common/lightheader/src/light_header.c **** 
 560:/home/tienluong/workspace/atlantis_fw/platform/common/lightheader/src/light_header.c **** 		sensor_bayer_red_override->x = 1;
 561:/home/tienluong/workspace/atlantis_fw/platform/common/lightheader/src/light_header.c **** 		sensor_bayer_red_override->y = 1;
 562:/home/tienluong/workspace/atlantis_fw/platform/common/lightheader/src/light_header.c **** 		break;
 563:/home/tienluong/workspace/atlantis_fw/platform/common/lightheader/src/light_header.c **** 	case 3:
 564:/home/tienluong/workspace/atlantis_fw/platform/common/lightheader/src/light_header.c **** 		sensor_bayer_red_override->x = 0;
 565:/home/tienluong/workspace/atlantis_fw/platform/common/lightheader/src/light_header.c **** 
 566:/home/tienluong/workspace/atlantis_fw/platform/common/lightheader/src/light_header.c **** 		sensor_bayer_red_override->y = 1;
 567:/home/tienluong/workspace/atlantis_fw/platform/common/lightheader/src/light_header.c **** 		break;
 568:/home/tienluong/workspace/atlantis_fw/platform/common/lightheader/src/light_header.c **** 	default:
 569:/home/tienluong/workspace/atlantis_fw/platform/common/lightheader/src/light_header.c **** 		sensor_bayer_red_override->x = 1;
 570:/home/tienluong/workspace/atlantis_fw/platform/common/lightheader/src/light_header.c **** 		sensor_bayer_red_override->y = 0;
 571:/home/tienluong/workspace/atlantis_fw/platform/common/lightheader/src/light_header.c **** 		break;
 572:/home/tienluong/workspace/atlantis_fw/platform/common/lightheader/src/light_header.c **** 	}
 573:/home/tienluong/workspace/atlantis_fw/platform/common/lightheader/src/light_header.c **** 
 574:/home/tienluong/workspace/atlantis_fw/platform/common/lightheader/src/light_header.c **** 	return sensor_bayer_red_override;
 575:/home/tienluong/workspace/atlantis_fw/platform/common/lightheader/src/light_header.c **** 
 576:/home/tienluong/workspace/atlantis_fw/platform/common/lightheader/src/light_header.c **** }
 577:/home/tienluong/workspace/atlantis_fw/platform/common/lightheader/src/light_header.c **** 
 578:/home/tienluong/workspace/atlantis_fw/platform/common/lightheader/src/light_header.c **** LIGHT_HEADER_FUNC Ltpb__CameraModule *get_cam_module(cam_typedef_t *pcam)
 579:/home/tienluong/workspace/atlantis_fw/platform/common/lightheader/src/light_header.c **** {
 580:/home/tienluong/workspace/atlantis_fw/platform/common/lightheader/src/light_header.c **** 	uint8_t *p_tmp;
 581:/home/tienluong/workspace/atlantis_fw/platform/common/lightheader/src/light_header.c **** 	Ltpb__CameraModule *pcam_module = (Ltpb__CameraModule *)gen_pvPortMalloc(light_header_heap,
 582:/home/tienluong/workspace/atlantis_fw/platform/common/lightheader/src/light_header.c **** 										sizeof(Ltpb__CameraModule));
 583:/home/tienluong/workspace/atlantis_fw/platform/common/lightheader/src/light_header.c **** 	if(!pcam_module)
 584:/home/tienluong/workspace/atlantis_fw/platform/common/lightheader/src/light_header.c **** 		return NULL;
 585:/home/tienluong/workspace/atlantis_fw/platform/common/lightheader/src/light_header.c **** 	/* Initialize */
 586:/home/tienluong/workspace/atlantis_fw/platform/common/lightheader/src/light_header.c **** 	ltpb__camera_module__init(pcam_module);
 587:/home/tienluong/workspace/atlantis_fw/platform/common/lightheader/src/light_header.c **** 
 588:/home/tienluong/workspace/atlantis_fw/platform/common/lightheader/src/light_header.c **** 	/* Module properties */
 589:/home/tienluong/workspace/atlantis_fw/platform/common/lightheader/src/light_header.c **** 	pcam_module->id = get_cam_id(pcam);
 590:/home/tienluong/workspace/atlantis_fw/platform/common/lightheader/src/light_header.c **** 
 591:/home/tienluong/workspace/atlantis_fw/platform/common/lightheader/src/light_header.c **** 	/* Auto-focus related properties */
 592:/home/tienluong/workspace/atlantis_fw/platform/common/lightheader/src/light_header.c **** 	pcam_module->af_info = get_auto_focus_info(pcam);
 593:/home/tienluong/workspace/atlantis_fw/platform/common/lightheader/src/light_header.c **** 
 594:/home/tienluong/workspace/atlantis_fw/platform/common/lightheader/src/light_header.c **** 	/* set to false if sensor is damaged */
 595:/home/tienluong/workspace/atlantis_fw/platform/common/lightheader/src/light_header.c **** 	pcam_module->is_enabled = get_cam_is_enabled(pcam);
 596:/home/tienluong/workspace/atlantis_fw/platform/common/lightheader/src/light_header.c **** 
 597:/home/tienluong/workspace/atlantis_fw/platform/common/lightheader/src/light_header.c **** 	short mirror_position = 0;
 598:/home/tienluong/workspace/atlantis_fw/platform/common/lightheader/src/light_header.c **** 	short lens_position = 0;
 599:/home/tienluong/workspace/atlantis_fw/platform/common/lightheader/src/light_header.c **** 	/* Mirror position */
 600:/home/tienluong/workspace/atlantis_fw/platform/common/lightheader/src/light_header.c **** 	if(pcam->info.grp != GRP_A)
 601:/home/tienluong/workspace/atlantis_fw/platform/common/lightheader/src/light_header.c **** 	{
 602:/home/tienluong/workspace/atlantis_fw/platform/common/lightheader/src/light_header.c **** 		pcam_module->has_mirror_position = TRUE;
 603:/home/tienluong/workspace/atlantis_fw/platform/common/lightheader/src/light_header.c **** 		p_tmp = pcam->optical->settings->mirr_position;
 604:/home/tienluong/workspace/atlantis_fw/platform/common/lightheader/src/light_header.c **** 		memcpy(&mirror_position, p_tmp, 2 * sizeof(uint8_t));
 605:/home/tienluong/workspace/atlantis_fw/platform/common/lightheader/src/light_header.c **** 		pcam_module->mirror_position = mirror_position;
 606:/home/tienluong/workspace/atlantis_fw/platform/common/lightheader/src/light_header.c **** 	}
 607:/home/tienluong/workspace/atlantis_fw/platform/common/lightheader/src/light_header.c **** 	else
 608:/home/tienluong/workspace/atlantis_fw/platform/common/lightheader/src/light_header.c **** 		pcam_module->has_mirror_position = FALSE;
 609:/home/tienluong/workspace/atlantis_fw/platform/common/lightheader/src/light_header.c **** 
 610:/home/tienluong/workspace/atlantis_fw/platform/common/lightheader/src/light_header.c **** 	/* Lens position */
 611:/home/tienluong/workspace/atlantis_fw/platform/common/lightheader/src/light_header.c **** 	p_tmp = pcam->optical->settings->lens_position;
 612:/home/tienluong/workspace/atlantis_fw/platform/common/lightheader/src/light_header.c **** 	memcpy(&lens_position, p_tmp, 2 * sizeof(uint8_t));
 613:/home/tienluong/workspace/atlantis_fw/platform/common/lightheader/src/light_header.c **** 	pcam_module->lens_position = lens_position;
 614:/home/tienluong/workspace/atlantis_fw/platform/common/lightheader/src/light_header.c **** 
 615:/home/tienluong/workspace/atlantis_fw/platform/common/lightheader/src/light_header.c **** 	/* in ISO units, e.g., 100 == ISO100, might include digital gain */
 616:/home/tienluong/workspace/atlantis_fw/platform/common/lightheader/src/light_header.c **** 	float sensitivity = get_sensitivity(pcam);
 617:/home/tienluong/workspace/atlantis_fw/platform/common/lightheader/src/light_header.c **** 	pcam_module->sensor_total_gain = get_iso(sensitivity);
 618:/home/tienluong/workspace/atlantis_fw/platform/common/lightheader/src/light_header.c **** 
 619:/home/tienluong/workspace/atlantis_fw/platform/common/lightheader/src/light_header.c **** 	/* this corresponds to the actual analog sensor gain,
 620:/home/tienluong/workspace/atlantis_fw/platform/common/lightheader/src/light_header.c **** 	 * which often will be different than total_gain */
 621:/home/tienluong/workspace/atlantis_fw/platform/common/lightheader/src/light_header.c **** 	pcam_module->sensor_analog_gain = sensitivity;
 622:/home/tienluong/workspace/atlantis_fw/platform/common/lightheader/src/light_header.c **** 
 623:/home/tienluong/workspace/atlantis_fw/platform/common/lightheader/src/light_header.c **** 	/* exposure in nano */
 624:/home/tienluong/workspace/atlantis_fw/platform/common/lightheader/src/light_header.c **** 	uint64_t exposure = 0;
 625:/home/tienluong/workspace/atlantis_fw/platform/common/lightheader/src/light_header.c **** 	p_tmp = pcam->image->settings[light_system->active_ucid]->exposure;
 626:/home/tienluong/workspace/atlantis_fw/platform/common/lightheader/src/light_header.c **** 	memcpy(&exposure, p_tmp, 8 * sizeof(uint8_t));
 627:/home/tienluong/workspace/atlantis_fw/platform/common/lightheader/src/light_header.c **** 	if(exposure == 0)
 628:/home/tienluong/workspace/atlantis_fw/platform/common/lightheader/src/light_header.c **** 	{
 629:/home/tienluong/workspace/atlantis_fw/platform/common/lightheader/src/light_header.c **** 		exposure = get_exposure_ustime(pcam);
 630:/home/tienluong/workspace/atlantis_fw/platform/common/lightheader/src/light_header.c **** 	}
 631:/home/tienluong/workspace/atlantis_fw/platform/common/lightheader/src/light_header.c **** 	pcam_module->sensor_exposure = exposure;
 632:/home/tienluong/workspace/atlantis_fw/platform/common/lightheader/src/light_header.c **** 
 633:/home/tienluong/workspace/atlantis_fw/platform/common/lightheader/src/light_header.c **** 	/* sensor data surface descriptor */
 634:/home/tienluong/workspace/atlantis_fw/platform/common/lightheader/src/light_header.c **** 	pcam_module->sensor_data_surface = get_sensor_data_surface(pcam);
 635:/home/tienluong/workspace/atlantis_fw/platform/common/lightheader/src/light_header.c **** 
 636:/home/tienluong/workspace/atlantis_fw/platform/common/lightheader/src/light_header.c **** 	/* temparature in degrees C */
 637:/home/tienluong/workspace/atlantis_fw/platform/common/lightheader/src/light_header.c **** 	pcam_module->has_sensor_temparature = TRUE;
 638:/home/tienluong/workspace/atlantis_fw/platform/common/lightheader/src/light_header.c **** 	pcam_module->sensor_temparature = cam_read_temperature(pcam);
 639:/home/tienluong/workspace/atlantis_fw/platform/common/lightheader/src/light_header.c **** 
 640:/home/tienluong/workspace/atlantis_fw/platform/common/lightheader/src/light_header.c **** 	/* We fix the flip at the sensor level */
 641:/home/tienluong/workspace/atlantis_fw/platform/common/lightheader/src/light_header.c **** 	pcam_module->has_sensor_is_horizontal_flip = FALSE;
 642:/home/tienluong/workspace/atlantis_fw/platform/common/lightheader/src/light_header.c **** 	/* pcam_module->sensor_is_horizontal_flip = pcam->image->flip & FLIP_HORIZONTAL; */
 643:/home/tienluong/workspace/atlantis_fw/platform/common/lightheader/src/light_header.c **** 
 644:/home/tienluong/workspace/atlantis_fw/platform/common/lightheader/src/light_header.c **** 	/* We fix the flip at the sensor level */
 645:/home/tienluong/workspace/atlantis_fw/platform/common/lightheader/src/light_header.c **** 	pcam_module->has_sensor_is_vertical_flip = FALSE;
 646:/home/tienluong/workspace/atlantis_fw/platform/common/lightheader/src/light_header.c **** 	/* pcam_module->sensor_is_vertical_flip = pcam->image->flip & FLIP_VERTICAL; */
 647:/home/tienluong/workspace/atlantis_fw/platform/common/lightheader/src/light_header.c **** 
 648:/home/tienluong/workspace/atlantis_fw/platform/common/lightheader/src/light_header.c **** 	/* custom coordinate of red pixel in 2x2 bayer pattern */
 649:/home/tienluong/workspace/atlantis_fw/platform/common/lightheader/src/light_header.c **** 	pcam_module->sensor_bayer_red_override = get_sensor_bayer_red_override(pcam);
 650:/home/tienluong/workspace/atlantis_fw/platform/common/lightheader/src/light_header.c **** 
 651:/home/tienluong/workspace/atlantis_fw/platform/common/lightheader/src/light_header.c **** 	return pcam_module;
 652:/home/tienluong/workspace/atlantis_fw/platform/common/lightheader/src/light_header.c **** }
 653:/home/tienluong/workspace/atlantis_fw/platform/common/lightheader/src/light_header.c **** 
 654:/home/tienluong/workspace/atlantis_fw/platform/common/lightheader/src/light_header.c **** LIGHT_HEADER_FUNC Ltpb__SensorData *get_sensor_data(cam_typedef_t *pcam)
 655:/home/tienluong/workspace/atlantis_fw/platform/common/lightheader/src/light_header.c **** {
 656:/home/tienluong/workspace/atlantis_fw/platform/common/lightheader/src/light_header.c **** 	Ltpb__SensorData *sensor_data =
 657:/home/tienluong/workspace/atlantis_fw/platform/common/lightheader/src/light_header.c **** 			(Ltpb__SensorData *)gen_pvPortMalloc(light_header_heap,
 658:/home/tienluong/workspace/atlantis_fw/platform/common/lightheader/src/light_header.c **** 					sizeof(Ltpb__SensorData));
 659:/home/tienluong/workspace/atlantis_fw/platform/common/lightheader/src/light_header.c **** 
 660:/home/tienluong/workspace/atlantis_fw/platform/common/lightheader/src/light_header.c **** 	ltpb__sensor_data__init(sensor_data);
 661:/home/tienluong/workspace/atlantis_fw/platform/common/lightheader/src/light_header.c **** 
 662:/home/tienluong/workspace/atlantis_fw/platform/common/lightheader/src/light_header.c **** 	/* sensor type */
 663:/home/tienluong/workspace/atlantis_fw/platform/common/lightheader/src/light_header.c **** 	if (pcam->image->sensor_type == AR1335_COLOR_SENSOR )
 664:/home/tienluong/workspace/atlantis_fw/platform/common/lightheader/src/light_header.c **** 	{
 665:/home/tienluong/workspace/atlantis_fw/platform/common/lightheader/src/light_header.c **** 		sensor_data->type = LTPB__SENSOR_TYPE__SENSOR_AR1335;
 666:/home/tienluong/workspace/atlantis_fw/platform/common/lightheader/src/light_header.c **** 	}
 667:/home/tienluong/workspace/atlantis_fw/platform/common/lightheader/src/light_header.c **** 	else
 668:/home/tienluong/workspace/atlantis_fw/platform/common/lightheader/src/light_header.c **** 	{
 669:/home/tienluong/workspace/atlantis_fw/platform/common/lightheader/src/light_header.c **** 		sensor_data->type = LTPB__SENSOR_TYPE__SENSOR_AR1335_MONO;
 670:/home/tienluong/workspace/atlantis_fw/platform/common/lightheader/src/light_header.c **** 	}
 671:/home/tienluong/workspace/atlantis_fw/platform/common/lightheader/src/light_header.c **** 	/* noise characterization, black/white levels, etc.. */
 672:/home/tienluong/workspace/atlantis_fw/platform/common/lightheader/src/light_header.c **** 	sensor_data->data = get_sensor_characterization_data(pcam);
 673:/home/tienluong/workspace/atlantis_fw/platform/common/lightheader/src/light_header.c **** 
 674:/home/tienluong/workspace/atlantis_fw/platform/common/lightheader/src/light_header.c **** 	/* Time stamp of when the sensor was characterized. */
 675:/home/tienluong/workspace/atlantis_fw/platform/common/lightheader/src/light_header.c **** 	sensor_data->time_stamp = get_time_stamp();
 676:/home/tienluong/workspace/atlantis_fw/platform/common/lightheader/src/light_header.c **** 
 677:/home/tienluong/workspace/atlantis_fw/platform/common/lightheader/src/light_header.c **** 	return sensor_data;
 678:/home/tienluong/workspace/atlantis_fw/platform/common/lightheader/src/light_header.c **** }
 679:/home/tienluong/workspace/atlantis_fw/platform/common/lightheader/src/light_header.c **** 
 680:/home/tienluong/workspace/atlantis_fw/platform/common/lightheader/src/light_header.c **** LIGHT_HEADER_FUNC Ltpb__FlashCalibration *get_flash_calib(void)
 681:/home/tienluong/workspace/atlantis_fw/platform/common/lightheader/src/light_header.c **** {
 682:/home/tienluong/workspace/atlantis_fw/platform/common/lightheader/src/light_header.c **** 	Ltpb__FlashCalibration *flash_calib =
 683:/home/tienluong/workspace/atlantis_fw/platform/common/lightheader/src/light_header.c **** 			(Ltpb__FlashCalibration *)gen_pvPortMalloc(light_header_heap,
 684:/home/tienluong/workspace/atlantis_fw/platform/common/lightheader/src/light_header.c **** 					sizeof(Ltpb__FlashCalibration));
 685:/home/tienluong/workspace/atlantis_fw/platform/common/lightheader/src/light_header.c **** 
 686:/home/tienluong/workspace/atlantis_fw/platform/common/lightheader/src/light_header.c **** 	ltpb__flash_calibration__init(flash_calib);
 687:/home/tienluong/workspace/atlantis_fw/platform/common/lightheader/src/light_header.c **** 
 688:/home/tienluong/workspace/atlantis_fw/platform/common/lightheader/src/light_header.c **** 	/* TODO: have to complete all fields bellow */
 689:/home/tienluong/workspace/atlantis_fw/platform/common/lightheader/src/light_header.c **** 	/* measured lux in the box of cool white led */
 690:/home/tienluong/workspace/atlantis_fw/platform/common/lightheader/src/light_header.c **** 	flash_calib->ledcool_lux = 0;
 691:/home/tienluong/workspace/atlantis_fw/platform/common/lightheader/src/light_header.c **** 	/* maximum lumens of cool white led */
 692:/home/tienluong/workspace/atlantis_fw/platform/common/lightheader/src/light_header.c **** 	flash_calib->ledcool_max_lumens = 0;
 693:/home/tienluong/workspace/atlantis_fw/platform/common/lightheader/src/light_header.c **** 	/* cct of cool white led in Kelvin */
 694:/home/tienluong/workspace/atlantis_fw/platform/common/lightheader/src/light_header.c **** 	flash_calib->ledcool_cct = 0;
 695:/home/tienluong/workspace/atlantis_fw/platform/common/lightheader/src/light_header.c **** 
 696:/home/tienluong/workspace/atlantis_fw/platform/common/lightheader/src/light_header.c **** 	/* measured lux in the box of warm white led */
 697:/home/tienluong/workspace/atlantis_fw/platform/common/lightheader/src/light_header.c **** 	flash_calib->ledwarm_lux = 0;
 698:/home/tienluong/workspace/atlantis_fw/platform/common/lightheader/src/light_header.c **** 	/* maximum lumens of warm white led */
 699:/home/tienluong/workspace/atlantis_fw/platform/common/lightheader/src/light_header.c **** 	flash_calib->ledwarm_max_lumens = 0;
 700:/home/tienluong/workspace/atlantis_fw/platform/common/lightheader/src/light_header.c **** 	/* cct of warm white led in Kelvin */
 701:/home/tienluong/workspace/atlantis_fw/platform/common/lightheader/src/light_header.c **** 	flash_calib->ledwarm_cct = 0;
 702:/home/tienluong/workspace/atlantis_fw/platform/common/lightheader/src/light_header.c **** 
 703:/home/tienluong/workspace/atlantis_fw/platform/common/lightheader/src/light_header.c **** 	return flash_calib;
 704:/home/tienluong/workspace/atlantis_fw/platform/common/lightheader/src/light_header.c **** }
 705:/home/tienluong/workspace/atlantis_fw/platform/common/lightheader/src/light_header.c **** 
 706:/home/tienluong/workspace/atlantis_fw/platform/common/lightheader/src/light_header.c **** LIGHT_HEADER_FUNC Ltpb__ToFCalibration *get_tof_calib(void)
 707:/home/tienluong/workspace/atlantis_fw/platform/common/lightheader/src/light_header.c **** {
 708:/home/tienluong/workspace/atlantis_fw/platform/common/lightheader/src/light_header.c **** 	Ltpb__ToFCalibration *tof_calib = (Ltpb__ToFCalibration *)gen_pvPortMalloc(light_header_heap,
 709:/home/tienluong/workspace/atlantis_fw/platform/common/lightheader/src/light_header.c **** 			sizeof(Ltpb__ToFCalibration));
 710:/home/tienluong/workspace/atlantis_fw/platform/common/lightheader/src/light_header.c **** 
 711:/home/tienluong/workspace/atlantis_fw/platform/common/lightheader/src/light_header.c **** 	ltpb__to_fcalibration__init(tof_calib);
 712:/home/tienluong/workspace/atlantis_fw/platform/common/lightheader/src/light_header.c **** 
 713:/home/tienluong/workspace/atlantis_fw/platform/common/lightheader/src/light_header.c **** 	/* TODO: have to complete all fields */
 714:/home/tienluong/workspace/atlantis_fw/platform/common/lightheader/src/light_header.c **** 
 715:/home/tienluong/workspace/atlantis_fw/platform/common/lightheader/src/light_header.c **** 	/* distance in mm of the offset chart */
 716:/home/tienluong/workspace/atlantis_fw/platform/common/lightheader/src/light_header.c **** 	tof_calib->offset_distance = 0;
 717:/home/tienluong/workspace/atlantis_fw/platform/common/lightheader/src/light_header.c **** 	/* measured distance in mm of the offset chart */
 718:/home/tienluong/workspace/atlantis_fw/platform/common/lightheader/src/light_header.c **** 	tof_calib->offset_measurement = 0;
 719:/home/tienluong/workspace/atlantis_fw/platform/common/lightheader/src/light_header.c **** 	/* distance in mm of the cross talk chart */
 720:/home/tienluong/workspace/atlantis_fw/platform/common/lightheader/src/light_header.c **** 	tof_calib->xtalk_distance = 0;
 721:/home/tienluong/workspace/atlantis_fw/platform/common/lightheader/src/light_header.c **** 	/* measured distance in mm of the cross talk chart */
 722:/home/tienluong/workspace/atlantis_fw/platform/common/lightheader/src/light_header.c **** 	tof_calib->xtalk_measurement = 0;
 723:/home/tienluong/workspace/atlantis_fw/platform/common/lightheader/src/light_header.c **** 
 724:/home/tienluong/workspace/atlantis_fw/platform/common/lightheader/src/light_header.c **** 	return tof_calib;
 725:/home/tienluong/workspace/atlantis_fw/platform/common/lightheader/src/light_header.c **** }
 726:/home/tienluong/workspace/atlantis_fw/platform/common/lightheader/src/light_header.c **** 
 727:/home/tienluong/workspace/atlantis_fw/platform/common/lightheader/src/light_header.c **** LIGHT_HEADER_FUNC Ltpb__FactoryDeviceCalibration *get_factory_device_cablib(void)
 728:/home/tienluong/workspace/atlantis_fw/platform/common/lightheader/src/light_header.c **** {
 729:/home/tienluong/workspace/atlantis_fw/platform/common/lightheader/src/light_header.c **** 	Ltpb__FactoryDeviceCalibration *device_calib =
 730:/home/tienluong/workspace/atlantis_fw/platform/common/lightheader/src/light_header.c **** 			(Ltpb__FactoryDeviceCalibration *)gen_pvPortMalloc(light_header_heap,
 731:/home/tienluong/workspace/atlantis_fw/platform/common/lightheader/src/light_header.c **** 					sizeof(Ltpb__FactoryDeviceCalibration));
 732:/home/tienluong/workspace/atlantis_fw/platform/common/lightheader/src/light_header.c **** 
 733:/home/tienluong/workspace/atlantis_fw/platform/common/lightheader/src/light_header.c **** 	ltpb__factory_device_calibration__init(device_calib);
 734:/home/tienluong/workspace/atlantis_fw/platform/common/lightheader/src/light_header.c **** 
 735:/home/tienluong/workspace/atlantis_fw/platform/common/lightheader/src/light_header.c **** 	/* Flash calibration data */
 736:/home/tienluong/workspace/atlantis_fw/platform/common/lightheader/src/light_header.c **** 	device_calib->flash = get_flash_calib();
 737:/home/tienluong/workspace/atlantis_fw/platform/common/lightheader/src/light_header.c **** 	/* Time-of-Flight sensor calibration */
 738:/home/tienluong/workspace/atlantis_fw/platform/common/lightheader/src/light_header.c **** 	device_calib->tof = get_tof_calib();
 739:/home/tienluong/workspace/atlantis_fw/platform/common/lightheader/src/light_header.c **** 	/* Time stamp of when the device was calibrated in the factory. */
 740:/home/tienluong/workspace/atlantis_fw/platform/common/lightheader/src/light_header.c **** 	device_calib->time_stamp = get_time_stamp();
 741:/home/tienluong/workspace/atlantis_fw/platform/common/lightheader/src/light_header.c **** 
 742:/home/tienluong/workspace/atlantis_fw/platform/common/lightheader/src/light_header.c **** 	return device_calib;
 743:/home/tienluong/workspace/atlantis_fw/platform/common/lightheader/src/light_header.c **** }
 744:/home/tienluong/workspace/atlantis_fw/platform/common/lightheader/src/light_header.c **** 
 745:/home/tienluong/workspace/atlantis_fw/platform/common/lightheader/src/light_header.c **** LIGHT_HEADER_FUNC uint8_t check_mirror_present(cam_typedef_t *pcam)
 746:/home/tienluong/workspace/atlantis_fw/platform/common/lightheader/src/light_header.c **** {
 747:/home/tienluong/workspace/atlantis_fw/platform/common/lightheader/src/light_header.c **** 	/* check mirror is glued or not present */
 748:/home/tienluong/workspace/atlantis_fw/platform/common/lightheader/src/light_header.c **** 	if((pcam->info.grp == GRP_A) || (pcam->info.module == CAM_B4) ||
 749:/home/tienluong/workspace/atlantis_fw/platform/common/lightheader/src/light_header.c **** 		(pcam->info.module == CAM_C5) || (pcam->info.module == CAM_C6))
 750:/home/tienluong/workspace/atlantis_fw/platform/common/lightheader/src/light_header.c **** 	{
 751:/home/tienluong/workspace/atlantis_fw/platform/common/lightheader/src/light_header.c **** 		/* These CAMs don't have Mirror */
 752:/home/tienluong/workspace/atlantis_fw/platform/common/lightheader/src/light_header.c **** 		return 0;
 753:/home/tienluong/workspace/atlantis_fw/platform/common/lightheader/src/light_header.c **** 	}
 754:/home/tienluong/workspace/atlantis_fw/platform/common/lightheader/src/light_header.c **** 	return 1;
 755:/home/tienluong/workspace/atlantis_fw/platform/common/lightheader/src/light_header.c **** }
 756:/home/tienluong/workspace/atlantis_fw/platform/common/lightheader/src/light_header.c **** 
 757:/home/tienluong/workspace/atlantis_fw/platform/common/lightheader/src/light_header.c **** LIGHT_HEADER_FUNC Ltpb__CameraModuleHwInfo *get_cam_hw_info(cam_typedef_t *pcam)
 758:/home/tienluong/workspace/atlantis_fw/platform/common/lightheader/src/light_header.c **** {
 759:/home/tienluong/workspace/atlantis_fw/platform/common/lightheader/src/light_header.c **** 	Ltpb__CameraModuleHwInfo *cam_hw_info =
 760:/home/tienluong/workspace/atlantis_fw/platform/common/lightheader/src/light_header.c **** 			(Ltpb__CameraModuleHwInfo *)gen_pvPortMalloc(light_header_heap,
 761:/home/tienluong/workspace/atlantis_fw/platform/common/lightheader/src/light_header.c **** 					sizeof(Ltpb__CameraModuleHwInfo));
 762:/home/tienluong/workspace/atlantis_fw/platform/common/lightheader/src/light_header.c **** 
 763:/home/tienluong/workspace/atlantis_fw/platform/common/lightheader/src/light_header.c **** 	ltpb__camera_module_hw_info__init(cam_hw_info);
 764:/home/tienluong/workspace/atlantis_fw/platform/common/lightheader/src/light_header.c **** 
 765:/home/tienluong/workspace/atlantis_fw/platform/common/lightheader/src/light_header.c **** 	cam_hw_info->id = get_cam_id(pcam);
 766:/home/tienluong/workspace/atlantis_fw/platform/common/lightheader/src/light_header.c **** 	cam_hw_info->sensor = LTPB__SENSOR_TYPE__SENSOR_AR1335;
 767:/home/tienluong/workspace/atlantis_fw/platform/common/lightheader/src/light_header.c **** 
 768:/home/tienluong/workspace/atlantis_fw/platform/common/lightheader/src/light_header.c **** 
 769:/home/tienluong/workspace/atlantis_fw/platform/common/lightheader/src/light_header.c **** 	if(pcam->info.grp != GRP_A)
 770:/home/tienluong/workspace/atlantis_fw/platform/common/lightheader/src/light_header.c **** 	{
 771:/home/tienluong/workspace/atlantis_fw/platform/common/lightheader/src/light_header.c **** 		cam_hw_info->has_lens = TRUE;
 772:/home/tienluong/workspace/atlantis_fw/platform/common/lightheader/src/light_header.c **** 		cam_hw_info->lens = LTPB__CAMERA_MODULE_HW_INFO__LENS_TYPE__LENS_SUNNY;
 773:/home/tienluong/workspace/atlantis_fw/platform/common/lightheader/src/light_header.c **** 	}
 774:/home/tienluong/workspace/atlantis_fw/platform/common/lightheader/src/light_header.c **** 	else
 775:/home/tienluong/workspace/atlantis_fw/platform/common/lightheader/src/light_header.c **** 	{
 776:/home/tienluong/workspace/atlantis_fw/platform/common/lightheader/src/light_header.c **** 		cam_hw_info->has_lens = TRUE;
 777:/home/tienluong/workspace/atlantis_fw/platform/common/lightheader/src/light_header.c **** 		cam_hw_info->lens = LTPB__CAMERA_MODULE_HW_INFO__LENS_TYPE__LENS_UNKNOWN;
 778:/home/tienluong/workspace/atlantis_fw/platform/common/lightheader/src/light_header.c **** 	}
 779:/home/tienluong/workspace/atlantis_fw/platform/common/lightheader/src/light_header.c **** 
 780:/home/tienluong/workspace/atlantis_fw/platform/common/lightheader/src/light_header.c **** 	/* TODO: what is mirror actuator ?*/
 781:/home/tienluong/workspace/atlantis_fw/platform/common/lightheader/src/light_header.c **** 	cam_hw_info->has_mirror_actuator = 0;
 782:/home/tienluong/workspace/atlantis_fw/platform/common/lightheader/src/light_header.c **** 	cam_hw_info->mirror_actuator = 0;
 783:/home/tienluong/workspace/atlantis_fw/platform/common/lightheader/src/light_header.c **** 
 784:/home/tienluong/workspace/atlantis_fw/platform/common/lightheader/src/light_header.c **** 	cam_hw_info->has_mirror = check_mirror_present(pcam);
 785:/home/tienluong/workspace/atlantis_fw/platform/common/lightheader/src/light_header.c **** 	if(cam_hw_info->mirror)
 786:/home/tienluong/workspace/atlantis_fw/platform/common/lightheader/src/light_header.c **** 	{
 787:/home/tienluong/workspace/atlantis_fw/platform/common/lightheader/src/light_header.c **** 		cam_hw_info->mirror = LTPB__CAMERA_MODULE_HW_INFO__MIRROR_TYPE__MIRROR_UNKNOWN;
 788:/home/tienluong/workspace/atlantis_fw/platform/common/lightheader/src/light_header.c **** 	}
 789:/home/tienluong/workspace/atlantis_fw/platform/common/lightheader/src/light_header.c **** 
 790:/home/tienluong/workspace/atlantis_fw/platform/common/lightheader/src/light_header.c **** 	return cam_hw_info;
 791:/home/tienluong/workspace/atlantis_fw/platform/common/lightheader/src/light_header.c **** }
 792:/home/tienluong/workspace/atlantis_fw/platform/common/lightheader/src/light_header.c **** 
 793:/home/tienluong/workspace/atlantis_fw/platform/common/lightheader/src/light_header.c **** LIGHT_HEADER_FUNC Ltpb__HwInfo *get_hw_info(uint32_t m_bitmask)
 794:/home/tienluong/workspace/atlantis_fw/platform/common/lightheader/src/light_header.c **** {
 795:/home/tienluong/workspace/atlantis_fw/platform/common/lightheader/src/light_header.c **** 	Ltpb__HwInfo *hw_info = (Ltpb__HwInfo *)gen_pvPortMalloc(light_header_heap, sizeof(Ltpb__HwInfo));
 796:/home/tienluong/workspace/atlantis_fw/platform/common/lightheader/src/light_header.c **** 
 797:/home/tienluong/workspace/atlantis_fw/platform/common/lightheader/src/light_header.c **** 	ltpb__hw_info__init(hw_info);
 798:/home/tienluong/workspace/atlantis_fw/platform/common/lightheader/src/light_header.c **** 
 799:/home/tienluong/workspace/atlantis_fw/platform/common/lightheader/src/light_header.c **** 	hw_info->n_camera = get_cam_total_number(m_bitmask);
 800:/home/tienluong/workspace/atlantis_fw/platform/common/lightheader/src/light_header.c **** 	if (hw_info->n_camera == 0)
 801:/home/tienluong/workspace/atlantis_fw/platform/common/lightheader/src/light_header.c **** 	{
 802:/home/tienluong/workspace/atlantis_fw/platform/common/lightheader/src/light_header.c **** 		gen_vPortFree(light_header_heap, hw_info);
 803:/home/tienluong/workspace/atlantis_fw/platform/common/lightheader/src/light_header.c **** 		return NULL;
 804:/home/tienluong/workspace/atlantis_fw/platform/common/lightheader/src/light_header.c **** 	}
 805:/home/tienluong/workspace/atlantis_fw/platform/common/lightheader/src/light_header.c **** 	hw_info->camera = (Ltpb__CameraModuleHwInfo **)gen_pvPortMalloc(light_header_heap,
 806:/home/tienluong/workspace/atlantis_fw/platform/common/lightheader/src/light_header.c **** 			sizeof(Ltpb__CameraModuleHwInfo) * hw_info->n_camera);
 807:/home/tienluong/workspace/atlantis_fw/platform/common/lightheader/src/light_header.c **** 
 808:/home/tienluong/workspace/atlantis_fw/platform/common/lightheader/src/light_header.c **** 	/* Select all camera if global bit mask was set */
 809:/home/tienluong/workspace/atlantis_fw/platform/common/lightheader/src/light_header.c **** 	uint8_t cam_idx = 0;
 810:/home/tienluong/workspace/atlantis_fw/platform/common/lightheader/src/light_header.c **** 	cam_typedef_t *pcam;
 811:/home/tienluong/workspace/atlantis_fw/platform/common/lightheader/src/light_header.c **** 	uint8_t i = 0;
 812:/home/tienluong/workspace/atlantis_fw/platform/common/lightheader/src/light_header.c **** 	m_bitmask &= light_system->m_filter;
 813:/home/tienluong/workspace/atlantis_fw/platform/common/lightheader/src/light_header.c **** 	while(m_bitmask)
 814:/home/tienluong/workspace/atlantis_fw/platform/common/lightheader/src/light_header.c **** 	{
 815:/home/tienluong/workspace/atlantis_fw/platform/common/lightheader/src/light_header.c **** 		if(m_bitmask & 1)
 816:/home/tienluong/workspace/atlantis_fw/platform/common/lightheader/src/light_header.c **** 		{
 817:/home/tienluong/workspace/atlantis_fw/platform/common/lightheader/src/light_header.c **** 			pcam = idx_to_object(cam_idx);
 818:/home/tienluong/workspace/atlantis_fw/platform/common/lightheader/src/light_header.c **** 			if(pcam != NULL)
 819:/home/tienluong/workspace/atlantis_fw/platform/common/lightheader/src/light_header.c **** 			{
 820:/home/tienluong/workspace/atlantis_fw/platform/common/lightheader/src/light_header.c **** 				/* Get camera hardware informations */
 821:/home/tienluong/workspace/atlantis_fw/platform/common/lightheader/src/light_header.c **** 				hw_info->camera[i] = get_cam_hw_info(pcam);
 822:/home/tienluong/workspace/atlantis_fw/platform/common/lightheader/src/light_header.c **** 				i++;
 823:/home/tienluong/workspace/atlantis_fw/platform/common/lightheader/src/light_header.c **** 			}
 824:/home/tienluong/workspace/atlantis_fw/platform/common/lightheader/src/light_header.c **** 		}
 825:/home/tienluong/workspace/atlantis_fw/platform/common/lightheader/src/light_header.c **** 		m_bitmask >>= 1;
 826:/home/tienluong/workspace/atlantis_fw/platform/common/lightheader/src/light_header.c **** 		cam_idx++;
 827:/home/tienluong/workspace/atlantis_fw/platform/common/lightheader/src/light_header.c **** 	}
 828:/home/tienluong/workspace/atlantis_fw/platform/common/lightheader/src/light_header.c **** 
 829:/home/tienluong/workspace/atlantis_fw/platform/common/lightheader/src/light_header.c **** 	hw_info->has_flash = TRUE;
 830:/home/tienluong/workspace/atlantis_fw/platform/common/lightheader/src/light_header.c **** 	hw_info->flash = LTPB__HW_INFO__FLASH_TYPE__FLASH_UNKNOWN;
 831:/home/tienluong/workspace/atlantis_fw/platform/common/lightheader/src/light_header.c **** 
 832:/home/tienluong/workspace/atlantis_fw/platform/common/lightheader/src/light_header.c **** 	hw_info->has_tof = TRUE;
 833:/home/tienluong/workspace/atlantis_fw/platform/common/lightheader/src/light_header.c **** 	hw_info->tof = LTPB__HW_INFO__TO_FTYPE__TOF_STMICRO_VL53L0;
 834:/home/tienluong/workspace/atlantis_fw/platform/common/lightheader/src/light_header.c **** 
 835:/home/tienluong/workspace/atlantis_fw/platform/common/lightheader/src/light_header.c **** 	return hw_info;
 836:/home/tienluong/workspace/atlantis_fw/platform/common/lightheader/src/light_header.c **** }
 837:/home/tienluong/workspace/atlantis_fw/platform/common/lightheader/src/light_header.c **** 
 838:/home/tienluong/workspace/atlantis_fw/platform/common/lightheader/src/light_header.c **** LIGHT_HEADER_FUNC uint8_t get_n_module_calib(uint32_t m_bitmask)
 839:/home/tienluong/workspace/atlantis_fw/platform/common/lightheader/src/light_header.c **** {
 840:/home/tienluong/workspace/atlantis_fw/platform/common/lightheader/src/light_header.c **** 	uint8_t cam_idx = 0;
 841:/home/tienluong/workspace/atlantis_fw/platform/common/lightheader/src/light_header.c **** 	uint8_t cam_calib = 0;
 842:/home/tienluong/workspace/atlantis_fw/platform/common/lightheader/src/light_header.c **** 	cam_typedef_t *pcam;
 843:/home/tienluong/workspace/atlantis_fw/platform/common/lightheader/src/light_header.c **** 
 844:/home/tienluong/workspace/atlantis_fw/platform/common/lightheader/src/light_header.c **** 	m_bitmask &= light_system->m_filter;
 845:/home/tienluong/workspace/atlantis_fw/platform/common/lightheader/src/light_header.c **** 	while(m_bitmask)
 846:/home/tienluong/workspace/atlantis_fw/platform/common/lightheader/src/light_header.c **** 	{
 847:/home/tienluong/workspace/atlantis_fw/platform/common/lightheader/src/light_header.c **** 		if(m_bitmask & 1)
 848:/home/tienluong/workspace/atlantis_fw/platform/common/lightheader/src/light_header.c **** 		{
 849:/home/tienluong/workspace/atlantis_fw/platform/common/lightheader/src/light_header.c **** 			pcam = idx_to_object(cam_idx);
 850:/home/tienluong/workspace/atlantis_fw/platform/common/lightheader/src/light_header.c **** 			if(pcam != NULL)
 851:/home/tienluong/workspace/atlantis_fw/platform/common/lightheader/src/light_header.c **** 			{
 852:/home/tienluong/workspace/atlantis_fw/platform/common/lightheader/src/light_header.c **** 				if(pcam->info.grp != GRP_A)
 853:/home/tienluong/workspace/atlantis_fw/platform/common/lightheader/src/light_header.c **** 					cam_calib++;
 854:/home/tienluong/workspace/atlantis_fw/platform/common/lightheader/src/light_header.c **** 			}
 855:/home/tienluong/workspace/atlantis_fw/platform/common/lightheader/src/light_header.c **** 		}
 856:/home/tienluong/workspace/atlantis_fw/platform/common/lightheader/src/light_header.c **** 		m_bitmask >>= 1;
 857:/home/tienluong/workspace/atlantis_fw/platform/common/lightheader/src/light_header.c **** 		cam_idx++;
 858:/home/tienluong/workspace/atlantis_fw/platform/common/lightheader/src/light_header.c **** 	}
 859:/home/tienluong/workspace/atlantis_fw/platform/common/lightheader/src/light_header.c **** 	return cam_calib;
 860:/home/tienluong/workspace/atlantis_fw/platform/common/lightheader/src/light_header.c **** }
 861:/home/tienluong/workspace/atlantis_fw/platform/common/lightheader/src/light_header.c **** 
 862:/home/tienluong/workspace/atlantis_fw/platform/common/lightheader/src/light_header.c **** LIGHT_HEADER_FUNC Ltpb__FactoryModuleCalibration *get_module_calibration(cam_typedef_t *pcam)
 863:/home/tienluong/workspace/atlantis_fw/platform/common/lightheader/src/light_header.c **** {
 864:/home/tienluong/workspace/atlantis_fw/platform/common/lightheader/src/light_header.c **** 	Ltpb__FactoryModuleCalibration *module_calib = gen_pvPortMalloc(light_header_heap,
 865:/home/tienluong/workspace/atlantis_fw/platform/common/lightheader/src/light_header.c **** 			sizeof(Ltpb__FactoryModuleCalibration));
 866:/home/tienluong/workspace/atlantis_fw/platform/common/lightheader/src/light_header.c **** 
 867:/home/tienluong/workspace/atlantis_fw/platform/common/lightheader/src/light_header.c **** 	ltpb__factory_module_calibration__init(module_calib);
 868:/home/tienluong/workspace/atlantis_fw/platform/common/lightheader/src/light_header.c **** 
 869:/home/tienluong/workspace/atlantis_fw/platform/common/lightheader/src/light_header.c **** 	/* TODO: */
 870:/home/tienluong/workspace/atlantis_fw/platform/common/lightheader/src/light_header.c **** 	return module_calib;
 871:/home/tienluong/workspace/atlantis_fw/platform/common/lightheader/src/light_header.c **** }
 872:/home/tienluong/workspace/atlantis_fw/platform/common/lightheader/src/light_header.c **** 
 873:/home/tienluong/workspace/atlantis_fw/platform/common/lightheader/src/light_header.c **** /* Exported functions --------------------------------------------------------*/
 874:/home/tienluong/workspace/atlantis_fw/platform/common/lightheader/src/light_header.c **** LIGHT_HEADER_FUNC Ltpb__LightHeader* alloc_init_light_header()
 875:/home/tienluong/workspace/atlantis_fw/platform/common/lightheader/src/light_header.c **** {
 876:/home/tienluong/workspace/atlantis_fw/platform/common/lightheader/src/light_header.c ****     Ltpb__LightHeader* lh = (Ltpb__LightHeader*)gen_pvPortMalloc(light_header_heap,
 877:/home/tienluong/workspace/atlantis_fw/platform/common/lightheader/src/light_header.c ****             sizeof(Ltpb__LightHeader));
 878:/home/tienluong/workspace/atlantis_fw/platform/common/lightheader/src/light_header.c ****     assert_param(lh != NULL);
 879:/home/tienluong/workspace/atlantis_fw/platform/common/lightheader/src/light_header.c ****     ltpb__light_header__init(lh);
 880:/home/tienluong/workspace/atlantis_fw/platform/common/lightheader/src/light_header.c ****     return lh;
 881:/home/tienluong/workspace/atlantis_fw/platform/common/lightheader/src/light_header.c **** }
 882:/home/tienluong/workspace/atlantis_fw/platform/common/lightheader/src/light_header.c **** 
 883:/home/tienluong/workspace/atlantis_fw/platform/common/lightheader/src/light_header.c **** LIGHT_HEADER_FUNC lightheader_error_t get_light_header(uint32_t m_bitmask, Ltpb__LightHeader *phead
 884:/home/tienluong/workspace/atlantis_fw/platform/common/lightheader/src/light_header.c **** {
 885:/home/tienluong/workspace/atlantis_fw/platform/common/lightheader/src/light_header.c **** 	cam_typedef_t *pcam;
 886:/home/tienluong/workspace/atlantis_fw/platform/common/lightheader/src/light_header.c **** 
 887:/home/tienluong/workspace/atlantis_fw/platform/common/lightheader/src/light_header.c **** 	/* Fill CAM bitmask on ASIC board */
 888:/home/tienluong/workspace/atlantis_fw/platform/common/lightheader/src/light_header.c **** 	uint32_t cam_bitmask = m_bitmask & light_system->m_filter;
 889:/home/tienluong/workspace/atlantis_fw/platform/common/lightheader/src/light_header.c **** 	uint8_t cam_idx = 0;
 890:/home/tienluong/workspace/atlantis_fw/platform/common/lightheader/src/light_header.c **** 
 891:/home/tienluong/workspace/atlantis_fw/platform/common/lightheader/src/light_header.c **** 	uint8_t i = 0;
 892:/home/tienluong/workspace/atlantis_fw/platform/common/lightheader/src/light_header.c **** 	uint8_t *p_tmp;
 893:/home/tienluong/workspace/atlantis_fw/platform/common/lightheader/src/light_header.c **** 	/* uint8_t cam_calib_idx = 0; */
 894:/home/tienluong/workspace/atlantis_fw/platform/common/lightheader/src/light_header.c **** 	/*
 895:/home/tienluong/workspace/atlantis_fw/platform/common/lightheader/src/light_header.c **** 	 * captured camera properties
 896:/home/tienluong/workspace/atlantis_fw/platform/common/lightheader/src/light_header.c **** 	 */
 897:/home/tienluong/workspace/atlantis_fw/platform/common/lightheader/src/light_header.c **** 	pheader->n_modules = get_cam_total_number(m_bitmask);
 898:/home/tienluong/workspace/atlantis_fw/platform/common/lightheader/src/light_header.c **** 	if(pheader->n_modules == 0)
 899:/home/tienluong/workspace/atlantis_fw/platform/common/lightheader/src/light_header.c **** 	{
 900:/home/tienluong/workspace/atlantis_fw/platform/common/lightheader/src/light_header.c **** 		return LIGHT_HEADER_NO_CAM_ERROR;
 901:/home/tienluong/workspace/atlantis_fw/platform/common/lightheader/src/light_header.c **** 	}
 902:/home/tienluong/workspace/atlantis_fw/platform/common/lightheader/src/light_header.c **** 
 903:/home/tienluong/workspace/atlantis_fw/platform/common/lightheader/src/light_header.c **** 	/* Allocate memory for each camera */
 904:/home/tienluong/workspace/atlantis_fw/platform/common/lightheader/src/light_header.c **** 	pheader->modules = (Ltpb__CameraModule **)gen_pvPortMalloc(light_header_heap,
 905:/home/tienluong/workspace/atlantis_fw/platform/common/lightheader/src/light_header.c **** 			sizeof(Ltpb__CameraModule) * (pheader->n_modules));
 906:/home/tienluong/workspace/atlantis_fw/platform/common/lightheader/src/light_header.c **** 
 907:/home/tienluong/workspace/atlantis_fw/platform/common/lightheader/src/light_header.c **** 
 908:/home/tienluong/workspace/atlantis_fw/platform/common/lightheader/src/light_header.c **** 	if(pheader->modules == NULL)
 909:/home/tienluong/workspace/atlantis_fw/platform/common/lightheader/src/light_header.c **** 	{
 910:/home/tienluong/workspace/atlantis_fw/platform/common/lightheader/src/light_header.c **** 		return LIGHT_HEADER_INVALID_ARG;
 911:/home/tienluong/workspace/atlantis_fw/platform/common/lightheader/src/light_header.c **** 	}
 912:/home/tienluong/workspace/atlantis_fw/platform/common/lightheader/src/light_header.c **** 
 913:/home/tienluong/workspace/atlantis_fw/platform/common/lightheader/src/light_header.c **** 	/*
 914:/home/tienluong/workspace/atlantis_fw/platform/common/lightheader/src/light_header.c **** 	 * color calibration data for the "golden" module
 915:/home/tienluong/workspace/atlantis_fw/platform/common/lightheader/src/light_header.c **** 	 */
 916:/home/tienluong/workspace/atlantis_fw/platform/common/lightheader/src/light_header.c **** 	/*pheader->n_sensor_data = pheader->n_modules;
 917:/home/tienluong/workspace/atlantis_fw/platform/common/lightheader/src/light_header.c **** 	pheader->sensor_data = (Ltpb__LightHeader__SensorData **)gen_pvPortMalloc(light_header_heap,
 918:/home/tienluong/workspace/atlantis_fw/platform/common/lightheader/src/light_header.c **** 			sizeof(Ltpb__LightHeader__SensorData) * (pheader->n_sensor_data));
 919:/home/tienluong/workspace/atlantis_fw/platform/common/lightheader/src/light_header.c **** */
 920:/home/tienluong/workspace/atlantis_fw/platform/common/lightheader/src/light_header.c **** 	/*
 921:/home/tienluong/workspace/atlantis_fw/platform/common/lightheader/src/light_header.c **** 	 * global per capture properties
 922:/home/tienluong/workspace/atlantis_fw/platform/common/lightheader/src/light_header.c **** 	 */
 923:/home/tienluong/workspace/atlantis_fw/platform/common/lightheader/src/light_header.c **** 	/*
 924:/home/tienluong/workspace/atlantis_fw/platform/common/lightheader/src/light_header.c **** 	 * low 64 bits of 128 bit UUID
 925:/home/tienluong/workspace/atlantis_fw/platform/common/lightheader/src/light_header.c **** 	 */
 926:/home/tienluong/workspace/atlantis_fw/platform/common/lightheader/src/light_header.c **** 	pheader->has_image_unique_id_low = TRUE;
 927:/home/tienluong/workspace/atlantis_fw/platform/common/lightheader/src/light_header.c **** 	pheader->has_image_unique_id_high = TRUE;
 928:/home/tienluong/workspace/atlantis_fw/platform/common/lightheader/src/light_header.c **** 	p_tmp = light_system->settings->snapshot_uuid;
 929:/home/tienluong/workspace/atlantis_fw/platform/common/lightheader/src/light_header.c **** 	memcpy(&(pheader->image_unique_id_high), &(p_tmp[0]), sizeof(uint64_t));
 930:/home/tienluong/workspace/atlantis_fw/platform/common/lightheader/src/light_header.c **** 	memcpy(&(pheader->image_unique_id_low), &(p_tmp[8]), sizeof(uint64_t));
 931:/home/tienluong/workspace/atlantis_fw/platform/common/lightheader/src/light_header.c **** 	pheader->image_time_stamp = get_time_stamp();
 932:/home/tienluong/workspace/atlantis_fw/platform/common/lightheader/src/light_header.c **** 
 933:/home/tienluong/workspace/atlantis_fw/platform/common/lightheader/src/light_header.c **** 	/* TODO: what is image reference camera ?*/
 934:/home/tienluong/workspace/atlantis_fw/platform/common/lightheader/src/light_header.c **** 	cam_typedef_t *ref_cam;
 935:/home/tienluong/workspace/atlantis_fw/platform/common/lightheader/src/light_header.c **** 	ref_cam = get_cam_thumbnail(m_bitmask);
 936:/home/tienluong/workspace/atlantis_fw/platform/common/lightheader/src/light_header.c **** 	if(ref_cam != NULL)
 937:/home/tienluong/workspace/atlantis_fw/platform/common/lightheader/src/light_header.c **** 	{
 938:/home/tienluong/workspace/atlantis_fw/platform/common/lightheader/src/light_header.c **** 		pheader->has_image_reference_camera = TRUE;
 939:/home/tienluong/workspace/atlantis_fw/platform/common/lightheader/src/light_header.c **** 		pheader->image_reference_camera = get_cam_id(ref_cam);
 940:/home/tienluong/workspace/atlantis_fw/platform/common/lightheader/src/light_header.c **** 	}
 941:/home/tienluong/workspace/atlantis_fw/platform/common/lightheader/src/light_header.c **** 	else
 942:/home/tienluong/workspace/atlantis_fw/platform/common/lightheader/src/light_header.c **** 	{
 943:/home/tienluong/workspace/atlantis_fw/platform/common/lightheader/src/light_header.c **** 		pheader->has_image_reference_camera = FALSE;
 944:/home/tienluong/workspace/atlantis_fw/platform/common/lightheader/src/light_header.c **** 		pheader->image_reference_camera = 0;
 945:/home/tienluong/workspace/atlantis_fw/platform/common/lightheader/src/light_header.c **** 	}
 946:/home/tienluong/workspace/atlantis_fw/platform/common/lightheader/src/light_header.c **** 
 947:/home/tienluong/workspace/atlantis_fw/platform/common/lightheader/src/light_header.c **** 	/* Image_focal_length is per capture and for the whole image */
 948:/home/tienluong/workspace/atlantis_fw/platform/common/lightheader/src/light_header.c **** 	pheader->has_image_focal_length = TRUE;
 949:/home/tienluong/workspace/atlantis_fw/platform/common/lightheader/src/light_header.c **** 	pheader->image_focal_length = get_img_focal_length(ref_cam);
 950:/home/tienluong/workspace/atlantis_fw/platform/common/lightheader/src/light_header.c **** 
 951:/home/tienluong/workspace/atlantis_fw/platform/common/lightheader/src/light_header.c **** 	/*
 952:/home/tienluong/workspace/atlantis_fw/platform/common/lightheader/src/light_header.c **** 	 * global per device properties
 953:/home/tienluong/workspace/atlantis_fw/platform/common/lightheader/src/light_header.c **** 	 */
 954:/home/tienluong/workspace/atlantis_fw/platform/common/lightheader/src/light_header.c **** 	/*
 955:/home/tienluong/workspace/atlantis_fw/platform/common/lightheader/src/light_header.c **** 	 * low 64 bits of 128 bit UUID
 956:/home/tienluong/workspace/atlantis_fw/platform/common/lightheader/src/light_header.c **** 	 */
 957:/home/tienluong/workspace/atlantis_fw/platform/common/lightheader/src/light_header.c **** 	pheader->has_device_unique_id_low = FALSE;
 958:/home/tienluong/workspace/atlantis_fw/platform/common/lightheader/src/light_header.c **** 	pheader->device_unique_id_low = 0;
 959:/home/tienluong/workspace/atlantis_fw/platform/common/lightheader/src/light_header.c **** 
 960:/home/tienluong/workspace/atlantis_fw/platform/common/lightheader/src/light_header.c **** 	/*
 961:/home/tienluong/workspace/atlantis_fw/platform/common/lightheader/src/light_header.c **** 	 * high 64 bits of 128 bit UUID
 962:/home/tienluong/workspace/atlantis_fw/platform/common/lightheader/src/light_header.c **** 	 */
 963:/home/tienluong/workspace/atlantis_fw/platform/common/lightheader/src/light_header.c **** 	pheader->has_device_unique_id_high = FALSE;
 964:/home/tienluong/workspace/atlantis_fw/platform/common/lightheader/src/light_header.c **** 	pheader->device_unique_id_high = 0;
 965:/home/tienluong/workspace/atlantis_fw/platform/common/lightheader/src/light_header.c **** 
 966:/home/tienluong/workspace/atlantis_fw/platform/common/lightheader/src/light_header.c **** 	pheader->device_model_name = get_device_model_name();
 967:/home/tienluong/workspace/atlantis_fw/platform/common/lightheader/src/light_header.c **** 	pheader->device_fw_version = get_device_fw_version();
 968:/home/tienluong/workspace/atlantis_fw/platform/common/lightheader/src/light_header.c **** 	pheader->device_asic_fw_version = get_device_asic_fw_version();
 969:/home/tienluong/workspace/atlantis_fw/platform/common/lightheader/src/light_header.c **** 
 970:/home/tienluong/workspace/atlantis_fw/platform/common/lightheader/src/light_header.c **** 	/* Get device temperature
 971:/home/tienluong/workspace/atlantis_fw/platform/common/lightheader/src/light_header.c **** 	 * On P2 boead doesn't has temperature sensor */
 972:/home/tienluong/workspace/atlantis_fw/platform/common/lightheader/src/light_header.c **** 	pheader->device_temperature = (Ltpb__DeviceTemp *)gen_pvPortMalloc(light_header_heap,
 973:/home/tienluong/workspace/atlantis_fw/platform/common/lightheader/src/light_header.c **** 			sizeof(Ltpb__DeviceTemp));
 974:/home/tienluong/workspace/atlantis_fw/platform/common/lightheader/src/light_header.c **** 	ltpb__device_temp__init(pheader->device_temperature);
 975:/home/tienluong/workspace/atlantis_fw/platform/common/lightheader/src/light_header.c **** 
 976:/home/tienluong/workspace/atlantis_fw/platform/common/lightheader/src/light_header.c **** #if (ASIC_NUM == ASIC1)
 977:/home/tienluong/workspace/atlantis_fw/platform/common/lightheader/src/light_header.c **** 	pheader->device_temperature->sensor_1 = temp_sensor_read();
 978:/home/tienluong/workspace/atlantis_fw/platform/common/lightheader/src/light_header.c **** #else
 979:/home/tienluong/workspace/atlantis_fw/platform/common/lightheader/src/light_header.c **** 	pheader->device_temperature->sensor_1 = 0;
 980:/home/tienluong/workspace/atlantis_fw/platform/common/lightheader/src/light_header.c **** #endif
 981:/home/tienluong/workspace/atlantis_fw/platform/common/lightheader/src/light_header.c **** 	pheader->device_temperature->sensor_2 = 0;
 982:/home/tienluong/workspace/atlantis_fw/platform/common/lightheader/src/light_header.c **** 	pheader->device_temperature->sensor_3 = 0;
 983:/home/tienluong/workspace/atlantis_fw/platform/common/lightheader/src/light_header.c **** 	pheader->device_temperature->sensor_4 = 0;
 984:/home/tienluong/workspace/atlantis_fw/platform/common/lightheader/src/light_header.c **** 
 985:/home/tienluong/workspace/atlantis_fw/platform/common/lightheader/src/light_header.c **** 	/*
 986:/home/tienluong/workspace/atlantis_fw/platform/common/lightheader/src/light_header.c **** 	 * captured camera properties
 987:/home/tienluong/workspace/atlantis_fw/platform/common/lightheader/src/light_header.c **** 	 */
 988:/home/tienluong/workspace/atlantis_fw/platform/common/lightheader/src/light_header.c **** 
 989:/home/tienluong/workspace/atlantis_fw/platform/common/lightheader/src/light_header.c **** 	/*pheader->device_calibration = get_factory_device_cablib();
 990:/home/tienluong/workspace/atlantis_fw/platform/common/lightheader/src/light_header.c **** 
 991:/home/tienluong/workspace/atlantis_fw/platform/common/lightheader/src/light_header.c **** 	pheader->n_module_calibration = get_n_module_calib(m_bitmask);
 992:/home/tienluong/workspace/atlantis_fw/platform/common/lightheader/src/light_header.c **** 	if(pheader->n_module_calibration)
 993:/home/tienluong/workspace/atlantis_fw/platform/common/lightheader/src/light_header.c **** 	{
 994:/home/tienluong/workspace/atlantis_fw/platform/common/lightheader/src/light_header.c **** 		pheader->module_calibration =
 995:/home/tienluong/workspace/atlantis_fw/platform/common/lightheader/src/light_header.c **** 				(Ltpb__FactoryModuleCalibration **)gen_pvPortMalloc(light_header_heap,
 996:/home/tienluong/workspace/atlantis_fw/platform/common/lightheader/src/light_header.c **** 						sizeof(Ltpb__FactoryModuleCalibration));
 997:/home/tienluong/workspace/atlantis_fw/platform/common/lightheader/src/light_header.c **** 	}*/
 998:/home/tienluong/workspace/atlantis_fw/platform/common/lightheader/src/light_header.c **** 
 999:/home/tienluong/workspace/atlantis_fw/platform/common/lightheader/src/light_header.c **** 	/*
1000:/home/tienluong/workspace/atlantis_fw/platform/common/lightheader/src/light_header.c **** 	 * color calibration data for the "golden" module
1001:/home/tienluong/workspace/atlantis_fw/platform/common/lightheader/src/light_header.c **** 	 */
1002:/home/tienluong/workspace/atlantis_fw/platform/common/lightheader/src/light_header.c **** 	/* size_t n_gold_cc; */
1003:/home/tienluong/workspace/atlantis_fw/platform/common/lightheader/src/light_header.c **** 	/* Ltpb__ColorCalibrationGold **gold_cc; */
1004:/home/tienluong/workspace/atlantis_fw/platform/common/lightheader/src/light_header.c **** 
1005:/home/tienluong/workspace/atlantis_fw/platform/common/lightheader/src/light_header.c **** 	/* Time-of-flight sensor properties. ToF sensor reading, distance in mm */
1006:/home/tienluong/workspace/atlantis_fw/platform/common/lightheader/src/light_header.c **** #if (ASIC_NUM == ASIC1)
1007:/home/tienluong/workspace/atlantis_fw/platform/common/lightheader/src/light_header.c **** 	pheader->has_tof_range = TRUE;
1008:/home/tienluong/workspace/atlantis_fw/platform/common/lightheader/src/light_header.c **** #ifdef USING_TOF_FUNC
1009:/home/tienluong/workspace/atlantis_fw/platform/common/lightheader/src/light_header.c **** 	pheader->tof_range = light_system->ToF_dev.Data.LastRangeMeasure.RangeMilliMeter;
1010:/home/tienluong/workspace/atlantis_fw/platform/common/lightheader/src/light_header.c **** #else
1011:/home/tienluong/workspace/atlantis_fw/platform/common/lightheader/src/light_header.c **** 	pheader->tof_range = 0;
1012:/home/tienluong/workspace/atlantis_fw/platform/common/lightheader/src/light_header.c **** #endif /* USING_TOF_FUNC */
1013:/home/tienluong/workspace/atlantis_fw/platform/common/lightheader/src/light_header.c **** #else
1014:/home/tienluong/workspace/atlantis_fw/platform/common/lightheader/src/light_header.c **** 	pheader->has_tof_range = 0;
1015:/home/tienluong/workspace/atlantis_fw/platform/common/lightheader/src/light_header.c **** 	pheader->tof_range = 0;
1016:/home/tienluong/workspace/atlantis_fw/platform/common/lightheader/src/light_header.c **** #endif
1017:/home/tienluong/workspace/atlantis_fw/platform/common/lightheader/src/light_header.c **** 
1018:/home/tienluong/workspace/atlantis_fw/platform/common/lightheader/src/light_header.c **** 	/*
1019:/home/tienluong/workspace/atlantis_fw/platform/common/lightheader/src/light_header.c **** 	 * Hardware specification information block
1020:/home/tienluong/workspace/atlantis_fw/platform/common/lightheader/src/light_header.c **** 	 */
1021:/home/tienluong/workspace/atlantis_fw/platform/common/lightheader/src/light_header.c **** 	pheader->hw_info = get_hw_info(m_bitmask);
1022:/home/tienluong/workspace/atlantis_fw/platform/common/lightheader/src/light_header.c **** 
1023:/home/tienluong/workspace/atlantis_fw/platform/common/lightheader/src/light_header.c **** 	/* Select all camera if global bit mask was set */
1024:/home/tienluong/workspace/atlantis_fw/platform/common/lightheader/src/light_header.c **** 	i = 0;
1025:/home/tienluong/workspace/atlantis_fw/platform/common/lightheader/src/light_header.c **** 
1026:/home/tienluong/workspace/atlantis_fw/platform/common/lightheader/src/light_header.c **** 	cam_bitmask &= light_system->m_filter;
1027:/home/tienluong/workspace/atlantis_fw/platform/common/lightheader/src/light_header.c **** 	while(cam_bitmask)
1028:/home/tienluong/workspace/atlantis_fw/platform/common/lightheader/src/light_header.c **** 	{
1029:/home/tienluong/workspace/atlantis_fw/platform/common/lightheader/src/light_header.c **** 		if(cam_bitmask & 1)
1030:/home/tienluong/workspace/atlantis_fw/platform/common/lightheader/src/light_header.c **** 		{
1031:/home/tienluong/workspace/atlantis_fw/platform/common/lightheader/src/light_header.c **** 			pcam = idx_to_object(cam_idx);
1032:/home/tienluong/workspace/atlantis_fw/platform/common/lightheader/src/light_header.c **** 			if(pcam != NULL)
1033:/home/tienluong/workspace/atlantis_fw/platform/common/lightheader/src/light_header.c **** 			{
1034:/home/tienluong/workspace/atlantis_fw/platform/common/lightheader/src/light_header.c **** 				/* Get camera module informations */
1035:/home/tienluong/workspace/atlantis_fw/platform/common/lightheader/src/light_header.c **** 				pheader->modules[i] = get_cam_module(pcam);
1036:/home/tienluong/workspace/atlantis_fw/platform/common/lightheader/src/light_header.c **** 
1037:/home/tienluong/workspace/atlantis_fw/platform/common/lightheader/src/light_header.c **** 				/* Get sensor data */
1038:/home/tienluong/workspace/atlantis_fw/platform/common/lightheader/src/light_header.c **** 				/* pheader->sensor_data[i] = get_sensor_data(pcam); */
1039:/home/tienluong/workspace/atlantis_fw/platform/common/lightheader/src/light_header.c **** 
1040:/home/tienluong/workspace/atlantis_fw/platform/common/lightheader/src/light_header.c **** 				/* Calibration cam module */
1041:/home/tienluong/workspace/atlantis_fw/platform/common/lightheader/src/light_header.c **** 				/*if(pcam->info.grp != GRP_A)
1042:/home/tienluong/workspace/atlantis_fw/platform/common/lightheader/src/light_header.c **** 				{
1043:/home/tienluong/workspace/atlantis_fw/platform/common/lightheader/src/light_header.c **** 					pheader->module_calibration[cam_calib_idx] =
1044:/home/tienluong/workspace/atlantis_fw/platform/common/lightheader/src/light_header.c **** 							get_module_calibration(pcam);
1045:/home/tienluong/workspace/atlantis_fw/platform/common/lightheader/src/light_header.c **** 					cam_calib_idx++;
1046:/home/tienluong/workspace/atlantis_fw/platform/common/lightheader/src/light_header.c **** 				}*/
1047:/home/tienluong/workspace/atlantis_fw/platform/common/lightheader/src/light_header.c **** 				i++;
1048:/home/tienluong/workspace/atlantis_fw/platform/common/lightheader/src/light_header.c **** 			}
1049:/home/tienluong/workspace/atlantis_fw/platform/common/lightheader/src/light_header.c **** 		}
1050:/home/tienluong/workspace/atlantis_fw/platform/common/lightheader/src/light_header.c **** 		cam_bitmask >>= 1;
1051:/home/tienluong/workspace/atlantis_fw/platform/common/lightheader/src/light_header.c **** 		cam_idx++;
1052:/home/tienluong/workspace/atlantis_fw/platform/common/lightheader/src/light_header.c **** 	}
1053:/home/tienluong/workspace/atlantis_fw/platform/common/lightheader/src/light_header.c **** 
1054:/home/tienluong/workspace/atlantis_fw/platform/common/lightheader/src/light_header.c **** 	return LIGHT_HEADER_ERROR_NONE;
1055:/home/tienluong/workspace/atlantis_fw/platform/common/lightheader/src/light_header.c **** }
1056:/home/tienluong/workspace/atlantis_fw/platform/common/lightheader/src/light_header.c **** 
1057:/home/tienluong/workspace/atlantis_fw/platform/common/lightheader/src/light_header.c **** static void* alloc_pbuf_lh(void *allocator_data, size_t size) {
  26              		.loc 1 1057 0
  27              		.cfi_startproc
  28              		@ args = 0, pretend = 0, frame = 0
  29              		@ frame_needed = 0, uses_anonymous_args = 0
  30              	.LVL0:
  31 0000 10B5     		push	{r4, lr}
  32              	.LCFI0:
  33              		.cfi_def_cfa_offset 8
  34              		.cfi_offset 4, -8
  35              		.cfi_offset 14, -4
1058:/home/tienluong/workspace/atlantis_fw/platform/common/lightheader/src/light_header.c ****     return gen_pvPortMalloc(light_header_heap, size);
  36              		.loc 1 1058 0
  37 0002 034A     		ldr	r2, .L2
  38 0004 40F22243 		movw	r3, #1058
  39 0008 024C     		ldr	r4, .L2+4
  40 000a 0348     		ldr	r0, .L2+8
  41              	.LVL1:
  42 000c A047     		blx	r4
  43              	.LVL2:
1059:/home/tienluong/workspace/atlantis_fw/platform/common/lightheader/src/light_header.c **** }
  44              		.loc 1 1059 0
  45 000e 10BD     		pop	{r4, pc}
  46              	.L3:
  47              		.align	2
  48              	.L2:
  49 0010 00000000 		.word	.LANCHOR0
  50 0014 00000000 		.word	gen_pvPortMalloc1
  51 0018 00000000 		.word	ddr_heap_attribute
  52              		.cfi_endproc
  53              	.LFE34:
  55              		.section	.text.free_pbuf_lh,"ax",%progbits
  56              		.align	1
  57              		.thumb
  58              		.thumb_func
  60              	free_pbuf_lh:
  61              	.LFB35:
1060:/home/tienluong/workspace/atlantis_fw/platform/common/lightheader/src/light_header.c **** 
1061:/home/tienluong/workspace/atlantis_fw/platform/common/lightheader/src/light_header.c **** static void free_pbuf_lh(void *allocator_data, void *pointer) {
  62              		.loc 1 1061 0
  63              		.cfi_startproc
  64              		@ args = 0, pretend = 0, frame = 0
  65              		@ frame_needed = 0, uses_anonymous_args = 0
  66              	.LVL3:
  67 0000 10B5     		push	{r4, lr}
  68              	.LCFI1:
  69              		.cfi_def_cfa_offset 8
  70              		.cfi_offset 4, -8
  71              		.cfi_offset 14, -4
1062:/home/tienluong/workspace/atlantis_fw/platform/common/lightheader/src/light_header.c ****     gen_vPortFree(light_header_heap, pointer);
  72              		.loc 1 1062 0
  73 0002 0348     		ldr	r0, .L5
  74              	.LVL4:
  75 0004 40F22643 		movw	r3, #1062
  76 0008 024A     		ldr	r2, .L5+4
  77 000a 034C     		ldr	r4, .L5+8
  78 000c A047     		blx	r4
  79              	.LVL5:
  80 000e 10BD     		pop	{r4, pc}
  81              	.L6:
  82              		.align	2
  83              	.L5:
  84 0010 00000000 		.word	ddr_heap_attribute
  85 0014 00000000 		.word	.LANCHOR1
  86 0018 00000000 		.word	gen_vPortFree1
  87              		.cfi_endproc
  88              	.LFE35:
  90              		.section	.text.get_default_point2i,"ax",%progbits
  91              		.align	1
  92              		.global	get_default_point2i
  93              		.thumb
  94              		.thumb_func
  96              	get_default_point2i:
  97              	.LFB1:
 124:/home/tienluong/workspace/atlantis_fw/platform/common/lightheader/src/light_header.c **** 	Ltpb__Point2I *p = gen_pvPortMalloc(light_header_heap, sizeof(Ltpb__Point2I));
  98              		.loc 1 124 0
  99              		.cfi_startproc
 100              		@ args = 0, pretend = 0, frame = 0
 101              		@ frame_needed = 0, uses_anonymous_args = 0
 102              	.LVL6:
 103 0000 70B5     		push	{r4, r5, r6, lr}
 104              	.LCFI2:
 105              		.cfi_def_cfa_offset 16
 106              		.cfi_offset 4, -16
 107              		.cfi_offset 5, -12
 108              		.cfi_offset 6, -8
 109              		.cfi_offset 14, -4
 125:/home/tienluong/workspace/atlantis_fw/platform/common/lightheader/src/light_header.c **** 	ltpb__point2_i__init(p);
 110              		.loc 1 125 0
 111 0002 074A     		ldr	r2, .L8
 124:/home/tienluong/workspace/atlantis_fw/platform/common/lightheader/src/light_header.c **** 	Ltpb__Point2I *p = gen_pvPortMalloc(light_header_heap, sizeof(Ltpb__Point2I));
 112              		.loc 1 124 0
 113 0004 0646     		mov	r6, r0
 114 0006 0D46     		mov	r5, r1
 125:/home/tienluong/workspace/atlantis_fw/platform/common/lightheader/src/light_header.c **** 	ltpb__point2_i__init(p);
 115              		.loc 1 125 0
 116 0008 7D23     		movs	r3, #125
 117 000a 1421     		movs	r1, #20
 118              	.LVL7:
 119 000c 054C     		ldr	r4, .L8+4
 120 000e 0648     		ldr	r0, .L8+8
 121              	.LVL8:
 122 0010 A047     		blx	r4
 123              	.LVL9:
 126:/home/tienluong/workspace/atlantis_fw/platform/common/lightheader/src/light_header.c **** 	p->x = x;
 124              		.loc 1 126 0
 125 0012 064B     		ldr	r3, .L8+12
 125:/home/tienluong/workspace/atlantis_fw/platform/common/lightheader/src/light_header.c **** 	ltpb__point2_i__init(p);
 126              		.loc 1 125 0
 127 0014 0446     		mov	r4, r0
 128              	.LVL10:
 126:/home/tienluong/workspace/atlantis_fw/platform/common/lightheader/src/light_header.c **** 	p->x = x;
 129              		.loc 1 126 0
 130 0016 9847     		blx	r3
 131              	.LVL11:
 130:/home/tienluong/workspace/atlantis_fw/platform/common/lightheader/src/light_header.c **** LIGHT_HEADER_FUNC Ltpb__Point2F *get_default_point2f(float x, float y)
 132              		.loc 1 130 0
 133 0018 2046     		mov	r0, r4
 127:/home/tienluong/workspace/atlantis_fw/platform/common/lightheader/src/light_header.c **** 	p->y = y;
 134              		.loc 1 127 0
 135 001a E660     		str	r6, [r4, #12]
 128:/home/tienluong/workspace/atlantis_fw/platform/common/lightheader/src/light_header.c **** 	return p;
 136              		.loc 1 128 0
 137 001c 2561     		str	r5, [r4, #16]
 130:/home/tienluong/workspace/atlantis_fw/platform/common/lightheader/src/light_header.c **** LIGHT_HEADER_FUNC Ltpb__Point2F *get_default_point2f(float x, float y)
 138              		.loc 1 130 0
 139 001e 70BD     		pop	{r4, r5, r6, pc}
 140              	.LVL12:
 141              	.L9:
 142              		.align	2
 143              	.L8:
 144 0020 00000000 		.word	.LANCHOR2
 145 0024 00000000 		.word	gen_pvPortMalloc1
 146 0028 00000000 		.word	ddr_heap_attribute
 147 002c 00000000 		.word	ltpb__point2_i__init
 148              		.cfi_endproc
 149              	.LFE1:
 151              		.section	.text.get_default_point2f,"ax",%progbits
 152              		.align	1
 153              		.global	get_default_point2f
 154              		.thumb
 155              		.thumb_func
 157              	get_default_point2f:
 158              	.LFB2:
 132:/home/tienluong/workspace/atlantis_fw/platform/common/lightheader/src/light_header.c **** 	Ltpb__Point2F *p = gen_pvPortMalloc(light_header_heap, sizeof(Ltpb__Point2F));
 159              		.loc 1 132 0
 160              		.cfi_startproc
 161              		@ args = 0, pretend = 0, frame = 0
 162              		@ frame_needed = 0, uses_anonymous_args = 0
 163              	.LVL13:
 164 0000 70B5     		push	{r4, r5, r6, lr}
 165              	.LCFI3:
 166              		.cfi_def_cfa_offset 16
 167              		.cfi_offset 4, -16
 168              		.cfi_offset 5, -12
 169              		.cfi_offset 6, -8
 170              		.cfi_offset 14, -4
 133:/home/tienluong/workspace/atlantis_fw/platform/common/lightheader/src/light_header.c **** 	ltpb__point2_f__init(p);
 171              		.loc 1 133 0
 172 0002 074A     		ldr	r2, .L11
 132:/home/tienluong/workspace/atlantis_fw/platform/common/lightheader/src/light_header.c **** 	Ltpb__Point2F *p = gen_pvPortMalloc(light_header_heap, sizeof(Ltpb__Point2F));
 173              		.loc 1 132 0
 174 0004 0646     		mov	r6, r0
 175 0006 0D46     		mov	r5, r1
 133:/home/tienluong/workspace/atlantis_fw/platform/common/lightheader/src/light_header.c **** 	ltpb__point2_f__init(p);
 176              		.loc 1 133 0
 177 0008 8523     		movs	r3, #133
 178 000a 1421     		movs	r1, #20
 179              	.LVL14:
 180 000c 054C     		ldr	r4, .L11+4
 181 000e 0648     		ldr	r0, .L11+8
 182              	.LVL15:
 183 0010 A047     		blx	r4
 184              	.LVL16:
 134:/home/tienluong/workspace/atlantis_fw/platform/common/lightheader/src/light_header.c **** 	p->x = x;
 185              		.loc 1 134 0
 186 0012 064B     		ldr	r3, .L11+12
 133:/home/tienluong/workspace/atlantis_fw/platform/common/lightheader/src/light_header.c **** 	ltpb__point2_f__init(p);
 187              		.loc 1 133 0
 188 0014 0446     		mov	r4, r0
 189              	.LVL17:
 134:/home/tienluong/workspace/atlantis_fw/platform/common/lightheader/src/light_header.c **** 	p->x = x;
 190              		.loc 1 134 0
 191 0016 9847     		blx	r3
 192              	.LVL18:
 139:/home/tienluong/workspace/atlantis_fw/platform/common/lightheader/src/light_header.c **** LIGHT_HEADER_FUNC short cam_read_temperature(cam_typedef_t *pcam)
 193              		.loc 1 139 0
 194 0018 2046     		mov	r0, r4
 135:/home/tienluong/workspace/atlantis_fw/platform/common/lightheader/src/light_header.c **** 	p->y = y;
 195              		.loc 1 135 0
 196 001a E660     		str	r6, [r4, #12]	@ float
 136:/home/tienluong/workspace/atlantis_fw/platform/common/lightheader/src/light_header.c **** 	return p;
 197              		.loc 1 136 0
 198 001c 2561     		str	r5, [r4, #16]	@ float
 139:/home/tienluong/workspace/atlantis_fw/platform/common/lightheader/src/light_header.c **** LIGHT_HEADER_FUNC short cam_read_temperature(cam_typedef_t *pcam)
 199              		.loc 1 139 0
 200 001e 70BD     		pop	{r4, r5, r6, pc}
 201              	.LVL19:
 202              	.L12:
 203              		.align	2
 204              	.L11:
 205 0020 00000000 		.word	.LANCHOR3
 206 0024 00000000 		.word	gen_pvPortMalloc1
 207 0028 00000000 		.word	ddr_heap_attribute
 208 002c 00000000 		.word	ltpb__point2_f__init
 209              		.cfi_endproc
 210              	.LFE2:
 212              		.global	__aeabi_i2d
 213              		.global	__aeabi_ddiv
 214              		.global	__aeabi_d2f
 215              		.global	__aeabi_f2iz
 216              		.section	.text.cam_read_temperature,"ax",%progbits
 217              		.align	1
 218              		.global	cam_read_temperature
 219              		.thumb
 220              		.thumb_func
 222              	cam_read_temperature:
 223              	.LFB3:
 141:/home/tienluong/workspace/atlantis_fw/platform/common/lightheader/src/light_header.c **** 	uint16_t tmp_raw = 0;
 224              		.loc 1 141 0
 225              		.cfi_startproc
 226              		@ args = 0, pretend = 0, frame = 0
 227              		@ frame_needed = 0, uses_anonymous_args = 0
 228              	.LVL20:
 229 0000 F8B5     		push	{r3, r4, r5, r6, r7, lr}
 230              	.LCFI4:
 231              		.cfi_def_cfa_offset 24
 232              		.cfi_offset 3, -24
 233              		.cfi_offset 4, -20
 234              		.cfi_offset 5, -16
 235              		.cfi_offset 6, -12
 236              		.cfi_offset 7, -8
 237              		.cfi_offset 14, -4
 147:/home/tienluong/workspace/atlantis_fw/platform/common/lightheader/src/light_header.c **** 
 238              		.loc 1 147 0
 239 0002 0568     		ldr	r5, [r0]
 240              	.LVL21:
 151:/home/tienluong/workspace/atlantis_fw/platform/common/lightheader/src/light_header.c **** 			                        TEMP_SENSOR_RESET, TWO_BYTES))
 241              		.loc 1 151 0
 242 0004 43F22611 		movw	r1, #12582
 243 0008 2846     		mov	r0, r5
 244              	.LVL22:
 245 000a 0022     		movs	r2, #0
 246 000c 0223     		movs	r3, #2
 247 000e 244E     		ldr	r6, .L24+8
 248 0010 B047     		blx	r6
 249              	.LVL23:
 150:/home/tienluong/workspace/atlantis_fw/platform/common/lightheader/src/light_header.c **** 			== img_sensor_write_reg(img_sensor, TEMP_SENSOR_CTRL_REG,
 250              		.loc 1 150 0
 251 0012 0528     		cmp	r0, #5
 252 0014 01D0     		beq	.L14
 253              	.LVL24:
 254              	.L16:
 144:/home/tienluong/workspace/atlantis_fw/platform/common/lightheader/src/light_header.c **** 
 255              		.loc 1 144 0
 256 0016 0020     		movs	r0, #0
 257 0018 3AE0     		b	.L15
 258              	.LVL25:
 259              	.L14:
 156:/home/tienluong/workspace/atlantis_fw/platform/common/lightheader/src/light_header.c **** 										TEMP_SENSOR_RESET_DATA, TWO_BYTES))
 260              		.loc 1 156 0
 261 001a 2846     		mov	r0, r5
 262 001c 43F22611 		movw	r1, #12582
 263 0020 2122     		movs	r2, #33
 264 0022 0223     		movs	r3, #2
 265 0024 B047     		blx	r6
 266              	.LVL26:
 155:/home/tienluong/workspace/atlantis_fw/platform/common/lightheader/src/light_header.c **** 				== img_sensor_write_reg(img_sensor, TEMP_SENSOR_CTRL_REG,
 267              		.loc 1 155 0
 268 0026 0528     		cmp	r0, #5
 269 0028 F5D1     		bne	.L16
 161:/home/tienluong/workspace/atlantis_fw/platform/common/lightheader/src/light_header.c **** 											TEMP_SENSOR_START_READ, TWO_BYTES))
 270              		.loc 1 161 0
 271 002a 2846     		mov	r0, r5
 272 002c 43F22611 		movw	r1, #12582
 273 0030 1122     		movs	r2, #17
 274 0032 0223     		movs	r3, #2
 275 0034 B047     		blx	r6
 276              	.LVL27:
 160:/home/tienluong/workspace/atlantis_fw/platform/common/lightheader/src/light_header.c **** 					== img_sensor_write_reg(img_sensor, TEMP_SENSOR_CTRL_REG,
 277              		.loc 1 160 0
 278 0036 0528     		cmp	r0, #5
 279 0038 EDD1     		bne	.L16
 164:/home/tienluong/workspace/atlantis_fw/platform/common/lightheader/src/light_header.c **** 
 280              		.loc 1 164 0
 281 003a 0220     		movs	r0, #2
 282 003c 194B     		ldr	r3, .L24+12
 283 003e 9847     		blx	r3
 284              	.LVL28:
 167:/home/tienluong/workspace/atlantis_fw/platform/common/lightheader/src/light_header.c **** 						TWO_BYTES);
 285              		.loc 1 167 0
 286 0040 194F     		ldr	r7, .L24+16
 287 0042 2846     		mov	r0, r5
 288 0044 43F22411 		movw	r1, #12580
 289 0048 0222     		movs	r2, #2
 290 004a B847     		blx	r7
 291              	.LVL29:
 170:/home/tienluong/workspace/atlantis_fw/platform/common/lightheader/src/light_header.c **** 				{
 292              		.loc 1 170 0
 293 004c 0446     		mov	r4, r0
 294 004e 0028     		cmp	r0, #0
 295 0050 E1D0     		beq	.L16
 296              	.LVL30:
 175:/home/tienluong/workspace/atlantis_fw/platform/common/lightheader/src/light_header.c **** 											TEMP_SENSOR_CTRL_REG,
 297              		.loc 1 175 0
 298 0052 2846     		mov	r0, r5
 299 0054 43F22611 		movw	r1, #12582
 300 0058 2122     		movs	r2, #33
 301 005a 0223     		movs	r3, #2
 302 005c B047     		blx	r6
 303              	.LVL31:
 174:/home/tienluong/workspace/atlantis_fw/platform/common/lightheader/src/light_header.c **** 							== img_sensor_write_reg(img_sensor,
 304              		.loc 1 174 0
 305 005e 0528     		cmp	r0, #5
 306 0060 D9D1     		bne	.L16
 180:/home/tienluong/workspace/atlantis_fw/platform/common/lightheader/src/light_header.c **** 						TEMP_SENSOR_CAL1_REG, TWO_BYTES);
 307              		.loc 1 180 0
 308 0062 2846     		mov	r0, r5
 309 0064 43F22811 		movw	r1, #12584
 310 0068 0222     		movs	r2, #2
 311 006a B847     		blx	r7
 312              	.LVL32:
 182:/home/tienluong/workspace/atlantis_fw/platform/common/lightheader/src/light_header.c **** 						{
 313              		.loc 1 182 0
 314 006c 0028     		cmp	r0, #0
 315 006e D2D0     		beq	.L16
 184:/home/tienluong/workspace/atlantis_fw/platform/common/lightheader/src/light_header.c **** 									/ 1.51));
 316              		.loc 1 184 0
 317 0070 C4F30904 		ubfx	r4, r4, #0, #10
 318              	.LVL33:
 319 0074 201A     		subs	r0, r4, r0
 320              	.LVL34:
 185:/home/tienluong/workspace/atlantis_fw/platform/common/lightheader/src/light_header.c **** 						}
 321              		.loc 1 185 0
 322 0076 0D4B     		ldr	r3, .L24+20
 323 0078 5A30     		adds	r0, r0, #90
 324 007a 9847     		blx	r3
 325              	.LVL35:
 326 007c 0C4C     		ldr	r4, .L24+24
 327 007e 06A3     		adr	r3, .L24
 328 0080 D3E90023 		ldrd	r2, [r3]
 329 0084 A047     		blx	r4
 330              	.LVL36:
 184:/home/tienluong/workspace/atlantis_fw/platform/common/lightheader/src/light_header.c **** 									/ 1.51));
 331              		.loc 1 184 0
 332 0086 0B4B     		ldr	r3, .L24+28
 333 0088 9847     		blx	r3
 334              	.LVL37:
 335 008a 0B4B     		ldr	r3, .L24+32
 336 008c 9847     		blx	r3
 337              	.LVL38:
 338 008e 80B2     		uxth	r0, r0
 339              	.LVL39:
 340              	.L15:
 194:/home/tienluong/workspace/atlantis_fw/platform/common/lightheader/src/light_header.c **** 
 341              		.loc 1 194 0
 342 0090 00B2     		sxth	r0, r0
 343 0092 F8BD     		pop	{r3, r4, r5, r6, r7, pc}
 344              	.LVL40:
 345              	.L25:
 346 0094 AFF30080 		.align	3
 347              	.L24:
 348 0098 295C8FC2 		.word	-1030792151
 349 009c F528F83F 		.word	1073228021
 350 00a0 00000000 		.word	img_sensor_write_reg
 351 00a4 00000000 		.word	vTaskDelay
 352 00a8 00000000 		.word	img_sensor_read_reg
 353 00ac 00000000 		.word	__aeabi_i2d
 354 00b0 00000000 		.word	__aeabi_ddiv
 355 00b4 00000000 		.word	__aeabi_d2f
 356 00b8 00000000 		.word	__aeabi_f2iz
 357              		.cfi_endproc
 358              	.LFE3:
 360 00bc AFF30080 		.section	.text.get_sensitivity,"ax",%progbits
 361              		.align	1
 362              		.global	get_sensitivity
 363              		.thumb
 364              		.thumb_func
 366              	get_sensitivity:
 367              	.LFB4:
 197:/home/tienluong/workspace/atlantis_fw/platform/common/lightheader/src/light_header.c **** 	if(!pcam)
 368              		.loc 1 197 0
 369              		.cfi_startproc
 370              		@ args = 0, pretend = 0, frame = 8
 371              		@ frame_needed = 0, uses_anonymous_args = 0
 372              	.LVL41:
 373 0000 1FB5     		push	{r0, r1, r2, r3, r4, lr}
 374              	.LCFI5:
 375              		.cfi_def_cfa_offset 24
 376              		.cfi_offset 4, -8
 377              		.cfi_offset 14, -4
 198:/home/tienluong/workspace/atlantis_fw/platform/common/lightheader/src/light_header.c **** 		return FALSE;
 378              		.loc 1 198 0
 379 0002 08B9     		cbnz	r0, .L27
 380              	.LVL42:
 381              	.L29:
 199:/home/tienluong/workspace/atlantis_fw/platform/common/lightheader/src/light_header.c **** 	uint8_t ch;
 382              		.loc 1 199 0
 383 0004 0020     		movs	r0, #0
 384 0006 1AE0     		b	.L28
 385              	.LVL43:
 386              	.L27:
 204:/home/tienluong/workspace/atlantis_fw/platform/common/lightheader/src/light_header.c **** 	IMAGE_SENSOR_ADDRESS, CAM_REG_SENSITIVITY, (uint8_t *)&total_gain_code))
 387              		.loc 1 204 0
 388 0008 0DF10E03 		add	r3, sp, #14
 203:/home/tienluong/workspace/atlantis_fw/platform/common/lightheader/src/light_header.c **** 	if(I2CM_ERROR_TRANSCEIVED == i2cm.read(ch, WORD_ADDR16,
 389              		.loc 1 203 0
 390 000c 90F82800 		ldrb	r0, [r0, #40]	@ zero_extendqisi2
 391              	.LVL44:
 392 0010 C0F30300 		ubfx	r0, r0, #0, #4
 393              	.LVL45:
 204:/home/tienluong/workspace/atlantis_fw/platform/common/lightheader/src/light_header.c **** 	IMAGE_SENSOR_ADDRESS, CAM_REG_SENSITIVITY, (uint8_t *)&total_gain_code))
 394              		.loc 1 204 0
 395 0014 0093     		str	r3, [sp]
 396              	.LVL46:
 203:/home/tienluong/workspace/atlantis_fw/platform/common/lightheader/src/light_header.c **** 	if(I2CM_ERROR_TRANSCEIVED == i2cm.read(ch, WORD_ADDR16,
 397              		.loc 1 203 0
 398 0016 0138     		subs	r0, r0, #1
 204:/home/tienluong/workspace/atlantis_fw/platform/common/lightheader/src/light_header.c **** 	IMAGE_SENSOR_ADDRESS, CAM_REG_SENSITIVITY, (uint8_t *)&total_gain_code))
 399              		.loc 1 204 0
 400 0018 0A4B     		ldr	r3, .L30
 401 001a 0321     		movs	r1, #3
 402 001c C0B2     		uxtb	r0, r0
 403 001e 3622     		movs	r2, #54
 404 0020 DC68     		ldr	r4, [r3, #12]
 405 0022 43F25E03 		movw	r3, #12382
 406 0026 A047     		blx	r4
 407              	.LVL47:
 408 0028 0728     		cmp	r0, #7
 409 002a EBD1     		bne	.L29
 207:/home/tienluong/workspace/atlantis_fw/platform/common/lightheader/src/light_header.c **** 		total_gain = get_total_gain(total_gain_code, UCID_HIRES_CAPTURE);
 410              		.loc 1 207 0
 411 002c BDF80E00 		ldrh	r0, [sp, #14]
 412 0030 40BA     		rev16	r0, r0
 208:/home/tienluong/workspace/atlantis_fw/platform/common/lightheader/src/light_header.c **** 		return total_gain;
 413              		.loc 1 208 0
 414 0032 0521     		movs	r1, #5
 207:/home/tienluong/workspace/atlantis_fw/platform/common/lightheader/src/light_header.c **** 		total_gain = get_total_gain(total_gain_code, UCID_HIRES_CAPTURE);
 415              		.loc 1 207 0
 416 0034 ADF80E00 		strh	r0, [sp, #14]	@ movhi
 208:/home/tienluong/workspace/atlantis_fw/platform/common/lightheader/src/light_header.c **** 		return total_gain;
 417              		.loc 1 208 0
 418 0038 80B2     		uxth	r0, r0
 419 003a 034B     		ldr	r3, .L30+4
 420 003c 9847     		blx	r3
 421              	.LVL48:
 422              	.L28:
 212:/home/tienluong/workspace/atlantis_fw/platform/common/lightheader/src/light_header.c **** 
 423              		.loc 1 212 0
 424 003e 04B0     		add	sp, sp, #16
 425              	.LCFI6:
 426              		.cfi_def_cfa_offset 8
 427              		@ sp needed
 428 0040 10BD     		pop	{r4, pc}
 429              	.L31:
 430 0042 00BF     		.align	2
 431              	.L30:
 432 0044 00000000 		.word	i2cm
 433 0048 00000000 		.word	get_total_gain
 434              		.cfi_endproc
 435              	.LFE4:
 437              		.global	__aeabi_ui2d
 438              		.global	__aeabi_f2uiz
 439              		.global	__aeabi_dmul
 440              		.global	__aeabi_d2ulz
 441              		.section	.text.get_exposure_ustime,"ax",%progbits
 442              		.align	1
 443              		.global	get_exposure_ustime
 444              		.thumb
 445              		.thumb_func
 447              	get_exposure_ustime:
 448              	.LFB5:
 215:/home/tienluong/workspace/atlantis_fw/platform/common/lightheader/src/light_header.c **** 	uint64_t exposure = 0;
 449              		.loc 1 215 0
 450              		.cfi_startproc
 451              		@ args = 0, pretend = 0, frame = 0
 452              		@ frame_needed = 0, uses_anonymous_args = 0
 453              	.LVL49:
 454 0000 2DE9F041 		push	{r4, r5, r6, r7, r8, lr}
 455              	.LCFI7:
 456              		.cfi_def_cfa_offset 24
 457              		.cfi_offset 4, -24
 458              		.cfi_offset 5, -20
 459              		.cfi_offset 6, -16
 460              		.cfi_offset 7, -12
 461              		.cfi_offset 8, -8
 462              		.cfi_offset 14, -4
 217:/home/tienluong/workspace/atlantis_fw/platform/common/lightheader/src/light_header.c **** 	uint32_t vtpixclk = img_sensor_get_vt_pix_clk_mhz(pcam->image);
 463              		.loc 1 217 0
 464 0004 40F24231 		movw	r1, #834
 215:/home/tienluong/workspace/atlantis_fw/platform/common/lightheader/src/light_header.c **** 	uint64_t exposure = 0;
 465              		.loc 1 215 0
 466 0008 0446     		mov	r4, r0
 217:/home/tienluong/workspace/atlantis_fw/platform/common/lightheader/src/light_header.c **** 	uint32_t vtpixclk = img_sensor_get_vt_pix_clk_mhz(pcam->image);
 467              		.loc 1 217 0
 468 000a 0222     		movs	r2, #2
 469 000c 154D     		ldr	r5, .L33
 470 000e 0068     		ldr	r0, [r0]
 471              	.LVL50:
 472 0010 A847     		blx	r5
 473              	.LVL51:
 218:/home/tienluong/workspace/atlantis_fw/platform/common/lightheader/src/light_header.c **** 	uint32_t cit = img_sensor_read_reg(pcam->image, CIT_CAM_REG, TWO_BYTES);
 474              		.loc 1 218 0
 475 0012 154B     		ldr	r3, .L33+4
 217:/home/tienluong/workspace/atlantis_fw/platform/common/lightheader/src/light_header.c **** 	uint32_t vtpixclk = img_sensor_get_vt_pix_clk_mhz(pcam->image);
 476              		.loc 1 217 0
 477 0014 0646     		mov	r6, r0
 478              	.LVL52:
 218:/home/tienluong/workspace/atlantis_fw/platform/common/lightheader/src/light_header.c **** 	uint32_t cit = img_sensor_read_reg(pcam->image, CIT_CAM_REG, TWO_BYTES);
 479              		.loc 1 218 0
 480 0016 2068     		ldr	r0, [r4]
 481 0018 9847     		blx	r3
 482              	.LVL53:
 219:/home/tienluong/workspace/atlantis_fw/platform/common/lightheader/src/light_header.c **** 	double it_time = (double)(cit * llpclk * 1.0)	/ (double)(2 * vtpixclk * MHZ_TO_HZ * 1.0);
 483              		.loc 1 219 0
 484 001a 0222     		movs	r2, #2
 485 001c 40F20221 		movw	r1, #514
 218:/home/tienluong/workspace/atlantis_fw/platform/common/lightheader/src/light_header.c **** 	uint32_t cit = img_sensor_read_reg(pcam->image, CIT_CAM_REG, TWO_BYTES);
 486              		.loc 1 218 0
 487 0020 8046     		mov	r8, r0
 488              	.LVL54:
 219:/home/tienluong/workspace/atlantis_fw/platform/common/lightheader/src/light_header.c **** 	double it_time = (double)(cit * llpclk * 1.0)	/ (double)(2 * vtpixclk * MHZ_TO_HZ * 1.0);
 489              		.loc 1 219 0
 490 0022 2068     		ldr	r0, [r4]
 491              	.LVL55:
 492 0024 A847     		blx	r5
 493              	.LVL56:
 220:/home/tienluong/workspace/atlantis_fw/platform/common/lightheader/src/light_header.c **** 
 494              		.loc 1 220 0
 495 0026 114C     		ldr	r4, .L33+8
 496              	.LVL57:
 497 0028 7043     		muls	r0, r6, r0
 498              	.LVL58:
 499 002a A047     		blx	r4
 500              	.LVL59:
 218:/home/tienluong/workspace/atlantis_fw/platform/common/lightheader/src/light_header.c **** 	uint32_t cit = img_sensor_read_reg(pcam->image, CIT_CAM_REG, TWO_BYTES);
 501              		.loc 1 218 0
 502 002c 104B     		ldr	r3, .L33+12
 220:/home/tienluong/workspace/atlantis_fw/platform/common/lightheader/src/light_header.c **** 
 503              		.loc 1 220 0
 504 002e 0646     		mov	r6, r0
 505              	.LVL60:
 218:/home/tienluong/workspace/atlantis_fw/platform/common/lightheader/src/light_header.c **** 	uint32_t cit = img_sensor_read_reg(pcam->image, CIT_CAM_REG, TWO_BYTES);
 506              		.loc 1 218 0
 507 0030 4046     		mov	r0, r8
 220:/home/tienluong/workspace/atlantis_fw/platform/common/lightheader/src/light_header.c **** 
 508              		.loc 1 220 0
 509 0032 0F46     		mov	r7, r1
 218:/home/tienluong/workspace/atlantis_fw/platform/common/lightheader/src/light_header.c **** 	uint32_t cit = img_sensor_read_reg(pcam->image, CIT_CAM_REG, TWO_BYTES);
 510              		.loc 1 218 0
 511 0034 9847     		blx	r3
 512              	.LVL61:
 220:/home/tienluong/workspace/atlantis_fw/platform/common/lightheader/src/light_header.c **** 
 513              		.loc 1 220 0
 514 0036 0F4B     		ldr	r3, .L33+16
 515 0038 5843     		muls	r0, r3, r0
 516 003a A047     		blx	r4
 517              	.LVL62:
 518 003c 0E4C     		ldr	r4, .L33+20
 519 003e 0246     		mov	r2, r0
 520 0040 0B46     		mov	r3, r1
 521 0042 3046     		mov	r0, r6
 522 0044 3946     		mov	r1, r7
 523 0046 A047     		blx	r4
 524              	.LVL63:
 222:/home/tienluong/workspace/atlantis_fw/platform/common/lightheader/src/light_header.c **** 
 525              		.loc 1 222 0
 526 0048 0C4C     		ldr	r4, .L33+24
 527 004a 0022     		movs	r2, #0
 528 004c 0C4B     		ldr	r3, .L33+28
 529 004e A047     		blx	r4
 530              	.LVL64:
 531 0050 0022     		movs	r2, #0
 532 0052 0B4B     		ldr	r3, .L33+28
 533 0054 A047     		blx	r4
 534              	.LVL65:
 535 0056 0022     		movs	r2, #0
 536 0058 094B     		ldr	r3, .L33+28
 537 005a A047     		blx	r4
 538              	.LVL66:
 539 005c 094B     		ldr	r3, .L33+32
 540 005e 9847     		blx	r3
 541              	.LVL67:
 225:/home/tienluong/workspace/atlantis_fw/platform/common/lightheader/src/light_header.c **** 
 542              		.loc 1 225 0
 543 0060 BDE8F081 		pop	{r4, r5, r6, r7, r8, pc}
 544              	.LVL68:
 545              	.L34:
 546              		.align	2
 547              	.L33:
 548 0064 00000000 		.word	img_sensor_read_reg
 549 0068 00000000 		.word	img_sensor_get_vt_pix_clk_mhz
 550 006c 00000000 		.word	__aeabi_ui2d
 551 0070 00000000 		.word	__aeabi_f2uiz
 552 0074 80841E00 		.word	2000000
 553 0078 00000000 		.word	__aeabi_ddiv
 554 007c 00000000 		.word	__aeabi_dmul
 555 0080 00408F40 		.word	1083129856
 556 0084 00000000 		.word	__aeabi_d2ulz
 557              		.cfi_endproc
 558              	.LFE5:
 560              		.section	.text.get_cam_is_enabled,"ax",%progbits
 561              		.align	1
 562              		.global	get_cam_is_enabled
 563              		.thumb
 564              		.thumb_func
 566              	get_cam_is_enabled:
 567              	.LFB6:
 228:/home/tienluong/workspace/atlantis_fw/platform/common/lightheader/src/light_header.c **** 	uint32_t status = 0;
 568              		.loc 1 228 0
 569              		.cfi_startproc
 570              		@ args = 0, pretend = 0, frame = 0
 571              		@ frame_needed = 0, uses_anonymous_args = 0
 572              		@ link register save eliminated.
 573              	.LVL69:
 233:/home/tienluong/workspace/atlantis_fw/platform/common/lightheader/src/light_header.c **** 
 574              		.loc 1 233 0
 575 0000 8368     		ldr	r3, [r0, #8]
 235:/home/tienluong/workspace/atlantis_fw/platform/common/lightheader/src/light_header.c **** 	{
 576              		.loc 1 235 0
 577 0002 5868     		ldr	r0, [r3, #4]
 578              	.LVL70:
 242:/home/tienluong/workspace/atlantis_fw/platform/common/lightheader/src/light_header.c **** 
 579              		.loc 1 242 0
 580 0004 C0F3C000 		ubfx	r0, r0, #3, #1
 581 0008 7047     		bx	lr
 582              		.cfi_endproc
 583              	.LFE6:
 585              		.section	.text.get_sensor_data_surface,"ax",%progbits
 586              		.align	1
 587              		.global	get_sensor_data_surface
 588              		.thumb
 589              		.thumb_func
 591              	get_sensor_data_surface:
 592              	.LFB7:
 245:/home/tienluong/workspace/atlantis_fw/platform/common/lightheader/src/light_header.c **** 	Ltpb__CameraModule__Surface *sensor_surface;
 593              		.loc 1 245 0
 594              		.cfi_startproc
 595              		@ args = 0, pretend = 0, frame = 0
 596              		@ frame_needed = 0, uses_anonymous_args = 0
 597              	.LVL71:
 598 0000 70B5     		push	{r4, r5, r6, lr}
 599              	.LCFI8:
 600              		.cfi_def_cfa_offset 16
 601              		.cfi_offset 4, -16
 602              		.cfi_offset 5, -12
 603              		.cfi_offset 6, -8
 604              		.cfi_offset 14, -4
 248:/home/tienluong/workspace/atlantis_fw/platform/common/lightheader/src/light_header.c **** 								sizeof(Ltpb__CameraModule__Surface));
 605              		.loc 1 248 0
 606 0002 3021     		movs	r1, #48
 245:/home/tienluong/workspace/atlantis_fw/platform/common/lightheader/src/light_header.c **** 	Ltpb__CameraModule__Surface *sensor_surface;
 607              		.loc 1 245 0
 608 0004 0546     		mov	r5, r0
 248:/home/tienluong/workspace/atlantis_fw/platform/common/lightheader/src/light_header.c **** 								sizeof(Ltpb__CameraModule__Surface));
 609              		.loc 1 248 0
 610 0006 F923     		movs	r3, #249
 611 0008 1D4A     		ldr	r2, .L41
 265:/home/tienluong/workspace/atlantis_fw/platform/common/lightheader/src/light_header.c **** 								+ cam_mem_idx[pcam->info.ch - 1] * img_bytes);
 612              		.loc 1 265 0
 613 000a 0026     		movs	r6, #0
 248:/home/tienluong/workspace/atlantis_fw/platform/common/lightheader/src/light_header.c **** 								sizeof(Ltpb__CameraModule__Surface));
 614              		.loc 1 248 0
 615 000c 1D4C     		ldr	r4, .L41+4
 616 000e 1E48     		ldr	r0, .L41+8
 617              	.LVL72:
 618 0010 A047     		blx	r4
 619              	.LVL73:
 251:/home/tienluong/workspace/atlantis_fw/platform/common/lightheader/src/light_header.c **** 
 620              		.loc 1 251 0
 621 0012 1E4B     		ldr	r3, .L41+12
 248:/home/tienluong/workspace/atlantis_fw/platform/common/lightheader/src/light_header.c **** 								sizeof(Ltpb__CameraModule__Surface));
 622              		.loc 1 248 0
 623 0014 0446     		mov	r4, r0
 624              	.LVL74:
 251:/home/tienluong/workspace/atlantis_fw/platform/common/lightheader/src/light_header.c **** 
 625              		.loc 1 251 0
 626 0016 9847     		blx	r3
 627              	.LVL75:
 255:/home/tienluong/workspace/atlantis_fw/platform/common/lightheader/src/light_header.c **** 
 628              		.loc 1 255 0
 629 0018 2B68     		ldr	r3, [r5]
 257:/home/tienluong/workspace/atlantis_fw/platform/common/lightheader/src/light_header.c **** 
 630              		.loc 1 257 0
 631 001a B3F84620 		ldrh	r2, [r3, #70]
 632 001e 0A23     		movs	r3, #10
 266:/home/tienluong/workspace/atlantis_fw/platform/common/lightheader/src/light_header.c **** 	sensor_surface->row_stride = byte_per_raw;
 633              		.loc 1 266 0
 634 0020 1B49     		ldr	r1, .L41+16
 270:/home/tienluong/workspace/atlantis_fw/platform/common/lightheader/src/light_header.c **** 	sensor_surface->size = get_default_point2i(pcam->image->x_size, pcam->image->y_size);
 635              		.loc 1 270 0
 636 0022 4FF07E50 		mov	r0, #1065353216
 257:/home/tienluong/workspace/atlantis_fw/platform/common/lightheader/src/light_header.c **** 
 637              		.loc 1 257 0
 638 0026 5343     		muls	r3, r2, r3
 639 0028 C3F3CF03 		ubfx	r3, r3, #3, #16
 640              	.LVL76:
 259:/home/tienluong/workspace/atlantis_fw/platform/common/lightheader/src/light_header.c **** 	{
 641              		.loc 1 259 0
 642 002c 1A07     		lsls	r2, r3, #28
 266:/home/tienluong/workspace/atlantis_fw/platform/common/lightheader/src/light_header.c **** 	sensor_surface->row_stride = byte_per_raw;
 643              		.loc 1 266 0
 644 002e 95F82820 		ldrb	r2, [r5, #40]	@ zero_extendqisi2
 645 0032 02F00F02 		and	r2, r2, #15
 646 0036 0A44     		add	r2, r2, r1
 647 0038 12F8011C 		ldrb	r1, [r2, #-1]	@ zero_extendqisi2
 648 003c 154A     		ldr	r2, .L41+20
 261:/home/tienluong/workspace/atlantis_fw/platform/common/lightheader/src/light_header.c **** 	}
 649              		.loc 1 261 0
 650 003e 1CBF     		itt	ne
 651 0040 1B09     		lsrne	r3, r3, #4
 652              	.LVL77:
 653 0042 0133     		addne	r3, r3, #1
 265:/home/tienluong/workspace/atlantis_fw/platform/common/lightheader/src/light_header.c **** 								+ cam_mem_idx[pcam->info.ch - 1] * img_bytes);
 654              		.loc 1 265 0
 655 0044 6662     		str	r6, [r4, #36]
 656              	.LVL78:
 266:/home/tienluong/workspace/atlantis_fw/platform/common/lightheader/src/light_header.c **** 	sensor_surface->row_stride = byte_per_raw;
 657              		.loc 1 266 0
 658 0046 1268     		ldr	r2, [r2]
 261:/home/tienluong/workspace/atlantis_fw/platform/common/lightheader/src/light_header.c **** 	}
 659              		.loc 1 261 0
 660 0048 1CBF     		itt	ne
 661 004a 1B01     		lslne	r3, r3, #4
 662 004c 9BB2     		uxthne	r3, r3
 663              	.LVL79:
 266:/home/tienluong/workspace/atlantis_fw/platform/common/lightheader/src/light_header.c **** 	sensor_surface->row_stride = byte_per_raw;
 664              		.loc 1 266 0
 665 004e 4A43     		muls	r2, r1, r2
 267:/home/tienluong/workspace/atlantis_fw/platform/common/lightheader/src/light_header.c **** 	sensor_surface->format = LTPB__CAMERA_MODULE__SURFACE__FORMAT_TYPE__RAW_PACKED_10BPP;
 666              		.loc 1 267 0
 667 0050 A361     		str	r3, [r4, #24]
 268:/home/tienluong/workspace/atlantis_fw/platform/common/lightheader/src/light_header.c **** 
 668              		.loc 1 268 0
 669 0052 0723     		movs	r3, #7
 670              	.LVL80:
 265:/home/tienluong/workspace/atlantis_fw/platform/common/lightheader/src/light_header.c **** 								+ cam_mem_idx[pcam->info.ch - 1] * img_bytes);
 671              		.loc 1 265 0
 672 0054 2032     		adds	r2, r2, #32
 268:/home/tienluong/workspace/atlantis_fw/platform/common/lightheader/src/light_header.c **** 
 673              		.loc 1 268 0
 674 0056 6361     		str	r3, [r4, #20]
 270:/home/tienluong/workspace/atlantis_fw/platform/common/lightheader/src/light_header.c **** 	sensor_surface->size = get_default_point2i(pcam->image->x_size, pcam->image->y_size);
 675              		.loc 1 270 0
 676 0058 0146     		mov	r1, r0
 265:/home/tienluong/workspace/atlantis_fw/platform/common/lightheader/src/light_header.c **** 								+ cam_mem_idx[pcam->info.ch - 1] * img_bytes);
 677              		.loc 1 265 0
 678 005a 2262     		str	r2, [r4, #32]
 270:/home/tienluong/workspace/atlantis_fw/platform/common/lightheader/src/light_header.c **** 	sensor_surface->size = get_default_point2i(pcam->image->x_size, pcam->image->y_size);
 679              		.loc 1 270 0
 680 005c 0E4B     		ldr	r3, .L41+24
 681 005e 9847     		blx	r3
 682              	.LVL81:
 271:/home/tienluong/workspace/atlantis_fw/platform/common/lightheader/src/light_header.c **** 	sensor_surface->start = get_default_point2i(0, 0);
 683              		.loc 1 271 0
 684 0060 2B68     		ldr	r3, [r5]
 685 0062 0E4D     		ldr	r5, .L41+28
 686              	.LVL82:
 687 0064 B3F84810 		ldrh	r1, [r3, #72]
 270:/home/tienluong/workspace/atlantis_fw/platform/common/lightheader/src/light_header.c **** 	sensor_surface->size = get_default_point2i(pcam->image->x_size, pcam->image->y_size);
 688              		.loc 1 270 0
 689 0068 A062     		str	r0, [r4, #40]
 271:/home/tienluong/workspace/atlantis_fw/platform/common/lightheader/src/light_header.c **** 	sensor_surface->start = get_default_point2i(0, 0);
 690              		.loc 1 271 0
 691 006a B3F84600 		ldrh	r0, [r3, #70]
 692 006e A847     		blx	r5
 693              	.LVL83:
 272:/home/tienluong/workspace/atlantis_fw/platform/common/lightheader/src/light_header.c **** 
 694              		.loc 1 272 0
 695 0070 3146     		mov	r1, r6
 271:/home/tienluong/workspace/atlantis_fw/platform/common/lightheader/src/light_header.c **** 	sensor_surface->start = get_default_point2i(0, 0);
 696              		.loc 1 271 0
 697 0072 2061     		str	r0, [r4, #16]
 272:/home/tienluong/workspace/atlantis_fw/platform/common/lightheader/src/light_header.c **** 
 698              		.loc 1 272 0
 699 0074 3046     		mov	r0, r6
 700 0076 A847     		blx	r5
 701              	.LVL84:
 702 0078 E060     		str	r0, [r4, #12]
 275:/home/tienluong/workspace/atlantis_fw/platform/common/lightheader/src/light_header.c **** 
 703              		.loc 1 275 0
 704 007a 2046     		mov	r0, r4
 705 007c 70BD     		pop	{r4, r5, r6, pc}
 706              	.LVL85:
 707              	.L42:
 708 007e 00BF     		.align	2
 709              	.L41:
 710 0080 00000000 		.word	.LANCHOR4
 711 0084 00000000 		.word	gen_pvPortMalloc1
 712 0088 00000000 		.word	ddr_heap_attribute
 713 008c 00000000 		.word	ltpb__camera_module__surface__init
 714 0090 00000000 		.word	cam_mem_idx
 715 0094 00000000 		.word	img_bytes
 716 0098 00000000 		.word	get_default_point2f
 717 009c 00000000 		.word	get_default_point2i
 718              		.cfi_endproc
 719              	.LFE7:
 721              		.section	.text.get_cam_total_number,"ax",%progbits
 722              		.align	1
 723              		.global	get_cam_total_number
 724              		.thumb
 725              		.thumb_func
 727              	get_cam_total_number:
 728              	.LFB8:
 278:/home/tienluong/workspace/atlantis_fw/platform/common/lightheader/src/light_header.c **** 	uint8_t cam_idx = 0;
 729              		.loc 1 278 0
 730              		.cfi_startproc
 731              		@ args = 0, pretend = 0, frame = 0
 732              		@ frame_needed = 0, uses_anonymous_args = 0
 733              	.LVL86:
 282:/home/tienluong/workspace/atlantis_fw/platform/common/lightheader/src/light_header.c **** 	while(m_bitmask)
 734              		.loc 1 282 0
 735 0000 0A4B     		ldr	r3, .L54
 278:/home/tienluong/workspace/atlantis_fw/platform/common/lightheader/src/light_header.c **** 	uint8_t cam_idx = 0;
 736              		.loc 1 278 0
 737 0002 70B5     		push	{r4, r5, r6, lr}
 738              	.LCFI9:
 739              		.cfi_def_cfa_offset 16
 740              		.cfi_offset 4, -16
 741              		.cfi_offset 5, -12
 742              		.cfi_offset 6, -8
 743              		.cfi_offset 14, -4
 282:/home/tienluong/workspace/atlantis_fw/platform/common/lightheader/src/light_header.c **** 	while(m_bitmask)
 744              		.loc 1 282 0
 745 0004 1B68     		ldr	r3, [r3]
 283:/home/tienluong/workspace/atlantis_fw/platform/common/lightheader/src/light_header.c **** 	{
 746              		.loc 1 283 0
 747 0006 0026     		movs	r6, #0
 280:/home/tienluong/workspace/atlantis_fw/platform/common/lightheader/src/light_header.c **** 
 748              		.loc 1 280 0
 749 0008 3546     		mov	r5, r6
 282:/home/tienluong/workspace/atlantis_fw/platform/common/lightheader/src/light_header.c **** 	while(m_bitmask)
 750              		.loc 1 282 0
 751 000a 1C6E     		ldr	r4, [r3, #96]
 752 000c 0440     		ands	r4, r4, r0
 753              	.LVL87:
 754              	.L44:
 755 000e F0B2     		uxtb	r0, r6
 756              	.LVL88:
 283:/home/tienluong/workspace/atlantis_fw/platform/common/lightheader/src/light_header.c **** 	{
 757              		.loc 1 283 0
 758 0010 4CB1     		cbz	r4, .L53
 285:/home/tienluong/workspace/atlantis_fw/platform/common/lightheader/src/light_header.c **** 		{
 759              		.loc 1 285 0
 760 0012 E307     		lsls	r3, r4, #31
 761 0014 04D5     		bpl	.L45
 287:/home/tienluong/workspace/atlantis_fw/platform/common/lightheader/src/light_header.c **** 			{
 762              		.loc 1 287 0
 763 0016 064B     		ldr	r3, .L54+4
 764 0018 9847     		blx	r3
 765              	.LVL89:
 766 001a 08B1     		cbz	r0, .L45
 289:/home/tienluong/workspace/atlantis_fw/platform/common/lightheader/src/light_header.c **** 			}
 767              		.loc 1 289 0
 768 001c 0135     		adds	r5, r5, #1
 769              	.LVL90:
 770 001e EDB2     		uxtb	r5, r5
 771              	.LVL91:
 772              	.L45:
 292:/home/tienluong/workspace/atlantis_fw/platform/common/lightheader/src/light_header.c **** 		cam_idx++;
 773              		.loc 1 292 0
 774 0020 6408     		lsrs	r4, r4, #1
 775              	.LVL92:
 776 0022 0136     		adds	r6, r6, #1
 777              	.LVL93:
 778 0024 F3E7     		b	.L44
 779              	.LVL94:
 780              	.L53:
 296:/home/tienluong/workspace/atlantis_fw/platform/common/lightheader/src/light_header.c **** 
 781              		.loc 1 296 0
 782 0026 2846     		mov	r0, r5
 783              	.LVL95:
 784 0028 70BD     		pop	{r4, r5, r6, pc}
 785              	.LVL96:
 786              	.L55:
 787 002a 00BF     		.align	2
 788              	.L54:
 789 002c 00000000 		.word	light_system
 790 0030 00000000 		.word	idx_to_object
 791              		.cfi_endproc
 792              	.LFE8:
 794              		.section	.text.get_cam_id,"ax",%progbits
 795              		.align	1
 796              		.global	get_cam_id
 797              		.thumb
 798              		.thumb_func
 800              	get_cam_id:
 801              	.LFB9:
 299:/home/tienluong/workspace/atlantis_fw/platform/common/lightheader/src/light_header.c **** 	uint8_t cam_id = 0;
 802              		.loc 1 299 0
 803              		.cfi_startproc
 804              		@ args = 0, pretend = 0, frame = 0
 805              		@ frame_needed = 0, uses_anonymous_args = 0
 806              		@ link register save eliminated.
 807              	.LVL97:
 302:/home/tienluong/workspace/atlantis_fw/platform/common/lightheader/src/light_header.c **** 		return 0;
 808              		.loc 1 302 0
 809 0000 48B1     		cbz	r0, .L57
 810 0002 90F82930 		ldrb	r3, [r0, #41]	@ zero_extendqisi2
 811 0006 5E33     		adds	r3, r3, #94
 812 0008 DBB2     		uxtb	r3, r3
 813 000a 242B     		cmp	r3, #36
 814 000c 02D8     		bhi	.L60
 815 000e 024A     		ldr	r2, .L61
 816 0010 D05C     		ldrb	r0, [r2, r3]	@ zero_extendqisi2
 817              	.LVL98:
 818 0012 7047     		bx	lr
 819              	.LVL99:
 820              	.L60:
 304:/home/tienluong/workspace/atlantis_fw/platform/common/lightheader/src/light_header.c **** 	{
 821              		.loc 1 304 0
 822 0014 0020     		movs	r0, #0
 823              	.LVL100:
 824              	.L57:
 359:/home/tienluong/workspace/atlantis_fw/platform/common/lightheader/src/light_header.c **** 
 825              		.loc 1 359 0
 826 0016 7047     		bx	lr
 827              	.L62:
 828              		.align	2
 829              	.L61:
 830 0018 00000000 		.word	.LANCHOR5
 831              		.cfi_endproc
 832              	.LFE9:
 834              		.global	__aeabi_ui2f
 835              		.section	.text.get_auto_focus_info,"ax",%progbits
 836              		.align	1
 837              		.global	get_auto_focus_info
 838              		.thumb
 839              		.thumb_func
 841              	get_auto_focus_info:
 842              	.LFB10:
 362:/home/tienluong/workspace/atlantis_fw/platform/common/lightheader/src/light_header.c **** 	Ltpb__CameraModule__AFInfo *af_info = gen_pvPortMalloc(light_header_heap, sizeof(Ltpb__CameraModul
 843              		.loc 1 362 0
 844              		.cfi_startproc
 845              		@ args = 0, pretend = 0, frame = 0
 846              		@ frame_needed = 0, uses_anonymous_args = 0
 847              	.LVL101:
 848 0000 38B5     		push	{r3, r4, r5, lr}
 849              	.LCFI10:
 850              		.cfi_def_cfa_offset 16
 851              		.cfi_offset 3, -16
 852              		.cfi_offset 4, -12
 853              		.cfi_offset 5, -8
 854              		.cfi_offset 14, -4
 363:/home/tienluong/workspace/atlantis_fw/platform/common/lightheader/src/light_header.c **** 	/* Initialize */
 855              		.loc 1 363 0
 856 0002 0F4A     		ldr	r2, .L64
 362:/home/tienluong/workspace/atlantis_fw/platform/common/lightheader/src/light_header.c **** 	Ltpb__CameraModule__AFInfo *af_info = gen_pvPortMalloc(light_header_heap, sizeof(Ltpb__CameraModul
 857              		.loc 1 362 0
 858 0004 0546     		mov	r5, r0
 363:/home/tienluong/workspace/atlantis_fw/platform/common/lightheader/src/light_header.c **** 	/* Initialize */
 859              		.loc 1 363 0
 860 0006 1C21     		movs	r1, #28
 861 0008 40F26B13 		movw	r3, #363
 862 000c 0D4C     		ldr	r4, .L64+4
 863 000e 0E48     		ldr	r0, .L64+8
 864              	.LVL102:
 865 0010 A047     		blx	r4
 866              	.LVL103:
 365:/home/tienluong/workspace/atlantis_fw/platform/common/lightheader/src/light_header.c **** 	af_info->has_roi_estimated_disparity = 1;
 867              		.loc 1 365 0
 868 0012 0E4B     		ldr	r3, .L64+12
 363:/home/tienluong/workspace/atlantis_fw/platform/common/lightheader/src/light_header.c **** 	/* Initialize */
 869              		.loc 1 363 0
 870 0014 0446     		mov	r4, r0
 871              	.LVL104:
 365:/home/tienluong/workspace/atlantis_fw/platform/common/lightheader/src/light_header.c **** 	af_info->has_roi_estimated_disparity = 1;
 872              		.loc 1 365 0
 873 0016 9847     		blx	r3
 874              	.LVL105:
 366:/home/tienluong/workspace/atlantis_fw/platform/common/lightheader/src/light_header.c **** 	af_info->mode = LTPB__CAMERA_MODULE__AFINFO__AFMODE__AUTO;
 875              		.loc 1 366 0
 876 0018 0123     		movs	r3, #1
 368:/home/tienluong/workspace/atlantis_fw/platform/common/lightheader/src/light_header.c **** 	af_info->roi_estimated_disparity = light_system->settings->roi_transfer.distance_mm;
 877              		.loc 1 368 0
 878 001a A969     		ldr	r1, [r5, #24]	@ float
 366:/home/tienluong/workspace/atlantis_fw/platform/common/lightheader/src/light_header.c **** 	af_info->mode = LTPB__CAMERA_MODULE__AFINFO__AFMODE__AUTO;
 879              		.loc 1 366 0
 880 001c 6361     		str	r3, [r4, #20]
 367:/home/tienluong/workspace/atlantis_fw/platform/common/lightheader/src/light_header.c **** 	af_info->roi_center = get_default_point2f(pcam->cam_common_data.roi_center_x, pcam->cam_common_dat
 881              		.loc 1 367 0
 882 001e 0023     		movs	r3, #0
 368:/home/tienluong/workspace/atlantis_fw/platform/common/lightheader/src/light_header.c **** 	af_info->roi_estimated_disparity = light_system->settings->roi_transfer.distance_mm;
 883              		.loc 1 368 0
 884 0020 6869     		ldr	r0, [r5, #20]	@ float
 367:/home/tienluong/workspace/atlantis_fw/platform/common/lightheader/src/light_header.c **** 	af_info->roi_center = get_default_point2f(pcam->cam_common_data.roi_center_x, pcam->cam_common_dat
 885              		.loc 1 367 0
 886 0022 E360     		str	r3, [r4, #12]
 368:/home/tienluong/workspace/atlantis_fw/platform/common/lightheader/src/light_header.c **** 	af_info->roi_estimated_disparity = light_system->settings->roi_transfer.distance_mm;
 887              		.loc 1 368 0
 888 0024 0A4B     		ldr	r3, .L64+16
 889 0026 9847     		blx	r3
 890              	.LVL106:
 369:/home/tienluong/workspace/atlantis_fw/platform/common/lightheader/src/light_header.c **** 
 891              		.loc 1 369 0
 892 0028 0A4B     		ldr	r3, .L64+20
 893 002a 1B68     		ldr	r3, [r3]
 894 002c 9B68     		ldr	r3, [r3, #8]
 368:/home/tienluong/workspace/atlantis_fw/platform/common/lightheader/src/light_header.c **** 	af_info->roi_estimated_disparity = light_system->settings->roi_transfer.distance_mm;
 895              		.loc 1 368 0
 896 002e 2061     		str	r0, [r4, #16]
 369:/home/tienluong/workspace/atlantis_fw/platform/common/lightheader/src/light_header.c **** 
 897              		.loc 1 369 0
 898 0030 D3F89000 		ldr	r0, [r3, #144]
 899 0034 084B     		ldr	r3, .L64+24
 900 0036 9847     		blx	r3
 901              	.LVL107:
 902 0038 A061     		str	r0, [r4, #24]	@ float
 372:/home/tienluong/workspace/atlantis_fw/platform/common/lightheader/src/light_header.c **** 
 903              		.loc 1 372 0
 904 003a 2046     		mov	r0, r4
 905 003c 38BD     		pop	{r3, r4, r5, pc}
 906              	.LVL108:
 907              	.L65:
 908 003e 00BF     		.align	2
 909              	.L64:
 910 0040 00000000 		.word	.LANCHOR6
 911 0044 00000000 		.word	gen_pvPortMalloc1
 912 0048 00000000 		.word	ddr_heap_attribute
 913 004c 00000000 		.word	ltpb__camera_module__afinfo__init
 914 0050 00000000 		.word	get_default_point2f
 915 0054 00000000 		.word	light_system
 916 0058 00000000 		.word	__aeabi_ui2f
 917              		.cfi_endproc
 918              	.LFE10:
 920              		.global	__aeabi_i2f
 921              		.global	__aeabi_fmul
 922              		.section	.text.get_img_focal_length,"ax",%progbits
 923              		.align	1
 924              		.global	get_img_focal_length
 925              		.thumb
 926              		.thumb_func
 928              	get_img_focal_length:
 929              	.LFB11:
 375:/home/tienluong/workspace/atlantis_fw/platform/common/lightheader/src/light_header.c **** 	if(NULL == ref_cam)
 930              		.loc 1 375 0
 931              		.cfi_startproc
 932              		@ args = 0, pretend = 0, frame = 0
 933              		@ frame_needed = 0, uses_anonymous_args = 0
 934              	.LVL109:
 935 0000 10B5     		push	{r4, lr}
 936              	.LCFI11:
 937              		.cfi_def_cfa_offset 8
 938              		.cfi_offset 4, -8
 939              		.cfi_offset 14, -4
 376:/home/tienluong/workspace/atlantis_fw/platform/common/lightheader/src/light_header.c **** 		return 0;
 940              		.loc 1 376 0
 941 0002 68B1     		cbz	r0, .L67
 942              	.LVL110:
 381:/home/tienluong/workspace/atlantis_fw/platform/common/lightheader/src/light_header.c **** 	/* image_focal_length is per capture and for the whole image */
 943              		.loc 1 381 0
 944 0004 074B     		ldr	r3, .L69
 945 0006 1B68     		ldr	r3, [r3]
 946 0008 9C68     		ldr	r4, [r3, #8]
 380:/home/tienluong/workspace/atlantis_fw/platform/common/lightheader/src/light_header.c **** 	int32_t focal_length = light_system->settings->zoom_factor * (*p_focal_length);
 947              		.loc 1 380 0
 948 000a 4368     		ldr	r3, [r0, #4]
 381:/home/tienluong/workspace/atlantis_fw/platform/common/lightheader/src/light_header.c **** 	/* image_focal_length is per capture and for the whole image */
 949              		.loc 1 381 0
 950 000c 9B68     		ldr	r3, [r3, #8]
 951 000e 1888     		ldrh	r0, [r3]
 952              	.LVL111:
 953 0010 054B     		ldr	r3, .L69+4
 954              	.LVL112:
 955 0012 9847     		blx	r3
 956              	.LVL113:
 957 0014 054B     		ldr	r3, .L69+8
 958 0016 D4F8A010 		ldr	r1, [r4, #160]	@ float
 959 001a 9847     		blx	r3
 960              	.LVL114:
 961 001c 044B     		ldr	r3, .L69+12
 962 001e 9847     		blx	r3
 963              	.LVL115:
 964              	.L67:
 384:/home/tienluong/workspace/atlantis_fw/platform/common/lightheader/src/light_header.c **** 
 965              		.loc 1 384 0
 966 0020 10BD     		pop	{r4, pc}
 967              	.L70:
 968 0022 00BF     		.align	2
 969              	.L69:
 970 0024 00000000 		.word	light_system
 971 0028 00000000 		.word	__aeabi_i2f
 972 002c 00000000 		.word	__aeabi_fmul
 973 0030 00000000 		.word	__aeabi_f2iz
 974              		.cfi_endproc
 975              	.LFE11:
 977              		.section	.text.get_device_unique_id,"ax",%progbits
 978              		.align	1
 979              		.global	get_device_unique_id
 980              		.thumb
 981              		.thumb_func
 983              	get_device_unique_id:
 984              	.LFB12:
 387:/home/tienluong/workspace/atlantis_fw/platform/common/lightheader/src/light_header.c **** 	/* TODO: will implement in future */
 985              		.loc 1 387 0
 986              		.cfi_startproc
 987              		@ args = 0, pretend = 0, frame = 0
 988              		@ frame_needed = 0, uses_anonymous_args = 0
 989              		@ link register save eliminated.
 990              	.LVL116:
 389:/home/tienluong/workspace/atlantis_fw/platform/common/lightheader/src/light_header.c **** }
 991              		.loc 1 389 0
 992 0000 8068     		ldr	r0, [r0, #8]
 993              	.LVL117:
 390:/home/tienluong/workspace/atlantis_fw/platform/common/lightheader/src/light_header.c **** 
 994              		.loc 1 390 0
 995 0002 0830     		adds	r0, r0, #8
 996 0004 7047     		bx	lr
 997              		.cfi_endproc
 998              	.LFE12:
 1000              		.section	.text.get_device_model_name,"ax",%progbits
 1001              		.align	1
 1002              		.global	get_device_model_name
 1003              		.thumb
 1004              		.thumb_func
 1006              	get_device_model_name:
 1007              	.LFB13:
 393:/home/tienluong/workspace/atlantis_fw/platform/common/lightheader/src/light_header.c **** 	/* TODO: will implement in future */
 1008              		.loc 1 393 0
 1009              		.cfi_startproc
 1010              		@ args = 0, pretend = 0, frame = 0
 1011              		@ frame_needed = 0, uses_anonymous_args = 0
 1012              		@ link register save eliminated.
 1013              	.LVL118:
 398:/home/tienluong/workspace/atlantis_fw/platform/common/lightheader/src/light_header.c **** 
 1014              		.loc 1 398 0
 1015 0000 0020     		movs	r0, #0
 1016 0002 7047     		bx	lr
 1017              		.cfi_endproc
 1018              	.LFE13:
 1020              		.section	.text.get_device_asic_fw_version,"ax",%progbits
 1021              		.align	1
 1022              		.global	get_device_asic_fw_version
 1023              		.thumb
 1024              		.thumb_func
 1026              	get_device_asic_fw_version:
 1027              	.LFB14:
 401:/home/tienluong/workspace/atlantis_fw/platform/common/lightheader/src/light_header.c **** 	/* TODO: will implement in future */
 1028              		.loc 1 401 0
 1029              		.cfi_startproc
 1030              		@ args = 0, pretend = 0, frame = 0
 1031              		@ frame_needed = 0, uses_anonymous_args = 0
 1032              		@ link register save eliminated.
 1033              	.LVL119:
 406:/home/tienluong/workspace/atlantis_fw/platform/common/lightheader/src/light_header.c **** 
 1034              		.loc 1 406 0
 1035 0000 0020     		movs	r0, #0
 1036 0002 7047     		bx	lr
 1037              		.cfi_endproc
 1038              	.LFE14:
 1040              		.section	.text.get_device_fw_version,"ax",%progbits
 1041              		.align	1
 1042              		.global	get_device_fw_version
 1043              		.thumb
 1044              		.thumb_func
 1046              	get_device_fw_version:
 1047              	.LFB15:
 409:/home/tienluong/workspace/atlantis_fw/platform/common/lightheader/src/light_header.c ****     size_t len = sizeof(light_system->settings->fw_version);
 1048              		.loc 1 409 0
 1049              		.cfi_startproc
 1050              		@ args = 0, pretend = 0, frame = 0
 1051              		@ frame_needed = 0, uses_anonymous_args = 0
 1052              	.LVL120:
 1053 0000 10B5     		push	{r4, lr}
 1054              	.LCFI12:
 1055              		.cfi_def_cfa_offset 8
 1056              		.cfi_offset 4, -8
 1057              		.cfi_offset 14, -4
 411:/home/tienluong/workspace/atlantis_fw/platform/common/lightheader/src/light_header.c ****     memcpy(device_fw_version, light_system->settings->fw_version, len);
 1058              		.loc 1 411 0
 1059 0002 0821     		movs	r1, #8
 1060 0004 064A     		ldr	r2, .L75
 1061 0006 40F29B13 		movw	r3, #411
 1062 000a 064C     		ldr	r4, .L75+4
 1063 000c 0648     		ldr	r0, .L75+8
 1064 000e A047     		blx	r4
 1065              	.LVL121:
 412:/home/tienluong/workspace/atlantis_fw/platform/common/lightheader/src/light_header.c ****     return device_fw_version;
 1066              		.loc 1 412 0
 1067 0010 064B     		ldr	r3, .L75+12
 1068 0012 1B68     		ldr	r3, [r3]
 1069 0014 9968     		ldr	r1, [r3, #8]
 1070 0016 0B68     		ldr	r3, [r1]	@ unaligned
 1071 0018 0360     		str	r3, [r0]	@ unaligned
 1072 001a 4B68     		ldr	r3, [r1, #4]	@ unaligned
 1073 001c 4360     		str	r3, [r0, #4]	@ unaligned
 414:/home/tienluong/workspace/atlantis_fw/platform/common/lightheader/src/light_header.c **** 
 1074              		.loc 1 414 0
 1075 001e 10BD     		pop	{r4, pc}
 1076              	.L76:
 1077              		.align	2
 1078              	.L75:
 1079 0020 00000000 		.word	.LANCHOR7
 1080 0024 00000000 		.word	gen_pvPortMalloc1
 1081 0028 00000000 		.word	ddr_heap_attribute
 1082 002c 00000000 		.word	light_system
 1083              		.cfi_endproc
 1084              	.LFE15:
 1086              		.global	__aeabi_uldivmod
 1087              		.section	.text.get_time_stamp,"ax",%progbits
 1088              		.align	1
 1089              		.global	get_time_stamp
 1090              		.thumb
 1091              		.thumb_func
 1093              	get_time_stamp:
 1094              	.LFB16:
 417:/home/tienluong/workspace/atlantis_fw/platform/common/lightheader/src/light_header.c **** 	Ltpb__TimeStamp *time = (Ltpb__TimeStamp *)gen_pvPortMalloc(light_header_heap, sizeof(Ltpb__TimeSt
 1095              		.loc 1 417 0
 1096              		.cfi_startproc
 1097              		@ args = 0, pretend = 0, frame = 16
 1098              		@ frame_needed = 0, uses_anonymous_args = 0
 1099 0000 F0B5     		push	{r4, r5, r6, r7, lr}
 1100              	.LCFI13:
 1101              		.cfi_def_cfa_offset 20
 1102              		.cfi_offset 4, -20
 1103              		.cfi_offset 5, -16
 1104              		.cfi_offset 6, -12
 1105              		.cfi_offset 7, -8
 1106              		.cfi_offset 14, -4
 418:/home/tienluong/workspace/atlantis_fw/platform/common/lightheader/src/light_header.c **** 	ltpb__time_stamp__init(time);
 1107              		.loc 1 418 0
 1108 0002 2421     		movs	r1, #36
 417:/home/tienluong/workspace/atlantis_fw/platform/common/lightheader/src/light_header.c **** 	Ltpb__TimeStamp *time = (Ltpb__TimeStamp *)gen_pvPortMalloc(light_header_heap, sizeof(Ltpb__TimeSt
 1109              		.loc 1 417 0
 1110 0004 85B0     		sub	sp, sp, #20
 1111              	.LCFI14:
 1112              		.cfi_def_cfa_offset 40
 418:/home/tienluong/workspace/atlantis_fw/platform/common/lightheader/src/light_header.c **** 	ltpb__time_stamp__init(time);
 1113              		.loc 1 418 0
 1114 0006 1B4A     		ldr	r2, .L78
 1115 0008 4FF4D173 		mov	r3, #418
 1116 000c 1A4C     		ldr	r4, .L78+4
 1117 000e 1B48     		ldr	r0, .L78+8
 1118 0010 A047     		blx	r4
 1119              	.LVL122:
 419:/home/tienluong/workspace/atlantis_fw/platform/common/lightheader/src/light_header.c **** 
 1120              		.loc 1 419 0
 1121 0012 1B4B     		ldr	r3, .L78+12
 422:/home/tienluong/workspace/atlantis_fw/platform/common/lightheader/src/light_header.c **** 
 1122              		.loc 1 422 0
 1123 0014 1B4D     		ldr	r5, .L78+16
 418:/home/tienluong/workspace/atlantis_fw/platform/common/lightheader/src/light_header.c **** 	ltpb__time_stamp__init(time);
 1124              		.loc 1 418 0
 1125 0016 0446     		mov	r4, r0
 1126              	.LVL123:
 419:/home/tienluong/workspace/atlantis_fw/platform/common/lightheader/src/light_header.c **** 
 1127              		.loc 1 419 0
 1128 0018 9847     		blx	r3
 1129              	.LVL124:
 421:/home/tienluong/workspace/atlantis_fw/platform/common/lightheader/src/light_header.c **** 	unsigned long long total_seconds = rtc_time.milisec / 1000;
 1130              		.loc 1 421 0
 1131 001a 6846     		mov	r0, sp
 1132 001c 1A4B     		ldr	r3, .L78+20
 1133 001e 9847     		blx	r3
 1134              	.LVL125:
 422:/home/tienluong/workspace/atlantis_fw/platform/common/lightheader/src/light_header.c **** 
 1135              		.loc 1 422 0
 1136 0020 DDE90201 		ldrd	r0, [sp, #8]
 1137 0024 4FF47A72 		mov	r2, #1000
 1138 0028 0023     		movs	r3, #0
 1139 002a A847     		blx	r5
 1140              	.LVL126:
 425:/home/tienluong/workspace/atlantis_fw/platform/common/lightheader/src/light_header.c **** 	time->minute	= (total_seconds / 60) % 60;
 1141              		.loc 1 425 0
 1142 002c 4FF46162 		mov	r2, #3600
 1143 0030 0023     		movs	r3, #0
 422:/home/tienluong/workspace/atlantis_fw/platform/common/lightheader/src/light_header.c **** 
 1144              		.loc 1 422 0
 1145 0032 0646     		mov	r6, r0
 1146 0034 0F46     		mov	r7, r1
 1147              	.LVL127:
 425:/home/tienluong/workspace/atlantis_fw/platform/common/lightheader/src/light_header.c **** 	time->minute	= (total_seconds / 60) % 60;
 1148              		.loc 1 425 0
 1149 0036 A847     		blx	r5
 1150              	.LVL128:
 1151 0038 1822     		movs	r2, #24
 1152 003a 0023     		movs	r3, #0
 1153 003c A847     		blx	r5
 1154              	.LVL129:
 426:/home/tienluong/workspace/atlantis_fw/platform/common/lightheader/src/light_header.c **** 	time->second	= total_seconds % 60;
 1155              		.loc 1 426 0
 1156 003e 3046     		mov	r0, r6
 1157 0040 3946     		mov	r1, r7
 1158 0042 0023     		movs	r3, #0
 425:/home/tienluong/workspace/atlantis_fw/platform/common/lightheader/src/light_header.c **** 	time->minute	= (total_seconds / 60) % 60;
 1159              		.loc 1 425 0
 1160 0044 A261     		str	r2, [r4, #24]
 426:/home/tienluong/workspace/atlantis_fw/platform/common/lightheader/src/light_header.c **** 	time->second	= total_seconds % 60;
 1161              		.loc 1 426 0
 1162 0046 3C22     		movs	r2, #60
 1163 0048 A847     		blx	r5
 1164              	.LVL130:
 1165 004a 3C22     		movs	r2, #60
 1166 004c 0023     		movs	r3, #0
 1167 004e A847     		blx	r5
 1168              	.LVL131:
 427:/home/tienluong/workspace/atlantis_fw/platform/common/lightheader/src/light_header.c **** 
 1169              		.loc 1 427 0
 1170 0050 3046     		mov	r0, r6
 1171 0052 3946     		mov	r1, r7
 1172 0054 0023     		movs	r3, #0
 426:/home/tienluong/workspace/atlantis_fw/platform/common/lightheader/src/light_header.c **** 	time->second	= total_seconds % 60;
 1173              		.loc 1 426 0
 1174 0056 E261     		str	r2, [r4, #28]
 427:/home/tienluong/workspace/atlantis_fw/platform/common/lightheader/src/light_header.c **** 
 1175              		.loc 1 427 0
 1176 0058 3C22     		movs	r2, #60
 1177 005a A847     		blx	r5
 1178              	.LVL132:
 429:/home/tienluong/workspace/atlantis_fw/platform/common/lightheader/src/light_header.c **** 	time->month = 9;
 1179              		.loc 1 429 0
 1180 005c 0123     		movs	r3, #1
 434:/home/tienluong/workspace/atlantis_fw/platform/common/lightheader/src/light_header.c **** 
 1181              		.loc 1 434 0
 1182 005e 2046     		mov	r0, r4
 429:/home/tienluong/workspace/atlantis_fw/platform/common/lightheader/src/light_header.c **** 	time->month = 9;
 1183              		.loc 1 429 0
 1184 0060 6361     		str	r3, [r4, #20]
 430:/home/tienluong/workspace/atlantis_fw/platform/common/lightheader/src/light_header.c **** 	time->year = 2016;
 1185              		.loc 1 430 0
 1186 0062 0923     		movs	r3, #9
 1187 0064 2361     		str	r3, [r4, #16]
 431:/home/tienluong/workspace/atlantis_fw/platform/common/lightheader/src/light_header.c **** 
 1188              		.loc 1 431 0
 1189 0066 4FF4FC63 		mov	r3, #2016
 1190 006a E360     		str	r3, [r4, #12]
 427:/home/tienluong/workspace/atlantis_fw/platform/common/lightheader/src/light_header.c **** 
 1191              		.loc 1 427 0
 1192 006c 2262     		str	r2, [r4, #32]
 434:/home/tienluong/workspace/atlantis_fw/platform/common/lightheader/src/light_header.c **** 
 1193              		.loc 1 434 0
 1194 006e 05B0     		add	sp, sp, #20
 1195              	.LCFI15:
 1196              		.cfi_def_cfa_offset 20
 1197              		@ sp needed
 1198 0070 F0BD     		pop	{r4, r5, r6, r7, pc}
 1199              	.LVL133:
 1200              	.L79:
 1201 0072 00BF     		.align	2
 1202              	.L78:
 1203 0074 00000000 		.word	.LANCHOR8
 1204 0078 00000000 		.word	gen_pvPortMalloc1
 1205 007c 00000000 		.word	ddr_heap_attribute
 1206 0080 00000000 		.word	ltpb__time_stamp__init
 1207 0084 00000000 		.word	__aeabi_uldivmod
 1208 0088 00000000 		.word	rtc_get_time
 1209              		.cfi_endproc
 1210              	.LFE16:
 1212              		.global	__aeabi_fcmplt
 1213              		.global	__aeabi_fcmpge
 1214              		.section	.text.get_iso,"ax",%progbits
 1215              		.align	1
 1216              		.global	get_iso
 1217              		.thumb
 1218              		.thumb_func
 1220              	get_iso:
 1221              	.LFB17:
 437:/home/tienluong/workspace/atlantis_fw/platform/common/lightheader/src/light_header.c **** 	uint32_t iso = 0;
 1222              		.loc 1 437 0
 1223              		.cfi_startproc
 1224              		@ args = 0, pretend = 0, frame = 0
 1225              		@ frame_needed = 0, uses_anonymous_args = 0
 1226              	.LVL134:
 1227 0000 2DE9F84F 		push	{r3, r4, r5, r6, r7, r8, r9, r10, fp, lr}
 1228              	.LCFI16:
 1229              		.cfi_def_cfa_offset 40
 1230              		.cfi_offset 3, -40
 1231              		.cfi_offset 4, -36
 1232              		.cfi_offset 5, -32
 1233              		.cfi_offset 6, -28
 1234              		.cfi_offset 7, -24
 1235              		.cfi_offset 8, -20
 1236              		.cfi_offset 9, -16
 1237              		.cfi_offset 10, -12
 1238              		.cfi_offset 11, -8
 1239              		.cfi_offset 14, -4
 442:/home/tienluong/workspace/atlantis_fw/platform/common/lightheader/src/light_header.c **** 	{
 1240              		.loc 1 442 0
 1241 0004 194C     		ldr	r4, .L99
 437:/home/tienluong/workspace/atlantis_fw/platform/common/lightheader/src/light_header.c **** 	uint32_t iso = 0;
 1242              		.loc 1 437 0
 1243 0006 8046     		mov	r8, r0
 442:/home/tienluong/workspace/atlantis_fw/platform/common/lightheader/src/light_header.c **** 	{
 1244              		.loc 1 442 0
 1245 0008 194E     		ldr	r6, .L99+4
 1246 000a A146     		mov	r9, r4
 1247 000c 2168     		ldr	r1, [r4]	@ float
 1248 000e B047     		blx	r6
 1249              	.LVL135:
 1250 0010 50B9     		cbnz	r0, .L97
 1251              	.LVL136:
 1252              	.LBB8:
 1253              	.LBB9:
 447:/home/tienluong/workspace/atlantis_fw/platform/common/lightheader/src/light_header.c **** 	{
 1254              		.loc 1 447 0
 1255 0012 184B     		ldr	r3, .L99+8
 1256 0014 4046     		mov	r0, r8
 1257 0016 184F     		ldr	r7, .L99+12
 1258 0018 1D68     		ldr	r5, [r3]
 1259 001a 013D     		subs	r5, r5, #1
 1260 001c 54F83510 		ldr	r1, [r4, r5, lsl #3]	@ float
 1261 0020 B847     		blx	r7
 1262              	.LVL137:
 1263 0022 20B1     		cbz	r0, .L96
 449:/home/tienluong/workspace/atlantis_fw/platform/common/lightheader/src/light_header.c **** 	}
 1264              		.loc 1 449 0
 1265 0024 04EBC504 		add	r4, r4, r5, lsl #3
 1266              	.LVL138:
 1267              	.L97:
 1268 0028 A088     		ldrh	r0, [r4, #4]
 1269              	.LVL139:
 1270 002a BDE8F88F 		pop	{r3, r4, r5, r6, r7, r8, r9, r10, fp, pc}
 1271              	.LVL140:
 1272              	.L96:
 447:/home/tienluong/workspace/atlantis_fw/platform/common/lightheader/src/light_header.c **** 	{
 1273              		.loc 1 447 0
 1274 002e 0446     		mov	r4, r0
 1275              	.L84:
 1276              	.LVL141:
 454:/home/tienluong/workspace/atlantis_fw/platform/common/lightheader/src/light_header.c **** 		{
 1277              		.loc 1 454 0
 1278 0030 5FFA84FA 		uxtb	r10, r4
 1279              	.LVL142:
 1280 0034 AA45     		cmp	r10, r5
 1281 0036 15D2     		bcs	.L98
 456:/home/tienluong/workspace/atlantis_fw/platform/common/lightheader/src/light_header.c **** 			{
 1282              		.loc 1 456 0
 1283 0038 4046     		mov	r0, r8
 1284 003a 59F83A10 		ldr	r1, [r9, r10, lsl #3]	@ float
 1285 003e DFF82CB0 		ldr	fp, .L99
 1286 0042 B847     		blx	r7
 1287              	.LVL143:
 1288 0044 60B1     		cbz	r0, .L86
 1289 0046 0AF10103 		add	r3, r10, #1
 1290 004a 4046     		mov	r0, r8
 1291 004c 5BF83310 		ldr	r1, [fp, r3, lsl #3]	@ float
 1292 0050 B047     		blx	r6
 1293              	.LVL144:
 1294 0052 28B1     		cbz	r0, .L86
 458:/home/tienluong/workspace/atlantis_fw/platform/common/lightheader/src/light_header.c **** 				break;
 1295              		.loc 1 458 0
 1296 0054 0BEBCA0A 		add	r10, fp, r10, lsl #3
 1297              	.LVL145:
 1298 0058 BAF80400 		ldrh	r0, [r10, #4]
 1299              	.LVL146:
 1300 005c BDE8F88F 		pop	{r3, r4, r5, r6, r7, r8, r9, r10, fp, pc}
 1301              	.LVL147:
 1302              	.L86:
 1303 0060 0134     		adds	r4, r4, #1
 1304              	.LVL148:
 1305 0062 E5E7     		b	.L84
 1306              	.LVL149:
 1307              	.L98:
 438:/home/tienluong/workspace/atlantis_fw/platform/common/lightheader/src/light_header.c **** 	uint8_t i;
 1308              		.loc 1 438 0
 1309 0064 0020     		movs	r0, #0
 1310              	.LVL150:
 1311              	.LBE9:
 1312              	.LBE8:
 465:/home/tienluong/workspace/atlantis_fw/platform/common/lightheader/src/light_header.c **** 
 1313              		.loc 1 465 0
 1314 0066 BDE8F88F 		pop	{r3, r4, r5, r6, r7, r8, r9, r10, fp, pc}
 1315              	.LVL151:
 1316              	.L100:
 1317 006a 00BF     		.align	2
 1318              	.L99:
 1319 006c 00000000 		.word	iso_table
 1320 0070 00000000 		.word	__aeabi_fcmplt
 1321 0074 00000000 		.word	iso_table_size
 1322 0078 00000000 		.word	__aeabi_fcmpge
 1323              		.cfi_endproc
 1324              	.LFE17:
 1326              		.section	.text.get_vst_noise_vst_model,"ax",%progbits
 1327              		.align	1
 1328              		.global	get_vst_noise_vst_model
 1329              		.thumb
 1330              		.thumb_func
 1332              	get_vst_noise_vst_model:
 1333              	.LFB18:
 469:/home/tienluong/workspace/atlantis_fw/platform/common/lightheader/src/light_header.c **** 	Ltpb__SensorCharacterization__VstNoiseModel__VstModel *vst_model;
 1334              		.loc 1 469 0
 1335              		.cfi_startproc
 1336              		@ args = 0, pretend = 0, frame = 0
 1337              		@ frame_needed = 0, uses_anonymous_args = 0
 1338              	.LVL152:
 1339 0000 10B5     		push	{r4, lr}
 1340              	.LCFI17:
 1341              		.cfi_def_cfa_offset 8
 1342              		.cfi_offset 4, -8
 1343              		.cfi_offset 14, -4
 471:/home/tienluong/workspace/atlantis_fw/platform/common/lightheader/src/light_header.c **** 			(Ltpb__SensorCharacterization__VstNoiseModel__VstModel *)gen_pvPortMalloc(light_header_heap,
 1344              		.loc 1 471 0
 1345 0002 1421     		movs	r1, #20
 1346              	.LVL153:
 1347 0004 064A     		ldr	r2, .L102
 1348 0006 40F2D913 		movw	r3, #473
 1349 000a 064C     		ldr	r4, .L102+4
 1350 000c 0648     		ldr	r0, .L102+8
 1351              	.LVL154:
 1352 000e A047     		blx	r4
 1353              	.LVL155:
 475:/home/tienluong/workspace/atlantis_fw/platform/common/lightheader/src/light_header.c **** 
 1354              		.loc 1 475 0
 1355 0010 064B     		ldr	r3, .L102+12
 471:/home/tienluong/workspace/atlantis_fw/platform/common/lightheader/src/light_header.c **** 			(Ltpb__SensorCharacterization__VstNoiseModel__VstModel *)gen_pvPortMalloc(light_header_heap,
 1356              		.loc 1 471 0
 1357 0012 0446     		mov	r4, r0
 1358              	.LVL156:
 475:/home/tienluong/workspace/atlantis_fw/platform/common/lightheader/src/light_header.c **** 
 1359              		.loc 1 475 0
 1360 0014 9847     		blx	r3
 1361              	.LVL157:
 478:/home/tienluong/workspace/atlantis_fw/platform/common/lightheader/src/light_header.c **** 	vst_model->b = 0;
 1362              		.loc 1 478 0
 1363 0016 0023     		movs	r3, #0
 482:/home/tienluong/workspace/atlantis_fw/platform/common/lightheader/src/light_header.c **** 
 1364              		.loc 1 482 0
 1365 0018 2046     		mov	r0, r4
 478:/home/tienluong/workspace/atlantis_fw/platform/common/lightheader/src/light_header.c **** 	vst_model->b = 0;
 1366              		.loc 1 478 0
 1367 001a E360     		str	r3, [r4, #12]	@ float
 479:/home/tienluong/workspace/atlantis_fw/platform/common/lightheader/src/light_header.c **** 
 1368              		.loc 1 479 0
 1369 001c 2361     		str	r3, [r4, #16]	@ float
 482:/home/tienluong/workspace/atlantis_fw/platform/common/lightheader/src/light_header.c **** 
 1370              		.loc 1 482 0
 1371 001e 10BD     		pop	{r4, pc}
 1372              	.LVL158:
 1373              	.L103:
 1374              		.align	2
 1375              	.L102:
 1376 0020 00000000 		.word	.LANCHOR9
 1377 0024 00000000 		.word	gen_pvPortMalloc1
 1378 0028 00000000 		.word	ddr_heap_attribute
 1379 002c 00000000 		.word	ltpb__sensor_characterization__vst_noise_model__vst_model__init
 1380              		.cfi_endproc
 1381              	.LFE18:
 1383              		.section	.text.get_sensor_characterization_vst_noise_model,"ax",%progbits
 1384              		.align	1
 1385              		.global	get_sensor_characterization_vst_noise_model
 1386              		.thumb
 1387              		.thumb_func
 1389              	get_sensor_characterization_vst_noise_model:
 1390              	.LFB19:
 486:/home/tienluong/workspace/atlantis_fw/platform/common/lightheader/src/light_header.c **** 	Ltpb__SensorCharacterization__VstNoiseModel *vst_noise;
 1391              		.loc 1 486 0
 1392              		.cfi_startproc
 1393              		@ args = 0, pretend = 0, frame = 0
 1394              		@ frame_needed = 0, uses_anonymous_args = 0
 1395              	.LVL159:
 1396 0000 70B5     		push	{r4, r5, r6, lr}
 1397              	.LCFI18:
 1398              		.cfi_def_cfa_offset 16
 1399              		.cfi_offset 4, -16
 1400              		.cfi_offset 5, -12
 1401              		.cfi_offset 6, -8
 1402              		.cfi_offset 14, -4
 488:/home/tienluong/workspace/atlantis_fw/platform/common/lightheader/src/light_header.c **** 			sizeof(Ltpb__SensorCharacterization__VstNoiseModel));
 1403              		.loc 1 488 0
 1404 0002 114A     		ldr	r2, .L105
 486:/home/tienluong/workspace/atlantis_fw/platform/common/lightheader/src/light_header.c **** 	Ltpb__SensorCharacterization__VstNoiseModel *vst_noise;
 1405              		.loc 1 486 0
 1406 0004 0646     		mov	r6, r0
 488:/home/tienluong/workspace/atlantis_fw/platform/common/lightheader/src/light_header.c **** 			sizeof(Ltpb__SensorCharacterization__VstNoiseModel));
 1407              		.loc 1 488 0
 1408 0006 2821     		movs	r1, #40
 1409 0008 40F2E913 		movw	r3, #489
 1410 000c 0F4C     		ldr	r4, .L105+4
 1411 000e 1048     		ldr	r0, .L105+8
 1412              	.LVL160:
 1413 0010 A047     		blx	r4
 1414              	.LVL161:
 491:/home/tienluong/workspace/atlantis_fw/platform/common/lightheader/src/light_header.c **** 
 1415              		.loc 1 491 0
 1416 0012 104B     		ldr	r3, .L105+12
 501:/home/tienluong/workspace/atlantis_fw/platform/common/lightheader/src/light_header.c **** 	vst_noise->green = get_vst_noise_vst_model(pcam, GREEN);
 1417              		.loc 1 501 0
 1418 0014 104D     		ldr	r5, .L105+16
 488:/home/tienluong/workspace/atlantis_fw/platform/common/lightheader/src/light_header.c **** 			sizeof(Ltpb__SensorCharacterization__VstNoiseModel));
 1419              		.loc 1 488 0
 1420 0016 0446     		mov	r4, r0
 1421              	.LVL162:
 491:/home/tienluong/workspace/atlantis_fw/platform/common/lightheader/src/light_header.c **** 
 1422              		.loc 1 491 0
 1423 0018 9847     		blx	r3
 1424              	.LVL163:
 497:/home/tienluong/workspace/atlantis_fw/platform/common/lightheader/src/light_header.c **** 	/* normalizes VST transfrom output to 0..1 range */
 1425              		.loc 1 497 0
 1426 001a 0023     		movs	r3, #0
 495:/home/tienluong/workspace/atlantis_fw/platform/common/lightheader/src/light_header.c **** 	/* noise threshold (the same for all color channels) */
 1427              		.loc 1 495 0
 1428 001c 0021     		movs	r1, #0
 497:/home/tienluong/workspace/atlantis_fw/platform/common/lightheader/src/light_header.c **** 	/* normalizes VST transfrom output to 0..1 range */
 1429              		.loc 1 497 0
 1430 001e 2361     		str	r3, [r4, #16]	@ float
 501:/home/tienluong/workspace/atlantis_fw/platform/common/lightheader/src/light_header.c **** 	vst_noise->green = get_vst_noise_vst_model(pcam, GREEN);
 1431              		.loc 1 501 0
 1432 0020 3046     		mov	r0, r6
 499:/home/tienluong/workspace/atlantis_fw/platform/common/lightheader/src/light_header.c **** 
 1433              		.loc 1 499 0
 1434 0022 6361     		str	r3, [r4, #20]	@ float
 495:/home/tienluong/workspace/atlantis_fw/platform/common/lightheader/src/light_header.c **** 	/* noise threshold (the same for all color channels) */
 1435              		.loc 1 495 0
 1436 0024 E160     		str	r1, [r4, #12]
 501:/home/tienluong/workspace/atlantis_fw/platform/common/lightheader/src/light_header.c **** 	vst_noise->green = get_vst_noise_vst_model(pcam, GREEN);
 1437              		.loc 1 501 0
 1438 0026 A847     		blx	r5
 1439              	.LVL164:
 502:/home/tienluong/workspace/atlantis_fw/platform/common/lightheader/src/light_header.c **** 	vst_noise->blue = get_vst_noise_vst_model(pcam, BLUE);
 1440              		.loc 1 502 0
 1441 0028 0121     		movs	r1, #1
 501:/home/tienluong/workspace/atlantis_fw/platform/common/lightheader/src/light_header.c **** 	vst_noise->green = get_vst_noise_vst_model(pcam, GREEN);
 1442              		.loc 1 501 0
 1443 002a A061     		str	r0, [r4, #24]
 502:/home/tienluong/workspace/atlantis_fw/platform/common/lightheader/src/light_header.c **** 	vst_noise->blue = get_vst_noise_vst_model(pcam, BLUE);
 1444              		.loc 1 502 0
 1445 002c 3046     		mov	r0, r6
 1446 002e A847     		blx	r5
 1447              	.LVL165:
 503:/home/tienluong/workspace/atlantis_fw/platform/common/lightheader/src/light_header.c **** 	vst_noise->panchromatic = get_vst_noise_vst_model(pcam, PANCHROMATIC);
 1448              		.loc 1 503 0
 1449 0030 0221     		movs	r1, #2
 502:/home/tienluong/workspace/atlantis_fw/platform/common/lightheader/src/light_header.c **** 	vst_noise->blue = get_vst_noise_vst_model(pcam, BLUE);
 1450              		.loc 1 502 0
 1451 0032 E061     		str	r0, [r4, #28]
 503:/home/tienluong/workspace/atlantis_fw/platform/common/lightheader/src/light_header.c **** 	vst_noise->panchromatic = get_vst_noise_vst_model(pcam, PANCHROMATIC);
 1452              		.loc 1 503 0
 1453 0034 3046     		mov	r0, r6
 1454 0036 A847     		blx	r5
 1455              	.LVL166:
 504:/home/tienluong/workspace/atlantis_fw/platform/common/lightheader/src/light_header.c **** 
 1456              		.loc 1 504 0
 1457 0038 0321     		movs	r1, #3
 503:/home/tienluong/workspace/atlantis_fw/platform/common/lightheader/src/light_header.c **** 	vst_noise->panchromatic = get_vst_noise_vst_model(pcam, PANCHROMATIC);
 1458              		.loc 1 503 0
 1459 003a 2062     		str	r0, [r4, #32]
 504:/home/tienluong/workspace/atlantis_fw/platform/common/lightheader/src/light_header.c **** 
 1460              		.loc 1 504 0
 1461 003c 3046     		mov	r0, r6
 1462 003e A847     		blx	r5
 1463              	.LVL167:
 1464 0040 6062     		str	r0, [r4, #36]
 507:/home/tienluong/workspace/atlantis_fw/platform/common/lightheader/src/light_header.c **** 
 1465              		.loc 1 507 0
 1466 0042 2046     		mov	r0, r4
 1467 0044 70BD     		pop	{r4, r5, r6, pc}
 1468              	.LVL168:
 1469              	.L106:
 1470 0046 00BF     		.align	2
 1471              	.L105:
 1472 0048 00000000 		.word	.LANCHOR10
 1473 004c 00000000 		.word	gen_pvPortMalloc1
 1474 0050 00000000 		.word	ddr_heap_attribute
 1475 0054 00000000 		.word	ltpb__sensor_characterization__vst_noise_model__init
 1476 0058 00000000 		.word	get_vst_noise_vst_model
 1477              		.cfi_endproc
 1478              	.LFE19:
 1480              		.section	.text.get_sensor_characterization_data,"ax",%progbits
 1481              		.align	1
 1482              		.global	get_sensor_characterization_data
 1483              		.thumb
 1484              		.thumb_func
 1486              	get_sensor_characterization_data:
 1487              	.LFB20:
 510:/home/tienluong/workspace/atlantis_fw/platform/common/lightheader/src/light_header.c **** 	Ltpb__SensorCharacterization *sensor_char =
 1488              		.loc 1 510 0
 1489              		.cfi_startproc
 1490              		@ args = 0, pretend = 0, frame = 0
 1491              		@ frame_needed = 0, uses_anonymous_args = 0
 1492              	.LVL169:
 1493 0000 10B5     		push	{r4, lr}
 1494              	.LCFI19:
 1495              		.cfi_def_cfa_offset 8
 1496              		.cfi_offset 4, -8
 1497              		.cfi_offset 14, -4
 511:/home/tienluong/workspace/atlantis_fw/platform/common/lightheader/src/light_header.c **** 			(Ltpb__SensorCharacterization *)gen_pvPortMalloc(light_header_heap,
 1498              		.loc 1 511 0
 1499 0002 2421     		movs	r1, #36
 1500 0004 0A4A     		ldr	r2, .L108
 1501 0006 40F20123 		movw	r3, #513
 1502 000a 0A4C     		ldr	r4, .L108+4
 1503 000c 0A48     		ldr	r0, .L108+8
 1504              	.LVL170:
 1505 000e A047     		blx	r4
 1506              	.LVL171:
 515:/home/tienluong/workspace/atlantis_fw/platform/common/lightheader/src/light_header.c **** 
 1507              		.loc 1 515 0
 1508 0010 0A4B     		ldr	r3, .L108+12
 511:/home/tienluong/workspace/atlantis_fw/platform/common/lightheader/src/light_header.c **** 			(Ltpb__SensorCharacterization *)gen_pvPortMalloc(light_header_heap,
 1509              		.loc 1 511 0
 1510 0012 0446     		mov	r4, r0
 1511              	.LVL172:
 515:/home/tienluong/workspace/atlantis_fw/platform/common/lightheader/src/light_header.c **** 
 1512              		.loc 1 515 0
 1513 0014 9847     		blx	r3
 1514              	.LVL173:
 517:/home/tienluong/workspace/atlantis_fw/platform/common/lightheader/src/light_header.c **** 	sensor_char->white_level = WHITE_LEVEL;
 1515              		.loc 1 517 0
 1516 0016 0A4B     		ldr	r3, .L108+16
 530:/home/tienluong/workspace/atlantis_fw/platform/common/lightheader/src/light_header.c **** 
 1517              		.loc 1 530 0
 1518 0018 2046     		mov	r0, r4
 517:/home/tienluong/workspace/atlantis_fw/platform/common/lightheader/src/light_header.c **** 	sensor_char->white_level = WHITE_LEVEL;
 1519              		.loc 1 517 0
 1520 001a E360     		str	r3, [r4, #12]	@ float
 518:/home/tienluong/workspace/atlantis_fw/platform/common/lightheader/src/light_header.c **** 
 1521              		.loc 1 518 0
 1522 001c 094B     		ldr	r3, .L108+20
 1523 001e 2361     		str	r3, [r4, #16]	@ float
 520:/home/tienluong/workspace/atlantis_fw/platform/common/lightheader/src/light_header.c **** 	sensor_char->cliff_slope = CLIFF_SLOPE;
 1524              		.loc 1 520 0
 1525 0020 0123     		movs	r3, #1
 1526 0022 6361     		str	r3, [r4, #20]
 521:/home/tienluong/workspace/atlantis_fw/platform/common/lightheader/src/light_header.c **** 
 1527              		.loc 1 521 0
 1528 0024 4FF08043 		mov	r3, #1073741824
 1529 0028 A361     		str	r3, [r4, #24]	@ float
 523:/home/tienluong/workspace/atlantis_fw/platform/common/lightheader/src/light_header.c **** 	/*sensor_char->vst_model =
 1530              		.loc 1 523 0
 1531 002a 0023     		movs	r3, #0
 1532 002c E361     		str	r3, [r4, #28]
 530:/home/tienluong/workspace/atlantis_fw/platform/common/lightheader/src/light_header.c **** 
 1533              		.loc 1 530 0
 1534 002e 10BD     		pop	{r4, pc}
 1535              	.LVL174:
 1536              	.L109:
 1537              		.align	2
 1538              	.L108:
 1539 0030 00000000 		.word	.LANCHOR11
 1540 0034 00000000 		.word	gen_pvPortMalloc1
 1541 0038 00000000 		.word	ddr_heap_attribute
 1542 003c 00000000 		.word	ltpb__sensor_characterization__init
 1543 0040 00002842 		.word	1109917696
 1544 0044 00C07F44 		.word	1149222912
 1545              		.cfi_endproc
 1546              	.LFE20:
 1548              		.section	.text.get_sensor_bayer_red_override,"ax",%progbits
 1549              		.align	1
 1550              		.global	get_sensor_bayer_red_override
 1551              		.thumb
 1552              		.thumb_func
 1554              	get_sensor_bayer_red_override:
 1555              	.LFB21:
 534:/home/tienluong/workspace/atlantis_fw/platform/common/lightheader/src/light_header.c **** 	Ltpb__Point2I *sensor_bayer_red_override = (Ltpb__Point2I *)gen_pvPortMalloc(light_header_heap,
 1556              		.loc 1 534 0
 1557              		.cfi_startproc
 1558              		@ args = 0, pretend = 0, frame = 0
 1559              		@ frame_needed = 0, uses_anonymous_args = 0
 1560              	.LVL175:
 1561 0000 38B5     		push	{r3, r4, r5, lr}
 1562              	.LCFI20:
 1563              		.cfi_def_cfa_offset 16
 1564              		.cfi_offset 3, -16
 1565              		.cfi_offset 4, -12
 1566              		.cfi_offset 5, -8
 1567              		.cfi_offset 14, -4
 535:/home/tienluong/workspace/atlantis_fw/platform/common/lightheader/src/light_header.c **** 			sizeof(Ltpb__Point2I));
 1568              		.loc 1 535 0
 1569 0002 1421     		movs	r1, #20
 534:/home/tienluong/workspace/atlantis_fw/platform/common/lightheader/src/light_header.c **** 	Ltpb__Point2I *sensor_bayer_red_override = (Ltpb__Point2I *)gen_pvPortMalloc(light_header_heap,
 1570              		.loc 1 534 0
 1571 0004 0546     		mov	r5, r0
 535:/home/tienluong/workspace/atlantis_fw/platform/common/lightheader/src/light_header.c **** 			sizeof(Ltpb__Point2I));
 1572              		.loc 1 535 0
 1573 0006 4FF40673 		mov	r3, #536
 1574 000a 134A     		ldr	r2, .L121
 1575 000c 134C     		ldr	r4, .L121+4
 1576 000e 1448     		ldr	r0, .L121+8
 1577              	.LVL176:
 1578 0010 A047     		blx	r4
 1579              	.LVL177:
 537:/home/tienluong/workspace/atlantis_fw/platform/common/lightheader/src/light_header.c **** 
 1580              		.loc 1 537 0
 1581 0012 144B     		ldr	r3, .L121+12
 535:/home/tienluong/workspace/atlantis_fw/platform/common/lightheader/src/light_header.c **** 			sizeof(Ltpb__Point2I));
 1582              		.loc 1 535 0
 1583 0014 0446     		mov	r4, r0
 1584              	.LVL178:
 537:/home/tienluong/workspace/atlantis_fw/platform/common/lightheader/src/light_header.c **** 
 1585              		.loc 1 537 0
 1586 0016 9847     		blx	r3
 1587              	.LVL179:
 539:/home/tienluong/workspace/atlantis_fw/platform/common/lightheader/src/light_header.c **** 
 1588              		.loc 1 539 0
 1589 0018 134B     		ldr	r3, .L121+16
 1590 001a 2868     		ldr	r0, [r5]
 1591 001c 9847     		blx	r3
 1592              	.LVL180:
 542:/home/tienluong/workspace/atlantis_fw/platform/common/lightheader/src/light_header.c **** 	{
 1593              		.loc 1 542 0
 1594 001e 2B68     		ldr	r3, [r5]
 1595 0020 93F84A30 		ldrb	r3, [r3, #74]	@ zero_extendqisi2
 1596 0024 012B     		cmp	r3, #1
 1597 0026 02D1     		bne	.L111
 544:/home/tienluong/workspace/atlantis_fw/platform/common/lightheader/src/light_header.c **** 		sensor_bayer_red_override->y = -1;
 1598              		.loc 1 544 0
 1599 0028 4FF0FF33 		mov	r3, #-1
 1600 002c 08E0     		b	.L120
 1601              	.L111:
 548:/home/tienluong/workspace/atlantis_fw/platform/common/lightheader/src/light_header.c **** 	{
 1602              		.loc 1 548 0
 1603 002e 0328     		cmp	r0, #3
 1604 0030 0CD8     		bhi	.L113
 1605 0032 DFE800F0 		tbb	[pc, r0]
 1606              	.L115:
 1607 0036 0B       		.byte	(.L113-.L115)/2
 1608 0037 02       		.byte	(.L116-.L115)/2
 1609 0038 04       		.byte	(.L117-.L115)/2
 1610 0039 07       		.byte	(.L118-.L115)/2
 1611              		.p2align 1
 1612              	.L116:
 555:/home/tienluong/workspace/atlantis_fw/platform/common/lightheader/src/light_header.c **** 		sensor_bayer_red_override->y = 0;
 1613              		.loc 1 555 0
 1614 003a 0023     		movs	r3, #0
 1615 003c 00E0     		b	.L120
 1616              	.L117:
 560:/home/tienluong/workspace/atlantis_fw/platform/common/lightheader/src/light_header.c **** 		sensor_bayer_red_override->y = 1;
 1617              		.loc 1 560 0
 1618 003e 0123     		movs	r3, #1
 1619              	.L120:
 1620 0040 E360     		str	r3, [r4, #12]
 1621 0042 06E0     		b	.L119
 1622              	.L118:
 564:/home/tienluong/workspace/atlantis_fw/platform/common/lightheader/src/light_header.c **** 
 1623              		.loc 1 564 0
 1624 0044 0023     		movs	r3, #0
 1625 0046 E360     		str	r3, [r4, #12]
 566:/home/tienluong/workspace/atlantis_fw/platform/common/lightheader/src/light_header.c **** 		break;
 1626              		.loc 1 566 0
 1627 0048 0123     		movs	r3, #1
 1628 004a 02E0     		b	.L119
 1629              	.L113:
 569:/home/tienluong/workspace/atlantis_fw/platform/common/lightheader/src/light_header.c **** 		sensor_bayer_red_override->y = 0;
 1630              		.loc 1 569 0
 1631 004c 0123     		movs	r3, #1
 1632 004e E360     		str	r3, [r4, #12]
 570:/home/tienluong/workspace/atlantis_fw/platform/common/lightheader/src/light_header.c **** 		break;
 1633              		.loc 1 570 0
 1634 0050 0023     		movs	r3, #0
 1635              	.L119:
 1636 0052 2361     		str	r3, [r4, #16]
 576:/home/tienluong/workspace/atlantis_fw/platform/common/lightheader/src/light_header.c **** 
 1637              		.loc 1 576 0
 1638 0054 2046     		mov	r0, r4
 1639              	.LVL181:
 1640 0056 38BD     		pop	{r3, r4, r5, pc}
 1641              	.LVL182:
 1642              	.L122:
 1643              		.align	2
 1644              	.L121:
 1645 0058 00000000 		.word	.LANCHOR12
 1646 005c 00000000 		.word	gen_pvPortMalloc1
 1647 0060 00000000 		.word	ddr_heap_attribute
 1648 0064 00000000 		.word	ltpb__point2_i__init
 1649 0068 00000000 		.word	img_sensor_read_pixel_order
 1650              		.cfi_endproc
 1651              	.LFE21:
 1653              		.section	.text.get_cam_module,"ax",%progbits
 1654              		.align	1
 1655              		.global	get_cam_module
 1656              		.thumb
 1657              		.thumb_func
 1659              	get_cam_module:
 1660              	.LFB22:
 579:/home/tienluong/workspace/atlantis_fw/platform/common/lightheader/src/light_header.c **** 	uint8_t *p_tmp;
 1661              		.loc 1 579 0
 1662              		.cfi_startproc
 1663              		@ args = 0, pretend = 0, frame = 16
 1664              		@ frame_needed = 0, uses_anonymous_args = 0
 1665              	.LVL183:
 1666 0000 7FB5     		push	{r0, r1, r2, r3, r4, r5, r6, lr}
 1667              	.LCFI21:
 1668              		.cfi_def_cfa_offset 32
 1669              		.cfi_offset 4, -16
 1670              		.cfi_offset 5, -12
 1671              		.cfi_offset 6, -8
 1672              		.cfi_offset 14, -4
 581:/home/tienluong/workspace/atlantis_fw/platform/common/lightheader/src/light_header.c **** 										sizeof(Ltpb__CameraModule));
 1673              		.loc 1 581 0
 1674 0002 364C     		ldr	r4, .L130
 579:/home/tienluong/workspace/atlantis_fw/platform/common/lightheader/src/light_header.c **** 	uint8_t *p_tmp;
 1675              		.loc 1 579 0
 1676 0004 0546     		mov	r5, r0
 581:/home/tienluong/workspace/atlantis_fw/platform/common/lightheader/src/light_header.c **** 										sizeof(Ltpb__CameraModule));
 1677              		.loc 1 581 0
 1678 0006 6021     		movs	r1, #96
 1679 0008 3548     		ldr	r0, .L130+4
 1680              	.LVL184:
 1681 000a 40F24623 		movw	r3, #582
 1682 000e 354A     		ldr	r2, .L130+8
 1683 0010 A047     		blx	r4
 1684              	.LVL185:
 583:/home/tienluong/workspace/atlantis_fw/platform/common/lightheader/src/light_header.c **** 		return NULL;
 1685              		.loc 1 583 0
 1686 0012 0446     		mov	r4, r0
 1687 0014 0028     		cmp	r0, #0
 1688 0016 5ED0     		beq	.L124
 586:/home/tienluong/workspace/atlantis_fw/platform/common/lightheader/src/light_header.c **** 
 1689              		.loc 1 586 0
 1690 0018 334B     		ldr	r3, .L130+12
 1691 001a 9847     		blx	r3
 1692              	.LVL186:
 589:/home/tienluong/workspace/atlantis_fw/platform/common/lightheader/src/light_header.c **** 
 1693              		.loc 1 589 0
 1694 001c 334B     		ldr	r3, .L130+16
 1695 001e 2846     		mov	r0, r5
 1696 0020 9847     		blx	r3
 1697              	.LVL187:
 592:/home/tienluong/workspace/atlantis_fw/platform/common/lightheader/src/light_header.c **** 
 1698              		.loc 1 592 0
 1699 0022 334B     		ldr	r3, .L130+20
 589:/home/tienluong/workspace/atlantis_fw/platform/common/lightheader/src/light_header.c **** 
 1700              		.loc 1 589 0
 1701 0024 2061     		str	r0, [r4, #16]
 592:/home/tienluong/workspace/atlantis_fw/platform/common/lightheader/src/light_header.c **** 
 1702              		.loc 1 592 0
 1703 0026 2846     		mov	r0, r5
 1704 0028 9847     		blx	r3
 1705              	.LVL188:
 595:/home/tienluong/workspace/atlantis_fw/platform/common/lightheader/src/light_header.c **** 
 1706              		.loc 1 595 0
 1707 002a 324B     		ldr	r3, .L130+24
 592:/home/tienluong/workspace/atlantis_fw/platform/common/lightheader/src/light_header.c **** 
 1708              		.loc 1 592 0
 1709 002c E060     		str	r0, [r4, #12]
 595:/home/tienluong/workspace/atlantis_fw/platform/common/lightheader/src/light_header.c **** 
 1710              		.loc 1 595 0
 1711 002e 2846     		mov	r0, r5
 1712 0030 9847     		blx	r3
 1713              	.LVL189:
 597:/home/tienluong/workspace/atlantis_fw/platform/common/lightheader/src/light_header.c **** 	short lens_position = 0;
 1714              		.loc 1 597 0
 1715 0032 0023     		movs	r3, #0
 598:/home/tienluong/workspace/atlantis_fw/platform/common/lightheader/src/light_header.c **** 	/* Mirror position */
 1716              		.loc 1 598 0
 1717 0034 ADF80630 		strh	r3, [sp, #6]	@ movhi
 597:/home/tienluong/workspace/atlantis_fw/platform/common/lightheader/src/light_header.c **** 	short lens_position = 0;
 1718              		.loc 1 597 0
 1719 0038 ADF80430 		strh	r3, [sp, #4]	@ movhi
 595:/home/tienluong/workspace/atlantis_fw/platform/common/lightheader/src/light_header.c **** 
 1720              		.loc 1 595 0
 1721 003c 6061     		str	r0, [r4, #20]
 600:/home/tienluong/workspace/atlantis_fw/platform/common/lightheader/src/light_header.c **** 	{
 1722              		.loc 1 600 0
 1723 003e 95F82920 		ldrb	r2, [r5, #41]	@ zero_extendqisi2
 1724 0042 02F0F002 		and	r2, r2, #240
 1725 0046 A02A     		cmp	r2, #160
 1726 0048 6A68     		ldr	r2, [r5, #4]
 602:/home/tienluong/workspace/atlantis_fw/platform/common/lightheader/src/light_header.c **** 		p_tmp = pcam->optical->settings->mirr_position;
 1727              		.loc 1 602 0
 1728 004a 14BF     		ite	ne
 1729 004c 0123     		movne	r3, #1
 608:/home/tienluong/workspace/atlantis_fw/platform/common/lightheader/src/light_header.c **** 
 1730              		.loc 1 608 0
 1731 004e A361     		streq	r3, [r4, #24]
 616:/home/tienluong/workspace/atlantis_fw/platform/common/lightheader/src/light_header.c **** 	pcam_module->sensor_total_gain = get_iso(sensitivity);
 1732              		.loc 1 616 0
 1733 0050 2846     		mov	r0, r5
 602:/home/tienluong/workspace/atlantis_fw/platform/common/lightheader/src/light_header.c **** 		p_tmp = pcam->optical->settings->mirr_position;
 1734              		.loc 1 602 0
 1735 0052 1FBF     		itttt	ne
 1736 0054 A361     		strne	r3, [r4, #24]
 1737              	.LVL190:
 604:/home/tienluong/workspace/atlantis_fw/platform/common/lightheader/src/light_header.c **** 		pcam_module->mirror_position = mirror_position;
 1738              		.loc 1 604 0
 1739 0056 9368     		ldrne	r3, [r2, #8]
 1740 0058 5B89     		ldrhne	r3, [r3, #10]	@ unaligned
 1741 005a ADF80430 		strhne	r3, [sp, #4]	@ unaligned
 605:/home/tienluong/workspace/atlantis_fw/platform/common/lightheader/src/light_header.c **** 	}
 1742              		.loc 1 605 0
 1743 005e 1CBF     		itt	ne
 1744 0060 BDF90430 		ldrshne	r3, [sp, #4]
 1745 0064 E361     		strne	r3, [r4, #28]
 1746              	.LVL191:
 612:/home/tienluong/workspace/atlantis_fw/platform/common/lightheader/src/light_header.c **** 	pcam_module->lens_position = lens_position;
 1747              		.loc 1 612 0
 1748 0066 9368     		ldr	r3, [r2, #8]
 1749 0068 DB88     		ldrh	r3, [r3, #6]	@ unaligned
 1750 006a ADF80630 		strh	r3, [sp, #6]	@ unaligned
 613:/home/tienluong/workspace/atlantis_fw/platform/common/lightheader/src/light_header.c **** 
 1751              		.loc 1 613 0
 1752 006e BDF90630 		ldrsh	r3, [sp, #6]
 1753 0072 2362     		str	r3, [r4, #32]
 616:/home/tienluong/workspace/atlantis_fw/platform/common/lightheader/src/light_header.c **** 	pcam_module->sensor_total_gain = get_iso(sensitivity);
 1754              		.loc 1 616 0
 1755 0074 204B     		ldr	r3, .L130+28
 1756 0076 9847     		blx	r3
 1757              	.LVL192:
 617:/home/tienluong/workspace/atlantis_fw/platform/common/lightheader/src/light_header.c **** 
 1758              		.loc 1 617 0
 1759 0078 204B     		ldr	r3, .L130+32
 616:/home/tienluong/workspace/atlantis_fw/platform/common/lightheader/src/light_header.c **** 	pcam_module->sensor_total_gain = get_iso(sensitivity);
 1760              		.loc 1 616 0
 1761 007a 0646     		mov	r6, r0
 1762              	.LVL193:
 617:/home/tienluong/workspace/atlantis_fw/platform/common/lightheader/src/light_header.c **** 
 1763              		.loc 1 617 0
 1764 007c 9847     		blx	r3
 1765              	.LVL194:
 625:/home/tienluong/workspace/atlantis_fw/platform/common/lightheader/src/light_header.c **** 	memcpy(&exposure, p_tmp, 8 * sizeof(uint8_t));
 1766              		.loc 1 625 0
 1767 007e 204A     		ldr	r2, .L130+36
 1768 0080 2B68     		ldr	r3, [r5]
 621:/home/tienluong/workspace/atlantis_fw/platform/common/lightheader/src/light_header.c **** 
 1769              		.loc 1 621 0
 1770 0082 A662     		str	r6, [r4, #40]	@ float
 1771              	.LVL195:
 625:/home/tienluong/workspace/atlantis_fw/platform/common/lightheader/src/light_header.c **** 	memcpy(&exposure, p_tmp, 8 * sizeof(uint8_t));
 1772              		.loc 1 625 0
 1773 0084 1268     		ldr	r2, [r2]
 1774              	.LVL196:
 1775 0086 B2F86E20 		ldrh	r2, [r2, #110]
 1776              	.LVL197:
 1777 008a 03EB8203 		add	r3, r3, r2, lsl #2
 626:/home/tienluong/workspace/atlantis_fw/platform/common/lightheader/src/light_header.c **** 	if(exposure == 0)
 1778              		.loc 1 626 0
 1779 008e 5A68     		ldr	r2, [r3, #4]
 1780              	.LVL198:
 1781 0090 02AB     		add	r3, sp, #8
 617:/home/tienluong/workspace/atlantis_fw/platform/common/lightheader/src/light_header.c **** 
 1782              		.loc 1 617 0
 1783 0092 6062     		str	r0, [r4, #36]
 1784              	.LVL199:
 626:/home/tienluong/workspace/atlantis_fw/platform/common/lightheader/src/light_header.c **** 	if(exposure == 0)
 1785              		.loc 1 626 0
 1786 0094 1068     		ldr	r0, [r2]	@ unaligned
 1787 0096 5168     		ldr	r1, [r2, #4]	@ unaligned
 1788 0098 03C3     		stmia	r3!, {r0, r1}
 627:/home/tienluong/workspace/atlantis_fw/platform/common/lightheader/src/light_header.c **** 	{
 1789              		.loc 1 627 0
 1790 009a DDE90223 		ldrd	r2, [sp, #8]
 1791 009e 1343     		orrs	r3, r2, r3
 1792 00a0 04D1     		bne	.L127
 629:/home/tienluong/workspace/atlantis_fw/platform/common/lightheader/src/light_header.c **** 	}
 1793              		.loc 1 629 0
 1794 00a2 2846     		mov	r0, r5
 1795 00a4 174B     		ldr	r3, .L130+40
 1796 00a6 9847     		blx	r3
 1797              	.LVL200:
 1798 00a8 CDE90201 		strd	r0, [sp, #8]
 1799              	.L127:
 631:/home/tienluong/workspace/atlantis_fw/platform/common/lightheader/src/light_header.c **** 
 1800              		.loc 1 631 0
 1801 00ac DDE90223 		ldrd	r2, [sp, #8]
 634:/home/tienluong/workspace/atlantis_fw/platform/common/lightheader/src/light_header.c **** 
 1802              		.loc 1 634 0
 1803 00b0 2846     		mov	r0, r5
 631:/home/tienluong/workspace/atlantis_fw/platform/common/lightheader/src/light_header.c **** 
 1804              		.loc 1 631 0
 1805 00b2 C4E90C23 		strd	r2, [r4, #48]
 634:/home/tienluong/workspace/atlantis_fw/platform/common/lightheader/src/light_header.c **** 
 1806              		.loc 1 634 0
 1807 00b6 144B     		ldr	r3, .L130+44
 1808 00b8 9847     		blx	r3
 1809              	.LVL201:
 637:/home/tienluong/workspace/atlantis_fw/platform/common/lightheader/src/light_header.c **** 	pcam_module->sensor_temparature = cam_read_temperature(pcam);
 1810              		.loc 1 637 0
 1811 00ba 0123     		movs	r3, #1
 1812 00bc E363     		str	r3, [r4, #60]
 638:/home/tienluong/workspace/atlantis_fw/platform/common/lightheader/src/light_header.c **** 
 1813              		.loc 1 638 0
 1814 00be 134B     		ldr	r3, .L130+48
 634:/home/tienluong/workspace/atlantis_fw/platform/common/lightheader/src/light_header.c **** 
 1815              		.loc 1 634 0
 1816 00c0 A063     		str	r0, [r4, #56]
 638:/home/tienluong/workspace/atlantis_fw/platform/common/lightheader/src/light_header.c **** 
 1817              		.loc 1 638 0
 1818 00c2 2846     		mov	r0, r5
 1819 00c4 9847     		blx	r3
 1820              	.LVL202:
 641:/home/tienluong/workspace/atlantis_fw/platform/common/lightheader/src/light_header.c **** 	/* pcam_module->sensor_is_horizontal_flip = pcam->image->flip & FLIP_HORIZONTAL; */
 1821              		.loc 1 641 0
 1822 00c6 0023     		movs	r3, #0
 1823 00c8 6364     		str	r3, [r4, #68]
 645:/home/tienluong/workspace/atlantis_fw/platform/common/lightheader/src/light_header.c **** 	/* pcam_module->sensor_is_vertical_flip = pcam->image->flip & FLIP_VERTICAL; */
 1824              		.loc 1 645 0
 1825 00ca E364     		str	r3, [r4, #76]
 649:/home/tienluong/workspace/atlantis_fw/platform/common/lightheader/src/light_header.c **** 
 1826              		.loc 1 649 0
 1827 00cc 104B     		ldr	r3, .L130+52
 638:/home/tienluong/workspace/atlantis_fw/platform/common/lightheader/src/light_header.c **** 
 1828              		.loc 1 638 0
 1829 00ce 2064     		str	r0, [r4, #64]
 649:/home/tienluong/workspace/atlantis_fw/platform/common/lightheader/src/light_header.c **** 
 1830              		.loc 1 649 0
 1831 00d0 2846     		mov	r0, r5
 1832 00d2 9847     		blx	r3
 1833              	.LVL203:
 1834 00d4 6065     		str	r0, [r4, #84]
 1835              	.LVL204:
 1836              	.L124:
 652:/home/tienluong/workspace/atlantis_fw/platform/common/lightheader/src/light_header.c **** 
 1837              		.loc 1 652 0
 1838 00d6 2046     		mov	r0, r4
 1839 00d8 04B0     		add	sp, sp, #16
 1840              	.LCFI22:
 1841              		.cfi_def_cfa_offset 16
 1842              		@ sp needed
 1843 00da 70BD     		pop	{r4, r5, r6, pc}
 1844              	.LVL205:
 1845              	.L131:
 1846              		.align	2
 1847              	.L130:
 1848 00dc 00000000 		.word	gen_pvPortMalloc1
 1849 00e0 00000000 		.word	ddr_heap_attribute
 1850 00e4 00000000 		.word	.LANCHOR13
 1851 00e8 00000000 		.word	ltpb__camera_module__init
 1852 00ec 00000000 		.word	get_cam_id
 1853 00f0 00000000 		.word	get_auto_focus_info
 1854 00f4 00000000 		.word	get_cam_is_enabled
 1855 00f8 00000000 		.word	get_sensitivity
 1856 00fc 00000000 		.word	get_iso
 1857 0100 00000000 		.word	light_system
 1858 0104 00000000 		.word	get_exposure_ustime
 1859 0108 00000000 		.word	get_sensor_data_surface
 1860 010c 00000000 		.word	cam_read_temperature
 1861 0110 00000000 		.word	get_sensor_bayer_red_override
 1862              		.cfi_endproc
 1863              	.LFE22:
 1865              		.section	.text.get_sensor_data,"ax",%progbits
 1866              		.align	1
 1867              		.global	get_sensor_data
 1868              		.thumb
 1869              		.thumb_func
 1871              	get_sensor_data:
 1872              	.LFB23:
 655:/home/tienluong/workspace/atlantis_fw/platform/common/lightheader/src/light_header.c **** 	Ltpb__SensorData *sensor_data =
 1873              		.loc 1 655 0
 1874              		.cfi_startproc
 1875              		@ args = 0, pretend = 0, frame = 0
 1876              		@ frame_needed = 0, uses_anonymous_args = 0
 1877              	.LVL206:
 1878 0000 38B5     		push	{r3, r4, r5, lr}
 1879              	.LCFI23:
 1880              		.cfi_def_cfa_offset 16
 1881              		.cfi_offset 3, -16
 1882              		.cfi_offset 4, -12
 1883              		.cfi_offset 5, -8
 1884              		.cfi_offset 14, -4
 656:/home/tienluong/workspace/atlantis_fw/platform/common/lightheader/src/light_header.c **** 			(Ltpb__SensorData *)gen_pvPortMalloc(light_header_heap,
 1885              		.loc 1 656 0
 1886 0002 1821     		movs	r1, #24
 655:/home/tienluong/workspace/atlantis_fw/platform/common/lightheader/src/light_header.c **** 	Ltpb__SensorData *sensor_data =
 1887              		.loc 1 655 0
 1888 0004 0546     		mov	r5, r0
 656:/home/tienluong/workspace/atlantis_fw/platform/common/lightheader/src/light_header.c **** 			(Ltpb__SensorData *)gen_pvPortMalloc(light_header_heap,
 1889              		.loc 1 656 0
 1890 0006 40F29223 		movw	r3, #658
 1891 000a 0C4A     		ldr	r2, .L136
 1892 000c 0C4C     		ldr	r4, .L136+4
 1893 000e 0D48     		ldr	r0, .L136+8
 1894              	.LVL207:
 1895 0010 A047     		blx	r4
 1896              	.LVL208:
 660:/home/tienluong/workspace/atlantis_fw/platform/common/lightheader/src/light_header.c **** 
 1897              		.loc 1 660 0
 1898 0012 0D4B     		ldr	r3, .L136+12
 656:/home/tienluong/workspace/atlantis_fw/platform/common/lightheader/src/light_header.c **** 			(Ltpb__SensorData *)gen_pvPortMalloc(light_header_heap,
 1899              		.loc 1 656 0
 1900 0014 0446     		mov	r4, r0
 1901              	.LVL209:
 660:/home/tienluong/workspace/atlantis_fw/platform/common/lightheader/src/light_header.c **** 
 1902              		.loc 1 660 0
 1903 0016 9847     		blx	r3
 1904              	.LVL210:
 663:/home/tienluong/workspace/atlantis_fw/platform/common/lightheader/src/light_header.c **** 	{
 1905              		.loc 1 663 0
 1906 0018 2B68     		ldr	r3, [r5]
 1907 001a 93F84A30 		ldrb	r3, [r3, #74]	@ zero_extendqisi2
 1908 001e 0BB9     		cbnz	r3, .L133
 665:/home/tienluong/workspace/atlantis_fw/platform/common/lightheader/src/light_header.c **** 	}
 1909              		.loc 1 665 0
 1910 0020 0223     		movs	r3, #2
 1911 0022 00E0     		b	.L135
 1912              	.L133:
 669:/home/tienluong/workspace/atlantis_fw/platform/common/lightheader/src/light_header.c **** 	}
 1913              		.loc 1 669 0
 1914 0024 0323     		movs	r3, #3
 1915              	.L135:
 1916 0026 E360     		str	r3, [r4, #12]
 672:/home/tienluong/workspace/atlantis_fw/platform/common/lightheader/src/light_header.c **** 
 1917              		.loc 1 672 0
 1918 0028 2846     		mov	r0, r5
 1919 002a 084B     		ldr	r3, .L136+16
 1920 002c 9847     		blx	r3
 1921              	.LVL211:
 675:/home/tienluong/workspace/atlantis_fw/platform/common/lightheader/src/light_header.c **** 
 1922              		.loc 1 675 0
 1923 002e 084B     		ldr	r3, .L136+20
 672:/home/tienluong/workspace/atlantis_fw/platform/common/lightheader/src/light_header.c **** 
 1924              		.loc 1 672 0
 1925 0030 2061     		str	r0, [r4, #16]
 675:/home/tienluong/workspace/atlantis_fw/platform/common/lightheader/src/light_header.c **** 
 1926              		.loc 1 675 0
 1927 0032 9847     		blx	r3
 1928              	.LVL212:
 1929 0034 6061     		str	r0, [r4, #20]
 678:/home/tienluong/workspace/atlantis_fw/platform/common/lightheader/src/light_header.c **** 
 1930              		.loc 1 678 0
 1931 0036 2046     		mov	r0, r4
 1932 0038 38BD     		pop	{r3, r4, r5, pc}
 1933              	.LVL213:
 1934              	.L137:
 1935 003a 00BF     		.align	2
 1936              	.L136:
 1937 003c 00000000 		.word	.LANCHOR14
 1938 0040 00000000 		.word	gen_pvPortMalloc1
 1939 0044 00000000 		.word	ddr_heap_attribute
 1940 0048 00000000 		.word	ltpb__sensor_data__init
 1941 004c 00000000 		.word	get_sensor_characterization_data
 1942 0050 00000000 		.word	get_time_stamp
 1943              		.cfi_endproc
 1944              	.LFE23:
 1946              		.section	.text.get_flash_calib,"ax",%progbits
 1947              		.align	1
 1948              		.global	get_flash_calib
 1949              		.thumb
 1950              		.thumb_func
 1952              	get_flash_calib:
 1953              	.LFB24:
 681:/home/tienluong/workspace/atlantis_fw/platform/common/lightheader/src/light_header.c **** 	Ltpb__FlashCalibration *flash_calib =
 1954              		.loc 1 681 0
 1955              		.cfi_startproc
 1956              		@ args = 0, pretend = 0, frame = 0
 1957              		@ frame_needed = 0, uses_anonymous_args = 0
 1958 0000 10B5     		push	{r4, lr}
 1959              	.LCFI24:
 1960              		.cfi_def_cfa_offset 8
 1961              		.cfi_offset 4, -8
 1962              		.cfi_offset 14, -4
 682:/home/tienluong/workspace/atlantis_fw/platform/common/lightheader/src/light_header.c **** 			(Ltpb__FlashCalibration *)gen_pvPortMalloc(light_header_heap,
 1963              		.loc 1 682 0
 1964 0002 2421     		movs	r1, #36
 1965 0004 084A     		ldr	r2, .L139
 1966 0006 4FF42B73 		mov	r3, #684
 1967 000a 084C     		ldr	r4, .L139+4
 1968 000c 0848     		ldr	r0, .L139+8
 1969 000e A047     		blx	r4
 1970              	.LVL214:
 686:/home/tienluong/workspace/atlantis_fw/platform/common/lightheader/src/light_header.c **** 
 1971              		.loc 1 686 0
 1972 0010 084B     		ldr	r3, .L139+12
 682:/home/tienluong/workspace/atlantis_fw/platform/common/lightheader/src/light_header.c **** 			(Ltpb__FlashCalibration *)gen_pvPortMalloc(light_header_heap,
 1973              		.loc 1 682 0
 1974 0012 0446     		mov	r4, r0
 1975              	.LVL215:
 686:/home/tienluong/workspace/atlantis_fw/platform/common/lightheader/src/light_header.c **** 
 1976              		.loc 1 686 0
 1977 0014 9847     		blx	r3
 1978              	.LVL216:
 690:/home/tienluong/workspace/atlantis_fw/platform/common/lightheader/src/light_header.c **** 	/* maximum lumens of cool white led */
 1979              		.loc 1 690 0
 1980 0016 0023     		movs	r3, #0
 704:/home/tienluong/workspace/atlantis_fw/platform/common/lightheader/src/light_header.c **** 
 1981              		.loc 1 704 0
 1982 0018 2046     		mov	r0, r4
 690:/home/tienluong/workspace/atlantis_fw/platform/common/lightheader/src/light_header.c **** 	/* maximum lumens of cool white led */
 1983              		.loc 1 690 0
 1984 001a E360     		str	r3, [r4, #12]	@ float
 692:/home/tienluong/workspace/atlantis_fw/platform/common/lightheader/src/light_header.c **** 	/* cct of cool white led in Kelvin */
 1985              		.loc 1 692 0
 1986 001c 2361     		str	r3, [r4, #16]	@ float
 694:/home/tienluong/workspace/atlantis_fw/platform/common/lightheader/src/light_header.c **** 
 1987              		.loc 1 694 0
 1988 001e 6361     		str	r3, [r4, #20]	@ float
 697:/home/tienluong/workspace/atlantis_fw/platform/common/lightheader/src/light_header.c **** 	/* maximum lumens of warm white led */
 1989              		.loc 1 697 0
 1990 0020 A361     		str	r3, [r4, #24]	@ float
 699:/home/tienluong/workspace/atlantis_fw/platform/common/lightheader/src/light_header.c **** 	/* cct of warm white led in Kelvin */
 1991              		.loc 1 699 0
 1992 0022 E361     		str	r3, [r4, #28]	@ float
 701:/home/tienluong/workspace/atlantis_fw/platform/common/lightheader/src/light_header.c **** 
 1993              		.loc 1 701 0
 1994 0024 2362     		str	r3, [r4, #32]	@ float
 704:/home/tienluong/workspace/atlantis_fw/platform/common/lightheader/src/light_header.c **** 
 1995              		.loc 1 704 0
 1996 0026 10BD     		pop	{r4, pc}
 1997              	.LVL217:
 1998              	.L140:
 1999              		.align	2
 2000              	.L139:
 2001 0028 00000000 		.word	.LANCHOR15
 2002 002c 00000000 		.word	gen_pvPortMalloc1
 2003 0030 00000000 		.word	ddr_heap_attribute
 2004 0034 00000000 		.word	ltpb__flash_calibration__init
 2005              		.cfi_endproc
 2006              	.LFE24:
 2008              		.section	.text.get_tof_calib,"ax",%progbits
 2009              		.align	1
 2010              		.global	get_tof_calib
 2011              		.thumb
 2012              		.thumb_func
 2014              	get_tof_calib:
 2015              	.LFB25:
 707:/home/tienluong/workspace/atlantis_fw/platform/common/lightheader/src/light_header.c **** 	Ltpb__ToFCalibration *tof_calib = (Ltpb__ToFCalibration *)gen_pvPortMalloc(light_header_heap,
 2016              		.loc 1 707 0
 2017              		.cfi_startproc
 2018              		@ args = 0, pretend = 0, frame = 0
 2019              		@ frame_needed = 0, uses_anonymous_args = 0
 2020 0000 10B5     		push	{r4, lr}
 2021              	.LCFI25:
 2022              		.cfi_def_cfa_offset 8
 2023              		.cfi_offset 4, -8
 2024              		.cfi_offset 14, -4
 708:/home/tienluong/workspace/atlantis_fw/platform/common/lightheader/src/light_header.c **** 			sizeof(Ltpb__ToFCalibration));
 2025              		.loc 1 708 0
 2026 0002 1C21     		movs	r1, #28
 2027 0004 074A     		ldr	r2, .L142
 2028 0006 40F2C523 		movw	r3, #709
 2029 000a 074C     		ldr	r4, .L142+4
 2030 000c 0748     		ldr	r0, .L142+8
 2031 000e A047     		blx	r4
 2032              	.LVL218:
 711:/home/tienluong/workspace/atlantis_fw/platform/common/lightheader/src/light_header.c **** 
 2033              		.loc 1 711 0
 2034 0010 074B     		ldr	r3, .L142+12
 708:/home/tienluong/workspace/atlantis_fw/platform/common/lightheader/src/light_header.c **** 			sizeof(Ltpb__ToFCalibration));
 2035              		.loc 1 708 0
 2036 0012 0446     		mov	r4, r0
 2037              	.LVL219:
 711:/home/tienluong/workspace/atlantis_fw/platform/common/lightheader/src/light_header.c **** 
 2038              		.loc 1 711 0
 2039 0014 9847     		blx	r3
 2040              	.LVL220:
 716:/home/tienluong/workspace/atlantis_fw/platform/common/lightheader/src/light_header.c **** 	/* measured distance in mm of the offset chart */
 2041              		.loc 1 716 0
 2042 0016 0023     		movs	r3, #0
 725:/home/tienluong/workspace/atlantis_fw/platform/common/lightheader/src/light_header.c **** 
 2043              		.loc 1 725 0
 2044 0018 2046     		mov	r0, r4
 716:/home/tienluong/workspace/atlantis_fw/platform/common/lightheader/src/light_header.c **** 	/* measured distance in mm of the offset chart */
 2045              		.loc 1 716 0
 2046 001a E360     		str	r3, [r4, #12]	@ float
 718:/home/tienluong/workspace/atlantis_fw/platform/common/lightheader/src/light_header.c **** 	/* distance in mm of the cross talk chart */
 2047              		.loc 1 718 0
 2048 001c 2361     		str	r3, [r4, #16]	@ float
 720:/home/tienluong/workspace/atlantis_fw/platform/common/lightheader/src/light_header.c **** 	/* measured distance in mm of the cross talk chart */
 2049              		.loc 1 720 0
 2050 001e 6361     		str	r3, [r4, #20]	@ float
 722:/home/tienluong/workspace/atlantis_fw/platform/common/lightheader/src/light_header.c **** 
 2051              		.loc 1 722 0
 2052 0020 A361     		str	r3, [r4, #24]	@ float
 725:/home/tienluong/workspace/atlantis_fw/platform/common/lightheader/src/light_header.c **** 
 2053              		.loc 1 725 0
 2054 0022 10BD     		pop	{r4, pc}
 2055              	.LVL221:
 2056              	.L143:
 2057              		.align	2
 2058              	.L142:
 2059 0024 00000000 		.word	.LANCHOR16
 2060 0028 00000000 		.word	gen_pvPortMalloc1
 2061 002c 00000000 		.word	ddr_heap_attribute
 2062 0030 00000000 		.word	ltpb__to_fcalibration__init
 2063              		.cfi_endproc
 2064              	.LFE25:
 2066              		.section	.text.get_factory_device_cablib,"ax",%progbits
 2067              		.align	1
 2068              		.global	get_factory_device_cablib
 2069              		.thumb
 2070              		.thumb_func
 2072              	get_factory_device_cablib:
 2073              	.LFB26:
 728:/home/tienluong/workspace/atlantis_fw/platform/common/lightheader/src/light_header.c **** 	Ltpb__FactoryDeviceCalibration *device_calib =
 2074              		.loc 1 728 0
 2075              		.cfi_startproc
 2076              		@ args = 0, pretend = 0, frame = 0
 2077              		@ frame_needed = 0, uses_anonymous_args = 0
 2078 0000 10B5     		push	{r4, lr}
 2079              	.LCFI26:
 2080              		.cfi_def_cfa_offset 8
 2081              		.cfi_offset 4, -8
 2082              		.cfi_offset 14, -4
 729:/home/tienluong/workspace/atlantis_fw/platform/common/lightheader/src/light_header.c **** 			(Ltpb__FactoryDeviceCalibration *)gen_pvPortMalloc(light_header_heap,
 2083              		.loc 1 729 0
 2084 0002 1821     		movs	r1, #24
 2085 0004 094A     		ldr	r2, .L145
 2086 0006 40F2DB23 		movw	r3, #731
 2087 000a 094C     		ldr	r4, .L145+4
 2088 000c 0948     		ldr	r0, .L145+8
 2089 000e A047     		blx	r4
 2090              	.LVL222:
 733:/home/tienluong/workspace/atlantis_fw/platform/common/lightheader/src/light_header.c **** 
 2091              		.loc 1 733 0
 2092 0010 094B     		ldr	r3, .L145+12
 729:/home/tienluong/workspace/atlantis_fw/platform/common/lightheader/src/light_header.c **** 			(Ltpb__FactoryDeviceCalibration *)gen_pvPortMalloc(light_header_heap,
 2093              		.loc 1 729 0
 2094 0012 0446     		mov	r4, r0
 2095              	.LVL223:
 733:/home/tienluong/workspace/atlantis_fw/platform/common/lightheader/src/light_header.c **** 
 2096              		.loc 1 733 0
 2097 0014 9847     		blx	r3
 2098              	.LVL224:
 736:/home/tienluong/workspace/atlantis_fw/platform/common/lightheader/src/light_header.c **** 	/* Time-of-Flight sensor calibration */
 2099              		.loc 1 736 0
 2100 0016 094B     		ldr	r3, .L145+16
 2101 0018 9847     		blx	r3
 2102              	.LVL225:
 738:/home/tienluong/workspace/atlantis_fw/platform/common/lightheader/src/light_header.c **** 	/* Time stamp of when the device was calibrated in the factory. */
 2103              		.loc 1 738 0
 2104 001a 094B     		ldr	r3, .L145+20
 736:/home/tienluong/workspace/atlantis_fw/platform/common/lightheader/src/light_header.c **** 	/* Time-of-Flight sensor calibration */
 2105              		.loc 1 736 0
 2106 001c E060     		str	r0, [r4, #12]
 738:/home/tienluong/workspace/atlantis_fw/platform/common/lightheader/src/light_header.c **** 	/* Time stamp of when the device was calibrated in the factory. */
 2107              		.loc 1 738 0
 2108 001e 9847     		blx	r3
 2109              	.LVL226:
 740:/home/tienluong/workspace/atlantis_fw/platform/common/lightheader/src/light_header.c **** 
 2110              		.loc 1 740 0
 2111 0020 084B     		ldr	r3, .L145+24
 738:/home/tienluong/workspace/atlantis_fw/platform/common/lightheader/src/light_header.c **** 	/* Time stamp of when the device was calibrated in the factory. */
 2112              		.loc 1 738 0
 2113 0022 2061     		str	r0, [r4, #16]
 740:/home/tienluong/workspace/atlantis_fw/platform/common/lightheader/src/light_header.c **** 
 2114              		.loc 1 740 0
 2115 0024 9847     		blx	r3
 2116              	.LVL227:
 2117 0026 6061     		str	r0, [r4, #20]
 743:/home/tienluong/workspace/atlantis_fw/platform/common/lightheader/src/light_header.c **** 
 2118              		.loc 1 743 0
 2119 0028 2046     		mov	r0, r4
 2120 002a 10BD     		pop	{r4, pc}
 2121              	.LVL228:
 2122              	.L146:
 2123              		.align	2
 2124              	.L145:
 2125 002c 00000000 		.word	.LANCHOR17
 2126 0030 00000000 		.word	gen_pvPortMalloc1
 2127 0034 00000000 		.word	ddr_heap_attribute
 2128 0038 00000000 		.word	ltpb__factory_device_calibration__init
 2129 003c 00000000 		.word	get_flash_calib
 2130 0040 00000000 		.word	get_tof_calib
 2131 0044 00000000 		.word	get_time_stamp
 2132              		.cfi_endproc
 2133              	.LFE26:
 2135              		.section	.text.check_mirror_present,"ax",%progbits
 2136              		.align	1
 2137              		.global	check_mirror_present
 2138              		.thumb
 2139              		.thumb_func
 2141              	check_mirror_present:
 2142              	.LFB27:
 746:/home/tienluong/workspace/atlantis_fw/platform/common/lightheader/src/light_header.c **** 	/* check mirror is glued or not present */
 2143              		.loc 1 746 0
 2144              		.cfi_startproc
 2145              		@ args = 0, pretend = 0, frame = 0
 2146              		@ frame_needed = 0, uses_anonymous_args = 0
 2147              		@ link register save eliminated.
 2148              	.LVL229:
 748:/home/tienluong/workspace/atlantis_fw/platform/common/lightheader/src/light_header.c **** 		(pcam->info.module == CAM_C5) || (pcam->info.module == CAM_C6))
 2149              		.loc 1 748 0
 2150 0000 90F82900 		ldrb	r0, [r0, #41]	@ zero_extendqisi2
 2151              	.LVL230:
 2152 0004 00F0F003 		and	r3, r0, #240
 2153 0008 A02B     		cmp	r3, #160
 2154 000a 08D0     		beq	.L150
 748:/home/tienluong/workspace/atlantis_fw/platform/common/lightheader/src/light_header.c **** 		(pcam->info.module == CAM_C5) || (pcam->info.module == CAM_C6))
 2155              		.loc 1 748 0 is_stmt 0 discriminator 1
 2156 000c B428     		cmp	r0, #180
 2157 000e 06D0     		beq	.L150
 748:/home/tienluong/workspace/atlantis_fw/platform/common/lightheader/src/light_header.c **** 		(pcam->info.module == CAM_C5) || (pcam->info.module == CAM_C6))
 2158              		.loc 1 748 0 discriminator 2
 2159 0010 3B30     		adds	r0, r0, #59
 2160 0012 C0B2     		uxtb	r0, r0
 752:/home/tienluong/workspace/atlantis_fw/platform/common/lightheader/src/light_header.c **** 	}
 2161              		.loc 1 752 0 is_stmt 1 discriminator 2
 2162 0014 0128     		cmp	r0, #1
 2163 0016 94BF     		ite	ls
 2164 0018 0020     		movls	r0, #0
 2165 001a 0120     		movhi	r0, #1
 2166 001c 7047     		bx	lr
 2167              	.L150:
 752:/home/tienluong/workspace/atlantis_fw/platform/common/lightheader/src/light_header.c **** 	}
 2168              		.loc 1 752 0 is_stmt 0
 2169 001e 0020     		movs	r0, #0
 755:/home/tienluong/workspace/atlantis_fw/platform/common/lightheader/src/light_header.c **** 
 2170              		.loc 1 755 0 is_stmt 1
 2171 0020 7047     		bx	lr
 2172              		.cfi_endproc
 2173              	.LFE27:
 2175              		.section	.text.get_cam_hw_info,"ax",%progbits
 2176              		.align	1
 2177              		.global	get_cam_hw_info
 2178              		.thumb
 2179              		.thumb_func
 2181              	get_cam_hw_info:
 2182              	.LFB28:
 758:/home/tienluong/workspace/atlantis_fw/platform/common/lightheader/src/light_header.c **** 	Ltpb__CameraModuleHwInfo *cam_hw_info =
 2183              		.loc 1 758 0
 2184              		.cfi_startproc
 2185              		@ args = 0, pretend = 0, frame = 0
 2186              		@ frame_needed = 0, uses_anonymous_args = 0
 2187              	.LVL231:
 2188 0000 70B5     		push	{r4, r5, r6, lr}
 2189              	.LCFI27:
 2190              		.cfi_def_cfa_offset 16
 2191              		.cfi_offset 4, -16
 2192              		.cfi_offset 5, -12
 2193              		.cfi_offset 6, -8
 2194              		.cfi_offset 14, -4
 759:/home/tienluong/workspace/atlantis_fw/platform/common/lightheader/src/light_header.c **** 			(Ltpb__CameraModuleHwInfo *)gen_pvPortMalloc(light_header_heap,
 2195              		.loc 1 759 0
 2196 0002 2C21     		movs	r1, #44
 758:/home/tienluong/workspace/atlantis_fw/platform/common/lightheader/src/light_header.c **** 	Ltpb__CameraModuleHwInfo *cam_hw_info =
 2197              		.loc 1 758 0
 2198 0004 0646     		mov	r6, r0
 759:/home/tienluong/workspace/atlantis_fw/platform/common/lightheader/src/light_header.c **** 			(Ltpb__CameraModuleHwInfo *)gen_pvPortMalloc(light_header_heap,
 2199              		.loc 1 759 0
 2200 0006 40F2F923 		movw	r3, #761
 2201 000a 124A     		ldr	r2, .L159
 781:/home/tienluong/workspace/atlantis_fw/platform/common/lightheader/src/light_header.c **** 	cam_hw_info->mirror_actuator = 0;
 2202              		.loc 1 781 0
 2203 000c 0025     		movs	r5, #0
 759:/home/tienluong/workspace/atlantis_fw/platform/common/lightheader/src/light_header.c **** 			(Ltpb__CameraModuleHwInfo *)gen_pvPortMalloc(light_header_heap,
 2204              		.loc 1 759 0
 2205 000e 124C     		ldr	r4, .L159+4
 2206 0010 1248     		ldr	r0, .L159+8
 2207              	.LVL232:
 2208 0012 A047     		blx	r4
 2209              	.LVL233:
 763:/home/tienluong/workspace/atlantis_fw/platform/common/lightheader/src/light_header.c **** 
 2210              		.loc 1 763 0
 2211 0014 124B     		ldr	r3, .L159+12
 759:/home/tienluong/workspace/atlantis_fw/platform/common/lightheader/src/light_header.c **** 			(Ltpb__CameraModuleHwInfo *)gen_pvPortMalloc(light_header_heap,
 2212              		.loc 1 759 0
 2213 0016 0446     		mov	r4, r0
 2214              	.LVL234:
 763:/home/tienluong/workspace/atlantis_fw/platform/common/lightheader/src/light_header.c **** 
 2215              		.loc 1 763 0
 2216 0018 9847     		blx	r3
 2217              	.LVL235:
 765:/home/tienluong/workspace/atlantis_fw/platform/common/lightheader/src/light_header.c **** 	cam_hw_info->sensor = LTPB__SENSOR_TYPE__SENSOR_AR1335;
 2218              		.loc 1 765 0
 2219 001a 124B     		ldr	r3, .L159+16
 2220 001c 3046     		mov	r0, r6
 2221 001e 9847     		blx	r3
 2222              	.LVL236:
 766:/home/tienluong/workspace/atlantis_fw/platform/common/lightheader/src/light_header.c **** 
 2223              		.loc 1 766 0
 2224 0020 0223     		movs	r3, #2
 2225 0022 2361     		str	r3, [r4, #16]
 765:/home/tienluong/workspace/atlantis_fw/platform/common/lightheader/src/light_header.c **** 	cam_hw_info->sensor = LTPB__SENSOR_TYPE__SENSOR_AR1335;
 2226              		.loc 1 765 0
 2227 0024 E060     		str	r0, [r4, #12]
 769:/home/tienluong/workspace/atlantis_fw/platform/common/lightheader/src/light_header.c **** 	{
 2228              		.loc 1 769 0
 2229 0026 96F82930 		ldrb	r3, [r6, #41]	@ zero_extendqisi2
 2230 002a 03F0F003 		and	r3, r3, #240
 2231 002e A02B     		cmp	r3, #160
 2232 0030 4FF00103 		mov	r3, #1
 781:/home/tienluong/workspace/atlantis_fw/platform/common/lightheader/src/light_header.c **** 	cam_hw_info->mirror_actuator = 0;
 2233              		.loc 1 781 0
 2234 0034 E561     		str	r5, [r4, #28]
 784:/home/tienluong/workspace/atlantis_fw/platform/common/lightheader/src/light_header.c **** 	if(cam_hw_info->mirror)
 2235              		.loc 1 784 0
 2236 0036 3046     		mov	r0, r6
 771:/home/tienluong/workspace/atlantis_fw/platform/common/lightheader/src/light_header.c **** 		cam_hw_info->lens = LTPB__CAMERA_MODULE_HW_INFO__LENS_TYPE__LENS_SUNNY;
 2237              		.loc 1 771 0
 2238 0038 6361     		str	r3, [r4, #20]
 772:/home/tienluong/workspace/atlantis_fw/platform/common/lightheader/src/light_header.c **** 	}
 2239              		.loc 1 772 0
 2240 003a 14BF     		ite	ne
 2241 003c 0323     		movne	r3, #3
 777:/home/tienluong/workspace/atlantis_fw/platform/common/lightheader/src/light_header.c **** 	}
 2242              		.loc 1 777 0
 2243 003e 0023     		moveq	r3, #0
 782:/home/tienluong/workspace/atlantis_fw/platform/common/lightheader/src/light_header.c **** 
 2244              		.loc 1 782 0
 2245 0040 2562     		str	r5, [r4, #32]
 777:/home/tienluong/workspace/atlantis_fw/platform/common/lightheader/src/light_header.c **** 	}
 2246              		.loc 1 777 0
 2247 0042 A361     		str	r3, [r4, #24]
 784:/home/tienluong/workspace/atlantis_fw/platform/common/lightheader/src/light_header.c **** 	if(cam_hw_info->mirror)
 2248              		.loc 1 784 0
 2249 0044 084B     		ldr	r3, .L159+20
 2250 0046 9847     		blx	r3
 2251              	.LVL237:
 785:/home/tienluong/workspace/atlantis_fw/platform/common/lightheader/src/light_header.c **** 	{
 2252              		.loc 1 785 0
 2253 0048 A36A     		ldr	r3, [r4, #40]
 784:/home/tienluong/workspace/atlantis_fw/platform/common/lightheader/src/light_header.c **** 	if(cam_hw_info->mirror)
 2254              		.loc 1 784 0
 2255 004a 6062     		str	r0, [r4, #36]
 785:/home/tienluong/workspace/atlantis_fw/platform/common/lightheader/src/light_header.c **** 	{
 2256              		.loc 1 785 0
 2257 004c 03B1     		cbz	r3, .L154
 787:/home/tienluong/workspace/atlantis_fw/platform/common/lightheader/src/light_header.c **** 	}
 2258              		.loc 1 787 0
 2259 004e A562     		str	r5, [r4, #40]
 2260              	.L154:
 791:/home/tienluong/workspace/atlantis_fw/platform/common/lightheader/src/light_header.c **** 
 2261              		.loc 1 791 0
 2262 0050 2046     		mov	r0, r4
 2263 0052 70BD     		pop	{r4, r5, r6, pc}
 2264              	.LVL238:
 2265              	.L160:
 2266              		.align	2
 2267              	.L159:
 2268 0054 00000000 		.word	.LANCHOR18
 2269 0058 00000000 		.word	gen_pvPortMalloc1
 2270 005c 00000000 		.word	ddr_heap_attribute
 2271 0060 00000000 		.word	ltpb__camera_module_hw_info__init
 2272 0064 00000000 		.word	get_cam_id
 2273 0068 00000000 		.word	check_mirror_present
 2274              		.cfi_endproc
 2275              	.LFE28:
 2277              		.section	.text.get_hw_info,"ax",%progbits
 2278              		.align	1
 2279              		.global	get_hw_info
 2280              		.thumb
 2281              		.thumb_func
 2283              	get_hw_info:
 2284              	.LFB29:
 794:/home/tienluong/workspace/atlantis_fw/platform/common/lightheader/src/light_header.c **** 	Ltpb__HwInfo *hw_info = (Ltpb__HwInfo *)gen_pvPortMalloc(light_header_heap, sizeof(Ltpb__HwInfo));
 2285              		.loc 1 794 0
 2286              		.cfi_startproc
 2287              		@ args = 0, pretend = 0, frame = 0
 2288              		@ frame_needed = 0, uses_anonymous_args = 0
 2289              	.LVL239:
 2290 0000 2DE9F843 		push	{r3, r4, r5, r6, r7, r8, r9, lr}
 2291              	.LCFI28:
 2292              		.cfi_def_cfa_offset 32
 2293              		.cfi_offset 3, -32
 2294              		.cfi_offset 4, -28
 2295              		.cfi_offset 5, -24
 2296              		.cfi_offset 6, -20
 2297              		.cfi_offset 7, -16
 2298              		.cfi_offset 8, -12
 2299              		.cfi_offset 9, -8
 2300              		.cfi_offset 14, -4
 795:/home/tienluong/workspace/atlantis_fw/platform/common/lightheader/src/light_header.c **** 
 2301              		.loc 1 795 0
 2302 0004 2C21     		movs	r1, #44
 2303 0006 224A     		ldr	r2, .L174
 794:/home/tienluong/workspace/atlantis_fw/platform/common/lightheader/src/light_header.c **** 	Ltpb__HwInfo *hw_info = (Ltpb__HwInfo *)gen_pvPortMalloc(light_header_heap, sizeof(Ltpb__HwInfo));
 2304              		.loc 1 794 0
 2305 0008 0546     		mov	r5, r0
 795:/home/tienluong/workspace/atlantis_fw/platform/common/lightheader/src/light_header.c **** 
 2306              		.loc 1 795 0
 2307 000a 40F21B33 		movw	r3, #795
 2308 000e 2148     		ldr	r0, .L174+4
 2309              	.LVL240:
 2310 0010 214F     		ldr	r7, .L174+8
 2311 0012 B847     		blx	r7
 2312              	.LVL241:
 797:/home/tienluong/workspace/atlantis_fw/platform/common/lightheader/src/light_header.c **** 
 2313              		.loc 1 797 0
 2314 0014 214B     		ldr	r3, .L174+12
 795:/home/tienluong/workspace/atlantis_fw/platform/common/lightheader/src/light_header.c **** 
 2315              		.loc 1 795 0
 2316 0016 0446     		mov	r4, r0
 2317              	.LVL242:
 797:/home/tienluong/workspace/atlantis_fw/platform/common/lightheader/src/light_header.c **** 
 2318              		.loc 1 797 0
 2319 0018 9847     		blx	r3
 2320              	.LVL243:
 799:/home/tienluong/workspace/atlantis_fw/platform/common/lightheader/src/light_header.c **** 	if (hw_info->n_camera == 0)
 2321              		.loc 1 799 0
 2322 001a 2846     		mov	r0, r5
 2323 001c 204B     		ldr	r3, .L174+16
 2324 001e 9847     		blx	r3
 2325              	.LVL244:
 2326 0020 0646     		mov	r6, r0
 2327 0022 E060     		str	r0, [r4, #12]
 800:/home/tienluong/workspace/atlantis_fw/platform/common/lightheader/src/light_header.c **** 	{
 2328              		.loc 1 800 0
 2329 0024 48B9     		cbnz	r0, .L162
 802:/home/tienluong/workspace/atlantis_fw/platform/common/lightheader/src/light_header.c **** 		return NULL;
 2330              		.loc 1 802 0
 2331 0026 2146     		mov	r1, r4
 2332 0028 40F22233 		movw	r3, #802
 2333 002c 1948     		ldr	r0, .L174+4
 2334 002e 184A     		ldr	r2, .L174
 2335 0030 1C4C     		ldr	r4, .L174+20
 2336              	.LVL245:
 2337 0032 A047     		blx	r4
 2338              	.LVL246:
 803:/home/tienluong/workspace/atlantis_fw/platform/common/lightheader/src/light_header.c **** 	}
 2339              		.loc 1 803 0
 2340 0034 3046     		mov	r0, r6
 2341 0036 BDE8F883 		pop	{r3, r4, r5, r6, r7, r8, r9, pc}
 2342              	.LVL247:
 2343              	.L162:
 805:/home/tienluong/workspace/atlantis_fw/platform/common/lightheader/src/light_header.c **** 			sizeof(Ltpb__CameraModuleHwInfo) * hw_info->n_camera);
 2344              		.loc 1 805 0
 2345 003a 2C21     		movs	r1, #44
 2346 003c 40F22633 		movw	r3, #806
 2347 0040 10FB01F1 		smulbb	r1, r0, r1
 2348 0044 124A     		ldr	r2, .L174
 2349 0046 1348     		ldr	r0, .L174+4
 2350 0048 B847     		blx	r7
 2351              	.LVL248:
 812:/home/tienluong/workspace/atlantis_fw/platform/common/lightheader/src/light_header.c **** 	while(m_bitmask)
 2352              		.loc 1 812 0
 2353 004a 174B     		ldr	r3, .L174+24
 813:/home/tienluong/workspace/atlantis_fw/platform/common/lightheader/src/light_header.c **** 	{
 2354              		.loc 1 813 0
 2355 004c 0027     		movs	r7, #0
 811:/home/tienluong/workspace/atlantis_fw/platform/common/lightheader/src/light_header.c **** 	m_bitmask &= light_system->m_filter;
 2356              		.loc 1 811 0
 2357 004e 3E46     		mov	r6, r7
 812:/home/tienluong/workspace/atlantis_fw/platform/common/lightheader/src/light_header.c **** 	while(m_bitmask)
 2358              		.loc 1 812 0
 2359 0050 1B68     		ldr	r3, [r3]
 2360 0052 1B6E     		ldr	r3, [r3, #96]
 2361 0054 1D40     		ands	r5, r5, r3
 2362              	.LVL249:
 805:/home/tienluong/workspace/atlantis_fw/platform/common/lightheader/src/light_header.c **** 			sizeof(Ltpb__CameraModuleHwInfo) * hw_info->n_camera);
 2363              		.loc 1 805 0
 2364 0056 2061     		str	r0, [r4, #16]
 2365              	.LVL250:
 2366              	.L164:
 2367 0058 F8B2     		uxtb	r0, r7
 2368              	.LVL251:
 813:/home/tienluong/workspace/atlantis_fw/platform/common/lightheader/src/light_header.c **** 	{
 2369              		.loc 1 813 0
 2370 005a 8DB1     		cbz	r5, .L173
 815:/home/tienluong/workspace/atlantis_fw/platform/common/lightheader/src/light_header.c **** 		{
 2371              		.loc 1 815 0
 2372 005c EB07     		lsls	r3, r5, #31
 2373 005e 0CD5     		bpl	.L165
 817:/home/tienluong/workspace/atlantis_fw/platform/common/lightheader/src/light_header.c **** 			if(pcam != NULL)
 2374              		.loc 1 817 0
 2375 0060 124B     		ldr	r3, .L174+28
 2376 0062 9847     		blx	r3
 2377              	.LVL252:
 818:/home/tienluong/workspace/atlantis_fw/platform/common/lightheader/src/light_header.c **** 			{
 2378              		.loc 1 818 0
 2379 0064 48B1     		cbz	r0, .L165
 821:/home/tienluong/workspace/atlantis_fw/platform/common/lightheader/src/light_header.c **** 				i++;
 2380              		.loc 1 821 0
 2381 0066 124B     		ldr	r3, .L174+32
 2382 0068 0FFA86F9 		sxth	r9, r6
 2383 006c D4F81080 		ldr	r8, [r4, #16]
 2384 0070 9847     		blx	r3
 2385              	.LVL253:
 822:/home/tienluong/workspace/atlantis_fw/platform/common/lightheader/src/light_header.c **** 			}
 2386              		.loc 1 822 0
 2387 0072 0136     		adds	r6, r6, #1
 2388              	.LVL254:
 2389 0074 F6B2     		uxtb	r6, r6
 2390              	.LVL255:
 821:/home/tienluong/workspace/atlantis_fw/platform/common/lightheader/src/light_header.c **** 				i++;
 2391              		.loc 1 821 0
 2392 0076 48F82900 		str	r0, [r8, r9, lsl #2]
 2393              	.L165:
 825:/home/tienluong/workspace/atlantis_fw/platform/common/lightheader/src/light_header.c **** 		cam_idx++;
 2394              		.loc 1 825 0
 2395 007a 6D08     		lsrs	r5, r5, #1
 2396              	.LVL256:
 2397 007c 0137     		adds	r7, r7, #1
 2398              	.LVL257:
 2399 007e EBE7     		b	.L164
 2400              	.LVL258:
 2401              	.L173:
 829:/home/tienluong/workspace/atlantis_fw/platform/common/lightheader/src/light_header.c **** 	hw_info->flash = LTPB__HW_INFO__FLASH_TYPE__FLASH_UNKNOWN;
 2402              		.loc 1 829 0
 2403 0080 0123     		movs	r3, #1
 830:/home/tienluong/workspace/atlantis_fw/platform/common/lightheader/src/light_header.c **** 
 2404              		.loc 1 830 0
 2405 0082 A561     		str	r5, [r4, #24]
 835:/home/tienluong/workspace/atlantis_fw/platform/common/lightheader/src/light_header.c **** }
 2406              		.loc 1 835 0
 2407 0084 2046     		mov	r0, r4
 2408              	.LVL259:
 829:/home/tienluong/workspace/atlantis_fw/platform/common/lightheader/src/light_header.c **** 	hw_info->flash = LTPB__HW_INFO__FLASH_TYPE__FLASH_UNKNOWN;
 2409              		.loc 1 829 0
 2410 0086 6361     		str	r3, [r4, #20]
 832:/home/tienluong/workspace/atlantis_fw/platform/common/lightheader/src/light_header.c **** 	hw_info->tof = LTPB__HW_INFO__TO_FTYPE__TOF_STMICRO_VL53L0;
 2411              		.loc 1 832 0
 2412 0088 E361     		str	r3, [r4, #28]
 833:/home/tienluong/workspace/atlantis_fw/platform/common/lightheader/src/light_header.c **** 
 2413              		.loc 1 833 0
 2414 008a 2362     		str	r3, [r4, #32]
 836:/home/tienluong/workspace/atlantis_fw/platform/common/lightheader/src/light_header.c **** 
 2415              		.loc 1 836 0
 2416 008c BDE8F883 		pop	{r3, r4, r5, r6, r7, r8, r9, pc}
 2417              	.LVL260:
 2418              	.L175:
 2419              		.align	2
 2420              	.L174:
 2421 0090 00000000 		.word	.LANCHOR19
 2422 0094 00000000 		.word	ddr_heap_attribute
 2423 0098 00000000 		.word	gen_pvPortMalloc1
 2424 009c 00000000 		.word	ltpb__hw_info__init
 2425 00a0 00000000 		.word	get_cam_total_number
 2426 00a4 00000000 		.word	gen_vPortFree1
 2427 00a8 00000000 		.word	light_system
 2428 00ac 00000000 		.word	idx_to_object
 2429 00b0 00000000 		.word	get_cam_hw_info
 2430              		.cfi_endproc
 2431              	.LFE29:
 2433              		.section	.text.get_n_module_calib,"ax",%progbits
 2434              		.align	1
 2435              		.global	get_n_module_calib
 2436              		.thumb
 2437              		.thumb_func
 2439              	get_n_module_calib:
 2440              	.LFB30:
 839:/home/tienluong/workspace/atlantis_fw/platform/common/lightheader/src/light_header.c **** 	uint8_t cam_idx = 0;
 2441              		.loc 1 839 0
 2442              		.cfi_startproc
 2443              		@ args = 0, pretend = 0, frame = 0
 2444              		@ frame_needed = 0, uses_anonymous_args = 0
 2445              	.LVL261:
 844:/home/tienluong/workspace/atlantis_fw/platform/common/lightheader/src/light_header.c **** 	while(m_bitmask)
 2446              		.loc 1 844 0
 2447 0000 0D4B     		ldr	r3, .L190
 839:/home/tienluong/workspace/atlantis_fw/platform/common/lightheader/src/light_header.c **** 	uint8_t cam_idx = 0;
 2448              		.loc 1 839 0
 2449 0002 70B5     		push	{r4, r5, r6, lr}
 2450              	.LCFI29:
 2451              		.cfi_def_cfa_offset 16
 2452              		.cfi_offset 4, -16
 2453              		.cfi_offset 5, -12
 2454              		.cfi_offset 6, -8
 2455              		.cfi_offset 14, -4
 844:/home/tienluong/workspace/atlantis_fw/platform/common/lightheader/src/light_header.c **** 	while(m_bitmask)
 2456              		.loc 1 844 0
 2457 0004 1B68     		ldr	r3, [r3]
 845:/home/tienluong/workspace/atlantis_fw/platform/common/lightheader/src/light_header.c **** 	{
 2458              		.loc 1 845 0
 2459 0006 0026     		movs	r6, #0
 841:/home/tienluong/workspace/atlantis_fw/platform/common/lightheader/src/light_header.c **** 	cam_typedef_t *pcam;
 2460              		.loc 1 841 0
 2461 0008 3546     		mov	r5, r6
 844:/home/tienluong/workspace/atlantis_fw/platform/common/lightheader/src/light_header.c **** 	while(m_bitmask)
 2462              		.loc 1 844 0
 2463 000a 1C6E     		ldr	r4, [r3, #96]
 2464 000c 0440     		ands	r4, r4, r0
 2465              	.LVL262:
 2466              	.L177:
 2467 000e F0B2     		uxtb	r0, r6
 2468              	.LVL263:
 845:/home/tienluong/workspace/atlantis_fw/platform/common/lightheader/src/light_header.c **** 	{
 2469              		.loc 1 845 0
 2470 0010 7CB1     		cbz	r4, .L189
 847:/home/tienluong/workspace/atlantis_fw/platform/common/lightheader/src/light_header.c **** 		{
 2471              		.loc 1 847 0
 2472 0012 E307     		lsls	r3, r4, #31
 2473 0014 0AD5     		bpl	.L178
 849:/home/tienluong/workspace/atlantis_fw/platform/common/lightheader/src/light_header.c **** 			if(pcam != NULL)
 2474              		.loc 1 849 0
 2475 0016 094B     		ldr	r3, .L190+4
 2476 0018 9847     		blx	r3
 2477              	.LVL264:
 850:/home/tienluong/workspace/atlantis_fw/platform/common/lightheader/src/light_header.c **** 			{
 2478              		.loc 1 850 0
 2479 001a 38B1     		cbz	r0, .L178
 852:/home/tienluong/workspace/atlantis_fw/platform/common/lightheader/src/light_header.c **** 					cam_calib++;
 2480              		.loc 1 852 0
 2481 001c 90F82930 		ldrb	r3, [r0, #41]	@ zero_extendqisi2
 2482 0020 03F0F003 		and	r3, r3, #240
 2483 0024 A02B     		cmp	r3, #160
 853:/home/tienluong/workspace/atlantis_fw/platform/common/lightheader/src/light_header.c **** 			}
 2484              		.loc 1 853 0
 2485 0026 1CBF     		itt	ne
 2486 0028 0135     		addne	r5, r5, #1
 2487              	.LVL265:
 2488 002a EDB2     		uxtbne	r5, r5
 2489              	.LVL266:
 2490              	.L178:
 856:/home/tienluong/workspace/atlantis_fw/platform/common/lightheader/src/light_header.c **** 		cam_idx++;
 2491              		.loc 1 856 0
 2492 002c 6408     		lsrs	r4, r4, #1
 2493              	.LVL267:
 2494 002e 0136     		adds	r6, r6, #1
 2495              	.LVL268:
 2496 0030 EDE7     		b	.L177
 2497              	.LVL269:
 2498              	.L189:
 860:/home/tienluong/workspace/atlantis_fw/platform/common/lightheader/src/light_header.c **** 
 2499              		.loc 1 860 0
 2500 0032 2846     		mov	r0, r5
 2501              	.LVL270:
 2502 0034 70BD     		pop	{r4, r5, r6, pc}
 2503              	.LVL271:
 2504              	.L191:
 2505 0036 00BF     		.align	2
 2506              	.L190:
 2507 0038 00000000 		.word	light_system
 2508 003c 00000000 		.word	idx_to_object
 2509              		.cfi_endproc
 2510              	.LFE30:
 2512              		.section	.text.get_module_calibration,"ax",%progbits
 2513              		.align	1
 2514              		.global	get_module_calibration
 2515              		.thumb
 2516              		.thumb_func
 2518              	get_module_calibration:
 2519              	.LFB31:
 863:/home/tienluong/workspace/atlantis_fw/platform/common/lightheader/src/light_header.c **** 	Ltpb__FactoryModuleCalibration *module_calib = gen_pvPortMalloc(light_header_heap,
 2520              		.loc 1 863 0
 2521              		.cfi_startproc
 2522              		@ args = 0, pretend = 0, frame = 0
 2523              		@ frame_needed = 0, uses_anonymous_args = 0
 2524              	.LVL272:
 2525 0000 10B5     		push	{r4, lr}
 2526              	.LCFI30:
 2527              		.cfi_def_cfa_offset 8
 2528              		.cfi_offset 4, -8
 2529              		.cfi_offset 14, -4
 864:/home/tienluong/workspace/atlantis_fw/platform/common/lightheader/src/light_header.c **** 			sizeof(Ltpb__FactoryModuleCalibration));
 2530              		.loc 1 864 0
 2531 0002 2C21     		movs	r1, #44
 2532 0004 054A     		ldr	r2, .L193
 2533 0006 40F26133 		movw	r3, #865
 2534 000a 054C     		ldr	r4, .L193+4
 2535 000c 0548     		ldr	r0, .L193+8
 2536              	.LVL273:
 2537 000e A047     		blx	r4
 2538              	.LVL274:
 867:/home/tienluong/workspace/atlantis_fw/platform/common/lightheader/src/light_header.c **** 
 2539              		.loc 1 867 0
 2540 0010 054B     		ldr	r3, .L193+12
 864:/home/tienluong/workspace/atlantis_fw/platform/common/lightheader/src/light_header.c **** 			sizeof(Ltpb__FactoryModuleCalibration));
 2541              		.loc 1 864 0
 2542 0012 0446     		mov	r4, r0
 2543              	.LVL275:
 867:/home/tienluong/workspace/atlantis_fw/platform/common/lightheader/src/light_header.c **** 
 2544              		.loc 1 867 0
 2545 0014 9847     		blx	r3
 2546              	.LVL276:
 871:/home/tienluong/workspace/atlantis_fw/platform/common/lightheader/src/light_header.c **** 
 2547              		.loc 1 871 0
 2548 0016 2046     		mov	r0, r4
 2549 0018 10BD     		pop	{r4, pc}
 2550              	.LVL277:
 2551              	.L194:
 2552 001a 00BF     		.align	2
 2553              	.L193:
 2554 001c 00000000 		.word	.LANCHOR20
 2555 0020 00000000 		.word	gen_pvPortMalloc1
 2556 0024 00000000 		.word	ddr_heap_attribute
 2557 0028 00000000 		.word	ltpb__factory_module_calibration__init
 2558              		.cfi_endproc
 2559              	.LFE31:
 2561              		.section	.text.alloc_init_light_header,"ax",%progbits
 2562              		.align	1
 2563              		.global	alloc_init_light_header
 2564              		.thumb
 2565              		.thumb_func
 2567              	alloc_init_light_header:
 2568              	.LFB32:
 875:/home/tienluong/workspace/atlantis_fw/platform/common/lightheader/src/light_header.c ****     Ltpb__LightHeader* lh = (Ltpb__LightHeader*)gen_pvPortMalloc(light_header_heap,
 2569              		.loc 1 875 0
 2570              		.cfi_startproc
 2571              		@ args = 0, pretend = 0, frame = 0
 2572              		@ frame_needed = 0, uses_anonymous_args = 0
 2573 0000 10B5     		push	{r4, lr}
 2574              	.LCFI31:
 2575              		.cfi_def_cfa_offset 8
 2576              		.cfi_offset 4, -8
 2577              		.cfi_offset 14, -4
 876:/home/tienluong/workspace/atlantis_fw/platform/common/lightheader/src/light_header.c ****             sizeof(Ltpb__LightHeader));
 2578              		.loc 1 876 0
 2579 0002 0948     		ldr	r0, .L197
 2580 0004 A821     		movs	r1, #168
 2581 0006 094C     		ldr	r4, .L197+4
 2582 0008 40F26D33 		movw	r3, #877
 2583 000c 084A     		ldr	r2, .L197+8
 2584 000e A047     		blx	r4
 2585              	.LVL278:
 878:/home/tienluong/workspace/atlantis_fw/platform/common/lightheader/src/light_header.c ****     ltpb__light_header__init(lh);
 2586              		.loc 1 878 0
 2587 0010 0446     		mov	r4, r0
 2588 0012 20B9     		cbnz	r0, .L196
 878:/home/tienluong/workspace/atlantis_fw/platform/common/lightheader/src/light_header.c ****     ltpb__light_header__init(lh);
 2589              		.loc 1 878 0 is_stmt 0 discriminator 1
 2590 0014 0648     		ldr	r0, .L197+8
 2591              	.LVL279:
 2592 0016 40F26E31 		movw	r1, #878
 2593 001a 064B     		ldr	r3, .L197+12
 2594 001c 9847     		blx	r3
 2595              	.LVL280:
 2596              	.L196:
 879:/home/tienluong/workspace/atlantis_fw/platform/common/lightheader/src/light_header.c ****     return lh;
 2597              		.loc 1 879 0 is_stmt 1
 2598 001e 2046     		mov	r0, r4
 2599 0020 054B     		ldr	r3, .L197+16
 2600 0022 9847     		blx	r3
 2601              	.LVL281:
 881:/home/tienluong/workspace/atlantis_fw/platform/common/lightheader/src/light_header.c **** 
 2602              		.loc 1 881 0
 2603 0024 2046     		mov	r0, r4
 2604 0026 10BD     		pop	{r4, pc}
 2605              	.LVL282:
 2606              	.L198:
 2607              		.align	2
 2608              	.L197:
 2609 0028 00000000 		.word	ddr_heap_attribute
 2610 002c 00000000 		.word	gen_pvPortMalloc1
 2611 0030 00000000 		.word	.LANCHOR21
 2612 0034 00000000 		.word	assert_failed
 2613 0038 00000000 		.word	ltpb__light_header__init
 2614              		.cfi_endproc
 2615              	.LFE32:
 2617              		.section	.text.get_light_header,"ax",%progbits
 2618              		.align	1
 2619              		.global	get_light_header
 2620              		.thumb
 2621              		.thumb_func
 2623              	get_light_header:
 2624              	.LFB33:
 884:/home/tienluong/workspace/atlantis_fw/platform/common/lightheader/src/light_header.c **** 	cam_typedef_t *pcam;
 2625              		.loc 1 884 0
 2626              		.cfi_startproc
 2627              		@ args = 0, pretend = 0, frame = 0
 2628              		@ frame_needed = 0, uses_anonymous_args = 0
 2629              	.LVL283:
 888:/home/tienluong/workspace/atlantis_fw/platform/common/lightheader/src/light_header.c **** 	uint8_t cam_idx = 0;
 2630              		.loc 1 888 0
 2631 0000 4B4B     		ldr	r3, .L215
 884:/home/tienluong/workspace/atlantis_fw/platform/common/lightheader/src/light_header.c **** 	cam_typedef_t *pcam;
 2632              		.loc 1 884 0
 2633 0002 2DE9F047 		push	{r4, r5, r6, r7, r8, r9, r10, lr}
 2634              	.LCFI32:
 2635              		.cfi_def_cfa_offset 32
 2636              		.cfi_offset 4, -32
 2637              		.cfi_offset 5, -28
 2638              		.cfi_offset 6, -24
 2639              		.cfi_offset 7, -20
 2640              		.cfi_offset 8, -16
 2641              		.cfi_offset 9, -12
 2642              		.cfi_offset 10, -8
 2643              		.cfi_offset 14, -4
 888:/home/tienluong/workspace/atlantis_fw/platform/common/lightheader/src/light_header.c **** 	uint8_t cam_idx = 0;
 2644              		.loc 1 888 0
 2645 0006 1D68     		ldr	r5, [r3]
 884:/home/tienluong/workspace/atlantis_fw/platform/common/lightheader/src/light_header.c **** 	cam_typedef_t *pcam;
 2646              		.loc 1 884 0
 2647 0008 0C46     		mov	r4, r1
 897:/home/tienluong/workspace/atlantis_fw/platform/common/lightheader/src/light_header.c **** 	if(pheader->n_modules == 0)
 2648              		.loc 1 897 0
 2649 000a 4A4B     		ldr	r3, .L215+4
 884:/home/tienluong/workspace/atlantis_fw/platform/common/lightheader/src/light_header.c **** 	cam_typedef_t *pcam;
 2650              		.loc 1 884 0
 2651 000c 0646     		mov	r6, r0
 888:/home/tienluong/workspace/atlantis_fw/platform/common/lightheader/src/light_header.c **** 	uint8_t cam_idx = 0;
 2652              		.loc 1 888 0
 2653 000e D5F86080 		ldr	r8, [r5, #96]
 2654              	.LVL284:
 897:/home/tienluong/workspace/atlantis_fw/platform/common/lightheader/src/light_header.c **** 	if(pheader->n_modules == 0)
 2655              		.loc 1 897 0
 2656 0012 9847     		blx	r3
 2657              	.LVL285:
 2658 0014 A066     		str	r0, [r4, #104]
 898:/home/tienluong/workspace/atlantis_fw/platform/common/lightheader/src/light_header.c **** 	{
 2659              		.loc 1 898 0
 2660 0016 0028     		cmp	r0, #0
 2661 0018 00F08480 		beq	.L206
 904:/home/tienluong/workspace/atlantis_fw/platform/common/lightheader/src/light_header.c **** 			sizeof(Ltpb__CameraModule) * (pheader->n_modules));
 2662              		.loc 1 904 0
 2663 001c 00B2     		sxth	r0, r0
 2664 001e 464F     		ldr	r7, .L215+8
 2665 0020 40F28933 		movw	r3, #905
 2666 0024 00EB4001 		add	r1, r0, r0, lsl #1
 2667 0028 444A     		ldr	r2, .L215+12
 2668 002a B946     		mov	r9, r7
 2669 002c 4448     		ldr	r0, .L215+16
 2670 002e 4901     		lsls	r1, r1, #5
 2671 0030 B847     		blx	r7
 2672              	.LVL286:
 2673 0032 E066     		str	r0, [r4, #108]
 908:/home/tienluong/workspace/atlantis_fw/platform/common/lightheader/src/light_header.c **** 	{
 2674              		.loc 1 908 0
 2675 0034 0028     		cmp	r0, #0
 2676 0036 78D0     		beq	.L207
 928:/home/tienluong/workspace/atlantis_fw/platform/common/lightheader/src/light_header.c **** 	memcpy(&(pheader->image_unique_id_high), &(p_tmp[0]), sizeof(uint64_t));
 2677              		.loc 1 928 0
 2678 0038 AB68     		ldr	r3, [r5, #8]
 2679              	.LVL287:
 926:/home/tienluong/workspace/atlantis_fw/platform/common/lightheader/src/light_header.c **** 	pheader->has_image_unique_id_high = TRUE;
 2680              		.loc 1 926 0
 2681 003a 4FF0010A 		mov	r10, #1
 929:/home/tienluong/workspace/atlantis_fw/platform/common/lightheader/src/light_header.c **** 	memcpy(&(pheader->image_unique_id_low), &(p_tmp[8]), sizeof(uint64_t));
 2682              		.loc 1 929 0
 2683 003e 1946     		mov	r1, r3
 926:/home/tienluong/workspace/atlantis_fw/platform/common/lightheader/src/light_header.c **** 	pheader->has_image_unique_id_high = TRUE;
 2684              		.loc 1 926 0
 2685 0040 C4F80CA0 		str	r10, [r4, #12]
 927:/home/tienluong/workspace/atlantis_fw/platform/common/lightheader/src/light_header.c **** 	p_tmp = light_system->settings->snapshot_uuid;
 2686              		.loc 1 927 0
 2687 0044 C4F818A0 		str	r10, [r4, #24]
 929:/home/tienluong/workspace/atlantis_fw/platform/common/lightheader/src/light_header.c **** 	memcpy(&(pheader->image_unique_id_low), &(p_tmp[8]), sizeof(uint64_t));
 2688              		.loc 1 929 0
 2689 0048 51F81F2F 		ldr	r2, [r1, #31]!	@ unaligned
 2690              	.LVL288:
 2691 004c 2262     		str	r2, [r4, #32]	@ unaligned
 2692 004e 4A68     		ldr	r2, [r1, #4]	@ unaligned
 2693 0050 6262     		str	r2, [r4, #36]	@ unaligned
 930:/home/tienluong/workspace/atlantis_fw/platform/common/lightheader/src/light_header.c **** 	pheader->image_time_stamp = get_time_stamp();
 2694              		.loc 1 930 0
 2695 0052 53F8272F 		ldr	r2, [r3, #39]!	@ unaligned
 2696 0056 2261     		str	r2, [r4, #16]	@ unaligned
 2697 0058 5A68     		ldr	r2, [r3, #4]	@ unaligned
 2698 005a 6261     		str	r2, [r4, #20]	@ unaligned
 931:/home/tienluong/workspace/atlantis_fw/platform/common/lightheader/src/light_header.c **** 
 2699              		.loc 1 931 0
 2700 005c 394B     		ldr	r3, .L215+20
 2701 005e 9847     		blx	r3
 2702              	.LVL289:
 935:/home/tienluong/workspace/atlantis_fw/platform/common/lightheader/src/light_header.c **** 	if(ref_cam != NULL)
 2703              		.loc 1 935 0
 2704 0060 394B     		ldr	r3, .L215+24
 931:/home/tienluong/workspace/atlantis_fw/platform/common/lightheader/src/light_header.c **** 
 2705              		.loc 1 931 0
 2706 0062 A062     		str	r0, [r4, #40]
 935:/home/tienluong/workspace/atlantis_fw/platform/common/lightheader/src/light_header.c **** 	if(ref_cam != NULL)
 2707              		.loc 1 935 0
 2708 0064 3046     		mov	r0, r6
 2709 0066 9847     		blx	r3
 2710              	.LVL290:
 936:/home/tienluong/workspace/atlantis_fw/platform/common/lightheader/src/light_header.c **** 	{
 2711              		.loc 1 936 0
 2712 0068 0746     		mov	r7, r0
 2713 006a 28B1     		cbz	r0, .L201
 938:/home/tienluong/workspace/atlantis_fw/platform/common/lightheader/src/light_header.c **** 		pheader->image_reference_camera = get_cam_id(ref_cam);
 2714              		.loc 1 938 0
 2715 006c C4F834A0 		str	r10, [r4, #52]
 939:/home/tienluong/workspace/atlantis_fw/platform/common/lightheader/src/light_header.c **** 	}
 2716              		.loc 1 939 0
 2717 0070 364B     		ldr	r3, .L215+28
 2718 0072 9847     		blx	r3
 2719              	.LVL291:
 2720 0074 A063     		str	r0, [r4, #56]
 2721 0076 01E0     		b	.L202
 2722              	.LVL292:
 2723              	.L201:
 943:/home/tienluong/workspace/atlantis_fw/platform/common/lightheader/src/light_header.c **** 		pheader->image_reference_camera = 0;
 2724              		.loc 1 943 0
 2725 0078 6063     		str	r0, [r4, #52]
 944:/home/tienluong/workspace/atlantis_fw/platform/common/lightheader/src/light_header.c **** 	}
 2726              		.loc 1 944 0
 2727 007a A063     		str	r0, [r4, #56]
 2728              	.LVL293:
 2729              	.L202:
 948:/home/tienluong/workspace/atlantis_fw/platform/common/lightheader/src/light_header.c **** 	pheader->image_focal_length = get_img_focal_length(ref_cam);
 2730              		.loc 1 948 0
 2731 007c 4FF0010A 		mov	r10, #1
 949:/home/tienluong/workspace/atlantis_fw/platform/common/lightheader/src/light_header.c **** 
 2732              		.loc 1 949 0
 2733 0080 3846     		mov	r0, r7
 957:/home/tienluong/workspace/atlantis_fw/platform/common/lightheader/src/light_header.c **** 	pheader->device_unique_id_low = 0;
 2734              		.loc 1 957 0
 2735 0082 0027     		movs	r7, #0
 2736              	.LVL294:
 949:/home/tienluong/workspace/atlantis_fw/platform/common/lightheader/src/light_header.c **** 
 2737              		.loc 1 949 0
 2738 0084 324B     		ldr	r3, .L215+32
 948:/home/tienluong/workspace/atlantis_fw/platform/common/lightheader/src/light_header.c **** 	pheader->image_focal_length = get_img_focal_length(ref_cam);
 2739              		.loc 1 948 0
 2740 0086 C4F82CA0 		str	r10, [r4, #44]
 949:/home/tienluong/workspace/atlantis_fw/platform/common/lightheader/src/light_header.c **** 
 2741              		.loc 1 949 0
 2742 008a 9847     		blx	r3
 2743              	.LVL295:
 958:/home/tienluong/workspace/atlantis_fw/platform/common/lightheader/src/light_header.c **** 
 2744              		.loc 1 958 0
 2745 008c 0022     		movs	r2, #0
 2746 008e 0023     		movs	r3, #0
 957:/home/tienluong/workspace/atlantis_fw/platform/common/lightheader/src/light_header.c **** 	pheader->device_unique_id_low = 0;
 2747              		.loc 1 957 0
 2748 0090 E763     		str	r7, [r4, #60]
 958:/home/tienluong/workspace/atlantis_fw/platform/common/lightheader/src/light_header.c **** 
 2749              		.loc 1 958 0
 2750 0092 C4E91023 		strd	r2, [r4, #64]
 964:/home/tienluong/workspace/atlantis_fw/platform/common/lightheader/src/light_header.c **** 
 2751              		.loc 1 964 0
 2752 0096 C4E91423 		strd	r2, [r4, #80]
 2753              	.LVL296:
 963:/home/tienluong/workspace/atlantis_fw/platform/common/lightheader/src/light_header.c **** 	pheader->device_unique_id_high = 0;
 2754              		.loc 1 963 0
 2755 009a A764     		str	r7, [r4, #72]
 967:/home/tienluong/workspace/atlantis_fw/platform/common/lightheader/src/light_header.c **** 	pheader->device_asic_fw_version = get_device_asic_fw_version();
 2756              		.loc 1 967 0
 2757 009c 2D4B     		ldr	r3, .L215+36
 966:/home/tienluong/workspace/atlantis_fw/platform/common/lightheader/src/light_header.c **** 	pheader->device_fw_version = get_device_fw_version();
 2758              		.loc 1 966 0
 2759 009e A765     		str	r7, [r4, #88]
 949:/home/tienluong/workspace/atlantis_fw/platform/common/lightheader/src/light_header.c **** 
 2760              		.loc 1 949 0
 2761 00a0 2063     		str	r0, [r4, #48]
 967:/home/tienluong/workspace/atlantis_fw/platform/common/lightheader/src/light_header.c **** 	pheader->device_asic_fw_version = get_device_asic_fw_version();
 2762              		.loc 1 967 0
 2763 00a2 9847     		blx	r3
 2764              	.LVL297:
 972:/home/tienluong/workspace/atlantis_fw/platform/common/lightheader/src/light_header.c **** 			sizeof(Ltpb__DeviceTemp));
 2765              		.loc 1 972 0
 2766 00a4 2421     		movs	r1, #36
 2767 00a6 254A     		ldr	r2, .L215+12
 2768 00a8 40F2CD33 		movw	r3, #973
 968:/home/tienluong/workspace/atlantis_fw/platform/common/lightheader/src/light_header.c **** 
 2769              		.loc 1 968 0
 2770 00ac 2766     		str	r7, [r4, #96]
 967:/home/tienluong/workspace/atlantis_fw/platform/common/lightheader/src/light_header.c **** 	pheader->device_asic_fw_version = get_device_asic_fw_version();
 2771              		.loc 1 967 0
 2772 00ae E065     		str	r0, [r4, #92]
 2773              	.LVL298:
 972:/home/tienluong/workspace/atlantis_fw/platform/common/lightheader/src/light_header.c **** 			sizeof(Ltpb__DeviceTemp));
 2774              		.loc 1 972 0
 2775 00b0 2348     		ldr	r0, .L215+16
 2776 00b2 C847     		blx	r9
 2777              	.LVL299:
 974:/home/tienluong/workspace/atlantis_fw/platform/common/lightheader/src/light_header.c **** 
 2778              		.loc 1 974 0
 2779 00b4 284B     		ldr	r3, .L215+40
 972:/home/tienluong/workspace/atlantis_fw/platform/common/lightheader/src/light_header.c **** 			sizeof(Ltpb__DeviceTemp));
 2780              		.loc 1 972 0
 2781 00b6 6066     		str	r0, [r4, #100]
 974:/home/tienluong/workspace/atlantis_fw/platform/common/lightheader/src/light_header.c **** 
 2782              		.loc 1 974 0
 2783 00b8 9847     		blx	r3
 2784              	.LVL300:
 977:/home/tienluong/workspace/atlantis_fw/platform/common/lightheader/src/light_header.c **** #else
 2785              		.loc 1 977 0
 2786 00ba 284B     		ldr	r3, .L215+44
 2787 00bc D4F86490 		ldr	r9, [r4, #100]
 2788 00c0 9847     		blx	r3
 2789              	.LVL301:
 2790 00c2 274B     		ldr	r3, .L215+48
 2791 00c4 9847     		blx	r3
 2792              	.LVL302:
 981:/home/tienluong/workspace/atlantis_fw/platform/common/lightheader/src/light_header.c **** 	pheader->device_temperature->sensor_3 = 0;
 2793              		.loc 1 981 0
 2794 00c6 636E     		ldr	r3, [r4, #100]
 977:/home/tienluong/workspace/atlantis_fw/platform/common/lightheader/src/light_header.c **** #else
 2795              		.loc 1 977 0
 2796 00c8 C9F80C00 		str	r0, [r9, #12]
1009:/home/tienluong/workspace/atlantis_fw/platform/common/lightheader/src/light_header.c **** #else
 2797              		.loc 1 1009 0
 2798 00cc B5F8F400 		ldrh	r0, [r5, #244]
 981:/home/tienluong/workspace/atlantis_fw/platform/common/lightheader/src/light_header.c **** 	pheader->device_temperature->sensor_3 = 0;
 2799              		.loc 1 981 0
 2800 00d0 1F61     		str	r7, [r3, #16]
 982:/home/tienluong/workspace/atlantis_fw/platform/common/lightheader/src/light_header.c **** 	pheader->device_temperature->sensor_4 = 0;
 2801              		.loc 1 982 0
 2802 00d2 5F61     		str	r7, [r3, #20]
 983:/home/tienluong/workspace/atlantis_fw/platform/common/lightheader/src/light_header.c **** 
 2803              		.loc 1 983 0
 2804 00d4 9F61     		str	r7, [r3, #24]
1009:/home/tienluong/workspace/atlantis_fw/platform/common/lightheader/src/light_header.c **** #else
 2805              		.loc 1 1009 0
 2806 00d6 234B     		ldr	r3, .L215+52
1007:/home/tienluong/workspace/atlantis_fw/platform/common/lightheader/src/light_header.c **** #ifdef USING_TOF_FUNC
 2807              		.loc 1 1007 0
 2808 00d8 C4F88CA0 		str	r10, [r4, #140]
1009:/home/tienluong/workspace/atlantis_fw/platform/common/lightheader/src/light_header.c **** #else
 2809              		.loc 1 1009 0
 2810 00dc 9847     		blx	r3
 2811              	.LVL303:
1021:/home/tienluong/workspace/atlantis_fw/platform/common/lightheader/src/light_header.c **** 
 2812              		.loc 1 1021 0
 2813 00de 224B     		ldr	r3, .L215+56
1009:/home/tienluong/workspace/atlantis_fw/platform/common/lightheader/src/light_header.c **** #else
 2814              		.loc 1 1009 0
 2815 00e0 C4F89000 		str	r0, [r4, #144]	@ float
1021:/home/tienluong/workspace/atlantis_fw/platform/common/lightheader/src/light_header.c **** 
 2816              		.loc 1 1021 0
 2817 00e4 3046     		mov	r0, r6
 2818 00e6 9847     		blx	r3
 2819              	.LVL304:
 2820 00e8 2D6E     		ldr	r5, [r5, #96]
 2821 00ea 08EA0505 		and	r5, r8, r5
1026:/home/tienluong/workspace/atlantis_fw/platform/common/lightheader/src/light_header.c **** 	while(cam_bitmask)
 2822              		.loc 1 1026 0
 2823 00ee 3540     		ands	r5, r5, r6
1024:/home/tienluong/workspace/atlantis_fw/platform/common/lightheader/src/light_header.c **** 
 2824              		.loc 1 1024 0
 2825 00f0 3E46     		mov	r6, r7
 2826              	.LVL305:
1021:/home/tienluong/workspace/atlantis_fw/platform/common/lightheader/src/light_header.c **** 
 2827              		.loc 1 1021 0
 2828 00f2 C4F89400 		str	r0, [r4, #148]
 2829              	.LVL306:
 2830              	.L203:
 2831 00f6 F8B2     		uxtb	r0, r7
 2832              	.LVL307:
1027:/home/tienluong/workspace/atlantis_fw/platform/common/lightheader/src/light_header.c **** 	{
 2833              		.loc 1 1027 0
 2834 00f8 8DB1     		cbz	r5, .L214
1029:/home/tienluong/workspace/atlantis_fw/platform/common/lightheader/src/light_header.c **** 		{
 2835              		.loc 1 1029 0
 2836 00fa EB07     		lsls	r3, r5, #31
 2837 00fc 0CD5     		bpl	.L204
1031:/home/tienluong/workspace/atlantis_fw/platform/common/lightheader/src/light_header.c **** 			if(pcam != NULL)
 2838              		.loc 1 1031 0
 2839 00fe 1B4B     		ldr	r3, .L215+60
 2840 0100 9847     		blx	r3
 2841              	.LVL308:
1032:/home/tienluong/workspace/atlantis_fw/platform/common/lightheader/src/light_header.c **** 			{
 2842              		.loc 1 1032 0
 2843 0102 48B1     		cbz	r0, .L204
1035:/home/tienluong/workspace/atlantis_fw/platform/common/lightheader/src/light_header.c **** 
 2844              		.loc 1 1035 0
 2845 0104 1A4B     		ldr	r3, .L215+64
 2846 0106 0FFA86F9 		sxth	r9, r6
 2847 010a D4F86C80 		ldr	r8, [r4, #108]
 2848 010e 9847     		blx	r3
 2849              	.LVL309:
1047:/home/tienluong/workspace/atlantis_fw/platform/common/lightheader/src/light_header.c **** 			}
 2850              		.loc 1 1047 0
 2851 0110 0136     		adds	r6, r6, #1
 2852              	.LVL310:
 2853 0112 F6B2     		uxtb	r6, r6
 2854              	.LVL311:
1035:/home/tienluong/workspace/atlantis_fw/platform/common/lightheader/src/light_header.c **** 
 2855              		.loc 1 1035 0
 2856 0114 48F82900 		str	r0, [r8, r9, lsl #2]
 2857              	.L204:
1050:/home/tienluong/workspace/atlantis_fw/platform/common/lightheader/src/light_header.c **** 		cam_idx++;
 2858              		.loc 1 1050 0
 2859 0118 6D08     		lsrs	r5, r5, #1
 2860              	.LVL312:
 2861 011a 0137     		adds	r7, r7, #1
 2862              	.LVL313:
 2863 011c EBE7     		b	.L203
 2864              	.LVL314:
 2865              	.L214:
1054:/home/tienluong/workspace/atlantis_fw/platform/common/lightheader/src/light_header.c **** }
 2866              		.loc 1 1054 0
 2867 011e 2846     		mov	r0, r5
 2868              	.LVL315:
 2869 0120 BDE8F087 		pop	{r4, r5, r6, r7, r8, r9, r10, pc}
 2870              	.LVL316:
 2871              	.L206:
 900:/home/tienluong/workspace/atlantis_fw/platform/common/lightheader/src/light_header.c **** 	}
 2872              		.loc 1 900 0
 2873 0124 0120     		movs	r0, #1
 2874 0126 BDE8F087 		pop	{r4, r5, r6, r7, r8, r9, r10, pc}
 2875              	.LVL317:
 2876              	.L207:
 910:/home/tienluong/workspace/atlantis_fw/platform/common/lightheader/src/light_header.c **** 	}
 2877              		.loc 1 910 0
 2878 012a 0220     		movs	r0, #2
1055:/home/tienluong/workspace/atlantis_fw/platform/common/lightheader/src/light_header.c **** 
 2879              		.loc 1 1055 0
 2880 012c BDE8F087 		pop	{r4, r5, r6, r7, r8, r9, r10, pc}
 2881              	.LVL318:
 2882              	.L216:
 2883              		.align	2
 2884              	.L215:
 2885 0130 00000000 		.word	light_system
 2886 0134 00000000 		.word	get_cam_total_number
 2887 0138 00000000 		.word	gen_pvPortMalloc1
 2888 013c 00000000 		.word	.LANCHOR22
 2889 0140 00000000 		.word	ddr_heap_attribute
 2890 0144 00000000 		.word	get_time_stamp
 2891 0148 00000000 		.word	get_cam_thumbnail
 2892 014c 00000000 		.word	get_cam_id
 2893 0150 00000000 		.word	get_img_focal_length
 2894 0154 00000000 		.word	get_device_fw_version
 2895 0158 00000000 		.word	ltpb__device_temp__init
 2896 015c 00000000 		.word	temp_sensor_read
 2897 0160 00000000 		.word	__aeabi_f2iz
 2898 0164 00000000 		.word	__aeabi_ui2f
 2899 0168 00000000 		.word	get_hw_info
 2900 016c 00000000 		.word	idx_to_object
 2901 0170 00000000 		.word	get_cam_module
 2902              		.cfi_endproc
 2903              	.LFE33:
 2905              		.section	.text.free_mem_light_header,"ax",%progbits
 2906              		.align	1
 2907              		.global	free_mem_light_header
 2908              		.thumb
 2909              		.thumb_func
 2911              	free_mem_light_header:
 2912              	.LFB36:
1063:/home/tienluong/workspace/atlantis_fw/platform/common/lightheader/src/light_header.c **** }
1064:/home/tienluong/workspace/atlantis_fw/platform/common/lightheader/src/light_header.c **** 
1065:/home/tienluong/workspace/atlantis_fw/platform/common/lightheader/src/light_header.c **** LIGHT_HEADER_FUNC void free_mem_light_header(Ltpb__LightHeader *pheader)
1066:/home/tienluong/workspace/atlantis_fw/platform/common/lightheader/src/light_header.c **** {
 2913              		.loc 1 1066 0
 2914              		.cfi_startproc
 2915              		@ args = 0, pretend = 0, frame = 16
 2916              		@ frame_needed = 0, uses_anonymous_args = 0
 2917              	.LVL319:
 2918 0000 1FB5     		push	{r0, r1, r2, r3, r4, lr}
 2919              	.LCFI33:
 2920              		.cfi_def_cfa_offset 24
 2921              		.cfi_offset 4, -8
 2922              		.cfi_offset 14, -4
1067:/home/tienluong/workspace/atlantis_fw/platform/common/lightheader/src/light_header.c ****     ProtobufCAllocator light_header_pbuf_alloc =
 2923              		.loc 1 1067 0
 2924 0002 064A     		ldr	r2, .L218
 2925 0004 01AB     		add	r3, sp, #4
1066:/home/tienluong/workspace/atlantis_fw/platform/common/lightheader/src/light_header.c ****     ProtobufCAllocator light_header_pbuf_alloc =
 2926              		.loc 1 1066 0
 2927 0006 0446     		mov	r4, r0
 2928              		.loc 1 1067 0
 2929 0008 07CA     		ldmia	r2, {r0, r1, r2}
 2930              	.LVL320:
 2931 000a 83E80700 		stmia	r3, {r0, r1, r2}
1068:/home/tienluong/workspace/atlantis_fw/platform/common/lightheader/src/light_header.c ****     {
1069:/home/tienluong/workspace/atlantis_fw/platform/common/lightheader/src/light_header.c ****         alloc_pbuf_lh, free_pbuf_lh, NULL
1070:/home/tienluong/workspace/atlantis_fw/platform/common/lightheader/src/light_header.c ****     };
1071:/home/tienluong/workspace/atlantis_fw/platform/common/lightheader/src/light_header.c ****     ltpb__light_header__free_unpacked(pheader, &light_header_pbuf_alloc);
 2932              		.loc 1 1071 0
 2933 000e 1946     		mov	r1, r3
 2934 0010 2046     		mov	r0, r4
 2935 0012 034B     		ldr	r3, .L218+4
 2936 0014 9847     		blx	r3
 2937              	.LVL321:
1072:/home/tienluong/workspace/atlantis_fw/platform/common/lightheader/src/light_header.c **** }
 2938              		.loc 1 1072 0
 2939 0016 04B0     		add	sp, sp, #16
 2940              	.LCFI34:
 2941              		.cfi_def_cfa_offset 8
 2942              		@ sp needed
 2943 0018 10BD     		pop	{r4, pc}
 2944              	.LVL322:
 2945              	.L219:
 2946 001a 00BF     		.align	2
 2947              	.L218:
 2948 001c 00000000 		.word	.LANCHOR23
 2949 0020 00000000 		.word	ltpb__light_header__free_unpacked
 2950              		.cfi_endproc
 2951              	.LFE36:
 2953              		.section	.rodata
 2954              		.align	2
 2955              		.set	.LANCHOR23,. + 0
 2956              	.LC0:
 2957 0000 00000000 		.word	alloc_pbuf_lh
 2958 0004 00000000 		.word	free_pbuf_lh
 2959 0008 00000000 		.word	0
 2960              		.section	.rodata.__FUNCTION__.10758,"a",%progbits
 2961              		.set	.LANCHOR14,. + 0
 2964              	__FUNCTION__.10758:
 2965 0000 6765745F 		.ascii	"get_sensor_data\000"
 2965      73656E73 
 2965      6F725F64 
 2965      61746100 
 2966              		.section	.rodata.__FUNCTION__.10820,"a",%progbits
 2967              		.set	.LANCHOR22,. + 0
 2970              	__FUNCTION__.10820:
 2971 0000 6765745F 		.ascii	"get_light_header\000"
 2971      6C696768 
 2971      745F6865 
 2971      61646572 
 2971      00
 2972              		.section	.rodata.__FUNCTION__.10705,"a",%progbits
 2973              		.set	.LANCHOR8,. + 0
 2976              	__FUNCTION__.10705:
 2977 0000 6765745F 		.ascii	"get_time_stamp\000"
 2977      74696D65 
 2977      5F737461 
 2977      6D7000
 2978              		.section	.rodata.__FUNCTION__.10768,"a",%progbits
 2979              		.set	.LANCHOR16,. + 0
 2982              	__FUNCTION__.10768:
 2983 0000 6765745F 		.ascii	"get_tof_calib\000"
 2983      746F665F 
 2983      63616C69 
 2983      6200
 2984              		.section	.rodata.__FUNCTION__.10781,"a",%progbits
 2985              		.set	.LANCHOR18,. + 0
 2988              	__FUNCTION__.10781:
 2989 0000 6765745F 		.ascii	"get_cam_hw_info\000"
 2989      63616D5F 
 2989      68775F69 
 2989      6E666F00 
 2990              		.section	.rodata.__FUNCTION__.10604,"a",%progbits
 2991              		.set	.LANCHOR2,. + 0
 2994              	__FUNCTION__.10604:
 2995 0000 6765745F 		.ascii	"get_default_point2i\000"
 2995      64656661 
 2995      756C745F 
 2995      706F696E 
 2995      74326900 
 2996              		.section	.rodata.__FUNCTION__.10610,"a",%progbits
 2997              		.set	.LANCHOR3,. + 0
 3000              	__FUNCTION__.10610:
 3001 0000 6765745F 		.ascii	"get_default_point2f\000"
 3001      64656661 
 3001      756C745F 
 3001      706F696E 
 3001      74326600 
 3002              		.section	.rodata.CSWTCH.58,"a",%progbits
 3003              		.set	.LANCHOR5,. + 0
 3006              	CSWTCH.58:
 3007 0000 01       		.byte	1
 3008 0001 02       		.byte	2
 3009 0002 03       		.byte	3
 3010 0003 04       		.byte	4
 3011 0004 00       		.byte	0
 3012 0005 00       		.byte	0
 3013 0006 00       		.byte	0
 3014 0007 00       		.byte	0
 3015 0008 00       		.byte	0
 3016 0009 00       		.byte	0
 3017 000a 00       		.byte	0
 3018 000b 00       		.byte	0
 3019 000c 00       		.byte	0
 3020 000d 00       		.byte	0
 3021 000e 00       		.byte	0
 3022 000f 05       		.byte	5
 3023 0010 06       		.byte	6
 3024 0011 07       		.byte	7
 3025 0012 08       		.byte	8
 3026 0013 09       		.byte	9
 3027 0014 00       		.byte	0
 3028 0015 00       		.byte	0
 3029 0016 00       		.byte	0
 3030 0017 00       		.byte	0
 3031 0018 00       		.byte	0
 3032 0019 00       		.byte	0
 3033 001a 00       		.byte	0
 3034 001b 00       		.byte	0
 3035 001c 00       		.byte	0
 3036 001d 00       		.byte	0
 3037 001e 00       		.byte	0
 3038 001f 0A       		.byte	10
 3039 0020 0B       		.byte	11
 3040 0021 0C       		.byte	12
 3041 0022 0D       		.byte	13
 3042 0023 0E       		.byte	14
 3043 0024 0F       		.byte	15
 3044              		.section	.rodata.__FUNCTION__.10829,"a",%progbits
 3045              		.set	.LANCHOR0,. + 0
 3048              	__FUNCTION__.10829:
 3049 0000 616C6C6F 		.ascii	"alloc_pbuf_lh\000"
 3049      635F7062 
 3049      75665F6C 
 3049      6800
 3050              		.section	.rodata.__FUNCTION__.10700,"a",%progbits
 3051              		.set	.LANCHOR7,. + 0
 3054              	__FUNCTION__.10700:
 3055 0000 6765745F 		.ascii	"get_device_fw_version\000"
 3055      64657669 
 3055      63655F66 
 3055      775F7665 
 3055      7273696F 
 3056              		.section	.rodata.__FUNCTION__.10721,"a",%progbits
 3057              		.set	.LANCHOR9,. + 0
 3060              	__FUNCTION__.10721:
 3061 0000 6765745F 		.ascii	"get_vst_noise_vst_model\000"
 3061      7673745F 
 3061      6E6F6973 
 3061      655F7673 
 3061      745F6D6F 
 3062              		.section	.rodata.__FUNCTION__.10726,"a",%progbits
 3063              		.set	.LANCHOR10,. + 0
 3066              	__FUNCTION__.10726:
 3067 0000 6765745F 		.ascii	"get_sensor_characterization_vst_noise_model\000"
 3067      73656E73 
 3067      6F725F63 
 3067      68617261 
 3067      63746572 
 3068              		.section	.rodata.__FUNCTION__.10678,"a",%progbits
 3069              		.set	.LANCHOR6,. + 0
 3072              	__FUNCTION__.10678:
 3073 0000 6765745F 		.ascii	"get_auto_focus_info\000"
 3073      6175746F 
 3073      5F666F63 
 3073      75735F69 
 3073      6E666F00 
 3074              		.section	.rodata.__FUNCTION__.10810,"a",%progbits
 3075              		.set	.LANCHOR21,. + 0
 3078              	__FUNCTION__.10810:
 3079 0000 616C6C6F 		.ascii	"alloc_init_light_header\000"
 3079      635F696E 
 3079      69745F6C 
 3079      69676874 
 3079      5F686561 
 3080              		.section	.rodata.__FUNCTION__.10773,"a",%progbits
 3081              		.set	.LANCHOR17,. + 0
 3084              	__FUNCTION__.10773:
 3085 0000 6765745F 		.ascii	"get_factory_device_cablib\000"
 3085      66616374 
 3085      6F72795F 
 3085      64657669 
 3085      63655F63 
 3086              		.section	.rodata.__FUNCTION__.10736,"a",%progbits
 3087              		.set	.LANCHOR12,. + 0
 3090              	__FUNCTION__.10736:
 3091 0000 6765745F 		.ascii	"get_sensor_bayer_red_override\000"
 3091      73656E73 
 3091      6F725F62 
 3091      61796572 
 3091      5F726564 
 3092              		.section	.rodata.__FUNCTION__.10806,"a",%progbits
 3093              		.set	.LANCHOR20,. + 0
 3096              	__FUNCTION__.10806:
 3097 0000 6765745F 		.ascii	"get_module_calibration\000"
 3097      6D6F6475 
 3097      6C655F63 
 3097      616C6962 
 3097      72617469 
 3098              		.section	.rodata.__FUNCTION__.10834,"a",%progbits
 3099              		.set	.LANCHOR1,. + 0
 3102              	__FUNCTION__.10834:
 3103 0000 66726565 		.ascii	"free_pbuf_lh\000"
 3103      5F706275 
 3103      665F6C68 
 3103      00
 3104              		.section	.rodata.__FUNCTION__.10786,"a",%progbits
 3105              		.set	.LANCHOR19,. + 0
 3108              	__FUNCTION__.10786:
 3109 0000 6765745F 		.ascii	"get_hw_info\000"
 3109      68775F69 
 3109      6E666F00 
 3110              		.section	.rodata.__FUNCTION__.10641,"a",%progbits
 3111              		.set	.LANCHOR4,. + 0
 3114              	__FUNCTION__.10641:
 3115 0000 6765745F 		.ascii	"get_sensor_data_surface\000"
 3115      73656E73 
 3115      6F725F64 
 3115      6174615F 
 3115      73757266 
 3116              		.section	.rodata.__FUNCTION__.10763,"a",%progbits
 3117              		.set	.LANCHOR15,. + 0
 3120              	__FUNCTION__.10763:
 3121 0000 6765745F 		.ascii	"get_flash_calib\000"
 3121      666C6173 
 3121      685F6361 
 3121      6C696200 
 3122              		.section	.rodata.__FUNCTION__.10731,"a",%progbits
 3123              		.set	.LANCHOR11,. + 0
 3126              	__FUNCTION__.10731:
 3127 0000 6765745F 		.ascii	"get_sensor_characterization_data\000"
 3127      73656E73 
 3127      6F725F63 
 3127      68617261 
 3127      63746572 
 3128              		.section	.rodata.__FUNCTION__.10749,"a",%progbits
 3129              		.set	.LANCHOR13,. + 0
 3132              	__FUNCTION__.10749:
 3133 0000 6765745F 		.ascii	"get_cam_module\000"
 3133      63616D5F 
 3133      6D6F6475 
 3133      6C6500
 3134              		.text
 3135              	.Letext0:
 3136              		.file 2 "/opt/toolchains/gcc-arm-none-eabi-4_9-2015q1/arm-none-eabi/include/machine/_default_types
 3137              		.file 3 "/opt/toolchains/gcc-arm-none-eabi-4_9-2015q1/lib/gcc/arm-none-eabi/4.9.3/include/stddef.h
 3138              		.file 4 "/opt/toolchains/gcc-arm-none-eabi-4_9-2015q1/arm-none-eabi/include/sys/types.h"
 3139              		.file 5 "/opt/toolchains/gcc-arm-none-eabi-4_9-2015q1/arm-none-eabi/include/stdint.h"
 3140              		.file 6 "/home/tienluong/workspace/atlantis_fw/platform/os/Source/include/queue.h"
 3141              		.file 7 "/home/tienluong/workspace/atlantis_fw/platform/os/Source/include/semphr.h"
 3142              		.file 8 "/home/tienluong/workspace/atlantis_fw/platform/os/Source/include/event_groups.h"
 3143              		.file 9 "/home/tienluong/workspace/atlantis_fw/platform/common/lightheader/include/protobuf-c/prot
 3144              		.file 10 "/home/tienluong/workspace/atlantis_fw/platform/common/lightheader/include/camera_id.pb-c
 3145              		.file 11 "/home/tienluong/workspace/atlantis_fw/platform/common/lightheader/include/point2i.pb-c.h
 3146              		.file 12 "/home/tienluong/workspace/atlantis_fw/platform/common/lightheader/include/point2f.pb-c.h
 3147              		.file 13 "/home/tienluong/workspace/atlantis_fw/platform/common/lightheader/include/camera_module.
 3148              		.file 14 "/home/tienluong/workspace/atlantis_fw/platform/common/lightheader/include/time_stamp.pb-
 3149              		.file 15 "/home/tienluong/workspace/atlantis_fw/platform/common/lightheader/include/matrix3x3f.pb-
 3150              		.file 16 "/home/tienluong/workspace/atlantis_fw/platform/common/lightheader/include/point3f.pb-c.h
 3151              		.file 17 "/home/tienluong/workspace/atlantis_fw/platform/common/lightheader/include/range2f.pb-c.h
 3152              		.file 18 "/home/tienluong/workspace/atlantis_fw/platform/common/lightheader/include/mirror_system.
 3153              		.file 19 "/home/tienluong/workspace/atlantis_fw/platform/common/lightheader/include/distortion.pb-
 3154              		.file 20 "/home/tienluong/workspace/atlantis_fw/platform/common/lightheader/include/device_temp.pb
 3155              		.file 21 "/home/tienluong/workspace/atlantis_fw/platform/common/lightheader/include/geometric_cali
 3156              		.file 22 "/home/tienluong/workspace/atlantis_fw/platform/common/lightheader/include/color_calibrat
 3157              		.file 23 "/home/tienluong/workspace/atlantis_fw/platform/common/lightheader/include/sensor_charact
 3158              		.file 24 "/home/tienluong/workspace/atlantis_fw/platform/common/lightheader/include/matrix4x4f.pb-
 3159              		.file 25 "/home/tienluong/workspace/atlantis_fw/platform/common/lightheader/include/vignetting_cha
 3160              		.file 26 "/home/tienluong/workspace/atlantis_fw/platform/common/lightheader/include/hot_pixel_map.
 3161              		.file 27 "/home/tienluong/workspace/atlantis_fw/platform/common/lightheader/include/dead_pixel_map
 3162              		.file 28 "/home/tienluong/workspace/atlantis_fw/platform/common/lightheader/include/tof_calibratio
 3163              		.file 29 "/home/tienluong/workspace/atlantis_fw/platform/common/lightheader/include/flash_calibrat
 3164              		.file 30 "/home/tienluong/workspace/atlantis_fw/platform/common/lightheader/include/sensor_type.pb
 3165              		.file 31 "/home/tienluong/workspace/atlantis_fw/platform/common/lightheader/include/hw_info.pb-c.h
 3166              		.file 32 "/home/tienluong/workspace/atlantis_fw/platform/common/lightheader/include/view_preferenc
 3167              		.file 33 "/home/tienluong/workspace/atlantis_fw/platform/common/lightheader/include/proximity_sens
 3168              		.file 34 "/home/tienluong/workspace/atlantis_fw/platform/common/lightheader/include/imu_data.pb-c.
 3169              		.file 35 "/home/tienluong/workspace/atlantis_fw/platform/common/lightheader/include/lightheader.pb
 3170              		.file 36 "/home/tienluong/workspace/atlantis_fw/platform/common/lightheader/include/light_header.h
 3171              		.file 37 "/home/tienluong/workspace/atlantis_fw/platform/asic/hal/include/hal_syncio.h"
 3172              		.file 38 "/home/tienluong/workspace/atlantis_fw/platform/asic/hal/include/hal_i2c.h"
 3173              		.file 39 "/home/tienluong/workspace/atlantis_fw/platform/common/lcc_system.h"
 3174              		.file 40 "/home/tienluong/workspace/atlantis_fw/platform/driver/include/ar1335.h"
 3175              		.file 41 "/home/tienluong/workspace/atlantis_fw/AsicFwS2/include/img_sensor.h"
 3176              		.file 42 "/home/tienluong/workspace/atlantis_fw/platform/driver/include/tof.h"
 3177              		.file 43 "/home/tienluong/workspace/atlantis_fw/platform/driver/include/gyro.h"
 3178              		.file 44 "/home/tienluong/workspace/atlantis_fw/AsicFwS2/include/lcc_cmd.h"
 3179              		.file 45 "/home/tienluong/workspace/atlantis_fw/AsicFwS2/include/optical.h"
 3180              		.file 46 "/home/tienluong/workspace/atlantis_fw/AsicFwS2/include/pwr_ctrl.h"
 3181              		.file 47 "/home/tienluong/workspace/atlantis_fw/platform/driver/include/i2cm.h"
 3182              		.file 48 "/home/tienluong/workspace/atlantis_fw/platform/driver/include/eeprom.h"
 3183              		.file 49 "/home/tienluong/workspace/atlantis_fw/AsicFwS2/include/task_af_ctrl.h"
 3184              		.file 50 "/home/tienluong/workspace/atlantis_fw/AsicFwS2/include/light_system.h"
 3185              		.file 51 "/home/tienluong/workspace/atlantis_fw/AsicFwS2/include/task_cam_ctrl.h"
 3186              		.file 52 "/home/tienluong/workspace/atlantis_fw/platform/driver/include/rtc.h"
 3187              		.file 53 "/home/tienluong/workspace/atlantis_fw/AsicFwS2/include/gen_heap.h"
 3188              		.file 54 "/home/tienluong/workspace/atlantis_fw/AsicFwS2/include/ddr_heap.h"
DEFINED SYMBOLS
                            *ABS*:00000000 light_header.c
     /tmp/ccmCuYwI.s:19     .text.alloc_pbuf_lh:00000000 $t
     /tmp/ccmCuYwI.s:23     .text.alloc_pbuf_lh:00000000 alloc_pbuf_lh
     /tmp/ccmCuYwI.s:49     .text.alloc_pbuf_lh:00000010 $d
     /tmp/ccmCuYwI.s:56     .text.free_pbuf_lh:00000000 $t
     /tmp/ccmCuYwI.s:60     .text.free_pbuf_lh:00000000 free_pbuf_lh
     /tmp/ccmCuYwI.s:84     .text.free_pbuf_lh:00000010 $d
     /tmp/ccmCuYwI.s:91     .text.get_default_point2i:00000000 $t
     /tmp/ccmCuYwI.s:96     .text.get_default_point2i:00000000 get_default_point2i
     /tmp/ccmCuYwI.s:144    .text.get_default_point2i:00000020 $d
     /tmp/ccmCuYwI.s:152    .text.get_default_point2f:00000000 $t
     /tmp/ccmCuYwI.s:157    .text.get_default_point2f:00000000 get_default_point2f
     /tmp/ccmCuYwI.s:205    .text.get_default_point2f:00000020 $d
     /tmp/ccmCuYwI.s:217    .text.cam_read_temperature:00000000 $t
     /tmp/ccmCuYwI.s:222    .text.cam_read_temperature:00000000 cam_read_temperature
     /tmp/ccmCuYwI.s:348    .text.cam_read_temperature:00000098 $d
     /tmp/ccmCuYwI.s:361    .text.get_sensitivity:00000000 $t
     /tmp/ccmCuYwI.s:366    .text.get_sensitivity:00000000 get_sensitivity
     /tmp/ccmCuYwI.s:432    .text.get_sensitivity:00000044 $d
     /tmp/ccmCuYwI.s:442    .text.get_exposure_ustime:00000000 $t
     /tmp/ccmCuYwI.s:447    .text.get_exposure_ustime:00000000 get_exposure_ustime
     /tmp/ccmCuYwI.s:548    .text.get_exposure_ustime:00000064 $d
     /tmp/ccmCuYwI.s:561    .text.get_cam_is_enabled:00000000 $t
     /tmp/ccmCuYwI.s:566    .text.get_cam_is_enabled:00000000 get_cam_is_enabled
     /tmp/ccmCuYwI.s:586    .text.get_sensor_data_surface:00000000 $t
     /tmp/ccmCuYwI.s:591    .text.get_sensor_data_surface:00000000 get_sensor_data_surface
     /tmp/ccmCuYwI.s:710    .text.get_sensor_data_surface:00000080 $d
     /tmp/ccmCuYwI.s:722    .text.get_cam_total_number:00000000 $t
     /tmp/ccmCuYwI.s:727    .text.get_cam_total_number:00000000 get_cam_total_number
     /tmp/ccmCuYwI.s:789    .text.get_cam_total_number:0000002c $d
     /tmp/ccmCuYwI.s:795    .text.get_cam_id:00000000 $t
     /tmp/ccmCuYwI.s:800    .text.get_cam_id:00000000 get_cam_id
     /tmp/ccmCuYwI.s:830    .text.get_cam_id:00000018 $d
     /tmp/ccmCuYwI.s:836    .text.get_auto_focus_info:00000000 $t
     /tmp/ccmCuYwI.s:841    .text.get_auto_focus_info:00000000 get_auto_focus_info
     /tmp/ccmCuYwI.s:910    .text.get_auto_focus_info:00000040 $d
     /tmp/ccmCuYwI.s:923    .text.get_img_focal_length:00000000 $t
     /tmp/ccmCuYwI.s:928    .text.get_img_focal_length:00000000 get_img_focal_length
     /tmp/ccmCuYwI.s:970    .text.get_img_focal_length:00000024 $d
     /tmp/ccmCuYwI.s:978    .text.get_device_unique_id:00000000 $t
     /tmp/ccmCuYwI.s:983    .text.get_device_unique_id:00000000 get_device_unique_id
     /tmp/ccmCuYwI.s:1001   .text.get_device_model_name:00000000 $t
     /tmp/ccmCuYwI.s:1006   .text.get_device_model_name:00000000 get_device_model_name
     /tmp/ccmCuYwI.s:1021   .text.get_device_asic_fw_version:00000000 $t
     /tmp/ccmCuYwI.s:1026   .text.get_device_asic_fw_version:00000000 get_device_asic_fw_version
     /tmp/ccmCuYwI.s:1041   .text.get_device_fw_version:00000000 $t
     /tmp/ccmCuYwI.s:1046   .text.get_device_fw_version:00000000 get_device_fw_version
     /tmp/ccmCuYwI.s:1079   .text.get_device_fw_version:00000020 $d
     /tmp/ccmCuYwI.s:1088   .text.get_time_stamp:00000000 $t
     /tmp/ccmCuYwI.s:1093   .text.get_time_stamp:00000000 get_time_stamp
     /tmp/ccmCuYwI.s:1203   .text.get_time_stamp:00000074 $d
     /tmp/ccmCuYwI.s:1215   .text.get_iso:00000000 $t
     /tmp/ccmCuYwI.s:1220   .text.get_iso:00000000 get_iso
     /tmp/ccmCuYwI.s:1319   .text.get_iso:0000006c $d
     /tmp/ccmCuYwI.s:1327   .text.get_vst_noise_vst_model:00000000 $t
     /tmp/ccmCuYwI.s:1332   .text.get_vst_noise_vst_model:00000000 get_vst_noise_vst_model
     /tmp/ccmCuYwI.s:1376   .text.get_vst_noise_vst_model:00000020 $d
     /tmp/ccmCuYwI.s:1384   .text.get_sensor_characterization_vst_noise_model:00000000 $t
     /tmp/ccmCuYwI.s:1389   .text.get_sensor_characterization_vst_noise_model:00000000 get_sensor_characterization_vst_noise_model
     /tmp/ccmCuYwI.s:1472   .text.get_sensor_characterization_vst_noise_model:00000048 $d
     /tmp/ccmCuYwI.s:1481   .text.get_sensor_characterization_data:00000000 $t
     /tmp/ccmCuYwI.s:1486   .text.get_sensor_characterization_data:00000000 get_sensor_characterization_data
     /tmp/ccmCuYwI.s:1539   .text.get_sensor_characterization_data:00000030 $d
     /tmp/ccmCuYwI.s:1549   .text.get_sensor_bayer_red_override:00000000 $t
     /tmp/ccmCuYwI.s:1554   .text.get_sensor_bayer_red_override:00000000 get_sensor_bayer_red_override
     /tmp/ccmCuYwI.s:1607   .text.get_sensor_bayer_red_override:00000036 $d
     /tmp/ccmCuYwI.s:1611   .text.get_sensor_bayer_red_override:0000003a $t
     /tmp/ccmCuYwI.s:1645   .text.get_sensor_bayer_red_override:00000058 $d
     /tmp/ccmCuYwI.s:1654   .text.get_cam_module:00000000 $t
     /tmp/ccmCuYwI.s:1659   .text.get_cam_module:00000000 get_cam_module
     /tmp/ccmCuYwI.s:1848   .text.get_cam_module:000000dc $d
     /tmp/ccmCuYwI.s:1866   .text.get_sensor_data:00000000 $t
     /tmp/ccmCuYwI.s:1871   .text.get_sensor_data:00000000 get_sensor_data
     /tmp/ccmCuYwI.s:1937   .text.get_sensor_data:0000003c $d
     /tmp/ccmCuYwI.s:1947   .text.get_flash_calib:00000000 $t
     /tmp/ccmCuYwI.s:1952   .text.get_flash_calib:00000000 get_flash_calib
     /tmp/ccmCuYwI.s:2001   .text.get_flash_calib:00000028 $d
     /tmp/ccmCuYwI.s:2009   .text.get_tof_calib:00000000 $t
     /tmp/ccmCuYwI.s:2014   .text.get_tof_calib:00000000 get_tof_calib
     /tmp/ccmCuYwI.s:2059   .text.get_tof_calib:00000024 $d
     /tmp/ccmCuYwI.s:2067   .text.get_factory_device_cablib:00000000 $t
     /tmp/ccmCuYwI.s:2072   .text.get_factory_device_cablib:00000000 get_factory_device_cablib
     /tmp/ccmCuYwI.s:2125   .text.get_factory_device_cablib:0000002c $d
     /tmp/ccmCuYwI.s:2136   .text.check_mirror_present:00000000 $t
     /tmp/ccmCuYwI.s:2141   .text.check_mirror_present:00000000 check_mirror_present
     /tmp/ccmCuYwI.s:2176   .text.get_cam_hw_info:00000000 $t
     /tmp/ccmCuYwI.s:2181   .text.get_cam_hw_info:00000000 get_cam_hw_info
     /tmp/ccmCuYwI.s:2268   .text.get_cam_hw_info:00000054 $d
     /tmp/ccmCuYwI.s:2278   .text.get_hw_info:00000000 $t
     /tmp/ccmCuYwI.s:2283   .text.get_hw_info:00000000 get_hw_info
     /tmp/ccmCuYwI.s:2421   .text.get_hw_info:00000090 $d
     /tmp/ccmCuYwI.s:2434   .text.get_n_module_calib:00000000 $t
     /tmp/ccmCuYwI.s:2439   .text.get_n_module_calib:00000000 get_n_module_calib
     /tmp/ccmCuYwI.s:2507   .text.get_n_module_calib:00000038 $d
     /tmp/ccmCuYwI.s:2513   .text.get_module_calibration:00000000 $t
     /tmp/ccmCuYwI.s:2518   .text.get_module_calibration:00000000 get_module_calibration
     /tmp/ccmCuYwI.s:2554   .text.get_module_calibration:0000001c $d
     /tmp/ccmCuYwI.s:2562   .text.alloc_init_light_header:00000000 $t
     /tmp/ccmCuYwI.s:2567   .text.alloc_init_light_header:00000000 alloc_init_light_header
     /tmp/ccmCuYwI.s:2609   .text.alloc_init_light_header:00000028 $d
     /tmp/ccmCuYwI.s:2618   .text.get_light_header:00000000 $t
     /tmp/ccmCuYwI.s:2623   .text.get_light_header:00000000 get_light_header
     /tmp/ccmCuYwI.s:2885   .text.get_light_header:00000130 $d
     /tmp/ccmCuYwI.s:2906   .text.free_mem_light_header:00000000 $t
     /tmp/ccmCuYwI.s:2911   .text.free_mem_light_header:00000000 free_mem_light_header
     /tmp/ccmCuYwI.s:2948   .text.free_mem_light_header:0000001c $d
     /tmp/ccmCuYwI.s:2954   .rodata:00000000 $d
     /tmp/ccmCuYwI.s:2964   .rodata.__FUNCTION__.10758:00000000 __FUNCTION__.10758
     /tmp/ccmCuYwI.s:2970   .rodata.__FUNCTION__.10820:00000000 __FUNCTION__.10820
     /tmp/ccmCuYwI.s:2976   .rodata.__FUNCTION__.10705:00000000 __FUNCTION__.10705
     /tmp/ccmCuYwI.s:2982   .rodata.__FUNCTION__.10768:00000000 __FUNCTION__.10768
     /tmp/ccmCuYwI.s:2988   .rodata.__FUNCTION__.10781:00000000 __FUNCTION__.10781
     /tmp/ccmCuYwI.s:2994   .rodata.__FUNCTION__.10604:00000000 __FUNCTION__.10604
     /tmp/ccmCuYwI.s:3000   .rodata.__FUNCTION__.10610:00000000 __FUNCTION__.10610
     /tmp/ccmCuYwI.s:3006   .rodata.CSWTCH.58:00000000 CSWTCH.58
     /tmp/ccmCuYwI.s:3048   .rodata.__FUNCTION__.10829:00000000 __FUNCTION__.10829
     /tmp/ccmCuYwI.s:3054   .rodata.__FUNCTION__.10700:00000000 __FUNCTION__.10700
     /tmp/ccmCuYwI.s:3060   .rodata.__FUNCTION__.10721:00000000 __FUNCTION__.10721
     /tmp/ccmCuYwI.s:3066   .rodata.__FUNCTION__.10726:00000000 __FUNCTION__.10726
     /tmp/ccmCuYwI.s:3072   .rodata.__FUNCTION__.10678:00000000 __FUNCTION__.10678
     /tmp/ccmCuYwI.s:3078   .rodata.__FUNCTION__.10810:00000000 __FUNCTION__.10810
     /tmp/ccmCuYwI.s:3084   .rodata.__FUNCTION__.10773:00000000 __FUNCTION__.10773
     /tmp/ccmCuYwI.s:3090   .rodata.__FUNCTION__.10736:00000000 __FUNCTION__.10736
     /tmp/ccmCuYwI.s:3096   .rodata.__FUNCTION__.10806:00000000 __FUNCTION__.10806
     /tmp/ccmCuYwI.s:3102   .rodata.__FUNCTION__.10834:00000000 __FUNCTION__.10834
     /tmp/ccmCuYwI.s:3108   .rodata.__FUNCTION__.10786:00000000 __FUNCTION__.10786
     /tmp/ccmCuYwI.s:3114   .rodata.__FUNCTION__.10641:00000000 __FUNCTION__.10641
     /tmp/ccmCuYwI.s:3120   .rodata.__FUNCTION__.10763:00000000 __FUNCTION__.10763
     /tmp/ccmCuYwI.s:3126   .rodata.__FUNCTION__.10731:00000000 __FUNCTION__.10731
     /tmp/ccmCuYwI.s:3132   .rodata.__FUNCTION__.10749:00000000 __FUNCTION__.10749
                     .debug_frame:00000010 $d
     /tmp/ccmCuYwI.s:360    .text.cam_read_temperature:000000bc $t

UNDEFINED SYMBOLS
gen_pvPortMalloc1
ddr_heap_attribute
gen_vPortFree1
ltpb__point2_i__init
ltpb__point2_f__init
__aeabi_i2d
__aeabi_ddiv
__aeabi_d2f
__aeabi_f2iz
img_sensor_write_reg
vTaskDelay
img_sensor_read_reg
i2cm
get_total_gain
__aeabi_ui2d
__aeabi_f2uiz
__aeabi_dmul
__aeabi_d2ulz
img_sensor_get_vt_pix_clk_mhz
ltpb__camera_module__surface__init
cam_mem_idx
img_bytes
light_system
idx_to_object
__aeabi_ui2f
ltpb__camera_module__afinfo__init
__aeabi_i2f
__aeabi_fmul
__aeabi_uldivmod
ltpb__time_stamp__init
rtc_get_time
__aeabi_fcmplt
__aeabi_fcmpge
iso_table
iso_table_size
ltpb__sensor_characterization__vst_noise_model__vst_model__init
ltpb__sensor_characterization__vst_noise_model__init
ltpb__sensor_characterization__init
img_sensor_read_pixel_order
ltpb__camera_module__init
ltpb__sensor_data__init
ltpb__flash_calibration__init
ltpb__to_fcalibration__init
ltpb__factory_device_calibration__init
ltpb__camera_module_hw_info__init
ltpb__hw_info__init
ltpb__factory_module_calibration__init
assert_failed
ltpb__light_header__init
get_cam_thumbnail
ltpb__device_temp__init
temp_sensor_read
ltpb__light_header__free_unpacked
