   1              		.syntax unified
   2              		.cpu cortex-r4
   3              		.fpu softvfp
   4              		.eabi_attribute 20, 1
   5              		.eabi_attribute 21, 1
   6              		.eabi_attribute 23, 3
   7              		.eabi_attribute 24, 1
   8              		.eabi_attribute 25, 1
   9              		.eabi_attribute 26, 1
  10              		.eabi_attribute 30, 4
  11              		.eabi_attribute 34, 1
  12              		.eabi_attribute 18, 4
  13              		.thumb
  14              		.file	"opticalzoom.cpp"
  15              		.text
  16              	.Ltext0:
  17              		.cfi_sections	.debug_frame
  18              		.section	.text._ZN4ltaf15OpticalZoomASIC31loadModuleZoomCalibFromProtoBufENS_12MirrorModuleERK27_L
  19              		.align	1
  20              		.global	_ZN4ltaf15OpticalZoomASIC31loadModuleZoomCalibFromProtoBufENS_12MirrorModuleERK27_Ltpb__Ge
  21              		.thumb
  22              		.thumb_func
  24              	_ZN4ltaf15OpticalZoomASIC31loadModuleZoomCalibFromProtoBufENS_12MirrorModuleERK27_Ltpb__GeometricCa
  25              	.LFB2581:
  26              		.file 1 "/home/tienluong/workspace/atlantis_fw/AsicFwS2/src/opticalzoom.cpp"
   1:/home/tienluong/workspace/atlantis_fw/AsicFwS2/src/opticalzoom.cpp **** 
   2:/home/tienluong/workspace/atlantis_fw/AsicFwS2/src/opticalzoom.cpp **** #include <cmath>
   3:/home/tienluong/workspace/atlantis_fw/AsicFwS2/src/opticalzoom.cpp **** #include <cstdio>
   4:/home/tienluong/workspace/atlantis_fw/AsicFwS2/src/opticalzoom.cpp **** #include <algorithm>
   5:/home/tienluong/workspace/atlantis_fw/AsicFwS2/src/opticalzoom.cpp **** #include "log.h"
   6:/home/tienluong/workspace/atlantis_fw/AsicFwS2/src/opticalzoom.cpp **** #include "opticalzoom.h"
   7:/home/tienluong/workspace/atlantis_fw/AsicFwS2/src/opticalzoom.cpp **** 
   8:/home/tienluong/workspace/atlantis_fw/AsicFwS2/src/opticalzoom.cpp **** #define SLOGF_ID                SLOG_ID_AF
   9:/home/tienluong/workspace/atlantis_fw/AsicFwS2/src/opticalzoom.cpp **** 
  10:/home/tienluong/workspace/atlantis_fw/AsicFwS2/src/opticalzoom.cpp **** 
  11:/home/tienluong/workspace/atlantis_fw/AsicFwS2/src/opticalzoom.cpp **** using namespace ltaf;
  12:/home/tienluong/workspace/atlantis_fw/AsicFwS2/src/opticalzoom.cpp **** 
  13:/home/tienluong/workspace/atlantis_fw/AsicFwS2/src/opticalzoom.cpp **** /// convert radian to degree
  14:/home/tienluong/workspace/atlantis_fw/AsicFwS2/src/opticalzoom.cpp **** namespace
  15:/home/tienluong/workspace/atlantis_fw/AsicFwS2/src/opticalzoom.cpp **** {
  16:/home/tienluong/workspace/atlantis_fw/AsicFwS2/src/opticalzoom.cpp ****     const float kPi = 3.14159265358979323846f;
  17:/home/tienluong/workspace/atlantis_fw/AsicFwS2/src/opticalzoom.cpp **** 
  18:/home/tienluong/workspace/atlantis_fw/AsicFwS2/src/opticalzoom.cpp ****     float rad2deg( float rad ) { return rad * ( 180.0f / kPi ); }
  19:/home/tienluong/workspace/atlantis_fw/AsicFwS2/src/opticalzoom.cpp **** 
  20:/home/tienluong/workspace/atlantis_fw/AsicFwS2/src/opticalzoom.cpp ****     const std::int16_t kInvalidHall = -1;
  21:/home/tienluong/workspace/atlantis_fw/AsicFwS2/src/opticalzoom.cpp ****     const float kDefaultMirrorAngle = 45.0f;
  22:/home/tienluong/workspace/atlantis_fw/AsicFwS2/src/opticalzoom.cpp **** }
  23:/home/tienluong/workspace/atlantis_fw/AsicFwS2/src/opticalzoom.cpp **** 
  24:/home/tienluong/workspace/atlantis_fw/AsicFwS2/src/opticalzoom.cpp **** #ifdef USE_PROTOBUF
  25:/home/tienluong/workspace/atlantis_fw/AsicFwS2/src/opticalzoom.cpp **** void OpticalZoomASIC::loadModuleZoomCalibFromProtoBuf( MirrorModule mirror_module,
  26:/home/tienluong/workspace/atlantis_fw/AsicFwS2/src/opticalzoom.cpp ****                                                        const Ltpb__GeometricCalibration & geom_cali
  27:/home/tienluong/workspace/atlantis_fw/AsicFwS2/src/opticalzoom.cpp **** {
  27              		.loc 1 27 0
  28              		.cfi_startproc
  29              		@ args = 0, pretend = 0, frame = 0
  30              		@ frame_needed = 0, uses_anonymous_args = 0
  31              	.LVL0:
  32 0000 F0B5     		push	{r4, r5, r6, r7, lr}
  33              	.LCFI0:
  34              		.cfi_def_cfa_offset 20
  35              		.cfi_offset 4, -20
  36              		.cfi_offset 5, -16
  37              		.cfi_offset 6, -12
  38              		.cfi_offset 7, -8
  39              		.cfi_offset 14, -4
  40              	.LBB372:
  41              	.LBB373:
  28:/home/tienluong/workspace/atlantis_fw/AsicFwS2/src/opticalzoom.cpp ****     bool has_optical_zoom = false;
  29:/home/tienluong/workspace/atlantis_fw/AsicFwS2/src/opticalzoom.cpp ****     if( geom_calib_pb.angle_optical_center_mapping!=nullptr &&
  42              		.loc 1 29 0
  43 0002 946A     		ldr	r4, [r2, #40]
  44 0004 0CB9     		cbnz	r4, .L2
  45              	.L4:
  46              	.LBE373:
  28:/home/tienluong/workspace/atlantis_fw/AsicFwS2/src/opticalzoom.cpp ****     bool has_optical_zoom = false;
  47              		.loc 1 28 0
  48 0006 0024     		movs	r4, #0
  49 0008 5FE0     		b	.L3
  50              	.L2:
  51              	.LBB390:
  52              		.loc 1 29 0 discriminator 1
  53 000a 1369     		ldr	r3, [r2, #16]
  54 000c 022B     		cmp	r3, #2
  55 000e FAD1     		bne	.L4
  56              	.LVL1:
  57              	.LBB374:
  30:/home/tienluong/workspace/atlantis_fw/AsicFwS2/src/opticalzoom.cpp ****         geom_calib_pb.mirror_type == LTPB__GEOMETRIC_CALIBRATION__MIRROR_TYPE__MOVABLE )
  31:/home/tienluong/workspace/atlantis_fw/AsicFwS2/src/opticalzoom.cpp ****     {
  32:/home/tienluong/workspace/atlantis_fw/AsicFwS2/src/opticalzoom.cpp ****         // set angle optical center mapping
  33:/home/tienluong/workspace/atlantis_fw/AsicFwS2/src/opticalzoom.cpp ****         const Ltpb__GeometricCalibration__AngleOpticalCenterMapping & angle_optcenter_map =
  34:/home/tienluong/workspace/atlantis_fw/AsicFwS2/src/opticalzoom.cpp ****             *(geom_calib_pb.angle_optical_center_mapping);
  35:/home/tienluong/workspace/atlantis_fw/AsicFwS2/src/opticalzoom.cpp **** 
  36:/home/tienluong/workspace/atlantis_fw/AsicFwS2/src/opticalzoom.cpp ****         _angle_pos_map_array[mirror_module]._angle_offset = angle_optcenter_map.angle_offset;
  58              		.loc 1 36 0
  59 0010 1C23     		movs	r3, #28
  60 0012 6569     		ldr	r5, [r4, #20]	@ float
  61 0014 03FB0103 		mla	r3, r3, r1, r0
  62              	.LBB375:
  37:/home/tienluong/workspace/atlantis_fw/AsicFwS2/src/opticalzoom.cpp ****         _angle_pos_map_array[mirror_module]._pos_start_x  = angle_optcenter_map.center_start->x;
  38:/home/tienluong/workspace/atlantis_fw/AsicFwS2/src/opticalzoom.cpp ****         _angle_pos_map_array[mirror_module]._pos_start_y  = angle_optcenter_map.center_start->y;
  39:/home/tienluong/workspace/atlantis_fw/AsicFwS2/src/opticalzoom.cpp ****         _angle_pos_map_array[mirror_module]._pos_end_x    = angle_optcenter_map.center_end->x;
  40:/home/tienluong/workspace/atlantis_fw/AsicFwS2/src/opticalzoom.cpp ****         _angle_pos_map_array[mirror_module]._pos_end_y    = angle_optcenter_map.center_end->y;
  41:/home/tienluong/workspace/atlantis_fw/AsicFwS2/src/opticalzoom.cpp ****         _angle_pos_map_array[mirror_module]._pos_offset   = angle_optcenter_map.t_offset;
  42:/home/tienluong/workspace/atlantis_fw/AsicFwS2/src/opticalzoom.cpp ****         _angle_pos_map_array[mirror_module]._pos_scale    = angle_optcenter_map.t_scale;
  43:/home/tienluong/workspace/atlantis_fw/AsicFwS2/src/opticalzoom.cpp **** 
  44:/home/tienluong/workspace/atlantis_fw/AsicFwS2/src/opticalzoom.cpp **** #ifdef USE_ANGLE_HALL_MAP
  45:/home/tienluong/workspace/atlantis_fw/AsicFwS2/src/opticalzoom.cpp ****         for( uint i = 0; i < geom_calib_pb.n_per_focus_calibration; ++i )
  63              		.loc 1 45 0
  64 0018 5769     		ldr	r7, [r2, #20]
  65              	.LBE375:
  36:/home/tienluong/workspace/atlantis_fw/AsicFwS2/src/opticalzoom.cpp ****         _angle_pos_map_array[mirror_module]._pos_start_x  = angle_optcenter_map.center_start->x;
  66              		.loc 1 36 0
  67 001a C3F8D051 		str	r5, [r3, #464]	@ float
  68              	.LVL2:
  37:/home/tienluong/workspace/atlantis_fw/AsicFwS2/src/opticalzoom.cpp ****         _angle_pos_map_array[mirror_module]._pos_start_x  = angle_optcenter_map.center_start->x;
  69              		.loc 1 37 0
  70 001e E568     		ldr	r5, [r4, #12]
  71 0020 EE68     		ldr	r6, [r5, #12]	@ float
  38:/home/tienluong/workspace/atlantis_fw/AsicFwS2/src/opticalzoom.cpp ****         _angle_pos_map_array[mirror_module]._pos_end_x    = angle_optcenter_map.center_end->x;
  72              		.loc 1 38 0
  73 0022 2D69     		ldr	r5, [r5, #16]	@ float
  74 0024 C3F8C451 		str	r5, [r3, #452]	@ float
  39:/home/tienluong/workspace/atlantis_fw/AsicFwS2/src/opticalzoom.cpp ****         _angle_pos_map_array[mirror_module]._pos_end_y    = angle_optcenter_map.center_end->y;
  75              		.loc 1 39 0
  76 0028 2569     		ldr	r5, [r4, #16]
  37:/home/tienluong/workspace/atlantis_fw/AsicFwS2/src/opticalzoom.cpp ****         _angle_pos_map_array[mirror_module]._pos_start_y  = angle_optcenter_map.center_start->y;
  77              		.loc 1 37 0
  78 002a C3F8C061 		str	r6, [r3, #448]	@ float
  79              	.LVL3:
  39:/home/tienluong/workspace/atlantis_fw/AsicFwS2/src/opticalzoom.cpp ****         _angle_pos_map_array[mirror_module]._pos_end_y    = angle_optcenter_map.center_end->y;
  80              		.loc 1 39 0
  81 002e EE68     		ldr	r6, [r5, #12]	@ float
  40:/home/tienluong/workspace/atlantis_fw/AsicFwS2/src/opticalzoom.cpp ****         _angle_pos_map_array[mirror_module]._pos_offset   = angle_optcenter_map.t_offset;
  82              		.loc 1 40 0
  83 0030 2D69     		ldr	r5, [r5, #16]	@ float
  84 0032 C3F8CC51 		str	r5, [r3, #460]	@ float
  41:/home/tienluong/workspace/atlantis_fw/AsicFwS2/src/opticalzoom.cpp ****         _angle_pos_map_array[mirror_module]._pos_scale    = angle_optcenter_map.t_scale;
  85              		.loc 1 41 0
  86 0036 E569     		ldr	r5, [r4, #28]	@ float
  87 0038 C3F8D851 		str	r5, [r3, #472]	@ float
  88              	.LBB388:
  89              		.loc 1 45 0
  90 003c 0025     		movs	r5, #0
  91              	.LBE388:
  42:/home/tienluong/workspace/atlantis_fw/AsicFwS2/src/opticalzoom.cpp **** 
  92              		.loc 1 42 0
  93 003e A469     		ldr	r4, [r4, #24]	@ float
  94              	.LVL4:
  39:/home/tienluong/workspace/atlantis_fw/AsicFwS2/src/opticalzoom.cpp ****         _angle_pos_map_array[mirror_module]._pos_end_y    = angle_optcenter_map.center_end->y;
  95              		.loc 1 39 0
  96 0040 C3F8C861 		str	r6, [r3, #456]	@ float
  97              	.LVL5:
  42:/home/tienluong/workspace/atlantis_fw/AsicFwS2/src/opticalzoom.cpp **** 
  98              		.loc 1 42 0
  99 0044 C3F8D441 		str	r4, [r3, #468]	@ float
 100              	.LVL6:
 101              	.L5:
 102              	.LBB389:
 103              		.loc 1 45 0 discriminator 1
 104 0048 BD42     		cmp	r5, r7
 105 004a DCD0     		beq	.L4
 106              	.LVL7:
 107              	.LBB376:
  46:/home/tienluong/workspace/atlantis_fw/AsicFwS2/src/opticalzoom.cpp ****         {
  47:/home/tienluong/workspace/atlantis_fw/AsicFwS2/src/opticalzoom.cpp ****             const Ltpb__GeometricCalibration__CalibrationFocusBundle & focus_bundle = *(geom_calib_
 108              		.loc 1 47 0
 109 004c 9369     		ldr	r3, [r2, #24]
 110              	.LBB377:
  48:/home/tienluong/workspace/atlantis_fw/AsicFwS2/src/opticalzoom.cpp ****             if( focus_bundle.extrinsics!=nullptr )
 111              		.loc 1 48 0
 112 004e 53F82530 		ldr	r3, [r3, r5, lsl #2]
 113 0052 5B69     		ldr	r3, [r3, #20]
 114 0054 BBB3     		cbz	r3, .L12
 115              	.LVL8:
 116              	.LBB378:
 117              	.LBB379:
  49:/home/tienluong/workspace/atlantis_fw/AsicFwS2/src/opticalzoom.cpp ****             {
  50:/home/tienluong/workspace/atlantis_fw/AsicFwS2/src/opticalzoom.cpp ****                 const Ltpb__GeometricCalibration__Extrinsics & extrinsics = *(focus_bundle.extrinsi
  51:/home/tienluong/workspace/atlantis_fw/AsicFwS2/src/opticalzoom.cpp ****                 if( extrinsics.moveable_mirror!=nullptr )
 118              		.loc 1 51 0
 119 0056 1E69     		ldr	r6, [r3, #16]
 120 0058 AEB3     		cbz	r6, .L12
 121              	.LBB380:
  52:/home/tienluong/workspace/atlantis_fw/AsicFwS2/src/opticalzoom.cpp ****                 {
  53:/home/tienluong/workspace/atlantis_fw/AsicFwS2/src/opticalzoom.cpp ****                     if( extrinsics.moveable_mirror->mirror_actuator_mapping!=nullptr )
 122              		.loc 1 53 0
 123 005a 3469     		ldr	r4, [r6, #16]
 124 005c 9CB3     		cbz	r4, .L12
 125              	.LVL9:
 126              	.LBB381:
  54:/home/tienluong/workspace/atlantis_fw/AsicFwS2/src/opticalzoom.cpp ****                     {
  55:/home/tienluong/workspace/atlantis_fw/AsicFwS2/src/opticalzoom.cpp ****                         const Ltpb__MirrorActuatorMapping & mirror_mapping = *(extrinsics.moveable_
  56:/home/tienluong/workspace/atlantis_fw/AsicFwS2/src/opticalzoom.cpp ****                         _angle_hall_map_array[mirror_module]._hall_offset = mirror_mapping.actuator
 127              		.loc 1 56 0
 128 005e 3823     		movs	r3, #56
 129              	.LVL10:
 130 0060 D4F810E0 		ldr	lr, [r4, #16]	@ float
 131 0064 03FB0103 		mla	r3, r3, r1, r0
 132              	.LBB382:
  57:/home/tienluong/workspace/atlantis_fw/AsicFwS2/src/opticalzoom.cpp ****                         _angle_hall_map_array[mirror_module]._hall_scale  = mirror_mapping.actuator
  58:/home/tienluong/workspace/atlantis_fw/AsicFwS2/src/opticalzoom.cpp ****                         // TODO: use hall code range from protobuf, however, we need to make sure i
  59:/home/tienluong/workspace/atlantis_fw/AsicFwS2/src/opticalzoom.cpp ****                         _angle_hall_map_array[mirror_module]._min_hall_code = 0;
  60:/home/tienluong/workspace/atlantis_fw/AsicFwS2/src/opticalzoom.cpp ****                         _angle_hall_map_array[mirror_module]._max_hall_code = 1023;
  61:/home/tienluong/workspace/atlantis_fw/AsicFwS2/src/opticalzoom.cpp ****                         _angle_hall_map_array[mirror_module]._mirror_angle_offset = mirror_mapping.
  62:/home/tienluong/workspace/atlantis_fw/AsicFwS2/src/opticalzoom.cpp ****                         _angle_hall_map_array[mirror_module]._mirror_angle_scale  = mirror_mapping.
  63:/home/tienluong/workspace/atlantis_fw/AsicFwS2/src/opticalzoom.cpp ****                         if( extrinsics.moveable_mirror->mirror_system!=nullptr)
 133              		.loc 1 63 0
 134 0068 F668     		ldr	r6, [r6, #12]
 135              	.LBE382:
  56:/home/tienluong/workspace/atlantis_fw/AsicFwS2/src/opticalzoom.cpp ****                         _angle_hall_map_array[mirror_module]._hall_scale  = mirror_mapping.actuator
 136              		.loc 1 56 0
 137 006a C3F828E0 		str	lr, [r3, #40]	@ float
 138              	.LVL11:
  57:/home/tienluong/workspace/atlantis_fw/AsicFwS2/src/opticalzoom.cpp ****                         _angle_hall_map_array[mirror_module]._hall_scale  = mirror_mapping.actuator
 139              		.loc 1 57 0
 140 006e D4F814E0 		ldr	lr, [r4, #20]	@ float
 141 0072 C3F82CE0 		str	lr, [r3, #44]	@ float
 142              	.LVL12:
  59:/home/tienluong/workspace/atlantis_fw/AsicFwS2/src/opticalzoom.cpp ****                         _angle_hall_map_array[mirror_module]._max_hall_code = 1023;
 143              		.loc 1 59 0
 144 0076 4FF0000E 		mov	lr, #0
 145 007a C3F820E0 		str	lr, [r3, #32]	@ float
 146              	.LVL13:
  60:/home/tienluong/workspace/atlantis_fw/AsicFwS2/src/opticalzoom.cpp ****                         _angle_hall_map_array[mirror_module]._mirror_angle_offset = mirror_mapping.
 147              		.loc 1 60 0
 148 007e DFF868E0 		ldr	lr, .L31
 149 0082 C3F824E0 		str	lr, [r3, #36]	@ float
 150              	.LVL14:
  61:/home/tienluong/workspace/atlantis_fw/AsicFwS2/src/opticalzoom.cpp ****                         _angle_hall_map_array[mirror_module]._mirror_angle_scale  = mirror_mapping.
 151              		.loc 1 61 0
 152 0086 D4F818E0 		ldr	lr, [r4, #24]	@ float
 153 008a C3F830E0 		str	lr, [r3, #48]	@ float
 154              	.LVL15:
  62:/home/tienluong/workspace/atlantis_fw/AsicFwS2/src/opticalzoom.cpp ****                         if( extrinsics.moveable_mirror->mirror_system!=nullptr)
 155              		.loc 1 62 0
 156 008e D4F81CE0 		ldr	lr, [r4, #28]	@ float
 157 0092 C3F834E0 		str	lr, [r3, #52]	@ float
 158              	.LBB384:
 159              		.loc 1 63 0
 160 0096 36B1     		cbz	r6, .L7
 161              	.LVL16:
 162              	.LBB383:
  64:/home/tienluong/workspace/atlantis_fw/AsicFwS2/src/opticalzoom.cpp ****                         {
  65:/home/tienluong/workspace/atlantis_fw/AsicFwS2/src/opticalzoom.cpp ****                             const Ltpb__MirrorSystem & msys = *(extrinsics.moveable_mirror->mirror_
  66:/home/tienluong/workspace/atlantis_fw/AsicFwS2/src/opticalzoom.cpp ****                             _angle_hall_map_array[mirror_module]._min_mirror_angle = msys.mirror_an
 163              		.loc 1 66 0
 164 0098 B66A     		ldr	r6, [r6, #40]
 165              	.LVL17:
 166 009a D6F80CE0 		ldr	lr, [r6, #12]	@ float
  67:/home/tienluong/workspace/atlantis_fw/AsicFwS2/src/opticalzoom.cpp ****                             _angle_hall_map_array[mirror_module]._max_mirror_angle = msys.mirror_an
 167              		.loc 1 67 0
 168 009e 3669     		ldr	r6, [r6, #16]	@ float
  66:/home/tienluong/workspace/atlantis_fw/AsicFwS2/src/opticalzoom.cpp ****                             _angle_hall_map_array[mirror_module]._max_mirror_angle = msys.mirror_an
 169              		.loc 1 66 0
 170 00a0 C3F818E0 		str	lr, [r3, #24]	@ float
 171              	.LVL18:
 172              		.loc 1 67 0
 173 00a4 DE61     		str	r6, [r3, #28]	@ float
 174              	.LVL19:
 175              	.L7:
 176              	.LBE383:
 177              	.LBE384:
 178              	.LBB385:
  68:/home/tienluong/workspace/atlantis_fw/AsicFwS2/src/opticalzoom.cpp ****                         }
  69:/home/tienluong/workspace/atlantis_fw/AsicFwS2/src/opticalzoom.cpp **** 
  70:/home/tienluong/workspace/atlantis_fw/AsicFwS2/src/opticalzoom.cpp ****                         if( mirror_mapping.quadratic_model!=nullptr )
 179              		.loc 1 70 0
 180 00a6 A36A     		ldr	r3, [r4, #40]
 181 00a8 6BB1     		cbz	r3, .L12
 182              	.LVL20:
 183 00aa 3822     		movs	r2, #56
 184              	.LVL21:
 185              	.LBB386:
 186              	.LBB387:
  71:/home/tienluong/workspace/atlantis_fw/AsicFwS2/src/opticalzoom.cpp ****                         {
  72:/home/tienluong/workspace/atlantis_fw/AsicFwS2/src/opticalzoom.cpp ****                             const Ltpb__MirrorActuatorMapping__QuadraticModel & quadratic_model = *
  73:/home/tienluong/workspace/atlantis_fw/AsicFwS2/src/opticalzoom.cpp ****                             for( int j = 0; j < 6; ++j )
  74:/home/tienluong/workspace/atlantis_fw/AsicFwS2/src/opticalzoom.cpp ****                             { _angle_hall_map_array[mirror_module]._map_coefs[j] = quadratic_model.
 187              		.loc 1 74 0
 188 00ac DD69     		ldr	r5, [r3, #28]
 189              	.LVL22:
  73:/home/tienluong/workspace/atlantis_fw/AsicFwS2/src/opticalzoom.cpp ****                             { _angle_hall_map_array[mirror_module]._map_coefs[j] = quadratic_model.
 190              		.loc 1 73 0
 191 00ae 0023     		movs	r3, #0
 192              	.LVL23:
 193 00b0 02FB0102 		mla	r2, r2, r1, r0
 194              	.LVL24:
 195              	.L8:
 196              		.loc 1 74 0 discriminator 3
 197 00b4 55F82340 		ldr	r4, [r5, r3, lsl #2]	@ float
 198 00b8 42F82340 		str	r4, [r2, r3, lsl #2]	@ float
  73:/home/tienluong/workspace/atlantis_fw/AsicFwS2/src/opticalzoom.cpp ****                             { _angle_hall_map_array[mirror_module]._map_coefs[j] = quadratic_model.
 199              		.loc 1 73 0 discriminator 3
 200 00bc 0133     		adds	r3, r3, #1
 201              	.LVL25:
 202 00be 062B     		cmp	r3, #6
 203 00c0 F8D1     		bne	.L8
 204              	.LBE387:
  75:/home/tienluong/workspace/atlantis_fw/AsicFwS2/src/opticalzoom.cpp **** 
  76:/home/tienluong/workspace/atlantis_fw/AsicFwS2/src/opticalzoom.cpp ****                             has_optical_zoom = true;
 205              		.loc 1 76 0
 206 00c2 0124     		movs	r4, #1
 207 00c4 01E0     		b	.L3
 208              	.LVL26:
 209              	.L12:
 210              	.LBE386:
 211              	.LBE385:
 212              	.LBE381:
 213              	.LBE380:
 214              	.LBE379:
 215              	.LBE378:
 216              	.LBE377:
 217              	.LBE376:
  45:/home/tienluong/workspace/atlantis_fw/AsicFwS2/src/opticalzoom.cpp ****         {
 218              		.loc 1 45 0 discriminator 2
 219 00c6 0135     		adds	r5, r5, #1
 220              	.LVL27:
 221 00c8 BEE7     		b	.L5
 222              	.LVL28:
 223              	.L3:
 224 00ca 0123     		movs	r3, #1
 225              	.LBE389:
 226              	.LBE374:
 227              	.LBE390:
 228              	.LBB391:
 229              	.LBB392:
 230              	.LBB393:
 231              	.LBB394:
 232              		.file 2 "/opt/toolchains/gcc-arm-none-eabi-4_9-2015q1/arm-none-eabi/include/c++/4.9.3/bitset"
   1:/opt/toolchains/gcc-arm-none-eabi-4_9-2015q1/arm-none-eabi/include/c++/4.9.3/bitset **** // <bitset> -*- C++ -*-
   2:/opt/toolchains/gcc-arm-none-eabi-4_9-2015q1/arm-none-eabi/include/c++/4.9.3/bitset **** 
   3:/opt/toolchains/gcc-arm-none-eabi-4_9-2015q1/arm-none-eabi/include/c++/4.9.3/bitset **** // Copyright (C) 2001-2014 Free Software Foundation, Inc.
   4:/opt/toolchains/gcc-arm-none-eabi-4_9-2015q1/arm-none-eabi/include/c++/4.9.3/bitset **** //
   5:/opt/toolchains/gcc-arm-none-eabi-4_9-2015q1/arm-none-eabi/include/c++/4.9.3/bitset **** // This file is part of the GNU ISO C++ Library.  This library is free
   6:/opt/toolchains/gcc-arm-none-eabi-4_9-2015q1/arm-none-eabi/include/c++/4.9.3/bitset **** // software; you can redistribute it and/or modify it under the
   7:/opt/toolchains/gcc-arm-none-eabi-4_9-2015q1/arm-none-eabi/include/c++/4.9.3/bitset **** // terms of the GNU General Public License as published by the
   8:/opt/toolchains/gcc-arm-none-eabi-4_9-2015q1/arm-none-eabi/include/c++/4.9.3/bitset **** // Free Software Foundation; either version 3, or (at your option)
   9:/opt/toolchains/gcc-arm-none-eabi-4_9-2015q1/arm-none-eabi/include/c++/4.9.3/bitset **** // any later version.
  10:/opt/toolchains/gcc-arm-none-eabi-4_9-2015q1/arm-none-eabi/include/c++/4.9.3/bitset **** 
  11:/opt/toolchains/gcc-arm-none-eabi-4_9-2015q1/arm-none-eabi/include/c++/4.9.3/bitset **** // This library is distributed in the hope that it will be useful,
  12:/opt/toolchains/gcc-arm-none-eabi-4_9-2015q1/arm-none-eabi/include/c++/4.9.3/bitset **** // but WITHOUT ANY WARRANTY; without even the implied warranty of
  13:/opt/toolchains/gcc-arm-none-eabi-4_9-2015q1/arm-none-eabi/include/c++/4.9.3/bitset **** // MERCHANTABILITY or FITNESS FOR A PARTICULAR PURPOSE.  See the
  14:/opt/toolchains/gcc-arm-none-eabi-4_9-2015q1/arm-none-eabi/include/c++/4.9.3/bitset **** // GNU General Public License for more details.
  15:/opt/toolchains/gcc-arm-none-eabi-4_9-2015q1/arm-none-eabi/include/c++/4.9.3/bitset **** 
  16:/opt/toolchains/gcc-arm-none-eabi-4_9-2015q1/arm-none-eabi/include/c++/4.9.3/bitset **** // Under Section 7 of GPL version 3, you are granted additional
  17:/opt/toolchains/gcc-arm-none-eabi-4_9-2015q1/arm-none-eabi/include/c++/4.9.3/bitset **** // permissions described in the GCC Runtime Library Exception, version
  18:/opt/toolchains/gcc-arm-none-eabi-4_9-2015q1/arm-none-eabi/include/c++/4.9.3/bitset **** // 3.1, as published by the Free Software Foundation.
  19:/opt/toolchains/gcc-arm-none-eabi-4_9-2015q1/arm-none-eabi/include/c++/4.9.3/bitset **** 
  20:/opt/toolchains/gcc-arm-none-eabi-4_9-2015q1/arm-none-eabi/include/c++/4.9.3/bitset **** // You should have received a copy of the GNU General Public License and
  21:/opt/toolchains/gcc-arm-none-eabi-4_9-2015q1/arm-none-eabi/include/c++/4.9.3/bitset **** // a copy of the GCC Runtime Library Exception along with this program;
  22:/opt/toolchains/gcc-arm-none-eabi-4_9-2015q1/arm-none-eabi/include/c++/4.9.3/bitset **** // see the files COPYING3 and COPYING.RUNTIME respectively.  If not, see
  23:/opt/toolchains/gcc-arm-none-eabi-4_9-2015q1/arm-none-eabi/include/c++/4.9.3/bitset **** // <http://www.gnu.org/licenses/>.
  24:/opt/toolchains/gcc-arm-none-eabi-4_9-2015q1/arm-none-eabi/include/c++/4.9.3/bitset **** 
  25:/opt/toolchains/gcc-arm-none-eabi-4_9-2015q1/arm-none-eabi/include/c++/4.9.3/bitset **** /*
  26:/opt/toolchains/gcc-arm-none-eabi-4_9-2015q1/arm-none-eabi/include/c++/4.9.3/bitset ****  * Copyright (c) 1998
  27:/opt/toolchains/gcc-arm-none-eabi-4_9-2015q1/arm-none-eabi/include/c++/4.9.3/bitset ****  * Silicon Graphics Computer Systems, Inc.
  28:/opt/toolchains/gcc-arm-none-eabi-4_9-2015q1/arm-none-eabi/include/c++/4.9.3/bitset ****  *
  29:/opt/toolchains/gcc-arm-none-eabi-4_9-2015q1/arm-none-eabi/include/c++/4.9.3/bitset ****  * Permission to use, copy, modify, distribute and sell this software
  30:/opt/toolchains/gcc-arm-none-eabi-4_9-2015q1/arm-none-eabi/include/c++/4.9.3/bitset ****  * and its documentation for any purpose is hereby granted without fee,
  31:/opt/toolchains/gcc-arm-none-eabi-4_9-2015q1/arm-none-eabi/include/c++/4.9.3/bitset ****  * provided that the above copyright notice appear in all copies and
  32:/opt/toolchains/gcc-arm-none-eabi-4_9-2015q1/arm-none-eabi/include/c++/4.9.3/bitset ****  * that both that copyright notice and this permission notice appear
  33:/opt/toolchains/gcc-arm-none-eabi-4_9-2015q1/arm-none-eabi/include/c++/4.9.3/bitset ****  * in supporting documentation.  Silicon Graphics makes no
  34:/opt/toolchains/gcc-arm-none-eabi-4_9-2015q1/arm-none-eabi/include/c++/4.9.3/bitset ****  * representations about the suitability of this software for any
  35:/opt/toolchains/gcc-arm-none-eabi-4_9-2015q1/arm-none-eabi/include/c++/4.9.3/bitset ****  * purpose.  It is provided "as is" without express or implied warranty.
  36:/opt/toolchains/gcc-arm-none-eabi-4_9-2015q1/arm-none-eabi/include/c++/4.9.3/bitset ****  */
  37:/opt/toolchains/gcc-arm-none-eabi-4_9-2015q1/arm-none-eabi/include/c++/4.9.3/bitset **** 
  38:/opt/toolchains/gcc-arm-none-eabi-4_9-2015q1/arm-none-eabi/include/c++/4.9.3/bitset **** /** @file include/bitset
  39:/opt/toolchains/gcc-arm-none-eabi-4_9-2015q1/arm-none-eabi/include/c++/4.9.3/bitset ****  *  This is a Standard C++ Library header.
  40:/opt/toolchains/gcc-arm-none-eabi-4_9-2015q1/arm-none-eabi/include/c++/4.9.3/bitset ****  */
  41:/opt/toolchains/gcc-arm-none-eabi-4_9-2015q1/arm-none-eabi/include/c++/4.9.3/bitset **** 
  42:/opt/toolchains/gcc-arm-none-eabi-4_9-2015q1/arm-none-eabi/include/c++/4.9.3/bitset **** #ifndef _GLIBCXX_BITSET
  43:/opt/toolchains/gcc-arm-none-eabi-4_9-2015q1/arm-none-eabi/include/c++/4.9.3/bitset **** #define _GLIBCXX_BITSET 1
  44:/opt/toolchains/gcc-arm-none-eabi-4_9-2015q1/arm-none-eabi/include/c++/4.9.3/bitset **** 
  45:/opt/toolchains/gcc-arm-none-eabi-4_9-2015q1/arm-none-eabi/include/c++/4.9.3/bitset **** #pragma GCC system_header
  46:/opt/toolchains/gcc-arm-none-eabi-4_9-2015q1/arm-none-eabi/include/c++/4.9.3/bitset **** 
  47:/opt/toolchains/gcc-arm-none-eabi-4_9-2015q1/arm-none-eabi/include/c++/4.9.3/bitset **** #include <string>
  48:/opt/toolchains/gcc-arm-none-eabi-4_9-2015q1/arm-none-eabi/include/c++/4.9.3/bitset **** #include <bits/functexcept.h>   // For invalid_argument, out_of_range,
  49:/opt/toolchains/gcc-arm-none-eabi-4_9-2015q1/arm-none-eabi/include/c++/4.9.3/bitset ****                                 // overflow_error
  50:/opt/toolchains/gcc-arm-none-eabi-4_9-2015q1/arm-none-eabi/include/c++/4.9.3/bitset **** #include <iosfwd>
  51:/opt/toolchains/gcc-arm-none-eabi-4_9-2015q1/arm-none-eabi/include/c++/4.9.3/bitset **** #include <bits/cxxabi_forced.h>
  52:/opt/toolchains/gcc-arm-none-eabi-4_9-2015q1/arm-none-eabi/include/c++/4.9.3/bitset **** 
  53:/opt/toolchains/gcc-arm-none-eabi-4_9-2015q1/arm-none-eabi/include/c++/4.9.3/bitset **** #define _GLIBCXX_BITSET_BITS_PER_WORD  (__CHAR_BIT__ * __SIZEOF_LONG__)
  54:/opt/toolchains/gcc-arm-none-eabi-4_9-2015q1/arm-none-eabi/include/c++/4.9.3/bitset **** #define _GLIBCXX_BITSET_WORDS(__n) \
  55:/opt/toolchains/gcc-arm-none-eabi-4_9-2015q1/arm-none-eabi/include/c++/4.9.3/bitset ****   ((__n) / _GLIBCXX_BITSET_BITS_PER_WORD + \
  56:/opt/toolchains/gcc-arm-none-eabi-4_9-2015q1/arm-none-eabi/include/c++/4.9.3/bitset ****    ((__n) % _GLIBCXX_BITSET_BITS_PER_WORD == 0 ? 0 : 1))
  57:/opt/toolchains/gcc-arm-none-eabi-4_9-2015q1/arm-none-eabi/include/c++/4.9.3/bitset **** 
  58:/opt/toolchains/gcc-arm-none-eabi-4_9-2015q1/arm-none-eabi/include/c++/4.9.3/bitset **** #define _GLIBCXX_BITSET_BITS_PER_ULL (__CHAR_BIT__ * __SIZEOF_LONG_LONG__)
  59:/opt/toolchains/gcc-arm-none-eabi-4_9-2015q1/arm-none-eabi/include/c++/4.9.3/bitset **** 
  60:/opt/toolchains/gcc-arm-none-eabi-4_9-2015q1/arm-none-eabi/include/c++/4.9.3/bitset **** namespace std _GLIBCXX_VISIBILITY(default)
  61:/opt/toolchains/gcc-arm-none-eabi-4_9-2015q1/arm-none-eabi/include/c++/4.9.3/bitset **** {
  62:/opt/toolchains/gcc-arm-none-eabi-4_9-2015q1/arm-none-eabi/include/c++/4.9.3/bitset **** _GLIBCXX_BEGIN_NAMESPACE_CONTAINER
  63:/opt/toolchains/gcc-arm-none-eabi-4_9-2015q1/arm-none-eabi/include/c++/4.9.3/bitset **** 
  64:/opt/toolchains/gcc-arm-none-eabi-4_9-2015q1/arm-none-eabi/include/c++/4.9.3/bitset ****   /**
  65:/opt/toolchains/gcc-arm-none-eabi-4_9-2015q1/arm-none-eabi/include/c++/4.9.3/bitset ****    *  Base class, general case.  It is a class invariant that _Nw will be
  66:/opt/toolchains/gcc-arm-none-eabi-4_9-2015q1/arm-none-eabi/include/c++/4.9.3/bitset ****    *  nonnegative.
  67:/opt/toolchains/gcc-arm-none-eabi-4_9-2015q1/arm-none-eabi/include/c++/4.9.3/bitset ****    *
  68:/opt/toolchains/gcc-arm-none-eabi-4_9-2015q1/arm-none-eabi/include/c++/4.9.3/bitset ****    *  See documentation for bitset.
  69:/opt/toolchains/gcc-arm-none-eabi-4_9-2015q1/arm-none-eabi/include/c++/4.9.3/bitset ****   */
  70:/opt/toolchains/gcc-arm-none-eabi-4_9-2015q1/arm-none-eabi/include/c++/4.9.3/bitset ****   template<size_t _Nw>
  71:/opt/toolchains/gcc-arm-none-eabi-4_9-2015q1/arm-none-eabi/include/c++/4.9.3/bitset ****     struct _Base_bitset
  72:/opt/toolchains/gcc-arm-none-eabi-4_9-2015q1/arm-none-eabi/include/c++/4.9.3/bitset ****     {
  73:/opt/toolchains/gcc-arm-none-eabi-4_9-2015q1/arm-none-eabi/include/c++/4.9.3/bitset ****       typedef unsigned long _WordT;
  74:/opt/toolchains/gcc-arm-none-eabi-4_9-2015q1/arm-none-eabi/include/c++/4.9.3/bitset **** 
  75:/opt/toolchains/gcc-arm-none-eabi-4_9-2015q1/arm-none-eabi/include/c++/4.9.3/bitset ****       /// 0 is the least significant word.
  76:/opt/toolchains/gcc-arm-none-eabi-4_9-2015q1/arm-none-eabi/include/c++/4.9.3/bitset ****       _WordT 		_M_w[_Nw];
  77:/opt/toolchains/gcc-arm-none-eabi-4_9-2015q1/arm-none-eabi/include/c++/4.9.3/bitset **** 
  78:/opt/toolchains/gcc-arm-none-eabi-4_9-2015q1/arm-none-eabi/include/c++/4.9.3/bitset ****       _GLIBCXX_CONSTEXPR _Base_bitset() _GLIBCXX_NOEXCEPT
  79:/opt/toolchains/gcc-arm-none-eabi-4_9-2015q1/arm-none-eabi/include/c++/4.9.3/bitset ****       : _M_w() { }
  80:/opt/toolchains/gcc-arm-none-eabi-4_9-2015q1/arm-none-eabi/include/c++/4.9.3/bitset **** 
  81:/opt/toolchains/gcc-arm-none-eabi-4_9-2015q1/arm-none-eabi/include/c++/4.9.3/bitset **** #if __cplusplus >= 201103L
  82:/opt/toolchains/gcc-arm-none-eabi-4_9-2015q1/arm-none-eabi/include/c++/4.9.3/bitset ****       constexpr _Base_bitset(unsigned long long __val) noexcept
  83:/opt/toolchains/gcc-arm-none-eabi-4_9-2015q1/arm-none-eabi/include/c++/4.9.3/bitset ****       : _M_w{ _WordT(__val)
  84:/opt/toolchains/gcc-arm-none-eabi-4_9-2015q1/arm-none-eabi/include/c++/4.9.3/bitset **** #if __SIZEOF_LONG_LONG__ > __SIZEOF_LONG__
  85:/opt/toolchains/gcc-arm-none-eabi-4_9-2015q1/arm-none-eabi/include/c++/4.9.3/bitset **** 	       , _WordT(__val >> _GLIBCXX_BITSET_BITS_PER_WORD)
  86:/opt/toolchains/gcc-arm-none-eabi-4_9-2015q1/arm-none-eabi/include/c++/4.9.3/bitset **** #endif
  87:/opt/toolchains/gcc-arm-none-eabi-4_9-2015q1/arm-none-eabi/include/c++/4.9.3/bitset ****        } { }
  88:/opt/toolchains/gcc-arm-none-eabi-4_9-2015q1/arm-none-eabi/include/c++/4.9.3/bitset **** #else
  89:/opt/toolchains/gcc-arm-none-eabi-4_9-2015q1/arm-none-eabi/include/c++/4.9.3/bitset ****       _Base_bitset(unsigned long __val)
  90:/opt/toolchains/gcc-arm-none-eabi-4_9-2015q1/arm-none-eabi/include/c++/4.9.3/bitset ****       : _M_w()
  91:/opt/toolchains/gcc-arm-none-eabi-4_9-2015q1/arm-none-eabi/include/c++/4.9.3/bitset ****       { _M_w[0] = __val; }
  92:/opt/toolchains/gcc-arm-none-eabi-4_9-2015q1/arm-none-eabi/include/c++/4.9.3/bitset **** #endif
  93:/opt/toolchains/gcc-arm-none-eabi-4_9-2015q1/arm-none-eabi/include/c++/4.9.3/bitset **** 
  94:/opt/toolchains/gcc-arm-none-eabi-4_9-2015q1/arm-none-eabi/include/c++/4.9.3/bitset ****       static _GLIBCXX_CONSTEXPR size_t
  95:/opt/toolchains/gcc-arm-none-eabi-4_9-2015q1/arm-none-eabi/include/c++/4.9.3/bitset ****       _S_whichword(size_t __pos) _GLIBCXX_NOEXCEPT
  96:/opt/toolchains/gcc-arm-none-eabi-4_9-2015q1/arm-none-eabi/include/c++/4.9.3/bitset ****       { return __pos / _GLIBCXX_BITSET_BITS_PER_WORD; }
  97:/opt/toolchains/gcc-arm-none-eabi-4_9-2015q1/arm-none-eabi/include/c++/4.9.3/bitset **** 
  98:/opt/toolchains/gcc-arm-none-eabi-4_9-2015q1/arm-none-eabi/include/c++/4.9.3/bitset ****       static _GLIBCXX_CONSTEXPR size_t
  99:/opt/toolchains/gcc-arm-none-eabi-4_9-2015q1/arm-none-eabi/include/c++/4.9.3/bitset ****       _S_whichbyte(size_t __pos) _GLIBCXX_NOEXCEPT
 100:/opt/toolchains/gcc-arm-none-eabi-4_9-2015q1/arm-none-eabi/include/c++/4.9.3/bitset ****       { return (__pos % _GLIBCXX_BITSET_BITS_PER_WORD) / __CHAR_BIT__; }
 101:/opt/toolchains/gcc-arm-none-eabi-4_9-2015q1/arm-none-eabi/include/c++/4.9.3/bitset **** 
 102:/opt/toolchains/gcc-arm-none-eabi-4_9-2015q1/arm-none-eabi/include/c++/4.9.3/bitset ****       static _GLIBCXX_CONSTEXPR size_t
 103:/opt/toolchains/gcc-arm-none-eabi-4_9-2015q1/arm-none-eabi/include/c++/4.9.3/bitset ****       _S_whichbit(size_t __pos) _GLIBCXX_NOEXCEPT
 104:/opt/toolchains/gcc-arm-none-eabi-4_9-2015q1/arm-none-eabi/include/c++/4.9.3/bitset ****       { return __pos % _GLIBCXX_BITSET_BITS_PER_WORD; }
 105:/opt/toolchains/gcc-arm-none-eabi-4_9-2015q1/arm-none-eabi/include/c++/4.9.3/bitset **** 
 106:/opt/toolchains/gcc-arm-none-eabi-4_9-2015q1/arm-none-eabi/include/c++/4.9.3/bitset ****       static _GLIBCXX_CONSTEXPR _WordT
 107:/opt/toolchains/gcc-arm-none-eabi-4_9-2015q1/arm-none-eabi/include/c++/4.9.3/bitset ****       _S_maskbit(size_t __pos) _GLIBCXX_NOEXCEPT
 108:/opt/toolchains/gcc-arm-none-eabi-4_9-2015q1/arm-none-eabi/include/c++/4.9.3/bitset ****       { return (static_cast<_WordT>(1)) << _S_whichbit(__pos); }
 109:/opt/toolchains/gcc-arm-none-eabi-4_9-2015q1/arm-none-eabi/include/c++/4.9.3/bitset **** 
 110:/opt/toolchains/gcc-arm-none-eabi-4_9-2015q1/arm-none-eabi/include/c++/4.9.3/bitset ****       _WordT&
 111:/opt/toolchains/gcc-arm-none-eabi-4_9-2015q1/arm-none-eabi/include/c++/4.9.3/bitset ****       _M_getword(size_t __pos) _GLIBCXX_NOEXCEPT
 112:/opt/toolchains/gcc-arm-none-eabi-4_9-2015q1/arm-none-eabi/include/c++/4.9.3/bitset ****       { return _M_w[_S_whichword(__pos)]; }
 113:/opt/toolchains/gcc-arm-none-eabi-4_9-2015q1/arm-none-eabi/include/c++/4.9.3/bitset **** 
 114:/opt/toolchains/gcc-arm-none-eabi-4_9-2015q1/arm-none-eabi/include/c++/4.9.3/bitset ****       _GLIBCXX_CONSTEXPR _WordT
 115:/opt/toolchains/gcc-arm-none-eabi-4_9-2015q1/arm-none-eabi/include/c++/4.9.3/bitset ****       _M_getword(size_t __pos) const _GLIBCXX_NOEXCEPT
 116:/opt/toolchains/gcc-arm-none-eabi-4_9-2015q1/arm-none-eabi/include/c++/4.9.3/bitset ****       { return _M_w[_S_whichword(__pos)]; }
 117:/opt/toolchains/gcc-arm-none-eabi-4_9-2015q1/arm-none-eabi/include/c++/4.9.3/bitset **** 
 118:/opt/toolchains/gcc-arm-none-eabi-4_9-2015q1/arm-none-eabi/include/c++/4.9.3/bitset **** #if __cplusplus >= 201103L
 119:/opt/toolchains/gcc-arm-none-eabi-4_9-2015q1/arm-none-eabi/include/c++/4.9.3/bitset ****       const _WordT*
 120:/opt/toolchains/gcc-arm-none-eabi-4_9-2015q1/arm-none-eabi/include/c++/4.9.3/bitset ****       _M_getdata() const noexcept
 121:/opt/toolchains/gcc-arm-none-eabi-4_9-2015q1/arm-none-eabi/include/c++/4.9.3/bitset ****       { return _M_w; }
 122:/opt/toolchains/gcc-arm-none-eabi-4_9-2015q1/arm-none-eabi/include/c++/4.9.3/bitset **** #endif
 123:/opt/toolchains/gcc-arm-none-eabi-4_9-2015q1/arm-none-eabi/include/c++/4.9.3/bitset **** 
 124:/opt/toolchains/gcc-arm-none-eabi-4_9-2015q1/arm-none-eabi/include/c++/4.9.3/bitset ****       _WordT&
 125:/opt/toolchains/gcc-arm-none-eabi-4_9-2015q1/arm-none-eabi/include/c++/4.9.3/bitset ****       _M_hiword() _GLIBCXX_NOEXCEPT
 126:/opt/toolchains/gcc-arm-none-eabi-4_9-2015q1/arm-none-eabi/include/c++/4.9.3/bitset ****       { return _M_w[_Nw - 1]; }
 127:/opt/toolchains/gcc-arm-none-eabi-4_9-2015q1/arm-none-eabi/include/c++/4.9.3/bitset **** 
 128:/opt/toolchains/gcc-arm-none-eabi-4_9-2015q1/arm-none-eabi/include/c++/4.9.3/bitset ****       _GLIBCXX_CONSTEXPR _WordT
 129:/opt/toolchains/gcc-arm-none-eabi-4_9-2015q1/arm-none-eabi/include/c++/4.9.3/bitset ****       _M_hiword() const _GLIBCXX_NOEXCEPT
 130:/opt/toolchains/gcc-arm-none-eabi-4_9-2015q1/arm-none-eabi/include/c++/4.9.3/bitset ****       { return _M_w[_Nw - 1]; }
 131:/opt/toolchains/gcc-arm-none-eabi-4_9-2015q1/arm-none-eabi/include/c++/4.9.3/bitset **** 
 132:/opt/toolchains/gcc-arm-none-eabi-4_9-2015q1/arm-none-eabi/include/c++/4.9.3/bitset ****       void
 133:/opt/toolchains/gcc-arm-none-eabi-4_9-2015q1/arm-none-eabi/include/c++/4.9.3/bitset ****       _M_do_and(const _Base_bitset<_Nw>& __x) _GLIBCXX_NOEXCEPT
 134:/opt/toolchains/gcc-arm-none-eabi-4_9-2015q1/arm-none-eabi/include/c++/4.9.3/bitset ****       {
 135:/opt/toolchains/gcc-arm-none-eabi-4_9-2015q1/arm-none-eabi/include/c++/4.9.3/bitset **** 	for (size_t __i = 0; __i < _Nw; __i++)
 136:/opt/toolchains/gcc-arm-none-eabi-4_9-2015q1/arm-none-eabi/include/c++/4.9.3/bitset **** 	  _M_w[__i] &= __x._M_w[__i];
 137:/opt/toolchains/gcc-arm-none-eabi-4_9-2015q1/arm-none-eabi/include/c++/4.9.3/bitset ****       }
 138:/opt/toolchains/gcc-arm-none-eabi-4_9-2015q1/arm-none-eabi/include/c++/4.9.3/bitset **** 
 139:/opt/toolchains/gcc-arm-none-eabi-4_9-2015q1/arm-none-eabi/include/c++/4.9.3/bitset ****       void
 140:/opt/toolchains/gcc-arm-none-eabi-4_9-2015q1/arm-none-eabi/include/c++/4.9.3/bitset ****       _M_do_or(const _Base_bitset<_Nw>& __x) _GLIBCXX_NOEXCEPT
 141:/opt/toolchains/gcc-arm-none-eabi-4_9-2015q1/arm-none-eabi/include/c++/4.9.3/bitset ****       {
 142:/opt/toolchains/gcc-arm-none-eabi-4_9-2015q1/arm-none-eabi/include/c++/4.9.3/bitset **** 	for (size_t __i = 0; __i < _Nw; __i++)
 143:/opt/toolchains/gcc-arm-none-eabi-4_9-2015q1/arm-none-eabi/include/c++/4.9.3/bitset **** 	  _M_w[__i] |= __x._M_w[__i];
 144:/opt/toolchains/gcc-arm-none-eabi-4_9-2015q1/arm-none-eabi/include/c++/4.9.3/bitset ****       }
 145:/opt/toolchains/gcc-arm-none-eabi-4_9-2015q1/arm-none-eabi/include/c++/4.9.3/bitset **** 
 146:/opt/toolchains/gcc-arm-none-eabi-4_9-2015q1/arm-none-eabi/include/c++/4.9.3/bitset ****       void
 147:/opt/toolchains/gcc-arm-none-eabi-4_9-2015q1/arm-none-eabi/include/c++/4.9.3/bitset ****       _M_do_xor(const _Base_bitset<_Nw>& __x) _GLIBCXX_NOEXCEPT
 148:/opt/toolchains/gcc-arm-none-eabi-4_9-2015q1/arm-none-eabi/include/c++/4.9.3/bitset ****       {
 149:/opt/toolchains/gcc-arm-none-eabi-4_9-2015q1/arm-none-eabi/include/c++/4.9.3/bitset **** 	for (size_t __i = 0; __i < _Nw; __i++)
 150:/opt/toolchains/gcc-arm-none-eabi-4_9-2015q1/arm-none-eabi/include/c++/4.9.3/bitset **** 	  _M_w[__i] ^= __x._M_w[__i];
 151:/opt/toolchains/gcc-arm-none-eabi-4_9-2015q1/arm-none-eabi/include/c++/4.9.3/bitset ****       }
 152:/opt/toolchains/gcc-arm-none-eabi-4_9-2015q1/arm-none-eabi/include/c++/4.9.3/bitset **** 
 153:/opt/toolchains/gcc-arm-none-eabi-4_9-2015q1/arm-none-eabi/include/c++/4.9.3/bitset ****       void
 154:/opt/toolchains/gcc-arm-none-eabi-4_9-2015q1/arm-none-eabi/include/c++/4.9.3/bitset ****       _M_do_left_shift(size_t __shift) _GLIBCXX_NOEXCEPT;
 155:/opt/toolchains/gcc-arm-none-eabi-4_9-2015q1/arm-none-eabi/include/c++/4.9.3/bitset **** 
 156:/opt/toolchains/gcc-arm-none-eabi-4_9-2015q1/arm-none-eabi/include/c++/4.9.3/bitset ****       void
 157:/opt/toolchains/gcc-arm-none-eabi-4_9-2015q1/arm-none-eabi/include/c++/4.9.3/bitset ****       _M_do_right_shift(size_t __shift) _GLIBCXX_NOEXCEPT;
 158:/opt/toolchains/gcc-arm-none-eabi-4_9-2015q1/arm-none-eabi/include/c++/4.9.3/bitset **** 
 159:/opt/toolchains/gcc-arm-none-eabi-4_9-2015q1/arm-none-eabi/include/c++/4.9.3/bitset ****       void
 160:/opt/toolchains/gcc-arm-none-eabi-4_9-2015q1/arm-none-eabi/include/c++/4.9.3/bitset ****       _M_do_flip() _GLIBCXX_NOEXCEPT
 161:/opt/toolchains/gcc-arm-none-eabi-4_9-2015q1/arm-none-eabi/include/c++/4.9.3/bitset ****       {
 162:/opt/toolchains/gcc-arm-none-eabi-4_9-2015q1/arm-none-eabi/include/c++/4.9.3/bitset **** 	for (size_t __i = 0; __i < _Nw; __i++)
 163:/opt/toolchains/gcc-arm-none-eabi-4_9-2015q1/arm-none-eabi/include/c++/4.9.3/bitset **** 	  _M_w[__i] = ~_M_w[__i];
 164:/opt/toolchains/gcc-arm-none-eabi-4_9-2015q1/arm-none-eabi/include/c++/4.9.3/bitset ****       }
 165:/opt/toolchains/gcc-arm-none-eabi-4_9-2015q1/arm-none-eabi/include/c++/4.9.3/bitset **** 
 166:/opt/toolchains/gcc-arm-none-eabi-4_9-2015q1/arm-none-eabi/include/c++/4.9.3/bitset ****       void
 167:/opt/toolchains/gcc-arm-none-eabi-4_9-2015q1/arm-none-eabi/include/c++/4.9.3/bitset ****       _M_do_set() _GLIBCXX_NOEXCEPT
 168:/opt/toolchains/gcc-arm-none-eabi-4_9-2015q1/arm-none-eabi/include/c++/4.9.3/bitset ****       {
 169:/opt/toolchains/gcc-arm-none-eabi-4_9-2015q1/arm-none-eabi/include/c++/4.9.3/bitset **** 	for (size_t __i = 0; __i < _Nw; __i++)
 170:/opt/toolchains/gcc-arm-none-eabi-4_9-2015q1/arm-none-eabi/include/c++/4.9.3/bitset **** 	  _M_w[__i] = ~static_cast<_WordT>(0);
 171:/opt/toolchains/gcc-arm-none-eabi-4_9-2015q1/arm-none-eabi/include/c++/4.9.3/bitset ****       }
 172:/opt/toolchains/gcc-arm-none-eabi-4_9-2015q1/arm-none-eabi/include/c++/4.9.3/bitset **** 
 173:/opt/toolchains/gcc-arm-none-eabi-4_9-2015q1/arm-none-eabi/include/c++/4.9.3/bitset ****       void
 174:/opt/toolchains/gcc-arm-none-eabi-4_9-2015q1/arm-none-eabi/include/c++/4.9.3/bitset ****       _M_do_reset() _GLIBCXX_NOEXCEPT
 175:/opt/toolchains/gcc-arm-none-eabi-4_9-2015q1/arm-none-eabi/include/c++/4.9.3/bitset ****       { __builtin_memset(_M_w, 0, _Nw * sizeof(_WordT)); }
 176:/opt/toolchains/gcc-arm-none-eabi-4_9-2015q1/arm-none-eabi/include/c++/4.9.3/bitset **** 
 177:/opt/toolchains/gcc-arm-none-eabi-4_9-2015q1/arm-none-eabi/include/c++/4.9.3/bitset ****       bool
 178:/opt/toolchains/gcc-arm-none-eabi-4_9-2015q1/arm-none-eabi/include/c++/4.9.3/bitset ****       _M_is_equal(const _Base_bitset<_Nw>& __x) const _GLIBCXX_NOEXCEPT
 179:/opt/toolchains/gcc-arm-none-eabi-4_9-2015q1/arm-none-eabi/include/c++/4.9.3/bitset ****       {
 180:/opt/toolchains/gcc-arm-none-eabi-4_9-2015q1/arm-none-eabi/include/c++/4.9.3/bitset **** 	for (size_t __i = 0; __i < _Nw; ++__i)
 181:/opt/toolchains/gcc-arm-none-eabi-4_9-2015q1/arm-none-eabi/include/c++/4.9.3/bitset **** 	  if (_M_w[__i] != __x._M_w[__i])
 182:/opt/toolchains/gcc-arm-none-eabi-4_9-2015q1/arm-none-eabi/include/c++/4.9.3/bitset **** 	    return false;
 183:/opt/toolchains/gcc-arm-none-eabi-4_9-2015q1/arm-none-eabi/include/c++/4.9.3/bitset **** 	return true;
 184:/opt/toolchains/gcc-arm-none-eabi-4_9-2015q1/arm-none-eabi/include/c++/4.9.3/bitset ****       }
 185:/opt/toolchains/gcc-arm-none-eabi-4_9-2015q1/arm-none-eabi/include/c++/4.9.3/bitset **** 
 186:/opt/toolchains/gcc-arm-none-eabi-4_9-2015q1/arm-none-eabi/include/c++/4.9.3/bitset ****       template<size_t _Nb>
 187:/opt/toolchains/gcc-arm-none-eabi-4_9-2015q1/arm-none-eabi/include/c++/4.9.3/bitset ****         bool
 188:/opt/toolchains/gcc-arm-none-eabi-4_9-2015q1/arm-none-eabi/include/c++/4.9.3/bitset ****         _M_are_all() const _GLIBCXX_NOEXCEPT
 189:/opt/toolchains/gcc-arm-none-eabi-4_9-2015q1/arm-none-eabi/include/c++/4.9.3/bitset ****         {
 190:/opt/toolchains/gcc-arm-none-eabi-4_9-2015q1/arm-none-eabi/include/c++/4.9.3/bitset **** 	  for (size_t __i = 0; __i < _Nw - 1; __i++)
 191:/opt/toolchains/gcc-arm-none-eabi-4_9-2015q1/arm-none-eabi/include/c++/4.9.3/bitset **** 	    if (_M_w[__i] != ~static_cast<_WordT>(0))
 192:/opt/toolchains/gcc-arm-none-eabi-4_9-2015q1/arm-none-eabi/include/c++/4.9.3/bitset **** 	      return false;
 193:/opt/toolchains/gcc-arm-none-eabi-4_9-2015q1/arm-none-eabi/include/c++/4.9.3/bitset **** 	  return _M_hiword() == (~static_cast<_WordT>(0)
 194:/opt/toolchains/gcc-arm-none-eabi-4_9-2015q1/arm-none-eabi/include/c++/4.9.3/bitset **** 				 >> (_Nw * _GLIBCXX_BITSET_BITS_PER_WORD
 195:/opt/toolchains/gcc-arm-none-eabi-4_9-2015q1/arm-none-eabi/include/c++/4.9.3/bitset **** 				     - _Nb));
 196:/opt/toolchains/gcc-arm-none-eabi-4_9-2015q1/arm-none-eabi/include/c++/4.9.3/bitset **** 	}
 197:/opt/toolchains/gcc-arm-none-eabi-4_9-2015q1/arm-none-eabi/include/c++/4.9.3/bitset **** 
 198:/opt/toolchains/gcc-arm-none-eabi-4_9-2015q1/arm-none-eabi/include/c++/4.9.3/bitset ****       bool
 199:/opt/toolchains/gcc-arm-none-eabi-4_9-2015q1/arm-none-eabi/include/c++/4.9.3/bitset ****       _M_is_any() const _GLIBCXX_NOEXCEPT
 200:/opt/toolchains/gcc-arm-none-eabi-4_9-2015q1/arm-none-eabi/include/c++/4.9.3/bitset ****       {
 201:/opt/toolchains/gcc-arm-none-eabi-4_9-2015q1/arm-none-eabi/include/c++/4.9.3/bitset **** 	for (size_t __i = 0; __i < _Nw; __i++)
 202:/opt/toolchains/gcc-arm-none-eabi-4_9-2015q1/arm-none-eabi/include/c++/4.9.3/bitset **** 	  if (_M_w[__i] != static_cast<_WordT>(0))
 203:/opt/toolchains/gcc-arm-none-eabi-4_9-2015q1/arm-none-eabi/include/c++/4.9.3/bitset **** 	    return true;
 204:/opt/toolchains/gcc-arm-none-eabi-4_9-2015q1/arm-none-eabi/include/c++/4.9.3/bitset **** 	return false;
 205:/opt/toolchains/gcc-arm-none-eabi-4_9-2015q1/arm-none-eabi/include/c++/4.9.3/bitset ****       }
 206:/opt/toolchains/gcc-arm-none-eabi-4_9-2015q1/arm-none-eabi/include/c++/4.9.3/bitset **** 
 207:/opt/toolchains/gcc-arm-none-eabi-4_9-2015q1/arm-none-eabi/include/c++/4.9.3/bitset ****       size_t
 208:/opt/toolchains/gcc-arm-none-eabi-4_9-2015q1/arm-none-eabi/include/c++/4.9.3/bitset ****       _M_do_count() const _GLIBCXX_NOEXCEPT
 209:/opt/toolchains/gcc-arm-none-eabi-4_9-2015q1/arm-none-eabi/include/c++/4.9.3/bitset ****       {
 210:/opt/toolchains/gcc-arm-none-eabi-4_9-2015q1/arm-none-eabi/include/c++/4.9.3/bitset **** 	size_t __result = 0;
 211:/opt/toolchains/gcc-arm-none-eabi-4_9-2015q1/arm-none-eabi/include/c++/4.9.3/bitset **** 	for (size_t __i = 0; __i < _Nw; __i++)
 212:/opt/toolchains/gcc-arm-none-eabi-4_9-2015q1/arm-none-eabi/include/c++/4.9.3/bitset **** 	  __result += __builtin_popcountl(_M_w[__i]);
 213:/opt/toolchains/gcc-arm-none-eabi-4_9-2015q1/arm-none-eabi/include/c++/4.9.3/bitset **** 	return __result;
 214:/opt/toolchains/gcc-arm-none-eabi-4_9-2015q1/arm-none-eabi/include/c++/4.9.3/bitset ****       }
 215:/opt/toolchains/gcc-arm-none-eabi-4_9-2015q1/arm-none-eabi/include/c++/4.9.3/bitset **** 
 216:/opt/toolchains/gcc-arm-none-eabi-4_9-2015q1/arm-none-eabi/include/c++/4.9.3/bitset ****       unsigned long
 217:/opt/toolchains/gcc-arm-none-eabi-4_9-2015q1/arm-none-eabi/include/c++/4.9.3/bitset ****       _M_do_to_ulong() const;
 218:/opt/toolchains/gcc-arm-none-eabi-4_9-2015q1/arm-none-eabi/include/c++/4.9.3/bitset **** 
 219:/opt/toolchains/gcc-arm-none-eabi-4_9-2015q1/arm-none-eabi/include/c++/4.9.3/bitset **** #if __cplusplus >= 201103L
 220:/opt/toolchains/gcc-arm-none-eabi-4_9-2015q1/arm-none-eabi/include/c++/4.9.3/bitset ****       unsigned long long
 221:/opt/toolchains/gcc-arm-none-eabi-4_9-2015q1/arm-none-eabi/include/c++/4.9.3/bitset ****       _M_do_to_ullong() const;
 222:/opt/toolchains/gcc-arm-none-eabi-4_9-2015q1/arm-none-eabi/include/c++/4.9.3/bitset **** #endif
 223:/opt/toolchains/gcc-arm-none-eabi-4_9-2015q1/arm-none-eabi/include/c++/4.9.3/bitset **** 
 224:/opt/toolchains/gcc-arm-none-eabi-4_9-2015q1/arm-none-eabi/include/c++/4.9.3/bitset ****       // find first "on" bit
 225:/opt/toolchains/gcc-arm-none-eabi-4_9-2015q1/arm-none-eabi/include/c++/4.9.3/bitset ****       size_t
 226:/opt/toolchains/gcc-arm-none-eabi-4_9-2015q1/arm-none-eabi/include/c++/4.9.3/bitset ****       _M_do_find_first(size_t) const _GLIBCXX_NOEXCEPT;
 227:/opt/toolchains/gcc-arm-none-eabi-4_9-2015q1/arm-none-eabi/include/c++/4.9.3/bitset **** 
 228:/opt/toolchains/gcc-arm-none-eabi-4_9-2015q1/arm-none-eabi/include/c++/4.9.3/bitset ****       // find the next "on" bit that follows "prev"
 229:/opt/toolchains/gcc-arm-none-eabi-4_9-2015q1/arm-none-eabi/include/c++/4.9.3/bitset ****       size_t
 230:/opt/toolchains/gcc-arm-none-eabi-4_9-2015q1/arm-none-eabi/include/c++/4.9.3/bitset ****       _M_do_find_next(size_t, size_t) const _GLIBCXX_NOEXCEPT;
 231:/opt/toolchains/gcc-arm-none-eabi-4_9-2015q1/arm-none-eabi/include/c++/4.9.3/bitset ****     };
 232:/opt/toolchains/gcc-arm-none-eabi-4_9-2015q1/arm-none-eabi/include/c++/4.9.3/bitset **** 
 233:/opt/toolchains/gcc-arm-none-eabi-4_9-2015q1/arm-none-eabi/include/c++/4.9.3/bitset ****   // Definitions of non-inline functions from _Base_bitset.
 234:/opt/toolchains/gcc-arm-none-eabi-4_9-2015q1/arm-none-eabi/include/c++/4.9.3/bitset ****   template<size_t _Nw>
 235:/opt/toolchains/gcc-arm-none-eabi-4_9-2015q1/arm-none-eabi/include/c++/4.9.3/bitset ****     void
 236:/opt/toolchains/gcc-arm-none-eabi-4_9-2015q1/arm-none-eabi/include/c++/4.9.3/bitset ****     _Base_bitset<_Nw>::_M_do_left_shift(size_t __shift) _GLIBCXX_NOEXCEPT
 237:/opt/toolchains/gcc-arm-none-eabi-4_9-2015q1/arm-none-eabi/include/c++/4.9.3/bitset ****     {
 238:/opt/toolchains/gcc-arm-none-eabi-4_9-2015q1/arm-none-eabi/include/c++/4.9.3/bitset ****       if (__builtin_expect(__shift != 0, 1))
 239:/opt/toolchains/gcc-arm-none-eabi-4_9-2015q1/arm-none-eabi/include/c++/4.9.3/bitset **** 	{
 240:/opt/toolchains/gcc-arm-none-eabi-4_9-2015q1/arm-none-eabi/include/c++/4.9.3/bitset **** 	  const size_t __wshift = __shift / _GLIBCXX_BITSET_BITS_PER_WORD;
 241:/opt/toolchains/gcc-arm-none-eabi-4_9-2015q1/arm-none-eabi/include/c++/4.9.3/bitset **** 	  const size_t __offset = __shift % _GLIBCXX_BITSET_BITS_PER_WORD;
 242:/opt/toolchains/gcc-arm-none-eabi-4_9-2015q1/arm-none-eabi/include/c++/4.9.3/bitset **** 
 243:/opt/toolchains/gcc-arm-none-eabi-4_9-2015q1/arm-none-eabi/include/c++/4.9.3/bitset **** 	  if (__offset == 0)
 244:/opt/toolchains/gcc-arm-none-eabi-4_9-2015q1/arm-none-eabi/include/c++/4.9.3/bitset **** 	    for (size_t __n = _Nw - 1; __n >= __wshift; --__n)
 245:/opt/toolchains/gcc-arm-none-eabi-4_9-2015q1/arm-none-eabi/include/c++/4.9.3/bitset **** 	      _M_w[__n] = _M_w[__n - __wshift];
 246:/opt/toolchains/gcc-arm-none-eabi-4_9-2015q1/arm-none-eabi/include/c++/4.9.3/bitset **** 	  else
 247:/opt/toolchains/gcc-arm-none-eabi-4_9-2015q1/arm-none-eabi/include/c++/4.9.3/bitset **** 	    {
 248:/opt/toolchains/gcc-arm-none-eabi-4_9-2015q1/arm-none-eabi/include/c++/4.9.3/bitset **** 	      const size_t __sub_offset = (_GLIBCXX_BITSET_BITS_PER_WORD 
 249:/opt/toolchains/gcc-arm-none-eabi-4_9-2015q1/arm-none-eabi/include/c++/4.9.3/bitset **** 					   - __offset);
 250:/opt/toolchains/gcc-arm-none-eabi-4_9-2015q1/arm-none-eabi/include/c++/4.9.3/bitset **** 	      for (size_t __n = _Nw - 1; __n > __wshift; --__n)
 251:/opt/toolchains/gcc-arm-none-eabi-4_9-2015q1/arm-none-eabi/include/c++/4.9.3/bitset **** 		_M_w[__n] = ((_M_w[__n - __wshift] << __offset)
 252:/opt/toolchains/gcc-arm-none-eabi-4_9-2015q1/arm-none-eabi/include/c++/4.9.3/bitset **** 			     | (_M_w[__n - __wshift - 1] >> __sub_offset));
 253:/opt/toolchains/gcc-arm-none-eabi-4_9-2015q1/arm-none-eabi/include/c++/4.9.3/bitset **** 	      _M_w[__wshift] = _M_w[0] << __offset;
 254:/opt/toolchains/gcc-arm-none-eabi-4_9-2015q1/arm-none-eabi/include/c++/4.9.3/bitset **** 	    }
 255:/opt/toolchains/gcc-arm-none-eabi-4_9-2015q1/arm-none-eabi/include/c++/4.9.3/bitset **** 
 256:/opt/toolchains/gcc-arm-none-eabi-4_9-2015q1/arm-none-eabi/include/c++/4.9.3/bitset **** 	  std::fill(_M_w + 0, _M_w + __wshift, static_cast<_WordT>(0));
 257:/opt/toolchains/gcc-arm-none-eabi-4_9-2015q1/arm-none-eabi/include/c++/4.9.3/bitset **** 	}
 258:/opt/toolchains/gcc-arm-none-eabi-4_9-2015q1/arm-none-eabi/include/c++/4.9.3/bitset ****     }
 259:/opt/toolchains/gcc-arm-none-eabi-4_9-2015q1/arm-none-eabi/include/c++/4.9.3/bitset **** 
 260:/opt/toolchains/gcc-arm-none-eabi-4_9-2015q1/arm-none-eabi/include/c++/4.9.3/bitset ****   template<size_t _Nw>
 261:/opt/toolchains/gcc-arm-none-eabi-4_9-2015q1/arm-none-eabi/include/c++/4.9.3/bitset ****     void
 262:/opt/toolchains/gcc-arm-none-eabi-4_9-2015q1/arm-none-eabi/include/c++/4.9.3/bitset ****     _Base_bitset<_Nw>::_M_do_right_shift(size_t __shift) _GLIBCXX_NOEXCEPT
 263:/opt/toolchains/gcc-arm-none-eabi-4_9-2015q1/arm-none-eabi/include/c++/4.9.3/bitset ****     {
 264:/opt/toolchains/gcc-arm-none-eabi-4_9-2015q1/arm-none-eabi/include/c++/4.9.3/bitset ****       if (__builtin_expect(__shift != 0, 1))
 265:/opt/toolchains/gcc-arm-none-eabi-4_9-2015q1/arm-none-eabi/include/c++/4.9.3/bitset **** 	{
 266:/opt/toolchains/gcc-arm-none-eabi-4_9-2015q1/arm-none-eabi/include/c++/4.9.3/bitset **** 	  const size_t __wshift = __shift / _GLIBCXX_BITSET_BITS_PER_WORD;
 267:/opt/toolchains/gcc-arm-none-eabi-4_9-2015q1/arm-none-eabi/include/c++/4.9.3/bitset **** 	  const size_t __offset = __shift % _GLIBCXX_BITSET_BITS_PER_WORD;
 268:/opt/toolchains/gcc-arm-none-eabi-4_9-2015q1/arm-none-eabi/include/c++/4.9.3/bitset **** 	  const size_t __limit = _Nw - __wshift - 1;
 269:/opt/toolchains/gcc-arm-none-eabi-4_9-2015q1/arm-none-eabi/include/c++/4.9.3/bitset **** 
 270:/opt/toolchains/gcc-arm-none-eabi-4_9-2015q1/arm-none-eabi/include/c++/4.9.3/bitset **** 	  if (__offset == 0)
 271:/opt/toolchains/gcc-arm-none-eabi-4_9-2015q1/arm-none-eabi/include/c++/4.9.3/bitset **** 	    for (size_t __n = 0; __n <= __limit; ++__n)
 272:/opt/toolchains/gcc-arm-none-eabi-4_9-2015q1/arm-none-eabi/include/c++/4.9.3/bitset **** 	      _M_w[__n] = _M_w[__n + __wshift];
 273:/opt/toolchains/gcc-arm-none-eabi-4_9-2015q1/arm-none-eabi/include/c++/4.9.3/bitset **** 	  else
 274:/opt/toolchains/gcc-arm-none-eabi-4_9-2015q1/arm-none-eabi/include/c++/4.9.3/bitset **** 	    {
 275:/opt/toolchains/gcc-arm-none-eabi-4_9-2015q1/arm-none-eabi/include/c++/4.9.3/bitset **** 	      const size_t __sub_offset = (_GLIBCXX_BITSET_BITS_PER_WORD
 276:/opt/toolchains/gcc-arm-none-eabi-4_9-2015q1/arm-none-eabi/include/c++/4.9.3/bitset **** 					   - __offset);
 277:/opt/toolchains/gcc-arm-none-eabi-4_9-2015q1/arm-none-eabi/include/c++/4.9.3/bitset **** 	      for (size_t __n = 0; __n < __limit; ++__n)
 278:/opt/toolchains/gcc-arm-none-eabi-4_9-2015q1/arm-none-eabi/include/c++/4.9.3/bitset **** 		_M_w[__n] = ((_M_w[__n + __wshift] >> __offset)
 279:/opt/toolchains/gcc-arm-none-eabi-4_9-2015q1/arm-none-eabi/include/c++/4.9.3/bitset **** 			     | (_M_w[__n + __wshift + 1] << __sub_offset));
 280:/opt/toolchains/gcc-arm-none-eabi-4_9-2015q1/arm-none-eabi/include/c++/4.9.3/bitset **** 	      _M_w[__limit] = _M_w[_Nw-1] >> __offset;
 281:/opt/toolchains/gcc-arm-none-eabi-4_9-2015q1/arm-none-eabi/include/c++/4.9.3/bitset **** 	    }
 282:/opt/toolchains/gcc-arm-none-eabi-4_9-2015q1/arm-none-eabi/include/c++/4.9.3/bitset **** 	  
 283:/opt/toolchains/gcc-arm-none-eabi-4_9-2015q1/arm-none-eabi/include/c++/4.9.3/bitset **** 	  std::fill(_M_w + __limit + 1, _M_w + _Nw, static_cast<_WordT>(0));
 284:/opt/toolchains/gcc-arm-none-eabi-4_9-2015q1/arm-none-eabi/include/c++/4.9.3/bitset **** 	}
 285:/opt/toolchains/gcc-arm-none-eabi-4_9-2015q1/arm-none-eabi/include/c++/4.9.3/bitset ****     }
 286:/opt/toolchains/gcc-arm-none-eabi-4_9-2015q1/arm-none-eabi/include/c++/4.9.3/bitset **** 
 287:/opt/toolchains/gcc-arm-none-eabi-4_9-2015q1/arm-none-eabi/include/c++/4.9.3/bitset ****   template<size_t _Nw>
 288:/opt/toolchains/gcc-arm-none-eabi-4_9-2015q1/arm-none-eabi/include/c++/4.9.3/bitset ****     unsigned long
 289:/opt/toolchains/gcc-arm-none-eabi-4_9-2015q1/arm-none-eabi/include/c++/4.9.3/bitset ****     _Base_bitset<_Nw>::_M_do_to_ulong() const
 290:/opt/toolchains/gcc-arm-none-eabi-4_9-2015q1/arm-none-eabi/include/c++/4.9.3/bitset ****     {
 291:/opt/toolchains/gcc-arm-none-eabi-4_9-2015q1/arm-none-eabi/include/c++/4.9.3/bitset ****       for (size_t __i = 1; __i < _Nw; ++__i)
 292:/opt/toolchains/gcc-arm-none-eabi-4_9-2015q1/arm-none-eabi/include/c++/4.9.3/bitset **** 	if (_M_w[__i])
 293:/opt/toolchains/gcc-arm-none-eabi-4_9-2015q1/arm-none-eabi/include/c++/4.9.3/bitset **** 	  __throw_overflow_error(__N("_Base_bitset::_M_do_to_ulong"));
 294:/opt/toolchains/gcc-arm-none-eabi-4_9-2015q1/arm-none-eabi/include/c++/4.9.3/bitset ****       return _M_w[0];
 295:/opt/toolchains/gcc-arm-none-eabi-4_9-2015q1/arm-none-eabi/include/c++/4.9.3/bitset ****     }
 296:/opt/toolchains/gcc-arm-none-eabi-4_9-2015q1/arm-none-eabi/include/c++/4.9.3/bitset **** 
 297:/opt/toolchains/gcc-arm-none-eabi-4_9-2015q1/arm-none-eabi/include/c++/4.9.3/bitset **** #if __cplusplus >= 201103L
 298:/opt/toolchains/gcc-arm-none-eabi-4_9-2015q1/arm-none-eabi/include/c++/4.9.3/bitset ****   template<size_t _Nw>
 299:/opt/toolchains/gcc-arm-none-eabi-4_9-2015q1/arm-none-eabi/include/c++/4.9.3/bitset ****     unsigned long long
 300:/opt/toolchains/gcc-arm-none-eabi-4_9-2015q1/arm-none-eabi/include/c++/4.9.3/bitset ****     _Base_bitset<_Nw>::_M_do_to_ullong() const
 301:/opt/toolchains/gcc-arm-none-eabi-4_9-2015q1/arm-none-eabi/include/c++/4.9.3/bitset ****     {
 302:/opt/toolchains/gcc-arm-none-eabi-4_9-2015q1/arm-none-eabi/include/c++/4.9.3/bitset ****       const bool __dw = sizeof(unsigned long long) > sizeof(unsigned long);
 303:/opt/toolchains/gcc-arm-none-eabi-4_9-2015q1/arm-none-eabi/include/c++/4.9.3/bitset ****       for (size_t __i = 1 + __dw; __i < _Nw; ++__i)
 304:/opt/toolchains/gcc-arm-none-eabi-4_9-2015q1/arm-none-eabi/include/c++/4.9.3/bitset **** 	if (_M_w[__i])
 305:/opt/toolchains/gcc-arm-none-eabi-4_9-2015q1/arm-none-eabi/include/c++/4.9.3/bitset **** 	  __throw_overflow_error(__N("_Base_bitset::_M_do_to_ullong"));
 306:/opt/toolchains/gcc-arm-none-eabi-4_9-2015q1/arm-none-eabi/include/c++/4.9.3/bitset **** 
 307:/opt/toolchains/gcc-arm-none-eabi-4_9-2015q1/arm-none-eabi/include/c++/4.9.3/bitset ****       if (__dw)
 308:/opt/toolchains/gcc-arm-none-eabi-4_9-2015q1/arm-none-eabi/include/c++/4.9.3/bitset **** 	return _M_w[0] + (static_cast<unsigned long long>(_M_w[1])
 309:/opt/toolchains/gcc-arm-none-eabi-4_9-2015q1/arm-none-eabi/include/c++/4.9.3/bitset **** 			  << _GLIBCXX_BITSET_BITS_PER_WORD);
 310:/opt/toolchains/gcc-arm-none-eabi-4_9-2015q1/arm-none-eabi/include/c++/4.9.3/bitset ****       return _M_w[0];
 311:/opt/toolchains/gcc-arm-none-eabi-4_9-2015q1/arm-none-eabi/include/c++/4.9.3/bitset ****     }
 312:/opt/toolchains/gcc-arm-none-eabi-4_9-2015q1/arm-none-eabi/include/c++/4.9.3/bitset **** #endif
 313:/opt/toolchains/gcc-arm-none-eabi-4_9-2015q1/arm-none-eabi/include/c++/4.9.3/bitset **** 
 314:/opt/toolchains/gcc-arm-none-eabi-4_9-2015q1/arm-none-eabi/include/c++/4.9.3/bitset ****   template<size_t _Nw>
 315:/opt/toolchains/gcc-arm-none-eabi-4_9-2015q1/arm-none-eabi/include/c++/4.9.3/bitset ****     size_t
 316:/opt/toolchains/gcc-arm-none-eabi-4_9-2015q1/arm-none-eabi/include/c++/4.9.3/bitset ****     _Base_bitset<_Nw>::
 317:/opt/toolchains/gcc-arm-none-eabi-4_9-2015q1/arm-none-eabi/include/c++/4.9.3/bitset ****     _M_do_find_first(size_t __not_found) const _GLIBCXX_NOEXCEPT
 318:/opt/toolchains/gcc-arm-none-eabi-4_9-2015q1/arm-none-eabi/include/c++/4.9.3/bitset ****     {
 319:/opt/toolchains/gcc-arm-none-eabi-4_9-2015q1/arm-none-eabi/include/c++/4.9.3/bitset ****       for (size_t __i = 0; __i < _Nw; __i++)
 320:/opt/toolchains/gcc-arm-none-eabi-4_9-2015q1/arm-none-eabi/include/c++/4.9.3/bitset **** 	{
 321:/opt/toolchains/gcc-arm-none-eabi-4_9-2015q1/arm-none-eabi/include/c++/4.9.3/bitset **** 	  _WordT __thisword = _M_w[__i];
 322:/opt/toolchains/gcc-arm-none-eabi-4_9-2015q1/arm-none-eabi/include/c++/4.9.3/bitset **** 	  if (__thisword != static_cast<_WordT>(0))
 323:/opt/toolchains/gcc-arm-none-eabi-4_9-2015q1/arm-none-eabi/include/c++/4.9.3/bitset **** 	    return (__i * _GLIBCXX_BITSET_BITS_PER_WORD
 324:/opt/toolchains/gcc-arm-none-eabi-4_9-2015q1/arm-none-eabi/include/c++/4.9.3/bitset **** 		    + __builtin_ctzl(__thisword));
 325:/opt/toolchains/gcc-arm-none-eabi-4_9-2015q1/arm-none-eabi/include/c++/4.9.3/bitset **** 	}
 326:/opt/toolchains/gcc-arm-none-eabi-4_9-2015q1/arm-none-eabi/include/c++/4.9.3/bitset ****       // not found, so return an indication of failure.
 327:/opt/toolchains/gcc-arm-none-eabi-4_9-2015q1/arm-none-eabi/include/c++/4.9.3/bitset ****       return __not_found;
 328:/opt/toolchains/gcc-arm-none-eabi-4_9-2015q1/arm-none-eabi/include/c++/4.9.3/bitset ****     }
 329:/opt/toolchains/gcc-arm-none-eabi-4_9-2015q1/arm-none-eabi/include/c++/4.9.3/bitset **** 
 330:/opt/toolchains/gcc-arm-none-eabi-4_9-2015q1/arm-none-eabi/include/c++/4.9.3/bitset ****   template<size_t _Nw>
 331:/opt/toolchains/gcc-arm-none-eabi-4_9-2015q1/arm-none-eabi/include/c++/4.9.3/bitset ****     size_t
 332:/opt/toolchains/gcc-arm-none-eabi-4_9-2015q1/arm-none-eabi/include/c++/4.9.3/bitset ****     _Base_bitset<_Nw>::
 333:/opt/toolchains/gcc-arm-none-eabi-4_9-2015q1/arm-none-eabi/include/c++/4.9.3/bitset ****     _M_do_find_next(size_t __prev, size_t __not_found) const _GLIBCXX_NOEXCEPT
 334:/opt/toolchains/gcc-arm-none-eabi-4_9-2015q1/arm-none-eabi/include/c++/4.9.3/bitset ****     {
 335:/opt/toolchains/gcc-arm-none-eabi-4_9-2015q1/arm-none-eabi/include/c++/4.9.3/bitset ****       // make bound inclusive
 336:/opt/toolchains/gcc-arm-none-eabi-4_9-2015q1/arm-none-eabi/include/c++/4.9.3/bitset ****       ++__prev;
 337:/opt/toolchains/gcc-arm-none-eabi-4_9-2015q1/arm-none-eabi/include/c++/4.9.3/bitset **** 
 338:/opt/toolchains/gcc-arm-none-eabi-4_9-2015q1/arm-none-eabi/include/c++/4.9.3/bitset ****       // check out of bounds
 339:/opt/toolchains/gcc-arm-none-eabi-4_9-2015q1/arm-none-eabi/include/c++/4.9.3/bitset ****       if (__prev >= _Nw * _GLIBCXX_BITSET_BITS_PER_WORD)
 340:/opt/toolchains/gcc-arm-none-eabi-4_9-2015q1/arm-none-eabi/include/c++/4.9.3/bitset **** 	return __not_found;
 341:/opt/toolchains/gcc-arm-none-eabi-4_9-2015q1/arm-none-eabi/include/c++/4.9.3/bitset **** 
 342:/opt/toolchains/gcc-arm-none-eabi-4_9-2015q1/arm-none-eabi/include/c++/4.9.3/bitset ****       // search first word
 343:/opt/toolchains/gcc-arm-none-eabi-4_9-2015q1/arm-none-eabi/include/c++/4.9.3/bitset ****       size_t __i = _S_whichword(__prev);
 344:/opt/toolchains/gcc-arm-none-eabi-4_9-2015q1/arm-none-eabi/include/c++/4.9.3/bitset ****       _WordT __thisword = _M_w[__i];
 345:/opt/toolchains/gcc-arm-none-eabi-4_9-2015q1/arm-none-eabi/include/c++/4.9.3/bitset **** 
 346:/opt/toolchains/gcc-arm-none-eabi-4_9-2015q1/arm-none-eabi/include/c++/4.9.3/bitset ****       // mask off bits below bound
 347:/opt/toolchains/gcc-arm-none-eabi-4_9-2015q1/arm-none-eabi/include/c++/4.9.3/bitset ****       __thisword &= (~static_cast<_WordT>(0)) << _S_whichbit(__prev);
 348:/opt/toolchains/gcc-arm-none-eabi-4_9-2015q1/arm-none-eabi/include/c++/4.9.3/bitset **** 
 349:/opt/toolchains/gcc-arm-none-eabi-4_9-2015q1/arm-none-eabi/include/c++/4.9.3/bitset ****       if (__thisword != static_cast<_WordT>(0))
 350:/opt/toolchains/gcc-arm-none-eabi-4_9-2015q1/arm-none-eabi/include/c++/4.9.3/bitset **** 	return (__i * _GLIBCXX_BITSET_BITS_PER_WORD
 351:/opt/toolchains/gcc-arm-none-eabi-4_9-2015q1/arm-none-eabi/include/c++/4.9.3/bitset **** 		+ __builtin_ctzl(__thisword));
 352:/opt/toolchains/gcc-arm-none-eabi-4_9-2015q1/arm-none-eabi/include/c++/4.9.3/bitset **** 
 353:/opt/toolchains/gcc-arm-none-eabi-4_9-2015q1/arm-none-eabi/include/c++/4.9.3/bitset ****       // check subsequent words
 354:/opt/toolchains/gcc-arm-none-eabi-4_9-2015q1/arm-none-eabi/include/c++/4.9.3/bitset ****       __i++;
 355:/opt/toolchains/gcc-arm-none-eabi-4_9-2015q1/arm-none-eabi/include/c++/4.9.3/bitset ****       for (; __i < _Nw; __i++)
 356:/opt/toolchains/gcc-arm-none-eabi-4_9-2015q1/arm-none-eabi/include/c++/4.9.3/bitset **** 	{
 357:/opt/toolchains/gcc-arm-none-eabi-4_9-2015q1/arm-none-eabi/include/c++/4.9.3/bitset **** 	  __thisword = _M_w[__i];
 358:/opt/toolchains/gcc-arm-none-eabi-4_9-2015q1/arm-none-eabi/include/c++/4.9.3/bitset **** 	  if (__thisword != static_cast<_WordT>(0))
 359:/opt/toolchains/gcc-arm-none-eabi-4_9-2015q1/arm-none-eabi/include/c++/4.9.3/bitset **** 	    return (__i * _GLIBCXX_BITSET_BITS_PER_WORD
 360:/opt/toolchains/gcc-arm-none-eabi-4_9-2015q1/arm-none-eabi/include/c++/4.9.3/bitset **** 		    + __builtin_ctzl(__thisword));
 361:/opt/toolchains/gcc-arm-none-eabi-4_9-2015q1/arm-none-eabi/include/c++/4.9.3/bitset **** 	}
 362:/opt/toolchains/gcc-arm-none-eabi-4_9-2015q1/arm-none-eabi/include/c++/4.9.3/bitset ****       // not found, so return an indication of failure.
 363:/opt/toolchains/gcc-arm-none-eabi-4_9-2015q1/arm-none-eabi/include/c++/4.9.3/bitset ****       return __not_found;
 364:/opt/toolchains/gcc-arm-none-eabi-4_9-2015q1/arm-none-eabi/include/c++/4.9.3/bitset ****     } // end _M_do_find_next
 365:/opt/toolchains/gcc-arm-none-eabi-4_9-2015q1/arm-none-eabi/include/c++/4.9.3/bitset **** 
 366:/opt/toolchains/gcc-arm-none-eabi-4_9-2015q1/arm-none-eabi/include/c++/4.9.3/bitset ****   /**
 367:/opt/toolchains/gcc-arm-none-eabi-4_9-2015q1/arm-none-eabi/include/c++/4.9.3/bitset ****    *  Base class, specialization for a single word.
 368:/opt/toolchains/gcc-arm-none-eabi-4_9-2015q1/arm-none-eabi/include/c++/4.9.3/bitset ****    *
 369:/opt/toolchains/gcc-arm-none-eabi-4_9-2015q1/arm-none-eabi/include/c++/4.9.3/bitset ****    *  See documentation for bitset.
 370:/opt/toolchains/gcc-arm-none-eabi-4_9-2015q1/arm-none-eabi/include/c++/4.9.3/bitset ****   */
 371:/opt/toolchains/gcc-arm-none-eabi-4_9-2015q1/arm-none-eabi/include/c++/4.9.3/bitset ****   template<>
 372:/opt/toolchains/gcc-arm-none-eabi-4_9-2015q1/arm-none-eabi/include/c++/4.9.3/bitset ****     struct _Base_bitset<1>
 373:/opt/toolchains/gcc-arm-none-eabi-4_9-2015q1/arm-none-eabi/include/c++/4.9.3/bitset ****     {
 374:/opt/toolchains/gcc-arm-none-eabi-4_9-2015q1/arm-none-eabi/include/c++/4.9.3/bitset ****       typedef unsigned long _WordT;
 375:/opt/toolchains/gcc-arm-none-eabi-4_9-2015q1/arm-none-eabi/include/c++/4.9.3/bitset ****       _WordT _M_w;
 376:/opt/toolchains/gcc-arm-none-eabi-4_9-2015q1/arm-none-eabi/include/c++/4.9.3/bitset **** 
 377:/opt/toolchains/gcc-arm-none-eabi-4_9-2015q1/arm-none-eabi/include/c++/4.9.3/bitset ****       _GLIBCXX_CONSTEXPR _Base_bitset() _GLIBCXX_NOEXCEPT
 378:/opt/toolchains/gcc-arm-none-eabi-4_9-2015q1/arm-none-eabi/include/c++/4.9.3/bitset ****       : _M_w(0)
 379:/opt/toolchains/gcc-arm-none-eabi-4_9-2015q1/arm-none-eabi/include/c++/4.9.3/bitset ****       { }
 380:/opt/toolchains/gcc-arm-none-eabi-4_9-2015q1/arm-none-eabi/include/c++/4.9.3/bitset **** 
 381:/opt/toolchains/gcc-arm-none-eabi-4_9-2015q1/arm-none-eabi/include/c++/4.9.3/bitset **** #if __cplusplus >= 201103L
 382:/opt/toolchains/gcc-arm-none-eabi-4_9-2015q1/arm-none-eabi/include/c++/4.9.3/bitset ****       constexpr _Base_bitset(unsigned long long __val) noexcept
 383:/opt/toolchains/gcc-arm-none-eabi-4_9-2015q1/arm-none-eabi/include/c++/4.9.3/bitset **** #else
 384:/opt/toolchains/gcc-arm-none-eabi-4_9-2015q1/arm-none-eabi/include/c++/4.9.3/bitset ****       _Base_bitset(unsigned long __val)
 385:/opt/toolchains/gcc-arm-none-eabi-4_9-2015q1/arm-none-eabi/include/c++/4.9.3/bitset **** #endif
 386:/opt/toolchains/gcc-arm-none-eabi-4_9-2015q1/arm-none-eabi/include/c++/4.9.3/bitset ****       : _M_w(__val)
 387:/opt/toolchains/gcc-arm-none-eabi-4_9-2015q1/arm-none-eabi/include/c++/4.9.3/bitset ****       { }
 388:/opt/toolchains/gcc-arm-none-eabi-4_9-2015q1/arm-none-eabi/include/c++/4.9.3/bitset **** 
 389:/opt/toolchains/gcc-arm-none-eabi-4_9-2015q1/arm-none-eabi/include/c++/4.9.3/bitset ****       static _GLIBCXX_CONSTEXPR size_t
 390:/opt/toolchains/gcc-arm-none-eabi-4_9-2015q1/arm-none-eabi/include/c++/4.9.3/bitset ****       _S_whichword(size_t __pos) _GLIBCXX_NOEXCEPT
 391:/opt/toolchains/gcc-arm-none-eabi-4_9-2015q1/arm-none-eabi/include/c++/4.9.3/bitset ****       { return __pos / _GLIBCXX_BITSET_BITS_PER_WORD; }
 392:/opt/toolchains/gcc-arm-none-eabi-4_9-2015q1/arm-none-eabi/include/c++/4.9.3/bitset **** 
 393:/opt/toolchains/gcc-arm-none-eabi-4_9-2015q1/arm-none-eabi/include/c++/4.9.3/bitset ****       static _GLIBCXX_CONSTEXPR size_t
 394:/opt/toolchains/gcc-arm-none-eabi-4_9-2015q1/arm-none-eabi/include/c++/4.9.3/bitset ****       _S_whichbyte(size_t __pos) _GLIBCXX_NOEXCEPT
 395:/opt/toolchains/gcc-arm-none-eabi-4_9-2015q1/arm-none-eabi/include/c++/4.9.3/bitset ****       { return (__pos % _GLIBCXX_BITSET_BITS_PER_WORD) / __CHAR_BIT__; }
 396:/opt/toolchains/gcc-arm-none-eabi-4_9-2015q1/arm-none-eabi/include/c++/4.9.3/bitset **** 
 397:/opt/toolchains/gcc-arm-none-eabi-4_9-2015q1/arm-none-eabi/include/c++/4.9.3/bitset ****       static _GLIBCXX_CONSTEXPR size_t
 398:/opt/toolchains/gcc-arm-none-eabi-4_9-2015q1/arm-none-eabi/include/c++/4.9.3/bitset ****       _S_whichbit(size_t __pos) _GLIBCXX_NOEXCEPT
 399:/opt/toolchains/gcc-arm-none-eabi-4_9-2015q1/arm-none-eabi/include/c++/4.9.3/bitset ****       {  return __pos % _GLIBCXX_BITSET_BITS_PER_WORD; }
 233              		.loc 2 399 0
 234 00cc 01F01F01 		and	r1, r1, #31
 235              	.LVL29:
 236 00d0 D0F8A822 		ldr	r2, [r0, #680]
 237              	.LBE394:
 238              	.LBE393:
 239              	.LBE392:
 240              	.LBE391:
 241              	.LBB395:
 242              	.LBB396:
 243              	.LBB397:
 244              	.LBB398:
 245              	.LBB399:
 246              	.LBB400:
 400:/opt/toolchains/gcc-arm-none-eabi-4_9-2015q1/arm-none-eabi/include/c++/4.9.3/bitset **** 
 401:/opt/toolchains/gcc-arm-none-eabi-4_9-2015q1/arm-none-eabi/include/c++/4.9.3/bitset ****       static _GLIBCXX_CONSTEXPR _WordT
 402:/opt/toolchains/gcc-arm-none-eabi-4_9-2015q1/arm-none-eabi/include/c++/4.9.3/bitset ****       _S_maskbit(size_t __pos) _GLIBCXX_NOEXCEPT
 403:/opt/toolchains/gcc-arm-none-eabi-4_9-2015q1/arm-none-eabi/include/c++/4.9.3/bitset ****       { return (static_cast<_WordT>(1)) << _S_whichbit(__pos); }
 247              		.loc 2 403 0
 248 00d4 8B40     		lsls	r3, r3, r1
 249              	.LBE400:
 250              	.LBE399:
 251              	.LBE398:
 252              	.LBE397:
 404:/opt/toolchains/gcc-arm-none-eabi-4_9-2015q1/arm-none-eabi/include/c++/4.9.3/bitset **** 
 405:/opt/toolchains/gcc-arm-none-eabi-4_9-2015q1/arm-none-eabi/include/c++/4.9.3/bitset ****       _WordT&
 406:/opt/toolchains/gcc-arm-none-eabi-4_9-2015q1/arm-none-eabi/include/c++/4.9.3/bitset ****       _M_getword(size_t) _GLIBCXX_NOEXCEPT
 407:/opt/toolchains/gcc-arm-none-eabi-4_9-2015q1/arm-none-eabi/include/c++/4.9.3/bitset ****       { return _M_w; }
 408:/opt/toolchains/gcc-arm-none-eabi-4_9-2015q1/arm-none-eabi/include/c++/4.9.3/bitset **** 
 409:/opt/toolchains/gcc-arm-none-eabi-4_9-2015q1/arm-none-eabi/include/c++/4.9.3/bitset ****       _GLIBCXX_CONSTEXPR _WordT
 410:/opt/toolchains/gcc-arm-none-eabi-4_9-2015q1/arm-none-eabi/include/c++/4.9.3/bitset ****       _M_getword(size_t) const _GLIBCXX_NOEXCEPT
 411:/opt/toolchains/gcc-arm-none-eabi-4_9-2015q1/arm-none-eabi/include/c++/4.9.3/bitset ****       { return _M_w; }
 412:/opt/toolchains/gcc-arm-none-eabi-4_9-2015q1/arm-none-eabi/include/c++/4.9.3/bitset **** 
 413:/opt/toolchains/gcc-arm-none-eabi-4_9-2015q1/arm-none-eabi/include/c++/4.9.3/bitset **** #if __cplusplus >= 201103L
 414:/opt/toolchains/gcc-arm-none-eabi-4_9-2015q1/arm-none-eabi/include/c++/4.9.3/bitset ****       const _WordT*
 415:/opt/toolchains/gcc-arm-none-eabi-4_9-2015q1/arm-none-eabi/include/c++/4.9.3/bitset ****       _M_getdata() const noexcept
 416:/opt/toolchains/gcc-arm-none-eabi-4_9-2015q1/arm-none-eabi/include/c++/4.9.3/bitset ****       { return &_M_w; }
 417:/opt/toolchains/gcc-arm-none-eabi-4_9-2015q1/arm-none-eabi/include/c++/4.9.3/bitset **** #endif
 418:/opt/toolchains/gcc-arm-none-eabi-4_9-2015q1/arm-none-eabi/include/c++/4.9.3/bitset **** 
 419:/opt/toolchains/gcc-arm-none-eabi-4_9-2015q1/arm-none-eabi/include/c++/4.9.3/bitset ****       _WordT&
 420:/opt/toolchains/gcc-arm-none-eabi-4_9-2015q1/arm-none-eabi/include/c++/4.9.3/bitset ****       _M_hiword() _GLIBCXX_NOEXCEPT
 421:/opt/toolchains/gcc-arm-none-eabi-4_9-2015q1/arm-none-eabi/include/c++/4.9.3/bitset ****       { return _M_w; }
 422:/opt/toolchains/gcc-arm-none-eabi-4_9-2015q1/arm-none-eabi/include/c++/4.9.3/bitset **** 
 423:/opt/toolchains/gcc-arm-none-eabi-4_9-2015q1/arm-none-eabi/include/c++/4.9.3/bitset ****       _GLIBCXX_CONSTEXPR _WordT
 424:/opt/toolchains/gcc-arm-none-eabi-4_9-2015q1/arm-none-eabi/include/c++/4.9.3/bitset ****       _M_hiword() const _GLIBCXX_NOEXCEPT
 425:/opt/toolchains/gcc-arm-none-eabi-4_9-2015q1/arm-none-eabi/include/c++/4.9.3/bitset ****       { return _M_w; }
 426:/opt/toolchains/gcc-arm-none-eabi-4_9-2015q1/arm-none-eabi/include/c++/4.9.3/bitset **** 
 427:/opt/toolchains/gcc-arm-none-eabi-4_9-2015q1/arm-none-eabi/include/c++/4.9.3/bitset ****       void
 428:/opt/toolchains/gcc-arm-none-eabi-4_9-2015q1/arm-none-eabi/include/c++/4.9.3/bitset ****       _M_do_and(const _Base_bitset<1>& __x) _GLIBCXX_NOEXCEPT
 429:/opt/toolchains/gcc-arm-none-eabi-4_9-2015q1/arm-none-eabi/include/c++/4.9.3/bitset ****       { _M_w &= __x._M_w; }
 430:/opt/toolchains/gcc-arm-none-eabi-4_9-2015q1/arm-none-eabi/include/c++/4.9.3/bitset **** 
 431:/opt/toolchains/gcc-arm-none-eabi-4_9-2015q1/arm-none-eabi/include/c++/4.9.3/bitset ****       void
 432:/opt/toolchains/gcc-arm-none-eabi-4_9-2015q1/arm-none-eabi/include/c++/4.9.3/bitset ****       _M_do_or(const _Base_bitset<1>& __x) _GLIBCXX_NOEXCEPT
 433:/opt/toolchains/gcc-arm-none-eabi-4_9-2015q1/arm-none-eabi/include/c++/4.9.3/bitset ****       { _M_w |= __x._M_w; }
 434:/opt/toolchains/gcc-arm-none-eabi-4_9-2015q1/arm-none-eabi/include/c++/4.9.3/bitset **** 
 435:/opt/toolchains/gcc-arm-none-eabi-4_9-2015q1/arm-none-eabi/include/c++/4.9.3/bitset ****       void
 436:/opt/toolchains/gcc-arm-none-eabi-4_9-2015q1/arm-none-eabi/include/c++/4.9.3/bitset ****       _M_do_xor(const _Base_bitset<1>& __x) _GLIBCXX_NOEXCEPT
 437:/opt/toolchains/gcc-arm-none-eabi-4_9-2015q1/arm-none-eabi/include/c++/4.9.3/bitset ****       { _M_w ^= __x._M_w; }
 438:/opt/toolchains/gcc-arm-none-eabi-4_9-2015q1/arm-none-eabi/include/c++/4.9.3/bitset **** 
 439:/opt/toolchains/gcc-arm-none-eabi-4_9-2015q1/arm-none-eabi/include/c++/4.9.3/bitset ****       void
 440:/opt/toolchains/gcc-arm-none-eabi-4_9-2015q1/arm-none-eabi/include/c++/4.9.3/bitset ****       _M_do_left_shift(size_t __shift) _GLIBCXX_NOEXCEPT
 441:/opt/toolchains/gcc-arm-none-eabi-4_9-2015q1/arm-none-eabi/include/c++/4.9.3/bitset ****       { _M_w <<= __shift; }
 442:/opt/toolchains/gcc-arm-none-eabi-4_9-2015q1/arm-none-eabi/include/c++/4.9.3/bitset **** 
 443:/opt/toolchains/gcc-arm-none-eabi-4_9-2015q1/arm-none-eabi/include/c++/4.9.3/bitset ****       void
 444:/opt/toolchains/gcc-arm-none-eabi-4_9-2015q1/arm-none-eabi/include/c++/4.9.3/bitset ****       _M_do_right_shift(size_t __shift) _GLIBCXX_NOEXCEPT
 445:/opt/toolchains/gcc-arm-none-eabi-4_9-2015q1/arm-none-eabi/include/c++/4.9.3/bitset ****       { _M_w >>= __shift; }
 446:/opt/toolchains/gcc-arm-none-eabi-4_9-2015q1/arm-none-eabi/include/c++/4.9.3/bitset **** 
 447:/opt/toolchains/gcc-arm-none-eabi-4_9-2015q1/arm-none-eabi/include/c++/4.9.3/bitset ****       void
 448:/opt/toolchains/gcc-arm-none-eabi-4_9-2015q1/arm-none-eabi/include/c++/4.9.3/bitset ****       _M_do_flip() _GLIBCXX_NOEXCEPT
 449:/opt/toolchains/gcc-arm-none-eabi-4_9-2015q1/arm-none-eabi/include/c++/4.9.3/bitset ****       { _M_w = ~_M_w; }
 450:/opt/toolchains/gcc-arm-none-eabi-4_9-2015q1/arm-none-eabi/include/c++/4.9.3/bitset **** 
 451:/opt/toolchains/gcc-arm-none-eabi-4_9-2015q1/arm-none-eabi/include/c++/4.9.3/bitset ****       void
 452:/opt/toolchains/gcc-arm-none-eabi-4_9-2015q1/arm-none-eabi/include/c++/4.9.3/bitset ****       _M_do_set() _GLIBCXX_NOEXCEPT
 453:/opt/toolchains/gcc-arm-none-eabi-4_9-2015q1/arm-none-eabi/include/c++/4.9.3/bitset ****       { _M_w = ~static_cast<_WordT>(0); }
 454:/opt/toolchains/gcc-arm-none-eabi-4_9-2015q1/arm-none-eabi/include/c++/4.9.3/bitset **** 
 455:/opt/toolchains/gcc-arm-none-eabi-4_9-2015q1/arm-none-eabi/include/c++/4.9.3/bitset ****       void
 456:/opt/toolchains/gcc-arm-none-eabi-4_9-2015q1/arm-none-eabi/include/c++/4.9.3/bitset ****       _M_do_reset() _GLIBCXX_NOEXCEPT
 457:/opt/toolchains/gcc-arm-none-eabi-4_9-2015q1/arm-none-eabi/include/c++/4.9.3/bitset ****       { _M_w = 0; }
 458:/opt/toolchains/gcc-arm-none-eabi-4_9-2015q1/arm-none-eabi/include/c++/4.9.3/bitset **** 
 459:/opt/toolchains/gcc-arm-none-eabi-4_9-2015q1/arm-none-eabi/include/c++/4.9.3/bitset ****       bool
 460:/opt/toolchains/gcc-arm-none-eabi-4_9-2015q1/arm-none-eabi/include/c++/4.9.3/bitset ****       _M_is_equal(const _Base_bitset<1>& __x) const _GLIBCXX_NOEXCEPT
 461:/opt/toolchains/gcc-arm-none-eabi-4_9-2015q1/arm-none-eabi/include/c++/4.9.3/bitset ****       { return _M_w == __x._M_w; }
 462:/opt/toolchains/gcc-arm-none-eabi-4_9-2015q1/arm-none-eabi/include/c++/4.9.3/bitset **** 
 463:/opt/toolchains/gcc-arm-none-eabi-4_9-2015q1/arm-none-eabi/include/c++/4.9.3/bitset ****       template<size_t _Nb>
 464:/opt/toolchains/gcc-arm-none-eabi-4_9-2015q1/arm-none-eabi/include/c++/4.9.3/bitset ****         bool
 465:/opt/toolchains/gcc-arm-none-eabi-4_9-2015q1/arm-none-eabi/include/c++/4.9.3/bitset ****         _M_are_all() const _GLIBCXX_NOEXCEPT
 466:/opt/toolchains/gcc-arm-none-eabi-4_9-2015q1/arm-none-eabi/include/c++/4.9.3/bitset ****         { return _M_w == (~static_cast<_WordT>(0)
 467:/opt/toolchains/gcc-arm-none-eabi-4_9-2015q1/arm-none-eabi/include/c++/4.9.3/bitset **** 			  >> (_GLIBCXX_BITSET_BITS_PER_WORD - _Nb)); }
 468:/opt/toolchains/gcc-arm-none-eabi-4_9-2015q1/arm-none-eabi/include/c++/4.9.3/bitset **** 
 469:/opt/toolchains/gcc-arm-none-eabi-4_9-2015q1/arm-none-eabi/include/c++/4.9.3/bitset ****       bool
 470:/opt/toolchains/gcc-arm-none-eabi-4_9-2015q1/arm-none-eabi/include/c++/4.9.3/bitset ****       _M_is_any() const _GLIBCXX_NOEXCEPT
 471:/opt/toolchains/gcc-arm-none-eabi-4_9-2015q1/arm-none-eabi/include/c++/4.9.3/bitset ****       { return _M_w != 0; }
 472:/opt/toolchains/gcc-arm-none-eabi-4_9-2015q1/arm-none-eabi/include/c++/4.9.3/bitset **** 
 473:/opt/toolchains/gcc-arm-none-eabi-4_9-2015q1/arm-none-eabi/include/c++/4.9.3/bitset ****       size_t
 474:/opt/toolchains/gcc-arm-none-eabi-4_9-2015q1/arm-none-eabi/include/c++/4.9.3/bitset ****       _M_do_count() const _GLIBCXX_NOEXCEPT
 475:/opt/toolchains/gcc-arm-none-eabi-4_9-2015q1/arm-none-eabi/include/c++/4.9.3/bitset ****       { return __builtin_popcountl(_M_w); }
 476:/opt/toolchains/gcc-arm-none-eabi-4_9-2015q1/arm-none-eabi/include/c++/4.9.3/bitset **** 
 477:/opt/toolchains/gcc-arm-none-eabi-4_9-2015q1/arm-none-eabi/include/c++/4.9.3/bitset ****       unsigned long
 478:/opt/toolchains/gcc-arm-none-eabi-4_9-2015q1/arm-none-eabi/include/c++/4.9.3/bitset ****       _M_do_to_ulong() const _GLIBCXX_NOEXCEPT
 479:/opt/toolchains/gcc-arm-none-eabi-4_9-2015q1/arm-none-eabi/include/c++/4.9.3/bitset ****       { return _M_w; }
 480:/opt/toolchains/gcc-arm-none-eabi-4_9-2015q1/arm-none-eabi/include/c++/4.9.3/bitset **** 
 481:/opt/toolchains/gcc-arm-none-eabi-4_9-2015q1/arm-none-eabi/include/c++/4.9.3/bitset **** #if __cplusplus >= 201103L
 482:/opt/toolchains/gcc-arm-none-eabi-4_9-2015q1/arm-none-eabi/include/c++/4.9.3/bitset ****       unsigned long long
 483:/opt/toolchains/gcc-arm-none-eabi-4_9-2015q1/arm-none-eabi/include/c++/4.9.3/bitset ****       _M_do_to_ullong() const noexcept
 484:/opt/toolchains/gcc-arm-none-eabi-4_9-2015q1/arm-none-eabi/include/c++/4.9.3/bitset ****       { return _M_w; }
 485:/opt/toolchains/gcc-arm-none-eabi-4_9-2015q1/arm-none-eabi/include/c++/4.9.3/bitset **** #endif
 486:/opt/toolchains/gcc-arm-none-eabi-4_9-2015q1/arm-none-eabi/include/c++/4.9.3/bitset **** 
 487:/opt/toolchains/gcc-arm-none-eabi-4_9-2015q1/arm-none-eabi/include/c++/4.9.3/bitset ****       size_t
 488:/opt/toolchains/gcc-arm-none-eabi-4_9-2015q1/arm-none-eabi/include/c++/4.9.3/bitset ****       _M_do_find_first(size_t __not_found) const _GLIBCXX_NOEXCEPT
 489:/opt/toolchains/gcc-arm-none-eabi-4_9-2015q1/arm-none-eabi/include/c++/4.9.3/bitset ****       {
 490:/opt/toolchains/gcc-arm-none-eabi-4_9-2015q1/arm-none-eabi/include/c++/4.9.3/bitset ****         if (_M_w != 0)
 491:/opt/toolchains/gcc-arm-none-eabi-4_9-2015q1/arm-none-eabi/include/c++/4.9.3/bitset ****           return __builtin_ctzl(_M_w);
 492:/opt/toolchains/gcc-arm-none-eabi-4_9-2015q1/arm-none-eabi/include/c++/4.9.3/bitset ****         else
 493:/opt/toolchains/gcc-arm-none-eabi-4_9-2015q1/arm-none-eabi/include/c++/4.9.3/bitset ****           return __not_found;
 494:/opt/toolchains/gcc-arm-none-eabi-4_9-2015q1/arm-none-eabi/include/c++/4.9.3/bitset ****       }
 495:/opt/toolchains/gcc-arm-none-eabi-4_9-2015q1/arm-none-eabi/include/c++/4.9.3/bitset **** 
 496:/opt/toolchains/gcc-arm-none-eabi-4_9-2015q1/arm-none-eabi/include/c++/4.9.3/bitset ****       // find the next "on" bit that follows "prev"
 497:/opt/toolchains/gcc-arm-none-eabi-4_9-2015q1/arm-none-eabi/include/c++/4.9.3/bitset ****       size_t
 498:/opt/toolchains/gcc-arm-none-eabi-4_9-2015q1/arm-none-eabi/include/c++/4.9.3/bitset ****       _M_do_find_next(size_t __prev, size_t __not_found) const
 499:/opt/toolchains/gcc-arm-none-eabi-4_9-2015q1/arm-none-eabi/include/c++/4.9.3/bitset **** 	_GLIBCXX_NOEXCEPT
 500:/opt/toolchains/gcc-arm-none-eabi-4_9-2015q1/arm-none-eabi/include/c++/4.9.3/bitset ****       {
 501:/opt/toolchains/gcc-arm-none-eabi-4_9-2015q1/arm-none-eabi/include/c++/4.9.3/bitset **** 	++__prev;
 502:/opt/toolchains/gcc-arm-none-eabi-4_9-2015q1/arm-none-eabi/include/c++/4.9.3/bitset **** 	if (__prev >= ((size_t) _GLIBCXX_BITSET_BITS_PER_WORD))
 503:/opt/toolchains/gcc-arm-none-eabi-4_9-2015q1/arm-none-eabi/include/c++/4.9.3/bitset **** 	  return __not_found;
 504:/opt/toolchains/gcc-arm-none-eabi-4_9-2015q1/arm-none-eabi/include/c++/4.9.3/bitset **** 
 505:/opt/toolchains/gcc-arm-none-eabi-4_9-2015q1/arm-none-eabi/include/c++/4.9.3/bitset **** 	_WordT __x = _M_w >> __prev;
 506:/opt/toolchains/gcc-arm-none-eabi-4_9-2015q1/arm-none-eabi/include/c++/4.9.3/bitset **** 	if (__x != 0)
 507:/opt/toolchains/gcc-arm-none-eabi-4_9-2015q1/arm-none-eabi/include/c++/4.9.3/bitset **** 	  return __builtin_ctzl(__x) + __prev;
 508:/opt/toolchains/gcc-arm-none-eabi-4_9-2015q1/arm-none-eabi/include/c++/4.9.3/bitset **** 	else
 509:/opt/toolchains/gcc-arm-none-eabi-4_9-2015q1/arm-none-eabi/include/c++/4.9.3/bitset **** 	  return __not_found;
 510:/opt/toolchains/gcc-arm-none-eabi-4_9-2015q1/arm-none-eabi/include/c++/4.9.3/bitset ****       }
 511:/opt/toolchains/gcc-arm-none-eabi-4_9-2015q1/arm-none-eabi/include/c++/4.9.3/bitset ****     };
 512:/opt/toolchains/gcc-arm-none-eabi-4_9-2015q1/arm-none-eabi/include/c++/4.9.3/bitset **** 
 513:/opt/toolchains/gcc-arm-none-eabi-4_9-2015q1/arm-none-eabi/include/c++/4.9.3/bitset ****   /**
 514:/opt/toolchains/gcc-arm-none-eabi-4_9-2015q1/arm-none-eabi/include/c++/4.9.3/bitset ****    *  Base class, specialization for no storage (zero-length %bitset).
 515:/opt/toolchains/gcc-arm-none-eabi-4_9-2015q1/arm-none-eabi/include/c++/4.9.3/bitset ****    *
 516:/opt/toolchains/gcc-arm-none-eabi-4_9-2015q1/arm-none-eabi/include/c++/4.9.3/bitset ****    *  See documentation for bitset.
 517:/opt/toolchains/gcc-arm-none-eabi-4_9-2015q1/arm-none-eabi/include/c++/4.9.3/bitset ****   */
 518:/opt/toolchains/gcc-arm-none-eabi-4_9-2015q1/arm-none-eabi/include/c++/4.9.3/bitset ****   template<>
 519:/opt/toolchains/gcc-arm-none-eabi-4_9-2015q1/arm-none-eabi/include/c++/4.9.3/bitset ****     struct _Base_bitset<0>
 520:/opt/toolchains/gcc-arm-none-eabi-4_9-2015q1/arm-none-eabi/include/c++/4.9.3/bitset ****     {
 521:/opt/toolchains/gcc-arm-none-eabi-4_9-2015q1/arm-none-eabi/include/c++/4.9.3/bitset ****       typedef unsigned long _WordT;
 522:/opt/toolchains/gcc-arm-none-eabi-4_9-2015q1/arm-none-eabi/include/c++/4.9.3/bitset **** 
 523:/opt/toolchains/gcc-arm-none-eabi-4_9-2015q1/arm-none-eabi/include/c++/4.9.3/bitset ****       _GLIBCXX_CONSTEXPR _Base_bitset() _GLIBCXX_NOEXCEPT
 524:/opt/toolchains/gcc-arm-none-eabi-4_9-2015q1/arm-none-eabi/include/c++/4.9.3/bitset ****       { }
 525:/opt/toolchains/gcc-arm-none-eabi-4_9-2015q1/arm-none-eabi/include/c++/4.9.3/bitset **** 
 526:/opt/toolchains/gcc-arm-none-eabi-4_9-2015q1/arm-none-eabi/include/c++/4.9.3/bitset **** #if __cplusplus >= 201103L
 527:/opt/toolchains/gcc-arm-none-eabi-4_9-2015q1/arm-none-eabi/include/c++/4.9.3/bitset ****       constexpr _Base_bitset(unsigned long long) noexcept
 528:/opt/toolchains/gcc-arm-none-eabi-4_9-2015q1/arm-none-eabi/include/c++/4.9.3/bitset **** #else
 529:/opt/toolchains/gcc-arm-none-eabi-4_9-2015q1/arm-none-eabi/include/c++/4.9.3/bitset ****       _Base_bitset(unsigned long)
 530:/opt/toolchains/gcc-arm-none-eabi-4_9-2015q1/arm-none-eabi/include/c++/4.9.3/bitset **** #endif
 531:/opt/toolchains/gcc-arm-none-eabi-4_9-2015q1/arm-none-eabi/include/c++/4.9.3/bitset ****       { }
 532:/opt/toolchains/gcc-arm-none-eabi-4_9-2015q1/arm-none-eabi/include/c++/4.9.3/bitset **** 
 533:/opt/toolchains/gcc-arm-none-eabi-4_9-2015q1/arm-none-eabi/include/c++/4.9.3/bitset ****       static _GLIBCXX_CONSTEXPR size_t
 534:/opt/toolchains/gcc-arm-none-eabi-4_9-2015q1/arm-none-eabi/include/c++/4.9.3/bitset ****       _S_whichword(size_t __pos) _GLIBCXX_NOEXCEPT
 535:/opt/toolchains/gcc-arm-none-eabi-4_9-2015q1/arm-none-eabi/include/c++/4.9.3/bitset ****       { return __pos / _GLIBCXX_BITSET_BITS_PER_WORD; }
 536:/opt/toolchains/gcc-arm-none-eabi-4_9-2015q1/arm-none-eabi/include/c++/4.9.3/bitset **** 
 537:/opt/toolchains/gcc-arm-none-eabi-4_9-2015q1/arm-none-eabi/include/c++/4.9.3/bitset ****       static _GLIBCXX_CONSTEXPR size_t
 538:/opt/toolchains/gcc-arm-none-eabi-4_9-2015q1/arm-none-eabi/include/c++/4.9.3/bitset ****       _S_whichbyte(size_t __pos) _GLIBCXX_NOEXCEPT
 539:/opt/toolchains/gcc-arm-none-eabi-4_9-2015q1/arm-none-eabi/include/c++/4.9.3/bitset ****       { return (__pos % _GLIBCXX_BITSET_BITS_PER_WORD) / __CHAR_BIT__; }
 540:/opt/toolchains/gcc-arm-none-eabi-4_9-2015q1/arm-none-eabi/include/c++/4.9.3/bitset **** 
 541:/opt/toolchains/gcc-arm-none-eabi-4_9-2015q1/arm-none-eabi/include/c++/4.9.3/bitset ****       static _GLIBCXX_CONSTEXPR size_t
 542:/opt/toolchains/gcc-arm-none-eabi-4_9-2015q1/arm-none-eabi/include/c++/4.9.3/bitset ****       _S_whichbit(size_t __pos) _GLIBCXX_NOEXCEPT
 543:/opt/toolchains/gcc-arm-none-eabi-4_9-2015q1/arm-none-eabi/include/c++/4.9.3/bitset ****       {  return __pos % _GLIBCXX_BITSET_BITS_PER_WORD; }
 544:/opt/toolchains/gcc-arm-none-eabi-4_9-2015q1/arm-none-eabi/include/c++/4.9.3/bitset **** 
 545:/opt/toolchains/gcc-arm-none-eabi-4_9-2015q1/arm-none-eabi/include/c++/4.9.3/bitset ****       static _GLIBCXX_CONSTEXPR _WordT
 546:/opt/toolchains/gcc-arm-none-eabi-4_9-2015q1/arm-none-eabi/include/c++/4.9.3/bitset ****       _S_maskbit(size_t __pos) _GLIBCXX_NOEXCEPT
 547:/opt/toolchains/gcc-arm-none-eabi-4_9-2015q1/arm-none-eabi/include/c++/4.9.3/bitset ****       { return (static_cast<_WordT>(1)) << _S_whichbit(__pos); }
 548:/opt/toolchains/gcc-arm-none-eabi-4_9-2015q1/arm-none-eabi/include/c++/4.9.3/bitset **** 
 549:/opt/toolchains/gcc-arm-none-eabi-4_9-2015q1/arm-none-eabi/include/c++/4.9.3/bitset ****       // This would normally give access to the data.  The bounds-checking
 550:/opt/toolchains/gcc-arm-none-eabi-4_9-2015q1/arm-none-eabi/include/c++/4.9.3/bitset ****       // in the bitset class will prevent the user from getting this far,
 551:/opt/toolchains/gcc-arm-none-eabi-4_9-2015q1/arm-none-eabi/include/c++/4.9.3/bitset ****       // but (1) it must still return an lvalue to compile, and (2) the
 552:/opt/toolchains/gcc-arm-none-eabi-4_9-2015q1/arm-none-eabi/include/c++/4.9.3/bitset ****       // user might call _Unchecked_set directly, in which case this /needs/
 553:/opt/toolchains/gcc-arm-none-eabi-4_9-2015q1/arm-none-eabi/include/c++/4.9.3/bitset ****       // to fail.  Let's not penalize zero-length users unless they actually
 554:/opt/toolchains/gcc-arm-none-eabi-4_9-2015q1/arm-none-eabi/include/c++/4.9.3/bitset ****       // make an unchecked call; all the memory ugliness is therefore
 555:/opt/toolchains/gcc-arm-none-eabi-4_9-2015q1/arm-none-eabi/include/c++/4.9.3/bitset ****       // localized to this single should-never-get-this-far function.
 556:/opt/toolchains/gcc-arm-none-eabi-4_9-2015q1/arm-none-eabi/include/c++/4.9.3/bitset ****       _WordT&
 557:/opt/toolchains/gcc-arm-none-eabi-4_9-2015q1/arm-none-eabi/include/c++/4.9.3/bitset ****       _M_getword(size_t) _GLIBCXX_NOEXCEPT
 558:/opt/toolchains/gcc-arm-none-eabi-4_9-2015q1/arm-none-eabi/include/c++/4.9.3/bitset ****       {
 559:/opt/toolchains/gcc-arm-none-eabi-4_9-2015q1/arm-none-eabi/include/c++/4.9.3/bitset **** 	__throw_out_of_range(__N("_Base_bitset::_M_getword")); 
 560:/opt/toolchains/gcc-arm-none-eabi-4_9-2015q1/arm-none-eabi/include/c++/4.9.3/bitset **** 	return *new _WordT;
 561:/opt/toolchains/gcc-arm-none-eabi-4_9-2015q1/arm-none-eabi/include/c++/4.9.3/bitset ****       }
 562:/opt/toolchains/gcc-arm-none-eabi-4_9-2015q1/arm-none-eabi/include/c++/4.9.3/bitset **** 
 563:/opt/toolchains/gcc-arm-none-eabi-4_9-2015q1/arm-none-eabi/include/c++/4.9.3/bitset ****       _GLIBCXX_CONSTEXPR _WordT
 564:/opt/toolchains/gcc-arm-none-eabi-4_9-2015q1/arm-none-eabi/include/c++/4.9.3/bitset ****       _M_getword(size_t __pos) const _GLIBCXX_NOEXCEPT
 565:/opt/toolchains/gcc-arm-none-eabi-4_9-2015q1/arm-none-eabi/include/c++/4.9.3/bitset ****       { return 0; }
 566:/opt/toolchains/gcc-arm-none-eabi-4_9-2015q1/arm-none-eabi/include/c++/4.9.3/bitset **** 
 567:/opt/toolchains/gcc-arm-none-eabi-4_9-2015q1/arm-none-eabi/include/c++/4.9.3/bitset ****       _GLIBCXX_CONSTEXPR _WordT
 568:/opt/toolchains/gcc-arm-none-eabi-4_9-2015q1/arm-none-eabi/include/c++/4.9.3/bitset ****       _M_hiword() const _GLIBCXX_NOEXCEPT
 569:/opt/toolchains/gcc-arm-none-eabi-4_9-2015q1/arm-none-eabi/include/c++/4.9.3/bitset ****       { return 0; }
 570:/opt/toolchains/gcc-arm-none-eabi-4_9-2015q1/arm-none-eabi/include/c++/4.9.3/bitset **** 
 571:/opt/toolchains/gcc-arm-none-eabi-4_9-2015q1/arm-none-eabi/include/c++/4.9.3/bitset ****       void
 572:/opt/toolchains/gcc-arm-none-eabi-4_9-2015q1/arm-none-eabi/include/c++/4.9.3/bitset ****       _M_do_and(const _Base_bitset<0>&) _GLIBCXX_NOEXCEPT
 573:/opt/toolchains/gcc-arm-none-eabi-4_9-2015q1/arm-none-eabi/include/c++/4.9.3/bitset ****       { }
 574:/opt/toolchains/gcc-arm-none-eabi-4_9-2015q1/arm-none-eabi/include/c++/4.9.3/bitset **** 
 575:/opt/toolchains/gcc-arm-none-eabi-4_9-2015q1/arm-none-eabi/include/c++/4.9.3/bitset ****       void
 576:/opt/toolchains/gcc-arm-none-eabi-4_9-2015q1/arm-none-eabi/include/c++/4.9.3/bitset ****       _M_do_or(const _Base_bitset<0>&) _GLIBCXX_NOEXCEPT
 577:/opt/toolchains/gcc-arm-none-eabi-4_9-2015q1/arm-none-eabi/include/c++/4.9.3/bitset ****       { }
 578:/opt/toolchains/gcc-arm-none-eabi-4_9-2015q1/arm-none-eabi/include/c++/4.9.3/bitset **** 
 579:/opt/toolchains/gcc-arm-none-eabi-4_9-2015q1/arm-none-eabi/include/c++/4.9.3/bitset ****       void
 580:/opt/toolchains/gcc-arm-none-eabi-4_9-2015q1/arm-none-eabi/include/c++/4.9.3/bitset ****       _M_do_xor(const _Base_bitset<0>&) _GLIBCXX_NOEXCEPT
 581:/opt/toolchains/gcc-arm-none-eabi-4_9-2015q1/arm-none-eabi/include/c++/4.9.3/bitset ****       { }
 582:/opt/toolchains/gcc-arm-none-eabi-4_9-2015q1/arm-none-eabi/include/c++/4.9.3/bitset **** 
 583:/opt/toolchains/gcc-arm-none-eabi-4_9-2015q1/arm-none-eabi/include/c++/4.9.3/bitset ****       void
 584:/opt/toolchains/gcc-arm-none-eabi-4_9-2015q1/arm-none-eabi/include/c++/4.9.3/bitset ****       _M_do_left_shift(size_t) _GLIBCXX_NOEXCEPT
 585:/opt/toolchains/gcc-arm-none-eabi-4_9-2015q1/arm-none-eabi/include/c++/4.9.3/bitset ****       { }
 586:/opt/toolchains/gcc-arm-none-eabi-4_9-2015q1/arm-none-eabi/include/c++/4.9.3/bitset **** 
 587:/opt/toolchains/gcc-arm-none-eabi-4_9-2015q1/arm-none-eabi/include/c++/4.9.3/bitset ****       void
 588:/opt/toolchains/gcc-arm-none-eabi-4_9-2015q1/arm-none-eabi/include/c++/4.9.3/bitset ****       _M_do_right_shift(size_t) _GLIBCXX_NOEXCEPT
 589:/opt/toolchains/gcc-arm-none-eabi-4_9-2015q1/arm-none-eabi/include/c++/4.9.3/bitset ****       { }
 590:/opt/toolchains/gcc-arm-none-eabi-4_9-2015q1/arm-none-eabi/include/c++/4.9.3/bitset **** 
 591:/opt/toolchains/gcc-arm-none-eabi-4_9-2015q1/arm-none-eabi/include/c++/4.9.3/bitset ****       void
 592:/opt/toolchains/gcc-arm-none-eabi-4_9-2015q1/arm-none-eabi/include/c++/4.9.3/bitset ****       _M_do_flip() _GLIBCXX_NOEXCEPT
 593:/opt/toolchains/gcc-arm-none-eabi-4_9-2015q1/arm-none-eabi/include/c++/4.9.3/bitset ****       { }
 594:/opt/toolchains/gcc-arm-none-eabi-4_9-2015q1/arm-none-eabi/include/c++/4.9.3/bitset **** 
 595:/opt/toolchains/gcc-arm-none-eabi-4_9-2015q1/arm-none-eabi/include/c++/4.9.3/bitset ****       void
 596:/opt/toolchains/gcc-arm-none-eabi-4_9-2015q1/arm-none-eabi/include/c++/4.9.3/bitset ****       _M_do_set() _GLIBCXX_NOEXCEPT
 597:/opt/toolchains/gcc-arm-none-eabi-4_9-2015q1/arm-none-eabi/include/c++/4.9.3/bitset ****       { }
 598:/opt/toolchains/gcc-arm-none-eabi-4_9-2015q1/arm-none-eabi/include/c++/4.9.3/bitset **** 
 599:/opt/toolchains/gcc-arm-none-eabi-4_9-2015q1/arm-none-eabi/include/c++/4.9.3/bitset ****       void
 600:/opt/toolchains/gcc-arm-none-eabi-4_9-2015q1/arm-none-eabi/include/c++/4.9.3/bitset ****       _M_do_reset() _GLIBCXX_NOEXCEPT
 601:/opt/toolchains/gcc-arm-none-eabi-4_9-2015q1/arm-none-eabi/include/c++/4.9.3/bitset ****       { }
 602:/opt/toolchains/gcc-arm-none-eabi-4_9-2015q1/arm-none-eabi/include/c++/4.9.3/bitset **** 
 603:/opt/toolchains/gcc-arm-none-eabi-4_9-2015q1/arm-none-eabi/include/c++/4.9.3/bitset ****       // Are all empty bitsets equal to each other?  Are they equal to
 604:/opt/toolchains/gcc-arm-none-eabi-4_9-2015q1/arm-none-eabi/include/c++/4.9.3/bitset ****       // themselves?  How to compare a thing which has no state?  What is
 605:/opt/toolchains/gcc-arm-none-eabi-4_9-2015q1/arm-none-eabi/include/c++/4.9.3/bitset ****       // the sound of one zero-length bitset clapping?
 606:/opt/toolchains/gcc-arm-none-eabi-4_9-2015q1/arm-none-eabi/include/c++/4.9.3/bitset ****       bool
 607:/opt/toolchains/gcc-arm-none-eabi-4_9-2015q1/arm-none-eabi/include/c++/4.9.3/bitset ****       _M_is_equal(const _Base_bitset<0>&) const _GLIBCXX_NOEXCEPT
 608:/opt/toolchains/gcc-arm-none-eabi-4_9-2015q1/arm-none-eabi/include/c++/4.9.3/bitset ****       { return true; }
 609:/opt/toolchains/gcc-arm-none-eabi-4_9-2015q1/arm-none-eabi/include/c++/4.9.3/bitset **** 
 610:/opt/toolchains/gcc-arm-none-eabi-4_9-2015q1/arm-none-eabi/include/c++/4.9.3/bitset ****       template<size_t _Nb>
 611:/opt/toolchains/gcc-arm-none-eabi-4_9-2015q1/arm-none-eabi/include/c++/4.9.3/bitset ****         bool
 612:/opt/toolchains/gcc-arm-none-eabi-4_9-2015q1/arm-none-eabi/include/c++/4.9.3/bitset ****         _M_are_all() const _GLIBCXX_NOEXCEPT
 613:/opt/toolchains/gcc-arm-none-eabi-4_9-2015q1/arm-none-eabi/include/c++/4.9.3/bitset ****         { return true; }
 614:/opt/toolchains/gcc-arm-none-eabi-4_9-2015q1/arm-none-eabi/include/c++/4.9.3/bitset **** 
 615:/opt/toolchains/gcc-arm-none-eabi-4_9-2015q1/arm-none-eabi/include/c++/4.9.3/bitset ****       bool
 616:/opt/toolchains/gcc-arm-none-eabi-4_9-2015q1/arm-none-eabi/include/c++/4.9.3/bitset ****       _M_is_any() const _GLIBCXX_NOEXCEPT
 617:/opt/toolchains/gcc-arm-none-eabi-4_9-2015q1/arm-none-eabi/include/c++/4.9.3/bitset ****       { return false; }
 618:/opt/toolchains/gcc-arm-none-eabi-4_9-2015q1/arm-none-eabi/include/c++/4.9.3/bitset **** 
 619:/opt/toolchains/gcc-arm-none-eabi-4_9-2015q1/arm-none-eabi/include/c++/4.9.3/bitset ****       size_t
 620:/opt/toolchains/gcc-arm-none-eabi-4_9-2015q1/arm-none-eabi/include/c++/4.9.3/bitset ****       _M_do_count() const _GLIBCXX_NOEXCEPT
 621:/opt/toolchains/gcc-arm-none-eabi-4_9-2015q1/arm-none-eabi/include/c++/4.9.3/bitset ****       { return 0; }
 622:/opt/toolchains/gcc-arm-none-eabi-4_9-2015q1/arm-none-eabi/include/c++/4.9.3/bitset **** 
 623:/opt/toolchains/gcc-arm-none-eabi-4_9-2015q1/arm-none-eabi/include/c++/4.9.3/bitset ****       unsigned long
 624:/opt/toolchains/gcc-arm-none-eabi-4_9-2015q1/arm-none-eabi/include/c++/4.9.3/bitset ****       _M_do_to_ulong() const _GLIBCXX_NOEXCEPT
 625:/opt/toolchains/gcc-arm-none-eabi-4_9-2015q1/arm-none-eabi/include/c++/4.9.3/bitset ****       { return 0; }
 626:/opt/toolchains/gcc-arm-none-eabi-4_9-2015q1/arm-none-eabi/include/c++/4.9.3/bitset **** 
 627:/opt/toolchains/gcc-arm-none-eabi-4_9-2015q1/arm-none-eabi/include/c++/4.9.3/bitset **** #if __cplusplus >= 201103L
 628:/opt/toolchains/gcc-arm-none-eabi-4_9-2015q1/arm-none-eabi/include/c++/4.9.3/bitset ****       unsigned long long
 629:/opt/toolchains/gcc-arm-none-eabi-4_9-2015q1/arm-none-eabi/include/c++/4.9.3/bitset ****       _M_do_to_ullong() const noexcept
 630:/opt/toolchains/gcc-arm-none-eabi-4_9-2015q1/arm-none-eabi/include/c++/4.9.3/bitset ****       { return 0; }
 631:/opt/toolchains/gcc-arm-none-eabi-4_9-2015q1/arm-none-eabi/include/c++/4.9.3/bitset **** #endif
 632:/opt/toolchains/gcc-arm-none-eabi-4_9-2015q1/arm-none-eabi/include/c++/4.9.3/bitset **** 
 633:/opt/toolchains/gcc-arm-none-eabi-4_9-2015q1/arm-none-eabi/include/c++/4.9.3/bitset ****       // Normally "not found" is the size, but that could also be
 634:/opt/toolchains/gcc-arm-none-eabi-4_9-2015q1/arm-none-eabi/include/c++/4.9.3/bitset ****       // misinterpreted as an index in this corner case.  Oh well.
 635:/opt/toolchains/gcc-arm-none-eabi-4_9-2015q1/arm-none-eabi/include/c++/4.9.3/bitset ****       size_t
 636:/opt/toolchains/gcc-arm-none-eabi-4_9-2015q1/arm-none-eabi/include/c++/4.9.3/bitset ****       _M_do_find_first(size_t) const _GLIBCXX_NOEXCEPT
 637:/opt/toolchains/gcc-arm-none-eabi-4_9-2015q1/arm-none-eabi/include/c++/4.9.3/bitset ****       { return 0; }
 638:/opt/toolchains/gcc-arm-none-eabi-4_9-2015q1/arm-none-eabi/include/c++/4.9.3/bitset **** 
 639:/opt/toolchains/gcc-arm-none-eabi-4_9-2015q1/arm-none-eabi/include/c++/4.9.3/bitset ****       size_t
 640:/opt/toolchains/gcc-arm-none-eabi-4_9-2015q1/arm-none-eabi/include/c++/4.9.3/bitset ****       _M_do_find_next(size_t, size_t) const _GLIBCXX_NOEXCEPT
 641:/opt/toolchains/gcc-arm-none-eabi-4_9-2015q1/arm-none-eabi/include/c++/4.9.3/bitset ****       { return 0; }
 642:/opt/toolchains/gcc-arm-none-eabi-4_9-2015q1/arm-none-eabi/include/c++/4.9.3/bitset ****     };
 643:/opt/toolchains/gcc-arm-none-eabi-4_9-2015q1/arm-none-eabi/include/c++/4.9.3/bitset **** 
 644:/opt/toolchains/gcc-arm-none-eabi-4_9-2015q1/arm-none-eabi/include/c++/4.9.3/bitset **** 
 645:/opt/toolchains/gcc-arm-none-eabi-4_9-2015q1/arm-none-eabi/include/c++/4.9.3/bitset ****   // Helper class to zero out the unused high-order bits in the highest word.
 646:/opt/toolchains/gcc-arm-none-eabi-4_9-2015q1/arm-none-eabi/include/c++/4.9.3/bitset ****   template<size_t _Extrabits>
 647:/opt/toolchains/gcc-arm-none-eabi-4_9-2015q1/arm-none-eabi/include/c++/4.9.3/bitset ****     struct _Sanitize
 648:/opt/toolchains/gcc-arm-none-eabi-4_9-2015q1/arm-none-eabi/include/c++/4.9.3/bitset ****     {
 649:/opt/toolchains/gcc-arm-none-eabi-4_9-2015q1/arm-none-eabi/include/c++/4.9.3/bitset ****       typedef unsigned long _WordT;
 650:/opt/toolchains/gcc-arm-none-eabi-4_9-2015q1/arm-none-eabi/include/c++/4.9.3/bitset **** 
 651:/opt/toolchains/gcc-arm-none-eabi-4_9-2015q1/arm-none-eabi/include/c++/4.9.3/bitset ****       static void
 652:/opt/toolchains/gcc-arm-none-eabi-4_9-2015q1/arm-none-eabi/include/c++/4.9.3/bitset ****       _S_do_sanitize(_WordT& __val) _GLIBCXX_NOEXCEPT
 653:/opt/toolchains/gcc-arm-none-eabi-4_9-2015q1/arm-none-eabi/include/c++/4.9.3/bitset ****       { __val &= ~((~static_cast<_WordT>(0)) << _Extrabits); }
 654:/opt/toolchains/gcc-arm-none-eabi-4_9-2015q1/arm-none-eabi/include/c++/4.9.3/bitset ****     };
 655:/opt/toolchains/gcc-arm-none-eabi-4_9-2015q1/arm-none-eabi/include/c++/4.9.3/bitset **** 
 656:/opt/toolchains/gcc-arm-none-eabi-4_9-2015q1/arm-none-eabi/include/c++/4.9.3/bitset ****   template<>
 657:/opt/toolchains/gcc-arm-none-eabi-4_9-2015q1/arm-none-eabi/include/c++/4.9.3/bitset ****     struct _Sanitize<0>
 658:/opt/toolchains/gcc-arm-none-eabi-4_9-2015q1/arm-none-eabi/include/c++/4.9.3/bitset ****     {
 659:/opt/toolchains/gcc-arm-none-eabi-4_9-2015q1/arm-none-eabi/include/c++/4.9.3/bitset ****       typedef unsigned long _WordT;
 660:/opt/toolchains/gcc-arm-none-eabi-4_9-2015q1/arm-none-eabi/include/c++/4.9.3/bitset **** 
 661:/opt/toolchains/gcc-arm-none-eabi-4_9-2015q1/arm-none-eabi/include/c++/4.9.3/bitset ****       static void
 662:/opt/toolchains/gcc-arm-none-eabi-4_9-2015q1/arm-none-eabi/include/c++/4.9.3/bitset ****       _S_do_sanitize(_WordT) _GLIBCXX_NOEXCEPT { } 
 663:/opt/toolchains/gcc-arm-none-eabi-4_9-2015q1/arm-none-eabi/include/c++/4.9.3/bitset ****     };
 664:/opt/toolchains/gcc-arm-none-eabi-4_9-2015q1/arm-none-eabi/include/c++/4.9.3/bitset **** 
 665:/opt/toolchains/gcc-arm-none-eabi-4_9-2015q1/arm-none-eabi/include/c++/4.9.3/bitset **** #if __cplusplus >= 201103L
 666:/opt/toolchains/gcc-arm-none-eabi-4_9-2015q1/arm-none-eabi/include/c++/4.9.3/bitset ****   template<size_t _Nb, bool = _Nb < _GLIBCXX_BITSET_BITS_PER_ULL>
 667:/opt/toolchains/gcc-arm-none-eabi-4_9-2015q1/arm-none-eabi/include/c++/4.9.3/bitset ****     struct _Sanitize_val
 668:/opt/toolchains/gcc-arm-none-eabi-4_9-2015q1/arm-none-eabi/include/c++/4.9.3/bitset ****     {
 669:/opt/toolchains/gcc-arm-none-eabi-4_9-2015q1/arm-none-eabi/include/c++/4.9.3/bitset ****       static constexpr unsigned long long
 670:/opt/toolchains/gcc-arm-none-eabi-4_9-2015q1/arm-none-eabi/include/c++/4.9.3/bitset ****       _S_do_sanitize_val(unsigned long long __val)
 671:/opt/toolchains/gcc-arm-none-eabi-4_9-2015q1/arm-none-eabi/include/c++/4.9.3/bitset ****       { return __val; }
 672:/opt/toolchains/gcc-arm-none-eabi-4_9-2015q1/arm-none-eabi/include/c++/4.9.3/bitset ****     };
 673:/opt/toolchains/gcc-arm-none-eabi-4_9-2015q1/arm-none-eabi/include/c++/4.9.3/bitset **** 
 674:/opt/toolchains/gcc-arm-none-eabi-4_9-2015q1/arm-none-eabi/include/c++/4.9.3/bitset ****   template<size_t _Nb>
 675:/opt/toolchains/gcc-arm-none-eabi-4_9-2015q1/arm-none-eabi/include/c++/4.9.3/bitset ****     struct _Sanitize_val<_Nb, true>
 676:/opt/toolchains/gcc-arm-none-eabi-4_9-2015q1/arm-none-eabi/include/c++/4.9.3/bitset ****     {
 677:/opt/toolchains/gcc-arm-none-eabi-4_9-2015q1/arm-none-eabi/include/c++/4.9.3/bitset ****       static constexpr unsigned long long
 678:/opt/toolchains/gcc-arm-none-eabi-4_9-2015q1/arm-none-eabi/include/c++/4.9.3/bitset ****       _S_do_sanitize_val(unsigned long long __val)
 679:/opt/toolchains/gcc-arm-none-eabi-4_9-2015q1/arm-none-eabi/include/c++/4.9.3/bitset ****       { return __val & ~((~static_cast<unsigned long long>(0)) << _Nb); }
 680:/opt/toolchains/gcc-arm-none-eabi-4_9-2015q1/arm-none-eabi/include/c++/4.9.3/bitset ****     };
 681:/opt/toolchains/gcc-arm-none-eabi-4_9-2015q1/arm-none-eabi/include/c++/4.9.3/bitset **** #endif
 682:/opt/toolchains/gcc-arm-none-eabi-4_9-2015q1/arm-none-eabi/include/c++/4.9.3/bitset **** 
 683:/opt/toolchains/gcc-arm-none-eabi-4_9-2015q1/arm-none-eabi/include/c++/4.9.3/bitset ****   /**
 684:/opt/toolchains/gcc-arm-none-eabi-4_9-2015q1/arm-none-eabi/include/c++/4.9.3/bitset ****    *  The %bitset class represents a @e fixed-size sequence of bits.
 685:/opt/toolchains/gcc-arm-none-eabi-4_9-2015q1/arm-none-eabi/include/c++/4.9.3/bitset ****    *
 686:/opt/toolchains/gcc-arm-none-eabi-4_9-2015q1/arm-none-eabi/include/c++/4.9.3/bitset ****    *  @ingroup containers
 687:/opt/toolchains/gcc-arm-none-eabi-4_9-2015q1/arm-none-eabi/include/c++/4.9.3/bitset ****    *
 688:/opt/toolchains/gcc-arm-none-eabi-4_9-2015q1/arm-none-eabi/include/c++/4.9.3/bitset ****    *  (Note that %bitset does @e not meet the formal requirements of a
 689:/opt/toolchains/gcc-arm-none-eabi-4_9-2015q1/arm-none-eabi/include/c++/4.9.3/bitset ****    *  <a href="tables.html#65">container</a>.  Mainly, it lacks iterators.)
 690:/opt/toolchains/gcc-arm-none-eabi-4_9-2015q1/arm-none-eabi/include/c++/4.9.3/bitset ****    *
 691:/opt/toolchains/gcc-arm-none-eabi-4_9-2015q1/arm-none-eabi/include/c++/4.9.3/bitset ****    *  The template argument, @a Nb, may be any non-negative number,
 692:/opt/toolchains/gcc-arm-none-eabi-4_9-2015q1/arm-none-eabi/include/c++/4.9.3/bitset ****    *  specifying the number of bits (e.g., "0", "12", "1024*1024").
 693:/opt/toolchains/gcc-arm-none-eabi-4_9-2015q1/arm-none-eabi/include/c++/4.9.3/bitset ****    *
 694:/opt/toolchains/gcc-arm-none-eabi-4_9-2015q1/arm-none-eabi/include/c++/4.9.3/bitset ****    *  In the general unoptimized case, storage is allocated in word-sized
 695:/opt/toolchains/gcc-arm-none-eabi-4_9-2015q1/arm-none-eabi/include/c++/4.9.3/bitset ****    *  blocks.  Let B be the number of bits in a word, then (Nb+(B-1))/B
 696:/opt/toolchains/gcc-arm-none-eabi-4_9-2015q1/arm-none-eabi/include/c++/4.9.3/bitset ****    *  words will be used for storage.  B - Nb%B bits are unused.  (They are
 697:/opt/toolchains/gcc-arm-none-eabi-4_9-2015q1/arm-none-eabi/include/c++/4.9.3/bitset ****    *  the high-order bits in the highest word.)  It is a class invariant
 698:/opt/toolchains/gcc-arm-none-eabi-4_9-2015q1/arm-none-eabi/include/c++/4.9.3/bitset ****    *  that those unused bits are always zero.
 699:/opt/toolchains/gcc-arm-none-eabi-4_9-2015q1/arm-none-eabi/include/c++/4.9.3/bitset ****    *
 700:/opt/toolchains/gcc-arm-none-eabi-4_9-2015q1/arm-none-eabi/include/c++/4.9.3/bitset ****    *  If you think of %bitset as <em>a simple array of bits</em>, be
 701:/opt/toolchains/gcc-arm-none-eabi-4_9-2015q1/arm-none-eabi/include/c++/4.9.3/bitset ****    *  aware that your mental picture is reversed: a %bitset behaves
 702:/opt/toolchains/gcc-arm-none-eabi-4_9-2015q1/arm-none-eabi/include/c++/4.9.3/bitset ****    *  the same way as bits in integers do, with the bit at index 0 in
 703:/opt/toolchains/gcc-arm-none-eabi-4_9-2015q1/arm-none-eabi/include/c++/4.9.3/bitset ****    *  the <em>least significant / right-hand</em> position, and the bit at
 704:/opt/toolchains/gcc-arm-none-eabi-4_9-2015q1/arm-none-eabi/include/c++/4.9.3/bitset ****    *  index Nb-1 in the <em>most significant / left-hand</em> position.
 705:/opt/toolchains/gcc-arm-none-eabi-4_9-2015q1/arm-none-eabi/include/c++/4.9.3/bitset ****    *  Thus, unlike other containers, a %bitset's index <em>counts from
 706:/opt/toolchains/gcc-arm-none-eabi-4_9-2015q1/arm-none-eabi/include/c++/4.9.3/bitset ****    *  right to left</em>, to put it very loosely.
 707:/opt/toolchains/gcc-arm-none-eabi-4_9-2015q1/arm-none-eabi/include/c++/4.9.3/bitset ****    *
 708:/opt/toolchains/gcc-arm-none-eabi-4_9-2015q1/arm-none-eabi/include/c++/4.9.3/bitset ****    *  This behavior is preserved when translating to and from strings.  For
 709:/opt/toolchains/gcc-arm-none-eabi-4_9-2015q1/arm-none-eabi/include/c++/4.9.3/bitset ****    *  example, the first line of the following program probably prints
 710:/opt/toolchains/gcc-arm-none-eabi-4_9-2015q1/arm-none-eabi/include/c++/4.9.3/bitset ****    *  <em>b(&apos;a&apos;) is 0001100001</em> on a modern ASCII system.
 711:/opt/toolchains/gcc-arm-none-eabi-4_9-2015q1/arm-none-eabi/include/c++/4.9.3/bitset ****    *
 712:/opt/toolchains/gcc-arm-none-eabi-4_9-2015q1/arm-none-eabi/include/c++/4.9.3/bitset ****    *  @code
 713:/opt/toolchains/gcc-arm-none-eabi-4_9-2015q1/arm-none-eabi/include/c++/4.9.3/bitset ****    *     #include <bitset>
 714:/opt/toolchains/gcc-arm-none-eabi-4_9-2015q1/arm-none-eabi/include/c++/4.9.3/bitset ****    *     #include <iostream>
 715:/opt/toolchains/gcc-arm-none-eabi-4_9-2015q1/arm-none-eabi/include/c++/4.9.3/bitset ****    *     #include <sstream>
 716:/opt/toolchains/gcc-arm-none-eabi-4_9-2015q1/arm-none-eabi/include/c++/4.9.3/bitset ****    *
 717:/opt/toolchains/gcc-arm-none-eabi-4_9-2015q1/arm-none-eabi/include/c++/4.9.3/bitset ****    *     using namespace std;
 718:/opt/toolchains/gcc-arm-none-eabi-4_9-2015q1/arm-none-eabi/include/c++/4.9.3/bitset ****    *
 719:/opt/toolchains/gcc-arm-none-eabi-4_9-2015q1/arm-none-eabi/include/c++/4.9.3/bitset ****    *     int main()
 720:/opt/toolchains/gcc-arm-none-eabi-4_9-2015q1/arm-none-eabi/include/c++/4.9.3/bitset ****    *     {
 721:/opt/toolchains/gcc-arm-none-eabi-4_9-2015q1/arm-none-eabi/include/c++/4.9.3/bitset ****    *         long         a = 'a';
 722:/opt/toolchains/gcc-arm-none-eabi-4_9-2015q1/arm-none-eabi/include/c++/4.9.3/bitset ****    *         bitset<10>   b(a);
 723:/opt/toolchains/gcc-arm-none-eabi-4_9-2015q1/arm-none-eabi/include/c++/4.9.3/bitset ****    *
 724:/opt/toolchains/gcc-arm-none-eabi-4_9-2015q1/arm-none-eabi/include/c++/4.9.3/bitset ****    *         cout << "b('a') is " << b << endl;
 725:/opt/toolchains/gcc-arm-none-eabi-4_9-2015q1/arm-none-eabi/include/c++/4.9.3/bitset ****    *
 726:/opt/toolchains/gcc-arm-none-eabi-4_9-2015q1/arm-none-eabi/include/c++/4.9.3/bitset ****    *         ostringstream s;
 727:/opt/toolchains/gcc-arm-none-eabi-4_9-2015q1/arm-none-eabi/include/c++/4.9.3/bitset ****    *         s << b;
 728:/opt/toolchains/gcc-arm-none-eabi-4_9-2015q1/arm-none-eabi/include/c++/4.9.3/bitset ****    *         string  str = s.str();
 729:/opt/toolchains/gcc-arm-none-eabi-4_9-2015q1/arm-none-eabi/include/c++/4.9.3/bitset ****    *         cout << "index 3 in the string is " << str[3] << " but\n"
 730:/opt/toolchains/gcc-arm-none-eabi-4_9-2015q1/arm-none-eabi/include/c++/4.9.3/bitset ****    *              << "index 3 in the bitset is " << b[3] << endl;
 731:/opt/toolchains/gcc-arm-none-eabi-4_9-2015q1/arm-none-eabi/include/c++/4.9.3/bitset ****    *     }
 732:/opt/toolchains/gcc-arm-none-eabi-4_9-2015q1/arm-none-eabi/include/c++/4.9.3/bitset ****    *  @endcode
 733:/opt/toolchains/gcc-arm-none-eabi-4_9-2015q1/arm-none-eabi/include/c++/4.9.3/bitset ****    *
 734:/opt/toolchains/gcc-arm-none-eabi-4_9-2015q1/arm-none-eabi/include/c++/4.9.3/bitset ****    *  Also see:
 735:/opt/toolchains/gcc-arm-none-eabi-4_9-2015q1/arm-none-eabi/include/c++/4.9.3/bitset ****    *  http://gcc.gnu.org/onlinedocs/libstdc++/manual/bk01pt12ch33s02.html
 736:/opt/toolchains/gcc-arm-none-eabi-4_9-2015q1/arm-none-eabi/include/c++/4.9.3/bitset ****    *  for a description of extensions.
 737:/opt/toolchains/gcc-arm-none-eabi-4_9-2015q1/arm-none-eabi/include/c++/4.9.3/bitset ****    *
 738:/opt/toolchains/gcc-arm-none-eabi-4_9-2015q1/arm-none-eabi/include/c++/4.9.3/bitset ****    *  Most of the actual code isn't contained in %bitset<> itself, but in the
 739:/opt/toolchains/gcc-arm-none-eabi-4_9-2015q1/arm-none-eabi/include/c++/4.9.3/bitset ****    *  base class _Base_bitset.  The base class works with whole words, not with
 740:/opt/toolchains/gcc-arm-none-eabi-4_9-2015q1/arm-none-eabi/include/c++/4.9.3/bitset ****    *  individual bits.  This allows us to specialize _Base_bitset for the
 741:/opt/toolchains/gcc-arm-none-eabi-4_9-2015q1/arm-none-eabi/include/c++/4.9.3/bitset ****    *  important special case where the %bitset is only a single word.
 742:/opt/toolchains/gcc-arm-none-eabi-4_9-2015q1/arm-none-eabi/include/c++/4.9.3/bitset ****    *
 743:/opt/toolchains/gcc-arm-none-eabi-4_9-2015q1/arm-none-eabi/include/c++/4.9.3/bitset ****    *  Extra confusion can result due to the fact that the storage for
 744:/opt/toolchains/gcc-arm-none-eabi-4_9-2015q1/arm-none-eabi/include/c++/4.9.3/bitset ****    *  _Base_bitset @e is a regular array, and is indexed as such.  This is
 745:/opt/toolchains/gcc-arm-none-eabi-4_9-2015q1/arm-none-eabi/include/c++/4.9.3/bitset ****    *  carefully encapsulated.
 746:/opt/toolchains/gcc-arm-none-eabi-4_9-2015q1/arm-none-eabi/include/c++/4.9.3/bitset ****   */
 747:/opt/toolchains/gcc-arm-none-eabi-4_9-2015q1/arm-none-eabi/include/c++/4.9.3/bitset ****   template<size_t _Nb>
 748:/opt/toolchains/gcc-arm-none-eabi-4_9-2015q1/arm-none-eabi/include/c++/4.9.3/bitset ****     class bitset
 749:/opt/toolchains/gcc-arm-none-eabi-4_9-2015q1/arm-none-eabi/include/c++/4.9.3/bitset ****     : private _Base_bitset<_GLIBCXX_BITSET_WORDS(_Nb)>
 750:/opt/toolchains/gcc-arm-none-eabi-4_9-2015q1/arm-none-eabi/include/c++/4.9.3/bitset ****     {
 751:/opt/toolchains/gcc-arm-none-eabi-4_9-2015q1/arm-none-eabi/include/c++/4.9.3/bitset ****     private:
 752:/opt/toolchains/gcc-arm-none-eabi-4_9-2015q1/arm-none-eabi/include/c++/4.9.3/bitset ****       typedef _Base_bitset<_GLIBCXX_BITSET_WORDS(_Nb)> _Base;
 753:/opt/toolchains/gcc-arm-none-eabi-4_9-2015q1/arm-none-eabi/include/c++/4.9.3/bitset ****       typedef unsigned long _WordT;
 754:/opt/toolchains/gcc-arm-none-eabi-4_9-2015q1/arm-none-eabi/include/c++/4.9.3/bitset **** 
 755:/opt/toolchains/gcc-arm-none-eabi-4_9-2015q1/arm-none-eabi/include/c++/4.9.3/bitset ****       template<class _CharT, class _Traits, class _Alloc>
 756:/opt/toolchains/gcc-arm-none-eabi-4_9-2015q1/arm-none-eabi/include/c++/4.9.3/bitset ****       void
 757:/opt/toolchains/gcc-arm-none-eabi-4_9-2015q1/arm-none-eabi/include/c++/4.9.3/bitset ****       _M_check_initial_position(const std::basic_string<_CharT, _Traits, _Alloc>& __s,
 758:/opt/toolchains/gcc-arm-none-eabi-4_9-2015q1/arm-none-eabi/include/c++/4.9.3/bitset **** 				size_t __position) const
 759:/opt/toolchains/gcc-arm-none-eabi-4_9-2015q1/arm-none-eabi/include/c++/4.9.3/bitset ****       {
 760:/opt/toolchains/gcc-arm-none-eabi-4_9-2015q1/arm-none-eabi/include/c++/4.9.3/bitset **** 	if (__position > __s.size())
 761:/opt/toolchains/gcc-arm-none-eabi-4_9-2015q1/arm-none-eabi/include/c++/4.9.3/bitset **** 	  __throw_out_of_range_fmt(__N("bitset::bitset: __position "
 762:/opt/toolchains/gcc-arm-none-eabi-4_9-2015q1/arm-none-eabi/include/c++/4.9.3/bitset **** 				       "(which is %zu) > __s.size() "
 763:/opt/toolchains/gcc-arm-none-eabi-4_9-2015q1/arm-none-eabi/include/c++/4.9.3/bitset **** 				       "(which is %zu)"),
 764:/opt/toolchains/gcc-arm-none-eabi-4_9-2015q1/arm-none-eabi/include/c++/4.9.3/bitset **** 				   __position, __s.size());
 765:/opt/toolchains/gcc-arm-none-eabi-4_9-2015q1/arm-none-eabi/include/c++/4.9.3/bitset ****       }
 766:/opt/toolchains/gcc-arm-none-eabi-4_9-2015q1/arm-none-eabi/include/c++/4.9.3/bitset **** 
 767:/opt/toolchains/gcc-arm-none-eabi-4_9-2015q1/arm-none-eabi/include/c++/4.9.3/bitset ****       void _M_check(size_t __position, const char *__s) const
 768:/opt/toolchains/gcc-arm-none-eabi-4_9-2015q1/arm-none-eabi/include/c++/4.9.3/bitset ****       {
 769:/opt/toolchains/gcc-arm-none-eabi-4_9-2015q1/arm-none-eabi/include/c++/4.9.3/bitset **** 	if (__position >= _Nb)
 770:/opt/toolchains/gcc-arm-none-eabi-4_9-2015q1/arm-none-eabi/include/c++/4.9.3/bitset **** 	  __throw_out_of_range_fmt(__N("%s: __position (which is %zu) "
 771:/opt/toolchains/gcc-arm-none-eabi-4_9-2015q1/arm-none-eabi/include/c++/4.9.3/bitset **** 				       ">= _Nb (which is %zu)"),
 772:/opt/toolchains/gcc-arm-none-eabi-4_9-2015q1/arm-none-eabi/include/c++/4.9.3/bitset **** 				   __s, __position, _Nb);
 773:/opt/toolchains/gcc-arm-none-eabi-4_9-2015q1/arm-none-eabi/include/c++/4.9.3/bitset ****       }
 774:/opt/toolchains/gcc-arm-none-eabi-4_9-2015q1/arm-none-eabi/include/c++/4.9.3/bitset **** 
 775:/opt/toolchains/gcc-arm-none-eabi-4_9-2015q1/arm-none-eabi/include/c++/4.9.3/bitset ****       void
 776:/opt/toolchains/gcc-arm-none-eabi-4_9-2015q1/arm-none-eabi/include/c++/4.9.3/bitset ****       _M_do_sanitize() _GLIBCXX_NOEXCEPT
 777:/opt/toolchains/gcc-arm-none-eabi-4_9-2015q1/arm-none-eabi/include/c++/4.9.3/bitset ****       { 
 778:/opt/toolchains/gcc-arm-none-eabi-4_9-2015q1/arm-none-eabi/include/c++/4.9.3/bitset **** 	typedef _Sanitize<_Nb % _GLIBCXX_BITSET_BITS_PER_WORD> __sanitize_type;
 779:/opt/toolchains/gcc-arm-none-eabi-4_9-2015q1/arm-none-eabi/include/c++/4.9.3/bitset **** 	__sanitize_type::_S_do_sanitize(this->_M_hiword());
 780:/opt/toolchains/gcc-arm-none-eabi-4_9-2015q1/arm-none-eabi/include/c++/4.9.3/bitset ****       }
 781:/opt/toolchains/gcc-arm-none-eabi-4_9-2015q1/arm-none-eabi/include/c++/4.9.3/bitset **** 
 782:/opt/toolchains/gcc-arm-none-eabi-4_9-2015q1/arm-none-eabi/include/c++/4.9.3/bitset **** #if __cplusplus >= 201103L
 783:/opt/toolchains/gcc-arm-none-eabi-4_9-2015q1/arm-none-eabi/include/c++/4.9.3/bitset ****       template<typename> friend struct hash;
 784:/opt/toolchains/gcc-arm-none-eabi-4_9-2015q1/arm-none-eabi/include/c++/4.9.3/bitset **** #endif
 785:/opt/toolchains/gcc-arm-none-eabi-4_9-2015q1/arm-none-eabi/include/c++/4.9.3/bitset **** 
 786:/opt/toolchains/gcc-arm-none-eabi-4_9-2015q1/arm-none-eabi/include/c++/4.9.3/bitset ****     public:
 787:/opt/toolchains/gcc-arm-none-eabi-4_9-2015q1/arm-none-eabi/include/c++/4.9.3/bitset ****       /**
 788:/opt/toolchains/gcc-arm-none-eabi-4_9-2015q1/arm-none-eabi/include/c++/4.9.3/bitset ****        *  This encapsulates the concept of a single bit.  An instance of this
 789:/opt/toolchains/gcc-arm-none-eabi-4_9-2015q1/arm-none-eabi/include/c++/4.9.3/bitset ****        *  class is a proxy for an actual bit; this way the individual bit
 790:/opt/toolchains/gcc-arm-none-eabi-4_9-2015q1/arm-none-eabi/include/c++/4.9.3/bitset ****        *  operations are done as faster word-size bitwise instructions.
 791:/opt/toolchains/gcc-arm-none-eabi-4_9-2015q1/arm-none-eabi/include/c++/4.9.3/bitset ****        *
 792:/opt/toolchains/gcc-arm-none-eabi-4_9-2015q1/arm-none-eabi/include/c++/4.9.3/bitset ****        *  Most users will never need to use this class directly; conversions
 793:/opt/toolchains/gcc-arm-none-eabi-4_9-2015q1/arm-none-eabi/include/c++/4.9.3/bitset ****        *  to and from bool are automatic and should be transparent.  Overloaded
 794:/opt/toolchains/gcc-arm-none-eabi-4_9-2015q1/arm-none-eabi/include/c++/4.9.3/bitset ****        *  operators help to preserve the illusion.
 795:/opt/toolchains/gcc-arm-none-eabi-4_9-2015q1/arm-none-eabi/include/c++/4.9.3/bitset ****        *
 796:/opt/toolchains/gcc-arm-none-eabi-4_9-2015q1/arm-none-eabi/include/c++/4.9.3/bitset ****        *  (On a typical system, this <em>bit %reference</em> is 64
 797:/opt/toolchains/gcc-arm-none-eabi-4_9-2015q1/arm-none-eabi/include/c++/4.9.3/bitset ****        *  times the size of an actual bit.  Ha.)
 798:/opt/toolchains/gcc-arm-none-eabi-4_9-2015q1/arm-none-eabi/include/c++/4.9.3/bitset ****        */
 799:/opt/toolchains/gcc-arm-none-eabi-4_9-2015q1/arm-none-eabi/include/c++/4.9.3/bitset ****       class reference
 800:/opt/toolchains/gcc-arm-none-eabi-4_9-2015q1/arm-none-eabi/include/c++/4.9.3/bitset ****       {
 801:/opt/toolchains/gcc-arm-none-eabi-4_9-2015q1/arm-none-eabi/include/c++/4.9.3/bitset **** 	friend class bitset;
 802:/opt/toolchains/gcc-arm-none-eabi-4_9-2015q1/arm-none-eabi/include/c++/4.9.3/bitset **** 
 803:/opt/toolchains/gcc-arm-none-eabi-4_9-2015q1/arm-none-eabi/include/c++/4.9.3/bitset **** 	_WordT*	_M_wp;
 804:/opt/toolchains/gcc-arm-none-eabi-4_9-2015q1/arm-none-eabi/include/c++/4.9.3/bitset **** 	size_t 	_M_bpos;
 805:/opt/toolchains/gcc-arm-none-eabi-4_9-2015q1/arm-none-eabi/include/c++/4.9.3/bitset **** 	
 806:/opt/toolchains/gcc-arm-none-eabi-4_9-2015q1/arm-none-eabi/include/c++/4.9.3/bitset **** 	// left undefined
 807:/opt/toolchains/gcc-arm-none-eabi-4_9-2015q1/arm-none-eabi/include/c++/4.9.3/bitset **** 	reference();
 808:/opt/toolchains/gcc-arm-none-eabi-4_9-2015q1/arm-none-eabi/include/c++/4.9.3/bitset **** 	
 809:/opt/toolchains/gcc-arm-none-eabi-4_9-2015q1/arm-none-eabi/include/c++/4.9.3/bitset ****       public:
 810:/opt/toolchains/gcc-arm-none-eabi-4_9-2015q1/arm-none-eabi/include/c++/4.9.3/bitset **** 	reference(bitset& __b, size_t __pos) _GLIBCXX_NOEXCEPT
 811:/opt/toolchains/gcc-arm-none-eabi-4_9-2015q1/arm-none-eabi/include/c++/4.9.3/bitset **** 	{
 812:/opt/toolchains/gcc-arm-none-eabi-4_9-2015q1/arm-none-eabi/include/c++/4.9.3/bitset **** 	  _M_wp = &__b._M_getword(__pos);
 813:/opt/toolchains/gcc-arm-none-eabi-4_9-2015q1/arm-none-eabi/include/c++/4.9.3/bitset **** 	  _M_bpos = _Base::_S_whichbit(__pos);
 814:/opt/toolchains/gcc-arm-none-eabi-4_9-2015q1/arm-none-eabi/include/c++/4.9.3/bitset **** 	}
 815:/opt/toolchains/gcc-arm-none-eabi-4_9-2015q1/arm-none-eabi/include/c++/4.9.3/bitset **** 
 816:/opt/toolchains/gcc-arm-none-eabi-4_9-2015q1/arm-none-eabi/include/c++/4.9.3/bitset **** 	~reference() _GLIBCXX_NOEXCEPT
 817:/opt/toolchains/gcc-arm-none-eabi-4_9-2015q1/arm-none-eabi/include/c++/4.9.3/bitset **** 	{ }
 818:/opt/toolchains/gcc-arm-none-eabi-4_9-2015q1/arm-none-eabi/include/c++/4.9.3/bitset **** 
 819:/opt/toolchains/gcc-arm-none-eabi-4_9-2015q1/arm-none-eabi/include/c++/4.9.3/bitset **** 	// For b[i] = __x;
 820:/opt/toolchains/gcc-arm-none-eabi-4_9-2015q1/arm-none-eabi/include/c++/4.9.3/bitset **** 	reference&
 821:/opt/toolchains/gcc-arm-none-eabi-4_9-2015q1/arm-none-eabi/include/c++/4.9.3/bitset **** 	operator=(bool __x) _GLIBCXX_NOEXCEPT
 822:/opt/toolchains/gcc-arm-none-eabi-4_9-2015q1/arm-none-eabi/include/c++/4.9.3/bitset **** 	{
 823:/opt/toolchains/gcc-arm-none-eabi-4_9-2015q1/arm-none-eabi/include/c++/4.9.3/bitset **** 	  if (__x)
 253              		.loc 2 823 0
 254 00d6 0CB1     		cbz	r4, .L10
 255              	.LVL30:
 256              	.LBB402:
 257              	.LBB401:
 824:/opt/toolchains/gcc-arm-none-eabi-4_9-2015q1/arm-none-eabi/include/c++/4.9.3/bitset **** 	    *_M_wp |= _Base::_S_maskbit(_M_bpos);
 258              		.loc 2 824 0
 259 00d8 1343     		orrs	r3, r3, r2
 260 00da 01E0     		b	.L29
 261              	.LVL31:
 262              	.L10:
 263              	.LBE401:
 264              	.LBE402:
 825:/opt/toolchains/gcc-arm-none-eabi-4_9-2015q1/arm-none-eabi/include/c++/4.9.3/bitset **** 	  else
 826:/opt/toolchains/gcc-arm-none-eabi-4_9-2015q1/arm-none-eabi/include/c++/4.9.3/bitset **** 	    *_M_wp &= ~_Base::_S_maskbit(_M_bpos);
 265              		.loc 2 826 0
 266 00dc 22EA0303 		bic	r3, r2, r3
 267              	.LVL32:
 268              	.L29:
 269 00e0 C0F8A832 		str	r3, [r0, #680]
 270              	.LVL33:
 271 00e4 F0BD     		pop	{r4, r5, r6, r7, pc}
 272              	.L32:
 273 00e6 00BF     		.align	2
 274              	.L31:
 275 00e8 00C07F44 		.word	1149222912
 276              	.LBE396:
 277              	.LBE395:
 278              	.LBE372:
 279              		.cfi_endproc
 280              	.LFE2581:
 282              		.section	.text._ZN4ltaf15OpticalZoomASIC17initDefaultParamsEv,"ax",%progbits
 283              		.align	1
 284              		.global	_ZN4ltaf15OpticalZoomASIC17initDefaultParamsEv
 285              		.thumb
 286              		.thumb_func
 288              	_ZN4ltaf15OpticalZoomASIC17initDefaultParamsEv:
 289              	.LFB2585:
  77:/home/tienluong/workspace/atlantis_fw/AsicFwS2/src/opticalzoom.cpp ****                             break;
  78:/home/tienluong/workspace/atlantis_fw/AsicFwS2/src/opticalzoom.cpp ****                         }
  79:/home/tienluong/workspace/atlantis_fw/AsicFwS2/src/opticalzoom.cpp **** 
  80:/home/tienluong/workspace/atlantis_fw/AsicFwS2/src/opticalzoom.cpp ****                     }
  81:/home/tienluong/workspace/atlantis_fw/AsicFwS2/src/opticalzoom.cpp ****                 }
  82:/home/tienluong/workspace/atlantis_fw/AsicFwS2/src/opticalzoom.cpp ****             }
  83:/home/tienluong/workspace/atlantis_fw/AsicFwS2/src/opticalzoom.cpp ****         }
  84:/home/tienluong/workspace/atlantis_fw/AsicFwS2/src/opticalzoom.cpp **** #else
  85:/home/tienluong/workspace/atlantis_fw/AsicFwS2/src/opticalzoom.cpp ****         has_optical_zoom = true;
  86:/home/tienluong/workspace/atlantis_fw/AsicFwS2/src/opticalzoom.cpp **** #endif
  87:/home/tienluong/workspace/atlantis_fw/AsicFwS2/src/opticalzoom.cpp ****     }
  88:/home/tienluong/workspace/atlantis_fw/AsicFwS2/src/opticalzoom.cpp **** 
  89:/home/tienluong/workspace/atlantis_fw/AsicFwS2/src/opticalzoom.cpp ****     _is_zoom_calib_available[mirror_module] = has_optical_zoom;
  90:/home/tienluong/workspace/atlantis_fw/AsicFwS2/src/opticalzoom.cpp **** }
  91:/home/tienluong/workspace/atlantis_fw/AsicFwS2/src/opticalzoom.cpp **** 
  92:/home/tienluong/workspace/atlantis_fw/AsicFwS2/src/opticalzoom.cpp **** 
  93:/home/tienluong/workspace/atlantis_fw/AsicFwS2/src/opticalzoom.cpp **** 
  94:/home/tienluong/workspace/atlantis_fw/AsicFwS2/src/opticalzoom.cpp **** void OpticalZoomASIC::loadZoomCalibFromProtoBuf( const Ltpb__LightHeader & header )
  95:/home/tienluong/workspace/atlantis_fw/AsicFwS2/src/opticalzoom.cpp **** {
  96:/home/tienluong/workspace/atlantis_fw/AsicFwS2/src/opticalzoom.cpp ****     initDefaultParams();
  97:/home/tienluong/workspace/atlantis_fw/AsicFwS2/src/opticalzoom.cpp ****     for( uint i = 0; i < header.n_module_calibration; ++i )
  98:/home/tienluong/workspace/atlantis_fw/AsicFwS2/src/opticalzoom.cpp ****     {
  99:/home/tienluong/workspace/atlantis_fw/AsicFwS2/src/opticalzoom.cpp ****         const Ltpb__FactoryModuleCalibration & module_calib = *(header.module_calibration[i]);
 100:/home/tienluong/workspace/atlantis_fw/AsicFwS2/src/opticalzoom.cpp ****         switch( module_calib.camera_id )
 101:/home/tienluong/workspace/atlantis_fw/AsicFwS2/src/opticalzoom.cpp ****         {
 102:/home/tienluong/workspace/atlantis_fw/AsicFwS2/src/opticalzoom.cpp ****             case LTPB__CAMERA_ID__B1:
 103:/home/tienluong/workspace/atlantis_fw/AsicFwS2/src/opticalzoom.cpp ****                 loadModuleZoomCalibFromProtoBuf( M_B1, *module_calib.geometry );
 104:/home/tienluong/workspace/atlantis_fw/AsicFwS2/src/opticalzoom.cpp ****                 break;
 105:/home/tienluong/workspace/atlantis_fw/AsicFwS2/src/opticalzoom.cpp ****             case LTPB__CAMERA_ID__B2:
 106:/home/tienluong/workspace/atlantis_fw/AsicFwS2/src/opticalzoom.cpp ****                 loadModuleZoomCalibFromProtoBuf( M_B2, *module_calib.geometry );
 107:/home/tienluong/workspace/atlantis_fw/AsicFwS2/src/opticalzoom.cpp ****                 break;
 108:/home/tienluong/workspace/atlantis_fw/AsicFwS2/src/opticalzoom.cpp ****             case LTPB__CAMERA_ID__B3:
 109:/home/tienluong/workspace/atlantis_fw/AsicFwS2/src/opticalzoom.cpp ****                 loadModuleZoomCalibFromProtoBuf( M_B3, *module_calib.geometry );
 110:/home/tienluong/workspace/atlantis_fw/AsicFwS2/src/opticalzoom.cpp ****                 break;
 111:/home/tienluong/workspace/atlantis_fw/AsicFwS2/src/opticalzoom.cpp ****             case LTPB__CAMERA_ID__B5:
 112:/home/tienluong/workspace/atlantis_fw/AsicFwS2/src/opticalzoom.cpp ****                 loadModuleZoomCalibFromProtoBuf( M_B5, *module_calib.geometry );
 113:/home/tienluong/workspace/atlantis_fw/AsicFwS2/src/opticalzoom.cpp ****                 break;
 114:/home/tienluong/workspace/atlantis_fw/AsicFwS2/src/opticalzoom.cpp ****             case LTPB__CAMERA_ID__C1:
 115:/home/tienluong/workspace/atlantis_fw/AsicFwS2/src/opticalzoom.cpp ****                 loadModuleZoomCalibFromProtoBuf( M_C1, *module_calib.geometry );
 116:/home/tienluong/workspace/atlantis_fw/AsicFwS2/src/opticalzoom.cpp ****                 break;
 117:/home/tienluong/workspace/atlantis_fw/AsicFwS2/src/opticalzoom.cpp ****             case LTPB__CAMERA_ID__C2:
 118:/home/tienluong/workspace/atlantis_fw/AsicFwS2/src/opticalzoom.cpp ****                 loadModuleZoomCalibFromProtoBuf( M_C2, *module_calib.geometry );
 119:/home/tienluong/workspace/atlantis_fw/AsicFwS2/src/opticalzoom.cpp ****                 break;
 120:/home/tienluong/workspace/atlantis_fw/AsicFwS2/src/opticalzoom.cpp ****             case LTPB__CAMERA_ID__C3:
 121:/home/tienluong/workspace/atlantis_fw/AsicFwS2/src/opticalzoom.cpp ****                 loadModuleZoomCalibFromProtoBuf( M_C3, *module_calib.geometry );
 122:/home/tienluong/workspace/atlantis_fw/AsicFwS2/src/opticalzoom.cpp ****                 break;
 123:/home/tienluong/workspace/atlantis_fw/AsicFwS2/src/opticalzoom.cpp ****             case LTPB__CAMERA_ID__C4:
 124:/home/tienluong/workspace/atlantis_fw/AsicFwS2/src/opticalzoom.cpp ****                 loadModuleZoomCalibFromProtoBuf( M_C4, *module_calib.geometry );
 125:/home/tienluong/workspace/atlantis_fw/AsicFwS2/src/opticalzoom.cpp ****                 break;
 126:/home/tienluong/workspace/atlantis_fw/AsicFwS2/src/opticalzoom.cpp ****             default:
 127:/home/tienluong/workspace/atlantis_fw/AsicFwS2/src/opticalzoom.cpp ****                 break;
 128:/home/tienluong/workspace/atlantis_fw/AsicFwS2/src/opticalzoom.cpp ****         }
 129:/home/tienluong/workspace/atlantis_fw/AsicFwS2/src/opticalzoom.cpp ****     }
 130:/home/tienluong/workspace/atlantis_fw/AsicFwS2/src/opticalzoom.cpp **** }
 131:/home/tienluong/workspace/atlantis_fw/AsicFwS2/src/opticalzoom.cpp **** #endif
 132:/home/tienluong/workspace/atlantis_fw/AsicFwS2/src/opticalzoom.cpp **** 
 133:/home/tienluong/workspace/atlantis_fw/AsicFwS2/src/opticalzoom.cpp **** 
 134:/home/tienluong/workspace/atlantis_fw/AsicFwS2/src/opticalzoom.cpp **** 
 135:/home/tienluong/workspace/atlantis_fw/AsicFwS2/src/opticalzoom.cpp **** void OpticalZoomASIC::getMirrorAnglesByFocalLength( float focal_length, float * angle_array ) const
 136:/home/tienluong/workspace/atlantis_fw/AsicFwS2/src/opticalzoom.cpp **** {
 137:/home/tienluong/workspace/atlantis_fw/AsicFwS2/src/opticalzoom.cpp ****     SLOGF(SLOG_DEBUG, "Computing mirror angles for focal_length %f", focal_length);
 138:/home/tienluong/workspace/atlantis_fw/AsicFwS2/src/opticalzoom.cpp ****     if( focal_length < _focal_prime70 )
 139:/home/tienluong/workspace/atlantis_fw/AsicFwS2/src/opticalzoom.cpp ****     {
 140:/home/tienluong/workspace/atlantis_fw/AsicFwS2/src/opticalzoom.cpp ****         getMirrorAnglesByZoomLevel( focal_length / _focal_prime35, CaptureMode::AB, angle_array );
 141:/home/tienluong/workspace/atlantis_fw/AsicFwS2/src/opticalzoom.cpp ****     }
 142:/home/tienluong/workspace/atlantis_fw/AsicFwS2/src/opticalzoom.cpp ****     else
 143:/home/tienluong/workspace/atlantis_fw/AsicFwS2/src/opticalzoom.cpp ****     {
 144:/home/tienluong/workspace/atlantis_fw/AsicFwS2/src/opticalzoom.cpp ****         getMirrorAnglesByZoomLevel( focal_length / _focal_prime70, CaptureMode::BC, angle_array );
 145:/home/tienluong/workspace/atlantis_fw/AsicFwS2/src/opticalzoom.cpp ****     }
 146:/home/tienluong/workspace/atlantis_fw/AsicFwS2/src/opticalzoom.cpp **** }
 147:/home/tienluong/workspace/atlantis_fw/AsicFwS2/src/opticalzoom.cpp **** 
 148:/home/tienluong/workspace/atlantis_fw/AsicFwS2/src/opticalzoom.cpp **** 
 149:/home/tienluong/workspace/atlantis_fw/AsicFwS2/src/opticalzoom.cpp **** 
 150:/home/tienluong/workspace/atlantis_fw/AsicFwS2/src/opticalzoom.cpp **** 
 151:/home/tienluong/workspace/atlantis_fw/AsicFwS2/src/opticalzoom.cpp **** 
 152:/home/tienluong/workspace/atlantis_fw/AsicFwS2/src/opticalzoom.cpp **** 
 153:/home/tienluong/workspace/atlantis_fw/AsicFwS2/src/opticalzoom.cpp **** void OpticalZoomASIC::getMirrorAnglesByZoomLevel( float zoom_level,
 154:/home/tienluong/workspace/atlantis_fw/AsicFwS2/src/opticalzoom.cpp ****                                                   OpticalZoomASIC::CaptureMode capture_mode,
 155:/home/tienluong/workspace/atlantis_fw/AsicFwS2/src/opticalzoom.cpp ****                                                   float * angle_array ) const
 156:/home/tienluong/workspace/atlantis_fw/AsicFwS2/src/opticalzoom.cpp **** {
 157:/home/tienluong/workspace/atlantis_fw/AsicFwS2/src/opticalzoom.cpp ****     Pnt2f img_center_in_ref[kNumMirrorModules];
 158:/home/tienluong/workspace/atlantis_fw/AsicFwS2/src/opticalzoom.cpp ****     getImgCenterInRef( zoom_level, capture_mode, img_center_in_ref );
 159:/home/tienluong/workspace/atlantis_fw/AsicFwS2/src/opticalzoom.cpp **** 
 160:/home/tienluong/workspace/atlantis_fw/AsicFwS2/src/opticalzoom.cpp ****     for( int i = 0; i < kNumMirrorModules; ++i )
 161:/home/tienluong/workspace/atlantis_fw/AsicFwS2/src/opticalzoom.cpp ****     {
 162:/home/tienluong/workspace/atlantis_fw/AsicFwS2/src/opticalzoom.cpp ****         angle_array[i] = getMirrorAngleGivenImgCenterInRef( MirrorModule( i ), img_center_in_ref[i]
 163:/home/tienluong/workspace/atlantis_fw/AsicFwS2/src/opticalzoom.cpp ****         SLOGF(SLOG_DEBUG, "Computed mirror angle for module %d: %f", i, angle_array[i]);
 164:/home/tienluong/workspace/atlantis_fw/AsicFwS2/src/opticalzoom.cpp ****     }
 165:/home/tienluong/workspace/atlantis_fw/AsicFwS2/src/opticalzoom.cpp **** }
 166:/home/tienluong/workspace/atlantis_fw/AsicFwS2/src/opticalzoom.cpp **** 
 167:/home/tienluong/workspace/atlantis_fw/AsicFwS2/src/opticalzoom.cpp **** 
 168:/home/tienluong/workspace/atlantis_fw/AsicFwS2/src/opticalzoom.cpp **** 
 169:/home/tienluong/workspace/atlantis_fw/AsicFwS2/src/opticalzoom.cpp **** void OpticalZoomASIC::initDefaultParams()
 170:/home/tienluong/workspace/atlantis_fw/AsicFwS2/src/opticalzoom.cpp **** {
 290              		.loc 1 170 0
 291              		.cfi_startproc
 292              		@ args = 0, pretend = 0, frame = 0
 293              		@ frame_needed = 0, uses_anonymous_args = 0
 294              	.LVL34:
 295              	.LBB420:
 171:/home/tienluong/workspace/atlantis_fw/AsicFwS2/src/opticalzoom.cpp ****     _focal_prime35 = 28.0f;
 296              		.loc 1 171 0
 297 0000 1E4B     		ldr	r3, .L36
 298 0002 C0F8AC32 		str	r3, [r0, #684]	@ float
 172:/home/tienluong/workspace/atlantis_fw/AsicFwS2/src/opticalzoom.cpp ****     _focal_prime70 = 70.0f;
 299              		.loc 1 172 0
 300 0006 1E4B     		ldr	r3, .L36+4
 301 0008 C0F8B032 		str	r3, [r0, #688]	@ float
 173:/home/tienluong/workspace/atlantis_fw/AsicFwS2/src/opticalzoom.cpp ****     _focal_prime150 = 150.0f;
 302              		.loc 1 173 0
 303 000c 1D4B     		ldr	r3, .L36+8
 304 000e C0F8B432 		str	r3, [r0, #692]	@ float
 174:/home/tienluong/workspace/atlantis_fw/AsicFwS2/src/opticalzoom.cpp ****     _img_size_x = 4160.0;
 305              		.loc 1 174 0
 306 0012 1D4B     		ldr	r3, .L36+12
 307 0014 C0F8B832 		str	r3, [r0, #696]	@ float
 175:/home/tienluong/workspace/atlantis_fw/AsicFwS2/src/opticalzoom.cpp ****     _img_size_y = 3120.0;
 308              		.loc 1 175 0
 309 0018 1C4B     		ldr	r3, .L36+16
 310 001a C0F8BC32 		str	r3, [r0, #700]	@ float
 176:/home/tienluong/workspace/atlantis_fw/AsicFwS2/src/opticalzoom.cpp **** 
 177:/home/tienluong/workspace/atlantis_fw/AsicFwS2/src/opticalzoom.cpp ****     _min_zoom_level_AB_mode = 1.25;
 311              		.loc 1 177 0
 312 001e 1C4B     		ldr	r3, .L36+20
 313 0020 C0F8C032 		str	r3, [r0, #704]	@ float
 178:/home/tienluong/workspace/atlantis_fw/AsicFwS2/src/opticalzoom.cpp ****     _max_zoom_level_AB_mode = _focal_prime70 / _focal_prime35;
 314              		.loc 1 178 0
 315 0024 1B4B     		ldr	r3, .L36+24
 316 0026 C0F8C432 		str	r3, [r0, #708]	@ float
 179:/home/tienluong/workspace/atlantis_fw/AsicFwS2/src/opticalzoom.cpp ****     _min_zoom_level_BC_mode = 1.05f;
 317              		.loc 1 179 0
 318 002a 1B4B     		ldr	r3, .L36+28
 319 002c C0F8C832 		str	r3, [r0, #712]	@ float
 180:/home/tienluong/workspace/atlantis_fw/AsicFwS2/src/opticalzoom.cpp ****     _max_zoom_level_BC_mode = _focal_prime150 / _focal_prime70;
 320              		.loc 1 180 0
 321 0030 1A4B     		ldr	r3, .L36+32
 322 0032 C0F8CC32 		str	r3, [r0, #716]	@ float
 323              	.LVL35:
 324              	.LBB421:
 181:/home/tienluong/workspace/atlantis_fw/AsicFwS2/src/opticalzoom.cpp **** 
 182:/home/tienluong/workspace/atlantis_fw/AsicFwS2/src/opticalzoom.cpp ****     for( int i = 0; i < kNumMirrorModules; ++i )
 325              		.loc 1 182 0
 326 0036 0023     		movs	r3, #0
 327              	.LBE421:
 328              	.LBE420:
 170:/home/tienluong/workspace/atlantis_fw/AsicFwS2/src/opticalzoom.cpp ****     _focal_prime35 = 28.0f;
 329              		.loc 1 170 0
 330 0038 10B5     		push	{r4, lr}
 331              	.LCFI1:
 332              		.cfi_def_cfa_offset 8
 333              		.cfi_offset 4, -8
 334              		.cfi_offset 14, -4
 335              	.LVL36:
 336              	.L34:
 337              	.LBB433:
 338              	.LBB432:
 339              	.LBB422:
 340              	.LBB423:
 341              	.LBB424:
 342              	.LBB425:
 403:/opt/toolchains/gcc-arm-none-eabi-4_9-2015q1/arm-none-eabi/include/c++/4.9.3/bitset **** 
 343              		.loc 2 403 0 discriminator 3
 344 003a 0122     		movs	r2, #1
 345              	.LBE425:
 346              	.LBE424:
 347              		.loc 2 826 0 discriminator 3
 348 003c D0F8A812 		ldr	r1, [r0, #680]
 349              	.LBB427:
 350              	.LBB426:
 403:/opt/toolchains/gcc-arm-none-eabi-4_9-2015q1/arm-none-eabi/include/c++/4.9.3/bitset **** 
 351              		.loc 2 403 0 discriminator 3
 352 0040 02FA03F4 		lsl	r4, r2, r3
 353              	.LBE426:
 354              	.LBE427:
 355              	.LBE423:
 356              	.LBE422:
 357              		.loc 1 182 0 discriminator 3
 358 0044 1344     		add	r3, r3, r2
 359              	.LVL37:
 360              	.LBB430:
 361              	.LBB428:
 362              		.loc 2 826 0 discriminator 3
 363 0046 21EA0401 		bic	r1, r1, r4
 364              	.LBE428:
 365              	.LBE430:
 366              		.loc 1 182 0 discriminator 3
 367 004a 082B     		cmp	r3, #8
 368              	.LBB431:
 369              	.LBB429:
 370              		.loc 2 826 0 discriminator 3
 371 004c C0F8A812 		str	r1, [r0, #680]
 372              	.LVL38:
 373              	.LBE429:
 374              	.LBE431:
 375              		.loc 1 182 0 discriminator 3
 376 0050 F3D1     		bne	.L34
 377              	.LVL39:
 378              	.LBE432:
 183:/home/tienluong/workspace/atlantis_fw/AsicFwS2/src/opticalzoom.cpp ****     { _is_zoom_calib_available[i] = false; }
 184:/home/tienluong/workspace/atlantis_fw/AsicFwS2/src/opticalzoom.cpp **** 
 185:/home/tienluong/workspace/atlantis_fw/AsicFwS2/src/opticalzoom.cpp ****     _module_coverage_array[M_B1] = BotLeft;
 379              		.loc 1 185 0
 380 0052 0223     		movs	r3, #2
 381              	.LVL40:
 186:/home/tienluong/workspace/atlantis_fw/AsicFwS2/src/opticalzoom.cpp ****     _module_coverage_array[M_B2] = BotRight;
 382              		.loc 1 186 0
 383 0054 0321     		movs	r1, #3
 187:/home/tienluong/workspace/atlantis_fw/AsicFwS2/src/opticalzoom.cpp ****     _module_coverage_array[M_B3] = TopRight;
 188:/home/tienluong/workspace/atlantis_fw/AsicFwS2/src/opticalzoom.cpp ****     _module_coverage_array[M_B5] = TopLeft;
 384              		.loc 1 188 0
 385 0056 0024     		movs	r4, #0
 185:/home/tienluong/workspace/atlantis_fw/AsicFwS2/src/opticalzoom.cpp ****     _module_coverage_array[M_B2] = BotRight;
 386              		.loc 1 185 0
 387 0058 80F8A032 		strb	r3, [r0, #672]
 388              	.LVL41:
 186:/home/tienluong/workspace/atlantis_fw/AsicFwS2/src/opticalzoom.cpp ****     _module_coverage_array[M_B2] = BotRight;
 389              		.loc 1 186 0
 390 005c 80F8A112 		strb	r1, [r0, #673]
 391              	.LVL42:
 187:/home/tienluong/workspace/atlantis_fw/AsicFwS2/src/opticalzoom.cpp ****     _module_coverage_array[M_B3] = TopRight;
 392              		.loc 1 187 0
 393 0060 80F8A222 		strb	r2, [r0, #674]
 394              	.LVL43:
 395              		.loc 1 188 0
 396 0064 80F8A342 		strb	r4, [r0, #675]
 397              	.LVL44:
 189:/home/tienluong/workspace/atlantis_fw/AsicFwS2/src/opticalzoom.cpp ****     _module_coverage_array[M_C1] = TopLeft;
 398              		.loc 1 189 0
 399 0068 80F8A442 		strb	r4, [r0, #676]
 400              	.LVL45:
 190:/home/tienluong/workspace/atlantis_fw/AsicFwS2/src/opticalzoom.cpp ****     _module_coverage_array[M_C2] = BotRight;
 401              		.loc 1 190 0
 402 006c 80F8A512 		strb	r1, [r0, #677]
 403              	.LVL46:
 191:/home/tienluong/workspace/atlantis_fw/AsicFwS2/src/opticalzoom.cpp ****     _module_coverage_array[M_C3] = BotLeft;
 404              		.loc 1 191 0
 405 0070 80F8A632 		strb	r3, [r0, #678]
 406              	.LVL47:
 192:/home/tienluong/workspace/atlantis_fw/AsicFwS2/src/opticalzoom.cpp ****     _module_coverage_array[M_C4] = TopRight;
 407              		.loc 1 192 0
 408 0074 80F8A722 		strb	r2, [r0, #679]
 409 0078 10BD     		pop	{r4, pc}
 410              	.L37:
 411 007a 00BF     		.align	2
 412              	.L36:
 413 007c 0000E041 		.word	1105199104
 414 0080 00008C42 		.word	1116471296
 415 0084 00001643 		.word	1125515264
 416 0088 00008245 		.word	1166147584
 417 008c 00004345 		.word	1162018816
 418 0090 0000A03F 		.word	1067450368
 419 0094 00002040 		.word	1075838976
 420 0098 6666863F 		.word	1065772646
 421 009c 92240940 		.word	1074341010
 422              	.LBE433:
 423              		.cfi_endproc
 424              	.LFE2585:
 426              		.section	.text._ZN4ltaf15OpticalZoomASIC25loadZoomCalibFromProtoBufERK18_Ltpb__LightHeader,"ax",%p
 427              		.align	1
 428              		.global	_ZN4ltaf15OpticalZoomASIC25loadZoomCalibFromProtoBufERK18_Ltpb__LightHeader
 429              		.thumb
 430              		.thumb_func
 432              	_ZN4ltaf15OpticalZoomASIC25loadZoomCalibFromProtoBufERK18_Ltpb__LightHeader:
 433              	.LFB2582:
  95:/home/tienluong/workspace/atlantis_fw/AsicFwS2/src/opticalzoom.cpp ****     initDefaultParams();
 434              		.loc 1 95 0
 435              		.cfi_startproc
 436              		@ args = 0, pretend = 0, frame = 0
 437              		@ frame_needed = 0, uses_anonymous_args = 0
 438              	.LVL48:
 439 0000 70B5     		push	{r4, r5, r6, lr}
 440              	.LCFI2:
 441              		.cfi_def_cfa_offset 16
 442              		.cfi_offset 4, -16
 443              		.cfi_offset 5, -12
 444              		.cfi_offset 6, -8
 445              		.cfi_offset 14, -4
 446              	.LBB434:
  96:/home/tienluong/workspace/atlantis_fw/AsicFwS2/src/opticalzoom.cpp ****     for( uint i = 0; i < header.n_module_calibration; ++i )
 447              		.loc 1 96 0
 448 0002 194B     		ldr	r3, .L53
 449              	.LBE434:
  95:/home/tienluong/workspace/atlantis_fw/AsicFwS2/src/opticalzoom.cpp ****     initDefaultParams();
 450              		.loc 1 95 0
 451 0004 0446     		mov	r4, r0
 452 0006 0E46     		mov	r6, r1
 453              	.LBB437:
  96:/home/tienluong/workspace/atlantis_fw/AsicFwS2/src/opticalzoom.cpp ****     for( uint i = 0; i < header.n_module_calibration; ++i )
 454              		.loc 1 96 0
 455 0008 9847     		blx	r3
 456              	.LVL49:
 457              	.LBB435:
  97:/home/tienluong/workspace/atlantis_fw/AsicFwS2/src/opticalzoom.cpp ****     {
 458              		.loc 1 97 0
 459 000a 0025     		movs	r5, #0
 460              	.LVL50:
 461              	.L39:
  97:/home/tienluong/workspace/atlantis_fw/AsicFwS2/src/opticalzoom.cpp ****     {
 462              		.loc 1 97 0 is_stmt 0 discriminator 1
 463 000c 336F     		ldr	r3, [r6, #112]
 464 000e 9D42     		cmp	r5, r3
 465 0010 29D2     		bcs	.L52
 466              	.LBB436:
  99:/home/tienluong/workspace/atlantis_fw/AsicFwS2/src/opticalzoom.cpp ****         switch( module_calib.camera_id )
 467              		.loc 1 99 0 is_stmt 1
 468 0012 736F     		ldr	r3, [r6, #116]
 469 0014 53F82530 		ldr	r3, [r3, r5, lsl #2]
 470              	.LVL51:
 100:/home/tienluong/workspace/atlantis_fw/AsicFwS2/src/opticalzoom.cpp ****         {
 471              		.loc 1 100 0
 472 0018 DA68     		ldr	r2, [r3, #12]
 473 001a 053A     		subs	r2, r2, #5
 474 001c 082A     		cmp	r2, #8
 475 001e 20D8     		bhi	.L40
 476 0020 DFE802F0 		tbb	[pc, r2]
 477              	.L42:
 478 0024 05       		.byte	(.L41-.L42)/2
 479 0025 08       		.byte	(.L43-.L42)/2
 480 0026 0B       		.byte	(.L44-.L42)/2
 481 0027 1F       		.byte	(.L40-.L42)/2
 482 0028 0E       		.byte	(.L45-.L42)/2
 483 0029 11       		.byte	(.L46-.L42)/2
 484 002a 14       		.byte	(.L47-.L42)/2
 485 002b 17       		.byte	(.L48-.L42)/2
 486 002c 1A       		.byte	(.L49-.L42)/2
 487 002d 00       		.p2align 1
 488              	.L41:
 103:/home/tienluong/workspace/atlantis_fw/AsicFwS2/src/opticalzoom.cpp ****                 break;
 489              		.loc 1 103 0
 490 002e 2046     		mov	r0, r4
 491 0030 0021     		movs	r1, #0
 492 0032 13E0     		b	.L51
 493              	.L43:
 106:/home/tienluong/workspace/atlantis_fw/AsicFwS2/src/opticalzoom.cpp ****                 break;
 494              		.loc 1 106 0
 495 0034 2046     		mov	r0, r4
 496 0036 0121     		movs	r1, #1
 497 0038 10E0     		b	.L51
 498              	.L44:
 109:/home/tienluong/workspace/atlantis_fw/AsicFwS2/src/opticalzoom.cpp ****                 break;
 499              		.loc 1 109 0
 500 003a 2046     		mov	r0, r4
 501 003c 0221     		movs	r1, #2
 502 003e 0DE0     		b	.L51
 503              	.L45:
 112:/home/tienluong/workspace/atlantis_fw/AsicFwS2/src/opticalzoom.cpp ****                 break;
 504              		.loc 1 112 0
 505 0040 2046     		mov	r0, r4
 506 0042 0321     		movs	r1, #3
 507 0044 0AE0     		b	.L51
 508              	.L46:
 115:/home/tienluong/workspace/atlantis_fw/AsicFwS2/src/opticalzoom.cpp ****                 break;
 509              		.loc 1 115 0
 510 0046 2046     		mov	r0, r4
 511 0048 0421     		movs	r1, #4
 512 004a 07E0     		b	.L51
 513              	.L47:
 118:/home/tienluong/workspace/atlantis_fw/AsicFwS2/src/opticalzoom.cpp ****                 break;
 514              		.loc 1 118 0
 515 004c 2046     		mov	r0, r4
 516 004e 0521     		movs	r1, #5
 517 0050 04E0     		b	.L51
 518              	.L48:
 121:/home/tienluong/workspace/atlantis_fw/AsicFwS2/src/opticalzoom.cpp ****                 break;
 519              		.loc 1 121 0
 520 0052 2046     		mov	r0, r4
 521 0054 0621     		movs	r1, #6
 522 0056 01E0     		b	.L51
 523              	.L49:
 124:/home/tienluong/workspace/atlantis_fw/AsicFwS2/src/opticalzoom.cpp ****                 break;
 524              		.loc 1 124 0
 525 0058 2046     		mov	r0, r4
 526 005a 0721     		movs	r1, #7
 527              	.LVL52:
 528              	.L51:
 529 005c 9A69     		ldr	r2, [r3, #24]
 530 005e 034B     		ldr	r3, .L53+4
 531              	.LVL53:
 532 0060 9847     		blx	r3
 533              	.LVL54:
 534              	.L40:
 535              	.LBE436:
  97:/home/tienluong/workspace/atlantis_fw/AsicFwS2/src/opticalzoom.cpp ****     {
 536              		.loc 1 97 0 discriminator 2
 537 0062 0135     		adds	r5, r5, #1
 538              	.LVL55:
 539 0064 D2E7     		b	.L39
 540              	.L52:
 541              	.LBE435:
 542              	.LBE437:
 130:/home/tienluong/workspace/atlantis_fw/AsicFwS2/src/opticalzoom.cpp **** #endif
 543              		.loc 1 130 0
 544 0066 70BD     		pop	{r4, r5, r6, pc}
 545              	.LVL56:
 546              	.L54:
 547              		.align	2
 548              	.L53:
 549 0068 00000000 		.word	_ZN4ltaf15OpticalZoomASIC17initDefaultParamsEv
 550 006c 00000000 		.word	_ZN4ltaf15OpticalZoomASIC31loadModuleZoomCalibFromProtoBufENS_12MirrorModuleERK27_Ltpb__Geom
 551              		.cfi_endproc
 552              	.LFE2582:
 554              		.global	__aeabi_fcmplt
 555              		.global	__aeabi_fmul
 556              		.global	__aeabi_fdiv
 557              		.global	__aeabi_fadd
 558              		.global	__aeabi_fsub
 559              		.section	.text._ZNK4ltaf15OpticalZoomASIC27getCoverRegionCenterInRefABEfPNS_5Pnt2fE,"ax",%progbits
 560              		.align	1
 561              		.global	_ZNK4ltaf15OpticalZoomASIC27getCoverRegionCenterInRefABEfPNS_5Pnt2fE
 562              		.thumb
 563              		.thumb_func
 565              	_ZNK4ltaf15OpticalZoomASIC27getCoverRegionCenterInRefABEfPNS_5Pnt2fE:
 566              	.LFB2590:
 193:/home/tienluong/workspace/atlantis_fw/AsicFwS2/src/opticalzoom.cpp **** }
 194:/home/tienluong/workspace/atlantis_fw/AsicFwS2/src/opticalzoom.cpp **** 
 195:/home/tienluong/workspace/atlantis_fw/AsicFwS2/src/opticalzoom.cpp **** 
 196:/home/tienluong/workspace/atlantis_fw/AsicFwS2/src/opticalzoom.cpp **** 
 197:/home/tienluong/workspace/atlantis_fw/AsicFwS2/src/opticalzoom.cpp **** namespace
 198:/home/tienluong/workspace/atlantis_fw/AsicFwS2/src/opticalzoom.cpp **** {
 199:/home/tienluong/workspace/atlantis_fw/AsicFwS2/src/opticalzoom.cpp **** /// Helper function that gets image center positions in reference image
 200:/home/tienluong/workspace/atlantis_fw/AsicFwS2/src/opticalzoom.cpp **** void getHiresImgCenterPosInRef( const Pnt2f & ref_center,
 201:/home/tienluong/workspace/atlantis_fw/AsicFwS2/src/opticalzoom.cpp ****                                 const Pnt2f & hires_fov_in_ref,
 202:/home/tienluong/workspace/atlantis_fw/AsicFwS2/src/opticalzoom.cpp ****                                 const Pnt2f & desired_fov_in_ref,
 203:/home/tienluong/workspace/atlantis_fw/AsicFwS2/src/opticalzoom.cpp ****                                 Pnt2f * hires_img_center_in_ref_array )
 204:/home/tienluong/workspace/atlantis_fw/AsicFwS2/src/opticalzoom.cpp **** {
 205:/home/tienluong/workspace/atlantis_fw/AsicFwS2/src/opticalzoom.cpp ****     float ref_center_x = ref_center.x;
 206:/home/tienluong/workspace/atlantis_fw/AsicFwS2/src/opticalzoom.cpp ****     float ref_center_y = ref_center.y;
 207:/home/tienluong/workspace/atlantis_fw/AsicFwS2/src/opticalzoom.cpp **** 
 208:/home/tienluong/workspace/atlantis_fw/AsicFwS2/src/opticalzoom.cpp ****     float half_hires_fov_x = hires_fov_in_ref.x * 0.5f;
 209:/home/tienluong/workspace/atlantis_fw/AsicFwS2/src/opticalzoom.cpp ****     float half_hires_fov_y = hires_fov_in_ref.y * 0.5f;
 210:/home/tienluong/workspace/atlantis_fw/AsicFwS2/src/opticalzoom.cpp **** 
 211:/home/tienluong/workspace/atlantis_fw/AsicFwS2/src/opticalzoom.cpp ****     float half_desired_fov_x = desired_fov_in_ref.x * 0.5f;
 212:/home/tienluong/workspace/atlantis_fw/AsicFwS2/src/opticalzoom.cpp ****     float half_desired_fov_y = desired_fov_in_ref.y * 0.5f;
 213:/home/tienluong/workspace/atlantis_fw/AsicFwS2/src/opticalzoom.cpp **** 
 214:/home/tienluong/workspace/atlantis_fw/AsicFwS2/src/opticalzoom.cpp **** 
 215:/home/tienluong/workspace/atlantis_fw/AsicFwS2/src/opticalzoom.cpp ****     float tr_corner_x = ref_center_x + half_desired_fov_x;
 216:/home/tienluong/workspace/atlantis_fw/AsicFwS2/src/opticalzoom.cpp ****     float tr_corner_y = ref_center_y - half_desired_fov_y;
 217:/home/tienluong/workspace/atlantis_fw/AsicFwS2/src/opticalzoom.cpp **** 
 218:/home/tienluong/workspace/atlantis_fw/AsicFwS2/src/opticalzoom.cpp ****     float tl_corner_x = ref_center_x - half_desired_fov_x;
 219:/home/tienluong/workspace/atlantis_fw/AsicFwS2/src/opticalzoom.cpp ****     float tl_corner_y = ref_center_y - half_desired_fov_y;
 220:/home/tienluong/workspace/atlantis_fw/AsicFwS2/src/opticalzoom.cpp **** 
 221:/home/tienluong/workspace/atlantis_fw/AsicFwS2/src/opticalzoom.cpp ****     float bl_corner_x = ref_center_x - half_desired_fov_x;
 222:/home/tienluong/workspace/atlantis_fw/AsicFwS2/src/opticalzoom.cpp ****     float bl_corner_y = ref_center_y + half_desired_fov_y;
 223:/home/tienluong/workspace/atlantis_fw/AsicFwS2/src/opticalzoom.cpp **** 
 224:/home/tienluong/workspace/atlantis_fw/AsicFwS2/src/opticalzoom.cpp ****     float br_corner_x = ref_center_x + half_desired_fov_x;
 225:/home/tienluong/workspace/atlantis_fw/AsicFwS2/src/opticalzoom.cpp ****     float br_corner_y = ref_center_y + half_desired_fov_y;
 226:/home/tienluong/workspace/atlantis_fw/AsicFwS2/src/opticalzoom.cpp **** 
 227:/home/tienluong/workspace/atlantis_fw/AsicFwS2/src/opticalzoom.cpp ****     // assign the image center position
 228:/home/tienluong/workspace/atlantis_fw/AsicFwS2/src/opticalzoom.cpp ****     hires_img_center_in_ref_array[TopRight] = Pnt2f( tr_corner_x - half_hires_fov_x,
 229:/home/tienluong/workspace/atlantis_fw/AsicFwS2/src/opticalzoom.cpp ****                                                      tr_corner_y + half_hires_fov_y );
 230:/home/tienluong/workspace/atlantis_fw/AsicFwS2/src/opticalzoom.cpp **** 
 231:/home/tienluong/workspace/atlantis_fw/AsicFwS2/src/opticalzoom.cpp ****     hires_img_center_in_ref_array[TopLeft] = Pnt2f( tl_corner_x + half_hires_fov_x,
 232:/home/tienluong/workspace/atlantis_fw/AsicFwS2/src/opticalzoom.cpp ****                                                     tl_corner_y + half_hires_fov_y );
 233:/home/tienluong/workspace/atlantis_fw/AsicFwS2/src/opticalzoom.cpp **** 
 234:/home/tienluong/workspace/atlantis_fw/AsicFwS2/src/opticalzoom.cpp ****     hires_img_center_in_ref_array[BotLeft] = Pnt2f( bl_corner_x + half_hires_fov_x,
 235:/home/tienluong/workspace/atlantis_fw/AsicFwS2/src/opticalzoom.cpp ****                                                     bl_corner_y - half_hires_fov_y );
 236:/home/tienluong/workspace/atlantis_fw/AsicFwS2/src/opticalzoom.cpp **** 
 237:/home/tienluong/workspace/atlantis_fw/AsicFwS2/src/opticalzoom.cpp ****     hires_img_center_in_ref_array[BotRight] = Pnt2f( br_corner_x - half_hires_fov_x,
 238:/home/tienluong/workspace/atlantis_fw/AsicFwS2/src/opticalzoom.cpp ****                                                      br_corner_y - half_hires_fov_y );
 239:/home/tienluong/workspace/atlantis_fw/AsicFwS2/src/opticalzoom.cpp **** 
 240:/home/tienluong/workspace/atlantis_fw/AsicFwS2/src/opticalzoom.cpp ****     hires_img_center_in_ref_array[Center]   = Pnt2f( ref_center_x, ref_center_y );
 241:/home/tienluong/workspace/atlantis_fw/AsicFwS2/src/opticalzoom.cpp **** }
 242:/home/tienluong/workspace/atlantis_fw/AsicFwS2/src/opticalzoom.cpp **** }
 243:/home/tienluong/workspace/atlantis_fw/AsicFwS2/src/opticalzoom.cpp **** 
 244:/home/tienluong/workspace/atlantis_fw/AsicFwS2/src/opticalzoom.cpp **** 
 245:/home/tienluong/workspace/atlantis_fw/AsicFwS2/src/opticalzoom.cpp **** void OpticalZoomASIC::getImgCenterInRef( float zoom_level ,
 246:/home/tienluong/workspace/atlantis_fw/AsicFwS2/src/opticalzoom.cpp ****                                          CaptureMode capture_mode,
 247:/home/tienluong/workspace/atlantis_fw/AsicFwS2/src/opticalzoom.cpp ****                                          Pnt2f * img_center_in_ref_array ) const
 248:/home/tienluong/workspace/atlantis_fw/AsicFwS2/src/opticalzoom.cpp **** {
 249:/home/tienluong/workspace/atlantis_fw/AsicFwS2/src/opticalzoom.cpp ****     Pnt2f cover_region_center_Bs_in_ref[kNumCoverRegions];
 250:/home/tienluong/workspace/atlantis_fw/AsicFwS2/src/opticalzoom.cpp ****     Pnt2f cover_region_center_Cs_in_ref[kNumCoverRegions];
 251:/home/tienluong/workspace/atlantis_fw/AsicFwS2/src/opticalzoom.cpp **** 
 252:/home/tienluong/workspace/atlantis_fw/AsicFwS2/src/opticalzoom.cpp ****     if( capture_mode == CaptureMode::AB )
 253:/home/tienluong/workspace/atlantis_fw/AsicFwS2/src/opticalzoom.cpp ****     {
 254:/home/tienluong/workspace/atlantis_fw/AsicFwS2/src/opticalzoom.cpp ****         getCoverRegionCenterInRefAB( zoom_level, cover_region_center_Bs_in_ref );
 255:/home/tienluong/workspace/atlantis_fw/AsicFwS2/src/opticalzoom.cpp ****         getCoverRegionCenterInRefBC( _min_zoom_level_BC_mode, cover_region_center_Cs_in_ref );
 256:/home/tienluong/workspace/atlantis_fw/AsicFwS2/src/opticalzoom.cpp ****     }
 257:/home/tienluong/workspace/atlantis_fw/AsicFwS2/src/opticalzoom.cpp ****     else
 258:/home/tienluong/workspace/atlantis_fw/AsicFwS2/src/opticalzoom.cpp ****     {
 259:/home/tienluong/workspace/atlantis_fw/AsicFwS2/src/opticalzoom.cpp ****         getCoverRegionCenterInRefAB( _max_zoom_level_AB_mode, cover_region_center_Bs_in_ref );
 260:/home/tienluong/workspace/atlantis_fw/AsicFwS2/src/opticalzoom.cpp ****         getCoverRegionCenterInRefBC( zoom_level, cover_region_center_Cs_in_ref );
 261:/home/tienluong/workspace/atlantis_fw/AsicFwS2/src/opticalzoom.cpp ****     }
 262:/home/tienluong/workspace/atlantis_fw/AsicFwS2/src/opticalzoom.cpp **** 
 263:/home/tienluong/workspace/atlantis_fw/AsicFwS2/src/opticalzoom.cpp ****     img_center_in_ref_array[M_B1] = cover_region_center_Bs_in_ref[_module_coverage_array[M_B1]];
 264:/home/tienluong/workspace/atlantis_fw/AsicFwS2/src/opticalzoom.cpp ****     img_center_in_ref_array[M_B2] = cover_region_center_Bs_in_ref[_module_coverage_array[M_B2]];
 265:/home/tienluong/workspace/atlantis_fw/AsicFwS2/src/opticalzoom.cpp ****     img_center_in_ref_array[M_B3] = cover_region_center_Bs_in_ref[_module_coverage_array[M_B3]];
 266:/home/tienluong/workspace/atlantis_fw/AsicFwS2/src/opticalzoom.cpp ****     img_center_in_ref_array[M_B5] = cover_region_center_Bs_in_ref[_module_coverage_array[M_B5]];
 267:/home/tienluong/workspace/atlantis_fw/AsicFwS2/src/opticalzoom.cpp **** 
 268:/home/tienluong/workspace/atlantis_fw/AsicFwS2/src/opticalzoom.cpp ****     img_center_in_ref_array[M_C1] = cover_region_center_Cs_in_ref[_module_coverage_array[M_C1]];
 269:/home/tienluong/workspace/atlantis_fw/AsicFwS2/src/opticalzoom.cpp ****     img_center_in_ref_array[M_C2] = cover_region_center_Cs_in_ref[_module_coverage_array[M_C2]];
 270:/home/tienluong/workspace/atlantis_fw/AsicFwS2/src/opticalzoom.cpp ****     img_center_in_ref_array[M_C3] = cover_region_center_Cs_in_ref[_module_coverage_array[M_C3]];
 271:/home/tienluong/workspace/atlantis_fw/AsicFwS2/src/opticalzoom.cpp ****     img_center_in_ref_array[M_C4] = cover_region_center_Cs_in_ref[_module_coverage_array[M_C4]];
 272:/home/tienluong/workspace/atlantis_fw/AsicFwS2/src/opticalzoom.cpp **** }
 273:/home/tienluong/workspace/atlantis_fw/AsicFwS2/src/opticalzoom.cpp **** 
 274:/home/tienluong/workspace/atlantis_fw/AsicFwS2/src/opticalzoom.cpp **** 
 275:/home/tienluong/workspace/atlantis_fw/AsicFwS2/src/opticalzoom.cpp **** 
 276:/home/tienluong/workspace/atlantis_fw/AsicFwS2/src/opticalzoom.cpp **** void OpticalZoomASIC::getCoverRegionCenterInRefAB( float zoom_level, Pnt2f * cover_region_center_in
 277:/home/tienluong/workspace/atlantis_fw/AsicFwS2/src/opticalzoom.cpp **** {
 567              		.loc 1 277 0
 568              		.cfi_startproc
 569              		@ args = 0, pretend = 0, frame = 16
 570              		@ frame_needed = 0, uses_anonymous_args = 0
 571              	.LVL57:
 572 0000 2DE9F04F 		push	{r4, r5, r6, r7, r8, r9, r10, fp, lr}
 573              	.LCFI3:
 574              		.cfi_def_cfa_offset 36
 575              		.cfi_offset 4, -36
 576              		.cfi_offset 5, -32
 577              		.cfi_offset 6, -28
 578              		.cfi_offset 7, -24
 579              		.cfi_offset 8, -20
 580              		.cfi_offset 9, -16
 581              		.cfi_offset 10, -12
 582              		.cfi_offset 11, -8
 583              		.cfi_offset 14, -4
 584              	.LBB452:
 585              	.LBB453:
 586              	.LBB454:
 587              		.file 3 "/opt/toolchains/gcc-arm-none-eabi-4_9-2015q1/arm-none-eabi/include/c++/4.9.3/bits/stl_alg
   1:/opt/toolchains/gcc-arm-none-eabi-4_9-2015q1/arm-none-eabi/include/c++/4.9.3/bits/stl_algobase.h **** // Core algorithmic facilities -*- C++ -*-
   2:/opt/toolchains/gcc-arm-none-eabi-4_9-2015q1/arm-none-eabi/include/c++/4.9.3/bits/stl_algobase.h **** 
   3:/opt/toolchains/gcc-arm-none-eabi-4_9-2015q1/arm-none-eabi/include/c++/4.9.3/bits/stl_algobase.h **** // Copyright (C) 2001-2014 Free Software Foundation, Inc.
   4:/opt/toolchains/gcc-arm-none-eabi-4_9-2015q1/arm-none-eabi/include/c++/4.9.3/bits/stl_algobase.h **** //
   5:/opt/toolchains/gcc-arm-none-eabi-4_9-2015q1/arm-none-eabi/include/c++/4.9.3/bits/stl_algobase.h **** // This file is part of the GNU ISO C++ Library.  This library is free
   6:/opt/toolchains/gcc-arm-none-eabi-4_9-2015q1/arm-none-eabi/include/c++/4.9.3/bits/stl_algobase.h **** // software; you can redistribute it and/or modify it under the
   7:/opt/toolchains/gcc-arm-none-eabi-4_9-2015q1/arm-none-eabi/include/c++/4.9.3/bits/stl_algobase.h **** // terms of the GNU General Public License as published by the
   8:/opt/toolchains/gcc-arm-none-eabi-4_9-2015q1/arm-none-eabi/include/c++/4.9.3/bits/stl_algobase.h **** // Free Software Foundation; either version 3, or (at your option)
   9:/opt/toolchains/gcc-arm-none-eabi-4_9-2015q1/arm-none-eabi/include/c++/4.9.3/bits/stl_algobase.h **** // any later version.
  10:/opt/toolchains/gcc-arm-none-eabi-4_9-2015q1/arm-none-eabi/include/c++/4.9.3/bits/stl_algobase.h **** 
  11:/opt/toolchains/gcc-arm-none-eabi-4_9-2015q1/arm-none-eabi/include/c++/4.9.3/bits/stl_algobase.h **** // This library is distributed in the hope that it will be useful,
  12:/opt/toolchains/gcc-arm-none-eabi-4_9-2015q1/arm-none-eabi/include/c++/4.9.3/bits/stl_algobase.h **** // but WITHOUT ANY WARRANTY; without even the implied warranty of
  13:/opt/toolchains/gcc-arm-none-eabi-4_9-2015q1/arm-none-eabi/include/c++/4.9.3/bits/stl_algobase.h **** // MERCHANTABILITY or FITNESS FOR A PARTICULAR PURPOSE.  See the
  14:/opt/toolchains/gcc-arm-none-eabi-4_9-2015q1/arm-none-eabi/include/c++/4.9.3/bits/stl_algobase.h **** // GNU General Public License for more details.
  15:/opt/toolchains/gcc-arm-none-eabi-4_9-2015q1/arm-none-eabi/include/c++/4.9.3/bits/stl_algobase.h **** 
  16:/opt/toolchains/gcc-arm-none-eabi-4_9-2015q1/arm-none-eabi/include/c++/4.9.3/bits/stl_algobase.h **** // Under Section 7 of GPL version 3, you are granted additional
  17:/opt/toolchains/gcc-arm-none-eabi-4_9-2015q1/arm-none-eabi/include/c++/4.9.3/bits/stl_algobase.h **** // permissions described in the GCC Runtime Library Exception, version
  18:/opt/toolchains/gcc-arm-none-eabi-4_9-2015q1/arm-none-eabi/include/c++/4.9.3/bits/stl_algobase.h **** // 3.1, as published by the Free Software Foundation.
  19:/opt/toolchains/gcc-arm-none-eabi-4_9-2015q1/arm-none-eabi/include/c++/4.9.3/bits/stl_algobase.h **** 
  20:/opt/toolchains/gcc-arm-none-eabi-4_9-2015q1/arm-none-eabi/include/c++/4.9.3/bits/stl_algobase.h **** // You should have received a copy of the GNU General Public License and
  21:/opt/toolchains/gcc-arm-none-eabi-4_9-2015q1/arm-none-eabi/include/c++/4.9.3/bits/stl_algobase.h **** // a copy of the GCC Runtime Library Exception along with this program;
  22:/opt/toolchains/gcc-arm-none-eabi-4_9-2015q1/arm-none-eabi/include/c++/4.9.3/bits/stl_algobase.h **** // see the files COPYING3 and COPYING.RUNTIME respectively.  If not, see
  23:/opt/toolchains/gcc-arm-none-eabi-4_9-2015q1/arm-none-eabi/include/c++/4.9.3/bits/stl_algobase.h **** // <http://www.gnu.org/licenses/>.
  24:/opt/toolchains/gcc-arm-none-eabi-4_9-2015q1/arm-none-eabi/include/c++/4.9.3/bits/stl_algobase.h **** 
  25:/opt/toolchains/gcc-arm-none-eabi-4_9-2015q1/arm-none-eabi/include/c++/4.9.3/bits/stl_algobase.h **** /*
  26:/opt/toolchains/gcc-arm-none-eabi-4_9-2015q1/arm-none-eabi/include/c++/4.9.3/bits/stl_algobase.h ****  *
  27:/opt/toolchains/gcc-arm-none-eabi-4_9-2015q1/arm-none-eabi/include/c++/4.9.3/bits/stl_algobase.h ****  * Copyright (c) 1994
  28:/opt/toolchains/gcc-arm-none-eabi-4_9-2015q1/arm-none-eabi/include/c++/4.9.3/bits/stl_algobase.h ****  * Hewlett-Packard Company
  29:/opt/toolchains/gcc-arm-none-eabi-4_9-2015q1/arm-none-eabi/include/c++/4.9.3/bits/stl_algobase.h ****  *
  30:/opt/toolchains/gcc-arm-none-eabi-4_9-2015q1/arm-none-eabi/include/c++/4.9.3/bits/stl_algobase.h ****  * Permission to use, copy, modify, distribute and sell this software
  31:/opt/toolchains/gcc-arm-none-eabi-4_9-2015q1/arm-none-eabi/include/c++/4.9.3/bits/stl_algobase.h ****  * and its documentation for any purpose is hereby granted without fee,
  32:/opt/toolchains/gcc-arm-none-eabi-4_9-2015q1/arm-none-eabi/include/c++/4.9.3/bits/stl_algobase.h ****  * provided that the above copyright notice appear in all copies and
  33:/opt/toolchains/gcc-arm-none-eabi-4_9-2015q1/arm-none-eabi/include/c++/4.9.3/bits/stl_algobase.h ****  * that both that copyright notice and this permission notice appear
  34:/opt/toolchains/gcc-arm-none-eabi-4_9-2015q1/arm-none-eabi/include/c++/4.9.3/bits/stl_algobase.h ****  * in supporting documentation.  Hewlett-Packard Company makes no
  35:/opt/toolchains/gcc-arm-none-eabi-4_9-2015q1/arm-none-eabi/include/c++/4.9.3/bits/stl_algobase.h ****  * representations about the suitability of this software for any
  36:/opt/toolchains/gcc-arm-none-eabi-4_9-2015q1/arm-none-eabi/include/c++/4.9.3/bits/stl_algobase.h ****  * purpose.  It is provided "as is" without express or implied warranty.
  37:/opt/toolchains/gcc-arm-none-eabi-4_9-2015q1/arm-none-eabi/include/c++/4.9.3/bits/stl_algobase.h ****  *
  38:/opt/toolchains/gcc-arm-none-eabi-4_9-2015q1/arm-none-eabi/include/c++/4.9.3/bits/stl_algobase.h ****  *
  39:/opt/toolchains/gcc-arm-none-eabi-4_9-2015q1/arm-none-eabi/include/c++/4.9.3/bits/stl_algobase.h ****  * Copyright (c) 1996-1998
  40:/opt/toolchains/gcc-arm-none-eabi-4_9-2015q1/arm-none-eabi/include/c++/4.9.3/bits/stl_algobase.h ****  * Silicon Graphics Computer Systems, Inc.
  41:/opt/toolchains/gcc-arm-none-eabi-4_9-2015q1/arm-none-eabi/include/c++/4.9.3/bits/stl_algobase.h ****  *
  42:/opt/toolchains/gcc-arm-none-eabi-4_9-2015q1/arm-none-eabi/include/c++/4.9.3/bits/stl_algobase.h ****  * Permission to use, copy, modify, distribute and sell this software
  43:/opt/toolchains/gcc-arm-none-eabi-4_9-2015q1/arm-none-eabi/include/c++/4.9.3/bits/stl_algobase.h ****  * and its documentation for any purpose is hereby granted without fee,
  44:/opt/toolchains/gcc-arm-none-eabi-4_9-2015q1/arm-none-eabi/include/c++/4.9.3/bits/stl_algobase.h ****  * provided that the above copyright notice appear in all copies and
  45:/opt/toolchains/gcc-arm-none-eabi-4_9-2015q1/arm-none-eabi/include/c++/4.9.3/bits/stl_algobase.h ****  * that both that copyright notice and this permission notice appear
  46:/opt/toolchains/gcc-arm-none-eabi-4_9-2015q1/arm-none-eabi/include/c++/4.9.3/bits/stl_algobase.h ****  * in supporting documentation.  Silicon Graphics makes no
  47:/opt/toolchains/gcc-arm-none-eabi-4_9-2015q1/arm-none-eabi/include/c++/4.9.3/bits/stl_algobase.h ****  * representations about the suitability of this software for any
  48:/opt/toolchains/gcc-arm-none-eabi-4_9-2015q1/arm-none-eabi/include/c++/4.9.3/bits/stl_algobase.h ****  * purpose.  It is provided "as is" without express or implied warranty.
  49:/opt/toolchains/gcc-arm-none-eabi-4_9-2015q1/arm-none-eabi/include/c++/4.9.3/bits/stl_algobase.h ****  */
  50:/opt/toolchains/gcc-arm-none-eabi-4_9-2015q1/arm-none-eabi/include/c++/4.9.3/bits/stl_algobase.h **** 
  51:/opt/toolchains/gcc-arm-none-eabi-4_9-2015q1/arm-none-eabi/include/c++/4.9.3/bits/stl_algobase.h **** /** @file bits/stl_algobase.h
  52:/opt/toolchains/gcc-arm-none-eabi-4_9-2015q1/arm-none-eabi/include/c++/4.9.3/bits/stl_algobase.h ****  *  This is an internal header file, included by other library headers.
  53:/opt/toolchains/gcc-arm-none-eabi-4_9-2015q1/arm-none-eabi/include/c++/4.9.3/bits/stl_algobase.h ****  *  Do not attempt to use it directly. @headername{algorithm}
  54:/opt/toolchains/gcc-arm-none-eabi-4_9-2015q1/arm-none-eabi/include/c++/4.9.3/bits/stl_algobase.h ****  */
  55:/opt/toolchains/gcc-arm-none-eabi-4_9-2015q1/arm-none-eabi/include/c++/4.9.3/bits/stl_algobase.h **** 
  56:/opt/toolchains/gcc-arm-none-eabi-4_9-2015q1/arm-none-eabi/include/c++/4.9.3/bits/stl_algobase.h **** #ifndef _STL_ALGOBASE_H
  57:/opt/toolchains/gcc-arm-none-eabi-4_9-2015q1/arm-none-eabi/include/c++/4.9.3/bits/stl_algobase.h **** #define _STL_ALGOBASE_H 1
  58:/opt/toolchains/gcc-arm-none-eabi-4_9-2015q1/arm-none-eabi/include/c++/4.9.3/bits/stl_algobase.h **** 
  59:/opt/toolchains/gcc-arm-none-eabi-4_9-2015q1/arm-none-eabi/include/c++/4.9.3/bits/stl_algobase.h **** #include <bits/c++config.h>
  60:/opt/toolchains/gcc-arm-none-eabi-4_9-2015q1/arm-none-eabi/include/c++/4.9.3/bits/stl_algobase.h **** #include <bits/functexcept.h>
  61:/opt/toolchains/gcc-arm-none-eabi-4_9-2015q1/arm-none-eabi/include/c++/4.9.3/bits/stl_algobase.h **** #include <bits/cpp_type_traits.h>
  62:/opt/toolchains/gcc-arm-none-eabi-4_9-2015q1/arm-none-eabi/include/c++/4.9.3/bits/stl_algobase.h **** #include <ext/type_traits.h>
  63:/opt/toolchains/gcc-arm-none-eabi-4_9-2015q1/arm-none-eabi/include/c++/4.9.3/bits/stl_algobase.h **** #include <ext/numeric_traits.h>
  64:/opt/toolchains/gcc-arm-none-eabi-4_9-2015q1/arm-none-eabi/include/c++/4.9.3/bits/stl_algobase.h **** #include <bits/stl_pair.h>
  65:/opt/toolchains/gcc-arm-none-eabi-4_9-2015q1/arm-none-eabi/include/c++/4.9.3/bits/stl_algobase.h **** #include <bits/stl_iterator_base_types.h>
  66:/opt/toolchains/gcc-arm-none-eabi-4_9-2015q1/arm-none-eabi/include/c++/4.9.3/bits/stl_algobase.h **** #include <bits/stl_iterator_base_funcs.h>
  67:/opt/toolchains/gcc-arm-none-eabi-4_9-2015q1/arm-none-eabi/include/c++/4.9.3/bits/stl_algobase.h **** #include <bits/stl_iterator.h>
  68:/opt/toolchains/gcc-arm-none-eabi-4_9-2015q1/arm-none-eabi/include/c++/4.9.3/bits/stl_algobase.h **** #include <bits/concept_check.h>
  69:/opt/toolchains/gcc-arm-none-eabi-4_9-2015q1/arm-none-eabi/include/c++/4.9.3/bits/stl_algobase.h **** #include <debug/debug.h>
  70:/opt/toolchains/gcc-arm-none-eabi-4_9-2015q1/arm-none-eabi/include/c++/4.9.3/bits/stl_algobase.h **** #include <bits/move.h> // For std::swap and _GLIBCXX_MOVE
  71:/opt/toolchains/gcc-arm-none-eabi-4_9-2015q1/arm-none-eabi/include/c++/4.9.3/bits/stl_algobase.h **** #include <bits/predefined_ops.h>
  72:/opt/toolchains/gcc-arm-none-eabi-4_9-2015q1/arm-none-eabi/include/c++/4.9.3/bits/stl_algobase.h **** 
  73:/opt/toolchains/gcc-arm-none-eabi-4_9-2015q1/arm-none-eabi/include/c++/4.9.3/bits/stl_algobase.h **** namespace std _GLIBCXX_VISIBILITY(default)
  74:/opt/toolchains/gcc-arm-none-eabi-4_9-2015q1/arm-none-eabi/include/c++/4.9.3/bits/stl_algobase.h **** {
  75:/opt/toolchains/gcc-arm-none-eabi-4_9-2015q1/arm-none-eabi/include/c++/4.9.3/bits/stl_algobase.h **** _GLIBCXX_BEGIN_NAMESPACE_VERSION
  76:/opt/toolchains/gcc-arm-none-eabi-4_9-2015q1/arm-none-eabi/include/c++/4.9.3/bits/stl_algobase.h **** 
  77:/opt/toolchains/gcc-arm-none-eabi-4_9-2015q1/arm-none-eabi/include/c++/4.9.3/bits/stl_algobase.h **** #if __cplusplus < 201103L
  78:/opt/toolchains/gcc-arm-none-eabi-4_9-2015q1/arm-none-eabi/include/c++/4.9.3/bits/stl_algobase.h ****   // See http://gcc.gnu.org/ml/libstdc++/2004-08/msg00167.html: in a
  79:/opt/toolchains/gcc-arm-none-eabi-4_9-2015q1/arm-none-eabi/include/c++/4.9.3/bits/stl_algobase.h ****   // nutshell, we are partially implementing the resolution of DR 187,
  80:/opt/toolchains/gcc-arm-none-eabi-4_9-2015q1/arm-none-eabi/include/c++/4.9.3/bits/stl_algobase.h ****   // when it's safe, i.e., the value_types are equal.
  81:/opt/toolchains/gcc-arm-none-eabi-4_9-2015q1/arm-none-eabi/include/c++/4.9.3/bits/stl_algobase.h ****   template<bool _BoolType>
  82:/opt/toolchains/gcc-arm-none-eabi-4_9-2015q1/arm-none-eabi/include/c++/4.9.3/bits/stl_algobase.h ****     struct __iter_swap
  83:/opt/toolchains/gcc-arm-none-eabi-4_9-2015q1/arm-none-eabi/include/c++/4.9.3/bits/stl_algobase.h ****     {
  84:/opt/toolchains/gcc-arm-none-eabi-4_9-2015q1/arm-none-eabi/include/c++/4.9.3/bits/stl_algobase.h ****       template<typename _ForwardIterator1, typename _ForwardIterator2>
  85:/opt/toolchains/gcc-arm-none-eabi-4_9-2015q1/arm-none-eabi/include/c++/4.9.3/bits/stl_algobase.h ****         static void
  86:/opt/toolchains/gcc-arm-none-eabi-4_9-2015q1/arm-none-eabi/include/c++/4.9.3/bits/stl_algobase.h ****         iter_swap(_ForwardIterator1 __a, _ForwardIterator2 __b)
  87:/opt/toolchains/gcc-arm-none-eabi-4_9-2015q1/arm-none-eabi/include/c++/4.9.3/bits/stl_algobase.h ****         {
  88:/opt/toolchains/gcc-arm-none-eabi-4_9-2015q1/arm-none-eabi/include/c++/4.9.3/bits/stl_algobase.h ****           typedef typename iterator_traits<_ForwardIterator1>::value_type
  89:/opt/toolchains/gcc-arm-none-eabi-4_9-2015q1/arm-none-eabi/include/c++/4.9.3/bits/stl_algobase.h ****             _ValueType1;
  90:/opt/toolchains/gcc-arm-none-eabi-4_9-2015q1/arm-none-eabi/include/c++/4.9.3/bits/stl_algobase.h ****           _ValueType1 __tmp = _GLIBCXX_MOVE(*__a);
  91:/opt/toolchains/gcc-arm-none-eabi-4_9-2015q1/arm-none-eabi/include/c++/4.9.3/bits/stl_algobase.h ****           *__a = _GLIBCXX_MOVE(*__b);
  92:/opt/toolchains/gcc-arm-none-eabi-4_9-2015q1/arm-none-eabi/include/c++/4.9.3/bits/stl_algobase.h ****           *__b = _GLIBCXX_MOVE(__tmp);
  93:/opt/toolchains/gcc-arm-none-eabi-4_9-2015q1/arm-none-eabi/include/c++/4.9.3/bits/stl_algobase.h **** 	}
  94:/opt/toolchains/gcc-arm-none-eabi-4_9-2015q1/arm-none-eabi/include/c++/4.9.3/bits/stl_algobase.h ****     };
  95:/opt/toolchains/gcc-arm-none-eabi-4_9-2015q1/arm-none-eabi/include/c++/4.9.3/bits/stl_algobase.h **** 
  96:/opt/toolchains/gcc-arm-none-eabi-4_9-2015q1/arm-none-eabi/include/c++/4.9.3/bits/stl_algobase.h ****   template<>
  97:/opt/toolchains/gcc-arm-none-eabi-4_9-2015q1/arm-none-eabi/include/c++/4.9.3/bits/stl_algobase.h ****     struct __iter_swap<true>
  98:/opt/toolchains/gcc-arm-none-eabi-4_9-2015q1/arm-none-eabi/include/c++/4.9.3/bits/stl_algobase.h ****     {
  99:/opt/toolchains/gcc-arm-none-eabi-4_9-2015q1/arm-none-eabi/include/c++/4.9.3/bits/stl_algobase.h ****       template<typename _ForwardIterator1, typename _ForwardIterator2>
 100:/opt/toolchains/gcc-arm-none-eabi-4_9-2015q1/arm-none-eabi/include/c++/4.9.3/bits/stl_algobase.h ****         static void 
 101:/opt/toolchains/gcc-arm-none-eabi-4_9-2015q1/arm-none-eabi/include/c++/4.9.3/bits/stl_algobase.h ****         iter_swap(_ForwardIterator1 __a, _ForwardIterator2 __b)
 102:/opt/toolchains/gcc-arm-none-eabi-4_9-2015q1/arm-none-eabi/include/c++/4.9.3/bits/stl_algobase.h ****         {
 103:/opt/toolchains/gcc-arm-none-eabi-4_9-2015q1/arm-none-eabi/include/c++/4.9.3/bits/stl_algobase.h ****           swap(*__a, *__b);
 104:/opt/toolchains/gcc-arm-none-eabi-4_9-2015q1/arm-none-eabi/include/c++/4.9.3/bits/stl_algobase.h ****         }
 105:/opt/toolchains/gcc-arm-none-eabi-4_9-2015q1/arm-none-eabi/include/c++/4.9.3/bits/stl_algobase.h ****     };
 106:/opt/toolchains/gcc-arm-none-eabi-4_9-2015q1/arm-none-eabi/include/c++/4.9.3/bits/stl_algobase.h **** #endif
 107:/opt/toolchains/gcc-arm-none-eabi-4_9-2015q1/arm-none-eabi/include/c++/4.9.3/bits/stl_algobase.h **** 
 108:/opt/toolchains/gcc-arm-none-eabi-4_9-2015q1/arm-none-eabi/include/c++/4.9.3/bits/stl_algobase.h ****   /**
 109:/opt/toolchains/gcc-arm-none-eabi-4_9-2015q1/arm-none-eabi/include/c++/4.9.3/bits/stl_algobase.h ****    *  @brief Swaps the contents of two iterators.
 110:/opt/toolchains/gcc-arm-none-eabi-4_9-2015q1/arm-none-eabi/include/c++/4.9.3/bits/stl_algobase.h ****    *  @ingroup mutating_algorithms
 111:/opt/toolchains/gcc-arm-none-eabi-4_9-2015q1/arm-none-eabi/include/c++/4.9.3/bits/stl_algobase.h ****    *  @param  __a  An iterator.
 112:/opt/toolchains/gcc-arm-none-eabi-4_9-2015q1/arm-none-eabi/include/c++/4.9.3/bits/stl_algobase.h ****    *  @param  __b  Another iterator.
 113:/opt/toolchains/gcc-arm-none-eabi-4_9-2015q1/arm-none-eabi/include/c++/4.9.3/bits/stl_algobase.h ****    *  @return   Nothing.
 114:/opt/toolchains/gcc-arm-none-eabi-4_9-2015q1/arm-none-eabi/include/c++/4.9.3/bits/stl_algobase.h ****    *
 115:/opt/toolchains/gcc-arm-none-eabi-4_9-2015q1/arm-none-eabi/include/c++/4.9.3/bits/stl_algobase.h ****    *  This function swaps the values pointed to by two iterators, not the
 116:/opt/toolchains/gcc-arm-none-eabi-4_9-2015q1/arm-none-eabi/include/c++/4.9.3/bits/stl_algobase.h ****    *  iterators themselves.
 117:/opt/toolchains/gcc-arm-none-eabi-4_9-2015q1/arm-none-eabi/include/c++/4.9.3/bits/stl_algobase.h ****   */
 118:/opt/toolchains/gcc-arm-none-eabi-4_9-2015q1/arm-none-eabi/include/c++/4.9.3/bits/stl_algobase.h ****   template<typename _ForwardIterator1, typename _ForwardIterator2>
 119:/opt/toolchains/gcc-arm-none-eabi-4_9-2015q1/arm-none-eabi/include/c++/4.9.3/bits/stl_algobase.h ****     inline void
 120:/opt/toolchains/gcc-arm-none-eabi-4_9-2015q1/arm-none-eabi/include/c++/4.9.3/bits/stl_algobase.h ****     iter_swap(_ForwardIterator1 __a, _ForwardIterator2 __b)
 121:/opt/toolchains/gcc-arm-none-eabi-4_9-2015q1/arm-none-eabi/include/c++/4.9.3/bits/stl_algobase.h ****     {
 122:/opt/toolchains/gcc-arm-none-eabi-4_9-2015q1/arm-none-eabi/include/c++/4.9.3/bits/stl_algobase.h ****       // concept requirements
 123:/opt/toolchains/gcc-arm-none-eabi-4_9-2015q1/arm-none-eabi/include/c++/4.9.3/bits/stl_algobase.h ****       __glibcxx_function_requires(_Mutable_ForwardIteratorConcept<
 124:/opt/toolchains/gcc-arm-none-eabi-4_9-2015q1/arm-none-eabi/include/c++/4.9.3/bits/stl_algobase.h **** 				  _ForwardIterator1>)
 125:/opt/toolchains/gcc-arm-none-eabi-4_9-2015q1/arm-none-eabi/include/c++/4.9.3/bits/stl_algobase.h ****       __glibcxx_function_requires(_Mutable_ForwardIteratorConcept<
 126:/opt/toolchains/gcc-arm-none-eabi-4_9-2015q1/arm-none-eabi/include/c++/4.9.3/bits/stl_algobase.h **** 				  _ForwardIterator2>)
 127:/opt/toolchains/gcc-arm-none-eabi-4_9-2015q1/arm-none-eabi/include/c++/4.9.3/bits/stl_algobase.h **** 
 128:/opt/toolchains/gcc-arm-none-eabi-4_9-2015q1/arm-none-eabi/include/c++/4.9.3/bits/stl_algobase.h **** #if __cplusplus < 201103L
 129:/opt/toolchains/gcc-arm-none-eabi-4_9-2015q1/arm-none-eabi/include/c++/4.9.3/bits/stl_algobase.h ****       typedef typename iterator_traits<_ForwardIterator1>::value_type
 130:/opt/toolchains/gcc-arm-none-eabi-4_9-2015q1/arm-none-eabi/include/c++/4.9.3/bits/stl_algobase.h **** 	_ValueType1;
 131:/opt/toolchains/gcc-arm-none-eabi-4_9-2015q1/arm-none-eabi/include/c++/4.9.3/bits/stl_algobase.h ****       typedef typename iterator_traits<_ForwardIterator2>::value_type
 132:/opt/toolchains/gcc-arm-none-eabi-4_9-2015q1/arm-none-eabi/include/c++/4.9.3/bits/stl_algobase.h **** 	_ValueType2;
 133:/opt/toolchains/gcc-arm-none-eabi-4_9-2015q1/arm-none-eabi/include/c++/4.9.3/bits/stl_algobase.h **** 
 134:/opt/toolchains/gcc-arm-none-eabi-4_9-2015q1/arm-none-eabi/include/c++/4.9.3/bits/stl_algobase.h ****       __glibcxx_function_requires(_ConvertibleConcept<_ValueType1,
 135:/opt/toolchains/gcc-arm-none-eabi-4_9-2015q1/arm-none-eabi/include/c++/4.9.3/bits/stl_algobase.h **** 				  _ValueType2>)
 136:/opt/toolchains/gcc-arm-none-eabi-4_9-2015q1/arm-none-eabi/include/c++/4.9.3/bits/stl_algobase.h ****       __glibcxx_function_requires(_ConvertibleConcept<_ValueType2,
 137:/opt/toolchains/gcc-arm-none-eabi-4_9-2015q1/arm-none-eabi/include/c++/4.9.3/bits/stl_algobase.h **** 				  _ValueType1>)
 138:/opt/toolchains/gcc-arm-none-eabi-4_9-2015q1/arm-none-eabi/include/c++/4.9.3/bits/stl_algobase.h **** 
 139:/opt/toolchains/gcc-arm-none-eabi-4_9-2015q1/arm-none-eabi/include/c++/4.9.3/bits/stl_algobase.h ****       typedef typename iterator_traits<_ForwardIterator1>::reference
 140:/opt/toolchains/gcc-arm-none-eabi-4_9-2015q1/arm-none-eabi/include/c++/4.9.3/bits/stl_algobase.h **** 	_ReferenceType1;
 141:/opt/toolchains/gcc-arm-none-eabi-4_9-2015q1/arm-none-eabi/include/c++/4.9.3/bits/stl_algobase.h ****       typedef typename iterator_traits<_ForwardIterator2>::reference
 142:/opt/toolchains/gcc-arm-none-eabi-4_9-2015q1/arm-none-eabi/include/c++/4.9.3/bits/stl_algobase.h **** 	_ReferenceType2;
 143:/opt/toolchains/gcc-arm-none-eabi-4_9-2015q1/arm-none-eabi/include/c++/4.9.3/bits/stl_algobase.h ****       std::__iter_swap<__are_same<_ValueType1, _ValueType2>::__value
 144:/opt/toolchains/gcc-arm-none-eabi-4_9-2015q1/arm-none-eabi/include/c++/4.9.3/bits/stl_algobase.h **** 	&& __are_same<_ValueType1&, _ReferenceType1>::__value
 145:/opt/toolchains/gcc-arm-none-eabi-4_9-2015q1/arm-none-eabi/include/c++/4.9.3/bits/stl_algobase.h **** 	&& __are_same<_ValueType2&, _ReferenceType2>::__value>::
 146:/opt/toolchains/gcc-arm-none-eabi-4_9-2015q1/arm-none-eabi/include/c++/4.9.3/bits/stl_algobase.h **** 	iter_swap(__a, __b);
 147:/opt/toolchains/gcc-arm-none-eabi-4_9-2015q1/arm-none-eabi/include/c++/4.9.3/bits/stl_algobase.h **** #else
 148:/opt/toolchains/gcc-arm-none-eabi-4_9-2015q1/arm-none-eabi/include/c++/4.9.3/bits/stl_algobase.h ****       swap(*__a, *__b);
 149:/opt/toolchains/gcc-arm-none-eabi-4_9-2015q1/arm-none-eabi/include/c++/4.9.3/bits/stl_algobase.h **** #endif
 150:/opt/toolchains/gcc-arm-none-eabi-4_9-2015q1/arm-none-eabi/include/c++/4.9.3/bits/stl_algobase.h ****     }
 151:/opt/toolchains/gcc-arm-none-eabi-4_9-2015q1/arm-none-eabi/include/c++/4.9.3/bits/stl_algobase.h **** 
 152:/opt/toolchains/gcc-arm-none-eabi-4_9-2015q1/arm-none-eabi/include/c++/4.9.3/bits/stl_algobase.h ****   /**
 153:/opt/toolchains/gcc-arm-none-eabi-4_9-2015q1/arm-none-eabi/include/c++/4.9.3/bits/stl_algobase.h ****    *  @brief Swap the elements of two sequences.
 154:/opt/toolchains/gcc-arm-none-eabi-4_9-2015q1/arm-none-eabi/include/c++/4.9.3/bits/stl_algobase.h ****    *  @ingroup mutating_algorithms
 155:/opt/toolchains/gcc-arm-none-eabi-4_9-2015q1/arm-none-eabi/include/c++/4.9.3/bits/stl_algobase.h ****    *  @param  __first1  A forward iterator.
 156:/opt/toolchains/gcc-arm-none-eabi-4_9-2015q1/arm-none-eabi/include/c++/4.9.3/bits/stl_algobase.h ****    *  @param  __last1   A forward iterator.
 157:/opt/toolchains/gcc-arm-none-eabi-4_9-2015q1/arm-none-eabi/include/c++/4.9.3/bits/stl_algobase.h ****    *  @param  __first2  A forward iterator.
 158:/opt/toolchains/gcc-arm-none-eabi-4_9-2015q1/arm-none-eabi/include/c++/4.9.3/bits/stl_algobase.h ****    *  @return   An iterator equal to @p first2+(last1-first1).
 159:/opt/toolchains/gcc-arm-none-eabi-4_9-2015q1/arm-none-eabi/include/c++/4.9.3/bits/stl_algobase.h ****    *
 160:/opt/toolchains/gcc-arm-none-eabi-4_9-2015q1/arm-none-eabi/include/c++/4.9.3/bits/stl_algobase.h ****    *  Swaps each element in the range @p [first1,last1) with the
 161:/opt/toolchains/gcc-arm-none-eabi-4_9-2015q1/arm-none-eabi/include/c++/4.9.3/bits/stl_algobase.h ****    *  corresponding element in the range @p [first2,(last1-first1)).
 162:/opt/toolchains/gcc-arm-none-eabi-4_9-2015q1/arm-none-eabi/include/c++/4.9.3/bits/stl_algobase.h ****    *  The ranges must not overlap.
 163:/opt/toolchains/gcc-arm-none-eabi-4_9-2015q1/arm-none-eabi/include/c++/4.9.3/bits/stl_algobase.h ****   */
 164:/opt/toolchains/gcc-arm-none-eabi-4_9-2015q1/arm-none-eabi/include/c++/4.9.3/bits/stl_algobase.h ****   template<typename _ForwardIterator1, typename _ForwardIterator2>
 165:/opt/toolchains/gcc-arm-none-eabi-4_9-2015q1/arm-none-eabi/include/c++/4.9.3/bits/stl_algobase.h ****     _ForwardIterator2
 166:/opt/toolchains/gcc-arm-none-eabi-4_9-2015q1/arm-none-eabi/include/c++/4.9.3/bits/stl_algobase.h ****     swap_ranges(_ForwardIterator1 __first1, _ForwardIterator1 __last1,
 167:/opt/toolchains/gcc-arm-none-eabi-4_9-2015q1/arm-none-eabi/include/c++/4.9.3/bits/stl_algobase.h **** 		_ForwardIterator2 __first2)
 168:/opt/toolchains/gcc-arm-none-eabi-4_9-2015q1/arm-none-eabi/include/c++/4.9.3/bits/stl_algobase.h ****     {
 169:/opt/toolchains/gcc-arm-none-eabi-4_9-2015q1/arm-none-eabi/include/c++/4.9.3/bits/stl_algobase.h ****       // concept requirements
 170:/opt/toolchains/gcc-arm-none-eabi-4_9-2015q1/arm-none-eabi/include/c++/4.9.3/bits/stl_algobase.h ****       __glibcxx_function_requires(_Mutable_ForwardIteratorConcept<
 171:/opt/toolchains/gcc-arm-none-eabi-4_9-2015q1/arm-none-eabi/include/c++/4.9.3/bits/stl_algobase.h **** 				  _ForwardIterator1>)
 172:/opt/toolchains/gcc-arm-none-eabi-4_9-2015q1/arm-none-eabi/include/c++/4.9.3/bits/stl_algobase.h ****       __glibcxx_function_requires(_Mutable_ForwardIteratorConcept<
 173:/opt/toolchains/gcc-arm-none-eabi-4_9-2015q1/arm-none-eabi/include/c++/4.9.3/bits/stl_algobase.h **** 				  _ForwardIterator2>)
 174:/opt/toolchains/gcc-arm-none-eabi-4_9-2015q1/arm-none-eabi/include/c++/4.9.3/bits/stl_algobase.h ****       __glibcxx_requires_valid_range(__first1, __last1);
 175:/opt/toolchains/gcc-arm-none-eabi-4_9-2015q1/arm-none-eabi/include/c++/4.9.3/bits/stl_algobase.h **** 
 176:/opt/toolchains/gcc-arm-none-eabi-4_9-2015q1/arm-none-eabi/include/c++/4.9.3/bits/stl_algobase.h ****       for (; __first1 != __last1; ++__first1, ++__first2)
 177:/opt/toolchains/gcc-arm-none-eabi-4_9-2015q1/arm-none-eabi/include/c++/4.9.3/bits/stl_algobase.h **** 	std::iter_swap(__first1, __first2);
 178:/opt/toolchains/gcc-arm-none-eabi-4_9-2015q1/arm-none-eabi/include/c++/4.9.3/bits/stl_algobase.h ****       return __first2;
 179:/opt/toolchains/gcc-arm-none-eabi-4_9-2015q1/arm-none-eabi/include/c++/4.9.3/bits/stl_algobase.h ****     }
 180:/opt/toolchains/gcc-arm-none-eabi-4_9-2015q1/arm-none-eabi/include/c++/4.9.3/bits/stl_algobase.h **** 
 181:/opt/toolchains/gcc-arm-none-eabi-4_9-2015q1/arm-none-eabi/include/c++/4.9.3/bits/stl_algobase.h ****   /**
 182:/opt/toolchains/gcc-arm-none-eabi-4_9-2015q1/arm-none-eabi/include/c++/4.9.3/bits/stl_algobase.h ****    *  @brief This does what you think it does.
 183:/opt/toolchains/gcc-arm-none-eabi-4_9-2015q1/arm-none-eabi/include/c++/4.9.3/bits/stl_algobase.h ****    *  @ingroup sorting_algorithms
 184:/opt/toolchains/gcc-arm-none-eabi-4_9-2015q1/arm-none-eabi/include/c++/4.9.3/bits/stl_algobase.h ****    *  @param  __a  A thing of arbitrary type.
 185:/opt/toolchains/gcc-arm-none-eabi-4_9-2015q1/arm-none-eabi/include/c++/4.9.3/bits/stl_algobase.h ****    *  @param  __b  Another thing of arbitrary type.
 186:/opt/toolchains/gcc-arm-none-eabi-4_9-2015q1/arm-none-eabi/include/c++/4.9.3/bits/stl_algobase.h ****    *  @return   The lesser of the parameters.
 187:/opt/toolchains/gcc-arm-none-eabi-4_9-2015q1/arm-none-eabi/include/c++/4.9.3/bits/stl_algobase.h ****    *
 188:/opt/toolchains/gcc-arm-none-eabi-4_9-2015q1/arm-none-eabi/include/c++/4.9.3/bits/stl_algobase.h ****    *  This is the simple classic generic implementation.  It will work on
 189:/opt/toolchains/gcc-arm-none-eabi-4_9-2015q1/arm-none-eabi/include/c++/4.9.3/bits/stl_algobase.h ****    *  temporary expressions, since they are only evaluated once, unlike a
 190:/opt/toolchains/gcc-arm-none-eabi-4_9-2015q1/arm-none-eabi/include/c++/4.9.3/bits/stl_algobase.h ****    *  preprocessor macro.
 191:/opt/toolchains/gcc-arm-none-eabi-4_9-2015q1/arm-none-eabi/include/c++/4.9.3/bits/stl_algobase.h ****   */
 192:/opt/toolchains/gcc-arm-none-eabi-4_9-2015q1/arm-none-eabi/include/c++/4.9.3/bits/stl_algobase.h ****   template<typename _Tp>
 193:/opt/toolchains/gcc-arm-none-eabi-4_9-2015q1/arm-none-eabi/include/c++/4.9.3/bits/stl_algobase.h ****     inline const _Tp&
 194:/opt/toolchains/gcc-arm-none-eabi-4_9-2015q1/arm-none-eabi/include/c++/4.9.3/bits/stl_algobase.h ****     min(const _Tp& __a, const _Tp& __b)
 195:/opt/toolchains/gcc-arm-none-eabi-4_9-2015q1/arm-none-eabi/include/c++/4.9.3/bits/stl_algobase.h ****     {
 196:/opt/toolchains/gcc-arm-none-eabi-4_9-2015q1/arm-none-eabi/include/c++/4.9.3/bits/stl_algobase.h ****       // concept requirements
 197:/opt/toolchains/gcc-arm-none-eabi-4_9-2015q1/arm-none-eabi/include/c++/4.9.3/bits/stl_algobase.h ****       __glibcxx_function_requires(_LessThanComparableConcept<_Tp>)
 198:/opt/toolchains/gcc-arm-none-eabi-4_9-2015q1/arm-none-eabi/include/c++/4.9.3/bits/stl_algobase.h ****       //return __b < __a ? __b : __a;
 199:/opt/toolchains/gcc-arm-none-eabi-4_9-2015q1/arm-none-eabi/include/c++/4.9.3/bits/stl_algobase.h ****       if (__b < __a)
 588              		.loc 3 199 0
 589 0004 D0F8C462 		ldr	r6, [r0, #708]	@ float
 590              	.LBE454:
 591              	.LBE453:
 592              	.LBE452:
 593              		.loc 1 277 0
 594 0008 85B0     		sub	sp, sp, #20
 595              	.LCFI4:
 596              		.cfi_def_cfa_offset 56
 597              		.loc 1 277 0
 598 000a 8046     		mov	r8, r0
 599              	.LBB475:
 600              	.LBB457:
 601              	.LBB455:
 602              		.loc 3 199 0
 603 000c 3046     		mov	r0, r6
 604              	.LVL58:
 605 000e 354C     		ldr	r4, .L61
 606              	.LBE455:
 607              	.LBE457:
 608              	.LBE475:
 609              		.loc 1 277 0
 610 0010 0D46     		mov	r5, r1
 611 0012 1746     		mov	r7, r2
 612              	.LBB476:
 613              	.LBB458:
 614              	.LBB456:
 615              		.loc 3 199 0
 616 0014 A047     		blx	r4
 617              	.LVL59:
 618 0016 00B1     		cbz	r0, .L56
 619              	.LBE456:
 620              	.LBE458:
 278:/home/tienluong/workspace/atlantis_fw/AsicFwS2/src/opticalzoom.cpp ****     zoom_level = std::max( std::min( zoom_level, _max_zoom_level_AB_mode ), _min_zoom_level_AB_mode
 621              		.loc 1 278 0
 622 0018 3546     		mov	r5, r6
 623              	.LVL60:
 624              	.L56:
 625              	.LBB459:
 626              	.LBB460:
 200:/opt/toolchains/gcc-arm-none-eabi-4_9-2015q1/arm-none-eabi/include/c++/4.9.3/bits/stl_algobase.h **** 	return __b;
 201:/opt/toolchains/gcc-arm-none-eabi-4_9-2015q1/arm-none-eabi/include/c++/4.9.3/bits/stl_algobase.h ****       return __a;
 202:/opt/toolchains/gcc-arm-none-eabi-4_9-2015q1/arm-none-eabi/include/c++/4.9.3/bits/stl_algobase.h ****     }
 203:/opt/toolchains/gcc-arm-none-eabi-4_9-2015q1/arm-none-eabi/include/c++/4.9.3/bits/stl_algobase.h **** 
 204:/opt/toolchains/gcc-arm-none-eabi-4_9-2015q1/arm-none-eabi/include/c++/4.9.3/bits/stl_algobase.h ****   /**
 205:/opt/toolchains/gcc-arm-none-eabi-4_9-2015q1/arm-none-eabi/include/c++/4.9.3/bits/stl_algobase.h ****    *  @brief This does what you think it does.
 206:/opt/toolchains/gcc-arm-none-eabi-4_9-2015q1/arm-none-eabi/include/c++/4.9.3/bits/stl_algobase.h ****    *  @ingroup sorting_algorithms
 207:/opt/toolchains/gcc-arm-none-eabi-4_9-2015q1/arm-none-eabi/include/c++/4.9.3/bits/stl_algobase.h ****    *  @param  __a  A thing of arbitrary type.
 208:/opt/toolchains/gcc-arm-none-eabi-4_9-2015q1/arm-none-eabi/include/c++/4.9.3/bits/stl_algobase.h ****    *  @param  __b  Another thing of arbitrary type.
 209:/opt/toolchains/gcc-arm-none-eabi-4_9-2015q1/arm-none-eabi/include/c++/4.9.3/bits/stl_algobase.h ****    *  @return   The greater of the parameters.
 210:/opt/toolchains/gcc-arm-none-eabi-4_9-2015q1/arm-none-eabi/include/c++/4.9.3/bits/stl_algobase.h ****    *
 211:/opt/toolchains/gcc-arm-none-eabi-4_9-2015q1/arm-none-eabi/include/c++/4.9.3/bits/stl_algobase.h ****    *  This is the simple classic generic implementation.  It will work on
 212:/opt/toolchains/gcc-arm-none-eabi-4_9-2015q1/arm-none-eabi/include/c++/4.9.3/bits/stl_algobase.h ****    *  temporary expressions, since they are only evaluated once, unlike a
 213:/opt/toolchains/gcc-arm-none-eabi-4_9-2015q1/arm-none-eabi/include/c++/4.9.3/bits/stl_algobase.h ****    *  preprocessor macro.
 214:/opt/toolchains/gcc-arm-none-eabi-4_9-2015q1/arm-none-eabi/include/c++/4.9.3/bits/stl_algobase.h ****   */
 215:/opt/toolchains/gcc-arm-none-eabi-4_9-2015q1/arm-none-eabi/include/c++/4.9.3/bits/stl_algobase.h ****   template<typename _Tp>
 216:/opt/toolchains/gcc-arm-none-eabi-4_9-2015q1/arm-none-eabi/include/c++/4.9.3/bits/stl_algobase.h ****     inline const _Tp&
 217:/opt/toolchains/gcc-arm-none-eabi-4_9-2015q1/arm-none-eabi/include/c++/4.9.3/bits/stl_algobase.h ****     max(const _Tp& __a, const _Tp& __b)
 218:/opt/toolchains/gcc-arm-none-eabi-4_9-2015q1/arm-none-eabi/include/c++/4.9.3/bits/stl_algobase.h ****     {
 219:/opt/toolchains/gcc-arm-none-eabi-4_9-2015q1/arm-none-eabi/include/c++/4.9.3/bits/stl_algobase.h ****       // concept requirements
 220:/opt/toolchains/gcc-arm-none-eabi-4_9-2015q1/arm-none-eabi/include/c++/4.9.3/bits/stl_algobase.h ****       __glibcxx_function_requires(_LessThanComparableConcept<_Tp>)
 221:/opt/toolchains/gcc-arm-none-eabi-4_9-2015q1/arm-none-eabi/include/c++/4.9.3/bits/stl_algobase.h ****       //return  __a < __b ? __b : __a;
 222:/opt/toolchains/gcc-arm-none-eabi-4_9-2015q1/arm-none-eabi/include/c++/4.9.3/bits/stl_algobase.h ****       if (__a < __b)
 627              		.loc 3 222 0
 628 001a D8F8C062 		ldr	r6, [r8, #704]	@ float
 629 001e 2846     		mov	r0, r5
 630 0020 3146     		mov	r1, r6
 631 0022 A047     		blx	r4
 632              	.LVL61:
 633 0024 00B1     		cbz	r0, .L57
 634              	.LBE460:
 635              	.LBE459:
 636              		.loc 1 278 0
 637 0026 3546     		mov	r5, r6
 638              	.L57:
 639              	.LVL62:
 279:/home/tienluong/workspace/atlantis_fw/AsicFwS2/src/opticalzoom.cpp ****     Pnt2f ref_center_in_A1( _img_size_x * 0.5f, _img_size_y * 0.5f );
 640              		.loc 1 279 0
 641 0028 D8F8B8B2 		ldr	fp, [r8, #696]	@ float
 642 002c 4FF07C51 		mov	r1, #1056964608
 643 0030 2D4C     		ldr	r4, .L61+4
 644 0032 5846     		mov	r0, fp
 645 0034 A047     		blx	r4
 646              	.LVL63:
 647 0036 D8F8BCA2 		ldr	r10, [r8, #700]	@ float
 648 003a 4FF07C51 		mov	r1, #1056964608
 280:/home/tienluong/workspace/atlantis_fw/AsicFwS2/src/opticalzoom.cpp ****     Pnt2f img_size_Bs_in_A1( _img_size_x * ( _focal_prime35 / _focal_prime70 ),
 649              		.loc 1 280 0
 650 003e DFF8B490 		ldr	r9, .L61+16
 279:/home/tienluong/workspace/atlantis_fw/AsicFwS2/src/opticalzoom.cpp ****     Pnt2f ref_center_in_A1( _img_size_x * 0.5f, _img_size_y * 0.5f );
 651              		.loc 1 279 0
 652 0042 0090     		str	r0, [sp]	@ float
 653 0044 5046     		mov	r0, r10
 654 0046 A047     		blx	r4
 655              	.LVL64:
 656              		.loc 1 280 0
 657 0048 D8F8B012 		ldr	r1, [r8, #688]	@ float
 279:/home/tienluong/workspace/atlantis_fw/AsicFwS2/src/opticalzoom.cpp ****     Pnt2f ref_center_in_A1( _img_size_x * 0.5f, _img_size_y * 0.5f );
 658              		.loc 1 279 0
 659 004c 0646     		mov	r6, r0
 660              	.LVL65:
 661              		.loc 1 280 0
 662 004e D8F8AC02 		ldr	r0, [r8, #684]	@ float
 663              	.LVL66:
 664 0052 C847     		blx	r9
 665              	.LVL67:
 666 0054 8046     		mov	r8, r0
 667              	.LVL68:
 281:/home/tienluong/workspace/atlantis_fw/AsicFwS2/src/opticalzoom.cpp ****                              _img_size_y * ( _focal_prime35 / _focal_prime70 ) );
 668              		.loc 1 281 0
 669 0056 5846     		mov	r0, fp
 670              	.LVL69:
 671 0058 4146     		mov	r1, r8
 672 005a A047     		blx	r4
 673              	.LVL70:
 674              	.LBB461:
 675              	.LBB462:
 208:/home/tienluong/workspace/atlantis_fw/AsicFwS2/src/opticalzoom.cpp ****     float half_hires_fov_y = hires_fov_in_ref.y * 0.5f;
 676              		.loc 1 208 0
 677 005c 4FF07C51 		mov	r1, #1056964608
 678 0060 A047     		blx	r4
 679              	.LVL71:
 680              	.LBE462:
 681              	.LBE461:
 682              		.loc 1 281 0
 683 0062 4146     		mov	r1, r8
 684              	.LBB469:
 685              	.LBB463:
 208:/home/tienluong/workspace/atlantis_fw/AsicFwS2/src/opticalzoom.cpp ****     float half_hires_fov_y = hires_fov_in_ref.y * 0.5f;
 686              		.loc 1 208 0
 687 0064 0190     		str	r0, [sp, #4]	@ float
 688              	.LVL72:
 689              	.LBE463:
 690              	.LBE469:
 691              		.loc 1 281 0
 692 0066 5046     		mov	r0, r10
 693              	.LVL73:
 694 0068 A047     		blx	r4
 695              	.LVL74:
 696              	.LBB470:
 697              	.LBB464:
 209:/home/tienluong/workspace/atlantis_fw/AsicFwS2/src/opticalzoom.cpp **** 
 698              		.loc 1 209 0
 699 006a 4FF07C51 		mov	r1, #1056964608
 700 006e A047     		blx	r4
 701              	.LVL75:
 702              	.LBE464:
 703              	.LBE470:
 282:/home/tienluong/workspace/atlantis_fw/AsicFwS2/src/opticalzoom.cpp ****     Pnt2f desired_fov_in_ref( _img_size_x / zoom_level,
 283:/home/tienluong/workspace/atlantis_fw/AsicFwS2/src/opticalzoom.cpp ****                               _img_size_y / zoom_level );
 704              		.loc 1 283 0
 705 0070 2946     		mov	r1, r5
 706              	.LBB471:
 707              	.LBB465:
 209:/home/tienluong/workspace/atlantis_fw/AsicFwS2/src/opticalzoom.cpp **** 
 708              		.loc 1 209 0
 709 0072 8046     		mov	r8, r0
 710              	.LVL76:
 711              	.LBE465:
 712              	.LBE471:
 713              		.loc 1 283 0
 714 0074 5846     		mov	r0, fp
 715              	.LVL77:
 716 0076 C847     		blx	r9
 717              	.LVL78:
 718              	.LBB472:
 719              	.LBB466:
 211:/home/tienluong/workspace/atlantis_fw/AsicFwS2/src/opticalzoom.cpp ****     float half_desired_fov_y = desired_fov_in_ref.y * 0.5f;
 720              		.loc 1 211 0
 721 0078 4FF07C51 		mov	r1, #1056964608
 722 007c A047     		blx	r4
 723              	.LVL79:
 724              	.LBE466:
 725              	.LBE472:
 726              		.loc 1 283 0
 727 007e 2946     		mov	r1, r5
 728              	.LBB473:
 729              	.LBB467:
 215:/home/tienluong/workspace/atlantis_fw/AsicFwS2/src/opticalzoom.cpp ****     float tr_corner_y = ref_center_y - half_desired_fov_y;
 730              		.loc 1 215 0
 731 0080 1A4D     		ldr	r5, .L61+8
 732              	.LVL80:
 211:/home/tienluong/workspace/atlantis_fw/AsicFwS2/src/opticalzoom.cpp ****     float half_desired_fov_y = desired_fov_in_ref.y * 0.5f;
 733              		.loc 1 211 0
 734 0082 8346     		mov	fp, r0
 735              	.LVL81:
 736              	.LBE467:
 737              	.LBE473:
 738              		.loc 1 283 0
 739 0084 5046     		mov	r0, r10
 740              	.LVL82:
 741 0086 C847     		blx	r9
 742              	.LVL83:
 743              	.LBB474:
 744              	.LBB468:
 212:/home/tienluong/workspace/atlantis_fw/AsicFwS2/src/opticalzoom.cpp **** 
 745              		.loc 1 212 0
 746 0088 4FF07C51 		mov	r1, #1056964608
 747 008c A047     		blx	r4
 748              	.LVL84:
 215:/home/tienluong/workspace/atlantis_fw/AsicFwS2/src/opticalzoom.cpp ****     float tr_corner_y = ref_center_y - half_desired_fov_y;
 749              		.loc 1 215 0
 750 008e 5946     		mov	r1, fp
 229:/home/tienluong/workspace/atlantis_fw/AsicFwS2/src/opticalzoom.cpp **** 
 751              		.loc 1 229 0
 752 0090 174C     		ldr	r4, .L61+12
 212:/home/tienluong/workspace/atlantis_fw/AsicFwS2/src/opticalzoom.cpp **** 
 753              		.loc 1 212 0
 754 0092 8146     		mov	r9, r0
 755              	.LVL85:
 215:/home/tienluong/workspace/atlantis_fw/AsicFwS2/src/opticalzoom.cpp ****     float tr_corner_y = ref_center_y - half_desired_fov_y;
 756              		.loc 1 215 0
 757 0094 0098     		ldr	r0, [sp]	@ float
 758              	.LVL86:
 759 0096 A847     		blx	r5
 760              	.LVL87:
 229:/home/tienluong/workspace/atlantis_fw/AsicFwS2/src/opticalzoom.cpp **** 
 761              		.loc 1 229 0
 762 0098 0199     		ldr	r1, [sp, #4]	@ float
 763 009a A047     		blx	r4
 764              	.LVL88:
 216:/home/tienluong/workspace/atlantis_fw/AsicFwS2/src/opticalzoom.cpp **** 
 765              		.loc 1 216 0
 766 009c 4946     		mov	r1, r9
 229:/home/tienluong/workspace/atlantis_fw/AsicFwS2/src/opticalzoom.cpp **** 
 767              		.loc 1 229 0
 768 009e 0290     		str	r0, [sp, #8]	@ float
 216:/home/tienluong/workspace/atlantis_fw/AsicFwS2/src/opticalzoom.cpp **** 
 769              		.loc 1 216 0
 770 00a0 3046     		mov	r0, r6
 771 00a2 A047     		blx	r4
 772              	.LVL89:
 229:/home/tienluong/workspace/atlantis_fw/AsicFwS2/src/opticalzoom.cpp **** 
 773              		.loc 1 229 0
 774 00a4 4146     		mov	r1, r8
 775 00a6 A847     		blx	r5
 776              	.LVL90:
 777 00a8 029A     		ldr	r2, [sp, #8]	@ float
 778 00aa BA60     		str	r2, [r7, #8]	@ float
 218:/home/tienluong/workspace/atlantis_fw/AsicFwS2/src/opticalzoom.cpp ****     float tl_corner_y = ref_center_y - half_desired_fov_y;
 779              		.loc 1 218 0
 780 00ac 5946     		mov	r1, fp
 229:/home/tienluong/workspace/atlantis_fw/AsicFwS2/src/opticalzoom.cpp **** 
 781              		.loc 1 229 0
 782 00ae F860     		str	r0, [r7, #12]	@ float
 783 00b0 0390     		str	r0, [sp, #12]
 218:/home/tienluong/workspace/atlantis_fw/AsicFwS2/src/opticalzoom.cpp ****     float tl_corner_y = ref_center_y - half_desired_fov_y;
 784              		.loc 1 218 0
 785 00b2 0098     		ldr	r0, [sp]	@ float
 786              	.LVL91:
 787 00b4 A047     		blx	r4
 788              	.LVL92:
 232:/home/tienluong/workspace/atlantis_fw/AsicFwS2/src/opticalzoom.cpp **** 
 789              		.loc 1 232 0
 790 00b6 0199     		ldr	r1, [sp, #4]	@ float
 791 00b8 A847     		blx	r5
 792              	.LVL93:
 793 00ba 039B     		ldr	r3, [sp, #12]
 794 00bc 7B60     		str	r3, [r7, #4]	@ float
 222:/home/tienluong/workspace/atlantis_fw/AsicFwS2/src/opticalzoom.cpp **** 
 795              		.loc 1 222 0
 796 00be 4946     		mov	r1, r9
 232:/home/tienluong/workspace/atlantis_fw/AsicFwS2/src/opticalzoom.cpp **** 
 797              		.loc 1 232 0
 798 00c0 8246     		mov	r10, r0
 799              	.LVL94:
 800 00c2 3860     		str	r0, [r7]	@ float
 222:/home/tienluong/workspace/atlantis_fw/AsicFwS2/src/opticalzoom.cpp **** 
 801              		.loc 1 222 0
 802 00c4 3046     		mov	r0, r6
 803              	.LVL95:
 804 00c6 A847     		blx	r5
 805              	.LVL96:
 235:/home/tienluong/workspace/atlantis_fw/AsicFwS2/src/opticalzoom.cpp **** 
 806              		.loc 1 235 0
 807 00c8 4146     		mov	r1, r8
 808 00ca A047     		blx	r4
 809              	.LVL97:
 238:/home/tienluong/workspace/atlantis_fw/AsicFwS2/src/opticalzoom.cpp **** 
 810              		.loc 1 238 0
 811 00cc 029B     		ldr	r3, [sp, #8]	@ float
 812 00ce BB61     		str	r3, [r7, #24]	@ float
 235:/home/tienluong/workspace/atlantis_fw/AsicFwS2/src/opticalzoom.cpp **** 
 813              		.loc 1 235 0
 814 00d0 C7F810A0 		str	r10, [r7, #16]	@ float
 815 00d4 7861     		str	r0, [r7, #20]	@ float
 816              	.LVL98:
 238:/home/tienluong/workspace/atlantis_fw/AsicFwS2/src/opticalzoom.cpp **** 
 817              		.loc 1 238 0
 818 00d6 F861     		str	r0, [r7, #28]	@ float
 819              	.LVL99:
 240:/home/tienluong/workspace/atlantis_fw/AsicFwS2/src/opticalzoom.cpp **** }
 820              		.loc 1 240 0
 821 00d8 009B     		ldr	r3, [sp]	@ float
 822 00da 3B62     		str	r3, [r7, #32]	@ float
 823 00dc 7E62     		str	r6, [r7, #36]	@ float
 824              	.LBE468:
 825              	.LBE474:
 826              	.LBE476:
 284:/home/tienluong/workspace/atlantis_fw/AsicFwS2/src/opticalzoom.cpp **** 
 285:/home/tienluong/workspace/atlantis_fw/AsicFwS2/src/opticalzoom.cpp ****     getHiresImgCenterPosInRef( ref_center_in_A1,
 286:/home/tienluong/workspace/atlantis_fw/AsicFwS2/src/opticalzoom.cpp ****                                img_size_Bs_in_A1,
 287:/home/tienluong/workspace/atlantis_fw/AsicFwS2/src/opticalzoom.cpp ****                                desired_fov_in_ref,
 288:/home/tienluong/workspace/atlantis_fw/AsicFwS2/src/opticalzoom.cpp ****                                cover_region_center_in_ref_array );
 289:/home/tienluong/workspace/atlantis_fw/AsicFwS2/src/opticalzoom.cpp **** }
 827              		.loc 1 289 0
 828 00de 05B0     		add	sp, sp, #20
 829              	.LCFI5:
 830              		.cfi_def_cfa_offset 36
 831              	.LVL100:
 832              		@ sp needed
 833 00e0 BDE8F08F 		pop	{r4, r5, r6, r7, r8, r9, r10, fp, pc}
 834              	.LVL101:
 835              	.L62:
 836              		.align	2
 837              	.L61:
 838 00e4 00000000 		.word	__aeabi_fcmplt
 839 00e8 00000000 		.word	__aeabi_fmul
 840 00ec 00000000 		.word	__aeabi_fadd
 841 00f0 00000000 		.word	__aeabi_fsub
 842 00f4 00000000 		.word	__aeabi_fdiv
 843              		.cfi_endproc
 844              	.LFE2590:
 846              		.section	.text._ZNK4ltaf15OpticalZoomASIC27getCoverRegionCenterInRefBCEfPNS_5Pnt2fE,"ax",%progbits
 847              		.align	1
 848              		.global	_ZNK4ltaf15OpticalZoomASIC27getCoverRegionCenterInRefBCEfPNS_5Pnt2fE
 849              		.thumb
 850              		.thumb_func
 852              	_ZNK4ltaf15OpticalZoomASIC27getCoverRegionCenterInRefBCEfPNS_5Pnt2fE:
 853              	.LFB2591:
 290:/home/tienluong/workspace/atlantis_fw/AsicFwS2/src/opticalzoom.cpp **** 
 291:/home/tienluong/workspace/atlantis_fw/AsicFwS2/src/opticalzoom.cpp **** 
 292:/home/tienluong/workspace/atlantis_fw/AsicFwS2/src/opticalzoom.cpp **** 
 293:/home/tienluong/workspace/atlantis_fw/AsicFwS2/src/opticalzoom.cpp **** void OpticalZoomASIC::getCoverRegionCenterInRefBC( float zoom_level, Pnt2f * cover_region_center_in
 294:/home/tienluong/workspace/atlantis_fw/AsicFwS2/src/opticalzoom.cpp **** {
 854              		.loc 1 294 0
 855              		.cfi_startproc
 856              		@ args = 0, pretend = 0, frame = 16
 857              		@ frame_needed = 0, uses_anonymous_args = 0
 858              	.LVL102:
 859 0000 2DE9F04F 		push	{r4, r5, r6, r7, r8, r9, r10, fp, lr}
 860              	.LCFI6:
 861              		.cfi_def_cfa_offset 36
 862              		.cfi_offset 4, -36
 863              		.cfi_offset 5, -32
 864              		.cfi_offset 6, -28
 865              		.cfi_offset 7, -24
 866              		.cfi_offset 8, -20
 867              		.cfi_offset 9, -16
 868              		.cfi_offset 10, -12
 869              		.cfi_offset 11, -8
 870              		.cfi_offset 14, -4
 871              	.LBB491:
 872              	.LBB492:
 873              	.LBB493:
 199:/opt/toolchains/gcc-arm-none-eabi-4_9-2015q1/arm-none-eabi/include/c++/4.9.3/bits/stl_algobase.h **** 	return __b;
 874              		.loc 3 199 0
 875 0004 D0F8CC62 		ldr	r6, [r0, #716]	@ float
 876              	.LBE493:
 877              	.LBE492:
 878              	.LBE491:
 879              		.loc 1 294 0
 880 0008 85B0     		sub	sp, sp, #20
 881              	.LCFI7:
 882              		.cfi_def_cfa_offset 56
 883              		.loc 1 294 0
 884 000a 8046     		mov	r8, r0
 885              	.LBB514:
 886              	.LBB496:
 887              	.LBB494:
 199:/opt/toolchains/gcc-arm-none-eabi-4_9-2015q1/arm-none-eabi/include/c++/4.9.3/bits/stl_algobase.h **** 	return __b;
 888              		.loc 3 199 0
 889 000c 3046     		mov	r0, r6
 890              	.LVL103:
 891 000e 354C     		ldr	r4, .L69
 892              	.LBE494:
 893              	.LBE496:
 894              	.LBE514:
 895              		.loc 1 294 0
 896 0010 0D46     		mov	r5, r1
 897 0012 1746     		mov	r7, r2
 898              	.LBB515:
 899              	.LBB497:
 900              	.LBB495:
 199:/opt/toolchains/gcc-arm-none-eabi-4_9-2015q1/arm-none-eabi/include/c++/4.9.3/bits/stl_algobase.h **** 	return __b;
 901              		.loc 3 199 0
 902 0014 A047     		blx	r4
 903              	.LVL104:
 904 0016 00B1     		cbz	r0, .L64
 905              	.LBE495:
 906              	.LBE497:
 295:/home/tienluong/workspace/atlantis_fw/AsicFwS2/src/opticalzoom.cpp ****     zoom_level = std::max( std::min( zoom_level, _max_zoom_level_BC_mode ), _min_zoom_level_BC_mode
 907              		.loc 1 295 0
 908 0018 3546     		mov	r5, r6
 909              	.LVL105:
 910              	.L64:
 911              	.LBB498:
 912              	.LBB499:
 913              		.loc 3 222 0
 914 001a D8F8C862 		ldr	r6, [r8, #712]	@ float
 915 001e 2846     		mov	r0, r5
 916 0020 3146     		mov	r1, r6
 917 0022 A047     		blx	r4
 918              	.LVL106:
 919 0024 00B1     		cbz	r0, .L65
 920              	.LBE499:
 921              	.LBE498:
 922              		.loc 1 295 0
 923 0026 3546     		mov	r5, r6
 924              	.L65:
 925              	.LVL107:
 296:/home/tienluong/workspace/atlantis_fw/AsicFwS2/src/opticalzoom.cpp **** 
 297:/home/tienluong/workspace/atlantis_fw/AsicFwS2/src/opticalzoom.cpp ****     Pnt2f ref_center_in_B4( _img_size_x * 0.5f,
 298:/home/tienluong/workspace/atlantis_fw/AsicFwS2/src/opticalzoom.cpp ****                             _img_size_y * 0.5f );
 926              		.loc 1 298 0
 927 0028 D8F8B8B2 		ldr	fp, [r8, #696]	@ float
 928 002c 4FF07C51 		mov	r1, #1056964608
 929 0030 2D4C     		ldr	r4, .L69+4
 930 0032 5846     		mov	r0, fp
 931 0034 A047     		blx	r4
 932              	.LVL108:
 933 0036 D8F8BCA2 		ldr	r10, [r8, #700]	@ float
 934 003a 4FF07C51 		mov	r1, #1056964608
 299:/home/tienluong/workspace/atlantis_fw/AsicFwS2/src/opticalzoom.cpp ****     Pnt2f img_size_Cs_in_B4( _img_size_x * ( _focal_prime70 / _focal_prime150 ),
 935              		.loc 1 299 0
 936 003e DFF8B490 		ldr	r9, .L69+16
 298:/home/tienluong/workspace/atlantis_fw/AsicFwS2/src/opticalzoom.cpp ****     Pnt2f img_size_Cs_in_B4( _img_size_x * ( _focal_prime70 / _focal_prime150 ),
 937              		.loc 1 298 0
 938 0042 0090     		str	r0, [sp]	@ float
 939 0044 5046     		mov	r0, r10
 940 0046 A047     		blx	r4
 941              	.LVL109:
 942              		.loc 1 299 0
 943 0048 D8F8B412 		ldr	r1, [r8, #692]	@ float
 298:/home/tienluong/workspace/atlantis_fw/AsicFwS2/src/opticalzoom.cpp ****     Pnt2f img_size_Cs_in_B4( _img_size_x * ( _focal_prime70 / _focal_prime150 ),
 944              		.loc 1 298 0
 945 004c 0646     		mov	r6, r0
 946              	.LVL110:
 947              		.loc 1 299 0
 948 004e D8F8B002 		ldr	r0, [r8, #688]	@ float
 949              	.LVL111:
 950 0052 C847     		blx	r9
 951              	.LVL112:
 952 0054 8046     		mov	r8, r0
 953              	.LVL113:
 300:/home/tienluong/workspace/atlantis_fw/AsicFwS2/src/opticalzoom.cpp ****                              _img_size_y * ( _focal_prime70 / _focal_prime150 ) );
 954              		.loc 1 300 0
 955 0056 5846     		mov	r0, fp
 956              	.LVL114:
 957 0058 4146     		mov	r1, r8
 958 005a A047     		blx	r4
 959              	.LVL115:
 960              	.LBB500:
 961              	.LBB501:
 208:/home/tienluong/workspace/atlantis_fw/AsicFwS2/src/opticalzoom.cpp ****     float half_hires_fov_y = hires_fov_in_ref.y * 0.5f;
 962              		.loc 1 208 0
 963 005c 4FF07C51 		mov	r1, #1056964608
 964 0060 A047     		blx	r4
 965              	.LVL116:
 966              	.LBE501:
 967              	.LBE500:
 968              		.loc 1 300 0
 969 0062 4146     		mov	r1, r8
 970              	.LBB508:
 971              	.LBB502:
 208:/home/tienluong/workspace/atlantis_fw/AsicFwS2/src/opticalzoom.cpp ****     float half_hires_fov_y = hires_fov_in_ref.y * 0.5f;
 972              		.loc 1 208 0
 973 0064 0190     		str	r0, [sp, #4]	@ float
 974              	.LVL117:
 975              	.LBE502:
 976              	.LBE508:
 977              		.loc 1 300 0
 978 0066 5046     		mov	r0, r10
 979              	.LVL118:
 980 0068 A047     		blx	r4
 981              	.LVL119:
 982              	.LBB509:
 983              	.LBB503:
 209:/home/tienluong/workspace/atlantis_fw/AsicFwS2/src/opticalzoom.cpp **** 
 984              		.loc 1 209 0
 985 006a 4FF07C51 		mov	r1, #1056964608
 986 006e A047     		blx	r4
 987              	.LVL120:
 988              	.LBE503:
 989              	.LBE509:
 301:/home/tienluong/workspace/atlantis_fw/AsicFwS2/src/opticalzoom.cpp ****     Pnt2f desired_fov_in_ref( _img_size_x / zoom_level,
 302:/home/tienluong/workspace/atlantis_fw/AsicFwS2/src/opticalzoom.cpp ****                               _img_size_y / zoom_level );
 990              		.loc 1 302 0
 991 0070 2946     		mov	r1, r5
 992              	.LBB510:
 993              	.LBB504:
 209:/home/tienluong/workspace/atlantis_fw/AsicFwS2/src/opticalzoom.cpp **** 
 994              		.loc 1 209 0
 995 0072 8046     		mov	r8, r0
 996              	.LVL121:
 997              	.LBE504:
 998              	.LBE510:
 999              		.loc 1 302 0
 1000 0074 5846     		mov	r0, fp
 1001              	.LVL122:
 1002 0076 C847     		blx	r9
 1003              	.LVL123:
 1004              	.LBB511:
 1005              	.LBB505:
 211:/home/tienluong/workspace/atlantis_fw/AsicFwS2/src/opticalzoom.cpp ****     float half_desired_fov_y = desired_fov_in_ref.y * 0.5f;
 1006              		.loc 1 211 0
 1007 0078 4FF07C51 		mov	r1, #1056964608
 1008 007c A047     		blx	r4
 1009              	.LVL124:
 1010              	.LBE505:
 1011              	.LBE511:
 1012              		.loc 1 302 0
 1013 007e 2946     		mov	r1, r5
 1014              	.LBB512:
 1015              	.LBB506:
 215:/home/tienluong/workspace/atlantis_fw/AsicFwS2/src/opticalzoom.cpp ****     float tr_corner_y = ref_center_y - half_desired_fov_y;
 1016              		.loc 1 215 0
 1017 0080 1A4D     		ldr	r5, .L69+8
 1018              	.LVL125:
 211:/home/tienluong/workspace/atlantis_fw/AsicFwS2/src/opticalzoom.cpp ****     float half_desired_fov_y = desired_fov_in_ref.y * 0.5f;
 1019              		.loc 1 211 0
 1020 0082 8346     		mov	fp, r0
 1021              	.LVL126:
 1022              	.LBE506:
 1023              	.LBE512:
 1024              		.loc 1 302 0
 1025 0084 5046     		mov	r0, r10
 1026              	.LVL127:
 1027 0086 C847     		blx	r9
 1028              	.LVL128:
 1029              	.LBB513:
 1030              	.LBB507:
 212:/home/tienluong/workspace/atlantis_fw/AsicFwS2/src/opticalzoom.cpp **** 
 1031              		.loc 1 212 0
 1032 0088 4FF07C51 		mov	r1, #1056964608
 1033 008c A047     		blx	r4
 1034              	.LVL129:
 215:/home/tienluong/workspace/atlantis_fw/AsicFwS2/src/opticalzoom.cpp ****     float tr_corner_y = ref_center_y - half_desired_fov_y;
 1035              		.loc 1 215 0
 1036 008e 5946     		mov	r1, fp
 229:/home/tienluong/workspace/atlantis_fw/AsicFwS2/src/opticalzoom.cpp **** 
 1037              		.loc 1 229 0
 1038 0090 174C     		ldr	r4, .L69+12
 212:/home/tienluong/workspace/atlantis_fw/AsicFwS2/src/opticalzoom.cpp **** 
 1039              		.loc 1 212 0
 1040 0092 8146     		mov	r9, r0
 1041              	.LVL130:
 215:/home/tienluong/workspace/atlantis_fw/AsicFwS2/src/opticalzoom.cpp ****     float tr_corner_y = ref_center_y - half_desired_fov_y;
 1042              		.loc 1 215 0
 1043 0094 0098     		ldr	r0, [sp]	@ float
 1044              	.LVL131:
 1045 0096 A847     		blx	r5
 1046              	.LVL132:
 229:/home/tienluong/workspace/atlantis_fw/AsicFwS2/src/opticalzoom.cpp **** 
 1047              		.loc 1 229 0
 1048 0098 0199     		ldr	r1, [sp, #4]	@ float
 1049 009a A047     		blx	r4
 1050              	.LVL133:
 216:/home/tienluong/workspace/atlantis_fw/AsicFwS2/src/opticalzoom.cpp **** 
 1051              		.loc 1 216 0
 1052 009c 4946     		mov	r1, r9
 229:/home/tienluong/workspace/atlantis_fw/AsicFwS2/src/opticalzoom.cpp **** 
 1053              		.loc 1 229 0
 1054 009e 0290     		str	r0, [sp, #8]	@ float
 216:/home/tienluong/workspace/atlantis_fw/AsicFwS2/src/opticalzoom.cpp **** 
 1055              		.loc 1 216 0
 1056 00a0 3046     		mov	r0, r6
 1057 00a2 A047     		blx	r4
 1058              	.LVL134:
 229:/home/tienluong/workspace/atlantis_fw/AsicFwS2/src/opticalzoom.cpp **** 
 1059              		.loc 1 229 0
 1060 00a4 4146     		mov	r1, r8
 1061 00a6 A847     		blx	r5
 1062              	.LVL135:
 1063 00a8 029A     		ldr	r2, [sp, #8]	@ float
 1064 00aa BA60     		str	r2, [r7, #8]	@ float
 218:/home/tienluong/workspace/atlantis_fw/AsicFwS2/src/opticalzoom.cpp ****     float tl_corner_y = ref_center_y - half_desired_fov_y;
 1065              		.loc 1 218 0
 1066 00ac 5946     		mov	r1, fp
 229:/home/tienluong/workspace/atlantis_fw/AsicFwS2/src/opticalzoom.cpp **** 
 1067              		.loc 1 229 0
 1068 00ae F860     		str	r0, [r7, #12]	@ float
 1069 00b0 0390     		str	r0, [sp, #12]
 218:/home/tienluong/workspace/atlantis_fw/AsicFwS2/src/opticalzoom.cpp ****     float tl_corner_y = ref_center_y - half_desired_fov_y;
 1070              		.loc 1 218 0
 1071 00b2 0098     		ldr	r0, [sp]	@ float
 1072              	.LVL136:
 1073 00b4 A047     		blx	r4
 1074              	.LVL137:
 232:/home/tienluong/workspace/atlantis_fw/AsicFwS2/src/opticalzoom.cpp **** 
 1075              		.loc 1 232 0
 1076 00b6 0199     		ldr	r1, [sp, #4]	@ float
 1077 00b8 A847     		blx	r5
 1078              	.LVL138:
 1079 00ba 039B     		ldr	r3, [sp, #12]
 1080 00bc 7B60     		str	r3, [r7, #4]	@ float
 222:/home/tienluong/workspace/atlantis_fw/AsicFwS2/src/opticalzoom.cpp **** 
 1081              		.loc 1 222 0
 1082 00be 4946     		mov	r1, r9
 232:/home/tienluong/workspace/atlantis_fw/AsicFwS2/src/opticalzoom.cpp **** 
 1083              		.loc 1 232 0
 1084 00c0 8246     		mov	r10, r0
 1085              	.LVL139:
 1086 00c2 3860     		str	r0, [r7]	@ float
 222:/home/tienluong/workspace/atlantis_fw/AsicFwS2/src/opticalzoom.cpp **** 
 1087              		.loc 1 222 0
 1088 00c4 3046     		mov	r0, r6
 1089              	.LVL140:
 1090 00c6 A847     		blx	r5
 1091              	.LVL141:
 235:/home/tienluong/workspace/atlantis_fw/AsicFwS2/src/opticalzoom.cpp **** 
 1092              		.loc 1 235 0
 1093 00c8 4146     		mov	r1, r8
 1094 00ca A047     		blx	r4
 1095              	.LVL142:
 238:/home/tienluong/workspace/atlantis_fw/AsicFwS2/src/opticalzoom.cpp **** 
 1096              		.loc 1 238 0
 1097 00cc 029B     		ldr	r3, [sp, #8]	@ float
 1098 00ce BB61     		str	r3, [r7, #24]	@ float
 235:/home/tienluong/workspace/atlantis_fw/AsicFwS2/src/opticalzoom.cpp **** 
 1099              		.loc 1 235 0
 1100 00d0 C7F810A0 		str	r10, [r7, #16]	@ float
 1101 00d4 7861     		str	r0, [r7, #20]	@ float
 1102              	.LVL143:
 238:/home/tienluong/workspace/atlantis_fw/AsicFwS2/src/opticalzoom.cpp **** 
 1103              		.loc 1 238 0
 1104 00d6 F861     		str	r0, [r7, #28]	@ float
 1105              	.LVL144:
 240:/home/tienluong/workspace/atlantis_fw/AsicFwS2/src/opticalzoom.cpp **** }
 1106              		.loc 1 240 0
 1107 00d8 009B     		ldr	r3, [sp]	@ float
 1108 00da 3B62     		str	r3, [r7, #32]	@ float
 1109 00dc 7E62     		str	r6, [r7, #36]	@ float
 1110              	.LBE507:
 1111              	.LBE513:
 1112              	.LBE515:
 303:/home/tienluong/workspace/atlantis_fw/AsicFwS2/src/opticalzoom.cpp **** 
 304:/home/tienluong/workspace/atlantis_fw/AsicFwS2/src/opticalzoom.cpp ****     getHiresImgCenterPosInRef( ref_center_in_B4,
 305:/home/tienluong/workspace/atlantis_fw/AsicFwS2/src/opticalzoom.cpp ****                                img_size_Cs_in_B4,
 306:/home/tienluong/workspace/atlantis_fw/AsicFwS2/src/opticalzoom.cpp ****                                desired_fov_in_ref,
 307:/home/tienluong/workspace/atlantis_fw/AsicFwS2/src/opticalzoom.cpp ****                                cover_region_center_in_ref_array );
 308:/home/tienluong/workspace/atlantis_fw/AsicFwS2/src/opticalzoom.cpp **** }
 1113              		.loc 1 308 0
 1114 00de 05B0     		add	sp, sp, #20
 1115              	.LCFI8:
 1116              		.cfi_def_cfa_offset 36
 1117              	.LVL145:
 1118              		@ sp needed
 1119 00e0 BDE8F08F 		pop	{r4, r5, r6, r7, r8, r9, r10, fp, pc}
 1120              	.LVL146:
 1121              	.L70:
 1122              		.align	2
 1123              	.L69:
 1124 00e4 00000000 		.word	__aeabi_fcmplt
 1125 00e8 00000000 		.word	__aeabi_fmul
 1126 00ec 00000000 		.word	__aeabi_fadd
 1127 00f0 00000000 		.word	__aeabi_fsub
 1128 00f4 00000000 		.word	__aeabi_fdiv
 1129              		.cfi_endproc
 1130              	.LFE2591:
 1132              		.section	.text._ZNK4ltaf15OpticalZoomASIC17getImgCenterInRefEfNS0_11CaptureModeEPNS_5Pnt2fE,"ax",%
 1133              		.align	1
 1134              		.global	_ZNK4ltaf15OpticalZoomASIC17getImgCenterInRefEfNS0_11CaptureModeEPNS_5Pnt2fE
 1135              		.thumb
 1136              		.thumb_func
 1138              	_ZNK4ltaf15OpticalZoomASIC17getImgCenterInRefEfNS0_11CaptureModeEPNS_5Pnt2fE:
 1139              	.LFB2587:
 248:/home/tienluong/workspace/atlantis_fw/AsicFwS2/src/opticalzoom.cpp ****     Pnt2f cover_region_center_Bs_in_ref[kNumCoverRegions];
 1140              		.loc 1 248 0
 1141              		.cfi_startproc
 1142              		@ args = 0, pretend = 0, frame = 80
 1143              		@ frame_needed = 0, uses_anonymous_args = 0
 1144              	.LVL147:
 1145 0000 2DE9F041 		push	{r4, r5, r6, r7, r8, lr}
 1146              	.LCFI9:
 1147              		.cfi_def_cfa_offset 24
 1148              		.cfi_offset 4, -24
 1149              		.cfi_offset 5, -20
 1150              		.cfi_offset 6, -16
 1151              		.cfi_offset 7, -12
 1152              		.cfi_offset 8, -8
 1153              		.cfi_offset 14, -4
 1154 0004 8846     		mov	r8, r1
 1155 0006 94B0     		sub	sp, sp, #80
 1156              	.LCFI10:
 1157              		.cfi_def_cfa_offset 104
 248:/home/tienluong/workspace/atlantis_fw/AsicFwS2/src/opticalzoom.cpp ****     Pnt2f cover_region_center_Bs_in_ref[kNumCoverRegions];
 1158              		.loc 1 248 0
 1159 0008 0446     		mov	r4, r0
 1160 000a 1D46     		mov	r5, r3
 1161 000c 0021     		movs	r1, #0
 1162              	.LVL148:
 1163              	.L72:
 1164              	.LBB516:
 1165              	.LBB517:
 1166              	.LBB518:
 1167              	.LBB519:
 1168              		.file 4 "/home/tienluong/workspace/atlantis_fw/AsicFwS2/include/opticalzoom.h"
   1:/home/tienluong/workspace/atlantis_fw/AsicFwS2/include/opticalzoom.h **** #ifndef OPTICALZOOMASIC_H
   2:/home/tienluong/workspace/atlantis_fw/AsicFwS2/include/opticalzoom.h **** #define OPTICALZOOMASIC_H
   3:/home/tienluong/workspace/atlantis_fw/AsicFwS2/include/opticalzoom.h **** 
   4:/home/tienluong/workspace/atlantis_fw/AsicFwS2/include/opticalzoom.h **** 
   5:/home/tienluong/workspace/atlantis_fw/AsicFwS2/include/opticalzoom.h **** #ifdef __cplusplus
   6:/home/tienluong/workspace/atlantis_fw/AsicFwS2/include/opticalzoom.h **** 
   7:/home/tienluong/workspace/atlantis_fw/AsicFwS2/include/opticalzoom.h **** #include <array>
   8:/home/tienluong/workspace/atlantis_fw/AsicFwS2/include/opticalzoom.h **** #include <bitset>
   9:/home/tienluong/workspace/atlantis_fw/AsicFwS2/include/opticalzoom.h **** 
  10:/home/tienluong/workspace/atlantis_fw/AsicFwS2/include/opticalzoom.h **** #define USE_PROTOBUF
  11:/home/tienluong/workspace/atlantis_fw/AsicFwS2/include/opticalzoom.h **** #define USE_ANGLE_HALL_MAP
  12:/home/tienluong/workspace/atlantis_fw/AsicFwS2/include/opticalzoom.h **** 
  13:/home/tienluong/workspace/atlantis_fw/AsicFwS2/include/opticalzoom.h **** 
  14:/home/tienluong/workspace/atlantis_fw/AsicFwS2/include/opticalzoom.h **** #ifdef USE_PROTOBUF
  15:/home/tienluong/workspace/atlantis_fw/AsicFwS2/include/opticalzoom.h ****     #include "lightheader/include/lightheader.pb-c.h"
  16:/home/tienluong/workspace/atlantis_fw/AsicFwS2/include/opticalzoom.h **** #endif
  17:/home/tienluong/workspace/atlantis_fw/AsicFwS2/include/opticalzoom.h **** 
  18:/home/tienluong/workspace/atlantis_fw/AsicFwS2/include/opticalzoom.h **** namespace ltaf
  19:/home/tienluong/workspace/atlantis_fw/AsicFwS2/include/opticalzoom.h **** {
  20:/home/tienluong/workspace/atlantis_fw/AsicFwS2/include/opticalzoom.h **** 
  21:/home/tienluong/workspace/atlantis_fw/AsicFwS2/include/opticalzoom.h **** const int kNumMirrorModules = 8;
  22:/home/tienluong/workspace/atlantis_fw/AsicFwS2/include/opticalzoom.h **** const int kNumCoverRegions  = 5;
  23:/home/tienluong/workspace/atlantis_fw/AsicFwS2/include/opticalzoom.h **** 
  24:/home/tienluong/workspace/atlantis_fw/AsicFwS2/include/opticalzoom.h **** struct Pnt2f
  25:/home/tienluong/workspace/atlantis_fw/AsicFwS2/include/opticalzoom.h **** {
  26:/home/tienluong/workspace/atlantis_fw/AsicFwS2/include/opticalzoom.h ****     Pnt2f( float xcoord, float ycoord)
  27:/home/tienluong/workspace/atlantis_fw/AsicFwS2/include/opticalzoom.h ****         : x( xcoord )
  28:/home/tienluong/workspace/atlantis_fw/AsicFwS2/include/opticalzoom.h ****         , y( ycoord )
 1169              		.loc 4 28 0
 1170 000e 0023     		movs	r3, #0
 1171 0010 0DEB0100 		add	r0, sp, r1
 1172              	.LVL149:
 1173 0014 4DF80130 		str	r3, [sp, r1]	@ float
 1174 0018 0831     		adds	r1, r1, #8
 1175              	.LBE519:
 1176              	.LBE518:
 1177              	.LBE517:
 249:/home/tienluong/workspace/atlantis_fw/AsicFwS2/src/opticalzoom.cpp ****     Pnt2f cover_region_center_Cs_in_ref[kNumCoverRegions];
 1178              		.loc 1 249 0
 1179 001a 2829     		cmp	r1, #40
 1180              	.LBB522:
 1181              	.LBB521:
 1182              	.LBB520:
 1183              		.loc 4 28 0
 1184 001c 4360     		str	r3, [r0, #4]	@ float
 1185              	.LBE520:
 1186              	.LBE521:
 1187              	.LBE522:
 249:/home/tienluong/workspace/atlantis_fw/AsicFwS2/src/opticalzoom.cpp ****     Pnt2f cover_region_center_Cs_in_ref[kNumCoverRegions];
 1188              		.loc 1 249 0
 1189 001e F6D1     		bne	.L72
 1190 0020 0021     		movs	r1, #0
 1191              	.LVL150:
 1192              	.L73:
 1193              	.LBB523:
 1194              	.LBB524:
 1195              	.LBB525:
 1196              		.loc 4 28 0
 1197 0022 0AAE     		add	r6, sp, #40
 1198 0024 7018     		adds	r0, r6, r1
 1199 0026 8B51     		str	r3, [r1, r6]	@ float
 1200 0028 0831     		adds	r1, r1, #8
 1201              	.LVL151:
 1202              	.LBE525:
 1203              	.LBE524:
 1204              	.LBE523:
 250:/home/tienluong/workspace/atlantis_fw/AsicFwS2/src/opticalzoom.cpp **** 
 1205              		.loc 1 250 0
 1206 002a 2829     		cmp	r1, #40
 1207              	.LBB528:
 1208              	.LBB527:
 1209              	.LBB526:
 1210              		.loc 4 28 0
 1211 002c 4360     		str	r3, [r0, #4]	@ float
 1212              	.LBE526:
 1213              	.LBE527:
 1214              	.LBE528:
 250:/home/tienluong/workspace/atlantis_fw/AsicFwS2/src/opticalzoom.cpp **** 
 1215              		.loc 1 250 0
 1216 002e F8D1     		bne	.L73
 1217 0030 384B     		ldr	r3, .L79
 254:/home/tienluong/workspace/atlantis_fw/AsicFwS2/src/opticalzoom.cpp ****         getCoverRegionCenterInRefBC( _min_zoom_level_BC_mode, cover_region_center_Cs_in_ref );
 1218              		.loc 1 254 0 discriminator 4
 1219 0032 2046     		mov	r0, r4
 1220 0034 384F     		ldr	r7, .L79+4
 252:/home/tienluong/workspace/atlantis_fw/AsicFwS2/src/opticalzoom.cpp ****     {
 1221              		.loc 1 252 0 discriminator 4
 1222 0036 32B9     		cbnz	r2, .L74
 1223              	.LVL152:
 254:/home/tienluong/workspace/atlantis_fw/AsicFwS2/src/opticalzoom.cpp ****         getCoverRegionCenterInRefBC( _min_zoom_level_BC_mode, cover_region_center_Cs_in_ref );
 1224              		.loc 1 254 0
 1225 0038 4146     		mov	r1, r8
 1226              	.LVL153:
 1227 003a 6A46     		mov	r2, sp
 1228              	.LVL154:
 1229 003c 9847     		blx	r3
 1230              	.LVL155:
 255:/home/tienluong/workspace/atlantis_fw/AsicFwS2/src/opticalzoom.cpp ****     }
 1231              		.loc 1 255 0
 1232 003e 2046     		mov	r0, r4
 1233 0040 D4F8C812 		ldr	r1, [r4, #712]	@ float
 1234 0044 05E0     		b	.L78
 1235              	.LVL156:
 1236              	.L74:
 259:/home/tienluong/workspace/atlantis_fw/AsicFwS2/src/opticalzoom.cpp ****         getCoverRegionCenterInRefBC( zoom_level, cover_region_center_Cs_in_ref );
 1237              		.loc 1 259 0
 1238 0046 D4F8C412 		ldr	r1, [r4, #708]	@ float
 1239              	.LVL157:
 1240 004a 6A46     		mov	r2, sp
 1241              	.LVL158:
 1242 004c 9847     		blx	r3
 1243              	.LVL159:
 260:/home/tienluong/workspace/atlantis_fw/AsicFwS2/src/opticalzoom.cpp ****     }
 1244              		.loc 1 260 0
 1245 004e 2046     		mov	r0, r4
 1246 0050 4146     		mov	r1, r8
 1247              	.LVL160:
 1248              	.L78:
 1249 0052 3246     		mov	r2, r6
 1250 0054 B847     		blx	r7
 1251              	.LVL161:
 263:/home/tienluong/workspace/atlantis_fw/AsicFwS2/src/opticalzoom.cpp ****     img_center_in_ref_array[M_B2] = cover_region_center_Bs_in_ref[_module_coverage_array[M_B2]];
 1252              		.loc 1 263 0
 1253 0056 14AA     		add	r2, sp, #80
 1254 0058 94F8A032 		ldrb	r3, [r4, #672]	@ zero_extendqisi2
 1255 005c 02EBC303 		add	r3, r2, r3, lsl #3
 1256 0060 503B     		subs	r3, r3, #80
 1257 0062 93E80300 		ldmia	r3, {r0, r1}
 264:/home/tienluong/workspace/atlantis_fw/AsicFwS2/src/opticalzoom.cpp ****     img_center_in_ref_array[M_B3] = cover_region_center_Bs_in_ref[_module_coverage_array[M_B3]];
 1258              		.loc 1 264 0
 1259 0066 94F8A132 		ldrb	r3, [r4, #673]	@ zero_extendqisi2
 1260 006a 02EBC303 		add	r3, r2, r3, lsl #3
 1261 006e 503B     		subs	r3, r3, #80
 1262 0070 05F10802 		add	r2, r5, #8
 263:/home/tienluong/workspace/atlantis_fw/AsicFwS2/src/opticalzoom.cpp ****     img_center_in_ref_array[M_B2] = cover_region_center_Bs_in_ref[_module_coverage_array[M_B2]];
 1263              		.loc 1 263 0
 1264 0074 85E80300 		stmia	r5, {r0, r1}
 1265              	.LVL162:
 264:/home/tienluong/workspace/atlantis_fw/AsicFwS2/src/opticalzoom.cpp ****     img_center_in_ref_array[M_B3] = cover_region_center_Bs_in_ref[_module_coverage_array[M_B3]];
 1266              		.loc 1 264 0
 1267 0078 93E80300 		ldmia	r3, {r0, r1}
 265:/home/tienluong/workspace/atlantis_fw/AsicFwS2/src/opticalzoom.cpp ****     img_center_in_ref_array[M_B5] = cover_region_center_Bs_in_ref[_module_coverage_array[M_B5]];
 1268              		.loc 1 265 0
 1269 007c 94F8A232 		ldrb	r3, [r4, #674]	@ zero_extendqisi2
 264:/home/tienluong/workspace/atlantis_fw/AsicFwS2/src/opticalzoom.cpp ****     img_center_in_ref_array[M_B3] = cover_region_center_Bs_in_ref[_module_coverage_array[M_B3]];
 1270              		.loc 1 264 0
 1271 0080 82E80300 		stmia	r2, {r0, r1}
 1272              	.LVL163:
 265:/home/tienluong/workspace/atlantis_fw/AsicFwS2/src/opticalzoom.cpp ****     img_center_in_ref_array[M_B5] = cover_region_center_Bs_in_ref[_module_coverage_array[M_B5]];
 1273              		.loc 1 265 0
 1274 0084 14AA     		add	r2, sp, #80
 1275 0086 02EBC303 		add	r3, r2, r3, lsl #3
 1276 008a 503B     		subs	r3, r3, #80
 1277 008c 05F11002 		add	r2, r5, #16
 1278 0090 93E80300 		ldmia	r3, {r0, r1}
 266:/home/tienluong/workspace/atlantis_fw/AsicFwS2/src/opticalzoom.cpp **** 
 1279              		.loc 1 266 0
 1280 0094 94F8A332 		ldrb	r3, [r4, #675]	@ zero_extendqisi2
 265:/home/tienluong/workspace/atlantis_fw/AsicFwS2/src/opticalzoom.cpp ****     img_center_in_ref_array[M_B5] = cover_region_center_Bs_in_ref[_module_coverage_array[M_B5]];
 1281              		.loc 1 265 0
 1282 0098 82E80300 		stmia	r2, {r0, r1}
 1283              	.LVL164:
 266:/home/tienluong/workspace/atlantis_fw/AsicFwS2/src/opticalzoom.cpp **** 
 1284              		.loc 1 266 0
 1285 009c 14AA     		add	r2, sp, #80
 1286 009e 02EBC303 		add	r3, r2, r3, lsl #3
 1287 00a2 503B     		subs	r3, r3, #80
 1288 00a4 05F11802 		add	r2, r5, #24
 1289 00a8 93E80300 		ldmia	r3, {r0, r1}
 268:/home/tienluong/workspace/atlantis_fw/AsicFwS2/src/opticalzoom.cpp ****     img_center_in_ref_array[M_C2] = cover_region_center_Cs_in_ref[_module_coverage_array[M_C2]];
 1290              		.loc 1 268 0
 1291 00ac 94F8A432 		ldrb	r3, [r4, #676]	@ zero_extendqisi2
 266:/home/tienluong/workspace/atlantis_fw/AsicFwS2/src/opticalzoom.cpp **** 
 1292              		.loc 1 266 0
 1293 00b0 82E80300 		stmia	r2, {r0, r1}
 1294              	.LVL165:
 268:/home/tienluong/workspace/atlantis_fw/AsicFwS2/src/opticalzoom.cpp ****     img_center_in_ref_array[M_C2] = cover_region_center_Cs_in_ref[_module_coverage_array[M_C2]];
 1295              		.loc 1 268 0
 1296 00b4 14AA     		add	r2, sp, #80
 1297 00b6 02EBC303 		add	r3, r2, r3, lsl #3
 1298 00ba 283B     		subs	r3, r3, #40
 1299 00bc 05F12002 		add	r2, r5, #32
 1300 00c0 93E80300 		ldmia	r3, {r0, r1}
 269:/home/tienluong/workspace/atlantis_fw/AsicFwS2/src/opticalzoom.cpp ****     img_center_in_ref_array[M_C3] = cover_region_center_Cs_in_ref[_module_coverage_array[M_C3]];
 1301              		.loc 1 269 0
 1302 00c4 94F8A532 		ldrb	r3, [r4, #677]	@ zero_extendqisi2
 268:/home/tienluong/workspace/atlantis_fw/AsicFwS2/src/opticalzoom.cpp ****     img_center_in_ref_array[M_C2] = cover_region_center_Cs_in_ref[_module_coverage_array[M_C2]];
 1303              		.loc 1 268 0
 1304 00c8 82E80300 		stmia	r2, {r0, r1}
 1305              	.LVL166:
 269:/home/tienluong/workspace/atlantis_fw/AsicFwS2/src/opticalzoom.cpp ****     img_center_in_ref_array[M_C3] = cover_region_center_Cs_in_ref[_module_coverage_array[M_C3]];
 1306              		.loc 1 269 0
 1307 00cc 14AA     		add	r2, sp, #80
 1308 00ce 02EBC303 		add	r3, r2, r3, lsl #3
 1309 00d2 283B     		subs	r3, r3, #40
 1310 00d4 05F12802 		add	r2, r5, #40
 1311 00d8 93E80300 		ldmia	r3, {r0, r1}
 270:/home/tienluong/workspace/atlantis_fw/AsicFwS2/src/opticalzoom.cpp ****     img_center_in_ref_array[M_C4] = cover_region_center_Cs_in_ref[_module_coverage_array[M_C4]];
 1312              		.loc 1 270 0
 1313 00dc 94F8A632 		ldrb	r3, [r4, #678]	@ zero_extendqisi2
 269:/home/tienluong/workspace/atlantis_fw/AsicFwS2/src/opticalzoom.cpp ****     img_center_in_ref_array[M_C3] = cover_region_center_Cs_in_ref[_module_coverage_array[M_C3]];
 1314              		.loc 1 269 0
 1315 00e0 82E80300 		stmia	r2, {r0, r1}
 1316              	.LVL167:
 270:/home/tienluong/workspace/atlantis_fw/AsicFwS2/src/opticalzoom.cpp ****     img_center_in_ref_array[M_C4] = cover_region_center_Cs_in_ref[_module_coverage_array[M_C4]];
 1317              		.loc 1 270 0
 1318 00e4 14AA     		add	r2, sp, #80
 1319 00e6 02EBC303 		add	r3, r2, r3, lsl #3
 1320 00ea 283B     		subs	r3, r3, #40
 1321 00ec 05F13002 		add	r2, r5, #48
 271:/home/tienluong/workspace/atlantis_fw/AsicFwS2/src/opticalzoom.cpp **** }
 1322              		.loc 1 271 0
 1323 00f0 3835     		adds	r5, r5, #56
 1324              	.LVL168:
 270:/home/tienluong/workspace/atlantis_fw/AsicFwS2/src/opticalzoom.cpp ****     img_center_in_ref_array[M_C4] = cover_region_center_Cs_in_ref[_module_coverage_array[M_C4]];
 1325              		.loc 1 270 0
 1326 00f2 93E80300 		ldmia	r3, {r0, r1}
 1327 00f6 82E80300 		stmia	r2, {r0, r1}
 1328              	.LVL169:
 271:/home/tienluong/workspace/atlantis_fw/AsicFwS2/src/opticalzoom.cpp **** }
 1329              		.loc 1 271 0
 1330 00fa 14AA     		add	r2, sp, #80
 1331 00fc 94F8A732 		ldrb	r3, [r4, #679]	@ zero_extendqisi2
 1332 0100 02EBC303 		add	r3, r2, r3, lsl #3
 1333 0104 283B     		subs	r3, r3, #40
 1334 0106 93E80300 		ldmia	r3, {r0, r1}
 1335 010a 85E80300 		stmia	r5, {r0, r1}
 1336              	.LBE516:
 272:/home/tienluong/workspace/atlantis_fw/AsicFwS2/src/opticalzoom.cpp **** 
 1337              		.loc 1 272 0
 1338 010e 14B0     		add	sp, sp, #80
 1339              	.LCFI11:
 1340              		.cfi_def_cfa_offset 24
 1341              		@ sp needed
 1342 0110 BDE8F081 		pop	{r4, r5, r6, r7, r8, pc}
 1343              	.LVL170:
 1344              	.L80:
 1345              		.align	2
 1346              	.L79:
 1347 0114 00000000 		.word	_ZNK4ltaf15OpticalZoomASIC27getCoverRegionCenterInRefABEfPNS_5Pnt2fE
 1348 0118 00000000 		.word	_ZNK4ltaf15OpticalZoomASIC27getCoverRegionCenterInRefBCEfPNS_5Pnt2fE
 1349              		.cfi_endproc
 1350              	.LFE2587:
 1352              		.global	__aeabi_f2d
 1353              		.global	__aeabi_dsub
 1354              		.global	__aeabi_dmul
 1355              		.global	__aeabi_d2f
 1356              		.section	.text._ZNK4ltaf15OpticalZoomASIC33getMirrorAngleGivenImgCenterInRefENS_12MirrorModuleERKN
 1357              		.align	1
 1358              		.global	_ZNK4ltaf15OpticalZoomASIC33getMirrorAngleGivenImgCenterInRefENS_12MirrorModuleERKNS_5Pnt2
 1359              		.thumb
 1360              		.thumb_func
 1362              	_ZNK4ltaf15OpticalZoomASIC33getMirrorAngleGivenImgCenterInRefENS_12MirrorModuleERKNS_5Pnt2fE:
 1363              	.LFB2593:
 309:/home/tienluong/workspace/atlantis_fw/AsicFwS2/src/opticalzoom.cpp **** 
 310:/home/tienluong/workspace/atlantis_fw/AsicFwS2/src/opticalzoom.cpp **** namespace
 311:/home/tienluong/workspace/atlantis_fw/AsicFwS2/src/opticalzoom.cpp **** {
 312:/home/tienluong/workspace/atlantis_fw/AsicFwS2/src/opticalzoom.cpp **** float mapPosToAngle( const AnglePosMapCoefsASIC & angle_pos_mapping, const Pnt2f & pos )
 313:/home/tienluong/workspace/atlantis_fw/AsicFwS2/src/opticalzoom.cpp **** {
 314:/home/tienluong/workspace/atlantis_fw/AsicFwS2/src/opticalzoom.cpp ****     // get the 1D param for the pos
 315:/home/tienluong/workspace/atlantis_fw/AsicFwS2/src/opticalzoom.cpp ****     float vec_start_to_pos_x = pos.x - angle_pos_mapping._pos_start_x;
 316:/home/tienluong/workspace/atlantis_fw/AsicFwS2/src/opticalzoom.cpp ****     float vec_start_to_pos_y = pos.y - angle_pos_mapping._pos_start_y;
 317:/home/tienluong/workspace/atlantis_fw/AsicFwS2/src/opticalzoom.cpp ****     float vec_start_to_end_x = angle_pos_mapping._pos_end_x - angle_pos_mapping._pos_start_x;
 318:/home/tienluong/workspace/atlantis_fw/AsicFwS2/src/opticalzoom.cpp ****     float vec_start_to_end_y = angle_pos_mapping._pos_end_y - angle_pos_mapping._pos_start_y;
 319:/home/tienluong/workspace/atlantis_fw/AsicFwS2/src/opticalzoom.cpp **** 
 320:/home/tienluong/workspace/atlantis_fw/AsicFwS2/src/opticalzoom.cpp ****     float r = ( vec_start_to_pos_x * vec_start_to_end_x + vec_start_to_pos_y * vec_start_to_end_y )
 321:/home/tienluong/workspace/atlantis_fw/AsicFwS2/src/opticalzoom.cpp ****               / ( vec_start_to_end_x * vec_start_to_end_x + vec_start_to_end_y * vec_start_to_end_y
 322:/home/tienluong/workspace/atlantis_fw/AsicFwS2/src/opticalzoom.cpp **** 
 323:/home/tienluong/workspace/atlantis_fw/AsicFwS2/src/opticalzoom.cpp ****     float angle = ( atan( ( r - angle_pos_mapping._pos_offset ) / angle_pos_mapping._pos_scale ) -
 324:/home/tienluong/workspace/atlantis_fw/AsicFwS2/src/opticalzoom.cpp ****                     angle_pos_mapping._angle_offset ) * 0.5f;
 325:/home/tienluong/workspace/atlantis_fw/AsicFwS2/src/opticalzoom.cpp **** 
 326:/home/tienluong/workspace/atlantis_fw/AsicFwS2/src/opticalzoom.cpp ****     return rad2deg( angle );
 327:/home/tienluong/workspace/atlantis_fw/AsicFwS2/src/opticalzoom.cpp **** }
 328:/home/tienluong/workspace/atlantis_fw/AsicFwS2/src/opticalzoom.cpp **** }
 329:/home/tienluong/workspace/atlantis_fw/AsicFwS2/src/opticalzoom.cpp **** 
 330:/home/tienluong/workspace/atlantis_fw/AsicFwS2/src/opticalzoom.cpp **** float OpticalZoomASIC::getMirrorAngleGivenImgCenterInRef( const MirrorModule mirror_module,
 331:/home/tienluong/workspace/atlantis_fw/AsicFwS2/src/opticalzoom.cpp ****                                                           const Pnt2f & img_center_in_ref ) const
 332:/home/tienluong/workspace/atlantis_fw/AsicFwS2/src/opticalzoom.cpp **** {
 1364              		.loc 1 332 0
 1365              		.cfi_startproc
 1366              		@ args = 0, pretend = 0, frame = 0
 1367              		@ frame_needed = 0, uses_anonymous_args = 0
 1368              	.LVL171:
 1369 0000 2DE9F84F 		push	{r3, r4, r5, r6, r7, r8, r9, r10, fp, lr}
 1370              	.LCFI12:
 1371              		.cfi_def_cfa_offset 40
 1372              		.cfi_offset 3, -40
 1373              		.cfi_offset 4, -36
 1374              		.cfi_offset 5, -32
 1375              		.cfi_offset 6, -28
 1376              		.cfi_offset 7, -24
 1377              		.cfi_offset 8, -20
 1378              		.cfi_offset 9, -16
 1379              		.cfi_offset 10, -12
 1380              		.cfi_offset 11, -8
 1381              		.cfi_offset 14, -4
 1382              	.LBB547:
 1383              	.LBB548:
 1384              	.LBB549:
 1385              	.LBB550:
 1386              	.LBB551:
 403:/opt/toolchains/gcc-arm-none-eabi-4_9-2015q1/arm-none-eabi/include/c++/4.9.3/bitset **** 
 1387              		.loc 2 403 0
 1388 0004 0123     		movs	r3, #1
 1389              	.LBE551:
 1390              	.LBE550:
 1391              	.LBE549:
 1392              	.LBE548:
 1393              	.LBE547:
 1394              		.loc 1 332 0
 1395 0006 1746     		mov	r7, r2
 1396              	.LBB556:
 1397              	.LBB555:
 1398              	.LBB554:
 1399              	.LBB553:
 1400              	.LBB552:
 403:/opt/toolchains/gcc-arm-none-eabi-4_9-2015q1/arm-none-eabi/include/c++/4.9.3/bitset **** 
 1401              		.loc 2 403 0
 1402 0008 01F01F02 		and	r2, r1, #31
 1403              	.LVL172:
 1404 000c 9340     		lsls	r3, r3, r2
 1405              	.LBE552:
 1406              	.LBE553:
 827:/opt/toolchains/gcc-arm-none-eabi-4_9-2015q1/arm-none-eabi/include/c++/4.9.3/bitset **** 	  return *this;
 828:/opt/toolchains/gcc-arm-none-eabi-4_9-2015q1/arm-none-eabi/include/c++/4.9.3/bitset **** 	}
 829:/opt/toolchains/gcc-arm-none-eabi-4_9-2015q1/arm-none-eabi/include/c++/4.9.3/bitset **** 
 830:/opt/toolchains/gcc-arm-none-eabi-4_9-2015q1/arm-none-eabi/include/c++/4.9.3/bitset **** 	// For b[i] = b[__j];
 831:/opt/toolchains/gcc-arm-none-eabi-4_9-2015q1/arm-none-eabi/include/c++/4.9.3/bitset **** 	reference&
 832:/opt/toolchains/gcc-arm-none-eabi-4_9-2015q1/arm-none-eabi/include/c++/4.9.3/bitset **** 	operator=(const reference& __j) _GLIBCXX_NOEXCEPT
 833:/opt/toolchains/gcc-arm-none-eabi-4_9-2015q1/arm-none-eabi/include/c++/4.9.3/bitset **** 	{
 834:/opt/toolchains/gcc-arm-none-eabi-4_9-2015q1/arm-none-eabi/include/c++/4.9.3/bitset **** 	  if ((*(__j._M_wp) & _Base::_S_maskbit(__j._M_bpos)))
 835:/opt/toolchains/gcc-arm-none-eabi-4_9-2015q1/arm-none-eabi/include/c++/4.9.3/bitset **** 	    *_M_wp |= _Base::_S_maskbit(_M_bpos);
 836:/opt/toolchains/gcc-arm-none-eabi-4_9-2015q1/arm-none-eabi/include/c++/4.9.3/bitset **** 	  else
 837:/opt/toolchains/gcc-arm-none-eabi-4_9-2015q1/arm-none-eabi/include/c++/4.9.3/bitset **** 	    *_M_wp &= ~_Base::_S_maskbit(_M_bpos);
 838:/opt/toolchains/gcc-arm-none-eabi-4_9-2015q1/arm-none-eabi/include/c++/4.9.3/bitset **** 	  return *this;
 839:/opt/toolchains/gcc-arm-none-eabi-4_9-2015q1/arm-none-eabi/include/c++/4.9.3/bitset **** 	}
 840:/opt/toolchains/gcc-arm-none-eabi-4_9-2015q1/arm-none-eabi/include/c++/4.9.3/bitset **** 
 841:/opt/toolchains/gcc-arm-none-eabi-4_9-2015q1/arm-none-eabi/include/c++/4.9.3/bitset **** 	// Flips the bit
 842:/opt/toolchains/gcc-arm-none-eabi-4_9-2015q1/arm-none-eabi/include/c++/4.9.3/bitset **** 	bool
 843:/opt/toolchains/gcc-arm-none-eabi-4_9-2015q1/arm-none-eabi/include/c++/4.9.3/bitset **** 	operator~() const _GLIBCXX_NOEXCEPT
 844:/opt/toolchains/gcc-arm-none-eabi-4_9-2015q1/arm-none-eabi/include/c++/4.9.3/bitset **** 	{ return (*(_M_wp) & _Base::_S_maskbit(_M_bpos)) == 0; }
 845:/opt/toolchains/gcc-arm-none-eabi-4_9-2015q1/arm-none-eabi/include/c++/4.9.3/bitset **** 
 846:/opt/toolchains/gcc-arm-none-eabi-4_9-2015q1/arm-none-eabi/include/c++/4.9.3/bitset **** 	// For __x = b[i];
 847:/opt/toolchains/gcc-arm-none-eabi-4_9-2015q1/arm-none-eabi/include/c++/4.9.3/bitset **** 	operator bool() const _GLIBCXX_NOEXCEPT
 848:/opt/toolchains/gcc-arm-none-eabi-4_9-2015q1/arm-none-eabi/include/c++/4.9.3/bitset **** 	{ return (*(_M_wp) & _Base::_S_maskbit(_M_bpos)) != 0; }
 849:/opt/toolchains/gcc-arm-none-eabi-4_9-2015q1/arm-none-eabi/include/c++/4.9.3/bitset **** 
 850:/opt/toolchains/gcc-arm-none-eabi-4_9-2015q1/arm-none-eabi/include/c++/4.9.3/bitset **** 	// For b[i].flip();
 851:/opt/toolchains/gcc-arm-none-eabi-4_9-2015q1/arm-none-eabi/include/c++/4.9.3/bitset **** 	reference&
 852:/opt/toolchains/gcc-arm-none-eabi-4_9-2015q1/arm-none-eabi/include/c++/4.9.3/bitset **** 	flip() _GLIBCXX_NOEXCEPT
 853:/opt/toolchains/gcc-arm-none-eabi-4_9-2015q1/arm-none-eabi/include/c++/4.9.3/bitset **** 	{
 854:/opt/toolchains/gcc-arm-none-eabi-4_9-2015q1/arm-none-eabi/include/c++/4.9.3/bitset **** 	  *_M_wp ^= _Base::_S_maskbit(_M_bpos);
 855:/opt/toolchains/gcc-arm-none-eabi-4_9-2015q1/arm-none-eabi/include/c++/4.9.3/bitset **** 	  return *this;
 856:/opt/toolchains/gcc-arm-none-eabi-4_9-2015q1/arm-none-eabi/include/c++/4.9.3/bitset **** 	}
 857:/opt/toolchains/gcc-arm-none-eabi-4_9-2015q1/arm-none-eabi/include/c++/4.9.3/bitset ****       };
 858:/opt/toolchains/gcc-arm-none-eabi-4_9-2015q1/arm-none-eabi/include/c++/4.9.3/bitset ****       friend class reference;
 859:/opt/toolchains/gcc-arm-none-eabi-4_9-2015q1/arm-none-eabi/include/c++/4.9.3/bitset **** 
 860:/opt/toolchains/gcc-arm-none-eabi-4_9-2015q1/arm-none-eabi/include/c++/4.9.3/bitset ****       // 23.3.5.1 constructors:
 861:/opt/toolchains/gcc-arm-none-eabi-4_9-2015q1/arm-none-eabi/include/c++/4.9.3/bitset ****       /// All bits set to zero.
 862:/opt/toolchains/gcc-arm-none-eabi-4_9-2015q1/arm-none-eabi/include/c++/4.9.3/bitset ****       _GLIBCXX_CONSTEXPR bitset() _GLIBCXX_NOEXCEPT
 863:/opt/toolchains/gcc-arm-none-eabi-4_9-2015q1/arm-none-eabi/include/c++/4.9.3/bitset ****       { }
 864:/opt/toolchains/gcc-arm-none-eabi-4_9-2015q1/arm-none-eabi/include/c++/4.9.3/bitset **** 
 865:/opt/toolchains/gcc-arm-none-eabi-4_9-2015q1/arm-none-eabi/include/c++/4.9.3/bitset ****       /// Initial bits bitwise-copied from a single word (others set to zero).
 866:/opt/toolchains/gcc-arm-none-eabi-4_9-2015q1/arm-none-eabi/include/c++/4.9.3/bitset **** #if __cplusplus >= 201103L
 867:/opt/toolchains/gcc-arm-none-eabi-4_9-2015q1/arm-none-eabi/include/c++/4.9.3/bitset ****       constexpr bitset(unsigned long long __val) noexcept
 868:/opt/toolchains/gcc-arm-none-eabi-4_9-2015q1/arm-none-eabi/include/c++/4.9.3/bitset ****       : _Base(_Sanitize_val<_Nb>::_S_do_sanitize_val(__val)) { }
 869:/opt/toolchains/gcc-arm-none-eabi-4_9-2015q1/arm-none-eabi/include/c++/4.9.3/bitset **** #else
 870:/opt/toolchains/gcc-arm-none-eabi-4_9-2015q1/arm-none-eabi/include/c++/4.9.3/bitset ****       bitset(unsigned long __val)
 871:/opt/toolchains/gcc-arm-none-eabi-4_9-2015q1/arm-none-eabi/include/c++/4.9.3/bitset ****       : _Base(__val)
 872:/opt/toolchains/gcc-arm-none-eabi-4_9-2015q1/arm-none-eabi/include/c++/4.9.3/bitset ****       { _M_do_sanitize(); }
 873:/opt/toolchains/gcc-arm-none-eabi-4_9-2015q1/arm-none-eabi/include/c++/4.9.3/bitset **** #endif
 874:/opt/toolchains/gcc-arm-none-eabi-4_9-2015q1/arm-none-eabi/include/c++/4.9.3/bitset **** 
 875:/opt/toolchains/gcc-arm-none-eabi-4_9-2015q1/arm-none-eabi/include/c++/4.9.3/bitset ****       /**
 876:/opt/toolchains/gcc-arm-none-eabi-4_9-2015q1/arm-none-eabi/include/c++/4.9.3/bitset ****        *  Use a subset of a string.
 877:/opt/toolchains/gcc-arm-none-eabi-4_9-2015q1/arm-none-eabi/include/c++/4.9.3/bitset ****        *  @param  __s  A string of @a 0 and @a 1 characters.
 878:/opt/toolchains/gcc-arm-none-eabi-4_9-2015q1/arm-none-eabi/include/c++/4.9.3/bitset ****        *  @param  __position  Index of the first character in @a __s to use;
 879:/opt/toolchains/gcc-arm-none-eabi-4_9-2015q1/arm-none-eabi/include/c++/4.9.3/bitset ****        *                    defaults to zero.
 880:/opt/toolchains/gcc-arm-none-eabi-4_9-2015q1/arm-none-eabi/include/c++/4.9.3/bitset ****        *  @throw  std::out_of_range  If @a pos is bigger the size of @a __s.
 881:/opt/toolchains/gcc-arm-none-eabi-4_9-2015q1/arm-none-eabi/include/c++/4.9.3/bitset ****        *  @throw  std::invalid_argument  If a character appears in the string
 882:/opt/toolchains/gcc-arm-none-eabi-4_9-2015q1/arm-none-eabi/include/c++/4.9.3/bitset ****        *                                 which is neither @a 0 nor @a 1.
 883:/opt/toolchains/gcc-arm-none-eabi-4_9-2015q1/arm-none-eabi/include/c++/4.9.3/bitset ****        */
 884:/opt/toolchains/gcc-arm-none-eabi-4_9-2015q1/arm-none-eabi/include/c++/4.9.3/bitset ****       template<class _CharT, class _Traits, class _Alloc>
 885:/opt/toolchains/gcc-arm-none-eabi-4_9-2015q1/arm-none-eabi/include/c++/4.9.3/bitset **** 	explicit
 886:/opt/toolchains/gcc-arm-none-eabi-4_9-2015q1/arm-none-eabi/include/c++/4.9.3/bitset **** 	bitset(const std::basic_string<_CharT, _Traits, _Alloc>& __s,
 887:/opt/toolchains/gcc-arm-none-eabi-4_9-2015q1/arm-none-eabi/include/c++/4.9.3/bitset **** 	       size_t __position = 0)
 888:/opt/toolchains/gcc-arm-none-eabi-4_9-2015q1/arm-none-eabi/include/c++/4.9.3/bitset **** 	: _Base()
 889:/opt/toolchains/gcc-arm-none-eabi-4_9-2015q1/arm-none-eabi/include/c++/4.9.3/bitset **** 	{
 890:/opt/toolchains/gcc-arm-none-eabi-4_9-2015q1/arm-none-eabi/include/c++/4.9.3/bitset **** 	  _M_check_initial_position(__s, __position);
 891:/opt/toolchains/gcc-arm-none-eabi-4_9-2015q1/arm-none-eabi/include/c++/4.9.3/bitset **** 	  _M_copy_from_string(__s, __position,
 892:/opt/toolchains/gcc-arm-none-eabi-4_9-2015q1/arm-none-eabi/include/c++/4.9.3/bitset **** 			      std::basic_string<_CharT, _Traits, _Alloc>::npos,
 893:/opt/toolchains/gcc-arm-none-eabi-4_9-2015q1/arm-none-eabi/include/c++/4.9.3/bitset **** 			      _CharT('0'), _CharT('1'));
 894:/opt/toolchains/gcc-arm-none-eabi-4_9-2015q1/arm-none-eabi/include/c++/4.9.3/bitset **** 	}
 895:/opt/toolchains/gcc-arm-none-eabi-4_9-2015q1/arm-none-eabi/include/c++/4.9.3/bitset **** 
 896:/opt/toolchains/gcc-arm-none-eabi-4_9-2015q1/arm-none-eabi/include/c++/4.9.3/bitset ****       /**
 897:/opt/toolchains/gcc-arm-none-eabi-4_9-2015q1/arm-none-eabi/include/c++/4.9.3/bitset ****        *  Use a subset of a string.
 898:/opt/toolchains/gcc-arm-none-eabi-4_9-2015q1/arm-none-eabi/include/c++/4.9.3/bitset ****        *  @param  __s  A string of @a 0 and @a 1 characters.
 899:/opt/toolchains/gcc-arm-none-eabi-4_9-2015q1/arm-none-eabi/include/c++/4.9.3/bitset ****        *  @param  __position  Index of the first character in @a __s to use.
 900:/opt/toolchains/gcc-arm-none-eabi-4_9-2015q1/arm-none-eabi/include/c++/4.9.3/bitset ****        *  @param  __n    The number of characters to copy.
 901:/opt/toolchains/gcc-arm-none-eabi-4_9-2015q1/arm-none-eabi/include/c++/4.9.3/bitset ****        *  @throw std::out_of_range If @a __position is bigger the size
 902:/opt/toolchains/gcc-arm-none-eabi-4_9-2015q1/arm-none-eabi/include/c++/4.9.3/bitset ****        *  of @a __s.
 903:/opt/toolchains/gcc-arm-none-eabi-4_9-2015q1/arm-none-eabi/include/c++/4.9.3/bitset ****        *  @throw  std::invalid_argument  If a character appears in the string
 904:/opt/toolchains/gcc-arm-none-eabi-4_9-2015q1/arm-none-eabi/include/c++/4.9.3/bitset ****        *                                 which is neither @a 0 nor @a 1.
 905:/opt/toolchains/gcc-arm-none-eabi-4_9-2015q1/arm-none-eabi/include/c++/4.9.3/bitset ****        */
 906:/opt/toolchains/gcc-arm-none-eabi-4_9-2015q1/arm-none-eabi/include/c++/4.9.3/bitset ****       template<class _CharT, class _Traits, class _Alloc>
 907:/opt/toolchains/gcc-arm-none-eabi-4_9-2015q1/arm-none-eabi/include/c++/4.9.3/bitset **** 	bitset(const std::basic_string<_CharT, _Traits, _Alloc>& __s,
 908:/opt/toolchains/gcc-arm-none-eabi-4_9-2015q1/arm-none-eabi/include/c++/4.9.3/bitset **** 	       size_t __position, size_t __n)
 909:/opt/toolchains/gcc-arm-none-eabi-4_9-2015q1/arm-none-eabi/include/c++/4.9.3/bitset **** 	: _Base()
 910:/opt/toolchains/gcc-arm-none-eabi-4_9-2015q1/arm-none-eabi/include/c++/4.9.3/bitset **** 	{
 911:/opt/toolchains/gcc-arm-none-eabi-4_9-2015q1/arm-none-eabi/include/c++/4.9.3/bitset **** 	  _M_check_initial_position(__s, __position);
 912:/opt/toolchains/gcc-arm-none-eabi-4_9-2015q1/arm-none-eabi/include/c++/4.9.3/bitset **** 	  _M_copy_from_string(__s, __position, __n, _CharT('0'), _CharT('1'));
 913:/opt/toolchains/gcc-arm-none-eabi-4_9-2015q1/arm-none-eabi/include/c++/4.9.3/bitset **** 	}
 914:/opt/toolchains/gcc-arm-none-eabi-4_9-2015q1/arm-none-eabi/include/c++/4.9.3/bitset **** 
 915:/opt/toolchains/gcc-arm-none-eabi-4_9-2015q1/arm-none-eabi/include/c++/4.9.3/bitset ****       // _GLIBCXX_RESOLVE_LIB_DEFECTS
 916:/opt/toolchains/gcc-arm-none-eabi-4_9-2015q1/arm-none-eabi/include/c++/4.9.3/bitset ****       // 396. what are characters zero and one.
 917:/opt/toolchains/gcc-arm-none-eabi-4_9-2015q1/arm-none-eabi/include/c++/4.9.3/bitset ****       template<class _CharT, class _Traits, class _Alloc>
 918:/opt/toolchains/gcc-arm-none-eabi-4_9-2015q1/arm-none-eabi/include/c++/4.9.3/bitset **** 	bitset(const std::basic_string<_CharT, _Traits, _Alloc>& __s,
 919:/opt/toolchains/gcc-arm-none-eabi-4_9-2015q1/arm-none-eabi/include/c++/4.9.3/bitset **** 	       size_t __position, size_t __n,
 920:/opt/toolchains/gcc-arm-none-eabi-4_9-2015q1/arm-none-eabi/include/c++/4.9.3/bitset **** 	       _CharT __zero, _CharT __one = _CharT('1'))
 921:/opt/toolchains/gcc-arm-none-eabi-4_9-2015q1/arm-none-eabi/include/c++/4.9.3/bitset **** 	: _Base()
 922:/opt/toolchains/gcc-arm-none-eabi-4_9-2015q1/arm-none-eabi/include/c++/4.9.3/bitset **** 	{
 923:/opt/toolchains/gcc-arm-none-eabi-4_9-2015q1/arm-none-eabi/include/c++/4.9.3/bitset **** 	  _M_check_initial_position(__s, __position);
 924:/opt/toolchains/gcc-arm-none-eabi-4_9-2015q1/arm-none-eabi/include/c++/4.9.3/bitset **** 	  _M_copy_from_string(__s, __position, __n, __zero, __one);
 925:/opt/toolchains/gcc-arm-none-eabi-4_9-2015q1/arm-none-eabi/include/c++/4.9.3/bitset **** 	}
 926:/opt/toolchains/gcc-arm-none-eabi-4_9-2015q1/arm-none-eabi/include/c++/4.9.3/bitset **** 
 927:/opt/toolchains/gcc-arm-none-eabi-4_9-2015q1/arm-none-eabi/include/c++/4.9.3/bitset **** #if __cplusplus >= 201103L
 928:/opt/toolchains/gcc-arm-none-eabi-4_9-2015q1/arm-none-eabi/include/c++/4.9.3/bitset ****       /**
 929:/opt/toolchains/gcc-arm-none-eabi-4_9-2015q1/arm-none-eabi/include/c++/4.9.3/bitset ****        *  Construct from a character %array.
 930:/opt/toolchains/gcc-arm-none-eabi-4_9-2015q1/arm-none-eabi/include/c++/4.9.3/bitset ****        *  @param  __str  An %array of characters @a zero and @a one.
 931:/opt/toolchains/gcc-arm-none-eabi-4_9-2015q1/arm-none-eabi/include/c++/4.9.3/bitset ****        *  @param  __n    The number of characters to use.
 932:/opt/toolchains/gcc-arm-none-eabi-4_9-2015q1/arm-none-eabi/include/c++/4.9.3/bitset ****        *  @param  __zero The character corresponding to the value 0.
 933:/opt/toolchains/gcc-arm-none-eabi-4_9-2015q1/arm-none-eabi/include/c++/4.9.3/bitset ****        *  @param  __one  The character corresponding to the value 1.
 934:/opt/toolchains/gcc-arm-none-eabi-4_9-2015q1/arm-none-eabi/include/c++/4.9.3/bitset ****        *  @throw  std::invalid_argument If a character appears in the string
 935:/opt/toolchains/gcc-arm-none-eabi-4_9-2015q1/arm-none-eabi/include/c++/4.9.3/bitset ****        *                                which is neither @a __zero nor @a __one.
 936:/opt/toolchains/gcc-arm-none-eabi-4_9-2015q1/arm-none-eabi/include/c++/4.9.3/bitset ****        */
 937:/opt/toolchains/gcc-arm-none-eabi-4_9-2015q1/arm-none-eabi/include/c++/4.9.3/bitset ****       template<typename _CharT>
 938:/opt/toolchains/gcc-arm-none-eabi-4_9-2015q1/arm-none-eabi/include/c++/4.9.3/bitset ****         explicit
 939:/opt/toolchains/gcc-arm-none-eabi-4_9-2015q1/arm-none-eabi/include/c++/4.9.3/bitset ****         bitset(const _CharT* __str,
 940:/opt/toolchains/gcc-arm-none-eabi-4_9-2015q1/arm-none-eabi/include/c++/4.9.3/bitset **** 	       typename std::basic_string<_CharT>::size_type __n
 941:/opt/toolchains/gcc-arm-none-eabi-4_9-2015q1/arm-none-eabi/include/c++/4.9.3/bitset **** 	       = std::basic_string<_CharT>::npos,
 942:/opt/toolchains/gcc-arm-none-eabi-4_9-2015q1/arm-none-eabi/include/c++/4.9.3/bitset **** 	       _CharT __zero = _CharT('0'), _CharT __one = _CharT('1'))
 943:/opt/toolchains/gcc-arm-none-eabi-4_9-2015q1/arm-none-eabi/include/c++/4.9.3/bitset ****         : _Base()
 944:/opt/toolchains/gcc-arm-none-eabi-4_9-2015q1/arm-none-eabi/include/c++/4.9.3/bitset ****         {
 945:/opt/toolchains/gcc-arm-none-eabi-4_9-2015q1/arm-none-eabi/include/c++/4.9.3/bitset **** 	  if (!__str)
 946:/opt/toolchains/gcc-arm-none-eabi-4_9-2015q1/arm-none-eabi/include/c++/4.9.3/bitset **** 	    __throw_logic_error(__N("bitset::bitset(const _CharT*, ...)"));
 947:/opt/toolchains/gcc-arm-none-eabi-4_9-2015q1/arm-none-eabi/include/c++/4.9.3/bitset **** 
 948:/opt/toolchains/gcc-arm-none-eabi-4_9-2015q1/arm-none-eabi/include/c++/4.9.3/bitset **** 	  if (__n == std::basic_string<_CharT>::npos)
 949:/opt/toolchains/gcc-arm-none-eabi-4_9-2015q1/arm-none-eabi/include/c++/4.9.3/bitset **** 	    __n = std::char_traits<_CharT>::length(__str);
 950:/opt/toolchains/gcc-arm-none-eabi-4_9-2015q1/arm-none-eabi/include/c++/4.9.3/bitset **** 	  _M_copy_from_ptr<_CharT, std::char_traits<_CharT>>(__str, __n, 0,
 951:/opt/toolchains/gcc-arm-none-eabi-4_9-2015q1/arm-none-eabi/include/c++/4.9.3/bitset **** 							     __n, __zero,
 952:/opt/toolchains/gcc-arm-none-eabi-4_9-2015q1/arm-none-eabi/include/c++/4.9.3/bitset **** 							     __one);
 953:/opt/toolchains/gcc-arm-none-eabi-4_9-2015q1/arm-none-eabi/include/c++/4.9.3/bitset **** 	}
 954:/opt/toolchains/gcc-arm-none-eabi-4_9-2015q1/arm-none-eabi/include/c++/4.9.3/bitset **** #endif
 955:/opt/toolchains/gcc-arm-none-eabi-4_9-2015q1/arm-none-eabi/include/c++/4.9.3/bitset **** 
 956:/opt/toolchains/gcc-arm-none-eabi-4_9-2015q1/arm-none-eabi/include/c++/4.9.3/bitset ****       // 23.3.5.2 bitset operations:
 957:/opt/toolchains/gcc-arm-none-eabi-4_9-2015q1/arm-none-eabi/include/c++/4.9.3/bitset ****       //@{
 958:/opt/toolchains/gcc-arm-none-eabi-4_9-2015q1/arm-none-eabi/include/c++/4.9.3/bitset ****       /**
 959:/opt/toolchains/gcc-arm-none-eabi-4_9-2015q1/arm-none-eabi/include/c++/4.9.3/bitset ****        *  Operations on bitsets.
 960:/opt/toolchains/gcc-arm-none-eabi-4_9-2015q1/arm-none-eabi/include/c++/4.9.3/bitset ****        *  @param  __rhs  A same-sized bitset.
 961:/opt/toolchains/gcc-arm-none-eabi-4_9-2015q1/arm-none-eabi/include/c++/4.9.3/bitset ****        *
 962:/opt/toolchains/gcc-arm-none-eabi-4_9-2015q1/arm-none-eabi/include/c++/4.9.3/bitset ****        *  These should be self-explanatory.
 963:/opt/toolchains/gcc-arm-none-eabi-4_9-2015q1/arm-none-eabi/include/c++/4.9.3/bitset ****        */
 964:/opt/toolchains/gcc-arm-none-eabi-4_9-2015q1/arm-none-eabi/include/c++/4.9.3/bitset ****       bitset<_Nb>&
 965:/opt/toolchains/gcc-arm-none-eabi-4_9-2015q1/arm-none-eabi/include/c++/4.9.3/bitset ****       operator&=(const bitset<_Nb>& __rhs) _GLIBCXX_NOEXCEPT
 966:/opt/toolchains/gcc-arm-none-eabi-4_9-2015q1/arm-none-eabi/include/c++/4.9.3/bitset ****       {
 967:/opt/toolchains/gcc-arm-none-eabi-4_9-2015q1/arm-none-eabi/include/c++/4.9.3/bitset **** 	this->_M_do_and(__rhs);
 968:/opt/toolchains/gcc-arm-none-eabi-4_9-2015q1/arm-none-eabi/include/c++/4.9.3/bitset **** 	return *this;
 969:/opt/toolchains/gcc-arm-none-eabi-4_9-2015q1/arm-none-eabi/include/c++/4.9.3/bitset ****       }
 970:/opt/toolchains/gcc-arm-none-eabi-4_9-2015q1/arm-none-eabi/include/c++/4.9.3/bitset **** 
 971:/opt/toolchains/gcc-arm-none-eabi-4_9-2015q1/arm-none-eabi/include/c++/4.9.3/bitset ****       bitset<_Nb>&
 972:/opt/toolchains/gcc-arm-none-eabi-4_9-2015q1/arm-none-eabi/include/c++/4.9.3/bitset ****       operator|=(const bitset<_Nb>& __rhs) _GLIBCXX_NOEXCEPT
 973:/opt/toolchains/gcc-arm-none-eabi-4_9-2015q1/arm-none-eabi/include/c++/4.9.3/bitset ****       {
 974:/opt/toolchains/gcc-arm-none-eabi-4_9-2015q1/arm-none-eabi/include/c++/4.9.3/bitset **** 	this->_M_do_or(__rhs);
 975:/opt/toolchains/gcc-arm-none-eabi-4_9-2015q1/arm-none-eabi/include/c++/4.9.3/bitset **** 	return *this;
 976:/opt/toolchains/gcc-arm-none-eabi-4_9-2015q1/arm-none-eabi/include/c++/4.9.3/bitset ****       }
 977:/opt/toolchains/gcc-arm-none-eabi-4_9-2015q1/arm-none-eabi/include/c++/4.9.3/bitset **** 
 978:/opt/toolchains/gcc-arm-none-eabi-4_9-2015q1/arm-none-eabi/include/c++/4.9.3/bitset ****       bitset<_Nb>&
 979:/opt/toolchains/gcc-arm-none-eabi-4_9-2015q1/arm-none-eabi/include/c++/4.9.3/bitset ****       operator^=(const bitset<_Nb>& __rhs) _GLIBCXX_NOEXCEPT
 980:/opt/toolchains/gcc-arm-none-eabi-4_9-2015q1/arm-none-eabi/include/c++/4.9.3/bitset ****       {
 981:/opt/toolchains/gcc-arm-none-eabi-4_9-2015q1/arm-none-eabi/include/c++/4.9.3/bitset **** 	this->_M_do_xor(__rhs);
 982:/opt/toolchains/gcc-arm-none-eabi-4_9-2015q1/arm-none-eabi/include/c++/4.9.3/bitset **** 	return *this;
 983:/opt/toolchains/gcc-arm-none-eabi-4_9-2015q1/arm-none-eabi/include/c++/4.9.3/bitset ****       }
 984:/opt/toolchains/gcc-arm-none-eabi-4_9-2015q1/arm-none-eabi/include/c++/4.9.3/bitset ****       //@}
 985:/opt/toolchains/gcc-arm-none-eabi-4_9-2015q1/arm-none-eabi/include/c++/4.9.3/bitset ****       
 986:/opt/toolchains/gcc-arm-none-eabi-4_9-2015q1/arm-none-eabi/include/c++/4.9.3/bitset ****       //@{
 987:/opt/toolchains/gcc-arm-none-eabi-4_9-2015q1/arm-none-eabi/include/c++/4.9.3/bitset ****       /**
 988:/opt/toolchains/gcc-arm-none-eabi-4_9-2015q1/arm-none-eabi/include/c++/4.9.3/bitset ****        *  Operations on bitsets.
 989:/opt/toolchains/gcc-arm-none-eabi-4_9-2015q1/arm-none-eabi/include/c++/4.9.3/bitset ****        *  @param  __position  The number of places to shift.
 990:/opt/toolchains/gcc-arm-none-eabi-4_9-2015q1/arm-none-eabi/include/c++/4.9.3/bitset ****        *
 991:/opt/toolchains/gcc-arm-none-eabi-4_9-2015q1/arm-none-eabi/include/c++/4.9.3/bitset ****        *  These should be self-explanatory.
 992:/opt/toolchains/gcc-arm-none-eabi-4_9-2015q1/arm-none-eabi/include/c++/4.9.3/bitset ****        */
 993:/opt/toolchains/gcc-arm-none-eabi-4_9-2015q1/arm-none-eabi/include/c++/4.9.3/bitset ****       bitset<_Nb>&
 994:/opt/toolchains/gcc-arm-none-eabi-4_9-2015q1/arm-none-eabi/include/c++/4.9.3/bitset ****       operator<<=(size_t __position) _GLIBCXX_NOEXCEPT
 995:/opt/toolchains/gcc-arm-none-eabi-4_9-2015q1/arm-none-eabi/include/c++/4.9.3/bitset ****       {
 996:/opt/toolchains/gcc-arm-none-eabi-4_9-2015q1/arm-none-eabi/include/c++/4.9.3/bitset **** 	if (__builtin_expect(__position < _Nb, 1))
 997:/opt/toolchains/gcc-arm-none-eabi-4_9-2015q1/arm-none-eabi/include/c++/4.9.3/bitset **** 	  {
 998:/opt/toolchains/gcc-arm-none-eabi-4_9-2015q1/arm-none-eabi/include/c++/4.9.3/bitset **** 	    this->_M_do_left_shift(__position);
 999:/opt/toolchains/gcc-arm-none-eabi-4_9-2015q1/arm-none-eabi/include/c++/4.9.3/bitset **** 	    this->_M_do_sanitize();
1000:/opt/toolchains/gcc-arm-none-eabi-4_9-2015q1/arm-none-eabi/include/c++/4.9.3/bitset **** 	  }
1001:/opt/toolchains/gcc-arm-none-eabi-4_9-2015q1/arm-none-eabi/include/c++/4.9.3/bitset **** 	else
1002:/opt/toolchains/gcc-arm-none-eabi-4_9-2015q1/arm-none-eabi/include/c++/4.9.3/bitset **** 	  this->_M_do_reset();
1003:/opt/toolchains/gcc-arm-none-eabi-4_9-2015q1/arm-none-eabi/include/c++/4.9.3/bitset **** 	return *this;
1004:/opt/toolchains/gcc-arm-none-eabi-4_9-2015q1/arm-none-eabi/include/c++/4.9.3/bitset ****       }
1005:/opt/toolchains/gcc-arm-none-eabi-4_9-2015q1/arm-none-eabi/include/c++/4.9.3/bitset **** 
1006:/opt/toolchains/gcc-arm-none-eabi-4_9-2015q1/arm-none-eabi/include/c++/4.9.3/bitset ****       bitset<_Nb>&
1007:/opt/toolchains/gcc-arm-none-eabi-4_9-2015q1/arm-none-eabi/include/c++/4.9.3/bitset ****       operator>>=(size_t __position) _GLIBCXX_NOEXCEPT
1008:/opt/toolchains/gcc-arm-none-eabi-4_9-2015q1/arm-none-eabi/include/c++/4.9.3/bitset ****       {
1009:/opt/toolchains/gcc-arm-none-eabi-4_9-2015q1/arm-none-eabi/include/c++/4.9.3/bitset **** 	if (__builtin_expect(__position < _Nb, 1))
1010:/opt/toolchains/gcc-arm-none-eabi-4_9-2015q1/arm-none-eabi/include/c++/4.9.3/bitset **** 	  {
1011:/opt/toolchains/gcc-arm-none-eabi-4_9-2015q1/arm-none-eabi/include/c++/4.9.3/bitset **** 	    this->_M_do_right_shift(__position);
1012:/opt/toolchains/gcc-arm-none-eabi-4_9-2015q1/arm-none-eabi/include/c++/4.9.3/bitset **** 	    this->_M_do_sanitize();
1013:/opt/toolchains/gcc-arm-none-eabi-4_9-2015q1/arm-none-eabi/include/c++/4.9.3/bitset **** 	  }
1014:/opt/toolchains/gcc-arm-none-eabi-4_9-2015q1/arm-none-eabi/include/c++/4.9.3/bitset **** 	else
1015:/opt/toolchains/gcc-arm-none-eabi-4_9-2015q1/arm-none-eabi/include/c++/4.9.3/bitset **** 	  this->_M_do_reset();
1016:/opt/toolchains/gcc-arm-none-eabi-4_9-2015q1/arm-none-eabi/include/c++/4.9.3/bitset **** 	return *this;
1017:/opt/toolchains/gcc-arm-none-eabi-4_9-2015q1/arm-none-eabi/include/c++/4.9.3/bitset ****       }
1018:/opt/toolchains/gcc-arm-none-eabi-4_9-2015q1/arm-none-eabi/include/c++/4.9.3/bitset ****       //@}
1019:/opt/toolchains/gcc-arm-none-eabi-4_9-2015q1/arm-none-eabi/include/c++/4.9.3/bitset ****       
1020:/opt/toolchains/gcc-arm-none-eabi-4_9-2015q1/arm-none-eabi/include/c++/4.9.3/bitset ****       //@{
1021:/opt/toolchains/gcc-arm-none-eabi-4_9-2015q1/arm-none-eabi/include/c++/4.9.3/bitset ****       /**
1022:/opt/toolchains/gcc-arm-none-eabi-4_9-2015q1/arm-none-eabi/include/c++/4.9.3/bitset ****        *  These versions of single-bit set, reset, flip, and test are
1023:/opt/toolchains/gcc-arm-none-eabi-4_9-2015q1/arm-none-eabi/include/c++/4.9.3/bitset ****        *  extensions from the SGI version.  They do no range checking.
1024:/opt/toolchains/gcc-arm-none-eabi-4_9-2015q1/arm-none-eabi/include/c++/4.9.3/bitset ****        *  @ingroup SGIextensions
1025:/opt/toolchains/gcc-arm-none-eabi-4_9-2015q1/arm-none-eabi/include/c++/4.9.3/bitset ****        */
1026:/opt/toolchains/gcc-arm-none-eabi-4_9-2015q1/arm-none-eabi/include/c++/4.9.3/bitset ****       bitset<_Nb>&
1027:/opt/toolchains/gcc-arm-none-eabi-4_9-2015q1/arm-none-eabi/include/c++/4.9.3/bitset ****       _Unchecked_set(size_t __pos) _GLIBCXX_NOEXCEPT
1028:/opt/toolchains/gcc-arm-none-eabi-4_9-2015q1/arm-none-eabi/include/c++/4.9.3/bitset ****       {
1029:/opt/toolchains/gcc-arm-none-eabi-4_9-2015q1/arm-none-eabi/include/c++/4.9.3/bitset **** 	this->_M_getword(__pos) |= _Base::_S_maskbit(__pos);
1030:/opt/toolchains/gcc-arm-none-eabi-4_9-2015q1/arm-none-eabi/include/c++/4.9.3/bitset **** 	return *this;
1031:/opt/toolchains/gcc-arm-none-eabi-4_9-2015q1/arm-none-eabi/include/c++/4.9.3/bitset ****       }
1032:/opt/toolchains/gcc-arm-none-eabi-4_9-2015q1/arm-none-eabi/include/c++/4.9.3/bitset **** 
1033:/opt/toolchains/gcc-arm-none-eabi-4_9-2015q1/arm-none-eabi/include/c++/4.9.3/bitset ****       bitset<_Nb>&
1034:/opt/toolchains/gcc-arm-none-eabi-4_9-2015q1/arm-none-eabi/include/c++/4.9.3/bitset ****       _Unchecked_set(size_t __pos, int __val) _GLIBCXX_NOEXCEPT
1035:/opt/toolchains/gcc-arm-none-eabi-4_9-2015q1/arm-none-eabi/include/c++/4.9.3/bitset ****       {
1036:/opt/toolchains/gcc-arm-none-eabi-4_9-2015q1/arm-none-eabi/include/c++/4.9.3/bitset **** 	if (__val)
1037:/opt/toolchains/gcc-arm-none-eabi-4_9-2015q1/arm-none-eabi/include/c++/4.9.3/bitset **** 	  this->_M_getword(__pos) |= _Base::_S_maskbit(__pos);
1038:/opt/toolchains/gcc-arm-none-eabi-4_9-2015q1/arm-none-eabi/include/c++/4.9.3/bitset **** 	else
1039:/opt/toolchains/gcc-arm-none-eabi-4_9-2015q1/arm-none-eabi/include/c++/4.9.3/bitset **** 	  this->_M_getword(__pos) &= ~_Base::_S_maskbit(__pos);
1040:/opt/toolchains/gcc-arm-none-eabi-4_9-2015q1/arm-none-eabi/include/c++/4.9.3/bitset **** 	return *this;
1041:/opt/toolchains/gcc-arm-none-eabi-4_9-2015q1/arm-none-eabi/include/c++/4.9.3/bitset ****       }
1042:/opt/toolchains/gcc-arm-none-eabi-4_9-2015q1/arm-none-eabi/include/c++/4.9.3/bitset **** 
1043:/opt/toolchains/gcc-arm-none-eabi-4_9-2015q1/arm-none-eabi/include/c++/4.9.3/bitset ****       bitset<_Nb>&
1044:/opt/toolchains/gcc-arm-none-eabi-4_9-2015q1/arm-none-eabi/include/c++/4.9.3/bitset ****       _Unchecked_reset(size_t __pos) _GLIBCXX_NOEXCEPT
1045:/opt/toolchains/gcc-arm-none-eabi-4_9-2015q1/arm-none-eabi/include/c++/4.9.3/bitset ****       {
1046:/opt/toolchains/gcc-arm-none-eabi-4_9-2015q1/arm-none-eabi/include/c++/4.9.3/bitset **** 	this->_M_getword(__pos) &= ~_Base::_S_maskbit(__pos);
1047:/opt/toolchains/gcc-arm-none-eabi-4_9-2015q1/arm-none-eabi/include/c++/4.9.3/bitset **** 	return *this;
1048:/opt/toolchains/gcc-arm-none-eabi-4_9-2015q1/arm-none-eabi/include/c++/4.9.3/bitset ****       }
1049:/opt/toolchains/gcc-arm-none-eabi-4_9-2015q1/arm-none-eabi/include/c++/4.9.3/bitset **** 
1050:/opt/toolchains/gcc-arm-none-eabi-4_9-2015q1/arm-none-eabi/include/c++/4.9.3/bitset ****       bitset<_Nb>&
1051:/opt/toolchains/gcc-arm-none-eabi-4_9-2015q1/arm-none-eabi/include/c++/4.9.3/bitset ****       _Unchecked_flip(size_t __pos) _GLIBCXX_NOEXCEPT
1052:/opt/toolchains/gcc-arm-none-eabi-4_9-2015q1/arm-none-eabi/include/c++/4.9.3/bitset ****       {
1053:/opt/toolchains/gcc-arm-none-eabi-4_9-2015q1/arm-none-eabi/include/c++/4.9.3/bitset **** 	this->_M_getword(__pos) ^= _Base::_S_maskbit(__pos);
1054:/opt/toolchains/gcc-arm-none-eabi-4_9-2015q1/arm-none-eabi/include/c++/4.9.3/bitset **** 	return *this;
1055:/opt/toolchains/gcc-arm-none-eabi-4_9-2015q1/arm-none-eabi/include/c++/4.9.3/bitset ****       }
1056:/opt/toolchains/gcc-arm-none-eabi-4_9-2015q1/arm-none-eabi/include/c++/4.9.3/bitset **** 
1057:/opt/toolchains/gcc-arm-none-eabi-4_9-2015q1/arm-none-eabi/include/c++/4.9.3/bitset ****       _GLIBCXX_CONSTEXPR bool
1058:/opt/toolchains/gcc-arm-none-eabi-4_9-2015q1/arm-none-eabi/include/c++/4.9.3/bitset ****       _Unchecked_test(size_t __pos) const _GLIBCXX_NOEXCEPT
1059:/opt/toolchains/gcc-arm-none-eabi-4_9-2015q1/arm-none-eabi/include/c++/4.9.3/bitset ****       { return ((this->_M_getword(__pos) & _Base::_S_maskbit(__pos))
1060:/opt/toolchains/gcc-arm-none-eabi-4_9-2015q1/arm-none-eabi/include/c++/4.9.3/bitset **** 		!= static_cast<_WordT>(0)); }
 1407              		.loc 2 1060 0
 1408 000e D0F8A822 		ldr	r2, [r0, #680]
 1409              	.LBE554:
 1410              	.LBE555:
 1411              	.LBE556:
 333:/home/tienluong/workspace/atlantis_fw/AsicFwS2/src/opticalzoom.cpp ****     if (!_is_zoom_calib_available[mirror_module] )
 1412              		.loc 1 333 0
 1413 0012 1342     		tst	r3, r2
 1414 0014 4FD0     		beq	.L83
 1415              	.LVL173:
 1416 0016 1C24     		movs	r4, #28
 1417              	.LBB557:
 1418              	.LBB558:
 317:/home/tienluong/workspace/atlantis_fw/AsicFwS2/src/opticalzoom.cpp ****     float vec_start_to_end_y = angle_pos_mapping._pos_end_y - angle_pos_mapping._pos_start_y;
 1419              		.loc 1 317 0
 1420 0018 284E     		ldr	r6, .L84
 1421 001a 04FB0104 		mla	r4, r4, r1, r0
 315:/home/tienluong/workspace/atlantis_fw/AsicFwS2/src/opticalzoom.cpp ****     float vec_start_to_pos_y = pos.y - angle_pos_mapping._pos_start_y;
 1422              		.loc 1 315 0
 1423 001e D4F8C051 		ldr	r5, [r4, #448]	@ float
 1424              	.LVL174:
 317:/home/tienluong/workspace/atlantis_fw/AsicFwS2/src/opticalzoom.cpp ****     float vec_start_to_end_y = angle_pos_mapping._pos_end_y - angle_pos_mapping._pos_start_y;
 1425              		.loc 1 317 0
 1426 0022 D4F8C801 		ldr	r0, [r4, #456]	@ float
 1427              	.LVL175:
 1428 0026 2946     		mov	r1, r5
 1429              	.LVL176:
 1430 0028 B047     		blx	r6
 1431              	.LVL177:
 316:/home/tienluong/workspace/atlantis_fw/AsicFwS2/src/opticalzoom.cpp ****     float vec_start_to_end_x = angle_pos_mapping._pos_end_x - angle_pos_mapping._pos_start_x;
 1432              		.loc 1 316 0
 1433 002a D4F8C4A1 		ldr	r10, [r4, #452]	@ float
 1434              	.LVL178:
 318:/home/tienluong/workspace/atlantis_fw/AsicFwS2/src/opticalzoom.cpp **** 
 1435              		.loc 1 318 0
 1436 002e 5146     		mov	r1, r10
 317:/home/tienluong/workspace/atlantis_fw/AsicFwS2/src/opticalzoom.cpp ****     float vec_start_to_end_y = angle_pos_mapping._pos_end_y - angle_pos_mapping._pos_start_y;
 1437              		.loc 1 317 0
 1438 0030 8146     		mov	r9, r0
 1439              	.LVL179:
 318:/home/tienluong/workspace/atlantis_fw/AsicFwS2/src/opticalzoom.cpp **** 
 1440              		.loc 1 318 0
 1441 0032 D4F8CC01 		ldr	r0, [r4, #460]	@ float
 1442              	.LVL180:
 1443 0036 B047     		blx	r6
 1444              	.LVL181:
 315:/home/tienluong/workspace/atlantis_fw/AsicFwS2/src/opticalzoom.cpp ****     float vec_start_to_pos_y = pos.y - angle_pos_mapping._pos_start_y;
 1445              		.loc 1 315 0
 1446 0038 2946     		mov	r1, r5
 320:/home/tienluong/workspace/atlantis_fw/AsicFwS2/src/opticalzoom.cpp ****               / ( vec_start_to_end_x * vec_start_to_end_x + vec_start_to_end_y * vec_start_to_end_y
 1447              		.loc 1 320 0
 1448 003a 214D     		ldr	r5, .L84+4
 318:/home/tienluong/workspace/atlantis_fw/AsicFwS2/src/opticalzoom.cpp **** 
 1449              		.loc 1 318 0
 1450 003c 8046     		mov	r8, r0
 1451              	.LVL182:
 315:/home/tienluong/workspace/atlantis_fw/AsicFwS2/src/opticalzoom.cpp ****     float vec_start_to_pos_y = pos.y - angle_pos_mapping._pos_start_y;
 1452              		.loc 1 315 0
 1453 003e 3868     		ldr	r0, [r7]	@ float
 1454              	.LVL183:
 1455 0040 B047     		blx	r6
 1456              	.LVL184:
 320:/home/tienluong/workspace/atlantis_fw/AsicFwS2/src/opticalzoom.cpp ****               / ( vec_start_to_end_x * vec_start_to_end_x + vec_start_to_end_y * vec_start_to_end_y
 1457              		.loc 1 320 0
 1458 0042 4946     		mov	r1, r9
 1459 0044 A847     		blx	r5
 1460              	.LVL185:
 316:/home/tienluong/workspace/atlantis_fw/AsicFwS2/src/opticalzoom.cpp ****     float vec_start_to_end_x = angle_pos_mapping._pos_end_x - angle_pos_mapping._pos_start_x;
 1461              		.loc 1 316 0
 1462 0046 5146     		mov	r1, r10
 320:/home/tienluong/workspace/atlantis_fw/AsicFwS2/src/opticalzoom.cpp ****               / ( vec_start_to_end_x * vec_start_to_end_x + vec_start_to_end_y * vec_start_to_end_y
 1463              		.loc 1 320 0
 1464 0048 8346     		mov	fp, r0
 316:/home/tienluong/workspace/atlantis_fw/AsicFwS2/src/opticalzoom.cpp ****     float vec_start_to_end_x = angle_pos_mapping._pos_end_x - angle_pos_mapping._pos_start_x;
 1465              		.loc 1 316 0
 1466 004a 7868     		ldr	r0, [r7, #4]	@ float
 1467              	.LVL186:
 1468 004c B047     		blx	r6
 1469              	.LVL187:
 320:/home/tienluong/workspace/atlantis_fw/AsicFwS2/src/opticalzoom.cpp ****               / ( vec_start_to_end_x * vec_start_to_end_x + vec_start_to_end_y * vec_start_to_end_y
 1470              		.loc 1 320 0
 1471 004e 4146     		mov	r1, r8
 1472 0050 A847     		blx	r5
 1473              	.LVL188:
 1474 0052 1C4F     		ldr	r7, .L84+8
 1475              	.LVL189:
 1476 0054 0146     		mov	r1, r0
 1477 0056 5846     		mov	r0, fp
 1478 0058 B847     		blx	r7
 1479              	.LVL190:
 321:/home/tienluong/workspace/atlantis_fw/AsicFwS2/src/opticalzoom.cpp **** 
 1480              		.loc 1 321 0
 1481 005a 4946     		mov	r1, r9
 320:/home/tienluong/workspace/atlantis_fw/AsicFwS2/src/opticalzoom.cpp ****               / ( vec_start_to_end_x * vec_start_to_end_x + vec_start_to_end_y * vec_start_to_end_y
 1482              		.loc 1 320 0
 1483 005c 8246     		mov	r10, r0
 321:/home/tienluong/workspace/atlantis_fw/AsicFwS2/src/opticalzoom.cpp **** 
 1484              		.loc 1 321 0
 1485 005e 4846     		mov	r0, r9
 1486 0060 A847     		blx	r5
 1487              	.LVL191:
 1488 0062 4146     		mov	r1, r8
 1489 0064 8146     		mov	r9, r0
 1490              	.LVL192:
 1491 0066 4046     		mov	r0, r8
 1492 0068 A847     		blx	r5
 1493              	.LVL193:
 1494 006a 0146     		mov	r1, r0
 1495 006c 4846     		mov	r0, r9
 1496 006e B847     		blx	r7
 1497              	.LVL194:
 1498 0070 154F     		ldr	r7, .L84+12
 1499 0072 0146     		mov	r1, r0
 1500 0074 5046     		mov	r0, r10
 1501 0076 B847     		blx	r7
 1502              	.LVL195:
 323:/home/tienluong/workspace/atlantis_fw/AsicFwS2/src/opticalzoom.cpp ****                     angle_pos_mapping._angle_offset ) * 0.5f;
 1503              		.loc 1 323 0
 1504 0078 D4F8D811 		ldr	r1, [r4, #472]	@ float
 1505 007c B047     		blx	r6
 1506              	.LVL196:
 1507 007e D4F8D411 		ldr	r1, [r4, #468]	@ float
 1508 0082 B847     		blx	r7
 1509              	.LVL197:
 1510 0084 114E     		ldr	r6, .L84+16
 1511 0086 B047     		blx	r6
 1512              	.LVL198:
 1513 0088 114B     		ldr	r3, .L84+20
 1514 008a 9847     		blx	r3
 1515              	.LVL199:
 1516 008c 8046     		mov	r8, r0
 1517              	.LVL200:
 1518 008e 8946     		mov	r9, r1
 1519              	.LVL201:
 1520 0090 D4F8D001 		ldr	r0, [r4, #464]	@ float
 1521 0094 B047     		blx	r6
 1522              	.LVL202:
 1523 0096 0F4C     		ldr	r4, .L84+24
 1524 0098 0246     		mov	r2, r0
 1525 009a 0B46     		mov	r3, r1
 1526 009c 4046     		mov	r0, r8
 1527 009e 4946     		mov	r1, r9
 1528 00a0 A047     		blx	r4
 1529              	.LVL203:
 324:/home/tienluong/workspace/atlantis_fw/AsicFwS2/src/opticalzoom.cpp **** 
 1530              		.loc 1 324 0
 1531 00a2 0022     		movs	r2, #0
 1532 00a4 0C4B     		ldr	r3, .L84+28
 1533 00a6 0D4C     		ldr	r4, .L84+32
 1534 00a8 A047     		blx	r4
 1535              	.LVL204:
 1536 00aa 0D4B     		ldr	r3, .L84+36
 1537 00ac 9847     		blx	r3
 1538              	.LVL205:
 1539              	.LBB559:
 1540              	.LBB560:
  18:/home/tienluong/workspace/atlantis_fw/AsicFwS2/src/opticalzoom.cpp **** 
 1541              		.loc 1 18 0
 1542 00ae 0D49     		ldr	r1, .L84+40
 1543 00b0 A847     		blx	r5
 1544              	.LVL206:
 1545              	.LBE560:
 1546              	.LBE559:
 1547              	.LBE558:
 1548              	.LBE557:
 334:/home/tienluong/workspace/atlantis_fw/AsicFwS2/src/opticalzoom.cpp ****     {
 335:/home/tienluong/workspace/atlantis_fw/AsicFwS2/src/opticalzoom.cpp **** #if 0
 336:/home/tienluong/workspace/atlantis_fw/AsicFwS2/src/opticalzoom.cpp ****         printf( "Mapping information for mirror module %d does not exist,"
 337:/home/tienluong/workspace/atlantis_fw/AsicFwS2/src/opticalzoom.cpp ****                 "return %f mirror angle instead!\n", mirror_module, kDefaultMirrorAngle );
 338:/home/tienluong/workspace/atlantis_fw/AsicFwS2/src/opticalzoom.cpp **** #endif
 339:/home/tienluong/workspace/atlantis_fw/AsicFwS2/src/opticalzoom.cpp ****         return kDefaultMirrorAngle;
 340:/home/tienluong/workspace/atlantis_fw/AsicFwS2/src/opticalzoom.cpp ****     }
 341:/home/tienluong/workspace/atlantis_fw/AsicFwS2/src/opticalzoom.cpp **** 
 342:/home/tienluong/workspace/atlantis_fw/AsicFwS2/src/opticalzoom.cpp ****     return mapPosToAngle( _angle_pos_map_array[mirror_module], img_center_in_ref );
 1549              		.loc 1 342 0
 1550 00b2 BDE8F88F 		pop	{r3, r4, r5, r6, r7, r8, r9, r10, fp, pc}
 1551              	.LVL207:
 1552              	.L83:
 339:/home/tienluong/workspace/atlantis_fw/AsicFwS2/src/opticalzoom.cpp ****     }
 1553              		.loc 1 339 0
 1554 00b6 0C48     		ldr	r0, .L84+44
 1555              	.LVL208:
 343:/home/tienluong/workspace/atlantis_fw/AsicFwS2/src/opticalzoom.cpp **** }
 1556              		.loc 1 343 0
 1557 00b8 BDE8F88F 		pop	{r3, r4, r5, r6, r7, r8, r9, r10, fp, pc}
 1558              	.LVL209:
 1559              	.L85:
 1560              		.align	2
 1561              	.L84:
 1562 00bc 00000000 		.word	__aeabi_fsub
 1563 00c0 00000000 		.word	__aeabi_fmul
 1564 00c4 00000000 		.word	__aeabi_fadd
 1565 00c8 00000000 		.word	__aeabi_fdiv
 1566 00cc 00000000 		.word	__aeabi_f2d
 1567 00d0 00000000 		.word	atan
 1568 00d4 00000000 		.word	__aeabi_dsub
 1569 00d8 0000E03F 		.word	1071644672
 1570 00dc 00000000 		.word	__aeabi_dmul
 1571 00e0 00000000 		.word	__aeabi_d2f
 1572 00e4 E02E6542 		.word	1113927392
 1573 00e8 00003442 		.word	1110704128
 1574              		.cfi_endproc
 1575              	.LFE2593:
 1577              		.section	.text._ZNK4ltaf15OpticalZoomASIC26getMirrorAnglesByZoomLevelEfNS0_11CaptureModeEPf,"ax",%
 1578              		.align	1
 1579              		.global	_ZNK4ltaf15OpticalZoomASIC26getMirrorAnglesByZoomLevelEfNS0_11CaptureModeEPf
 1580              		.thumb
 1581              		.thumb_func
 1583              	_ZNK4ltaf15OpticalZoomASIC26getMirrorAnglesByZoomLevelEfNS0_11CaptureModeEPf:
 1584              	.LFB2584:
 156:/home/tienluong/workspace/atlantis_fw/AsicFwS2/src/opticalzoom.cpp ****     Pnt2f img_center_in_ref[kNumMirrorModules];
 1585              		.loc 1 156 0
 1586              		.cfi_startproc
 1587              		@ args = 0, pretend = 0, frame = 64
 1588              		@ frame_needed = 0, uses_anonymous_args = 0
 1589              	.LVL210:
 1590 0000 2DE9F041 		push	{r4, r5, r6, r7, r8, lr}
 1591              	.LCFI13:
 1592              		.cfi_def_cfa_offset 24
 1593              		.cfi_offset 4, -24
 1594              		.cfi_offset 5, -20
 1595              		.cfi_offset 6, -16
 1596              		.cfi_offset 7, -12
 1597              		.cfi_offset 8, -8
 1598              		.cfi_offset 14, -4
 1599 0004 9846     		mov	r8, r3
 1600 0006 92B0     		sub	sp, sp, #72
 1601              	.LCFI14:
 1602              		.cfi_def_cfa_offset 96
 156:/home/tienluong/workspace/atlantis_fw/AsicFwS2/src/opticalzoom.cpp ****     Pnt2f img_center_in_ref[kNumMirrorModules];
 1603              		.loc 1 156 0
 1604 0008 0646     		mov	r6, r0
 1605 000a 0023     		movs	r3, #0
 1606              	.LVL211:
 1607              	.L87:
 1608              	.LBB561:
 1609              	.LBB562:
 1610              	.LBB563:
 1611              	.LBB564:
 1612              		.loc 4 28 0
 1613 000c 02AD     		add	r5, sp, #8
 1614 000e 0020     		movs	r0, #0
 1615 0010 EC18     		adds	r4, r5, r3
 1616 0012 5851     		str	r0, [r3, r5]	@ float
 1617 0014 0833     		adds	r3, r3, #8
 1618              	.LVL212:
 1619              	.LBE564:
 1620              	.LBE563:
 1621              	.LBE562:
 157:/home/tienluong/workspace/atlantis_fw/AsicFwS2/src/opticalzoom.cpp ****     getImgCenterInRef( zoom_level, capture_mode, img_center_in_ref );
 1622              		.loc 1 157 0
 1623 0016 402B     		cmp	r3, #64
 1624              	.LBB567:
 1625              	.LBB566:
 1626              	.LBB565:
 1627              		.loc 4 28 0
 1628 0018 6060     		str	r0, [r4, #4]	@ float
 1629              	.LBE565:
 1630              	.LBE566:
 1631              	.LBE567:
 157:/home/tienluong/workspace/atlantis_fw/AsicFwS2/src/opticalzoom.cpp ****     getImgCenterInRef( zoom_level, capture_mode, img_center_in_ref );
 1632              		.loc 1 157 0
 1633 001a F7D1     		bne	.L87
 158:/home/tienluong/workspace/atlantis_fw/AsicFwS2/src/opticalzoom.cpp **** 
 1634              		.loc 1 158 0 discriminator 4
 1635 001c 0E4C     		ldr	r4, .L91
 1636 001e 3046     		mov	r0, r6
 1637 0020 2B46     		mov	r3, r5
 1638              	.LVL213:
 1639 0022 A047     		blx	r4
 1640              	.LVL214:
 1641              	.LBB568:
 160:/home/tienluong/workspace/atlantis_fw/AsicFwS2/src/opticalzoom.cpp ****     {
 1642              		.loc 1 160 0 discriminator 4
 1643 0024 0024     		movs	r4, #0
 1644              	.LVL215:
 1645              	.L88:
 162:/home/tienluong/workspace/atlantis_fw/AsicFwS2/src/opticalzoom.cpp ****         SLOGF(SLOG_DEBUG, "Computed mirror angle for module %d: %f", i, angle_array[i]);
 1646              		.loc 1 162 0 discriminator 3
 1647 0026 05EBC402 		add	r2, r5, r4, lsl #3
 1648 002a E1B2     		uxtb	r1, r4
 1649 002c 0B4B     		ldr	r3, .L91+4
 1650 002e 3046     		mov	r0, r6
 1651 0030 9847     		blx	r3
 1652              	.LVL216:
 163:/home/tienluong/workspace/atlantis_fw/AsicFwS2/src/opticalzoom.cpp ****     }
 1653              		.loc 1 163 0 discriminator 3
 1654 0032 0B4B     		ldr	r3, .L91+8
 1655 0034 0B4F     		ldr	r7, .L91+12
 162:/home/tienluong/workspace/atlantis_fw/AsicFwS2/src/opticalzoom.cpp ****         SLOGF(SLOG_DEBUG, "Computed mirror angle for module %d: %f", i, angle_array[i]);
 1656              		.loc 1 162 0 discriminator 3
 1657 0036 48F82400 		str	r0, [r8, r4, lsl #2]	@ float
 163:/home/tienluong/workspace/atlantis_fw/AsicFwS2/src/opticalzoom.cpp ****     }
 1658              		.loc 1 163 0 discriminator 3
 1659 003a 9847     		blx	r3
 1660              	.LVL217:
 1661 003c 2346     		mov	r3, r4
 1662 003e 0A4A     		ldr	r2, .L91+16
 160:/home/tienluong/workspace/atlantis_fw/AsicFwS2/src/opticalzoom.cpp ****     {
 1663              		.loc 1 160 0 discriminator 3
 1664 0040 0134     		adds	r4, r4, #1
 1665              	.LVL218:
 163:/home/tienluong/workspace/atlantis_fw/AsicFwS2/src/opticalzoom.cpp ****     }
 1666              		.loc 1 163 0 discriminator 3
 1667 0042 CDE90001 		strd	r0, [sp]
 1668 0046 2B20     		movs	r0, #43
 1669 0048 1021     		movs	r1, #16
 1670 004a B847     		blx	r7
 1671              	.LVL219:
 160:/home/tienluong/workspace/atlantis_fw/AsicFwS2/src/opticalzoom.cpp ****     {
 1672              		.loc 1 160 0 discriminator 3
 1673 004c 082C     		cmp	r4, #8
 1674 004e EAD1     		bne	.L88
 1675              	.LBE568:
 1676              	.LBE561:
 165:/home/tienluong/workspace/atlantis_fw/AsicFwS2/src/opticalzoom.cpp **** 
 1677              		.loc 1 165 0
 1678 0050 12B0     		add	sp, sp, #72
 1679              	.LCFI15:
 1680              		.cfi_def_cfa_offset 24
 1681              		@ sp needed
 1682 0052 BDE8F081 		pop	{r4, r5, r6, r7, r8, pc}
 1683              	.LVL220:
 1684              	.L92:
 1685 0056 00BF     		.align	2
 1686              	.L91:
 1687 0058 00000000 		.word	_ZNK4ltaf15OpticalZoomASIC17getImgCenterInRefEfNS0_11CaptureModeEPNS_5Pnt2fE
 1688 005c 00000000 		.word	_ZNK4ltaf15OpticalZoomASIC33getMirrorAngleGivenImgCenterInRefENS_12MirrorModuleERKNS_5Pnt2fE
 1689 0060 00000000 		.word	__aeabi_f2d
 1690 0064 00000000 		.word	slogf
 1691 0068 00000000 		.word	.LC0
 1692              		.cfi_endproc
 1693              	.LFE2584:
 1695              		.section	.text._ZNK4ltaf15OpticalZoomASIC28getMirrorAnglesByFocalLengthEfPf,"ax",%progbits
 1696              		.align	1
 1697              		.global	_ZNK4ltaf15OpticalZoomASIC28getMirrorAnglesByFocalLengthEfPf
 1698              		.thumb
 1699              		.thumb_func
 1701              	_ZNK4ltaf15OpticalZoomASIC28getMirrorAnglesByFocalLengthEfPf:
 1702              	.LFB2583:
 136:/home/tienluong/workspace/atlantis_fw/AsicFwS2/src/opticalzoom.cpp ****     SLOGF(SLOG_DEBUG, "Computing mirror angles for focal_length %f", focal_length);
 1703              		.loc 1 136 0
 1704              		.cfi_startproc
 1705              		@ args = 0, pretend = 0, frame = 0
 1706              		@ frame_needed = 0, uses_anonymous_args = 0
 1707              	.LVL221:
 1708 0000 2DE9F341 		push	{r0, r1, r4, r5, r6, r7, r8, lr}
 1709              	.LCFI16:
 1710              		.cfi_def_cfa_offset 32
 1711              		.cfi_offset 4, -24
 1712              		.cfi_offset 5, -20
 1713              		.cfi_offset 6, -16
 1714              		.cfi_offset 7, -12
 1715              		.cfi_offset 8, -8
 1716              		.cfi_offset 14, -4
 137:/home/tienluong/workspace/atlantis_fw/AsicFwS2/src/opticalzoom.cpp ****     if( focal_length < _focal_prime70 )
 1717              		.loc 1 137 0
 1718 0004 144B     		ldr	r3, .L100
 136:/home/tienluong/workspace/atlantis_fw/AsicFwS2/src/opticalzoom.cpp ****     SLOGF(SLOG_DEBUG, "Computing mirror angles for focal_length %f", focal_length);
 1719              		.loc 1 136 0
 1720 0006 0446     		mov	r4, r0
 137:/home/tienluong/workspace/atlantis_fw/AsicFwS2/src/opticalzoom.cpp ****     if( focal_length < _focal_prime70 )
 1721              		.loc 1 137 0
 1722 0008 0846     		mov	r0, r1
 1723              	.LVL222:
 136:/home/tienluong/workspace/atlantis_fw/AsicFwS2/src/opticalzoom.cpp ****     SLOGF(SLOG_DEBUG, "Computing mirror angles for focal_length %f", focal_length);
 1724              		.loc 1 136 0
 1725 000a 0D46     		mov	r5, r1
 1726 000c 1746     		mov	r7, r2
 137:/home/tienluong/workspace/atlantis_fw/AsicFwS2/src/opticalzoom.cpp ****     if( focal_length < _focal_prime70 )
 1727              		.loc 1 137 0
 1728 000e 9847     		blx	r3
 1729              	.LVL223:
 1730 0010 124A     		ldr	r2, .L100+4
 1731 0012 134B     		ldr	r3, .L100+8
 1732 0014 134E     		ldr	r6, .L100+12
 1733 0016 CDE90001 		strd	r0, [sp]
 1734 001a 2B20     		movs	r0, #43
 1735 001c 1021     		movs	r1, #16
 1736 001e 9847     		blx	r3
 1737              	.LVL224:
 138:/home/tienluong/workspace/atlantis_fw/AsicFwS2/src/opticalzoom.cpp ****     {
 1738              		.loc 1 138 0
 1739 0020 D4F8B082 		ldr	r8, [r4, #688]	@ float
 1740 0024 104B     		ldr	r3, .L100+16
 1741 0026 2846     		mov	r0, r5
 1742 0028 4146     		mov	r1, r8
 1743 002a 9847     		blx	r3
 1744              	.LVL225:
 1745 002c 0F4B     		ldr	r3, .L100+20
 1746 002e 38B1     		cbz	r0, .L98
 1747              	.LVL226:
 1748              	.LBB571:
 1749              	.LBB572:
 140:/home/tienluong/workspace/atlantis_fw/AsicFwS2/src/opticalzoom.cpp ****     }
 1750              		.loc 1 140 0
 1751 0030 D4F8AC12 		ldr	r1, [r4, #684]	@ float
 1752 0034 2846     		mov	r0, r5
 1753 0036 9847     		blx	r3
 1754              	.LVL227:
 1755 0038 0022     		movs	r2, #0
 1756 003a 0146     		mov	r1, r0
 1757 003c 2046     		mov	r0, r4
 1758 003e 05E0     		b	.L99
 1759              	.LVL228:
 1760              	.L98:
 1761              	.LBE572:
 1762              	.LBE571:
 144:/home/tienluong/workspace/atlantis_fw/AsicFwS2/src/opticalzoom.cpp ****     }
 1763              		.loc 1 144 0
 1764 0040 4146     		mov	r1, r8
 1765 0042 2846     		mov	r0, r5
 1766 0044 9847     		blx	r3
 1767              	.LVL229:
 1768 0046 0122     		movs	r2, #1
 1769 0048 0146     		mov	r1, r0
 1770 004a 2046     		mov	r0, r4
 1771              	.LVL230:
 1772              	.L99:
 1773 004c 3B46     		mov	r3, r7
 1774 004e B047     		blx	r6
 1775              	.LVL231:
 146:/home/tienluong/workspace/atlantis_fw/AsicFwS2/src/opticalzoom.cpp **** 
 1776              		.loc 1 146 0
 1777 0050 02B0     		add	sp, sp, #8
 1778              	.LCFI17:
 1779              		.cfi_def_cfa_offset 24
 1780              		@ sp needed
 1781 0052 BDE8F081 		pop	{r4, r5, r6, r7, r8, pc}
 1782              	.LVL232:
 1783              	.L101:
 1784 0056 00BF     		.align	2
 1785              	.L100:
 1786 0058 00000000 		.word	__aeabi_f2d
 1787 005c 28000000 		.word	.LC1
 1788 0060 00000000 		.word	slogf
 1789 0064 00000000 		.word	_ZNK4ltaf15OpticalZoomASIC26getMirrorAnglesByZoomLevelEfNS0_11CaptureModeEPf
 1790 0068 00000000 		.word	__aeabi_fcmplt
 1791 006c 00000000 		.word	__aeabi_fdiv
 1792              		.cfi_endproc
 1793              	.LFE2583:
 1795              		.global	__aeabi_f2iz
 1796              		.section	.text._ZNK4ltaf15OpticalZoomASIC27getHallCodeGivenMirrorAngleENS_12MirrorModuleEf,"ax",%p
 1797              		.align	1
 1798              		.global	_ZNK4ltaf15OpticalZoomASIC27getHallCodeGivenMirrorAngleENS_12MirrorModuleEf
 1799              		.thumb
 1800              		.thumb_func
 1802              	_ZNK4ltaf15OpticalZoomASIC27getHallCodeGivenMirrorAngleENS_12MirrorModuleEf:
 1803              	.LFB2602:
 344:/home/tienluong/workspace/atlantis_fw/AsicFwS2/src/opticalzoom.cpp **** 
 345:/home/tienluong/workspace/atlantis_fw/AsicFwS2/src/opticalzoom.cpp **** 
 346:/home/tienluong/workspace/atlantis_fw/AsicFwS2/src/opticalzoom.cpp **** #ifdef USE_ANGLE_HALL_MAP
 347:/home/tienluong/workspace/atlantis_fw/AsicFwS2/src/opticalzoom.cpp **** namespace
 348:/home/tienluong/workspace/atlantis_fw/AsicFwS2/src/opticalzoom.cpp **** {
 349:/home/tienluong/workspace/atlantis_fw/AsicFwS2/src/opticalzoom.cpp **** float mapAngleToHall( const AngleHallMapCoefsASIC & angle_hall_mapping, float mirror_angle )
 350:/home/tienluong/workspace/atlantis_fw/AsicFwS2/src/opticalzoom.cpp **** {
 351:/home/tienluong/workspace/atlantis_fw/AsicFwS2/src/opticalzoom.cpp ****     auto mirror_func = [&]( float angle )
 352:/home/tienluong/workspace/atlantis_fw/AsicFwS2/src/opticalzoom.cpp ****     {return ( angle - angle_hall_mapping._mirror_angle_offset ) / angle_hall_mapping._mirror_angle_
 353:/home/tienluong/workspace/atlantis_fw/AsicFwS2/src/opticalzoom.cpp **** 
 354:/home/tienluong/workspace/atlantis_fw/AsicFwS2/src/opticalzoom.cpp **** 
 355:/home/tienluong/workspace/atlantis_fw/AsicFwS2/src/opticalzoom.cpp ****     auto hall_func = [&]( float hall_param )
 356:/home/tienluong/workspace/atlantis_fw/AsicFwS2/src/opticalzoom.cpp ****     {return hall_param * angle_hall_mapping._hall_scale + angle_hall_mapping._hall_offset;};
 357:/home/tienluong/workspace/atlantis_fw/AsicFwS2/src/opticalzoom.cpp **** 
 358:/home/tienluong/workspace/atlantis_fw/AsicFwS2/src/opticalzoom.cpp **** 
 359:/home/tienluong/workspace/atlantis_fw/AsicFwS2/src/opticalzoom.cpp ****     float f_x     =  mirror_func( mirror_angle );
 360:/home/tienluong/workspace/atlantis_fw/AsicFwS2/src/opticalzoom.cpp ****     float f_x_sqr = f_x * f_x;
 361:/home/tienluong/workspace/atlantis_fw/AsicFwS2/src/opticalzoom.cpp **** 
 362:/home/tienluong/workspace/atlantis_fw/AsicFwS2/src/opticalzoom.cpp ****     float f_y = - ( angle_hall_mapping._map_coefs[3] * f_x_sqr +
 363:/home/tienluong/workspace/atlantis_fw/AsicFwS2/src/opticalzoom.cpp ****                     angle_hall_mapping._map_coefs[4] * f_x +
 364:/home/tienluong/workspace/atlantis_fw/AsicFwS2/src/opticalzoom.cpp ****                     angle_hall_mapping._map_coefs[5] ) /
 365:/home/tienluong/workspace/atlantis_fw/AsicFwS2/src/opticalzoom.cpp ****                 ( angle_hall_mapping._map_coefs[0] * f_x_sqr +
 366:/home/tienluong/workspace/atlantis_fw/AsicFwS2/src/opticalzoom.cpp ****                   angle_hall_mapping._map_coefs[1] * f_x +
 367:/home/tienluong/workspace/atlantis_fw/AsicFwS2/src/opticalzoom.cpp ****                   angle_hall_mapping._map_coefs[2] );
 368:/home/tienluong/workspace/atlantis_fw/AsicFwS2/src/opticalzoom.cpp **** 
 369:/home/tienluong/workspace/atlantis_fw/AsicFwS2/src/opticalzoom.cpp ****     return hall_func( f_y );
 370:/home/tienluong/workspace/atlantis_fw/AsicFwS2/src/opticalzoom.cpp **** }
 371:/home/tienluong/workspace/atlantis_fw/AsicFwS2/src/opticalzoom.cpp **** }
 372:/home/tienluong/workspace/atlantis_fw/AsicFwS2/src/opticalzoom.cpp **** 
 373:/home/tienluong/workspace/atlantis_fw/AsicFwS2/src/opticalzoom.cpp **** std::int16_t OpticalZoomASIC::getHallCodeGivenImgCenterInRef( const MirrorModule mirror_module,
 374:/home/tienluong/workspace/atlantis_fw/AsicFwS2/src/opticalzoom.cpp ****                                                               const Pnt2f & img_center_in_ref ) con
 375:/home/tienluong/workspace/atlantis_fw/AsicFwS2/src/opticalzoom.cpp **** {
 376:/home/tienluong/workspace/atlantis_fw/AsicFwS2/src/opticalzoom.cpp ****     return getHallCodeGivenMirrorAngle( mirror_module,
 377:/home/tienluong/workspace/atlantis_fw/AsicFwS2/src/opticalzoom.cpp ****                                         getMirrorAngleGivenImgCenterInRef( mirror_module, img_cente
 378:/home/tienluong/workspace/atlantis_fw/AsicFwS2/src/opticalzoom.cpp **** }
 379:/home/tienluong/workspace/atlantis_fw/AsicFwS2/src/opticalzoom.cpp **** 
 380:/home/tienluong/workspace/atlantis_fw/AsicFwS2/src/opticalzoom.cpp **** 
 381:/home/tienluong/workspace/atlantis_fw/AsicFwS2/src/opticalzoom.cpp **** 
 382:/home/tienluong/workspace/atlantis_fw/AsicFwS2/src/opticalzoom.cpp **** int16_t OpticalZoomASIC::getHallCodeGivenMirrorAngle( const MirrorModule mirror_module,
 383:/home/tienluong/workspace/atlantis_fw/AsicFwS2/src/opticalzoom.cpp ****                                                       const float mirror_angle ) const
 384:/home/tienluong/workspace/atlantis_fw/AsicFwS2/src/opticalzoom.cpp **** {
 1804              		.loc 1 384 0
 1805              		.cfi_startproc
 1806              		@ args = 0, pretend = 0, frame = 24
 1807              		@ frame_needed = 0, uses_anonymous_args = 0
 1808              	.LVL233:
 1809              	.LBB600:
 1810              	.LBB601:
 1811              	.LBB602:
 1812              	.LBB603:
 1813              	.LBB604:
 1814              	.LBB605:
 403:/opt/toolchains/gcc-arm-none-eabi-4_9-2015q1/arm-none-eabi/include/c++/4.9.3/bitset **** 
 1815              		.loc 2 403 0
 1816 0000 0123     		movs	r3, #1
 1817              	.LBE605:
 1818              	.LBE604:
 1819              	.LBE603:
 1820              	.LBE602:
 1821              	.LBE601:
 1822              	.LBE600:
 1823              		.loc 1 384 0
 1824 0002 2DE9F04F 		push	{r4, r5, r6, r7, r8, r9, r10, fp, lr}
 1825              	.LCFI18:
 1826              		.cfi_def_cfa_offset 36
 1827              		.cfi_offset 4, -36
 1828              		.cfi_offset 5, -32
 1829              		.cfi_offset 6, -28
 1830              		.cfi_offset 7, -24
 1831              		.cfi_offset 8, -20
 1832              		.cfi_offset 9, -16
 1833              		.cfi_offset 10, -12
 1834              		.cfi_offset 11, -8
 1835              		.cfi_offset 14, -4
 1836 0006 8946     		mov	r9, r1
 1837              	.LBB633:
 1838              	.LBB610:
 1839              	.LBB609:
 1840              	.LBB608:
 1841              	.LBB607:
 1842              	.LBB606:
 403:/opt/toolchains/gcc-arm-none-eabi-4_9-2015q1/arm-none-eabi/include/c++/4.9.3/bitset **** 
 1843              		.loc 2 403 0
 1844 0008 01F01F01 		and	r1, r1, #31
 1845              	.LVL234:
 1846 000c 8B40     		lsls	r3, r3, r1
 1847              	.LBE606:
 1848              	.LBE607:
 1849              		.loc 2 1060 0
 1850 000e D0F8A812 		ldr	r1, [r0, #680]
 1851              	.LBE608:
 1852              	.LBE609:
 1853              	.LBE610:
 1854              	.LBE633:
 1855              		.loc 1 384 0
 1856 0012 87B0     		sub	sp, sp, #28
 1857              	.LCFI19:
 1858              		.cfi_def_cfa_offset 64
 1859              		.loc 1 384 0
 1860 0014 0646     		mov	r6, r0
 1861              	.LBB634:
 385:/home/tienluong/workspace/atlantis_fw/AsicFwS2/src/opticalzoom.cpp ****     if (!_is_zoom_calib_available[mirror_module] )
 1862              		.loc 1 385 0
 1863 0016 0B42     		tst	r3, r1
 1864 0018 54D0     		beq	.L108
 1865              	.LVL235:
 1866              	.LBB611:
 1867              	.LBB612:
 1868              	.LBB613:
 1869              	.LBB614:
 352:/home/tienluong/workspace/atlantis_fw/AsicFwS2/src/opticalzoom.cpp **** 
 1870              		.loc 1 352 0
 1871 001a 3824     		movs	r4, #56
 1872 001c 2C4B     		ldr	r3, .L113
 1873 001e 04FB09F4 		mul	r4, r4, r9
 1874 0022 DFF8BCB0 		ldr	fp, .L113+16
 1875 0026 0519     		adds	r5, r0, r4
 1876              	.LVL236:
 1877 0028 1046     		mov	r0, r2
 1878              	.LVL237:
 1879              	.LBE614:
 1880              	.LBE613:
 360:/home/tienluong/workspace/atlantis_fw/AsicFwS2/src/opticalzoom.cpp **** 
 1881              		.loc 1 360 0
 1882 002a 2A4F     		ldr	r7, .L113+4
 1883              	.LBB617:
 1884              	.LBB615:
 352:/home/tienluong/workspace/atlantis_fw/AsicFwS2/src/opticalzoom.cpp **** 
 1885              		.loc 1 352 0
 1886 002c 296B     		ldr	r1, [r5, #48]	@ float
 1887 002e 9847     		blx	r3
 1888              	.LVL238:
 1889 0030 696B     		ldr	r1, [r5, #52]	@ float
 1890 0032 D847     		blx	fp
 1891              	.LVL239:
 1892              	.LBE615:
 1893              	.LBE617:
 362:/home/tienluong/workspace/atlantis_fw/AsicFwS2/src/opticalzoom.cpp ****                     angle_hall_mapping._map_coefs[4] * f_x +
 1894              		.loc 1 362 0
 1895 0034 DFF8AC80 		ldr	r8, .L113+20
 360:/home/tienluong/workspace/atlantis_fw/AsicFwS2/src/opticalzoom.cpp **** 
 1896              		.loc 1 360 0
 1897 0038 0146     		mov	r1, r0
 1898              	.LBB618:
 1899              	.LBB616:
 352:/home/tienluong/workspace/atlantis_fw/AsicFwS2/src/opticalzoom.cpp **** 
 1900              		.loc 1 352 0
 1901 003a 8246     		mov	r10, r0
 1902              	.LBE616:
 1903              	.LBE618:
 360:/home/tienluong/workspace/atlantis_fw/AsicFwS2/src/opticalzoom.cpp **** 
 1904              		.loc 1 360 0
 1905 003c B847     		blx	r7
 1906              	.LVL240:
 362:/home/tienluong/workspace/atlantis_fw/AsicFwS2/src/opticalzoom.cpp ****                     angle_hall_mapping._map_coefs[4] * f_x +
 1907              		.loc 1 362 0
 1908 003e E968     		ldr	r1, [r5, #12]	@ float
 360:/home/tienluong/workspace/atlantis_fw/AsicFwS2/src/opticalzoom.cpp **** 
 1909              		.loc 1 360 0
 1910 0040 0390     		str	r0, [sp, #12]
 1911              	.LVL241:
 362:/home/tienluong/workspace/atlantis_fw/AsicFwS2/src/opticalzoom.cpp ****                     angle_hall_mapping._map_coefs[4] * f_x +
 1912              		.loc 1 362 0
 1913 0042 B847     		blx	r7
 1914              	.LVL242:
 363:/home/tienluong/workspace/atlantis_fw/AsicFwS2/src/opticalzoom.cpp ****                     angle_hall_mapping._map_coefs[5] ) /
 1915              		.loc 1 363 0
 1916 0044 2969     		ldr	r1, [r5, #16]	@ float
 362:/home/tienluong/workspace/atlantis_fw/AsicFwS2/src/opticalzoom.cpp ****                     angle_hall_mapping._map_coefs[4] * f_x +
 1917              		.loc 1 362 0
 1918 0046 0190     		str	r0, [sp, #4]
 363:/home/tienluong/workspace/atlantis_fw/AsicFwS2/src/opticalzoom.cpp ****                     angle_hall_mapping._map_coefs[5] ) /
 1919              		.loc 1 363 0
 1920 0048 5046     		mov	r0, r10
 1921 004a B847     		blx	r7
 1922              	.LVL243:
 362:/home/tienluong/workspace/atlantis_fw/AsicFwS2/src/opticalzoom.cpp ****                     angle_hall_mapping._map_coefs[4] * f_x +
 1923              		.loc 1 362 0
 1924 004c 019B     		ldr	r3, [sp, #4]
 363:/home/tienluong/workspace/atlantis_fw/AsicFwS2/src/opticalzoom.cpp ****                     angle_hall_mapping._map_coefs[5] ) /
 1925              		.loc 1 363 0
 1926 004e 0146     		mov	r1, r0
 362:/home/tienluong/workspace/atlantis_fw/AsicFwS2/src/opticalzoom.cpp ****                     angle_hall_mapping._map_coefs[4] * f_x +
 1927              		.loc 1 362 0
 1928 0050 1846     		mov	r0, r3
 1929 0052 C047     		blx	r8
 1930              	.LVL244:
 363:/home/tienluong/workspace/atlantis_fw/AsicFwS2/src/opticalzoom.cpp ****                     angle_hall_mapping._map_coefs[5] ) /
 1931              		.loc 1 363 0
 1932 0054 6969     		ldr	r1, [r5, #20]	@ float
 1933 0056 C047     		blx	r8
 1934              	.LVL245:
 365:/home/tienluong/workspace/atlantis_fw/AsicFwS2/src/opticalzoom.cpp ****                   angle_hall_mapping._map_coefs[1] * f_x +
 1935              		.loc 1 365 0
 1936 0058 039A     		ldr	r2, [sp, #12]
 1937 005a 3159     		ldr	r1, [r6, r4]	@ float
 364:/home/tienluong/workspace/atlantis_fw/AsicFwS2/src/opticalzoom.cpp ****                 ( angle_hall_mapping._map_coefs[0] * f_x_sqr +
 1938              		.loc 1 364 0
 1939 005c 00F10043 		add	r3, r0, #-2147483648
 365:/home/tienluong/workspace/atlantis_fw/AsicFwS2/src/opticalzoom.cpp ****                   angle_hall_mapping._map_coefs[1] * f_x +
 1940              		.loc 1 365 0
 1941 0060 1046     		mov	r0, r2
 364:/home/tienluong/workspace/atlantis_fw/AsicFwS2/src/opticalzoom.cpp ****                 ( angle_hall_mapping._map_coefs[0] * f_x_sqr +
 1942              		.loc 1 364 0
 1943 0062 0293     		str	r3, [sp, #8]
 365:/home/tienluong/workspace/atlantis_fw/AsicFwS2/src/opticalzoom.cpp ****                   angle_hall_mapping._map_coefs[1] * f_x +
 1944              		.loc 1 365 0
 1945 0064 B847     		blx	r7
 1946              	.LVL246:
 366:/home/tienluong/workspace/atlantis_fw/AsicFwS2/src/opticalzoom.cpp ****                   angle_hall_mapping._map_coefs[2] );
 1947              		.loc 1 366 0
 1948 0066 6968     		ldr	r1, [r5, #4]	@ float
 365:/home/tienluong/workspace/atlantis_fw/AsicFwS2/src/opticalzoom.cpp ****                   angle_hall_mapping._map_coefs[1] * f_x +
 1949              		.loc 1 365 0
 1950 0068 0190     		str	r0, [sp, #4]
 366:/home/tienluong/workspace/atlantis_fw/AsicFwS2/src/opticalzoom.cpp ****                   angle_hall_mapping._map_coefs[2] );
 1951              		.loc 1 366 0
 1952 006a 5046     		mov	r0, r10
 1953 006c B847     		blx	r7
 1954              	.LVL247:
 365:/home/tienluong/workspace/atlantis_fw/AsicFwS2/src/opticalzoom.cpp ****                   angle_hall_mapping._map_coefs[1] * f_x +
 1955              		.loc 1 365 0
 1956 006e 019A     		ldr	r2, [sp, #4]
 366:/home/tienluong/workspace/atlantis_fw/AsicFwS2/src/opticalzoom.cpp ****                   angle_hall_mapping._map_coefs[2] );
 1957              		.loc 1 366 0
 1958 0070 0146     		mov	r1, r0
 365:/home/tienluong/workspace/atlantis_fw/AsicFwS2/src/opticalzoom.cpp ****                   angle_hall_mapping._map_coefs[1] * f_x +
 1959              		.loc 1 365 0
 1960 0072 1046     		mov	r0, r2
 1961 0074 C047     		blx	r8
 1962              	.LVL248:
 366:/home/tienluong/workspace/atlantis_fw/AsicFwS2/src/opticalzoom.cpp ****                   angle_hall_mapping._map_coefs[2] );
 1963              		.loc 1 366 0
 1964 0076 A968     		ldr	r1, [r5, #8]	@ float
 1965 0078 C047     		blx	r8
 1966              	.LVL249:
 367:/home/tienluong/workspace/atlantis_fw/AsicFwS2/src/opticalzoom.cpp **** 
 1967              		.loc 1 367 0
 1968 007a 029B     		ldr	r3, [sp, #8]
 366:/home/tienluong/workspace/atlantis_fw/AsicFwS2/src/opticalzoom.cpp ****                   angle_hall_mapping._map_coefs[2] );
 1969              		.loc 1 366 0
 1970 007c 0146     		mov	r1, r0
 367:/home/tienluong/workspace/atlantis_fw/AsicFwS2/src/opticalzoom.cpp **** 
 1971              		.loc 1 367 0
 1972 007e 1846     		mov	r0, r3
 1973 0080 D847     		blx	fp
 1974              	.LVL250:
 1975              	.LBB619:
 1976              	.LBB620:
 356:/home/tienluong/workspace/atlantis_fw/AsicFwS2/src/opticalzoom.cpp **** 
 1977              		.loc 1 356 0
 1978 0082 E96A     		ldr	r1, [r5, #44]	@ float
 1979 0084 B847     		blx	r7
 1980              	.LVL251:
 1981 0086 A96A     		ldr	r1, [r5, #40]	@ float
 1982 0088 C047     		blx	r8
 1983              	.LVL252:
 1984              	.LBE620:
 1985              	.LBE619:
 1986              	.LBE612:
 1987              	.LBE611:
 1988              	.LBB624:
 1989              	.LBB625:
 199:/opt/toolchains/gcc-arm-none-eabi-4_9-2015q1/arm-none-eabi/include/c++/4.9.3/bits/stl_algobase.h **** 	return __b;
 1990              		.loc 3 199 0
 1991 008a 6D6A     		ldr	r5, [r5, #36]	@ float
 1992              	.LVL253:
 1993 008c 124F     		ldr	r7, .L113+8
 1994              	.LBE625:
 1995              	.LBE624:
 1996              	.LBB628:
 1997              	.LBB623:
 1998              	.LBB622:
 1999              	.LBB621:
 356:/home/tienluong/workspace/atlantis_fw/AsicFwS2/src/opticalzoom.cpp **** 
 2000              		.loc 1 356 0
 2001 008e 8046     		mov	r8, r0
 2002              	.LBE621:
 2003              	.LBE622:
 2004              	.LBE623:
 2005              	.LBE628:
 386:/home/tienluong/workspace/atlantis_fw/AsicFwS2/src/opticalzoom.cpp ****     {
 387:/home/tienluong/workspace/atlantis_fw/AsicFwS2/src/opticalzoom.cpp **** #if 0
 388:/home/tienluong/workspace/atlantis_fw/AsicFwS2/src/opticalzoom.cpp ****         printf( "Mapping information for mirror module %d does not exist,"
 389:/home/tienluong/workspace/atlantis_fw/AsicFwS2/src/opticalzoom.cpp ****                 "return %d hall code instead!\n", mirror_module, kInvalidHall );
 390:/home/tienluong/workspace/atlantis_fw/AsicFwS2/src/opticalzoom.cpp **** #endif
 391:/home/tienluong/workspace/atlantis_fw/AsicFwS2/src/opticalzoom.cpp ****         return kInvalidHall;
 392:/home/tienluong/workspace/atlantis_fw/AsicFwS2/src/opticalzoom.cpp ****     }
 393:/home/tienluong/workspace/atlantis_fw/AsicFwS2/src/opticalzoom.cpp **** 
 394:/home/tienluong/workspace/atlantis_fw/AsicFwS2/src/opticalzoom.cpp ****     const AngleHallMapCoefsASIC & angle_hall_mapping = _angle_hall_map_array[mirror_module];
 395:/home/tienluong/workspace/atlantis_fw/AsicFwS2/src/opticalzoom.cpp ****     float hall_code = mapAngleToHall( angle_hall_mapping, mirror_angle );
 2006              		.loc 1 395 0
 2007 0090 0590     		str	r0, [sp, #20]	@ float
 2008              	.LVL254:
 2009              	.LBB629:
 2010              	.LBB626:
 199:/opt/toolchains/gcc-arm-none-eabi-4_9-2015q1/arm-none-eabi/include/c++/4.9.3/bits/stl_algobase.h **** 	return __b;
 2011              		.loc 3 199 0
 2012 0092 4146     		mov	r1, r8
 2013 0094 2846     		mov	r0, r5
 2014 0096 B847     		blx	r7
 2015              	.LVL255:
 2016 0098 18B1     		cbz	r0, .L112
 2017              	.LBE626:
 2018              	.LBE629:
 396:/home/tienluong/workspace/atlantis_fw/AsicFwS2/src/opticalzoom.cpp ****     // clamp the hall code
 397:/home/tienluong/workspace/atlantis_fw/AsicFwS2/src/opticalzoom.cpp ****     hall_code = std::max( std::min( hall_code, angle_hall_mapping._max_hall_code ),
 2019              		.loc 1 397 0
 2020 009a 3444     		add	r4, r4, r6
 2021              	.LVL256:
 2022 009c A846     		mov	r8, r5
 2023              	.LBB630:
 2024              	.LBB627:
 200:/opt/toolchains/gcc-arm-none-eabi-4_9-2015q1/arm-none-eabi/include/c++/4.9.3/bits/stl_algobase.h ****       return __a;
 2025              		.loc 3 200 0
 2026 009e 2434     		adds	r4, r4, #36
 2027              	.LVL257:
 2028 00a0 00E0     		b	.L104
 2029              	.LVL258:
 2030              	.L112:
 201:/opt/toolchains/gcc-arm-none-eabi-4_9-2015q1/arm-none-eabi/include/c++/4.9.3/bits/stl_algobase.h ****     }
 2031              		.loc 3 201 0
 2032 00a2 05AC     		add	r4, sp, #20
 2033              	.LVL259:
 2034              	.L104:
 2035              	.LBE627:
 2036              	.LBE630:
 2037              	.LBB631:
 2038              	.LBB632:
 2039              		.loc 3 222 0
 2040 00a4 3823     		movs	r3, #56
 2041 00a6 4046     		mov	r0, r8
 2042 00a8 03FB09F5 		mul	r5, r3, r9
 2043 00ac 7319     		adds	r3, r6, r5
 2044 00ae 196A     		ldr	r1, [r3, #32]	@ float
 2045 00b0 B847     		blx	r7
 2046              	.LVL260:
 2047 00b2 10B1     		cbz	r0, .L106
 2048              	.LBE632:
 2049              	.LBE631:
 398:/home/tienluong/workspace/atlantis_fw/AsicFwS2/src/opticalzoom.cpp ****                           angle_hall_mapping._min_hall_code );
 2050              		.loc 1 398 0
 2051 00b4 05F12004 		add	r4, r5, #32
 2052              	.LVL261:
 2053 00b8 3444     		add	r4, r4, r6
 2054              	.L106:
 2055              	.LVL262:
 399:/home/tienluong/workspace/atlantis_fw/AsicFwS2/src/opticalzoom.cpp ****     return std::int16_t( hall_code );
 2056              		.loc 1 399 0
 2057 00ba 2068     		ldr	r0, [r4]	@ float
 2058 00bc 074B     		ldr	r3, .L113+12
 2059 00be 9847     		blx	r3
 2060              	.LVL263:
 2061 00c0 80B2     		uxth	r0, r0
 2062 00c2 01E0     		b	.L103
 2063              	.LVL264:
 2064              	.L108:
 391:/home/tienluong/workspace/atlantis_fw/AsicFwS2/src/opticalzoom.cpp ****     }
 2065              		.loc 1 391 0
 2066 00c4 4FF6FF70 		movw	r0, #65535
 2067              	.LVL265:
 2068              	.L103:
 2069              	.LBE634:
 400:/home/tienluong/workspace/atlantis_fw/AsicFwS2/src/opticalzoom.cpp **** }
 2070              		.loc 1 400 0
 2071 00c8 00B2     		sxth	r0, r0
 2072 00ca 07B0     		add	sp, sp, #28
 2073              	.LCFI20:
 2074              		.cfi_def_cfa_offset 36
 2075              		@ sp needed
 2076 00cc BDE8F08F 		pop	{r4, r5, r6, r7, r8, r9, r10, fp, pc}
 2077              	.LVL266:
 2078              	.L114:
 2079              		.align	2
 2080              	.L113:
 2081 00d0 00000000 		.word	__aeabi_fsub
 2082 00d4 00000000 		.word	__aeabi_fmul
 2083 00d8 00000000 		.word	__aeabi_fcmplt
 2084 00dc 00000000 		.word	__aeabi_f2iz
 2085 00e0 00000000 		.word	__aeabi_fdiv
 2086 00e4 00000000 		.word	__aeabi_fadd
 2087              		.cfi_endproc
 2088              	.LFE2602:
 2090              		.section	.text._ZNK4ltaf15OpticalZoomASIC30getHallCodeGivenImgCenterInRefENS_12MirrorModuleERKNS_5
 2091              		.align	1
 2092              		.global	_ZNK4ltaf15OpticalZoomASIC30getHallCodeGivenImgCenterInRefENS_12MirrorModuleERKNS_5Pnt2fE
 2093              		.thumb
 2094              		.thumb_func
 2096              	_ZNK4ltaf15OpticalZoomASIC30getHallCodeGivenImgCenterInRefENS_12MirrorModuleERKNS_5Pnt2fE:
 2097              	.LFB2601:
 375:/home/tienluong/workspace/atlantis_fw/AsicFwS2/src/opticalzoom.cpp ****     return getHallCodeGivenMirrorAngle( mirror_module,
 2098              		.loc 1 375 0
 2099              		.cfi_startproc
 2100              		@ args = 0, pretend = 0, frame = 0
 2101              		@ frame_needed = 0, uses_anonymous_args = 0
 2102              	.LVL267:
 2103 0000 38B5     		push	{r3, r4, r5, lr}
 2104              	.LCFI21:
 2105              		.cfi_def_cfa_offset 16
 2106              		.cfi_offset 3, -16
 2107              		.cfi_offset 4, -12
 2108              		.cfi_offset 5, -8
 2109              		.cfi_offset 14, -4
 377:/home/tienluong/workspace/atlantis_fw/AsicFwS2/src/opticalzoom.cpp **** }
 2110              		.loc 1 377 0
 2111 0002 054B     		ldr	r3, .L116
 375:/home/tienluong/workspace/atlantis_fw/AsicFwS2/src/opticalzoom.cpp ****     return getHallCodeGivenMirrorAngle( mirror_module,
 2112              		.loc 1 375 0
 2113 0004 0546     		mov	r5, r0
 2114 0006 0C46     		mov	r4, r1
 377:/home/tienluong/workspace/atlantis_fw/AsicFwS2/src/opticalzoom.cpp **** }
 2115              		.loc 1 377 0
 2116 0008 9847     		blx	r3
 2117              	.LVL268:
 2118 000a 2146     		mov	r1, r4
 2119 000c 034B     		ldr	r3, .L116+4
 2120 000e 0246     		mov	r2, r0
 2121 0010 2846     		mov	r0, r5
 2122 0012 9847     		blx	r3
 2123              	.LVL269:
 378:/home/tienluong/workspace/atlantis_fw/AsicFwS2/src/opticalzoom.cpp **** 
 2124              		.loc 1 378 0
 2125 0014 38BD     		pop	{r3, r4, r5, pc}
 2126              	.LVL270:
 2127              	.L117:
 2128 0016 00BF     		.align	2
 2129              	.L116:
 2130 0018 00000000 		.word	_ZNK4ltaf15OpticalZoomASIC33getMirrorAngleGivenImgCenterInRefENS_12MirrorModuleERKNS_5Pnt2fE
 2131 001c 00000000 		.word	_ZNK4ltaf15OpticalZoomASIC27getHallCodeGivenMirrorAngleENS_12MirrorModuleEf
 2132              		.cfi_endproc
 2133              	.LFE2601:
 2135              		.section	.text._ZNK4ltaf15OpticalZoomASIC25getHallCodesByFocalLengthEfPs,"ax",%progbits
 2136              		.align	1
 2137              		.global	_ZNK4ltaf15OpticalZoomASIC25getHallCodesByFocalLengthEfPs
 2138              		.thumb
 2139              		.thumb_func
 2141              	_ZNK4ltaf15OpticalZoomASIC25getHallCodesByFocalLengthEfPs:
 2142              	.LFB2603:
 401:/home/tienluong/workspace/atlantis_fw/AsicFwS2/src/opticalzoom.cpp **** 
 402:/home/tienluong/workspace/atlantis_fw/AsicFwS2/src/opticalzoom.cpp **** 
 403:/home/tienluong/workspace/atlantis_fw/AsicFwS2/src/opticalzoom.cpp **** 
 404:/home/tienluong/workspace/atlantis_fw/AsicFwS2/src/opticalzoom.cpp **** void OpticalZoomASIC::getHallCodesByFocalLength( float focal_length,
 405:/home/tienluong/workspace/atlantis_fw/AsicFwS2/src/opticalzoom.cpp ****                                                  int16_t * hall_code_array ) const
 406:/home/tienluong/workspace/atlantis_fw/AsicFwS2/src/opticalzoom.cpp **** {
 2143              		.loc 1 406 0
 2144              		.cfi_startproc
 2145              		@ args = 0, pretend = 0, frame = 32
 2146              		@ frame_needed = 0, uses_anonymous_args = 0
 2147              	.LVL271:
 2148 0000 2DE9F041 		push	{r4, r5, r6, r7, r8, lr}
 2149              	.LCFI22:
 2150              		.cfi_def_cfa_offset 24
 2151              		.cfi_offset 4, -24
 2152              		.cfi_offset 5, -20
 2153              		.cfi_offset 6, -16
 2154              		.cfi_offset 7, -12
 2155              		.cfi_offset 8, -8
 2156              		.cfi_offset 14, -4
 2157 0004 8AB0     		sub	sp, sp, #40
 2158              	.LCFI23:
 2159              		.cfi_def_cfa_offset 64
 2160              	.LBB635:
 407:/home/tienluong/workspace/atlantis_fw/AsicFwS2/src/opticalzoom.cpp ****     float mirror_angle_array[kNumMirrorModules];
 408:/home/tienluong/workspace/atlantis_fw/AsicFwS2/src/opticalzoom.cpp ****     getMirrorAnglesByFocalLength( focal_length, mirror_angle_array );
 2161              		.loc 1 408 0
 2162 0006 02AD     		add	r5, sp, #8
 2163              	.LBE635:
 406:/home/tienluong/workspace/atlantis_fw/AsicFwS2/src/opticalzoom.cpp ****     float mirror_angle_array[kNumMirrorModules];
 2164              		.loc 1 406 0
 2165 0008 1746     		mov	r7, r2
 2166              	.LBB637:
 2167              		.loc 1 408 0
 2168 000a 2A46     		mov	r2, r5
 2169              	.LVL272:
 2170 000c 0C4B     		ldr	r3, .L121
 2171              	.LBE637:
 406:/home/tienluong/workspace/atlantis_fw/AsicFwS2/src/opticalzoom.cpp ****     float mirror_angle_array[kNumMirrorModules];
 2172              		.loc 1 406 0
 2173 000e 8046     		mov	r8, r0
 2174              	.LBB638:
 2175              		.loc 1 408 0
 2176 0010 9847     		blx	r3
 2177              	.LVL273:
 2178              	.LBB636:
 409:/home/tienluong/workspace/atlantis_fw/AsicFwS2/src/opticalzoom.cpp ****     for( int i = 0; i < kNumMirrorModules; ++i )
 2179              		.loc 1 409 0
 2180 0012 0024     		movs	r4, #0
 2181              	.LVL274:
 2182              	.L119:
 410:/home/tienluong/workspace/atlantis_fw/AsicFwS2/src/opticalzoom.cpp ****     {
 411:/home/tienluong/workspace/atlantis_fw/AsicFwS2/src/opticalzoom.cpp ****         hall_code_array[i] = getHallCodeGivenMirrorAngle( MirrorModule( i ), mirror_angle_array[i] 
 2183              		.loc 1 411 0 discriminator 3
 2184 0014 55F82420 		ldr	r2, [r5, r4, lsl #2]	@ float
 2185 0018 E1B2     		uxtb	r1, r4
 2186 001a 0A4B     		ldr	r3, .L121+4
 2187 001c 4046     		mov	r0, r8
 2188 001e 9847     		blx	r3
 2189              	.LVL275:
 412:/home/tienluong/workspace/atlantis_fw/AsicFwS2/src/opticalzoom.cpp ****         SLOGF(SLOG_DEBUG, "Computed mirror hallcode for module %d: %d", i, hall_code_array[i]);
 2190              		.loc 1 412 0 discriminator 3
 2191 0020 094E     		ldr	r6, .L121+8
 2192 0022 2346     		mov	r3, r4
 2193 0024 1021     		movs	r1, #16
 2194 0026 094A     		ldr	r2, .L121+12
 411:/home/tienluong/workspace/atlantis_fw/AsicFwS2/src/opticalzoom.cpp ****         SLOGF(SLOG_DEBUG, "Computed mirror hallcode for module %d: %d", i, hall_code_array[i]);
 2195              		.loc 1 411 0 discriminator 3
 2196 0028 27F81400 		strh	r0, [r7, r4, lsl #1]	@ movhi
 409:/home/tienluong/workspace/atlantis_fw/AsicFwS2/src/opticalzoom.cpp ****     {
 2197              		.loc 1 409 0 discriminator 3
 2198 002c 0134     		adds	r4, r4, #1
 2199              	.LVL276:
 2200              		.loc 1 412 0 discriminator 3
 2201 002e 0090     		str	r0, [sp]
 2202 0030 2B20     		movs	r0, #43
 2203 0032 B047     		blx	r6
 2204              	.LVL277:
 409:/home/tienluong/workspace/atlantis_fw/AsicFwS2/src/opticalzoom.cpp ****     {
 2205              		.loc 1 409 0 discriminator 3
 2206 0034 082C     		cmp	r4, #8
 2207 0036 EDD1     		bne	.L119
 2208              	.LBE636:
 2209              	.LBE638:
 413:/home/tienluong/workspace/atlantis_fw/AsicFwS2/src/opticalzoom.cpp ****     }
 414:/home/tienluong/workspace/atlantis_fw/AsicFwS2/src/opticalzoom.cpp **** }
 2210              		.loc 1 414 0
 2211 0038 0AB0     		add	sp, sp, #40
 2212              	.LCFI24:
 2213              		.cfi_def_cfa_offset 24
 2214              		@ sp needed
 2215 003a BDE8F081 		pop	{r4, r5, r6, r7, r8, pc}
 2216              	.LVL278:
 2217              	.L122:
 2218 003e 00BF     		.align	2
 2219              	.L121:
 2220 0040 00000000 		.word	_ZNK4ltaf15OpticalZoomASIC28getMirrorAnglesByFocalLengthEfPf
 2221 0044 00000000 		.word	_ZNK4ltaf15OpticalZoomASIC27getHallCodeGivenMirrorAngleENS_12MirrorModuleEf
 2222 0048 00000000 		.word	slogf
 2223 004c 54000000 		.word	.LC2
 2224              		.cfi_endproc
 2225              	.LFE2603:
 2227              		.section	.text._ZNK4ltaf15OpticalZoomASIC23getHallCodesByZoomLevelEfNS0_11CaptureModeEPs,"ax",%pro
 2228              		.align	1
 2229              		.global	_ZNK4ltaf15OpticalZoomASIC23getHallCodesByZoomLevelEfNS0_11CaptureModeEPs
 2230              		.thumb
 2231              		.thumb_func
 2233              	_ZNK4ltaf15OpticalZoomASIC23getHallCodesByZoomLevelEfNS0_11CaptureModeEPs:
 2234              	.LFB2604:
 415:/home/tienluong/workspace/atlantis_fw/AsicFwS2/src/opticalzoom.cpp **** 
 416:/home/tienluong/workspace/atlantis_fw/AsicFwS2/src/opticalzoom.cpp **** 
 417:/home/tienluong/workspace/atlantis_fw/AsicFwS2/src/opticalzoom.cpp **** 
 418:/home/tienluong/workspace/atlantis_fw/AsicFwS2/src/opticalzoom.cpp **** void OpticalZoomASIC::getHallCodesByZoomLevel( float zoom_level ,
 419:/home/tienluong/workspace/atlantis_fw/AsicFwS2/src/opticalzoom.cpp ****                                                CaptureMode capture_mode,
 420:/home/tienluong/workspace/atlantis_fw/AsicFwS2/src/opticalzoom.cpp ****                                                int16_t * hall_code_array ) const
 421:/home/tienluong/workspace/atlantis_fw/AsicFwS2/src/opticalzoom.cpp **** {
 2235              		.loc 1 421 0
 2236              		.cfi_startproc
 2237              		@ args = 0, pretend = 0, frame = 32
 2238              		@ frame_needed = 0, uses_anonymous_args = 0
 2239              	.LVL279:
 2240 0000 70B5     		push	{r4, r5, r6, lr}
 2241              	.LCFI25:
 2242              		.cfi_def_cfa_offset 16
 2243              		.cfi_offset 4, -16
 2244              		.cfi_offset 5, -12
 2245              		.cfi_offset 6, -8
 2246              		.cfi_offset 14, -4
 2247 0002 88B0     		sub	sp, sp, #32
 2248              	.LCFI26:
 2249              		.cfi_def_cfa_offset 48
 2250              	.LBB639:
 422:/home/tienluong/workspace/atlantis_fw/AsicFwS2/src/opticalzoom.cpp ****     float mirror_angle_array[kNumMirrorModules];
 423:/home/tienluong/workspace/atlantis_fw/AsicFwS2/src/opticalzoom.cpp ****     getMirrorAnglesByZoomLevel( zoom_level, capture_mode, mirror_angle_array );
 2251              		.loc 1 423 0
 2252 0004 094C     		ldr	r4, .L126
 2253              	.LBE639:
 421:/home/tienluong/workspace/atlantis_fw/AsicFwS2/src/opticalzoom.cpp ****     float mirror_angle_array[kNumMirrorModules];
 2254              		.loc 1 421 0
 2255 0006 1D46     		mov	r5, r3
 2256              	.LBB641:
 2257              		.loc 1 423 0
 2258 0008 6B46     		mov	r3, sp
 2259              	.LVL280:
 2260              	.LBE641:
 421:/home/tienluong/workspace/atlantis_fw/AsicFwS2/src/opticalzoom.cpp ****     float mirror_angle_array[kNumMirrorModules];
 2261              		.loc 1 421 0
 2262 000a 0646     		mov	r6, r0
 2263              	.LBB642:
 2264              		.loc 1 423 0
 2265 000c A047     		blx	r4
 2266              	.LVL281:
 2267              	.LBB640:
 424:/home/tienluong/workspace/atlantis_fw/AsicFwS2/src/opticalzoom.cpp ****     for( int i = 0; i < kNumMirrorModules; ++i )
 2268              		.loc 1 424 0
 2269 000e 0024     		movs	r4, #0
 2270              	.LVL282:
 2271              	.L124:
 425:/home/tienluong/workspace/atlantis_fw/AsicFwS2/src/opticalzoom.cpp ****     { hall_code_array[i] = getHallCodeGivenMirrorAngle( MirrorModule( i ), mirror_angle_array[i] );
 2272              		.loc 1 425 0 discriminator 3
 2273 0010 E1B2     		uxtb	r1, r4
 2274 0012 5DF82420 		ldr	r2, [sp, r4, lsl #2]	@ float
 2275 0016 3046     		mov	r0, r6
 2276 0018 054B     		ldr	r3, .L126+4
 2277 001a 9847     		blx	r3
 2278              	.LVL283:
 2279 001c 25F81400 		strh	r0, [r5, r4, lsl #1]	@ movhi
 424:/home/tienluong/workspace/atlantis_fw/AsicFwS2/src/opticalzoom.cpp ****     for( int i = 0; i < kNumMirrorModules; ++i )
 2280              		.loc 1 424 0 discriminator 3
 2281 0020 0134     		adds	r4, r4, #1
 2282              	.LVL284:
 2283 0022 082C     		cmp	r4, #8
 2284 0024 F4D1     		bne	.L124
 2285              	.LBE640:
 2286              	.LBE642:
 426:/home/tienluong/workspace/atlantis_fw/AsicFwS2/src/opticalzoom.cpp **** }
 2287              		.loc 1 426 0
 2288 0026 08B0     		add	sp, sp, #32
 2289              	.LCFI27:
 2290              		.cfi_def_cfa_offset 16
 2291              		@ sp needed
 2292 0028 70BD     		pop	{r4, r5, r6, pc}
 2293              	.LVL285:
 2294              	.L127:
 2295 002a 00BF     		.align	2
 2296              	.L126:
 2297 002c 00000000 		.word	_ZNK4ltaf15OpticalZoomASIC26getMirrorAnglesByZoomLevelEfNS0_11CaptureModeEPf
 2298 0030 00000000 		.word	_ZNK4ltaf15OpticalZoomASIC27getHallCodeGivenMirrorAngleENS_12MirrorModuleEf
 2299              		.cfi_endproc
 2300              	.LFE2604:
 2302              		.section	.rodata.str1.1,"aMS",%progbits,1
 2303              	.LC0:
 2304 0000 436F6D70 		.ascii	"Computed mirror angle for module %d: %f\000"
 2304      75746564 
 2304      206D6972 
 2304      726F7220 
 2304      616E676C 
 2305              	.LC1:
 2306 0028 436F6D70 		.ascii	"Computing mirror angles for focal_length %f\000"
 2306      7574696E 
 2306      67206D69 
 2306      72726F72 
 2306      20616E67 
 2307              	.LC2:
 2308 0054 436F6D70 		.ascii	"Computed mirror hallcode for module %d: %d\000"
 2308      75746564 
 2308      206D6972 
 2308      726F7220 
 2308      68616C6C 
 2309              		.text
 2310              	.Letext0:
 2311              		.file 5 "/opt/toolchains/gcc-arm-none-eabi-4_9-2015q1/arm-none-eabi/include/c++/4.9.3/cmath"
 2312              		.file 6 "/opt/toolchains/gcc-arm-none-eabi-4_9-2015q1/arm-none-eabi/include/c++/4.9.3/cstdio"
 2313              		.file 7 "/opt/toolchains/gcc-arm-none-eabi-4_9-2015q1/arm-none-eabi/include/c++/4.9.3/type_traits"
 2314              		.file 8 "/opt/toolchains/gcc-arm-none-eabi-4_9-2015q1/arm-none-eabi/include/c++/4.9.3/cstdlib"
 2315              		.file 9 "/opt/toolchains/gcc-arm-none-eabi-4_9-2015q1/arm-none-eabi/include/c++/4.9.3/bits/excepti
 2316              		.file 10 "/opt/toolchains/gcc-arm-none-eabi-4_9-2015q1/arm-none-eabi/include/c++/4.9.3/arm-none-ea
 2317              		.file 11 "/opt/toolchains/gcc-arm-none-eabi-4_9-2015q1/arm-none-eabi/include/c++/4.9.3/bits/stl_pa
 2318              		.file 12 "/opt/toolchains/gcc-arm-none-eabi-4_9-2015q1/arm-none-eabi/include/c++/4.9.3/new"
 2319              		.file 13 "/opt/toolchains/gcc-arm-none-eabi-4_9-2015q1/arm-none-eabi/include/c++/4.9.3/cwchar"
 2320              		.file 14 "/opt/toolchains/gcc-arm-none-eabi-4_9-2015q1/arm-none-eabi/include/c++/4.9.3/bits/char_t
 2321              		.file 15 "/opt/toolchains/gcc-arm-none-eabi-4_9-2015q1/arm-none-eabi/include/c++/4.9.3/cstdint"
 2322              		.file 16 "/opt/toolchains/gcc-arm-none-eabi-4_9-2015q1/arm-none-eabi/include/c++/4.9.3/bits/alloca
 2323              		.file 17 "/opt/toolchains/gcc-arm-none-eabi-4_9-2015q1/arm-none-eabi/include/c++/4.9.3/clocale"
 2324              		.file 18 "/opt/toolchains/gcc-arm-none-eabi-4_9-2015q1/arm-none-eabi/include/c++/4.9.3/bits/basic_
 2325              		.file 19 "/opt/toolchains/gcc-arm-none-eabi-4_9-2015q1/arm-none-eabi/include/c++/4.9.3/bits/basic_
 2326              		.file 20 "/opt/toolchains/gcc-arm-none-eabi-4_9-2015q1/arm-none-eabi/include/c++/4.9.3/debug/debug
 2327              		.file 21 "/opt/toolchains/gcc-arm-none-eabi-4_9-2015q1/arm-none-eabi/include/c++/4.9.3/bits/random
 2328              		.file 22 "/opt/toolchains/gcc-arm-none-eabi-4_9-2015q1/arm-none-eabi/include/c++/4.9.3/array"
 2329              		.file 23 "/opt/toolchains/gcc-arm-none-eabi-4_9-2015q1/arm-none-eabi/include/c++/4.9.3/bits/cpp_ty
 2330              		.file 24 "/opt/toolchains/gcc-arm-none-eabi-4_9-2015q1/arm-none-eabi/include/c++/4.9.3/bits/predef
 2331              		.file 25 "/opt/toolchains/gcc-arm-none-eabi-4_9-2015q1/arm-none-eabi/include/c++/4.9.3/ext/numeric
 2332              		.file 26 "/opt/toolchains/gcc-arm-none-eabi-4_9-2015q1/arm-none-eabi/include/c++/4.9.3/ext/new_all
 2333              		.file 27 "/opt/toolchains/gcc-arm-none-eabi-4_9-2015q1/lib/gcc/arm-none-eabi/4.9.3/include/stddef.
 2334              		.file 28 "/opt/toolchains/gcc-arm-none-eabi-4_9-2015q1/arm-none-eabi/include/machine/_default_type
 2335              		.file 29 "/opt/toolchains/gcc-arm-none-eabi-4_9-2015q1/arm-none-eabi/include/sys/lock.h"
 2336              		.file 30 "/opt/toolchains/gcc-arm-none-eabi-4_9-2015q1/arm-none-eabi/include/sys/_types.h"
 2337              		.file 31 "/opt/toolchains/gcc-arm-none-eabi-4_9-2015q1/arm-none-eabi/include/sys/reent.h"
 2338              		.file 32 "/opt/toolchains/gcc-arm-none-eabi-4_9-2015q1/arm-none-eabi/include/math.h"
 2339              		.file 33 "/opt/toolchains/gcc-arm-none-eabi-4_9-2015q1/lib/gcc/arm-none-eabi/4.9.3/include/stdarg.
 2340              		.file 34 "<built-in>"
 2341              		.file 35 "/opt/toolchains/gcc-arm-none-eabi-4_9-2015q1/arm-none-eabi/include/sys/types.h"
 2342              		.file 36 "/opt/toolchains/gcc-arm-none-eabi-4_9-2015q1/arm-none-eabi/include/stdio.h"
 2343              		.file 37 "/opt/toolchains/gcc-arm-none-eabi-4_9-2015q1/arm-none-eabi/include/stdlib.h"
 2344              		.file 38 "/opt/toolchains/gcc-arm-none-eabi-4_9-2015q1/arm-none-eabi/include/wchar.h"
 2345              		.file 39 "/opt/toolchains/gcc-arm-none-eabi-4_9-2015q1/arm-none-eabi/include/stdint.h"
 2346              		.file 40 "/opt/toolchains/gcc-arm-none-eabi-4_9-2015q1/arm-none-eabi/include/locale.h"
 2347              		.file 41 "/opt/toolchains/gcc-arm-none-eabi-4_9-2015q1/arm-none-eabi/include/c++/4.9.3/arm-none-ea
 2348              		.file 42 "/home/tienluong/workspace/atlantis_fw/platform/common/lightheader/include/protobuf-c/pro
 2349              		.file 43 "/home/tienluong/workspace/atlantis_fw/platform/common/lightheader/include/camera_id.pb-c
 2350              		.file 44 "/home/tienluong/workspace/atlantis_fw/platform/common/lightheader/include/point2i.pb-c.h
 2351              		.file 45 "/home/tienluong/workspace/atlantis_fw/platform/common/lightheader/include/point2f.pb-c.h
 2352              		.file 46 "/home/tienluong/workspace/atlantis_fw/platform/common/lightheader/include/camera_module.
 2353              		.file 47 "/home/tienluong/workspace/atlantis_fw/platform/common/lightheader/include/time_stamp.pb-
 2354              		.file 48 "/home/tienluong/workspace/atlantis_fw/platform/common/lightheader/include/matrix3x3f.pb-
 2355              		.file 49 "/home/tienluong/workspace/atlantis_fw/platform/common/lightheader/include/point3f.pb-c.h
 2356              		.file 50 "/home/tienluong/workspace/atlantis_fw/platform/common/lightheader/include/range2f.pb-c.h
 2357              		.file 51 "/home/tienluong/workspace/atlantis_fw/platform/common/lightheader/include/mirror_system.
 2358              		.file 52 "/home/tienluong/workspace/atlantis_fw/platform/common/lightheader/include/distortion.pb-
 2359              		.file 53 "/home/tienluong/workspace/atlantis_fw/platform/common/lightheader/include/device_temp.pb
 2360              		.file 54 "/home/tienluong/workspace/atlantis_fw/platform/common/lightheader/include/geometric_cali
 2361              		.file 55 "/home/tienluong/workspace/atlantis_fw/platform/common/lightheader/include/color_calibrat
 2362              		.file 56 "/home/tienluong/workspace/atlantis_fw/platform/common/lightheader/include/sensor_charact
 2363              		.file 57 "/home/tienluong/workspace/atlantis_fw/platform/common/lightheader/include/matrix4x4f.pb-
 2364              		.file 58 "/home/tienluong/workspace/atlantis_fw/platform/common/lightheader/include/vignetting_cha
 2365              		.file 59 "/home/tienluong/workspace/atlantis_fw/platform/common/lightheader/include/hot_pixel_map.
 2366              		.file 60 "/home/tienluong/workspace/atlantis_fw/platform/common/lightheader/include/dead_pixel_map
 2367              		.file 61 "/home/tienluong/workspace/atlantis_fw/platform/common/lightheader/include/tof_calibratio
 2368              		.file 62 "/home/tienluong/workspace/atlantis_fw/platform/common/lightheader/include/flash_calibrat
 2369              		.file 63 "/home/tienluong/workspace/atlantis_fw/platform/common/lightheader/include/sensor_type.pb
 2370              		.file 64 "/home/tienluong/workspace/atlantis_fw/platform/common/lightheader/include/hw_info.pb-c.h
 2371              		.file 65 "/home/tienluong/workspace/atlantis_fw/platform/common/lightheader/include/view_preferenc
 2372              		.file 66 "/home/tienluong/workspace/atlantis_fw/platform/common/lightheader/include/proximity_sens
 2373              		.file 67 "/home/tienluong/workspace/atlantis_fw/platform/common/lightheader/include/imu_data.pb-c.
 2374              		.file 68 "/home/tienluong/workspace/atlantis_fw/platform/common/lightheader/include/lightheader.pb
 2375              		.file 69 "/home/tienluong/workspace/atlantis_fw/AsicFwS2/include/light_system.h"
DEFINED SYMBOLS
                            *ABS*:00000000 opticalzoom.cpp
     /tmp/ccvQP3Nq.s:19     .text._ZN4ltaf15OpticalZoomASIC31loadModuleZoomCalibFromProtoBufENS_12MirrorModuleERK27_Ltpb__GeometricCalibration:00000000 $t
     /tmp/ccvQP3Nq.s:24     .text._ZN4ltaf15OpticalZoomASIC31loadModuleZoomCalibFromProtoBufENS_12MirrorModuleERK27_Ltpb__GeometricCalibration:00000000 _ZN4ltaf15OpticalZoomASIC31loadModuleZoomCalibFromProtoBufENS_12MirrorModuleERK27_Ltpb__GeometricCalibration
     /tmp/ccvQP3Nq.s:275    .text._ZN4ltaf15OpticalZoomASIC31loadModuleZoomCalibFromProtoBufENS_12MirrorModuleERK27_Ltpb__GeometricCalibration:000000e8 $d
     /tmp/ccvQP3Nq.s:283    .text._ZN4ltaf15OpticalZoomASIC17initDefaultParamsEv:00000000 $t
     /tmp/ccvQP3Nq.s:288    .text._ZN4ltaf15OpticalZoomASIC17initDefaultParamsEv:00000000 _ZN4ltaf15OpticalZoomASIC17initDefaultParamsEv
     /tmp/ccvQP3Nq.s:413    .text._ZN4ltaf15OpticalZoomASIC17initDefaultParamsEv:0000007c $d
     /tmp/ccvQP3Nq.s:427    .text._ZN4ltaf15OpticalZoomASIC25loadZoomCalibFromProtoBufERK18_Ltpb__LightHeader:00000000 $t
     /tmp/ccvQP3Nq.s:432    .text._ZN4ltaf15OpticalZoomASIC25loadZoomCalibFromProtoBufERK18_Ltpb__LightHeader:00000000 _ZN4ltaf15OpticalZoomASIC25loadZoomCalibFromProtoBufERK18_Ltpb__LightHeader
     /tmp/ccvQP3Nq.s:478    .text._ZN4ltaf15OpticalZoomASIC25loadZoomCalibFromProtoBufERK18_Ltpb__LightHeader:00000024 $d
     /tmp/ccvQP3Nq.s:549    .text._ZN4ltaf15OpticalZoomASIC25loadZoomCalibFromProtoBufERK18_Ltpb__LightHeader:00000068 $d
     /tmp/ccvQP3Nq.s:560    .text._ZNK4ltaf15OpticalZoomASIC27getCoverRegionCenterInRefABEfPNS_5Pnt2fE:00000000 $t
     /tmp/ccvQP3Nq.s:565    .text._ZNK4ltaf15OpticalZoomASIC27getCoverRegionCenterInRefABEfPNS_5Pnt2fE:00000000 _ZNK4ltaf15OpticalZoomASIC27getCoverRegionCenterInRefABEfPNS_5Pnt2fE
     /tmp/ccvQP3Nq.s:838    .text._ZNK4ltaf15OpticalZoomASIC27getCoverRegionCenterInRefABEfPNS_5Pnt2fE:000000e4 $d
     /tmp/ccvQP3Nq.s:847    .text._ZNK4ltaf15OpticalZoomASIC27getCoverRegionCenterInRefBCEfPNS_5Pnt2fE:00000000 $t
     /tmp/ccvQP3Nq.s:852    .text._ZNK4ltaf15OpticalZoomASIC27getCoverRegionCenterInRefBCEfPNS_5Pnt2fE:00000000 _ZNK4ltaf15OpticalZoomASIC27getCoverRegionCenterInRefBCEfPNS_5Pnt2fE
     /tmp/ccvQP3Nq.s:1124   .text._ZNK4ltaf15OpticalZoomASIC27getCoverRegionCenterInRefBCEfPNS_5Pnt2fE:000000e4 $d
     /tmp/ccvQP3Nq.s:1133   .text._ZNK4ltaf15OpticalZoomASIC17getImgCenterInRefEfNS0_11CaptureModeEPNS_5Pnt2fE:00000000 $t
     /tmp/ccvQP3Nq.s:1138   .text._ZNK4ltaf15OpticalZoomASIC17getImgCenterInRefEfNS0_11CaptureModeEPNS_5Pnt2fE:00000000 _ZNK4ltaf15OpticalZoomASIC17getImgCenterInRefEfNS0_11CaptureModeEPNS_5Pnt2fE
     /tmp/ccvQP3Nq.s:1347   .text._ZNK4ltaf15OpticalZoomASIC17getImgCenterInRefEfNS0_11CaptureModeEPNS_5Pnt2fE:00000114 $d
     /tmp/ccvQP3Nq.s:1357   .text._ZNK4ltaf15OpticalZoomASIC33getMirrorAngleGivenImgCenterInRefENS_12MirrorModuleERKNS_5Pnt2fE:00000000 $t
     /tmp/ccvQP3Nq.s:1362   .text._ZNK4ltaf15OpticalZoomASIC33getMirrorAngleGivenImgCenterInRefENS_12MirrorModuleERKNS_5Pnt2fE:00000000 _ZNK4ltaf15OpticalZoomASIC33getMirrorAngleGivenImgCenterInRefENS_12MirrorModuleERKNS_5Pnt2fE
     /tmp/ccvQP3Nq.s:1562   .text._ZNK4ltaf15OpticalZoomASIC33getMirrorAngleGivenImgCenterInRefENS_12MirrorModuleERKNS_5Pnt2fE:000000bc $d
     /tmp/ccvQP3Nq.s:1578   .text._ZNK4ltaf15OpticalZoomASIC26getMirrorAnglesByZoomLevelEfNS0_11CaptureModeEPf:00000000 $t
     /tmp/ccvQP3Nq.s:1583   .text._ZNK4ltaf15OpticalZoomASIC26getMirrorAnglesByZoomLevelEfNS0_11CaptureModeEPf:00000000 _ZNK4ltaf15OpticalZoomASIC26getMirrorAnglesByZoomLevelEfNS0_11CaptureModeEPf
     /tmp/ccvQP3Nq.s:1687   .text._ZNK4ltaf15OpticalZoomASIC26getMirrorAnglesByZoomLevelEfNS0_11CaptureModeEPf:00000058 $d
     /tmp/ccvQP3Nq.s:1696   .text._ZNK4ltaf15OpticalZoomASIC28getMirrorAnglesByFocalLengthEfPf:00000000 $t
     /tmp/ccvQP3Nq.s:1701   .text._ZNK4ltaf15OpticalZoomASIC28getMirrorAnglesByFocalLengthEfPf:00000000 _ZNK4ltaf15OpticalZoomASIC28getMirrorAnglesByFocalLengthEfPf
     /tmp/ccvQP3Nq.s:1786   .text._ZNK4ltaf15OpticalZoomASIC28getMirrorAnglesByFocalLengthEfPf:00000058 $d
     /tmp/ccvQP3Nq.s:1797   .text._ZNK4ltaf15OpticalZoomASIC27getHallCodeGivenMirrorAngleENS_12MirrorModuleEf:00000000 $t
     /tmp/ccvQP3Nq.s:1802   .text._ZNK4ltaf15OpticalZoomASIC27getHallCodeGivenMirrorAngleENS_12MirrorModuleEf:00000000 _ZNK4ltaf15OpticalZoomASIC27getHallCodeGivenMirrorAngleENS_12MirrorModuleEf
     /tmp/ccvQP3Nq.s:2081   .text._ZNK4ltaf15OpticalZoomASIC27getHallCodeGivenMirrorAngleENS_12MirrorModuleEf:000000d0 $d
     /tmp/ccvQP3Nq.s:2091   .text._ZNK4ltaf15OpticalZoomASIC30getHallCodeGivenImgCenterInRefENS_12MirrorModuleERKNS_5Pnt2fE:00000000 $t
     /tmp/ccvQP3Nq.s:2096   .text._ZNK4ltaf15OpticalZoomASIC30getHallCodeGivenImgCenterInRefENS_12MirrorModuleERKNS_5Pnt2fE:00000000 _ZNK4ltaf15OpticalZoomASIC30getHallCodeGivenImgCenterInRefENS_12MirrorModuleERKNS_5Pnt2fE
     /tmp/ccvQP3Nq.s:2130   .text._ZNK4ltaf15OpticalZoomASIC30getHallCodeGivenImgCenterInRefENS_12MirrorModuleERKNS_5Pnt2fE:00000018 $d
     /tmp/ccvQP3Nq.s:2136   .text._ZNK4ltaf15OpticalZoomASIC25getHallCodesByFocalLengthEfPs:00000000 $t
     /tmp/ccvQP3Nq.s:2141   .text._ZNK4ltaf15OpticalZoomASIC25getHallCodesByFocalLengthEfPs:00000000 _ZNK4ltaf15OpticalZoomASIC25getHallCodesByFocalLengthEfPs
     /tmp/ccvQP3Nq.s:2220   .text._ZNK4ltaf15OpticalZoomASIC25getHallCodesByFocalLengthEfPs:00000040 $d
     /tmp/ccvQP3Nq.s:2228   .text._ZNK4ltaf15OpticalZoomASIC23getHallCodesByZoomLevelEfNS0_11CaptureModeEPs:00000000 $t
     /tmp/ccvQP3Nq.s:2233   .text._ZNK4ltaf15OpticalZoomASIC23getHallCodesByZoomLevelEfNS0_11CaptureModeEPs:00000000 _ZNK4ltaf15OpticalZoomASIC23getHallCodesByZoomLevelEfNS0_11CaptureModeEPs
     /tmp/ccvQP3Nq.s:2297   .text._ZNK4ltaf15OpticalZoomASIC23getHallCodesByZoomLevelEfNS0_11CaptureModeEPs:0000002c $d
                     .debug_frame:00000010 $d
     /tmp/ccvQP3Nq.s:487    .text._ZN4ltaf15OpticalZoomASIC25loadZoomCalibFromProtoBufERK18_Ltpb__LightHeader:0000002d $d
     /tmp/ccvQP3Nq.s:487    .text._ZN4ltaf15OpticalZoomASIC25loadZoomCalibFromProtoBufERK18_Ltpb__LightHeader:0000002e $t

UNDEFINED SYMBOLS
__aeabi_fcmplt
__aeabi_fmul
__aeabi_fdiv
__aeabi_fadd
__aeabi_fsub
__aeabi_f2d
__aeabi_dsub
__aeabi_dmul
__aeabi_d2f
atan
slogf
__aeabi_f2iz
