   1              		.syntax unified
   2              		.cpu cortex-r4
   3              		.fpu softvfp
   4              		.eabi_attribute 20, 1
   5              		.eabi_attribute 21, 1
   6              		.eabi_attribute 23, 3
   7              		.eabi_attribute 24, 1
   8              		.eabi_attribute 25, 1
   9              		.eabi_attribute 26, 1
  10              		.eabi_attribute 30, 4
  11              		.eabi_attribute 34, 1
  12              		.eabi_attribute 18, 4
  13              		.thumb
  14              		.file	"protobuf-c.c"
  15              		.text
  16              	.Ltext0:
  17              		.cfi_sections	.debug_frame
  18              		.section	.text.do_alloc,"ax",%progbits
  19              		.align	1
  20              		.thumb
  21              		.thumb_func
  23              	do_alloc:
  24              	.LFB5:
  25              		.file 1 "/home/tienluong/workspace/atlantis_fw/platform/common/lightheader/src/protobuf-c.c"
   1:/home/tienluong/workspace/atlantis_fw/platform/common/lightheader/src/protobuf-c.c **** /*
   2:/home/tienluong/workspace/atlantis_fw/platform/common/lightheader/src/protobuf-c.c ****  * Copyright (c) 2008-2015, Dave Benson and the protobuf-c authors.
   3:/home/tienluong/workspace/atlantis_fw/platform/common/lightheader/src/protobuf-c.c ****  * All rights reserved.
   4:/home/tienluong/workspace/atlantis_fw/platform/common/lightheader/src/protobuf-c.c ****  *
   5:/home/tienluong/workspace/atlantis_fw/platform/common/lightheader/src/protobuf-c.c ****  * Redistribution and use in source and binary forms, with or without
   6:/home/tienluong/workspace/atlantis_fw/platform/common/lightheader/src/protobuf-c.c ****  * modification, are permitted provided that the following conditions are
   7:/home/tienluong/workspace/atlantis_fw/platform/common/lightheader/src/protobuf-c.c ****  * met:
   8:/home/tienluong/workspace/atlantis_fw/platform/common/lightheader/src/protobuf-c.c ****  *
   9:/home/tienluong/workspace/atlantis_fw/platform/common/lightheader/src/protobuf-c.c ****  *     * Redistributions of source code must retain the above copyright
  10:/home/tienluong/workspace/atlantis_fw/platform/common/lightheader/src/protobuf-c.c ****  * notice, this list of conditions and the following disclaimer.
  11:/home/tienluong/workspace/atlantis_fw/platform/common/lightheader/src/protobuf-c.c ****  *
  12:/home/tienluong/workspace/atlantis_fw/platform/common/lightheader/src/protobuf-c.c ****  *     * Redistributions in binary form must reproduce the above
  13:/home/tienluong/workspace/atlantis_fw/platform/common/lightheader/src/protobuf-c.c ****  * copyright notice, this list of conditions and the following disclaimer
  14:/home/tienluong/workspace/atlantis_fw/platform/common/lightheader/src/protobuf-c.c ****  * in the documentation and/or other materials provided with the
  15:/home/tienluong/workspace/atlantis_fw/platform/common/lightheader/src/protobuf-c.c ****  * distribution.
  16:/home/tienluong/workspace/atlantis_fw/platform/common/lightheader/src/protobuf-c.c ****  *
  17:/home/tienluong/workspace/atlantis_fw/platform/common/lightheader/src/protobuf-c.c ****  * THIS SOFTWARE IS PROVIDED BY THE COPYRIGHT HOLDERS AND CONTRIBUTORS
  18:/home/tienluong/workspace/atlantis_fw/platform/common/lightheader/src/protobuf-c.c ****  * "AS IS" AND ANY EXPRESS OR IMPLIED WARRANTIES, INCLUDING, BUT NOT
  19:/home/tienluong/workspace/atlantis_fw/platform/common/lightheader/src/protobuf-c.c ****  * LIMITED TO, THE IMPLIED WARRANTIES OF MERCHANTABILITY AND FITNESS FOR
  20:/home/tienluong/workspace/atlantis_fw/platform/common/lightheader/src/protobuf-c.c ****  * A PARTICULAR PURPOSE ARE DISCLAIMED. IN NO EVENT SHALL THE COPYRIGHT
  21:/home/tienluong/workspace/atlantis_fw/platform/common/lightheader/src/protobuf-c.c ****  * OWNER OR CONTRIBUTORS BE LIABLE FOR ANY DIRECT, INDIRECT, INCIDENTAL,
  22:/home/tienluong/workspace/atlantis_fw/platform/common/lightheader/src/protobuf-c.c ****  * SPECIAL, EXEMPLARY, OR CONSEQUENTIAL DAMAGES (INCLUDING, BUT NOT
  23:/home/tienluong/workspace/atlantis_fw/platform/common/lightheader/src/protobuf-c.c ****  * LIMITED TO, PROCUREMENT OF SUBSTITUTE GOODS OR SERVICES; LOSS OF USE,
  24:/home/tienluong/workspace/atlantis_fw/platform/common/lightheader/src/protobuf-c.c ****  * DATA, OR PROFITS; OR BUSINESS INTERRUPTION) HOWEVER CAUSED AND ON ANY
  25:/home/tienluong/workspace/atlantis_fw/platform/common/lightheader/src/protobuf-c.c ****  * THEORY OF LIABILITY, WHETHER IN CONTRACT, STRICT LIABILITY, OR TORT
  26:/home/tienluong/workspace/atlantis_fw/platform/common/lightheader/src/protobuf-c.c ****  * (INCLUDING NEGLIGENCE OR OTHERWISE) ARISING IN ANY WAY OUT OF THE USE
  27:/home/tienluong/workspace/atlantis_fw/platform/common/lightheader/src/protobuf-c.c ****  * OF THIS SOFTWARE, EVEN IF ADVISED OF THE POSSIBILITY OF SUCH DAMAGE.
  28:/home/tienluong/workspace/atlantis_fw/platform/common/lightheader/src/protobuf-c.c ****  */
  29:/home/tienluong/workspace/atlantis_fw/platform/common/lightheader/src/protobuf-c.c **** 
  30:/home/tienluong/workspace/atlantis_fw/platform/common/lightheader/src/protobuf-c.c **** /*! \file
  31:/home/tienluong/workspace/atlantis_fw/platform/common/lightheader/src/protobuf-c.c ****  * Support library for `protoc-c` generated code.
  32:/home/tienluong/workspace/atlantis_fw/platform/common/lightheader/src/protobuf-c.c ****  *
  33:/home/tienluong/workspace/atlantis_fw/platform/common/lightheader/src/protobuf-c.c ****  * This file implements the public API used by the code generated
  34:/home/tienluong/workspace/atlantis_fw/platform/common/lightheader/src/protobuf-c.c ****  * by `protoc-c`.
  35:/home/tienluong/workspace/atlantis_fw/platform/common/lightheader/src/protobuf-c.c ****  *
  36:/home/tienluong/workspace/atlantis_fw/platform/common/lightheader/src/protobuf-c.c ****  * \authors Dave Benson and the protobuf-c authors
  37:/home/tienluong/workspace/atlantis_fw/platform/common/lightheader/src/protobuf-c.c ****  *
  38:/home/tienluong/workspace/atlantis_fw/platform/common/lightheader/src/protobuf-c.c ****  * \copyright 2008-2014. Licensed under the terms of the [BSD-2-Clause] license.
  39:/home/tienluong/workspace/atlantis_fw/platform/common/lightheader/src/protobuf-c.c ****  */
  40:/home/tienluong/workspace/atlantis_fw/platform/common/lightheader/src/protobuf-c.c **** 
  41:/home/tienluong/workspace/atlantis_fw/platform/common/lightheader/src/protobuf-c.c **** /**
  42:/home/tienluong/workspace/atlantis_fw/platform/common/lightheader/src/protobuf-c.c ****  * \todo 64-BIT OPTIMIZATION: certain implementations use 32-bit math
  43:/home/tienluong/workspace/atlantis_fw/platform/common/lightheader/src/protobuf-c.c ****  * even on 64-bit platforms (uint64_size, uint64_pack, parse_uint64).
  44:/home/tienluong/workspace/atlantis_fw/platform/common/lightheader/src/protobuf-c.c ****  *
  45:/home/tienluong/workspace/atlantis_fw/platform/common/lightheader/src/protobuf-c.c ****  * \todo Use size_t consistently.
  46:/home/tienluong/workspace/atlantis_fw/platform/common/lightheader/src/protobuf-c.c ****  */
  47:/home/tienluong/workspace/atlantis_fw/platform/common/lightheader/src/protobuf-c.c **** 
  48:/home/tienluong/workspace/atlantis_fw/platform/common/lightheader/src/protobuf-c.c **** #include <stdlib.h>	/* for malloc, free */
  49:/home/tienluong/workspace/atlantis_fw/platform/common/lightheader/src/protobuf-c.c **** #include <string.h>	/* for strcmp, strlen, memcpy, memmove, memset */
  50:/home/tienluong/workspace/atlantis_fw/platform/common/lightheader/src/protobuf-c.c **** #include "os.h"
  51:/home/tienluong/workspace/atlantis_fw/platform/common/lightheader/src/protobuf-c.c **** #include "assert.h"
  52:/home/tienluong/workspace/atlantis_fw/platform/common/lightheader/src/protobuf-c.c **** #include "protobuf-c/protobuf-c.h"
  53:/home/tienluong/workspace/atlantis_fw/platform/common/lightheader/src/protobuf-c.c **** #include "sections.h"
  54:/home/tienluong/workspace/atlantis_fw/platform/common/lightheader/src/protobuf-c.c **** #define TRUE				1
  55:/home/tienluong/workspace/atlantis_fw/platform/common/lightheader/src/protobuf-c.c **** #define FALSE				0
  56:/home/tienluong/workspace/atlantis_fw/platform/common/lightheader/src/protobuf-c.c **** 
  57:/home/tienluong/workspace/atlantis_fw/platform/common/lightheader/src/protobuf-c.c **** #define PROTOBUF_C__ASSERT_NOT_REACHED() assert(0)
  58:/home/tienluong/workspace/atlantis_fw/platform/common/lightheader/src/protobuf-c.c **** 
  59:/home/tienluong/workspace/atlantis_fw/platform/common/lightheader/src/protobuf-c.c **** /* Workaround for Microsoft compilers. */
  60:/home/tienluong/workspace/atlantis_fw/platform/common/lightheader/src/protobuf-c.c **** #ifdef _MSC_VER
  61:/home/tienluong/workspace/atlantis_fw/platform/common/lightheader/src/protobuf-c.c **** # define inline __inline
  62:/home/tienluong/workspace/atlantis_fw/platform/common/lightheader/src/protobuf-c.c **** #endif
  63:/home/tienluong/workspace/atlantis_fw/platform/common/lightheader/src/protobuf-c.c **** 
  64:/home/tienluong/workspace/atlantis_fw/platform/common/lightheader/src/protobuf-c.c **** /**
  65:/home/tienluong/workspace/atlantis_fw/platform/common/lightheader/src/protobuf-c.c ****  * \defgroup internal Internal functions and macros
  66:/home/tienluong/workspace/atlantis_fw/platform/common/lightheader/src/protobuf-c.c ****  *
  67:/home/tienluong/workspace/atlantis_fw/platform/common/lightheader/src/protobuf-c.c ****  * These are not exported by the library but are useful to developers working
  68:/home/tienluong/workspace/atlantis_fw/platform/common/lightheader/src/protobuf-c.c ****  * on `libprotobuf-c` itself.
  69:/home/tienluong/workspace/atlantis_fw/platform/common/lightheader/src/protobuf-c.c ****  */
  70:/home/tienluong/workspace/atlantis_fw/platform/common/lightheader/src/protobuf-c.c **** 
  71:/home/tienluong/workspace/atlantis_fw/platform/common/lightheader/src/protobuf-c.c **** /**
  72:/home/tienluong/workspace/atlantis_fw/platform/common/lightheader/src/protobuf-c.c ****  * \defgroup macros Utility macros for manipulating structures
  73:/home/tienluong/workspace/atlantis_fw/platform/common/lightheader/src/protobuf-c.c ****  *
  74:/home/tienluong/workspace/atlantis_fw/platform/common/lightheader/src/protobuf-c.c ****  * Macros and constants used to manipulate the base "classes" generated by
  75:/home/tienluong/workspace/atlantis_fw/platform/common/lightheader/src/protobuf-c.c ****  * `protobuf-c`. They also define limits and check correctness.
  76:/home/tienluong/workspace/atlantis_fw/platform/common/lightheader/src/protobuf-c.c ****  *
  77:/home/tienluong/workspace/atlantis_fw/platform/common/lightheader/src/protobuf-c.c ****  * \ingroup internal
  78:/home/tienluong/workspace/atlantis_fw/platform/common/lightheader/src/protobuf-c.c ****  * @{
  79:/home/tienluong/workspace/atlantis_fw/platform/common/lightheader/src/protobuf-c.c ****  */
  80:/home/tienluong/workspace/atlantis_fw/platform/common/lightheader/src/protobuf-c.c **** 
  81:/home/tienluong/workspace/atlantis_fw/platform/common/lightheader/src/protobuf-c.c **** /** The maximum length of a 64-bit integer in varint encoding. */
  82:/home/tienluong/workspace/atlantis_fw/platform/common/lightheader/src/protobuf-c.c **** #define MAX_UINT64_ENCODED_SIZE		10
  83:/home/tienluong/workspace/atlantis_fw/platform/common/lightheader/src/protobuf-c.c **** 
  84:/home/tienluong/workspace/atlantis_fw/platform/common/lightheader/src/protobuf-c.c **** #ifndef PROTOBUF_C_UNPACK_ERROR
  85:/home/tienluong/workspace/atlantis_fw/platform/common/lightheader/src/protobuf-c.c **** # define PROTOBUF_C_UNPACK_ERROR(...)
  86:/home/tienluong/workspace/atlantis_fw/platform/common/lightheader/src/protobuf-c.c **** #endif
  87:/home/tienluong/workspace/atlantis_fw/platform/common/lightheader/src/protobuf-c.c **** 
  88:/home/tienluong/workspace/atlantis_fw/platform/common/lightheader/src/protobuf-c.c **** /**
  89:/home/tienluong/workspace/atlantis_fw/platform/common/lightheader/src/protobuf-c.c ****  * Internal `ProtobufCMessage` manipulation macro.
  90:/home/tienluong/workspace/atlantis_fw/platform/common/lightheader/src/protobuf-c.c ****  *
  91:/home/tienluong/workspace/atlantis_fw/platform/common/lightheader/src/protobuf-c.c ****  * Base macro for manipulating a `ProtobufCMessage`. Used by STRUCT_MEMBER() and
  92:/home/tienluong/workspace/atlantis_fw/platform/common/lightheader/src/protobuf-c.c ****  * STRUCT_MEMBER_PTR().
  93:/home/tienluong/workspace/atlantis_fw/platform/common/lightheader/src/protobuf-c.c ****  */
  94:/home/tienluong/workspace/atlantis_fw/platform/common/lightheader/src/protobuf-c.c **** #define STRUCT_MEMBER_P(struct_p, struct_offset) \
  95:/home/tienluong/workspace/atlantis_fw/platform/common/lightheader/src/protobuf-c.c ****     ((void *) ((uint8_t *) (struct_p) + (struct_offset)))
  96:/home/tienluong/workspace/atlantis_fw/platform/common/lightheader/src/protobuf-c.c **** 
  97:/home/tienluong/workspace/atlantis_fw/platform/common/lightheader/src/protobuf-c.c **** /**
  98:/home/tienluong/workspace/atlantis_fw/platform/common/lightheader/src/protobuf-c.c ****  * Return field in a `ProtobufCMessage` based on offset.
  99:/home/tienluong/workspace/atlantis_fw/platform/common/lightheader/src/protobuf-c.c ****  *
 100:/home/tienluong/workspace/atlantis_fw/platform/common/lightheader/src/protobuf-c.c ****  * Take a pointer to a `ProtobufCMessage` and find the field at the offset.
 101:/home/tienluong/workspace/atlantis_fw/platform/common/lightheader/src/protobuf-c.c ****  * Cast it to the passed type.
 102:/home/tienluong/workspace/atlantis_fw/platform/common/lightheader/src/protobuf-c.c ****  */
 103:/home/tienluong/workspace/atlantis_fw/platform/common/lightheader/src/protobuf-c.c **** #define STRUCT_MEMBER(member_type, struct_p, struct_offset) \
 104:/home/tienluong/workspace/atlantis_fw/platform/common/lightheader/src/protobuf-c.c ****     (*(member_type *) STRUCT_MEMBER_P((struct_p), (struct_offset)))
 105:/home/tienluong/workspace/atlantis_fw/platform/common/lightheader/src/protobuf-c.c **** 
 106:/home/tienluong/workspace/atlantis_fw/platform/common/lightheader/src/protobuf-c.c **** /**
 107:/home/tienluong/workspace/atlantis_fw/platform/common/lightheader/src/protobuf-c.c ****  * Return field in a `ProtobufCMessage` based on offset.
 108:/home/tienluong/workspace/atlantis_fw/platform/common/lightheader/src/protobuf-c.c ****  *
 109:/home/tienluong/workspace/atlantis_fw/platform/common/lightheader/src/protobuf-c.c ****  * Take a pointer to a `ProtobufCMessage` and find the field at the offset. Cast
 110:/home/tienluong/workspace/atlantis_fw/platform/common/lightheader/src/protobuf-c.c ****  * it to a pointer to the passed type.
 111:/home/tienluong/workspace/atlantis_fw/platform/common/lightheader/src/protobuf-c.c ****  */
 112:/home/tienluong/workspace/atlantis_fw/platform/common/lightheader/src/protobuf-c.c **** #define STRUCT_MEMBER_PTR(member_type, struct_p, struct_offset) \
 113:/home/tienluong/workspace/atlantis_fw/platform/common/lightheader/src/protobuf-c.c ****     ((member_type *) STRUCT_MEMBER_P((struct_p), (struct_offset)))
 114:/home/tienluong/workspace/atlantis_fw/platform/common/lightheader/src/protobuf-c.c **** 
 115:/home/tienluong/workspace/atlantis_fw/platform/common/lightheader/src/protobuf-c.c **** /* Assertions for magic numbers. */
 116:/home/tienluong/workspace/atlantis_fw/platform/common/lightheader/src/protobuf-c.c **** 
 117:/home/tienluong/workspace/atlantis_fw/platform/common/lightheader/src/protobuf-c.c **** #define ASSERT_IS_ENUM_DESCRIPTOR(desc) \
 118:/home/tienluong/workspace/atlantis_fw/platform/common/lightheader/src/protobuf-c.c **** 	assert((desc)->magic == PROTOBUF_C__ENUM_DESCRIPTOR_MAGIC)
 119:/home/tienluong/workspace/atlantis_fw/platform/common/lightheader/src/protobuf-c.c **** 
 120:/home/tienluong/workspace/atlantis_fw/platform/common/lightheader/src/protobuf-c.c **** #define ASSERT_IS_MESSAGE_DESCRIPTOR(desc) \
 121:/home/tienluong/workspace/atlantis_fw/platform/common/lightheader/src/protobuf-c.c **** 	assert((desc)->magic == PROTOBUF_C__MESSAGE_DESCRIPTOR_MAGIC)
 122:/home/tienluong/workspace/atlantis_fw/platform/common/lightheader/src/protobuf-c.c **** 
 123:/home/tienluong/workspace/atlantis_fw/platform/common/lightheader/src/protobuf-c.c **** #define ASSERT_IS_MESSAGE(message) \
 124:/home/tienluong/workspace/atlantis_fw/platform/common/lightheader/src/protobuf-c.c **** 	ASSERT_IS_MESSAGE_DESCRIPTOR((message)->descriptor)
 125:/home/tienluong/workspace/atlantis_fw/platform/common/lightheader/src/protobuf-c.c **** 
 126:/home/tienluong/workspace/atlantis_fw/platform/common/lightheader/src/protobuf-c.c **** #define ASSERT_IS_SERVICE_DESCRIPTOR(desc) \
 127:/home/tienluong/workspace/atlantis_fw/platform/common/lightheader/src/protobuf-c.c **** 	assert((desc)->magic == PROTOBUF_C__SERVICE_DESCRIPTOR_MAGIC)
 128:/home/tienluong/workspace/atlantis_fw/platform/common/lightheader/src/protobuf-c.c **** 
 129:/home/tienluong/workspace/atlantis_fw/platform/common/lightheader/src/protobuf-c.c **** /**@}*/
 130:/home/tienluong/workspace/atlantis_fw/platform/common/lightheader/src/protobuf-c.c **** 
 131:/home/tienluong/workspace/atlantis_fw/platform/common/lightheader/src/protobuf-c.c **** /* --- version --- */
 132:/home/tienluong/workspace/atlantis_fw/platform/common/lightheader/src/protobuf-c.c **** 
 133:/home/tienluong/workspace/atlantis_fw/platform/common/lightheader/src/protobuf-c.c **** LIGHT_HEADER_CONST const char *
 134:/home/tienluong/workspace/atlantis_fw/platform/common/lightheader/src/protobuf-c.c **** protobuf_c_version(void)
 135:/home/tienluong/workspace/atlantis_fw/platform/common/lightheader/src/protobuf-c.c **** {
 136:/home/tienluong/workspace/atlantis_fw/platform/common/lightheader/src/protobuf-c.c **** 	return PROTOBUF_C_VERSION;
 137:/home/tienluong/workspace/atlantis_fw/platform/common/lightheader/src/protobuf-c.c **** }
 138:/home/tienluong/workspace/atlantis_fw/platform/common/lightheader/src/protobuf-c.c **** 
 139:/home/tienluong/workspace/atlantis_fw/platform/common/lightheader/src/protobuf-c.c **** LIGHT_HEADER_FUNC uint32_t
 140:/home/tienluong/workspace/atlantis_fw/platform/common/lightheader/src/protobuf-c.c **** protobuf_c_version_number(void)
 141:/home/tienluong/workspace/atlantis_fw/platform/common/lightheader/src/protobuf-c.c **** {
 142:/home/tienluong/workspace/atlantis_fw/platform/common/lightheader/src/protobuf-c.c **** 	return PROTOBUF_C_VERSION_NUMBER;
 143:/home/tienluong/workspace/atlantis_fw/platform/common/lightheader/src/protobuf-c.c **** }
 144:/home/tienluong/workspace/atlantis_fw/platform/common/lightheader/src/protobuf-c.c **** 
 145:/home/tienluong/workspace/atlantis_fw/platform/common/lightheader/src/protobuf-c.c **** /* --- allocator --- */
 146:/home/tienluong/workspace/atlantis_fw/platform/common/lightheader/src/protobuf-c.c **** 
 147:/home/tienluong/workspace/atlantis_fw/platform/common/lightheader/src/protobuf-c.c **** LIGHT_HEADER_STATIC static void *
 148:/home/tienluong/workspace/atlantis_fw/platform/common/lightheader/src/protobuf-c.c **** system_alloc(void *allocator_data, size_t size)
 149:/home/tienluong/workspace/atlantis_fw/platform/common/lightheader/src/protobuf-c.c **** {
 150:/home/tienluong/workspace/atlantis_fw/platform/common/lightheader/src/protobuf-c.c **** 	void *data = assert_malloc(data, size);
 151:/home/tienluong/workspace/atlantis_fw/platform/common/lightheader/src/protobuf-c.c **** 	return data;
 152:/home/tienluong/workspace/atlantis_fw/platform/common/lightheader/src/protobuf-c.c **** }
 153:/home/tienluong/workspace/atlantis_fw/platform/common/lightheader/src/protobuf-c.c **** 
 154:/home/tienluong/workspace/atlantis_fw/platform/common/lightheader/src/protobuf-c.c **** LIGHT_HEADER_STATIC static void
 155:/home/tienluong/workspace/atlantis_fw/platform/common/lightheader/src/protobuf-c.c **** system_free(void *allocator_data, void *data)
 156:/home/tienluong/workspace/atlantis_fw/platform/common/lightheader/src/protobuf-c.c **** {
 157:/home/tienluong/workspace/atlantis_fw/platform/common/lightheader/src/protobuf-c.c **** 	vPortFree(data);
 158:/home/tienluong/workspace/atlantis_fw/platform/common/lightheader/src/protobuf-c.c **** }
 159:/home/tienluong/workspace/atlantis_fw/platform/common/lightheader/src/protobuf-c.c **** 
 160:/home/tienluong/workspace/atlantis_fw/platform/common/lightheader/src/protobuf-c.c **** LIGHT_HEADER_STATIC static inline void *
 161:/home/tienluong/workspace/atlantis_fw/platform/common/lightheader/src/protobuf-c.c **** do_alloc(ProtobufCAllocator *allocator, size_t size)
 162:/home/tienluong/workspace/atlantis_fw/platform/common/lightheader/src/protobuf-c.c **** {
  26              		.loc 1 162 0
  27              		.cfi_startproc
  28              		@ args = 0, pretend = 0, frame = 0
  29              		@ frame_needed = 0, uses_anonymous_args = 0
  30              		@ link register save eliminated.
  31              	.LVL0:
 163:/home/tienluong/workspace/atlantis_fw/platform/common/lightheader/src/protobuf-c.c **** 	return allocator->alloc(allocator->allocator_data, size);
  32              		.loc 1 163 0
  33 0000 0368     		ldr	r3, [r0]
  34 0002 8068     		ldr	r0, [r0, #8]
  35              	.LVL1:
  36 0004 1847     		bx	r3
  37              	.LVL2:
  38              		.cfi_endproc
  39              	.LFE5:
  41              		.section	.text.do_free,"ax",%progbits
  42              		.align	1
  43              		.thumb
  44              		.thumb_func
  46              	do_free:
  47              	.LFB6:
 164:/home/tienluong/workspace/atlantis_fw/platform/common/lightheader/src/protobuf-c.c **** }
 165:/home/tienluong/workspace/atlantis_fw/platform/common/lightheader/src/protobuf-c.c **** 
 166:/home/tienluong/workspace/atlantis_fw/platform/common/lightheader/src/protobuf-c.c **** LIGHT_HEADER_STATIC static inline void
 167:/home/tienluong/workspace/atlantis_fw/platform/common/lightheader/src/protobuf-c.c **** do_free(ProtobufCAllocator *allocator, void *data)
 168:/home/tienluong/workspace/atlantis_fw/platform/common/lightheader/src/protobuf-c.c **** {
  48              		.loc 1 168 0
  49              		.cfi_startproc
  50              		@ args = 0, pretend = 0, frame = 0
  51              		@ frame_needed = 0, uses_anonymous_args = 0
  52              		@ link register save eliminated.
  53              	.LVL3:
 169:/home/tienluong/workspace/atlantis_fw/platform/common/lightheader/src/protobuf-c.c **** 	if (data != NULL)
  54              		.loc 1 169 0
  55 0000 11B1     		cbz	r1, .L2
 170:/home/tienluong/workspace/atlantis_fw/platform/common/lightheader/src/protobuf-c.c **** 		allocator->free(allocator->allocator_data, data);
  56              		.loc 1 170 0
  57 0002 4368     		ldr	r3, [r0, #4]
  58 0004 8068     		ldr	r0, [r0, #8]
  59              	.LVL4:
  60 0006 1847     		bx	r3	@ indirect register sibling call
  61              	.LVL5:
  62              	.L2:
  63 0008 7047     		bx	lr
  64              		.cfi_endproc
  65              	.LFE6:
  67              		.section	.text.uint32_pack,"ax",%progbits
  68              		.align	1
  69              		.thumb
  70              		.thumb_func
  72              	uint32_pack:
  73              	.LFB22:
 171:/home/tienluong/workspace/atlantis_fw/platform/common/lightheader/src/protobuf-c.c **** }
 172:/home/tienluong/workspace/atlantis_fw/platform/common/lightheader/src/protobuf-c.c **** 
 173:/home/tienluong/workspace/atlantis_fw/platform/common/lightheader/src/protobuf-c.c **** /*
 174:/home/tienluong/workspace/atlantis_fw/platform/common/lightheader/src/protobuf-c.c ****  * This allocator uses the system's malloc() and free(). It is the default
 175:/home/tienluong/workspace/atlantis_fw/platform/common/lightheader/src/protobuf-c.c ****  * allocator used if NULL is passed as the ProtobufCAllocator to an exported
 176:/home/tienluong/workspace/atlantis_fw/platform/common/lightheader/src/protobuf-c.c ****  * function.
 177:/home/tienluong/workspace/atlantis_fw/platform/common/lightheader/src/protobuf-c.c ****  */
 178:/home/tienluong/workspace/atlantis_fw/platform/common/lightheader/src/protobuf-c.c **** static ProtobufCAllocator protobuf_c__allocator = {
 179:/home/tienluong/workspace/atlantis_fw/platform/common/lightheader/src/protobuf-c.c **** 	.alloc = &system_alloc,
 180:/home/tienluong/workspace/atlantis_fw/platform/common/lightheader/src/protobuf-c.c **** 	.free = &system_free,
 181:/home/tienluong/workspace/atlantis_fw/platform/common/lightheader/src/protobuf-c.c **** 	.allocator_data = NULL,
 182:/home/tienluong/workspace/atlantis_fw/platform/common/lightheader/src/protobuf-c.c **** };
 183:/home/tienluong/workspace/atlantis_fw/platform/common/lightheader/src/protobuf-c.c **** 
 184:/home/tienluong/workspace/atlantis_fw/platform/common/lightheader/src/protobuf-c.c **** /* === buffer-simple === */
 185:/home/tienluong/workspace/atlantis_fw/platform/common/lightheader/src/protobuf-c.c **** 
 186:/home/tienluong/workspace/atlantis_fw/platform/common/lightheader/src/protobuf-c.c **** LIGHT_HEADER_FUNC void
 187:/home/tienluong/workspace/atlantis_fw/platform/common/lightheader/src/protobuf-c.c **** protobuf_c_buffer_simple_append(ProtobufCBuffer *buffer,
 188:/home/tienluong/workspace/atlantis_fw/platform/common/lightheader/src/protobuf-c.c **** 				size_t len, const uint8_t *data)
 189:/home/tienluong/workspace/atlantis_fw/platform/common/lightheader/src/protobuf-c.c **** {
 190:/home/tienluong/workspace/atlantis_fw/platform/common/lightheader/src/protobuf-c.c **** 	ProtobufCBufferSimple *simp = (ProtobufCBufferSimple *) buffer;
 191:/home/tienluong/workspace/atlantis_fw/platform/common/lightheader/src/protobuf-c.c **** 	size_t new_len = simp->len + len;
 192:/home/tienluong/workspace/atlantis_fw/platform/common/lightheader/src/protobuf-c.c **** 
 193:/home/tienluong/workspace/atlantis_fw/platform/common/lightheader/src/protobuf-c.c **** 	if (new_len > simp->alloced) {
 194:/home/tienluong/workspace/atlantis_fw/platform/common/lightheader/src/protobuf-c.c **** 		ProtobufCAllocator *allocator = simp->allocator;
 195:/home/tienluong/workspace/atlantis_fw/platform/common/lightheader/src/protobuf-c.c **** 		size_t new_alloced = simp->alloced * 2;
 196:/home/tienluong/workspace/atlantis_fw/platform/common/lightheader/src/protobuf-c.c **** 		uint8_t *new_data;
 197:/home/tienluong/workspace/atlantis_fw/platform/common/lightheader/src/protobuf-c.c **** 
 198:/home/tienluong/workspace/atlantis_fw/platform/common/lightheader/src/protobuf-c.c **** 		if (allocator == NULL)
 199:/home/tienluong/workspace/atlantis_fw/platform/common/lightheader/src/protobuf-c.c **** 			allocator = &protobuf_c__allocator;
 200:/home/tienluong/workspace/atlantis_fw/platform/common/lightheader/src/protobuf-c.c **** 		while (new_alloced < new_len)
 201:/home/tienluong/workspace/atlantis_fw/platform/common/lightheader/src/protobuf-c.c **** 			new_alloced += new_alloced;
 202:/home/tienluong/workspace/atlantis_fw/platform/common/lightheader/src/protobuf-c.c **** 		new_data = do_alloc(allocator, new_alloced);
 203:/home/tienluong/workspace/atlantis_fw/platform/common/lightheader/src/protobuf-c.c **** 		if (!new_data)
 204:/home/tienluong/workspace/atlantis_fw/platform/common/lightheader/src/protobuf-c.c **** 			return;
 205:/home/tienluong/workspace/atlantis_fw/platform/common/lightheader/src/protobuf-c.c **** 		memcpy(new_data, simp->data, simp->len);
 206:/home/tienluong/workspace/atlantis_fw/platform/common/lightheader/src/protobuf-c.c **** 		if (simp->must_free_data)
 207:/home/tienluong/workspace/atlantis_fw/platform/common/lightheader/src/protobuf-c.c **** 			do_free(allocator, simp->data);
 208:/home/tienluong/workspace/atlantis_fw/platform/common/lightheader/src/protobuf-c.c **** 		else
 209:/home/tienluong/workspace/atlantis_fw/platform/common/lightheader/src/protobuf-c.c **** 			simp->must_free_data = TRUE;
 210:/home/tienluong/workspace/atlantis_fw/platform/common/lightheader/src/protobuf-c.c **** 		simp->data = new_data;
 211:/home/tienluong/workspace/atlantis_fw/platform/common/lightheader/src/protobuf-c.c **** 		simp->alloced = new_alloced;
 212:/home/tienluong/workspace/atlantis_fw/platform/common/lightheader/src/protobuf-c.c **** 	}
 213:/home/tienluong/workspace/atlantis_fw/platform/common/lightheader/src/protobuf-c.c **** 	memcpy(simp->data + simp->len, data, len);
 214:/home/tienluong/workspace/atlantis_fw/platform/common/lightheader/src/protobuf-c.c **** 	simp->len = new_len;
 215:/home/tienluong/workspace/atlantis_fw/platform/common/lightheader/src/protobuf-c.c **** }
 216:/home/tienluong/workspace/atlantis_fw/platform/common/lightheader/src/protobuf-c.c **** 
 217:/home/tienluong/workspace/atlantis_fw/platform/common/lightheader/src/protobuf-c.c **** /**
 218:/home/tienluong/workspace/atlantis_fw/platform/common/lightheader/src/protobuf-c.c ****  * \defgroup packedsz protobuf_c_message_get_packed_size() implementation
 219:/home/tienluong/workspace/atlantis_fw/platform/common/lightheader/src/protobuf-c.c ****  *
 220:/home/tienluong/workspace/atlantis_fw/platform/common/lightheader/src/protobuf-c.c ****  * Routines mainly used by protobuf_c_message_get_packed_size().
 221:/home/tienluong/workspace/atlantis_fw/platform/common/lightheader/src/protobuf-c.c ****  *
 222:/home/tienluong/workspace/atlantis_fw/platform/common/lightheader/src/protobuf-c.c ****  * \ingroup internal
 223:/home/tienluong/workspace/atlantis_fw/platform/common/lightheader/src/protobuf-c.c ****  * @{
 224:/home/tienluong/workspace/atlantis_fw/platform/common/lightheader/src/protobuf-c.c ****  */
 225:/home/tienluong/workspace/atlantis_fw/platform/common/lightheader/src/protobuf-c.c **** 
 226:/home/tienluong/workspace/atlantis_fw/platform/common/lightheader/src/protobuf-c.c **** /**
 227:/home/tienluong/workspace/atlantis_fw/platform/common/lightheader/src/protobuf-c.c ****  * Return the number of bytes required to store the tag for the field. Includes
 228:/home/tienluong/workspace/atlantis_fw/platform/common/lightheader/src/protobuf-c.c ****  * 3 bits for the wire-type, and a single bit that denotes the end-of-tag.
 229:/home/tienluong/workspace/atlantis_fw/platform/common/lightheader/src/protobuf-c.c ****  *
 230:/home/tienluong/workspace/atlantis_fw/platform/common/lightheader/src/protobuf-c.c ****  * \param number
 231:/home/tienluong/workspace/atlantis_fw/platform/common/lightheader/src/protobuf-c.c ****  *      Field tag to encode.
 232:/home/tienluong/workspace/atlantis_fw/platform/common/lightheader/src/protobuf-c.c ****  * \return
 233:/home/tienluong/workspace/atlantis_fw/platform/common/lightheader/src/protobuf-c.c ****  *      Number of bytes required.
 234:/home/tienluong/workspace/atlantis_fw/platform/common/lightheader/src/protobuf-c.c ****  */
 235:/home/tienluong/workspace/atlantis_fw/platform/common/lightheader/src/protobuf-c.c **** LIGHT_HEADER_STATIC static inline size_t
 236:/home/tienluong/workspace/atlantis_fw/platform/common/lightheader/src/protobuf-c.c **** get_tag_size(uint32_t number)
 237:/home/tienluong/workspace/atlantis_fw/platform/common/lightheader/src/protobuf-c.c **** {
 238:/home/tienluong/workspace/atlantis_fw/platform/common/lightheader/src/protobuf-c.c **** 	if (number < (1UL << 4)) {
 239:/home/tienluong/workspace/atlantis_fw/platform/common/lightheader/src/protobuf-c.c **** 		return 1;
 240:/home/tienluong/workspace/atlantis_fw/platform/common/lightheader/src/protobuf-c.c **** 	} else if (number < (1UL << 11)) {
 241:/home/tienluong/workspace/atlantis_fw/platform/common/lightheader/src/protobuf-c.c **** 		return 2;
 242:/home/tienluong/workspace/atlantis_fw/platform/common/lightheader/src/protobuf-c.c **** 	} else if (number < (1UL << 18)) {
 243:/home/tienluong/workspace/atlantis_fw/platform/common/lightheader/src/protobuf-c.c **** 		return 3;
 244:/home/tienluong/workspace/atlantis_fw/platform/common/lightheader/src/protobuf-c.c **** 	} else if (number < (1UL << 25)) {
 245:/home/tienluong/workspace/atlantis_fw/platform/common/lightheader/src/protobuf-c.c **** 		return 4;
 246:/home/tienluong/workspace/atlantis_fw/platform/common/lightheader/src/protobuf-c.c **** 	} else {
 247:/home/tienluong/workspace/atlantis_fw/platform/common/lightheader/src/protobuf-c.c **** 		return 5;
 248:/home/tienluong/workspace/atlantis_fw/platform/common/lightheader/src/protobuf-c.c **** 	}
 249:/home/tienluong/workspace/atlantis_fw/platform/common/lightheader/src/protobuf-c.c **** }
 250:/home/tienluong/workspace/atlantis_fw/platform/common/lightheader/src/protobuf-c.c **** 
 251:/home/tienluong/workspace/atlantis_fw/platform/common/lightheader/src/protobuf-c.c **** /**
 252:/home/tienluong/workspace/atlantis_fw/platform/common/lightheader/src/protobuf-c.c ****  * Return the number of bytes required to store a variable-length unsigned
 253:/home/tienluong/workspace/atlantis_fw/platform/common/lightheader/src/protobuf-c.c ****  * 32-bit integer in base-128 varint encoding.
 254:/home/tienluong/workspace/atlantis_fw/platform/common/lightheader/src/protobuf-c.c ****  *
 255:/home/tienluong/workspace/atlantis_fw/platform/common/lightheader/src/protobuf-c.c ****  * \param v
 256:/home/tienluong/workspace/atlantis_fw/platform/common/lightheader/src/protobuf-c.c ****  *      Value to encode.
 257:/home/tienluong/workspace/atlantis_fw/platform/common/lightheader/src/protobuf-c.c ****  * \return
 258:/home/tienluong/workspace/atlantis_fw/platform/common/lightheader/src/protobuf-c.c ****  *      Number of bytes required.
 259:/home/tienluong/workspace/atlantis_fw/platform/common/lightheader/src/protobuf-c.c ****  */
 260:/home/tienluong/workspace/atlantis_fw/platform/common/lightheader/src/protobuf-c.c **** LIGHT_HEADER_STATIC static inline size_t
 261:/home/tienluong/workspace/atlantis_fw/platform/common/lightheader/src/protobuf-c.c **** uint32_size(uint32_t v)
 262:/home/tienluong/workspace/atlantis_fw/platform/common/lightheader/src/protobuf-c.c **** {
 263:/home/tienluong/workspace/atlantis_fw/platform/common/lightheader/src/protobuf-c.c **** 	if (v < (1UL << 7)) {
 264:/home/tienluong/workspace/atlantis_fw/platform/common/lightheader/src/protobuf-c.c **** 		return 1;
 265:/home/tienluong/workspace/atlantis_fw/platform/common/lightheader/src/protobuf-c.c **** 	} else if (v < (1UL << 14)) {
 266:/home/tienluong/workspace/atlantis_fw/platform/common/lightheader/src/protobuf-c.c **** 		return 2;
 267:/home/tienluong/workspace/atlantis_fw/platform/common/lightheader/src/protobuf-c.c **** 	} else if (v < (1UL << 21)) {
 268:/home/tienluong/workspace/atlantis_fw/platform/common/lightheader/src/protobuf-c.c **** 		return 3;
 269:/home/tienluong/workspace/atlantis_fw/platform/common/lightheader/src/protobuf-c.c **** 	} else if (v < (1UL << 28)) {
 270:/home/tienluong/workspace/atlantis_fw/platform/common/lightheader/src/protobuf-c.c **** 		return 4;
 271:/home/tienluong/workspace/atlantis_fw/platform/common/lightheader/src/protobuf-c.c **** 	} else {
 272:/home/tienluong/workspace/atlantis_fw/platform/common/lightheader/src/protobuf-c.c **** 		return 5;
 273:/home/tienluong/workspace/atlantis_fw/platform/common/lightheader/src/protobuf-c.c **** 	}
 274:/home/tienluong/workspace/atlantis_fw/platform/common/lightheader/src/protobuf-c.c **** }
 275:/home/tienluong/workspace/atlantis_fw/platform/common/lightheader/src/protobuf-c.c **** 
 276:/home/tienluong/workspace/atlantis_fw/platform/common/lightheader/src/protobuf-c.c **** /**
 277:/home/tienluong/workspace/atlantis_fw/platform/common/lightheader/src/protobuf-c.c ****  * Return the number of bytes required to store a variable-length signed 32-bit
 278:/home/tienluong/workspace/atlantis_fw/platform/common/lightheader/src/protobuf-c.c ****  * integer in base-128 varint encoding.
 279:/home/tienluong/workspace/atlantis_fw/platform/common/lightheader/src/protobuf-c.c ****  *
 280:/home/tienluong/workspace/atlantis_fw/platform/common/lightheader/src/protobuf-c.c ****  * \param v
 281:/home/tienluong/workspace/atlantis_fw/platform/common/lightheader/src/protobuf-c.c ****  *      Value to encode.
 282:/home/tienluong/workspace/atlantis_fw/platform/common/lightheader/src/protobuf-c.c ****  * \return
 283:/home/tienluong/workspace/atlantis_fw/platform/common/lightheader/src/protobuf-c.c ****  *      Number of bytes required.
 284:/home/tienluong/workspace/atlantis_fw/platform/common/lightheader/src/protobuf-c.c ****  */
 285:/home/tienluong/workspace/atlantis_fw/platform/common/lightheader/src/protobuf-c.c **** LIGHT_HEADER_STATIC static inline size_t
 286:/home/tienluong/workspace/atlantis_fw/platform/common/lightheader/src/protobuf-c.c **** int32_size(int32_t v)
 287:/home/tienluong/workspace/atlantis_fw/platform/common/lightheader/src/protobuf-c.c **** {
 288:/home/tienluong/workspace/atlantis_fw/platform/common/lightheader/src/protobuf-c.c **** 	if (v < 0) {
 289:/home/tienluong/workspace/atlantis_fw/platform/common/lightheader/src/protobuf-c.c **** 		return 10;
 290:/home/tienluong/workspace/atlantis_fw/platform/common/lightheader/src/protobuf-c.c **** 	} else if (v < (1UL << 7)) {
 291:/home/tienluong/workspace/atlantis_fw/platform/common/lightheader/src/protobuf-c.c **** 		return 1;
 292:/home/tienluong/workspace/atlantis_fw/platform/common/lightheader/src/protobuf-c.c **** 	} else if (v < (1UL << 14)) {
 293:/home/tienluong/workspace/atlantis_fw/platform/common/lightheader/src/protobuf-c.c **** 		return 2;
 294:/home/tienluong/workspace/atlantis_fw/platform/common/lightheader/src/protobuf-c.c **** 	} else if (v < (1UL << 21)) {
 295:/home/tienluong/workspace/atlantis_fw/platform/common/lightheader/src/protobuf-c.c **** 		return 3;
 296:/home/tienluong/workspace/atlantis_fw/platform/common/lightheader/src/protobuf-c.c **** 	} else if (v < (1UL << 28)) {
 297:/home/tienluong/workspace/atlantis_fw/platform/common/lightheader/src/protobuf-c.c **** 		return 4;
 298:/home/tienluong/workspace/atlantis_fw/platform/common/lightheader/src/protobuf-c.c **** 	} else {
 299:/home/tienluong/workspace/atlantis_fw/platform/common/lightheader/src/protobuf-c.c **** 		return 5;
 300:/home/tienluong/workspace/atlantis_fw/platform/common/lightheader/src/protobuf-c.c **** 	}
 301:/home/tienluong/workspace/atlantis_fw/platform/common/lightheader/src/protobuf-c.c **** }
 302:/home/tienluong/workspace/atlantis_fw/platform/common/lightheader/src/protobuf-c.c **** 
 303:/home/tienluong/workspace/atlantis_fw/platform/common/lightheader/src/protobuf-c.c **** /**
 304:/home/tienluong/workspace/atlantis_fw/platform/common/lightheader/src/protobuf-c.c ****  * Return the ZigZag-encoded 32-bit unsigned integer form of a 32-bit signed
 305:/home/tienluong/workspace/atlantis_fw/platform/common/lightheader/src/protobuf-c.c ****  * integer.
 306:/home/tienluong/workspace/atlantis_fw/platform/common/lightheader/src/protobuf-c.c ****  *
 307:/home/tienluong/workspace/atlantis_fw/platform/common/lightheader/src/protobuf-c.c ****  * \param v
 308:/home/tienluong/workspace/atlantis_fw/platform/common/lightheader/src/protobuf-c.c ****  *      Value to encode.
 309:/home/tienluong/workspace/atlantis_fw/platform/common/lightheader/src/protobuf-c.c ****  * \return
 310:/home/tienluong/workspace/atlantis_fw/platform/common/lightheader/src/protobuf-c.c ****  *      ZigZag encoded integer.
 311:/home/tienluong/workspace/atlantis_fw/platform/common/lightheader/src/protobuf-c.c ****  */
 312:/home/tienluong/workspace/atlantis_fw/platform/common/lightheader/src/protobuf-c.c **** LIGHT_HEADER_STATIC static inline uint32_t
 313:/home/tienluong/workspace/atlantis_fw/platform/common/lightheader/src/protobuf-c.c **** zigzag32(int32_t v)
 314:/home/tienluong/workspace/atlantis_fw/platform/common/lightheader/src/protobuf-c.c **** {
 315:/home/tienluong/workspace/atlantis_fw/platform/common/lightheader/src/protobuf-c.c **** 	if (v < 0)
 316:/home/tienluong/workspace/atlantis_fw/platform/common/lightheader/src/protobuf-c.c **** 		return (-(uint32_t)v) * 2 - 1;
 317:/home/tienluong/workspace/atlantis_fw/platform/common/lightheader/src/protobuf-c.c **** 	else
 318:/home/tienluong/workspace/atlantis_fw/platform/common/lightheader/src/protobuf-c.c **** 		return (uint32_t)(v) * 2;
 319:/home/tienluong/workspace/atlantis_fw/platform/common/lightheader/src/protobuf-c.c **** }
 320:/home/tienluong/workspace/atlantis_fw/platform/common/lightheader/src/protobuf-c.c **** 
 321:/home/tienluong/workspace/atlantis_fw/platform/common/lightheader/src/protobuf-c.c **** /**
 322:/home/tienluong/workspace/atlantis_fw/platform/common/lightheader/src/protobuf-c.c ****  * Return the number of bytes required to store a signed 32-bit integer,
 323:/home/tienluong/workspace/atlantis_fw/platform/common/lightheader/src/protobuf-c.c ****  * converted to an unsigned 32-bit integer with ZigZag encoding, using base-128
 324:/home/tienluong/workspace/atlantis_fw/platform/common/lightheader/src/protobuf-c.c ****  * varint encoding.
 325:/home/tienluong/workspace/atlantis_fw/platform/common/lightheader/src/protobuf-c.c ****  *
 326:/home/tienluong/workspace/atlantis_fw/platform/common/lightheader/src/protobuf-c.c ****  * \param v
 327:/home/tienluong/workspace/atlantis_fw/platform/common/lightheader/src/protobuf-c.c ****  *      Value to encode.
 328:/home/tienluong/workspace/atlantis_fw/platform/common/lightheader/src/protobuf-c.c ****  * \return
 329:/home/tienluong/workspace/atlantis_fw/platform/common/lightheader/src/protobuf-c.c ****  *      Number of bytes required.
 330:/home/tienluong/workspace/atlantis_fw/platform/common/lightheader/src/protobuf-c.c ****  */
 331:/home/tienluong/workspace/atlantis_fw/platform/common/lightheader/src/protobuf-c.c **** LIGHT_HEADER_STATIC static inline size_t
 332:/home/tienluong/workspace/atlantis_fw/platform/common/lightheader/src/protobuf-c.c **** sint32_size(int32_t v)
 333:/home/tienluong/workspace/atlantis_fw/platform/common/lightheader/src/protobuf-c.c **** {
 334:/home/tienluong/workspace/atlantis_fw/platform/common/lightheader/src/protobuf-c.c **** 	return uint32_size(zigzag32(v));
 335:/home/tienluong/workspace/atlantis_fw/platform/common/lightheader/src/protobuf-c.c **** }
 336:/home/tienluong/workspace/atlantis_fw/platform/common/lightheader/src/protobuf-c.c **** 
 337:/home/tienluong/workspace/atlantis_fw/platform/common/lightheader/src/protobuf-c.c **** /**
 338:/home/tienluong/workspace/atlantis_fw/platform/common/lightheader/src/protobuf-c.c ****  * Return the number of bytes required to store a 64-bit unsigned integer in
 339:/home/tienluong/workspace/atlantis_fw/platform/common/lightheader/src/protobuf-c.c ****  * base-128 varint encoding.
 340:/home/tienluong/workspace/atlantis_fw/platform/common/lightheader/src/protobuf-c.c ****  *
 341:/home/tienluong/workspace/atlantis_fw/platform/common/lightheader/src/protobuf-c.c ****  * \param v
 342:/home/tienluong/workspace/atlantis_fw/platform/common/lightheader/src/protobuf-c.c ****  *      Value to encode.
 343:/home/tienluong/workspace/atlantis_fw/platform/common/lightheader/src/protobuf-c.c ****  * \return
 344:/home/tienluong/workspace/atlantis_fw/platform/common/lightheader/src/protobuf-c.c ****  *      Number of bytes required.
 345:/home/tienluong/workspace/atlantis_fw/platform/common/lightheader/src/protobuf-c.c ****  */
 346:/home/tienluong/workspace/atlantis_fw/platform/common/lightheader/src/protobuf-c.c **** LIGHT_HEADER_STATIC static inline size_t
 347:/home/tienluong/workspace/atlantis_fw/platform/common/lightheader/src/protobuf-c.c **** uint64_size(uint64_t v)
 348:/home/tienluong/workspace/atlantis_fw/platform/common/lightheader/src/protobuf-c.c **** {
 349:/home/tienluong/workspace/atlantis_fw/platform/common/lightheader/src/protobuf-c.c **** 	uint32_t upper_v = (uint32_t) (v >> 32);
 350:/home/tienluong/workspace/atlantis_fw/platform/common/lightheader/src/protobuf-c.c **** 
 351:/home/tienluong/workspace/atlantis_fw/platform/common/lightheader/src/protobuf-c.c **** 	if (upper_v == 0) {
 352:/home/tienluong/workspace/atlantis_fw/platform/common/lightheader/src/protobuf-c.c **** 		return uint32_size((uint32_t) v);
 353:/home/tienluong/workspace/atlantis_fw/platform/common/lightheader/src/protobuf-c.c **** 	} else if (upper_v < (1UL << 3)) {
 354:/home/tienluong/workspace/atlantis_fw/platform/common/lightheader/src/protobuf-c.c **** 		return 5;
 355:/home/tienluong/workspace/atlantis_fw/platform/common/lightheader/src/protobuf-c.c **** 	} else if (upper_v < (1UL << 10)) {
 356:/home/tienluong/workspace/atlantis_fw/platform/common/lightheader/src/protobuf-c.c **** 		return 6;
 357:/home/tienluong/workspace/atlantis_fw/platform/common/lightheader/src/protobuf-c.c **** 	} else if (upper_v < (1UL << 17)) {
 358:/home/tienluong/workspace/atlantis_fw/platform/common/lightheader/src/protobuf-c.c **** 		return 7;
 359:/home/tienluong/workspace/atlantis_fw/platform/common/lightheader/src/protobuf-c.c **** 	} else if (upper_v < (1UL << 24)) {
 360:/home/tienluong/workspace/atlantis_fw/platform/common/lightheader/src/protobuf-c.c **** 		return 8;
 361:/home/tienluong/workspace/atlantis_fw/platform/common/lightheader/src/protobuf-c.c **** 	} else if (upper_v < (1UL << 31)) {
 362:/home/tienluong/workspace/atlantis_fw/platform/common/lightheader/src/protobuf-c.c **** 		return 9;
 363:/home/tienluong/workspace/atlantis_fw/platform/common/lightheader/src/protobuf-c.c **** 	} else {
 364:/home/tienluong/workspace/atlantis_fw/platform/common/lightheader/src/protobuf-c.c **** 		return 10;
 365:/home/tienluong/workspace/atlantis_fw/platform/common/lightheader/src/protobuf-c.c **** 	}
 366:/home/tienluong/workspace/atlantis_fw/platform/common/lightheader/src/protobuf-c.c **** }
 367:/home/tienluong/workspace/atlantis_fw/platform/common/lightheader/src/protobuf-c.c **** 
 368:/home/tienluong/workspace/atlantis_fw/platform/common/lightheader/src/protobuf-c.c **** /**
 369:/home/tienluong/workspace/atlantis_fw/platform/common/lightheader/src/protobuf-c.c ****  * Return the ZigZag-encoded 64-bit unsigned integer form of a 64-bit signed
 370:/home/tienluong/workspace/atlantis_fw/platform/common/lightheader/src/protobuf-c.c ****  * integer.
 371:/home/tienluong/workspace/atlantis_fw/platform/common/lightheader/src/protobuf-c.c ****  *
 372:/home/tienluong/workspace/atlantis_fw/platform/common/lightheader/src/protobuf-c.c ****  * \param v
 373:/home/tienluong/workspace/atlantis_fw/platform/common/lightheader/src/protobuf-c.c ****  *      Value to encode.
 374:/home/tienluong/workspace/atlantis_fw/platform/common/lightheader/src/protobuf-c.c ****  * \return
 375:/home/tienluong/workspace/atlantis_fw/platform/common/lightheader/src/protobuf-c.c ****  *      ZigZag encoded integer.
 376:/home/tienluong/workspace/atlantis_fw/platform/common/lightheader/src/protobuf-c.c ****  */
 377:/home/tienluong/workspace/atlantis_fw/platform/common/lightheader/src/protobuf-c.c **** LIGHT_HEADER_STATIC static inline uint64_t
 378:/home/tienluong/workspace/atlantis_fw/platform/common/lightheader/src/protobuf-c.c **** zigzag64(int64_t v)
 379:/home/tienluong/workspace/atlantis_fw/platform/common/lightheader/src/protobuf-c.c **** {
 380:/home/tienluong/workspace/atlantis_fw/platform/common/lightheader/src/protobuf-c.c **** 	if (v < 0)
 381:/home/tienluong/workspace/atlantis_fw/platform/common/lightheader/src/protobuf-c.c **** 		return (-(uint64_t)v) * 2 - 1;
 382:/home/tienluong/workspace/atlantis_fw/platform/common/lightheader/src/protobuf-c.c **** 	else
 383:/home/tienluong/workspace/atlantis_fw/platform/common/lightheader/src/protobuf-c.c **** 		return (uint64_t)(v) * 2;
 384:/home/tienluong/workspace/atlantis_fw/platform/common/lightheader/src/protobuf-c.c **** }
 385:/home/tienluong/workspace/atlantis_fw/platform/common/lightheader/src/protobuf-c.c **** 
 386:/home/tienluong/workspace/atlantis_fw/platform/common/lightheader/src/protobuf-c.c **** /**
 387:/home/tienluong/workspace/atlantis_fw/platform/common/lightheader/src/protobuf-c.c ****  * Return the number of bytes required to store a signed 64-bit integer,
 388:/home/tienluong/workspace/atlantis_fw/platform/common/lightheader/src/protobuf-c.c ****  * converted to an unsigned 64-bit integer with ZigZag encoding, using base-128
 389:/home/tienluong/workspace/atlantis_fw/platform/common/lightheader/src/protobuf-c.c ****  * varint encoding.
 390:/home/tienluong/workspace/atlantis_fw/platform/common/lightheader/src/protobuf-c.c ****  *
 391:/home/tienluong/workspace/atlantis_fw/platform/common/lightheader/src/protobuf-c.c ****  * \param v
 392:/home/tienluong/workspace/atlantis_fw/platform/common/lightheader/src/protobuf-c.c ****  *      Value to encode.
 393:/home/tienluong/workspace/atlantis_fw/platform/common/lightheader/src/protobuf-c.c ****  * \return
 394:/home/tienluong/workspace/atlantis_fw/platform/common/lightheader/src/protobuf-c.c ****  *      Number of bytes required.
 395:/home/tienluong/workspace/atlantis_fw/platform/common/lightheader/src/protobuf-c.c ****  */
 396:/home/tienluong/workspace/atlantis_fw/platform/common/lightheader/src/protobuf-c.c **** LIGHT_HEADER_STATIC static inline size_t
 397:/home/tienluong/workspace/atlantis_fw/platform/common/lightheader/src/protobuf-c.c **** sint64_size(int64_t v)
 398:/home/tienluong/workspace/atlantis_fw/platform/common/lightheader/src/protobuf-c.c **** {
 399:/home/tienluong/workspace/atlantis_fw/platform/common/lightheader/src/protobuf-c.c **** 	return uint64_size(zigzag64(v));
 400:/home/tienluong/workspace/atlantis_fw/platform/common/lightheader/src/protobuf-c.c **** }
 401:/home/tienluong/workspace/atlantis_fw/platform/common/lightheader/src/protobuf-c.c **** 
 402:/home/tienluong/workspace/atlantis_fw/platform/common/lightheader/src/protobuf-c.c **** /**
 403:/home/tienluong/workspace/atlantis_fw/platform/common/lightheader/src/protobuf-c.c ****  * Calculate the serialized size of a single required message field, including
 404:/home/tienluong/workspace/atlantis_fw/platform/common/lightheader/src/protobuf-c.c ****  * the space needed by the preceding tag.
 405:/home/tienluong/workspace/atlantis_fw/platform/common/lightheader/src/protobuf-c.c ****  *
 406:/home/tienluong/workspace/atlantis_fw/platform/common/lightheader/src/protobuf-c.c ****  * \param field
 407:/home/tienluong/workspace/atlantis_fw/platform/common/lightheader/src/protobuf-c.c ****  *      Field descriptor for member.
 408:/home/tienluong/workspace/atlantis_fw/platform/common/lightheader/src/protobuf-c.c ****  * \param member
 409:/home/tienluong/workspace/atlantis_fw/platform/common/lightheader/src/protobuf-c.c ****  *      Field to encode.
 410:/home/tienluong/workspace/atlantis_fw/platform/common/lightheader/src/protobuf-c.c ****  * \return
 411:/home/tienluong/workspace/atlantis_fw/platform/common/lightheader/src/protobuf-c.c ****  *      Number of bytes required.
 412:/home/tienluong/workspace/atlantis_fw/platform/common/lightheader/src/protobuf-c.c ****  */
 413:/home/tienluong/workspace/atlantis_fw/platform/common/lightheader/src/protobuf-c.c **** LIGHT_HEADER_STATIC static size_t
 414:/home/tienluong/workspace/atlantis_fw/platform/common/lightheader/src/protobuf-c.c **** required_field_get_packed_size(const ProtobufCFieldDescriptor *field,
 415:/home/tienluong/workspace/atlantis_fw/platform/common/lightheader/src/protobuf-c.c **** 			       const void *member)
 416:/home/tienluong/workspace/atlantis_fw/platform/common/lightheader/src/protobuf-c.c **** {
 417:/home/tienluong/workspace/atlantis_fw/platform/common/lightheader/src/protobuf-c.c **** 	size_t rv = get_tag_size(field->id);
 418:/home/tienluong/workspace/atlantis_fw/platform/common/lightheader/src/protobuf-c.c **** 
 419:/home/tienluong/workspace/atlantis_fw/platform/common/lightheader/src/protobuf-c.c **** 	switch (field->type) {
 420:/home/tienluong/workspace/atlantis_fw/platform/common/lightheader/src/protobuf-c.c **** 	case PROTOBUF_C_TYPE_SINT32:
 421:/home/tienluong/workspace/atlantis_fw/platform/common/lightheader/src/protobuf-c.c **** 		return rv + sint32_size(*(const int32_t *) member);
 422:/home/tienluong/workspace/atlantis_fw/platform/common/lightheader/src/protobuf-c.c **** 	case PROTOBUF_C_TYPE_ENUM:
 423:/home/tienluong/workspace/atlantis_fw/platform/common/lightheader/src/protobuf-c.c **** 	case PROTOBUF_C_TYPE_INT32:
 424:/home/tienluong/workspace/atlantis_fw/platform/common/lightheader/src/protobuf-c.c **** 		return rv + int32_size(*(const int32_t *) member);
 425:/home/tienluong/workspace/atlantis_fw/platform/common/lightheader/src/protobuf-c.c **** 	case PROTOBUF_C_TYPE_UINT32:
 426:/home/tienluong/workspace/atlantis_fw/platform/common/lightheader/src/protobuf-c.c **** 		return rv + uint32_size(*(const uint32_t *) member);
 427:/home/tienluong/workspace/atlantis_fw/platform/common/lightheader/src/protobuf-c.c **** 	case PROTOBUF_C_TYPE_SINT64:
 428:/home/tienluong/workspace/atlantis_fw/platform/common/lightheader/src/protobuf-c.c **** 		return rv + sint64_size(*(const int64_t *) member);
 429:/home/tienluong/workspace/atlantis_fw/platform/common/lightheader/src/protobuf-c.c **** 	case PROTOBUF_C_TYPE_INT64:
 430:/home/tienluong/workspace/atlantis_fw/platform/common/lightheader/src/protobuf-c.c **** 	case PROTOBUF_C_TYPE_UINT64:
 431:/home/tienluong/workspace/atlantis_fw/platform/common/lightheader/src/protobuf-c.c **** 		return rv + uint64_size(*(const uint64_t *) member);
 432:/home/tienluong/workspace/atlantis_fw/platform/common/lightheader/src/protobuf-c.c **** 	case PROTOBUF_C_TYPE_SFIXED32:
 433:/home/tienluong/workspace/atlantis_fw/platform/common/lightheader/src/protobuf-c.c **** 	case PROTOBUF_C_TYPE_FIXED32:
 434:/home/tienluong/workspace/atlantis_fw/platform/common/lightheader/src/protobuf-c.c **** 		return rv + 4;
 435:/home/tienluong/workspace/atlantis_fw/platform/common/lightheader/src/protobuf-c.c **** 	case PROTOBUF_C_TYPE_SFIXED64:
 436:/home/tienluong/workspace/atlantis_fw/platform/common/lightheader/src/protobuf-c.c **** 	case PROTOBUF_C_TYPE_FIXED64:
 437:/home/tienluong/workspace/atlantis_fw/platform/common/lightheader/src/protobuf-c.c **** 		return rv + 8;
 438:/home/tienluong/workspace/atlantis_fw/platform/common/lightheader/src/protobuf-c.c **** 	case PROTOBUF_C_TYPE_BOOL:
 439:/home/tienluong/workspace/atlantis_fw/platform/common/lightheader/src/protobuf-c.c **** 		return rv + 1;
 440:/home/tienluong/workspace/atlantis_fw/platform/common/lightheader/src/protobuf-c.c **** 	case PROTOBUF_C_TYPE_FLOAT:
 441:/home/tienluong/workspace/atlantis_fw/platform/common/lightheader/src/protobuf-c.c **** 		return rv + 4;
 442:/home/tienluong/workspace/atlantis_fw/platform/common/lightheader/src/protobuf-c.c **** 	case PROTOBUF_C_TYPE_DOUBLE:
 443:/home/tienluong/workspace/atlantis_fw/platform/common/lightheader/src/protobuf-c.c **** 		return rv + 8;
 444:/home/tienluong/workspace/atlantis_fw/platform/common/lightheader/src/protobuf-c.c **** 	case PROTOBUF_C_TYPE_STRING: {
 445:/home/tienluong/workspace/atlantis_fw/platform/common/lightheader/src/protobuf-c.c **** 		const char *str = *(char * const *) member;
 446:/home/tienluong/workspace/atlantis_fw/platform/common/lightheader/src/protobuf-c.c **** 		size_t len = str ? strlen(str) : 0;
 447:/home/tienluong/workspace/atlantis_fw/platform/common/lightheader/src/protobuf-c.c **** 		return rv + uint32_size(len) + len;
 448:/home/tienluong/workspace/atlantis_fw/platform/common/lightheader/src/protobuf-c.c **** 	}
 449:/home/tienluong/workspace/atlantis_fw/platform/common/lightheader/src/protobuf-c.c **** 	case PROTOBUF_C_TYPE_BYTES: {
 450:/home/tienluong/workspace/atlantis_fw/platform/common/lightheader/src/protobuf-c.c **** 		size_t len = ((const ProtobufCBinaryData *) member)->len;
 451:/home/tienluong/workspace/atlantis_fw/platform/common/lightheader/src/protobuf-c.c **** 		return rv + uint32_size(len) + len;
 452:/home/tienluong/workspace/atlantis_fw/platform/common/lightheader/src/protobuf-c.c **** 	}
 453:/home/tienluong/workspace/atlantis_fw/platform/common/lightheader/src/protobuf-c.c **** 	case PROTOBUF_C_TYPE_MESSAGE: {
 454:/home/tienluong/workspace/atlantis_fw/platform/common/lightheader/src/protobuf-c.c **** 		const ProtobufCMessage *msg = *(ProtobufCMessage * const *) member;
 455:/home/tienluong/workspace/atlantis_fw/platform/common/lightheader/src/protobuf-c.c **** 		size_t subrv = msg ? protobuf_c_message_get_packed_size(msg) : 0;
 456:/home/tienluong/workspace/atlantis_fw/platform/common/lightheader/src/protobuf-c.c **** 		return rv + uint32_size(subrv) + subrv;
 457:/home/tienluong/workspace/atlantis_fw/platform/common/lightheader/src/protobuf-c.c **** 	}
 458:/home/tienluong/workspace/atlantis_fw/platform/common/lightheader/src/protobuf-c.c **** 	}
 459:/home/tienluong/workspace/atlantis_fw/platform/common/lightheader/src/protobuf-c.c **** 	PROTOBUF_C__ASSERT_NOT_REACHED();
 460:/home/tienluong/workspace/atlantis_fw/platform/common/lightheader/src/protobuf-c.c **** 	return 0;
 461:/home/tienluong/workspace/atlantis_fw/platform/common/lightheader/src/protobuf-c.c **** }
 462:/home/tienluong/workspace/atlantis_fw/platform/common/lightheader/src/protobuf-c.c **** 
 463:/home/tienluong/workspace/atlantis_fw/platform/common/lightheader/src/protobuf-c.c **** /**
 464:/home/tienluong/workspace/atlantis_fw/platform/common/lightheader/src/protobuf-c.c ****  * Calculate the serialized size of a single oneof message field, including
 465:/home/tienluong/workspace/atlantis_fw/platform/common/lightheader/src/protobuf-c.c ****  * the space needed by the preceding tag. Returns 0 if the oneof field isn't
 466:/home/tienluong/workspace/atlantis_fw/platform/common/lightheader/src/protobuf-c.c ****  * selected or is not set.
 467:/home/tienluong/workspace/atlantis_fw/platform/common/lightheader/src/protobuf-c.c ****  *
 468:/home/tienluong/workspace/atlantis_fw/platform/common/lightheader/src/protobuf-c.c ****  * \param field
 469:/home/tienluong/workspace/atlantis_fw/platform/common/lightheader/src/protobuf-c.c ****  *      Field descriptor for member.
 470:/home/tienluong/workspace/atlantis_fw/platform/common/lightheader/src/protobuf-c.c ****  * \param oneof_case
 471:/home/tienluong/workspace/atlantis_fw/platform/common/lightheader/src/protobuf-c.c ****  *      A pointer to the case enum that selects the field in the oneof.
 472:/home/tienluong/workspace/atlantis_fw/platform/common/lightheader/src/protobuf-c.c ****  * \param member
 473:/home/tienluong/workspace/atlantis_fw/platform/common/lightheader/src/protobuf-c.c ****  *      Field to encode.
 474:/home/tienluong/workspace/atlantis_fw/platform/common/lightheader/src/protobuf-c.c ****  * \return
 475:/home/tienluong/workspace/atlantis_fw/platform/common/lightheader/src/protobuf-c.c ****  *      Number of bytes required.
 476:/home/tienluong/workspace/atlantis_fw/platform/common/lightheader/src/protobuf-c.c ****  */
 477:/home/tienluong/workspace/atlantis_fw/platform/common/lightheader/src/protobuf-c.c **** LIGHT_HEADER_STATIC static size_t
 478:/home/tienluong/workspace/atlantis_fw/platform/common/lightheader/src/protobuf-c.c **** oneof_field_get_packed_size(const ProtobufCFieldDescriptor *field,
 479:/home/tienluong/workspace/atlantis_fw/platform/common/lightheader/src/protobuf-c.c **** 			    const uint32_t *oneof_case,
 480:/home/tienluong/workspace/atlantis_fw/platform/common/lightheader/src/protobuf-c.c **** 			    const void *member)
 481:/home/tienluong/workspace/atlantis_fw/platform/common/lightheader/src/protobuf-c.c **** {
 482:/home/tienluong/workspace/atlantis_fw/platform/common/lightheader/src/protobuf-c.c **** 	if (*oneof_case == field->id) {
 483:/home/tienluong/workspace/atlantis_fw/platform/common/lightheader/src/protobuf-c.c **** 		if (field->type == PROTOBUF_C_TYPE_MESSAGE ||
 484:/home/tienluong/workspace/atlantis_fw/platform/common/lightheader/src/protobuf-c.c **** 		    field->type == PROTOBUF_C_TYPE_STRING)
 485:/home/tienluong/workspace/atlantis_fw/platform/common/lightheader/src/protobuf-c.c **** 		{
 486:/home/tienluong/workspace/atlantis_fw/platform/common/lightheader/src/protobuf-c.c **** 			const void *ptr = *(const void * const *) member;
 487:/home/tienluong/workspace/atlantis_fw/platform/common/lightheader/src/protobuf-c.c **** 			if (ptr == NULL || ptr == field->default_value)
 488:/home/tienluong/workspace/atlantis_fw/platform/common/lightheader/src/protobuf-c.c **** 				return 0;
 489:/home/tienluong/workspace/atlantis_fw/platform/common/lightheader/src/protobuf-c.c **** 		}
 490:/home/tienluong/workspace/atlantis_fw/platform/common/lightheader/src/protobuf-c.c **** 	} else {
 491:/home/tienluong/workspace/atlantis_fw/platform/common/lightheader/src/protobuf-c.c **** 		return 0;
 492:/home/tienluong/workspace/atlantis_fw/platform/common/lightheader/src/protobuf-c.c **** 	}
 493:/home/tienluong/workspace/atlantis_fw/platform/common/lightheader/src/protobuf-c.c **** 	return required_field_get_packed_size(field, member);
 494:/home/tienluong/workspace/atlantis_fw/platform/common/lightheader/src/protobuf-c.c **** }
 495:/home/tienluong/workspace/atlantis_fw/platform/common/lightheader/src/protobuf-c.c **** 
 496:/home/tienluong/workspace/atlantis_fw/platform/common/lightheader/src/protobuf-c.c **** /**
 497:/home/tienluong/workspace/atlantis_fw/platform/common/lightheader/src/protobuf-c.c ****  * Calculate the serialized size of a single optional message field, including
 498:/home/tienluong/workspace/atlantis_fw/platform/common/lightheader/src/protobuf-c.c ****  * the space needed by the preceding tag. Returns 0 if the optional field isn't
 499:/home/tienluong/workspace/atlantis_fw/platform/common/lightheader/src/protobuf-c.c ****  * set.
 500:/home/tienluong/workspace/atlantis_fw/platform/common/lightheader/src/protobuf-c.c ****  *
 501:/home/tienluong/workspace/atlantis_fw/platform/common/lightheader/src/protobuf-c.c ****  * \param field
 502:/home/tienluong/workspace/atlantis_fw/platform/common/lightheader/src/protobuf-c.c ****  *      Field descriptor for member.
 503:/home/tienluong/workspace/atlantis_fw/platform/common/lightheader/src/protobuf-c.c ****  * \param has
 504:/home/tienluong/workspace/atlantis_fw/platform/common/lightheader/src/protobuf-c.c ****  *      True if the field exists, false if not.
 505:/home/tienluong/workspace/atlantis_fw/platform/common/lightheader/src/protobuf-c.c ****  * \param member
 506:/home/tienluong/workspace/atlantis_fw/platform/common/lightheader/src/protobuf-c.c ****  *      Field to encode.
 507:/home/tienluong/workspace/atlantis_fw/platform/common/lightheader/src/protobuf-c.c ****  * \return
 508:/home/tienluong/workspace/atlantis_fw/platform/common/lightheader/src/protobuf-c.c ****  *      Number of bytes required.
 509:/home/tienluong/workspace/atlantis_fw/platform/common/lightheader/src/protobuf-c.c ****  */
 510:/home/tienluong/workspace/atlantis_fw/platform/common/lightheader/src/protobuf-c.c **** LIGHT_HEADER_STATIC static size_t
 511:/home/tienluong/workspace/atlantis_fw/platform/common/lightheader/src/protobuf-c.c **** optional_field_get_packed_size(const ProtobufCFieldDescriptor *field,
 512:/home/tienluong/workspace/atlantis_fw/platform/common/lightheader/src/protobuf-c.c **** 			       const protobuf_c_boolean *has,
 513:/home/tienluong/workspace/atlantis_fw/platform/common/lightheader/src/protobuf-c.c **** 			       const void *member)
 514:/home/tienluong/workspace/atlantis_fw/platform/common/lightheader/src/protobuf-c.c **** {
 515:/home/tienluong/workspace/atlantis_fw/platform/common/lightheader/src/protobuf-c.c **** 	if (field->type == PROTOBUF_C_TYPE_MESSAGE ||
 516:/home/tienluong/workspace/atlantis_fw/platform/common/lightheader/src/protobuf-c.c **** 	    field->type == PROTOBUF_C_TYPE_STRING)
 517:/home/tienluong/workspace/atlantis_fw/platform/common/lightheader/src/protobuf-c.c **** 	{
 518:/home/tienluong/workspace/atlantis_fw/platform/common/lightheader/src/protobuf-c.c **** 		const void *ptr = *(const void * const *) member;
 519:/home/tienluong/workspace/atlantis_fw/platform/common/lightheader/src/protobuf-c.c **** 		if (ptr == NULL || ptr == field->default_value)
 520:/home/tienluong/workspace/atlantis_fw/platform/common/lightheader/src/protobuf-c.c **** 			return 0;
 521:/home/tienluong/workspace/atlantis_fw/platform/common/lightheader/src/protobuf-c.c **** 	} else {
 522:/home/tienluong/workspace/atlantis_fw/platform/common/lightheader/src/protobuf-c.c **** 		if (!*has)
 523:/home/tienluong/workspace/atlantis_fw/platform/common/lightheader/src/protobuf-c.c **** 			return 0;
 524:/home/tienluong/workspace/atlantis_fw/platform/common/lightheader/src/protobuf-c.c **** 	}
 525:/home/tienluong/workspace/atlantis_fw/platform/common/lightheader/src/protobuf-c.c **** 	return required_field_get_packed_size(field, member);
 526:/home/tienluong/workspace/atlantis_fw/platform/common/lightheader/src/protobuf-c.c **** }
 527:/home/tienluong/workspace/atlantis_fw/platform/common/lightheader/src/protobuf-c.c **** 
 528:/home/tienluong/workspace/atlantis_fw/platform/common/lightheader/src/protobuf-c.c **** /**
 529:/home/tienluong/workspace/atlantis_fw/platform/common/lightheader/src/protobuf-c.c ****  * Calculate the serialized size of repeated message fields, which may consist
 530:/home/tienluong/workspace/atlantis_fw/platform/common/lightheader/src/protobuf-c.c ****  * of any number of values (including 0). Includes the space needed by the
 531:/home/tienluong/workspace/atlantis_fw/platform/common/lightheader/src/protobuf-c.c ****  * preceding tags (as needed).
 532:/home/tienluong/workspace/atlantis_fw/platform/common/lightheader/src/protobuf-c.c ****  *
 533:/home/tienluong/workspace/atlantis_fw/platform/common/lightheader/src/protobuf-c.c ****  * \param field
 534:/home/tienluong/workspace/atlantis_fw/platform/common/lightheader/src/protobuf-c.c ****  *      Field descriptor for member.
 535:/home/tienluong/workspace/atlantis_fw/platform/common/lightheader/src/protobuf-c.c ****  * \param count
 536:/home/tienluong/workspace/atlantis_fw/platform/common/lightheader/src/protobuf-c.c ****  *      Number of repeated field members.
 537:/home/tienluong/workspace/atlantis_fw/platform/common/lightheader/src/protobuf-c.c ****  * \param member
 538:/home/tienluong/workspace/atlantis_fw/platform/common/lightheader/src/protobuf-c.c ****  *      Field to encode.
 539:/home/tienluong/workspace/atlantis_fw/platform/common/lightheader/src/protobuf-c.c ****  * \return
 540:/home/tienluong/workspace/atlantis_fw/platform/common/lightheader/src/protobuf-c.c ****  *      Number of bytes required.
 541:/home/tienluong/workspace/atlantis_fw/platform/common/lightheader/src/protobuf-c.c ****  */
 542:/home/tienluong/workspace/atlantis_fw/platform/common/lightheader/src/protobuf-c.c **** LIGHT_HEADER_STATIC static size_t
 543:/home/tienluong/workspace/atlantis_fw/platform/common/lightheader/src/protobuf-c.c **** repeated_field_get_packed_size(const ProtobufCFieldDescriptor *field,
 544:/home/tienluong/workspace/atlantis_fw/platform/common/lightheader/src/protobuf-c.c **** 			       size_t count, const void *member)
 545:/home/tienluong/workspace/atlantis_fw/platform/common/lightheader/src/protobuf-c.c **** {
 546:/home/tienluong/workspace/atlantis_fw/platform/common/lightheader/src/protobuf-c.c **** 	size_t header_size;
 547:/home/tienluong/workspace/atlantis_fw/platform/common/lightheader/src/protobuf-c.c **** 	size_t rv = 0;
 548:/home/tienluong/workspace/atlantis_fw/platform/common/lightheader/src/protobuf-c.c **** 	unsigned i;
 549:/home/tienluong/workspace/atlantis_fw/platform/common/lightheader/src/protobuf-c.c **** 	void *array = *(void * const *) member;
 550:/home/tienluong/workspace/atlantis_fw/platform/common/lightheader/src/protobuf-c.c **** 
 551:/home/tienluong/workspace/atlantis_fw/platform/common/lightheader/src/protobuf-c.c **** 	if (count == 0)
 552:/home/tienluong/workspace/atlantis_fw/platform/common/lightheader/src/protobuf-c.c **** 		return 0;
 553:/home/tienluong/workspace/atlantis_fw/platform/common/lightheader/src/protobuf-c.c **** 	header_size = get_tag_size(field->id);
 554:/home/tienluong/workspace/atlantis_fw/platform/common/lightheader/src/protobuf-c.c **** 	if (0 == (field->flags & PROTOBUF_C_FIELD_FLAG_PACKED))
 555:/home/tienluong/workspace/atlantis_fw/platform/common/lightheader/src/protobuf-c.c **** 		header_size *= count;
 556:/home/tienluong/workspace/atlantis_fw/platform/common/lightheader/src/protobuf-c.c **** 
 557:/home/tienluong/workspace/atlantis_fw/platform/common/lightheader/src/protobuf-c.c **** 	switch (field->type) {
 558:/home/tienluong/workspace/atlantis_fw/platform/common/lightheader/src/protobuf-c.c **** 	case PROTOBUF_C_TYPE_SINT32:
 559:/home/tienluong/workspace/atlantis_fw/platform/common/lightheader/src/protobuf-c.c **** 		for (i = 0; i < count; i++)
 560:/home/tienluong/workspace/atlantis_fw/platform/common/lightheader/src/protobuf-c.c **** 			rv += sint32_size(((int32_t *) array)[i]);
 561:/home/tienluong/workspace/atlantis_fw/platform/common/lightheader/src/protobuf-c.c **** 		break;
 562:/home/tienluong/workspace/atlantis_fw/platform/common/lightheader/src/protobuf-c.c **** 	case PROTOBUF_C_TYPE_ENUM:
 563:/home/tienluong/workspace/atlantis_fw/platform/common/lightheader/src/protobuf-c.c **** 	case PROTOBUF_C_TYPE_INT32:
 564:/home/tienluong/workspace/atlantis_fw/platform/common/lightheader/src/protobuf-c.c **** 		for (i = 0; i < count; i++)
 565:/home/tienluong/workspace/atlantis_fw/platform/common/lightheader/src/protobuf-c.c **** 			rv += int32_size(((int32_t *) array)[i]);
 566:/home/tienluong/workspace/atlantis_fw/platform/common/lightheader/src/protobuf-c.c **** 		break;
 567:/home/tienluong/workspace/atlantis_fw/platform/common/lightheader/src/protobuf-c.c **** 	case PROTOBUF_C_TYPE_UINT32:
 568:/home/tienluong/workspace/atlantis_fw/platform/common/lightheader/src/protobuf-c.c **** 		for (i = 0; i < count; i++)
 569:/home/tienluong/workspace/atlantis_fw/platform/common/lightheader/src/protobuf-c.c **** 			rv += uint32_size(((uint32_t *) array)[i]);
 570:/home/tienluong/workspace/atlantis_fw/platform/common/lightheader/src/protobuf-c.c **** 		break;
 571:/home/tienluong/workspace/atlantis_fw/platform/common/lightheader/src/protobuf-c.c **** 	case PROTOBUF_C_TYPE_SINT64:
 572:/home/tienluong/workspace/atlantis_fw/platform/common/lightheader/src/protobuf-c.c **** 		for (i = 0; i < count; i++)
 573:/home/tienluong/workspace/atlantis_fw/platform/common/lightheader/src/protobuf-c.c **** 			rv += sint64_size(((int64_t *) array)[i]);
 574:/home/tienluong/workspace/atlantis_fw/platform/common/lightheader/src/protobuf-c.c **** 		break;
 575:/home/tienluong/workspace/atlantis_fw/platform/common/lightheader/src/protobuf-c.c **** 	case PROTOBUF_C_TYPE_INT64:
 576:/home/tienluong/workspace/atlantis_fw/platform/common/lightheader/src/protobuf-c.c **** 	case PROTOBUF_C_TYPE_UINT64:
 577:/home/tienluong/workspace/atlantis_fw/platform/common/lightheader/src/protobuf-c.c **** 		for (i = 0; i < count; i++)
 578:/home/tienluong/workspace/atlantis_fw/platform/common/lightheader/src/protobuf-c.c **** 			rv += uint64_size(((uint64_t *) array)[i]);
 579:/home/tienluong/workspace/atlantis_fw/platform/common/lightheader/src/protobuf-c.c **** 		break;
 580:/home/tienluong/workspace/atlantis_fw/platform/common/lightheader/src/protobuf-c.c **** 	case PROTOBUF_C_TYPE_SFIXED32:
 581:/home/tienluong/workspace/atlantis_fw/platform/common/lightheader/src/protobuf-c.c **** 	case PROTOBUF_C_TYPE_FIXED32:
 582:/home/tienluong/workspace/atlantis_fw/platform/common/lightheader/src/protobuf-c.c **** 	case PROTOBUF_C_TYPE_FLOAT:
 583:/home/tienluong/workspace/atlantis_fw/platform/common/lightheader/src/protobuf-c.c **** 		rv += 4 * count;
 584:/home/tienluong/workspace/atlantis_fw/platform/common/lightheader/src/protobuf-c.c **** 		break;
 585:/home/tienluong/workspace/atlantis_fw/platform/common/lightheader/src/protobuf-c.c **** 	case PROTOBUF_C_TYPE_SFIXED64:
 586:/home/tienluong/workspace/atlantis_fw/platform/common/lightheader/src/protobuf-c.c **** 	case PROTOBUF_C_TYPE_FIXED64:
 587:/home/tienluong/workspace/atlantis_fw/platform/common/lightheader/src/protobuf-c.c **** 	case PROTOBUF_C_TYPE_DOUBLE:
 588:/home/tienluong/workspace/atlantis_fw/platform/common/lightheader/src/protobuf-c.c **** 		rv += 8 * count;
 589:/home/tienluong/workspace/atlantis_fw/platform/common/lightheader/src/protobuf-c.c **** 		break;
 590:/home/tienluong/workspace/atlantis_fw/platform/common/lightheader/src/protobuf-c.c **** 	case PROTOBUF_C_TYPE_BOOL:
 591:/home/tienluong/workspace/atlantis_fw/platform/common/lightheader/src/protobuf-c.c **** 		rv += count;
 592:/home/tienluong/workspace/atlantis_fw/platform/common/lightheader/src/protobuf-c.c **** 		break;
 593:/home/tienluong/workspace/atlantis_fw/platform/common/lightheader/src/protobuf-c.c **** 	case PROTOBUF_C_TYPE_STRING:
 594:/home/tienluong/workspace/atlantis_fw/platform/common/lightheader/src/protobuf-c.c **** 		for (i = 0; i < count; i++) {
 595:/home/tienluong/workspace/atlantis_fw/platform/common/lightheader/src/protobuf-c.c **** 			size_t len = strlen(((char **) array)[i]);
 596:/home/tienluong/workspace/atlantis_fw/platform/common/lightheader/src/protobuf-c.c **** 			rv += uint32_size(len) + len;
 597:/home/tienluong/workspace/atlantis_fw/platform/common/lightheader/src/protobuf-c.c **** 		}
 598:/home/tienluong/workspace/atlantis_fw/platform/common/lightheader/src/protobuf-c.c **** 		break;
 599:/home/tienluong/workspace/atlantis_fw/platform/common/lightheader/src/protobuf-c.c **** 	case PROTOBUF_C_TYPE_BYTES:
 600:/home/tienluong/workspace/atlantis_fw/platform/common/lightheader/src/protobuf-c.c **** 		for (i = 0; i < count; i++) {
 601:/home/tienluong/workspace/atlantis_fw/platform/common/lightheader/src/protobuf-c.c **** 			size_t len = ((ProtobufCBinaryData *) array)[i].len;
 602:/home/tienluong/workspace/atlantis_fw/platform/common/lightheader/src/protobuf-c.c **** 			rv += uint32_size(len) + len;
 603:/home/tienluong/workspace/atlantis_fw/platform/common/lightheader/src/protobuf-c.c **** 		}
 604:/home/tienluong/workspace/atlantis_fw/platform/common/lightheader/src/protobuf-c.c **** 		break;
 605:/home/tienluong/workspace/atlantis_fw/platform/common/lightheader/src/protobuf-c.c **** 	case PROTOBUF_C_TYPE_MESSAGE:
 606:/home/tienluong/workspace/atlantis_fw/platform/common/lightheader/src/protobuf-c.c **** 		for (i = 0; i < count; i++) {
 607:/home/tienluong/workspace/atlantis_fw/platform/common/lightheader/src/protobuf-c.c **** 			size_t len = protobuf_c_message_get_packed_size(
 608:/home/tienluong/workspace/atlantis_fw/platform/common/lightheader/src/protobuf-c.c **** 				((ProtobufCMessage **) array)[i]);
 609:/home/tienluong/workspace/atlantis_fw/platform/common/lightheader/src/protobuf-c.c **** 			rv += uint32_size(len) + len;
 610:/home/tienluong/workspace/atlantis_fw/platform/common/lightheader/src/protobuf-c.c **** 		}
 611:/home/tienluong/workspace/atlantis_fw/platform/common/lightheader/src/protobuf-c.c **** 		break;
 612:/home/tienluong/workspace/atlantis_fw/platform/common/lightheader/src/protobuf-c.c **** 	}
 613:/home/tienluong/workspace/atlantis_fw/platform/common/lightheader/src/protobuf-c.c **** 
 614:/home/tienluong/workspace/atlantis_fw/platform/common/lightheader/src/protobuf-c.c **** 	if (0 != (field->flags & PROTOBUF_C_FIELD_FLAG_PACKED))
 615:/home/tienluong/workspace/atlantis_fw/platform/common/lightheader/src/protobuf-c.c **** 		header_size += uint32_size(rv);
 616:/home/tienluong/workspace/atlantis_fw/platform/common/lightheader/src/protobuf-c.c **** 	return header_size + rv;
 617:/home/tienluong/workspace/atlantis_fw/platform/common/lightheader/src/protobuf-c.c **** }
 618:/home/tienluong/workspace/atlantis_fw/platform/common/lightheader/src/protobuf-c.c **** 
 619:/home/tienluong/workspace/atlantis_fw/platform/common/lightheader/src/protobuf-c.c **** /**
 620:/home/tienluong/workspace/atlantis_fw/platform/common/lightheader/src/protobuf-c.c ****  * Calculate the serialized size of an unknown field, i.e. one that is passed
 621:/home/tienluong/workspace/atlantis_fw/platform/common/lightheader/src/protobuf-c.c ****  * through mostly uninterpreted. This is required for forward compatibility if
 622:/home/tienluong/workspace/atlantis_fw/platform/common/lightheader/src/protobuf-c.c ****  * new fields are added to the message descriptor.
 623:/home/tienluong/workspace/atlantis_fw/platform/common/lightheader/src/protobuf-c.c ****  *
 624:/home/tienluong/workspace/atlantis_fw/platform/common/lightheader/src/protobuf-c.c ****  * \param field
 625:/home/tienluong/workspace/atlantis_fw/platform/common/lightheader/src/protobuf-c.c ****  *      Unknown field type.
 626:/home/tienluong/workspace/atlantis_fw/platform/common/lightheader/src/protobuf-c.c ****  * \return
 627:/home/tienluong/workspace/atlantis_fw/platform/common/lightheader/src/protobuf-c.c ****  *      Number of bytes required.
 628:/home/tienluong/workspace/atlantis_fw/platform/common/lightheader/src/protobuf-c.c ****  */
 629:/home/tienluong/workspace/atlantis_fw/platform/common/lightheader/src/protobuf-c.c **** LIGHT_HEADER_STATIC static inline size_t
 630:/home/tienluong/workspace/atlantis_fw/platform/common/lightheader/src/protobuf-c.c **** unknown_field_get_packed_size(const ProtobufCMessageUnknownField *field)
 631:/home/tienluong/workspace/atlantis_fw/platform/common/lightheader/src/protobuf-c.c **** {
 632:/home/tienluong/workspace/atlantis_fw/platform/common/lightheader/src/protobuf-c.c **** 	return get_tag_size(field->tag) + field->len;
 633:/home/tienluong/workspace/atlantis_fw/platform/common/lightheader/src/protobuf-c.c **** }
 634:/home/tienluong/workspace/atlantis_fw/platform/common/lightheader/src/protobuf-c.c **** 
 635:/home/tienluong/workspace/atlantis_fw/platform/common/lightheader/src/protobuf-c.c **** /**@}*/
 636:/home/tienluong/workspace/atlantis_fw/platform/common/lightheader/src/protobuf-c.c **** 
 637:/home/tienluong/workspace/atlantis_fw/platform/common/lightheader/src/protobuf-c.c **** /*
 638:/home/tienluong/workspace/atlantis_fw/platform/common/lightheader/src/protobuf-c.c ****  * Calculate the serialized size of the message.
 639:/home/tienluong/workspace/atlantis_fw/platform/common/lightheader/src/protobuf-c.c ****  */
 640:/home/tienluong/workspace/atlantis_fw/platform/common/lightheader/src/protobuf-c.c **** LIGHT_HEADER_FUNC size_t protobuf_c_message_get_packed_size(const ProtobufCMessage *message)
 641:/home/tienluong/workspace/atlantis_fw/platform/common/lightheader/src/protobuf-c.c **** {
 642:/home/tienluong/workspace/atlantis_fw/platform/common/lightheader/src/protobuf-c.c **** 	unsigned i;
 643:/home/tienluong/workspace/atlantis_fw/platform/common/lightheader/src/protobuf-c.c **** 	size_t rv = 0;
 644:/home/tienluong/workspace/atlantis_fw/platform/common/lightheader/src/protobuf-c.c **** 
 645:/home/tienluong/workspace/atlantis_fw/platform/common/lightheader/src/protobuf-c.c **** 	ASSERT_IS_MESSAGE(message);
 646:/home/tienluong/workspace/atlantis_fw/platform/common/lightheader/src/protobuf-c.c **** 	for (i = 0; i < message->descriptor->n_fields; i++) {
 647:/home/tienluong/workspace/atlantis_fw/platform/common/lightheader/src/protobuf-c.c **** 		const ProtobufCFieldDescriptor *field =
 648:/home/tienluong/workspace/atlantis_fw/platform/common/lightheader/src/protobuf-c.c **** 			message->descriptor->fields + i;
 649:/home/tienluong/workspace/atlantis_fw/platform/common/lightheader/src/protobuf-c.c **** 		const void *member =
 650:/home/tienluong/workspace/atlantis_fw/platform/common/lightheader/src/protobuf-c.c **** 			((const char *) message) + field->offset;
 651:/home/tienluong/workspace/atlantis_fw/platform/common/lightheader/src/protobuf-c.c **** 		const void *qmember =
 652:/home/tienluong/workspace/atlantis_fw/platform/common/lightheader/src/protobuf-c.c **** 			((const char *) message) + field->quantifier_offset;
 653:/home/tienluong/workspace/atlantis_fw/platform/common/lightheader/src/protobuf-c.c **** 
 654:/home/tienluong/workspace/atlantis_fw/platform/common/lightheader/src/protobuf-c.c **** 		if (field->label == PROTOBUF_C_LABEL_REQUIRED) {
 655:/home/tienluong/workspace/atlantis_fw/platform/common/lightheader/src/protobuf-c.c **** 			rv += required_field_get_packed_size(field, member);
 656:/home/tienluong/workspace/atlantis_fw/platform/common/lightheader/src/protobuf-c.c **** 		} else if (field->label == PROTOBUF_C_LABEL_OPTIONAL) {
 657:/home/tienluong/workspace/atlantis_fw/platform/common/lightheader/src/protobuf-c.c **** 			if (0 != (field->flags & PROTOBUF_C_FIELD_FLAG_ONEOF))
 658:/home/tienluong/workspace/atlantis_fw/platform/common/lightheader/src/protobuf-c.c **** 				rv += oneof_field_get_packed_size(field, qmember, member);
 659:/home/tienluong/workspace/atlantis_fw/platform/common/lightheader/src/protobuf-c.c **** 			else
 660:/home/tienluong/workspace/atlantis_fw/platform/common/lightheader/src/protobuf-c.c **** 				rv += optional_field_get_packed_size(field, qmember, member);
 661:/home/tienluong/workspace/atlantis_fw/platform/common/lightheader/src/protobuf-c.c **** 		} else {
 662:/home/tienluong/workspace/atlantis_fw/platform/common/lightheader/src/protobuf-c.c **** 			rv += repeated_field_get_packed_size(
 663:/home/tienluong/workspace/atlantis_fw/platform/common/lightheader/src/protobuf-c.c **** 				field,
 664:/home/tienluong/workspace/atlantis_fw/platform/common/lightheader/src/protobuf-c.c **** 				*(const size_t *) qmember,
 665:/home/tienluong/workspace/atlantis_fw/platform/common/lightheader/src/protobuf-c.c **** 				member
 666:/home/tienluong/workspace/atlantis_fw/platform/common/lightheader/src/protobuf-c.c **** 			);
 667:/home/tienluong/workspace/atlantis_fw/platform/common/lightheader/src/protobuf-c.c **** 		}
 668:/home/tienluong/workspace/atlantis_fw/platform/common/lightheader/src/protobuf-c.c **** 	}
 669:/home/tienluong/workspace/atlantis_fw/platform/common/lightheader/src/protobuf-c.c **** 	for (i = 0; i < message->n_unknown_fields; i++)
 670:/home/tienluong/workspace/atlantis_fw/platform/common/lightheader/src/protobuf-c.c **** 		rv += unknown_field_get_packed_size(&message->unknown_fields[i]);
 671:/home/tienluong/workspace/atlantis_fw/platform/common/lightheader/src/protobuf-c.c **** 	return rv;
 672:/home/tienluong/workspace/atlantis_fw/platform/common/lightheader/src/protobuf-c.c **** }
 673:/home/tienluong/workspace/atlantis_fw/platform/common/lightheader/src/protobuf-c.c **** 
 674:/home/tienluong/workspace/atlantis_fw/platform/common/lightheader/src/protobuf-c.c **** /**
 675:/home/tienluong/workspace/atlantis_fw/platform/common/lightheader/src/protobuf-c.c ****  * \defgroup pack protobuf_c_message_pack() implementation
 676:/home/tienluong/workspace/atlantis_fw/platform/common/lightheader/src/protobuf-c.c ****  *
 677:/home/tienluong/workspace/atlantis_fw/platform/common/lightheader/src/protobuf-c.c ****  * Routines mainly used by protobuf_c_message_pack().
 678:/home/tienluong/workspace/atlantis_fw/platform/common/lightheader/src/protobuf-c.c ****  *
 679:/home/tienluong/workspace/atlantis_fw/platform/common/lightheader/src/protobuf-c.c ****  * \ingroup internal
 680:/home/tienluong/workspace/atlantis_fw/platform/common/lightheader/src/protobuf-c.c ****  * @{
 681:/home/tienluong/workspace/atlantis_fw/platform/common/lightheader/src/protobuf-c.c ****  */
 682:/home/tienluong/workspace/atlantis_fw/platform/common/lightheader/src/protobuf-c.c **** 
 683:/home/tienluong/workspace/atlantis_fw/platform/common/lightheader/src/protobuf-c.c **** /**
 684:/home/tienluong/workspace/atlantis_fw/platform/common/lightheader/src/protobuf-c.c ****  * Pack an unsigned 32-bit integer in base-128 varint encoding and return the
 685:/home/tienluong/workspace/atlantis_fw/platform/common/lightheader/src/protobuf-c.c ****  * number of bytes written, which must be 5 or less.
 686:/home/tienluong/workspace/atlantis_fw/platform/common/lightheader/src/protobuf-c.c ****  *
 687:/home/tienluong/workspace/atlantis_fw/platform/common/lightheader/src/protobuf-c.c ****  * \param value
 688:/home/tienluong/workspace/atlantis_fw/platform/common/lightheader/src/protobuf-c.c ****  *      Value to encode.
 689:/home/tienluong/workspace/atlantis_fw/platform/common/lightheader/src/protobuf-c.c ****  * \param[out] out
 690:/home/tienluong/workspace/atlantis_fw/platform/common/lightheader/src/protobuf-c.c ****  *      Packed value.
 691:/home/tienluong/workspace/atlantis_fw/platform/common/lightheader/src/protobuf-c.c ****  * \return
 692:/home/tienluong/workspace/atlantis_fw/platform/common/lightheader/src/protobuf-c.c ****  *      Number of bytes written to `out`.
 693:/home/tienluong/workspace/atlantis_fw/platform/common/lightheader/src/protobuf-c.c ****  */
 694:/home/tienluong/workspace/atlantis_fw/platform/common/lightheader/src/protobuf-c.c **** LIGHT_HEADER_STATIC static inline size_t
 695:/home/tienluong/workspace/atlantis_fw/platform/common/lightheader/src/protobuf-c.c **** uint32_pack(uint32_t value, uint8_t *out)
 696:/home/tienluong/workspace/atlantis_fw/platform/common/lightheader/src/protobuf-c.c **** {
  74              		.loc 1 696 0
  75              		.cfi_startproc
  76              		@ args = 0, pretend = 0, frame = 0
  77              		@ frame_needed = 0, uses_anonymous_args = 0
  78              		@ link register save eliminated.
  79              	.LVL6:
 697:/home/tienluong/workspace/atlantis_fw/platform/common/lightheader/src/protobuf-c.c **** 	unsigned rv = 0;
 698:/home/tienluong/workspace/atlantis_fw/platform/common/lightheader/src/protobuf-c.c **** 
 699:/home/tienluong/workspace/atlantis_fw/platform/common/lightheader/src/protobuf-c.c **** 	if (value >= 0x80) {
  80              		.loc 1 699 0
  81 0000 7F28     		cmp	r0, #127
  82 0002 17D9     		bls	.L7
  83              	.LVL7:
 700:/home/tienluong/workspace/atlantis_fw/platform/common/lightheader/src/protobuf-c.c **** 		out[rv++] = value | 0x80;
  84              		.loc 1 700 0
  85 0004 60F07F03 		orn	r3, r0, #127
 701:/home/tienluong/workspace/atlantis_fw/platform/common/lightheader/src/protobuf-c.c **** 		value >>= 7;
  86              		.loc 1 701 0
  87 0008 C009     		lsrs	r0, r0, #7
  88              	.LVL8:
 702:/home/tienluong/workspace/atlantis_fw/platform/common/lightheader/src/protobuf-c.c **** 		if (value >= 0x80) {
  89              		.loc 1 702 0
  90 000a 7F28     		cmp	r0, #127
 700:/home/tienluong/workspace/atlantis_fw/platform/common/lightheader/src/protobuf-c.c **** 		out[rv++] = value | 0x80;
  91              		.loc 1 700 0
  92 000c 0B70     		strb	r3, [r1]
  93              		.loc 1 702 0
  94 000e 13D9     		bls	.L8
  95              	.LVL9:
 703:/home/tienluong/workspace/atlantis_fw/platform/common/lightheader/src/protobuf-c.c **** 			out[rv++] = value | 0x80;
  96              		.loc 1 703 0
  97 0010 60F07F03 		orn	r3, r0, #127
 704:/home/tienluong/workspace/atlantis_fw/platform/common/lightheader/src/protobuf-c.c **** 			value >>= 7;
  98              		.loc 1 704 0
  99 0014 C009     		lsrs	r0, r0, #7
 100              	.LVL10:
 705:/home/tienluong/workspace/atlantis_fw/platform/common/lightheader/src/protobuf-c.c **** 			if (value >= 0x80) {
 101              		.loc 1 705 0
 102 0016 7F28     		cmp	r0, #127
 703:/home/tienluong/workspace/atlantis_fw/platform/common/lightheader/src/protobuf-c.c **** 			out[rv++] = value | 0x80;
 103              		.loc 1 703 0
 104 0018 4B70     		strb	r3, [r1, #1]
 105              		.loc 1 705 0
 106 001a 0FD9     		bls	.L9
 107              	.LVL11:
 706:/home/tienluong/workspace/atlantis_fw/platform/common/lightheader/src/protobuf-c.c **** 				out[rv++] = value | 0x80;
 108              		.loc 1 706 0
 109 001c 60F07F03 		orn	r3, r0, #127
 707:/home/tienluong/workspace/atlantis_fw/platform/common/lightheader/src/protobuf-c.c **** 				value >>= 7;
 110              		.loc 1 707 0
 111 0020 C009     		lsrs	r0, r0, #7
 112              	.LVL12:
 708:/home/tienluong/workspace/atlantis_fw/platform/common/lightheader/src/protobuf-c.c **** 				if (value >= 0x80) {
 113              		.loc 1 708 0
 114 0022 7F28     		cmp	r0, #127
 706:/home/tienluong/workspace/atlantis_fw/platform/common/lightheader/src/protobuf-c.c **** 				out[rv++] = value | 0x80;
 115              		.loc 1 706 0
 116 0024 8B70     		strb	r3, [r1, #2]
 117              		.loc 1 708 0
 118 0026 0BD9     		bls	.L10
 119              	.LVL13:
 709:/home/tienluong/workspace/atlantis_fw/platform/common/lightheader/src/protobuf-c.c **** 					out[rv++] = value | 0x80;
 120              		.loc 1 709 0
 121 0028 60F07F03 		orn	r3, r0, #127
 710:/home/tienluong/workspace/atlantis_fw/platform/common/lightheader/src/protobuf-c.c **** 					value >>= 7;
 122              		.loc 1 710 0
 123 002c C009     		lsrs	r0, r0, #7
 124              	.LVL14:
 709:/home/tienluong/workspace/atlantis_fw/platform/common/lightheader/src/protobuf-c.c **** 					out[rv++] = value | 0x80;
 125              		.loc 1 709 0
 126 002e CB70     		strb	r3, [r1, #3]
 127 0030 0423     		movs	r3, #4
 128 0032 06E0     		b	.L6
 129              	.LVL15:
 130              	.L7:
 697:/home/tienluong/workspace/atlantis_fw/platform/common/lightheader/src/protobuf-c.c **** 
 131              		.loc 1 697 0
 132 0034 0023     		movs	r3, #0
 133 0036 04E0     		b	.L6
 134              	.LVL16:
 135              	.L8:
 700:/home/tienluong/workspace/atlantis_fw/platform/common/lightheader/src/protobuf-c.c **** 		value >>= 7;
 136              		.loc 1 700 0
 137 0038 0123     		movs	r3, #1
 138 003a 02E0     		b	.L6
 139              	.LVL17:
 140              	.L9:
 703:/home/tienluong/workspace/atlantis_fw/platform/common/lightheader/src/protobuf-c.c **** 			value >>= 7;
 141              		.loc 1 703 0
 142 003c 0223     		movs	r3, #2
 143 003e 00E0     		b	.L6
 144              	.LVL18:
 145              	.L10:
 706:/home/tienluong/workspace/atlantis_fw/platform/common/lightheader/src/protobuf-c.c **** 				value >>= 7;
 146              		.loc 1 706 0
 147 0040 0323     		movs	r3, #3
 148              	.LVL19:
 149              	.L6:
 711:/home/tienluong/workspace/atlantis_fw/platform/common/lightheader/src/protobuf-c.c **** 				}
 712:/home/tienluong/workspace/atlantis_fw/platform/common/lightheader/src/protobuf-c.c **** 			}
 713:/home/tienluong/workspace/atlantis_fw/platform/common/lightheader/src/protobuf-c.c **** 		}
 714:/home/tienluong/workspace/atlantis_fw/platform/common/lightheader/src/protobuf-c.c **** 	}
 715:/home/tienluong/workspace/atlantis_fw/platform/common/lightheader/src/protobuf-c.c **** 	/* assert: value<128 */
 716:/home/tienluong/workspace/atlantis_fw/platform/common/lightheader/src/protobuf-c.c **** 	out[rv++] = value;
 150              		.loc 1 716 0
 151 0042 C854     		strb	r0, [r1, r3]
 717:/home/tienluong/workspace/atlantis_fw/platform/common/lightheader/src/protobuf-c.c **** 	return rv;
 718:/home/tienluong/workspace/atlantis_fw/platform/common/lightheader/src/protobuf-c.c **** }
 152              		.loc 1 718 0
 153 0044 581C     		adds	r0, r3, #1
 154              	.LVL20:
 155 0046 7047     		bx	lr
 156              		.cfi_endproc
 157              	.LFE22:
 159              		.section	.text.sint32_pack,"ax",%progbits
 160              		.align	1
 161              		.thumb
 162              		.thumb_func
 164              	sint32_pack:
 165              	.LFB24:
 719:/home/tienluong/workspace/atlantis_fw/platform/common/lightheader/src/protobuf-c.c **** 
 720:/home/tienluong/workspace/atlantis_fw/platform/common/lightheader/src/protobuf-c.c **** /**
 721:/home/tienluong/workspace/atlantis_fw/platform/common/lightheader/src/protobuf-c.c ****  * Pack a signed 32-bit integer and return the number of bytes written.
 722:/home/tienluong/workspace/atlantis_fw/platform/common/lightheader/src/protobuf-c.c ****  * Negative numbers are encoded as two's complement 64-bit integers.
 723:/home/tienluong/workspace/atlantis_fw/platform/common/lightheader/src/protobuf-c.c ****  *
 724:/home/tienluong/workspace/atlantis_fw/platform/common/lightheader/src/protobuf-c.c ****  * \param value
 725:/home/tienluong/workspace/atlantis_fw/platform/common/lightheader/src/protobuf-c.c ****  *      Value to encode.
 726:/home/tienluong/workspace/atlantis_fw/platform/common/lightheader/src/protobuf-c.c ****  * \param[out] out
 727:/home/tienluong/workspace/atlantis_fw/platform/common/lightheader/src/protobuf-c.c ****  *      Packed value.
 728:/home/tienluong/workspace/atlantis_fw/platform/common/lightheader/src/protobuf-c.c ****  * \return
 729:/home/tienluong/workspace/atlantis_fw/platform/common/lightheader/src/protobuf-c.c ****  *      Number of bytes written to `out`.
 730:/home/tienluong/workspace/atlantis_fw/platform/common/lightheader/src/protobuf-c.c ****  */
 731:/home/tienluong/workspace/atlantis_fw/platform/common/lightheader/src/protobuf-c.c **** LIGHT_HEADER_STATIC static inline size_t
 732:/home/tienluong/workspace/atlantis_fw/platform/common/lightheader/src/protobuf-c.c **** int32_pack(int32_t value, uint8_t *out)
 733:/home/tienluong/workspace/atlantis_fw/platform/common/lightheader/src/protobuf-c.c **** {
 734:/home/tienluong/workspace/atlantis_fw/platform/common/lightheader/src/protobuf-c.c **** 	if (value < 0) {
 735:/home/tienluong/workspace/atlantis_fw/platform/common/lightheader/src/protobuf-c.c **** 		out[0] = value | 0x80;
 736:/home/tienluong/workspace/atlantis_fw/platform/common/lightheader/src/protobuf-c.c **** 		out[1] = (value >> 7) | 0x80;
 737:/home/tienluong/workspace/atlantis_fw/platform/common/lightheader/src/protobuf-c.c **** 		out[2] = (value >> 14) | 0x80;
 738:/home/tienluong/workspace/atlantis_fw/platform/common/lightheader/src/protobuf-c.c **** 		out[3] = (value >> 21) | 0x80;
 739:/home/tienluong/workspace/atlantis_fw/platform/common/lightheader/src/protobuf-c.c **** 		out[4] = (value >> 28) | 0x80;
 740:/home/tienluong/workspace/atlantis_fw/platform/common/lightheader/src/protobuf-c.c **** 		out[5] = out[6] = out[7] = out[8] = 0xff;
 741:/home/tienluong/workspace/atlantis_fw/platform/common/lightheader/src/protobuf-c.c **** 		out[9] = 0x01;
 742:/home/tienluong/workspace/atlantis_fw/platform/common/lightheader/src/protobuf-c.c **** 		return 10;
 743:/home/tienluong/workspace/atlantis_fw/platform/common/lightheader/src/protobuf-c.c **** 	} else {
 744:/home/tienluong/workspace/atlantis_fw/platform/common/lightheader/src/protobuf-c.c **** 		return uint32_pack(value, out);
 745:/home/tienluong/workspace/atlantis_fw/platform/common/lightheader/src/protobuf-c.c **** 	}
 746:/home/tienluong/workspace/atlantis_fw/platform/common/lightheader/src/protobuf-c.c **** }
 747:/home/tienluong/workspace/atlantis_fw/platform/common/lightheader/src/protobuf-c.c **** 
 748:/home/tienluong/workspace/atlantis_fw/platform/common/lightheader/src/protobuf-c.c **** /**
 749:/home/tienluong/workspace/atlantis_fw/platform/common/lightheader/src/protobuf-c.c ****  * Pack a signed 32-bit integer using ZigZag encoding and return the number of
 750:/home/tienluong/workspace/atlantis_fw/platform/common/lightheader/src/protobuf-c.c ****  * bytes written.
 751:/home/tienluong/workspace/atlantis_fw/platform/common/lightheader/src/protobuf-c.c ****  *
 752:/home/tienluong/workspace/atlantis_fw/platform/common/lightheader/src/protobuf-c.c ****  * \param value
 753:/home/tienluong/workspace/atlantis_fw/platform/common/lightheader/src/protobuf-c.c ****  *      Value to encode.
 754:/home/tienluong/workspace/atlantis_fw/platform/common/lightheader/src/protobuf-c.c ****  * \param[out] out
 755:/home/tienluong/workspace/atlantis_fw/platform/common/lightheader/src/protobuf-c.c ****  *      Packed value.
 756:/home/tienluong/workspace/atlantis_fw/platform/common/lightheader/src/protobuf-c.c ****  * \return
 757:/home/tienluong/workspace/atlantis_fw/platform/common/lightheader/src/protobuf-c.c ****  *      Number of bytes written to `out`.
 758:/home/tienluong/workspace/atlantis_fw/platform/common/lightheader/src/protobuf-c.c ****  */
 759:/home/tienluong/workspace/atlantis_fw/platform/common/lightheader/src/protobuf-c.c **** LIGHT_HEADER_STATIC static inline size_t
 760:/home/tienluong/workspace/atlantis_fw/platform/common/lightheader/src/protobuf-c.c **** sint32_pack(int32_t value, uint8_t *out)
 761:/home/tienluong/workspace/atlantis_fw/platform/common/lightheader/src/protobuf-c.c **** {
 166              		.loc 1 761 0
 167              		.cfi_startproc
 168              		@ args = 0, pretend = 0, frame = 0
 169              		@ frame_needed = 0, uses_anonymous_args = 0
 170              	.LVL21:
 171              	.LBB86:
 172              	.LBB87:
 315:/home/tienluong/workspace/atlantis_fw/platform/common/lightheader/src/protobuf-c.c **** 		return (-(uint32_t)v) * 2 - 1;
 173              		.loc 1 315 0
 174 0000 0028     		cmp	r0, #0
 175              	.LBE87:
 176              	.LBE86:
 177              		.loc 1 761 0
 178 0002 08B5     		push	{r3, lr}
 179              	.LCFI0:
 180              		.cfi_def_cfa_offset 8
 181              		.cfi_offset 3, -8
 182              		.cfi_offset 14, -4
 183              	.LBB89:
 184              	.LBB88:
 316:/home/tienluong/workspace/atlantis_fw/platform/common/lightheader/src/protobuf-c.c **** 	else
 185              		.loc 1 316 0
 186 0004 B4BF     		ite	lt
 187 0006 6FEA4000 		mvnlt	r0, r0, lsl #1
 188              	.LVL22:
 318:/home/tienluong/workspace/atlantis_fw/platform/common/lightheader/src/protobuf-c.c **** }
 189              		.loc 1 318 0
 190 000a 4000     		lslge	r0, r0, #1
 191              	.LBE88:
 192              	.LBE89:
 762:/home/tienluong/workspace/atlantis_fw/platform/common/lightheader/src/protobuf-c.c **** 	return uint32_pack(zigzag32(value), out);
 193              		.loc 1 762 0
 194 000c 014B     		ldr	r3, .L14
 195 000e 9847     		blx	r3
 196              	.LVL23:
 763:/home/tienluong/workspace/atlantis_fw/platform/common/lightheader/src/protobuf-c.c **** }
 197              		.loc 1 763 0
 198 0010 08BD     		pop	{r3, pc}
 199              	.L15:
 200 0012 00BF     		.align	2
 201              	.L14:
 202 0014 00000000 		.word	uint32_pack
 203              		.cfi_endproc
 204              	.LFE24:
 206              		.section	.text.uint64_pack,"ax",%progbits
 207              		.align	1
 208              		.thumb
 209              		.thumb_func
 211              	uint64_pack:
 212              	.LFB25:
 764:/home/tienluong/workspace/atlantis_fw/platform/common/lightheader/src/protobuf-c.c **** 
 765:/home/tienluong/workspace/atlantis_fw/platform/common/lightheader/src/protobuf-c.c **** /**
 766:/home/tienluong/workspace/atlantis_fw/platform/common/lightheader/src/protobuf-c.c ****  * Pack a 64-bit unsigned integer using base-128 varint encoding and return the
 767:/home/tienluong/workspace/atlantis_fw/platform/common/lightheader/src/protobuf-c.c ****  * number of bytes written.
 768:/home/tienluong/workspace/atlantis_fw/platform/common/lightheader/src/protobuf-c.c ****  *
 769:/home/tienluong/workspace/atlantis_fw/platform/common/lightheader/src/protobuf-c.c ****  * \param value
 770:/home/tienluong/workspace/atlantis_fw/platform/common/lightheader/src/protobuf-c.c ****  *      Value to encode.
 771:/home/tienluong/workspace/atlantis_fw/platform/common/lightheader/src/protobuf-c.c ****  * \param[out] out
 772:/home/tienluong/workspace/atlantis_fw/platform/common/lightheader/src/protobuf-c.c ****  *      Packed value.
 773:/home/tienluong/workspace/atlantis_fw/platform/common/lightheader/src/protobuf-c.c ****  * \return
 774:/home/tienluong/workspace/atlantis_fw/platform/common/lightheader/src/protobuf-c.c ****  *      Number of bytes written to `out`.
 775:/home/tienluong/workspace/atlantis_fw/platform/common/lightheader/src/protobuf-c.c ****  */
 776:/home/tienluong/workspace/atlantis_fw/platform/common/lightheader/src/protobuf-c.c **** LIGHT_HEADER_STATIC static size_t
 777:/home/tienluong/workspace/atlantis_fw/platform/common/lightheader/src/protobuf-c.c **** uint64_pack(uint64_t value, uint8_t *out)
 778:/home/tienluong/workspace/atlantis_fw/platform/common/lightheader/src/protobuf-c.c **** {
 213              		.loc 1 778 0
 214              		.cfi_startproc
 215              		@ args = 0, pretend = 0, frame = 0
 216              		@ frame_needed = 0, uses_anonymous_args = 0
 217              	.LVL24:
 218 0000 08B5     		push	{r3, lr}
 219              	.LCFI1:
 220              		.cfi_def_cfa_offset 8
 221              		.cfi_offset 3, -8
 222              		.cfi_offset 14, -4
 223              		.loc 1 778 0
 224 0002 0346     		mov	r3, r0
 779:/home/tienluong/workspace/atlantis_fw/platform/common/lightheader/src/protobuf-c.c **** 	uint32_t hi = (uint32_t) (value >> 32);
 780:/home/tienluong/workspace/atlantis_fw/platform/common/lightheader/src/protobuf-c.c **** 	uint32_t lo = (uint32_t) value;
 781:/home/tienluong/workspace/atlantis_fw/platform/common/lightheader/src/protobuf-c.c **** 	unsigned rv;
 782:/home/tienluong/workspace/atlantis_fw/platform/common/lightheader/src/protobuf-c.c **** 
 783:/home/tienluong/workspace/atlantis_fw/platform/common/lightheader/src/protobuf-c.c **** 	if (hi == 0)
 225              		.loc 1 783 0
 226 0004 19B9     		cbnz	r1, .L17
 784:/home/tienluong/workspace/atlantis_fw/platform/common/lightheader/src/protobuf-c.c **** 		return uint32_pack((uint32_t) lo, out);
 227              		.loc 1 784 0
 228 0006 1146     		mov	r1, r2
 229              	.LVL25:
 230 0008 194B     		ldr	r3, .L23
 231 000a 9847     		blx	r3
 232              	.LVL26:
 233 000c 08BD     		pop	{r3, pc}
 234              	.LVL27:
 235              	.L17:
 785:/home/tienluong/workspace/atlantis_fw/platform/common/lightheader/src/protobuf-c.c **** 	out[0] = (lo) | 0x80;
 236              		.loc 1 785 0
 237 000e 60F07F00 		orn	r0, r0, #127
 238              	.LVL28:
 786:/home/tienluong/workspace/atlantis_fw/platform/common/lightheader/src/protobuf-c.c **** 	out[1] = (lo >> 7) | 0x80;
 787:/home/tienluong/workspace/atlantis_fw/platform/common/lightheader/src/protobuf-c.c **** 	out[2] = (lo >> 14) | 0x80;
 788:/home/tienluong/workspace/atlantis_fw/platform/common/lightheader/src/protobuf-c.c **** 	out[3] = (lo >> 21) | 0x80;
 789:/home/tienluong/workspace/atlantis_fw/platform/common/lightheader/src/protobuf-c.c **** 	if (hi < 8) {
 239              		.loc 1 789 0
 240 0012 0729     		cmp	r1, #7
 785:/home/tienluong/workspace/atlantis_fw/platform/common/lightheader/src/protobuf-c.c **** 	out[0] = (lo) | 0x80;
 241              		.loc 1 785 0
 242 0014 1070     		strb	r0, [r2]
 786:/home/tienluong/workspace/atlantis_fw/platform/common/lightheader/src/protobuf-c.c **** 	out[1] = (lo >> 7) | 0x80;
 243              		.loc 1 786 0
 244 0016 4FEAD310 		lsr	r0, r3, #7
 245 001a 60F07F00 		orn	r0, r0, #127
 246 001e 5070     		strb	r0, [r2, #1]
 787:/home/tienluong/workspace/atlantis_fw/platform/common/lightheader/src/protobuf-c.c **** 	out[3] = (lo >> 21) | 0x80;
 247              		.loc 1 787 0
 248 0020 4FEA9330 		lsr	r0, r3, #14
 249 0024 60F07F00 		orn	r0, r0, #127
 250 0028 9070     		strb	r0, [r2, #2]
 788:/home/tienluong/workspace/atlantis_fw/platform/common/lightheader/src/protobuf-c.c **** 	if (hi < 8) {
 251              		.loc 1 788 0
 252 002a 4FEA5350 		lsr	r0, r3, #21
 253 002e 60F07F00 		orn	r0, r0, #127
 254 0032 4FEA1373 		lsr	r3, r3, #28
 255              	.LVL29:
 256 0036 D070     		strb	r0, [r2, #3]
 257              		.loc 1 789 0
 258 0038 04D8     		bhi	.L19
 790:/home/tienluong/workspace/atlantis_fw/platform/common/lightheader/src/protobuf-c.c **** 		out[4] = (hi << 4) | (lo >> 28);
 259              		.loc 1 790 0
 260 003a 43EA0113 		orr	r3, r3, r1, lsl #4
 791:/home/tienluong/workspace/atlantis_fw/platform/common/lightheader/src/protobuf-c.c **** 		return 5;
 261              		.loc 1 791 0
 262 003e 0520     		movs	r0, #5
 790:/home/tienluong/workspace/atlantis_fw/platform/common/lightheader/src/protobuf-c.c **** 		out[4] = (hi << 4) | (lo >> 28);
 263              		.loc 1 790 0
 264 0040 1371     		strb	r3, [r2, #4]
 265              		.loc 1 791 0
 266 0042 08BD     		pop	{r3, pc}
 267              	.L19:
 792:/home/tienluong/workspace/atlantis_fw/platform/common/lightheader/src/protobuf-c.c **** 	} else {
 793:/home/tienluong/workspace/atlantis_fw/platform/common/lightheader/src/protobuf-c.c **** 		out[4] = ((hi & 7) << 4) | (lo >> 28) | 0x80;
 268              		.loc 1 793 0
 269 0044 01F00700 		and	r0, r1, #7
 270 0048 63F07F03 		orn	r3, r3, #127
 271 004c 43EA0013 		orr	r3, r3, r0, lsl #4
 272 0050 1371     		strb	r3, [r2, #4]
 794:/home/tienluong/workspace/atlantis_fw/platform/common/lightheader/src/protobuf-c.c **** 		hi >>= 3;
 273              		.loc 1 794 0
 274 0052 CB08     		lsrs	r3, r1, #3
 275              	.LVL30:
 276 0054 511D     		adds	r1, r2, #5
 277              	.LVL31:
 278              	.L20:
 795:/home/tienluong/workspace/atlantis_fw/platform/common/lightheader/src/protobuf-c.c **** 	}
 796:/home/tienluong/workspace/atlantis_fw/platform/common/lightheader/src/protobuf-c.c **** 	rv = 5;
 797:/home/tienluong/workspace/atlantis_fw/platform/common/lightheader/src/protobuf-c.c **** 	while (hi >= 128) {
 279              		.loc 1 797 0
 280 0056 7F2B     		cmp	r3, #127
 281 0058 A1EB0200 		sub	r0, r1, r2
 282              	.LVL32:
 283 005c 05D9     		bls	.L22
 284              	.LVL33:
 798:/home/tienluong/workspace/atlantis_fw/platform/common/lightheader/src/protobuf-c.c **** 		out[rv++] = hi | 0x80;
 285              		.loc 1 798 0
 286 005e 63F07F00 		orn	r0, r3, #127
 799:/home/tienluong/workspace/atlantis_fw/platform/common/lightheader/src/protobuf-c.c **** 		hi >>= 7;
 287              		.loc 1 799 0
 288 0062 DB09     		lsrs	r3, r3, #7
 289              	.LVL34:
 798:/home/tienluong/workspace/atlantis_fw/platform/common/lightheader/src/protobuf-c.c **** 		out[rv++] = hi | 0x80;
 290              		.loc 1 798 0
 291 0064 01F8010B 		strb	r0, [r1], #1
 292 0068 F5E7     		b	.L20
 293              	.LVL35:
 294              	.L22:
 800:/home/tienluong/workspace/atlantis_fw/platform/common/lightheader/src/protobuf-c.c **** 	}
 801:/home/tienluong/workspace/atlantis_fw/platform/common/lightheader/src/protobuf-c.c **** 	out[rv++] = hi;
 295              		.loc 1 801 0
 296 006a 1354     		strb	r3, [r2, r0]
 802:/home/tienluong/workspace/atlantis_fw/platform/common/lightheader/src/protobuf-c.c **** 	return rv;
 297              		.loc 1 802 0
 298 006c 0130     		adds	r0, r0, #1
 299              	.LVL36:
 803:/home/tienluong/workspace/atlantis_fw/platform/common/lightheader/src/protobuf-c.c **** }
 300              		.loc 1 803 0
 301 006e 08BD     		pop	{r3, pc}
 302              	.LVL37:
 303              	.L24:
 304              		.align	2
 305              	.L23:
 306 0070 00000000 		.word	uint32_pack
 307              		.cfi_endproc
 308              	.LFE25:
 310              		.section	.text.sint64_pack,"ax",%progbits
 311              		.align	1
 312              		.thumb
 313              		.thumb_func
 315              	sint64_pack:
 316              	.LFB26:
 804:/home/tienluong/workspace/atlantis_fw/platform/common/lightheader/src/protobuf-c.c **** 
 805:/home/tienluong/workspace/atlantis_fw/platform/common/lightheader/src/protobuf-c.c **** /**
 806:/home/tienluong/workspace/atlantis_fw/platform/common/lightheader/src/protobuf-c.c ****  * Pack a 64-bit signed integer in ZigZag encoding and return the number of
 807:/home/tienluong/workspace/atlantis_fw/platform/common/lightheader/src/protobuf-c.c ****  * bytes written.
 808:/home/tienluong/workspace/atlantis_fw/platform/common/lightheader/src/protobuf-c.c ****  *
 809:/home/tienluong/workspace/atlantis_fw/platform/common/lightheader/src/protobuf-c.c ****  * \param value
 810:/home/tienluong/workspace/atlantis_fw/platform/common/lightheader/src/protobuf-c.c ****  *      Value to encode.
 811:/home/tienluong/workspace/atlantis_fw/platform/common/lightheader/src/protobuf-c.c ****  * \param[out] out
 812:/home/tienluong/workspace/atlantis_fw/platform/common/lightheader/src/protobuf-c.c ****  *      Packed value.
 813:/home/tienluong/workspace/atlantis_fw/platform/common/lightheader/src/protobuf-c.c ****  * \return
 814:/home/tienluong/workspace/atlantis_fw/platform/common/lightheader/src/protobuf-c.c ****  *      Number of bytes written to `out`.
 815:/home/tienluong/workspace/atlantis_fw/platform/common/lightheader/src/protobuf-c.c ****  */
 816:/home/tienluong/workspace/atlantis_fw/platform/common/lightheader/src/protobuf-c.c **** LIGHT_HEADER_STATIC static inline size_t
 817:/home/tienluong/workspace/atlantis_fw/platform/common/lightheader/src/protobuf-c.c **** sint64_pack(int64_t value, uint8_t *out)
 818:/home/tienluong/workspace/atlantis_fw/platform/common/lightheader/src/protobuf-c.c **** {
 317              		.loc 1 818 0
 318              		.cfi_startproc
 319              		@ args = 0, pretend = 0, frame = 0
 320              		@ frame_needed = 0, uses_anonymous_args = 0
 321              	.LVL38:
 322              	.LBB90:
 323              	.LBB91:
 380:/home/tienluong/workspace/atlantis_fw/platform/common/lightheader/src/protobuf-c.c **** 		return (-(uint64_t)v) * 2 - 1;
 324              		.loc 1 380 0
 325 0000 0028     		cmp	r0, #0
 326 0002 71F10003 		sbcs	r3, r1, #0
 327              	.LBE91:
 328              	.LBE90:
 329              		.loc 1 818 0
 330 0006 10B5     		push	{r4, lr}
 331              	.LCFI2:
 332              		.cfi_def_cfa_offset 8
 333              		.cfi_offset 4, -8
 334              		.cfi_offset 14, -4
 335              	.LBB93:
 336              	.LBB92:
 380:/home/tienluong/workspace/atlantis_fw/platform/common/lightheader/src/protobuf-c.c **** 		return (-(uint64_t)v) * 2 - 1;
 337              		.loc 1 380 0
 338 0008 0CDA     		bge	.L26
 381:/home/tienluong/workspace/atlantis_fw/platform/common/lightheader/src/protobuf-c.c **** 	else
 339              		.loc 1 381 0
 340 000a 6FF00104 		mvn	r4, #1
 341 000e 4342     		negs	r3, r0
 342 0010 04FB0133 		mla	r3, r4, r1, r3
 343 0014 A0FB0401 		umull	r0, r1, r0, r4
 344              	.LVL39:
 345 0018 1944     		add	r1, r1, r3
 346 001a 10F1FF30 		adds	r0, r0, #-1
 347 001e 41F1FF31 		adc	r1, r1, #-1
 348 0022 01E0     		b	.L27
 349              	.LVL40:
 350              	.L26:
 383:/home/tienluong/workspace/atlantis_fw/platform/common/lightheader/src/protobuf-c.c **** }
 351              		.loc 1 383 0
 352 0024 0018     		adds	r0, r0, r0
 353              	.LVL41:
 354 0026 4941     		adcs	r1, r1, r1
 355              	.L27:
 356              	.LBE92:
 357              	.LBE93:
 819:/home/tienluong/workspace/atlantis_fw/platform/common/lightheader/src/protobuf-c.c **** 	return uint64_pack(zigzag64(value), out);
 358              		.loc 1 819 0
 359 0028 014B     		ldr	r3, .L28
 360 002a 9847     		blx	r3
 361              	.LVL42:
 820:/home/tienluong/workspace/atlantis_fw/platform/common/lightheader/src/protobuf-c.c **** }
 362              		.loc 1 820 0
 363 002c 10BD     		pop	{r4, pc}
 364              	.L29:
 365 002e 00BF     		.align	2
 366              	.L28:
 367 0030 00000000 		.word	uint64_pack
 368              		.cfi_endproc
 369              	.LFE26:
 371              		.section	.text.int_range_lookup,"ax",%progbits
 372              		.align	1
 373              		.thumb
 374              		.thumb_func
 376              	int_range_lookup:
 377              	.LFB52:
 821:/home/tienluong/workspace/atlantis_fw/platform/common/lightheader/src/protobuf-c.c **** 
 822:/home/tienluong/workspace/atlantis_fw/platform/common/lightheader/src/protobuf-c.c **** /**
 823:/home/tienluong/workspace/atlantis_fw/platform/common/lightheader/src/protobuf-c.c ****  * Pack a 32-bit quantity in little-endian byte order. Used for protobuf wire
 824:/home/tienluong/workspace/atlantis_fw/platform/common/lightheader/src/protobuf-c.c ****  * types fixed32, sfixed32, float. Similar to "htole32".
 825:/home/tienluong/workspace/atlantis_fw/platform/common/lightheader/src/protobuf-c.c ****  *
 826:/home/tienluong/workspace/atlantis_fw/platform/common/lightheader/src/protobuf-c.c ****  * \param value
 827:/home/tienluong/workspace/atlantis_fw/platform/common/lightheader/src/protobuf-c.c ****  *      Value to encode.
 828:/home/tienluong/workspace/atlantis_fw/platform/common/lightheader/src/protobuf-c.c ****  * \param[out] out
 829:/home/tienluong/workspace/atlantis_fw/platform/common/lightheader/src/protobuf-c.c ****  *      Packed value.
 830:/home/tienluong/workspace/atlantis_fw/platform/common/lightheader/src/protobuf-c.c ****  * \return
 831:/home/tienluong/workspace/atlantis_fw/platform/common/lightheader/src/protobuf-c.c ****  *      Number of bytes written to `out`.
 832:/home/tienluong/workspace/atlantis_fw/platform/common/lightheader/src/protobuf-c.c ****  */
 833:/home/tienluong/workspace/atlantis_fw/platform/common/lightheader/src/protobuf-c.c **** LIGHT_HEADER_STATIC static inline size_t
 834:/home/tienluong/workspace/atlantis_fw/platform/common/lightheader/src/protobuf-c.c **** fixed32_pack(uint32_t value, void *out)
 835:/home/tienluong/workspace/atlantis_fw/platform/common/lightheader/src/protobuf-c.c **** {
 836:/home/tienluong/workspace/atlantis_fw/platform/common/lightheader/src/protobuf-c.c **** #if !defined(WORDS_BIGENDIAN)
 837:/home/tienluong/workspace/atlantis_fw/platform/common/lightheader/src/protobuf-c.c **** 	memcpy(out, &value, 4);
 838:/home/tienluong/workspace/atlantis_fw/platform/common/lightheader/src/protobuf-c.c **** #else
 839:/home/tienluong/workspace/atlantis_fw/platform/common/lightheader/src/protobuf-c.c **** 	uint8_t *buf = out;
 840:/home/tienluong/workspace/atlantis_fw/platform/common/lightheader/src/protobuf-c.c **** 
 841:/home/tienluong/workspace/atlantis_fw/platform/common/lightheader/src/protobuf-c.c **** 	buf[0] = value;
 842:/home/tienluong/workspace/atlantis_fw/platform/common/lightheader/src/protobuf-c.c **** 	buf[1] = value >> 8;
 843:/home/tienluong/workspace/atlantis_fw/platform/common/lightheader/src/protobuf-c.c **** 	buf[2] = value >> 16;
 844:/home/tienluong/workspace/atlantis_fw/platform/common/lightheader/src/protobuf-c.c **** 	buf[3] = value >> 24;
 845:/home/tienluong/workspace/atlantis_fw/platform/common/lightheader/src/protobuf-c.c **** #endif
 846:/home/tienluong/workspace/atlantis_fw/platform/common/lightheader/src/protobuf-c.c **** 	return 4;
 847:/home/tienluong/workspace/atlantis_fw/platform/common/lightheader/src/protobuf-c.c **** }
 848:/home/tienluong/workspace/atlantis_fw/platform/common/lightheader/src/protobuf-c.c **** 
 849:/home/tienluong/workspace/atlantis_fw/platform/common/lightheader/src/protobuf-c.c **** /**
 850:/home/tienluong/workspace/atlantis_fw/platform/common/lightheader/src/protobuf-c.c ****  * Pack a 64-bit quantity in little-endian byte order. Used for protobuf wire
 851:/home/tienluong/workspace/atlantis_fw/platform/common/lightheader/src/protobuf-c.c ****  * types fixed64, sfixed64, double. Similar to "htole64".
 852:/home/tienluong/workspace/atlantis_fw/platform/common/lightheader/src/protobuf-c.c ****  *
 853:/home/tienluong/workspace/atlantis_fw/platform/common/lightheader/src/protobuf-c.c ****  * \todo The big-endian impl is really only good for 32-bit machines, a 64-bit
 854:/home/tienluong/workspace/atlantis_fw/platform/common/lightheader/src/protobuf-c.c ****  * version would be appreciated, plus a way to decide to use 64-bit math where
 855:/home/tienluong/workspace/atlantis_fw/platform/common/lightheader/src/protobuf-c.c ****  * convenient.
 856:/home/tienluong/workspace/atlantis_fw/platform/common/lightheader/src/protobuf-c.c ****  *
 857:/home/tienluong/workspace/atlantis_fw/platform/common/lightheader/src/protobuf-c.c ****  * \param value
 858:/home/tienluong/workspace/atlantis_fw/platform/common/lightheader/src/protobuf-c.c ****  *      Value to encode.
 859:/home/tienluong/workspace/atlantis_fw/platform/common/lightheader/src/protobuf-c.c ****  * \param[out] out
 860:/home/tienluong/workspace/atlantis_fw/platform/common/lightheader/src/protobuf-c.c ****  *      Packed value.
 861:/home/tienluong/workspace/atlantis_fw/platform/common/lightheader/src/protobuf-c.c ****  * \return
 862:/home/tienluong/workspace/atlantis_fw/platform/common/lightheader/src/protobuf-c.c ****  *      Number of bytes written to `out`.
 863:/home/tienluong/workspace/atlantis_fw/platform/common/lightheader/src/protobuf-c.c ****  */
 864:/home/tienluong/workspace/atlantis_fw/platform/common/lightheader/src/protobuf-c.c **** LIGHT_HEADER_STATIC static inline size_t
 865:/home/tienluong/workspace/atlantis_fw/platform/common/lightheader/src/protobuf-c.c **** fixed64_pack(uint64_t value, void *out)
 866:/home/tienluong/workspace/atlantis_fw/platform/common/lightheader/src/protobuf-c.c **** {
 867:/home/tienluong/workspace/atlantis_fw/platform/common/lightheader/src/protobuf-c.c **** #if !defined(WORDS_BIGENDIAN)
 868:/home/tienluong/workspace/atlantis_fw/platform/common/lightheader/src/protobuf-c.c **** 	memcpy(out, &value, 8);
 869:/home/tienluong/workspace/atlantis_fw/platform/common/lightheader/src/protobuf-c.c **** #else
 870:/home/tienluong/workspace/atlantis_fw/platform/common/lightheader/src/protobuf-c.c **** 	fixed32_pack(value, out);
 871:/home/tienluong/workspace/atlantis_fw/platform/common/lightheader/src/protobuf-c.c **** 	fixed32_pack(value >> 32, ((char *) out) + 4);
 872:/home/tienluong/workspace/atlantis_fw/platform/common/lightheader/src/protobuf-c.c **** #endif
 873:/home/tienluong/workspace/atlantis_fw/platform/common/lightheader/src/protobuf-c.c **** 	return 8;
 874:/home/tienluong/workspace/atlantis_fw/platform/common/lightheader/src/protobuf-c.c **** }
 875:/home/tienluong/workspace/atlantis_fw/platform/common/lightheader/src/protobuf-c.c **** 
 876:/home/tienluong/workspace/atlantis_fw/platform/common/lightheader/src/protobuf-c.c **** /**
 877:/home/tienluong/workspace/atlantis_fw/platform/common/lightheader/src/protobuf-c.c ****  * Pack a boolean value as an integer and return the number of bytes written.
 878:/home/tienluong/workspace/atlantis_fw/platform/common/lightheader/src/protobuf-c.c ****  *
 879:/home/tienluong/workspace/atlantis_fw/platform/common/lightheader/src/protobuf-c.c ****  * \todo Perhaps on some platforms *out = !!value would be a better impl, b/c
 880:/home/tienluong/workspace/atlantis_fw/platform/common/lightheader/src/protobuf-c.c ****  * that is idiomatic C++ in some STL implementations.
 881:/home/tienluong/workspace/atlantis_fw/platform/common/lightheader/src/protobuf-c.c ****  *
 882:/home/tienluong/workspace/atlantis_fw/platform/common/lightheader/src/protobuf-c.c ****  * \param value
 883:/home/tienluong/workspace/atlantis_fw/platform/common/lightheader/src/protobuf-c.c ****  *      Value to encode.
 884:/home/tienluong/workspace/atlantis_fw/platform/common/lightheader/src/protobuf-c.c ****  * \param[out] out
 885:/home/tienluong/workspace/atlantis_fw/platform/common/lightheader/src/protobuf-c.c ****  *      Packed value.
 886:/home/tienluong/workspace/atlantis_fw/platform/common/lightheader/src/protobuf-c.c ****  * \return
 887:/home/tienluong/workspace/atlantis_fw/platform/common/lightheader/src/protobuf-c.c ****  *      Number of bytes written to `out`.
 888:/home/tienluong/workspace/atlantis_fw/platform/common/lightheader/src/protobuf-c.c ****  */
 889:/home/tienluong/workspace/atlantis_fw/platform/common/lightheader/src/protobuf-c.c **** LIGHT_HEADER_STATIC static inline size_t
 890:/home/tienluong/workspace/atlantis_fw/platform/common/lightheader/src/protobuf-c.c **** boolean_pack(protobuf_c_boolean value, uint8_t *out)
 891:/home/tienluong/workspace/atlantis_fw/platform/common/lightheader/src/protobuf-c.c **** {
 892:/home/tienluong/workspace/atlantis_fw/platform/common/lightheader/src/protobuf-c.c **** 	*out = value ? TRUE : FALSE;
 893:/home/tienluong/workspace/atlantis_fw/platform/common/lightheader/src/protobuf-c.c **** 	return 1;
 894:/home/tienluong/workspace/atlantis_fw/platform/common/lightheader/src/protobuf-c.c **** }
 895:/home/tienluong/workspace/atlantis_fw/platform/common/lightheader/src/protobuf-c.c **** 
 896:/home/tienluong/workspace/atlantis_fw/platform/common/lightheader/src/protobuf-c.c **** /**
 897:/home/tienluong/workspace/atlantis_fw/platform/common/lightheader/src/protobuf-c.c ****  * Pack a NUL-terminated C string and return the number of bytes written. The
 898:/home/tienluong/workspace/atlantis_fw/platform/common/lightheader/src/protobuf-c.c ****  * output includes a length delimiter.
 899:/home/tienluong/workspace/atlantis_fw/platform/common/lightheader/src/protobuf-c.c ****  *
 900:/home/tienluong/workspace/atlantis_fw/platform/common/lightheader/src/protobuf-c.c ****  * The NULL pointer is treated as an empty string. This isn't really necessary,
 901:/home/tienluong/workspace/atlantis_fw/platform/common/lightheader/src/protobuf-c.c ****  * but it allows people to leave required strings blank. (See Issue #13 in the
 902:/home/tienluong/workspace/atlantis_fw/platform/common/lightheader/src/protobuf-c.c ****  * bug tracker for a little more explanation).
 903:/home/tienluong/workspace/atlantis_fw/platform/common/lightheader/src/protobuf-c.c ****  *
 904:/home/tienluong/workspace/atlantis_fw/platform/common/lightheader/src/protobuf-c.c ****  * \param str
 905:/home/tienluong/workspace/atlantis_fw/platform/common/lightheader/src/protobuf-c.c ****  *      String to encode.
 906:/home/tienluong/workspace/atlantis_fw/platform/common/lightheader/src/protobuf-c.c ****  * \param[out] out
 907:/home/tienluong/workspace/atlantis_fw/platform/common/lightheader/src/protobuf-c.c ****  *      Packed value.
 908:/home/tienluong/workspace/atlantis_fw/platform/common/lightheader/src/protobuf-c.c ****  * \return
 909:/home/tienluong/workspace/atlantis_fw/platform/common/lightheader/src/protobuf-c.c ****  *      Number of bytes written to `out`.
 910:/home/tienluong/workspace/atlantis_fw/platform/common/lightheader/src/protobuf-c.c ****  */
 911:/home/tienluong/workspace/atlantis_fw/platform/common/lightheader/src/protobuf-c.c **** LIGHT_HEADER_STATIC static inline size_t
 912:/home/tienluong/workspace/atlantis_fw/platform/common/lightheader/src/protobuf-c.c **** string_pack(const char *str, uint8_t *out)
 913:/home/tienluong/workspace/atlantis_fw/platform/common/lightheader/src/protobuf-c.c **** {
 914:/home/tienluong/workspace/atlantis_fw/platform/common/lightheader/src/protobuf-c.c **** 	if (str == NULL) {
 915:/home/tienluong/workspace/atlantis_fw/platform/common/lightheader/src/protobuf-c.c **** 		out[0] = 0;
 916:/home/tienluong/workspace/atlantis_fw/platform/common/lightheader/src/protobuf-c.c **** 		return 1;
 917:/home/tienluong/workspace/atlantis_fw/platform/common/lightheader/src/protobuf-c.c **** 	} else {
 918:/home/tienluong/workspace/atlantis_fw/platform/common/lightheader/src/protobuf-c.c **** 		size_t len = strlen(str);
 919:/home/tienluong/workspace/atlantis_fw/platform/common/lightheader/src/protobuf-c.c **** 		size_t rv = uint32_pack(len, out);
 920:/home/tienluong/workspace/atlantis_fw/platform/common/lightheader/src/protobuf-c.c **** 		memcpy(out + rv, str, len);
 921:/home/tienluong/workspace/atlantis_fw/platform/common/lightheader/src/protobuf-c.c **** 		return rv + len;
 922:/home/tienluong/workspace/atlantis_fw/platform/common/lightheader/src/protobuf-c.c **** 	}
 923:/home/tienluong/workspace/atlantis_fw/platform/common/lightheader/src/protobuf-c.c **** }
 924:/home/tienluong/workspace/atlantis_fw/platform/common/lightheader/src/protobuf-c.c **** 
 925:/home/tienluong/workspace/atlantis_fw/platform/common/lightheader/src/protobuf-c.c **** /**
 926:/home/tienluong/workspace/atlantis_fw/platform/common/lightheader/src/protobuf-c.c ****  * Pack a ProtobufCBinaryData and return the number of bytes written. The output
 927:/home/tienluong/workspace/atlantis_fw/platform/common/lightheader/src/protobuf-c.c ****  * includes a length delimiter.
 928:/home/tienluong/workspace/atlantis_fw/platform/common/lightheader/src/protobuf-c.c ****  *
 929:/home/tienluong/workspace/atlantis_fw/platform/common/lightheader/src/protobuf-c.c ****  * \param bd
 930:/home/tienluong/workspace/atlantis_fw/platform/common/lightheader/src/protobuf-c.c ****  *      ProtobufCBinaryData to encode.
 931:/home/tienluong/workspace/atlantis_fw/platform/common/lightheader/src/protobuf-c.c ****  * \param[out] out
 932:/home/tienluong/workspace/atlantis_fw/platform/common/lightheader/src/protobuf-c.c ****  *      Packed value.
 933:/home/tienluong/workspace/atlantis_fw/platform/common/lightheader/src/protobuf-c.c ****  * \return
 934:/home/tienluong/workspace/atlantis_fw/platform/common/lightheader/src/protobuf-c.c ****  *      Number of bytes written to `out`.
 935:/home/tienluong/workspace/atlantis_fw/platform/common/lightheader/src/protobuf-c.c ****  */
 936:/home/tienluong/workspace/atlantis_fw/platform/common/lightheader/src/protobuf-c.c **** LIGHT_HEADER_STATIC static inline size_t
 937:/home/tienluong/workspace/atlantis_fw/platform/common/lightheader/src/protobuf-c.c **** binary_data_pack(const ProtobufCBinaryData *bd, uint8_t *out)
 938:/home/tienluong/workspace/atlantis_fw/platform/common/lightheader/src/protobuf-c.c **** {
 939:/home/tienluong/workspace/atlantis_fw/platform/common/lightheader/src/protobuf-c.c **** 	size_t len = bd->len;
 940:/home/tienluong/workspace/atlantis_fw/platform/common/lightheader/src/protobuf-c.c **** 	size_t rv = uint32_pack(len, out);
 941:/home/tienluong/workspace/atlantis_fw/platform/common/lightheader/src/protobuf-c.c **** 	memcpy(out + rv, bd->data, len);
 942:/home/tienluong/workspace/atlantis_fw/platform/common/lightheader/src/protobuf-c.c **** 	return rv + len;
 943:/home/tienluong/workspace/atlantis_fw/platform/common/lightheader/src/protobuf-c.c **** }
 944:/home/tienluong/workspace/atlantis_fw/platform/common/lightheader/src/protobuf-c.c **** 
 945:/home/tienluong/workspace/atlantis_fw/platform/common/lightheader/src/protobuf-c.c **** /**
 946:/home/tienluong/workspace/atlantis_fw/platform/common/lightheader/src/protobuf-c.c ****  * Pack a ProtobufCMessage and return the number of bytes written. The output
 947:/home/tienluong/workspace/atlantis_fw/platform/common/lightheader/src/protobuf-c.c ****  * includes a length delimiter.
 948:/home/tienluong/workspace/atlantis_fw/platform/common/lightheader/src/protobuf-c.c ****  *
 949:/home/tienluong/workspace/atlantis_fw/platform/common/lightheader/src/protobuf-c.c ****  * \param message
 950:/home/tienluong/workspace/atlantis_fw/platform/common/lightheader/src/protobuf-c.c ****  *      ProtobufCMessage object to pack.
 951:/home/tienluong/workspace/atlantis_fw/platform/common/lightheader/src/protobuf-c.c ****  * \param[out] out
 952:/home/tienluong/workspace/atlantis_fw/platform/common/lightheader/src/protobuf-c.c ****  *      Packed message.
 953:/home/tienluong/workspace/atlantis_fw/platform/common/lightheader/src/protobuf-c.c ****  * \return
 954:/home/tienluong/workspace/atlantis_fw/platform/common/lightheader/src/protobuf-c.c ****  *      Number of bytes written to `out`.
 955:/home/tienluong/workspace/atlantis_fw/platform/common/lightheader/src/protobuf-c.c ****  */
 956:/home/tienluong/workspace/atlantis_fw/platform/common/lightheader/src/protobuf-c.c **** LIGHT_HEADER_STATIC static inline size_t
 957:/home/tienluong/workspace/atlantis_fw/platform/common/lightheader/src/protobuf-c.c **** prefixed_message_pack(const ProtobufCMessage *message, uint8_t *out)
 958:/home/tienluong/workspace/atlantis_fw/platform/common/lightheader/src/protobuf-c.c **** {
 959:/home/tienluong/workspace/atlantis_fw/platform/common/lightheader/src/protobuf-c.c **** 	if (message == NULL) {
 960:/home/tienluong/workspace/atlantis_fw/platform/common/lightheader/src/protobuf-c.c **** 		out[0] = 0;
 961:/home/tienluong/workspace/atlantis_fw/platform/common/lightheader/src/protobuf-c.c **** 		return 1;
 962:/home/tienluong/workspace/atlantis_fw/platform/common/lightheader/src/protobuf-c.c **** 	} else {
 963:/home/tienluong/workspace/atlantis_fw/platform/common/lightheader/src/protobuf-c.c **** 		size_t rv = protobuf_c_message_pack(message, out + 1);
 964:/home/tienluong/workspace/atlantis_fw/platform/common/lightheader/src/protobuf-c.c **** 		uint32_t rv_packed_size = uint32_size(rv);
 965:/home/tienluong/workspace/atlantis_fw/platform/common/lightheader/src/protobuf-c.c **** 		if (rv_packed_size != 1)
 966:/home/tienluong/workspace/atlantis_fw/platform/common/lightheader/src/protobuf-c.c **** 			memmove(out + rv_packed_size, out + 1, rv);
 967:/home/tienluong/workspace/atlantis_fw/platform/common/lightheader/src/protobuf-c.c **** 		return uint32_pack(rv, out) + rv;
 968:/home/tienluong/workspace/atlantis_fw/platform/common/lightheader/src/protobuf-c.c **** 	}
 969:/home/tienluong/workspace/atlantis_fw/platform/common/lightheader/src/protobuf-c.c **** }
 970:/home/tienluong/workspace/atlantis_fw/platform/common/lightheader/src/protobuf-c.c **** 
 971:/home/tienluong/workspace/atlantis_fw/platform/common/lightheader/src/protobuf-c.c **** /**
 972:/home/tienluong/workspace/atlantis_fw/platform/common/lightheader/src/protobuf-c.c ****  * Pack a field tag.
 973:/home/tienluong/workspace/atlantis_fw/platform/common/lightheader/src/protobuf-c.c ****  *
 974:/home/tienluong/workspace/atlantis_fw/platform/common/lightheader/src/protobuf-c.c ****  * Wire-type will be added in required_field_pack().
 975:/home/tienluong/workspace/atlantis_fw/platform/common/lightheader/src/protobuf-c.c ****  *
 976:/home/tienluong/workspace/atlantis_fw/platform/common/lightheader/src/protobuf-c.c ****  * \todo Just call uint64_pack on 64-bit platforms.
 977:/home/tienluong/workspace/atlantis_fw/platform/common/lightheader/src/protobuf-c.c ****  *
 978:/home/tienluong/workspace/atlantis_fw/platform/common/lightheader/src/protobuf-c.c ****  * \param id
 979:/home/tienluong/workspace/atlantis_fw/platform/common/lightheader/src/protobuf-c.c ****  *      Tag value to encode.
 980:/home/tienluong/workspace/atlantis_fw/platform/common/lightheader/src/protobuf-c.c ****  * \param[out] out
 981:/home/tienluong/workspace/atlantis_fw/platform/common/lightheader/src/protobuf-c.c ****  *      Packed value.
 982:/home/tienluong/workspace/atlantis_fw/platform/common/lightheader/src/protobuf-c.c ****  * \return
 983:/home/tienluong/workspace/atlantis_fw/platform/common/lightheader/src/protobuf-c.c ****  *      Number of bytes written to `out`.
 984:/home/tienluong/workspace/atlantis_fw/platform/common/lightheader/src/protobuf-c.c ****  */
 985:/home/tienluong/workspace/atlantis_fw/platform/common/lightheader/src/protobuf-c.c **** LIGHT_HEADER_STATIC static size_t
 986:/home/tienluong/workspace/atlantis_fw/platform/common/lightheader/src/protobuf-c.c **** tag_pack(uint32_t id, uint8_t *out)
 987:/home/tienluong/workspace/atlantis_fw/platform/common/lightheader/src/protobuf-c.c **** {
 988:/home/tienluong/workspace/atlantis_fw/platform/common/lightheader/src/protobuf-c.c **** 	if (id < (1UL << (32 - 3)))
 989:/home/tienluong/workspace/atlantis_fw/platform/common/lightheader/src/protobuf-c.c **** 		return uint32_pack(id << 3, out);
 990:/home/tienluong/workspace/atlantis_fw/platform/common/lightheader/src/protobuf-c.c **** 	else
 991:/home/tienluong/workspace/atlantis_fw/platform/common/lightheader/src/protobuf-c.c **** 		return uint64_pack(((uint64_t) id) << 3, out);
 992:/home/tienluong/workspace/atlantis_fw/platform/common/lightheader/src/protobuf-c.c **** }
 993:/home/tienluong/workspace/atlantis_fw/platform/common/lightheader/src/protobuf-c.c **** 
 994:/home/tienluong/workspace/atlantis_fw/platform/common/lightheader/src/protobuf-c.c **** /**
 995:/home/tienluong/workspace/atlantis_fw/platform/common/lightheader/src/protobuf-c.c ****  * Pack a required field and return the number of bytes written.
 996:/home/tienluong/workspace/atlantis_fw/platform/common/lightheader/src/protobuf-c.c ****  *
 997:/home/tienluong/workspace/atlantis_fw/platform/common/lightheader/src/protobuf-c.c ****  * \param field
 998:/home/tienluong/workspace/atlantis_fw/platform/common/lightheader/src/protobuf-c.c ****  *      Field descriptor.
 999:/home/tienluong/workspace/atlantis_fw/platform/common/lightheader/src/protobuf-c.c ****  * \param member
1000:/home/tienluong/workspace/atlantis_fw/platform/common/lightheader/src/protobuf-c.c ****  *      The field member.
1001:/home/tienluong/workspace/atlantis_fw/platform/common/lightheader/src/protobuf-c.c ****  * \param[out] out
1002:/home/tienluong/workspace/atlantis_fw/platform/common/lightheader/src/protobuf-c.c ****  *      Packed value.
1003:/home/tienluong/workspace/atlantis_fw/platform/common/lightheader/src/protobuf-c.c ****  * \return
1004:/home/tienluong/workspace/atlantis_fw/platform/common/lightheader/src/protobuf-c.c ****  *      Number of bytes written to `out`.
1005:/home/tienluong/workspace/atlantis_fw/platform/common/lightheader/src/protobuf-c.c ****  */
1006:/home/tienluong/workspace/atlantis_fw/platform/common/lightheader/src/protobuf-c.c **** LIGHT_HEADER_STATIC static size_t
1007:/home/tienluong/workspace/atlantis_fw/platform/common/lightheader/src/protobuf-c.c **** required_field_pack(const ProtobufCFieldDescriptor *field,
1008:/home/tienluong/workspace/atlantis_fw/platform/common/lightheader/src/protobuf-c.c **** 		    const void *member, uint8_t *out)
1009:/home/tienluong/workspace/atlantis_fw/platform/common/lightheader/src/protobuf-c.c **** {
1010:/home/tienluong/workspace/atlantis_fw/platform/common/lightheader/src/protobuf-c.c **** 	size_t rv = tag_pack(field->id, out);
1011:/home/tienluong/workspace/atlantis_fw/platform/common/lightheader/src/protobuf-c.c **** 
1012:/home/tienluong/workspace/atlantis_fw/platform/common/lightheader/src/protobuf-c.c **** 	switch (field->type) {
1013:/home/tienluong/workspace/atlantis_fw/platform/common/lightheader/src/protobuf-c.c **** 	case PROTOBUF_C_TYPE_SINT32:
1014:/home/tienluong/workspace/atlantis_fw/platform/common/lightheader/src/protobuf-c.c **** 		out[0] |= PROTOBUF_C_WIRE_TYPE_VARINT;
1015:/home/tienluong/workspace/atlantis_fw/platform/common/lightheader/src/protobuf-c.c **** 		return rv + sint32_pack(*(const int32_t *) member, out + rv);
1016:/home/tienluong/workspace/atlantis_fw/platform/common/lightheader/src/protobuf-c.c **** 	case PROTOBUF_C_TYPE_ENUM:
1017:/home/tienluong/workspace/atlantis_fw/platform/common/lightheader/src/protobuf-c.c **** 	case PROTOBUF_C_TYPE_INT32:
1018:/home/tienluong/workspace/atlantis_fw/platform/common/lightheader/src/protobuf-c.c **** 		out[0] |= PROTOBUF_C_WIRE_TYPE_VARINT;
1019:/home/tienluong/workspace/atlantis_fw/platform/common/lightheader/src/protobuf-c.c **** 		return rv + int32_pack(*(const int32_t *) member, out + rv);
1020:/home/tienluong/workspace/atlantis_fw/platform/common/lightheader/src/protobuf-c.c **** 	case PROTOBUF_C_TYPE_UINT32:
1021:/home/tienluong/workspace/atlantis_fw/platform/common/lightheader/src/protobuf-c.c **** 		out[0] |= PROTOBUF_C_WIRE_TYPE_VARINT;
1022:/home/tienluong/workspace/atlantis_fw/platform/common/lightheader/src/protobuf-c.c **** 		return rv + uint32_pack(*(const uint32_t *) member, out + rv);
1023:/home/tienluong/workspace/atlantis_fw/platform/common/lightheader/src/protobuf-c.c **** 	case PROTOBUF_C_TYPE_SINT64:
1024:/home/tienluong/workspace/atlantis_fw/platform/common/lightheader/src/protobuf-c.c **** 		out[0] |= PROTOBUF_C_WIRE_TYPE_VARINT;
1025:/home/tienluong/workspace/atlantis_fw/platform/common/lightheader/src/protobuf-c.c **** 		return rv + sint64_pack(*(const int64_t *) member, out + rv);
1026:/home/tienluong/workspace/atlantis_fw/platform/common/lightheader/src/protobuf-c.c **** 	case PROTOBUF_C_TYPE_INT64:
1027:/home/tienluong/workspace/atlantis_fw/platform/common/lightheader/src/protobuf-c.c **** 	case PROTOBUF_C_TYPE_UINT64:
1028:/home/tienluong/workspace/atlantis_fw/platform/common/lightheader/src/protobuf-c.c **** 		out[0] |= PROTOBUF_C_WIRE_TYPE_VARINT;
1029:/home/tienluong/workspace/atlantis_fw/platform/common/lightheader/src/protobuf-c.c **** 		return rv + uint64_pack(*(const uint64_t *) member, out + rv);
1030:/home/tienluong/workspace/atlantis_fw/platform/common/lightheader/src/protobuf-c.c **** 	case PROTOBUF_C_TYPE_SFIXED32:
1031:/home/tienluong/workspace/atlantis_fw/platform/common/lightheader/src/protobuf-c.c **** 	case PROTOBUF_C_TYPE_FIXED32:
1032:/home/tienluong/workspace/atlantis_fw/platform/common/lightheader/src/protobuf-c.c **** 	case PROTOBUF_C_TYPE_FLOAT:
1033:/home/tienluong/workspace/atlantis_fw/platform/common/lightheader/src/protobuf-c.c **** 		out[0] |= PROTOBUF_C_WIRE_TYPE_32BIT;
1034:/home/tienluong/workspace/atlantis_fw/platform/common/lightheader/src/protobuf-c.c **** 		return rv + fixed32_pack(*(const uint32_t *) member, out + rv);
1035:/home/tienluong/workspace/atlantis_fw/platform/common/lightheader/src/protobuf-c.c **** 	case PROTOBUF_C_TYPE_SFIXED64:
1036:/home/tienluong/workspace/atlantis_fw/platform/common/lightheader/src/protobuf-c.c **** 	case PROTOBUF_C_TYPE_FIXED64:
1037:/home/tienluong/workspace/atlantis_fw/platform/common/lightheader/src/protobuf-c.c **** 	case PROTOBUF_C_TYPE_DOUBLE:
1038:/home/tienluong/workspace/atlantis_fw/platform/common/lightheader/src/protobuf-c.c **** 		out[0] |= PROTOBUF_C_WIRE_TYPE_64BIT;
1039:/home/tienluong/workspace/atlantis_fw/platform/common/lightheader/src/protobuf-c.c **** 		return rv + fixed64_pack(*(const uint64_t *) member, out + rv);
1040:/home/tienluong/workspace/atlantis_fw/platform/common/lightheader/src/protobuf-c.c **** 	case PROTOBUF_C_TYPE_BOOL:
1041:/home/tienluong/workspace/atlantis_fw/platform/common/lightheader/src/protobuf-c.c **** 		out[0] |= PROTOBUF_C_WIRE_TYPE_VARINT;
1042:/home/tienluong/workspace/atlantis_fw/platform/common/lightheader/src/protobuf-c.c **** 		return rv + boolean_pack(*(const protobuf_c_boolean *) member, out + rv);
1043:/home/tienluong/workspace/atlantis_fw/platform/common/lightheader/src/protobuf-c.c **** 	case PROTOBUF_C_TYPE_STRING:
1044:/home/tienluong/workspace/atlantis_fw/platform/common/lightheader/src/protobuf-c.c **** 		out[0] |= PROTOBUF_C_WIRE_TYPE_LENGTH_PREFIXED;
1045:/home/tienluong/workspace/atlantis_fw/platform/common/lightheader/src/protobuf-c.c **** 		return rv + string_pack(*(char *const *) member, out + rv);
1046:/home/tienluong/workspace/atlantis_fw/platform/common/lightheader/src/protobuf-c.c **** 	case PROTOBUF_C_TYPE_BYTES:
1047:/home/tienluong/workspace/atlantis_fw/platform/common/lightheader/src/protobuf-c.c **** 		out[0] |= PROTOBUF_C_WIRE_TYPE_LENGTH_PREFIXED;
1048:/home/tienluong/workspace/atlantis_fw/platform/common/lightheader/src/protobuf-c.c **** 		return rv + binary_data_pack((const ProtobufCBinaryData *) member, out + rv);
1049:/home/tienluong/workspace/atlantis_fw/platform/common/lightheader/src/protobuf-c.c **** 	case PROTOBUF_C_TYPE_MESSAGE:
1050:/home/tienluong/workspace/atlantis_fw/platform/common/lightheader/src/protobuf-c.c **** 		out[0] |= PROTOBUF_C_WIRE_TYPE_LENGTH_PREFIXED;
1051:/home/tienluong/workspace/atlantis_fw/platform/common/lightheader/src/protobuf-c.c **** 		return rv + prefixed_message_pack(*(ProtobufCMessage * const *) member, out + rv);
1052:/home/tienluong/workspace/atlantis_fw/platform/common/lightheader/src/protobuf-c.c **** 	}
1053:/home/tienluong/workspace/atlantis_fw/platform/common/lightheader/src/protobuf-c.c **** 	PROTOBUF_C__ASSERT_NOT_REACHED();
1054:/home/tienluong/workspace/atlantis_fw/platform/common/lightheader/src/protobuf-c.c **** 	return 0;
1055:/home/tienluong/workspace/atlantis_fw/platform/common/lightheader/src/protobuf-c.c **** }
1056:/home/tienluong/workspace/atlantis_fw/platform/common/lightheader/src/protobuf-c.c **** 
1057:/home/tienluong/workspace/atlantis_fw/platform/common/lightheader/src/protobuf-c.c **** /**
1058:/home/tienluong/workspace/atlantis_fw/platform/common/lightheader/src/protobuf-c.c ****  * Pack a oneof field and return the number of bytes written. Only packs the
1059:/home/tienluong/workspace/atlantis_fw/platform/common/lightheader/src/protobuf-c.c ****  * field that is selected by the case enum.
1060:/home/tienluong/workspace/atlantis_fw/platform/common/lightheader/src/protobuf-c.c ****  *
1061:/home/tienluong/workspace/atlantis_fw/platform/common/lightheader/src/protobuf-c.c ****  * \param field
1062:/home/tienluong/workspace/atlantis_fw/platform/common/lightheader/src/protobuf-c.c ****  *      Field descriptor.
1063:/home/tienluong/workspace/atlantis_fw/platform/common/lightheader/src/protobuf-c.c ****  * \param oneof_case
1064:/home/tienluong/workspace/atlantis_fw/platform/common/lightheader/src/protobuf-c.c ****  *      A pointer to the case enum that selects the field in the oneof.
1065:/home/tienluong/workspace/atlantis_fw/platform/common/lightheader/src/protobuf-c.c ****  * \param member
1066:/home/tienluong/workspace/atlantis_fw/platform/common/lightheader/src/protobuf-c.c ****  *      The field member.
1067:/home/tienluong/workspace/atlantis_fw/platform/common/lightheader/src/protobuf-c.c ****  * \param[out] out
1068:/home/tienluong/workspace/atlantis_fw/platform/common/lightheader/src/protobuf-c.c ****  *      Packed value.
1069:/home/tienluong/workspace/atlantis_fw/platform/common/lightheader/src/protobuf-c.c ****  * \return
1070:/home/tienluong/workspace/atlantis_fw/platform/common/lightheader/src/protobuf-c.c ****  *      Number of bytes written to `out`.
1071:/home/tienluong/workspace/atlantis_fw/platform/common/lightheader/src/protobuf-c.c ****  */
1072:/home/tienluong/workspace/atlantis_fw/platform/common/lightheader/src/protobuf-c.c **** LIGHT_HEADER_STATIC static size_t
1073:/home/tienluong/workspace/atlantis_fw/platform/common/lightheader/src/protobuf-c.c **** oneof_field_pack(const ProtobufCFieldDescriptor *field,
1074:/home/tienluong/workspace/atlantis_fw/platform/common/lightheader/src/protobuf-c.c **** 		 const uint32_t *oneof_case,
1075:/home/tienluong/workspace/atlantis_fw/platform/common/lightheader/src/protobuf-c.c **** 		 const void *member, uint8_t *out)
1076:/home/tienluong/workspace/atlantis_fw/platform/common/lightheader/src/protobuf-c.c **** {
1077:/home/tienluong/workspace/atlantis_fw/platform/common/lightheader/src/protobuf-c.c **** 	if (*oneof_case == field->id) {
1078:/home/tienluong/workspace/atlantis_fw/platform/common/lightheader/src/protobuf-c.c **** 		if (field->type == PROTOBUF_C_TYPE_MESSAGE ||
1079:/home/tienluong/workspace/atlantis_fw/platform/common/lightheader/src/protobuf-c.c **** 		    field->type == PROTOBUF_C_TYPE_STRING)
1080:/home/tienluong/workspace/atlantis_fw/platform/common/lightheader/src/protobuf-c.c **** 		{
1081:/home/tienluong/workspace/atlantis_fw/platform/common/lightheader/src/protobuf-c.c **** 			const void *ptr = *(const void * const *) member;
1082:/home/tienluong/workspace/atlantis_fw/platform/common/lightheader/src/protobuf-c.c **** 			if (ptr == NULL || ptr == field->default_value)
1083:/home/tienluong/workspace/atlantis_fw/platform/common/lightheader/src/protobuf-c.c **** 				return 0;
1084:/home/tienluong/workspace/atlantis_fw/platform/common/lightheader/src/protobuf-c.c **** 		}
1085:/home/tienluong/workspace/atlantis_fw/platform/common/lightheader/src/protobuf-c.c **** 	} else {
1086:/home/tienluong/workspace/atlantis_fw/platform/common/lightheader/src/protobuf-c.c **** 		return 0;
1087:/home/tienluong/workspace/atlantis_fw/platform/common/lightheader/src/protobuf-c.c **** 	}
1088:/home/tienluong/workspace/atlantis_fw/platform/common/lightheader/src/protobuf-c.c **** 	return required_field_pack(field, member, out);
1089:/home/tienluong/workspace/atlantis_fw/platform/common/lightheader/src/protobuf-c.c **** }
1090:/home/tienluong/workspace/atlantis_fw/platform/common/lightheader/src/protobuf-c.c **** 
1091:/home/tienluong/workspace/atlantis_fw/platform/common/lightheader/src/protobuf-c.c **** /**
1092:/home/tienluong/workspace/atlantis_fw/platform/common/lightheader/src/protobuf-c.c ****  * Pack an optional field and return the number of bytes written.
1093:/home/tienluong/workspace/atlantis_fw/platform/common/lightheader/src/protobuf-c.c ****  *
1094:/home/tienluong/workspace/atlantis_fw/platform/common/lightheader/src/protobuf-c.c ****  * \param field
1095:/home/tienluong/workspace/atlantis_fw/platform/common/lightheader/src/protobuf-c.c ****  *      Field descriptor.
1096:/home/tienluong/workspace/atlantis_fw/platform/common/lightheader/src/protobuf-c.c ****  * \param has
1097:/home/tienluong/workspace/atlantis_fw/platform/common/lightheader/src/protobuf-c.c ****  *      Whether the field is set.
1098:/home/tienluong/workspace/atlantis_fw/platform/common/lightheader/src/protobuf-c.c ****  * \param member
1099:/home/tienluong/workspace/atlantis_fw/platform/common/lightheader/src/protobuf-c.c ****  *      The field member.
1100:/home/tienluong/workspace/atlantis_fw/platform/common/lightheader/src/protobuf-c.c ****  * \param[out] out
1101:/home/tienluong/workspace/atlantis_fw/platform/common/lightheader/src/protobuf-c.c ****  *      Packed value.
1102:/home/tienluong/workspace/atlantis_fw/platform/common/lightheader/src/protobuf-c.c ****  * \return
1103:/home/tienluong/workspace/atlantis_fw/platform/common/lightheader/src/protobuf-c.c ****  *      Number of bytes written to `out`.
1104:/home/tienluong/workspace/atlantis_fw/platform/common/lightheader/src/protobuf-c.c ****  */
1105:/home/tienluong/workspace/atlantis_fw/platform/common/lightheader/src/protobuf-c.c **** LIGHT_HEADER_STATIC static size_t
1106:/home/tienluong/workspace/atlantis_fw/platform/common/lightheader/src/protobuf-c.c **** optional_field_pack(const ProtobufCFieldDescriptor *field,
1107:/home/tienluong/workspace/atlantis_fw/platform/common/lightheader/src/protobuf-c.c **** 		    const protobuf_c_boolean *has,
1108:/home/tienluong/workspace/atlantis_fw/platform/common/lightheader/src/protobuf-c.c **** 		    const void *member, uint8_t *out)
1109:/home/tienluong/workspace/atlantis_fw/platform/common/lightheader/src/protobuf-c.c **** {
1110:/home/tienluong/workspace/atlantis_fw/platform/common/lightheader/src/protobuf-c.c **** 	if (field->type == PROTOBUF_C_TYPE_MESSAGE ||
1111:/home/tienluong/workspace/atlantis_fw/platform/common/lightheader/src/protobuf-c.c **** 	    field->type == PROTOBUF_C_TYPE_STRING)
1112:/home/tienluong/workspace/atlantis_fw/platform/common/lightheader/src/protobuf-c.c **** 	{
1113:/home/tienluong/workspace/atlantis_fw/platform/common/lightheader/src/protobuf-c.c **** 		const void *ptr = *(const void * const *) member;
1114:/home/tienluong/workspace/atlantis_fw/platform/common/lightheader/src/protobuf-c.c **** 		if (ptr == NULL || ptr == field->default_value)
1115:/home/tienluong/workspace/atlantis_fw/platform/common/lightheader/src/protobuf-c.c **** 			return 0;
1116:/home/tienluong/workspace/atlantis_fw/platform/common/lightheader/src/protobuf-c.c **** 	} else {
1117:/home/tienluong/workspace/atlantis_fw/platform/common/lightheader/src/protobuf-c.c **** 		if (!*has)
1118:/home/tienluong/workspace/atlantis_fw/platform/common/lightheader/src/protobuf-c.c **** 			return 0;
1119:/home/tienluong/workspace/atlantis_fw/platform/common/lightheader/src/protobuf-c.c **** 	}
1120:/home/tienluong/workspace/atlantis_fw/platform/common/lightheader/src/protobuf-c.c **** 	return required_field_pack(field, member, out);
1121:/home/tienluong/workspace/atlantis_fw/platform/common/lightheader/src/protobuf-c.c **** }
1122:/home/tienluong/workspace/atlantis_fw/platform/common/lightheader/src/protobuf-c.c **** 
1123:/home/tienluong/workspace/atlantis_fw/platform/common/lightheader/src/protobuf-c.c **** /**
1124:/home/tienluong/workspace/atlantis_fw/platform/common/lightheader/src/protobuf-c.c ****  * Given a field type, return the in-memory size.
1125:/home/tienluong/workspace/atlantis_fw/platform/common/lightheader/src/protobuf-c.c ****  *
1126:/home/tienluong/workspace/atlantis_fw/platform/common/lightheader/src/protobuf-c.c ****  * \todo Implement as a table lookup.
1127:/home/tienluong/workspace/atlantis_fw/platform/common/lightheader/src/protobuf-c.c ****  *
1128:/home/tienluong/workspace/atlantis_fw/platform/common/lightheader/src/protobuf-c.c ****  * \param type
1129:/home/tienluong/workspace/atlantis_fw/platform/common/lightheader/src/protobuf-c.c ****  *      Field type.
1130:/home/tienluong/workspace/atlantis_fw/platform/common/lightheader/src/protobuf-c.c ****  * \return
1131:/home/tienluong/workspace/atlantis_fw/platform/common/lightheader/src/protobuf-c.c ****  *      Size of the field.
1132:/home/tienluong/workspace/atlantis_fw/platform/common/lightheader/src/protobuf-c.c ****  */
1133:/home/tienluong/workspace/atlantis_fw/platform/common/lightheader/src/protobuf-c.c **** LIGHT_HEADER_STATIC static inline size_t
1134:/home/tienluong/workspace/atlantis_fw/platform/common/lightheader/src/protobuf-c.c **** sizeof_elt_in_repeated_array(ProtobufCType type)
1135:/home/tienluong/workspace/atlantis_fw/platform/common/lightheader/src/protobuf-c.c **** {
1136:/home/tienluong/workspace/atlantis_fw/platform/common/lightheader/src/protobuf-c.c **** 	switch (type) {
1137:/home/tienluong/workspace/atlantis_fw/platform/common/lightheader/src/protobuf-c.c **** 	case PROTOBUF_C_TYPE_SINT32:
1138:/home/tienluong/workspace/atlantis_fw/platform/common/lightheader/src/protobuf-c.c **** 	case PROTOBUF_C_TYPE_INT32:
1139:/home/tienluong/workspace/atlantis_fw/platform/common/lightheader/src/protobuf-c.c **** 	case PROTOBUF_C_TYPE_UINT32:
1140:/home/tienluong/workspace/atlantis_fw/platform/common/lightheader/src/protobuf-c.c **** 	case PROTOBUF_C_TYPE_SFIXED32:
1141:/home/tienluong/workspace/atlantis_fw/platform/common/lightheader/src/protobuf-c.c **** 	case PROTOBUF_C_TYPE_FIXED32:
1142:/home/tienluong/workspace/atlantis_fw/platform/common/lightheader/src/protobuf-c.c **** 	case PROTOBUF_C_TYPE_FLOAT:
1143:/home/tienluong/workspace/atlantis_fw/platform/common/lightheader/src/protobuf-c.c **** 	case PROTOBUF_C_TYPE_ENUM:
1144:/home/tienluong/workspace/atlantis_fw/platform/common/lightheader/src/protobuf-c.c **** 		return 4;
1145:/home/tienluong/workspace/atlantis_fw/platform/common/lightheader/src/protobuf-c.c **** 	case PROTOBUF_C_TYPE_SINT64:
1146:/home/tienluong/workspace/atlantis_fw/platform/common/lightheader/src/protobuf-c.c **** 	case PROTOBUF_C_TYPE_INT64:
1147:/home/tienluong/workspace/atlantis_fw/platform/common/lightheader/src/protobuf-c.c **** 	case PROTOBUF_C_TYPE_UINT64:
1148:/home/tienluong/workspace/atlantis_fw/platform/common/lightheader/src/protobuf-c.c **** 	case PROTOBUF_C_TYPE_SFIXED64:
1149:/home/tienluong/workspace/atlantis_fw/platform/common/lightheader/src/protobuf-c.c **** 	case PROTOBUF_C_TYPE_FIXED64:
1150:/home/tienluong/workspace/atlantis_fw/platform/common/lightheader/src/protobuf-c.c **** 	case PROTOBUF_C_TYPE_DOUBLE:
1151:/home/tienluong/workspace/atlantis_fw/platform/common/lightheader/src/protobuf-c.c **** 		return 8;
1152:/home/tienluong/workspace/atlantis_fw/platform/common/lightheader/src/protobuf-c.c **** 	case PROTOBUF_C_TYPE_BOOL:
1153:/home/tienluong/workspace/atlantis_fw/platform/common/lightheader/src/protobuf-c.c **** 		return sizeof(protobuf_c_boolean);
1154:/home/tienluong/workspace/atlantis_fw/platform/common/lightheader/src/protobuf-c.c **** 	case PROTOBUF_C_TYPE_STRING:
1155:/home/tienluong/workspace/atlantis_fw/platform/common/lightheader/src/protobuf-c.c **** 	case PROTOBUF_C_TYPE_MESSAGE:
1156:/home/tienluong/workspace/atlantis_fw/platform/common/lightheader/src/protobuf-c.c **** 		return sizeof(void *);
1157:/home/tienluong/workspace/atlantis_fw/platform/common/lightheader/src/protobuf-c.c **** 	case PROTOBUF_C_TYPE_BYTES:
1158:/home/tienluong/workspace/atlantis_fw/platform/common/lightheader/src/protobuf-c.c **** 		return sizeof(ProtobufCBinaryData);
1159:/home/tienluong/workspace/atlantis_fw/platform/common/lightheader/src/protobuf-c.c **** 	}
1160:/home/tienluong/workspace/atlantis_fw/platform/common/lightheader/src/protobuf-c.c **** 	PROTOBUF_C__ASSERT_NOT_REACHED();
1161:/home/tienluong/workspace/atlantis_fw/platform/common/lightheader/src/protobuf-c.c **** 	return 0;
1162:/home/tienluong/workspace/atlantis_fw/platform/common/lightheader/src/protobuf-c.c **** }
1163:/home/tienluong/workspace/atlantis_fw/platform/common/lightheader/src/protobuf-c.c **** 
1164:/home/tienluong/workspace/atlantis_fw/platform/common/lightheader/src/protobuf-c.c **** /**
1165:/home/tienluong/workspace/atlantis_fw/platform/common/lightheader/src/protobuf-c.c ****  * Pack an array of 32-bit quantities.
1166:/home/tienluong/workspace/atlantis_fw/platform/common/lightheader/src/protobuf-c.c ****  *
1167:/home/tienluong/workspace/atlantis_fw/platform/common/lightheader/src/protobuf-c.c ****  * \param[out] out
1168:/home/tienluong/workspace/atlantis_fw/platform/common/lightheader/src/protobuf-c.c ****  *      Destination.
1169:/home/tienluong/workspace/atlantis_fw/platform/common/lightheader/src/protobuf-c.c ****  * \param[in] in
1170:/home/tienluong/workspace/atlantis_fw/platform/common/lightheader/src/protobuf-c.c ****  *      Source.
1171:/home/tienluong/workspace/atlantis_fw/platform/common/lightheader/src/protobuf-c.c ****  * \param[in] n
1172:/home/tienluong/workspace/atlantis_fw/platform/common/lightheader/src/protobuf-c.c ****  *      Number of elements in the source array.
1173:/home/tienluong/workspace/atlantis_fw/platform/common/lightheader/src/protobuf-c.c ****  */
1174:/home/tienluong/workspace/atlantis_fw/platform/common/lightheader/src/protobuf-c.c **** LIGHT_HEADER_STATIC static void
1175:/home/tienluong/workspace/atlantis_fw/platform/common/lightheader/src/protobuf-c.c **** copy_to_little_endian_32(void *out, const void *in, const unsigned n)
1176:/home/tienluong/workspace/atlantis_fw/platform/common/lightheader/src/protobuf-c.c **** {
1177:/home/tienluong/workspace/atlantis_fw/platform/common/lightheader/src/protobuf-c.c **** #if !defined(WORDS_BIGENDIAN)
1178:/home/tienluong/workspace/atlantis_fw/platform/common/lightheader/src/protobuf-c.c **** 	memcpy(out, in, n * 4);
1179:/home/tienluong/workspace/atlantis_fw/platform/common/lightheader/src/protobuf-c.c **** #else
1180:/home/tienluong/workspace/atlantis_fw/platform/common/lightheader/src/protobuf-c.c **** 	unsigned i;
1181:/home/tienluong/workspace/atlantis_fw/platform/common/lightheader/src/protobuf-c.c **** 	const uint32_t *ini = in;
1182:/home/tienluong/workspace/atlantis_fw/platform/common/lightheader/src/protobuf-c.c **** 	for (i = 0; i < n; i++)
1183:/home/tienluong/workspace/atlantis_fw/platform/common/lightheader/src/protobuf-c.c **** 		fixed32_pack(ini[i], (uint32_t *) out + i);
1184:/home/tienluong/workspace/atlantis_fw/platform/common/lightheader/src/protobuf-c.c **** #endif
1185:/home/tienluong/workspace/atlantis_fw/platform/common/lightheader/src/protobuf-c.c **** }
1186:/home/tienluong/workspace/atlantis_fw/platform/common/lightheader/src/protobuf-c.c **** 
1187:/home/tienluong/workspace/atlantis_fw/platform/common/lightheader/src/protobuf-c.c **** /**
1188:/home/tienluong/workspace/atlantis_fw/platform/common/lightheader/src/protobuf-c.c ****  * Pack an array of 64-bit quantities.
1189:/home/tienluong/workspace/atlantis_fw/platform/common/lightheader/src/protobuf-c.c ****  *
1190:/home/tienluong/workspace/atlantis_fw/platform/common/lightheader/src/protobuf-c.c ****  * \param[out] out
1191:/home/tienluong/workspace/atlantis_fw/platform/common/lightheader/src/protobuf-c.c ****  *      Destination.
1192:/home/tienluong/workspace/atlantis_fw/platform/common/lightheader/src/protobuf-c.c ****  * \param[in] in
1193:/home/tienluong/workspace/atlantis_fw/platform/common/lightheader/src/protobuf-c.c ****  *      Source.
1194:/home/tienluong/workspace/atlantis_fw/platform/common/lightheader/src/protobuf-c.c ****  * \param[in] n
1195:/home/tienluong/workspace/atlantis_fw/platform/common/lightheader/src/protobuf-c.c ****  *      Number of elements in the source array.
1196:/home/tienluong/workspace/atlantis_fw/platform/common/lightheader/src/protobuf-c.c ****  */
1197:/home/tienluong/workspace/atlantis_fw/platform/common/lightheader/src/protobuf-c.c **** LIGHT_HEADER_STATIC static void
1198:/home/tienluong/workspace/atlantis_fw/platform/common/lightheader/src/protobuf-c.c **** copy_to_little_endian_64(void *out, const void *in, const unsigned n)
1199:/home/tienluong/workspace/atlantis_fw/platform/common/lightheader/src/protobuf-c.c **** {
1200:/home/tienluong/workspace/atlantis_fw/platform/common/lightheader/src/protobuf-c.c **** #if !defined(WORDS_BIGENDIAN)
1201:/home/tienluong/workspace/atlantis_fw/platform/common/lightheader/src/protobuf-c.c **** 	memcpy(out, in, n * 8);
1202:/home/tienluong/workspace/atlantis_fw/platform/common/lightheader/src/protobuf-c.c **** #else
1203:/home/tienluong/workspace/atlantis_fw/platform/common/lightheader/src/protobuf-c.c **** 	unsigned i;
1204:/home/tienluong/workspace/atlantis_fw/platform/common/lightheader/src/protobuf-c.c **** 	const uint64_t *ini = in;
1205:/home/tienluong/workspace/atlantis_fw/platform/common/lightheader/src/protobuf-c.c **** 	for (i = 0; i < n; i++)
1206:/home/tienluong/workspace/atlantis_fw/platform/common/lightheader/src/protobuf-c.c **** 		fixed64_pack(ini[i], (uint64_t *) out + i);
1207:/home/tienluong/workspace/atlantis_fw/platform/common/lightheader/src/protobuf-c.c **** #endif
1208:/home/tienluong/workspace/atlantis_fw/platform/common/lightheader/src/protobuf-c.c **** }
1209:/home/tienluong/workspace/atlantis_fw/platform/common/lightheader/src/protobuf-c.c **** 
1210:/home/tienluong/workspace/atlantis_fw/platform/common/lightheader/src/protobuf-c.c **** /**
1211:/home/tienluong/workspace/atlantis_fw/platform/common/lightheader/src/protobuf-c.c ****  * Get the minimum number of bytes required to pack a field value of a
1212:/home/tienluong/workspace/atlantis_fw/platform/common/lightheader/src/protobuf-c.c ****  * particular type.
1213:/home/tienluong/workspace/atlantis_fw/platform/common/lightheader/src/protobuf-c.c ****  *
1214:/home/tienluong/workspace/atlantis_fw/platform/common/lightheader/src/protobuf-c.c ****  * \param type
1215:/home/tienluong/workspace/atlantis_fw/platform/common/lightheader/src/protobuf-c.c ****  *      Field type.
1216:/home/tienluong/workspace/atlantis_fw/platform/common/lightheader/src/protobuf-c.c ****  * \return
1217:/home/tienluong/workspace/atlantis_fw/platform/common/lightheader/src/protobuf-c.c ****  *      Number of bytes.
1218:/home/tienluong/workspace/atlantis_fw/platform/common/lightheader/src/protobuf-c.c ****  */
1219:/home/tienluong/workspace/atlantis_fw/platform/common/lightheader/src/protobuf-c.c **** LIGHT_HEADER_STATIC static unsigned
1220:/home/tienluong/workspace/atlantis_fw/platform/common/lightheader/src/protobuf-c.c **** get_type_min_size(ProtobufCType type)
1221:/home/tienluong/workspace/atlantis_fw/platform/common/lightheader/src/protobuf-c.c **** {
1222:/home/tienluong/workspace/atlantis_fw/platform/common/lightheader/src/protobuf-c.c **** 	if (type == PROTOBUF_C_TYPE_SFIXED32 ||
1223:/home/tienluong/workspace/atlantis_fw/platform/common/lightheader/src/protobuf-c.c **** 	    type == PROTOBUF_C_TYPE_FIXED32 ||
1224:/home/tienluong/workspace/atlantis_fw/platform/common/lightheader/src/protobuf-c.c **** 	    type == PROTOBUF_C_TYPE_FLOAT)
1225:/home/tienluong/workspace/atlantis_fw/platform/common/lightheader/src/protobuf-c.c **** 	{
1226:/home/tienluong/workspace/atlantis_fw/platform/common/lightheader/src/protobuf-c.c **** 		return 4;
1227:/home/tienluong/workspace/atlantis_fw/platform/common/lightheader/src/protobuf-c.c **** 	}
1228:/home/tienluong/workspace/atlantis_fw/platform/common/lightheader/src/protobuf-c.c **** 	if (type == PROTOBUF_C_TYPE_SFIXED64 ||
1229:/home/tienluong/workspace/atlantis_fw/platform/common/lightheader/src/protobuf-c.c **** 	    type == PROTOBUF_C_TYPE_FIXED64 ||
1230:/home/tienluong/workspace/atlantis_fw/platform/common/lightheader/src/protobuf-c.c **** 	    type == PROTOBUF_C_TYPE_DOUBLE)
1231:/home/tienluong/workspace/atlantis_fw/platform/common/lightheader/src/protobuf-c.c **** 	{
1232:/home/tienluong/workspace/atlantis_fw/platform/common/lightheader/src/protobuf-c.c **** 		return 8;
1233:/home/tienluong/workspace/atlantis_fw/platform/common/lightheader/src/protobuf-c.c **** 	}
1234:/home/tienluong/workspace/atlantis_fw/platform/common/lightheader/src/protobuf-c.c **** 	return 1;
1235:/home/tienluong/workspace/atlantis_fw/platform/common/lightheader/src/protobuf-c.c **** }
1236:/home/tienluong/workspace/atlantis_fw/platform/common/lightheader/src/protobuf-c.c **** 
1237:/home/tienluong/workspace/atlantis_fw/platform/common/lightheader/src/protobuf-c.c **** /**
1238:/home/tienluong/workspace/atlantis_fw/platform/common/lightheader/src/protobuf-c.c ****  * Packs the elements of a repeated field and returns the serialised field and
1239:/home/tienluong/workspace/atlantis_fw/platform/common/lightheader/src/protobuf-c.c ****  * its length.
1240:/home/tienluong/workspace/atlantis_fw/platform/common/lightheader/src/protobuf-c.c ****  *
1241:/home/tienluong/workspace/atlantis_fw/platform/common/lightheader/src/protobuf-c.c ****  * \param field
1242:/home/tienluong/workspace/atlantis_fw/platform/common/lightheader/src/protobuf-c.c ****  *      Field descriptor.
1243:/home/tienluong/workspace/atlantis_fw/platform/common/lightheader/src/protobuf-c.c ****  * \param count
1244:/home/tienluong/workspace/atlantis_fw/platform/common/lightheader/src/protobuf-c.c ****  *      Number of elements in the repeated field array.
1245:/home/tienluong/workspace/atlantis_fw/platform/common/lightheader/src/protobuf-c.c ****  * \param member
1246:/home/tienluong/workspace/atlantis_fw/platform/common/lightheader/src/protobuf-c.c ****  *      Pointer to the elements for this repeated field.
1247:/home/tienluong/workspace/atlantis_fw/platform/common/lightheader/src/protobuf-c.c ****  * \param[out] out
1248:/home/tienluong/workspace/atlantis_fw/platform/common/lightheader/src/protobuf-c.c ****  *      Serialised representation of the repeated field.
1249:/home/tienluong/workspace/atlantis_fw/platform/common/lightheader/src/protobuf-c.c ****  * \return
1250:/home/tienluong/workspace/atlantis_fw/platform/common/lightheader/src/protobuf-c.c ****  *      Number of bytes serialised to `out`.
1251:/home/tienluong/workspace/atlantis_fw/platform/common/lightheader/src/protobuf-c.c ****  */
1252:/home/tienluong/workspace/atlantis_fw/platform/common/lightheader/src/protobuf-c.c **** LIGHT_HEADER_STATIC static size_t
1253:/home/tienluong/workspace/atlantis_fw/platform/common/lightheader/src/protobuf-c.c **** repeated_field_pack(const ProtobufCFieldDescriptor *field,
1254:/home/tienluong/workspace/atlantis_fw/platform/common/lightheader/src/protobuf-c.c **** 		    size_t count, const void *member, uint8_t *out)
1255:/home/tienluong/workspace/atlantis_fw/platform/common/lightheader/src/protobuf-c.c **** {
1256:/home/tienluong/workspace/atlantis_fw/platform/common/lightheader/src/protobuf-c.c **** 	void *array = *(void * const *) member;
1257:/home/tienluong/workspace/atlantis_fw/platform/common/lightheader/src/protobuf-c.c **** 	unsigned i;
1258:/home/tienluong/workspace/atlantis_fw/platform/common/lightheader/src/protobuf-c.c **** 
1259:/home/tienluong/workspace/atlantis_fw/platform/common/lightheader/src/protobuf-c.c **** 	if (0 != (field->flags & PROTOBUF_C_FIELD_FLAG_PACKED)) {
1260:/home/tienluong/workspace/atlantis_fw/platform/common/lightheader/src/protobuf-c.c **** 		unsigned header_len;
1261:/home/tienluong/workspace/atlantis_fw/platform/common/lightheader/src/protobuf-c.c **** 		unsigned len_start;
1262:/home/tienluong/workspace/atlantis_fw/platform/common/lightheader/src/protobuf-c.c **** 		unsigned min_length;
1263:/home/tienluong/workspace/atlantis_fw/platform/common/lightheader/src/protobuf-c.c **** 		unsigned payload_len;
1264:/home/tienluong/workspace/atlantis_fw/platform/common/lightheader/src/protobuf-c.c **** 		unsigned length_size_min;
1265:/home/tienluong/workspace/atlantis_fw/platform/common/lightheader/src/protobuf-c.c **** 		unsigned actual_length_size;
1266:/home/tienluong/workspace/atlantis_fw/platform/common/lightheader/src/protobuf-c.c **** 		uint8_t *payload_at;
1267:/home/tienluong/workspace/atlantis_fw/platform/common/lightheader/src/protobuf-c.c **** 
1268:/home/tienluong/workspace/atlantis_fw/platform/common/lightheader/src/protobuf-c.c **** 		if (count == 0)
1269:/home/tienluong/workspace/atlantis_fw/platform/common/lightheader/src/protobuf-c.c **** 			return 0;
1270:/home/tienluong/workspace/atlantis_fw/platform/common/lightheader/src/protobuf-c.c **** 		header_len = tag_pack(field->id, out);
1271:/home/tienluong/workspace/atlantis_fw/platform/common/lightheader/src/protobuf-c.c **** 		out[0] |= PROTOBUF_C_WIRE_TYPE_LENGTH_PREFIXED;
1272:/home/tienluong/workspace/atlantis_fw/platform/common/lightheader/src/protobuf-c.c **** 		len_start = header_len;
1273:/home/tienluong/workspace/atlantis_fw/platform/common/lightheader/src/protobuf-c.c **** 		min_length = get_type_min_size(field->type) * count;
1274:/home/tienluong/workspace/atlantis_fw/platform/common/lightheader/src/protobuf-c.c **** 		length_size_min = uint32_size(min_length);
1275:/home/tienluong/workspace/atlantis_fw/platform/common/lightheader/src/protobuf-c.c **** 		header_len += length_size_min;
1276:/home/tienluong/workspace/atlantis_fw/platform/common/lightheader/src/protobuf-c.c **** 		payload_at = out + header_len;
1277:/home/tienluong/workspace/atlantis_fw/platform/common/lightheader/src/protobuf-c.c **** 
1278:/home/tienluong/workspace/atlantis_fw/platform/common/lightheader/src/protobuf-c.c **** 		switch (field->type) {
1279:/home/tienluong/workspace/atlantis_fw/platform/common/lightheader/src/protobuf-c.c **** 		case PROTOBUF_C_TYPE_SFIXED32:
1280:/home/tienluong/workspace/atlantis_fw/platform/common/lightheader/src/protobuf-c.c **** 		case PROTOBUF_C_TYPE_FIXED32:
1281:/home/tienluong/workspace/atlantis_fw/platform/common/lightheader/src/protobuf-c.c **** 		case PROTOBUF_C_TYPE_FLOAT:
1282:/home/tienluong/workspace/atlantis_fw/platform/common/lightheader/src/protobuf-c.c **** 			copy_to_little_endian_32(payload_at, array, count);
1283:/home/tienluong/workspace/atlantis_fw/platform/common/lightheader/src/protobuf-c.c **** 			payload_at += count * 4;
1284:/home/tienluong/workspace/atlantis_fw/platform/common/lightheader/src/protobuf-c.c **** 			break;
1285:/home/tienluong/workspace/atlantis_fw/platform/common/lightheader/src/protobuf-c.c **** 		case PROTOBUF_C_TYPE_SFIXED64:
1286:/home/tienluong/workspace/atlantis_fw/platform/common/lightheader/src/protobuf-c.c **** 		case PROTOBUF_C_TYPE_FIXED64:
1287:/home/tienluong/workspace/atlantis_fw/platform/common/lightheader/src/protobuf-c.c **** 		case PROTOBUF_C_TYPE_DOUBLE:
1288:/home/tienluong/workspace/atlantis_fw/platform/common/lightheader/src/protobuf-c.c **** 			copy_to_little_endian_64(payload_at, array, count);
1289:/home/tienluong/workspace/atlantis_fw/platform/common/lightheader/src/protobuf-c.c **** 			payload_at += count * 8;
1290:/home/tienluong/workspace/atlantis_fw/platform/common/lightheader/src/protobuf-c.c **** 			break;
1291:/home/tienluong/workspace/atlantis_fw/platform/common/lightheader/src/protobuf-c.c **** 		case PROTOBUF_C_TYPE_ENUM:
1292:/home/tienluong/workspace/atlantis_fw/platform/common/lightheader/src/protobuf-c.c **** 		case PROTOBUF_C_TYPE_INT32: {
1293:/home/tienluong/workspace/atlantis_fw/platform/common/lightheader/src/protobuf-c.c **** 			const int32_t *arr = (const int32_t *) array;
1294:/home/tienluong/workspace/atlantis_fw/platform/common/lightheader/src/protobuf-c.c **** 			for (i = 0; i < count; i++)
1295:/home/tienluong/workspace/atlantis_fw/platform/common/lightheader/src/protobuf-c.c **** 				payload_at += int32_pack(arr[i], payload_at);
1296:/home/tienluong/workspace/atlantis_fw/platform/common/lightheader/src/protobuf-c.c **** 			break;
1297:/home/tienluong/workspace/atlantis_fw/platform/common/lightheader/src/protobuf-c.c **** 		}
1298:/home/tienluong/workspace/atlantis_fw/platform/common/lightheader/src/protobuf-c.c **** 		case PROTOBUF_C_TYPE_SINT32: {
1299:/home/tienluong/workspace/atlantis_fw/platform/common/lightheader/src/protobuf-c.c **** 			const int32_t *arr = (const int32_t *) array;
1300:/home/tienluong/workspace/atlantis_fw/platform/common/lightheader/src/protobuf-c.c **** 			for (i = 0; i < count; i++)
1301:/home/tienluong/workspace/atlantis_fw/platform/common/lightheader/src/protobuf-c.c **** 				payload_at += sint32_pack(arr[i], payload_at);
1302:/home/tienluong/workspace/atlantis_fw/platform/common/lightheader/src/protobuf-c.c **** 			break;
1303:/home/tienluong/workspace/atlantis_fw/platform/common/lightheader/src/protobuf-c.c **** 		}
1304:/home/tienluong/workspace/atlantis_fw/platform/common/lightheader/src/protobuf-c.c **** 		case PROTOBUF_C_TYPE_SINT64: {
1305:/home/tienluong/workspace/atlantis_fw/platform/common/lightheader/src/protobuf-c.c **** 			const int64_t *arr = (const int64_t *) array;
1306:/home/tienluong/workspace/atlantis_fw/platform/common/lightheader/src/protobuf-c.c **** 			for (i = 0; i < count; i++)
1307:/home/tienluong/workspace/atlantis_fw/platform/common/lightheader/src/protobuf-c.c **** 				payload_at += sint64_pack(arr[i], payload_at);
1308:/home/tienluong/workspace/atlantis_fw/platform/common/lightheader/src/protobuf-c.c **** 			break;
1309:/home/tienluong/workspace/atlantis_fw/platform/common/lightheader/src/protobuf-c.c **** 		}
1310:/home/tienluong/workspace/atlantis_fw/platform/common/lightheader/src/protobuf-c.c **** 		case PROTOBUF_C_TYPE_UINT32: {
1311:/home/tienluong/workspace/atlantis_fw/platform/common/lightheader/src/protobuf-c.c **** 			const uint32_t *arr = (const uint32_t *) array;
1312:/home/tienluong/workspace/atlantis_fw/platform/common/lightheader/src/protobuf-c.c **** 			for (i = 0; i < count; i++)
1313:/home/tienluong/workspace/atlantis_fw/platform/common/lightheader/src/protobuf-c.c **** 				payload_at += uint32_pack(arr[i], payload_at);
1314:/home/tienluong/workspace/atlantis_fw/platform/common/lightheader/src/protobuf-c.c **** 			break;
1315:/home/tienluong/workspace/atlantis_fw/platform/common/lightheader/src/protobuf-c.c **** 		}
1316:/home/tienluong/workspace/atlantis_fw/platform/common/lightheader/src/protobuf-c.c **** 		case PROTOBUF_C_TYPE_INT64:
1317:/home/tienluong/workspace/atlantis_fw/platform/common/lightheader/src/protobuf-c.c **** 		case PROTOBUF_C_TYPE_UINT64: {
1318:/home/tienluong/workspace/atlantis_fw/platform/common/lightheader/src/protobuf-c.c **** 			const uint64_t *arr = (const uint64_t *) array;
1319:/home/tienluong/workspace/atlantis_fw/platform/common/lightheader/src/protobuf-c.c **** 			for (i = 0; i < count; i++)
1320:/home/tienluong/workspace/atlantis_fw/platform/common/lightheader/src/protobuf-c.c **** 				payload_at += uint64_pack(arr[i], payload_at);
1321:/home/tienluong/workspace/atlantis_fw/platform/common/lightheader/src/protobuf-c.c **** 			break;
1322:/home/tienluong/workspace/atlantis_fw/platform/common/lightheader/src/protobuf-c.c **** 		}
1323:/home/tienluong/workspace/atlantis_fw/platform/common/lightheader/src/protobuf-c.c **** 		case PROTOBUF_C_TYPE_BOOL: {
1324:/home/tienluong/workspace/atlantis_fw/platform/common/lightheader/src/protobuf-c.c **** 			const protobuf_c_boolean *arr = (const protobuf_c_boolean *) array;
1325:/home/tienluong/workspace/atlantis_fw/platform/common/lightheader/src/protobuf-c.c **** 			for (i = 0; i < count; i++)
1326:/home/tienluong/workspace/atlantis_fw/platform/common/lightheader/src/protobuf-c.c **** 				payload_at += boolean_pack(arr[i], payload_at);
1327:/home/tienluong/workspace/atlantis_fw/platform/common/lightheader/src/protobuf-c.c **** 			break;
1328:/home/tienluong/workspace/atlantis_fw/platform/common/lightheader/src/protobuf-c.c **** 		}
1329:/home/tienluong/workspace/atlantis_fw/platform/common/lightheader/src/protobuf-c.c **** 		default:
1330:/home/tienluong/workspace/atlantis_fw/platform/common/lightheader/src/protobuf-c.c **** 			PROTOBUF_C__ASSERT_NOT_REACHED();
1331:/home/tienluong/workspace/atlantis_fw/platform/common/lightheader/src/protobuf-c.c **** 		}
1332:/home/tienluong/workspace/atlantis_fw/platform/common/lightheader/src/protobuf-c.c **** 
1333:/home/tienluong/workspace/atlantis_fw/platform/common/lightheader/src/protobuf-c.c **** 		payload_len = payload_at - (out + header_len);
1334:/home/tienluong/workspace/atlantis_fw/platform/common/lightheader/src/protobuf-c.c **** 		actual_length_size = uint32_size(payload_len);
1335:/home/tienluong/workspace/atlantis_fw/platform/common/lightheader/src/protobuf-c.c **** 		if (length_size_min != actual_length_size) {
1336:/home/tienluong/workspace/atlantis_fw/platform/common/lightheader/src/protobuf-c.c **** 			assert(actual_length_size == length_size_min + 1);
1337:/home/tienluong/workspace/atlantis_fw/platform/common/lightheader/src/protobuf-c.c **** 			memmove(out + header_len + 1, out + header_len,
1338:/home/tienluong/workspace/atlantis_fw/platform/common/lightheader/src/protobuf-c.c **** 				payload_len);
1339:/home/tienluong/workspace/atlantis_fw/platform/common/lightheader/src/protobuf-c.c **** 			header_len++;
1340:/home/tienluong/workspace/atlantis_fw/platform/common/lightheader/src/protobuf-c.c **** 		}
1341:/home/tienluong/workspace/atlantis_fw/platform/common/lightheader/src/protobuf-c.c **** 		uint32_pack(payload_len, out + len_start);
1342:/home/tienluong/workspace/atlantis_fw/platform/common/lightheader/src/protobuf-c.c **** 		return header_len + payload_len;
1343:/home/tienluong/workspace/atlantis_fw/platform/common/lightheader/src/protobuf-c.c **** 	} else {
1344:/home/tienluong/workspace/atlantis_fw/platform/common/lightheader/src/protobuf-c.c **** 		/* not "packed" cased */
1345:/home/tienluong/workspace/atlantis_fw/platform/common/lightheader/src/protobuf-c.c **** 		/* CONSIDER: optimize this case a bit (by putting the loop inside the switch) */
1346:/home/tienluong/workspace/atlantis_fw/platform/common/lightheader/src/protobuf-c.c **** 		size_t rv = 0;
1347:/home/tienluong/workspace/atlantis_fw/platform/common/lightheader/src/protobuf-c.c **** 		unsigned siz = sizeof_elt_in_repeated_array(field->type);
1348:/home/tienluong/workspace/atlantis_fw/platform/common/lightheader/src/protobuf-c.c **** 
1349:/home/tienluong/workspace/atlantis_fw/platform/common/lightheader/src/protobuf-c.c **** 		for (i = 0; i < count; i++) {
1350:/home/tienluong/workspace/atlantis_fw/platform/common/lightheader/src/protobuf-c.c **** 			rv += required_field_pack(field, array, out + rv);
1351:/home/tienluong/workspace/atlantis_fw/platform/common/lightheader/src/protobuf-c.c **** 			array = (char *)array + siz;
1352:/home/tienluong/workspace/atlantis_fw/platform/common/lightheader/src/protobuf-c.c **** 		}
1353:/home/tienluong/workspace/atlantis_fw/platform/common/lightheader/src/protobuf-c.c **** 		return rv;
1354:/home/tienluong/workspace/atlantis_fw/platform/common/lightheader/src/protobuf-c.c **** 	}
1355:/home/tienluong/workspace/atlantis_fw/platform/common/lightheader/src/protobuf-c.c **** }
1356:/home/tienluong/workspace/atlantis_fw/platform/common/lightheader/src/protobuf-c.c **** 
1357:/home/tienluong/workspace/atlantis_fw/platform/common/lightheader/src/protobuf-c.c **** LIGHT_HEADER_STATIC static size_t
1358:/home/tienluong/workspace/atlantis_fw/platform/common/lightheader/src/protobuf-c.c **** unknown_field_pack(const ProtobufCMessageUnknownField *field, uint8_t *out)
1359:/home/tienluong/workspace/atlantis_fw/platform/common/lightheader/src/protobuf-c.c **** {
1360:/home/tienluong/workspace/atlantis_fw/platform/common/lightheader/src/protobuf-c.c **** 	size_t rv = tag_pack(field->tag, out);
1361:/home/tienluong/workspace/atlantis_fw/platform/common/lightheader/src/protobuf-c.c **** 	out[0] |= field->wire_type;
1362:/home/tienluong/workspace/atlantis_fw/platform/common/lightheader/src/protobuf-c.c **** 	memcpy(out + rv, field->data, field->len);
1363:/home/tienluong/workspace/atlantis_fw/platform/common/lightheader/src/protobuf-c.c **** 	return rv + field->len;
1364:/home/tienluong/workspace/atlantis_fw/platform/common/lightheader/src/protobuf-c.c **** }
1365:/home/tienluong/workspace/atlantis_fw/platform/common/lightheader/src/protobuf-c.c **** 
1366:/home/tienluong/workspace/atlantis_fw/platform/common/lightheader/src/protobuf-c.c **** /**@}*/
1367:/home/tienluong/workspace/atlantis_fw/platform/common/lightheader/src/protobuf-c.c **** 
1368:/home/tienluong/workspace/atlantis_fw/platform/common/lightheader/src/protobuf-c.c **** LIGHT_HEADER_FUNC size_t
1369:/home/tienluong/workspace/atlantis_fw/platform/common/lightheader/src/protobuf-c.c **** protobuf_c_message_pack(const ProtobufCMessage *message, uint8_t *out)
1370:/home/tienluong/workspace/atlantis_fw/platform/common/lightheader/src/protobuf-c.c **** {
1371:/home/tienluong/workspace/atlantis_fw/platform/common/lightheader/src/protobuf-c.c **** 	unsigned i;
1372:/home/tienluong/workspace/atlantis_fw/platform/common/lightheader/src/protobuf-c.c **** 	size_t rv = 0;
1373:/home/tienluong/workspace/atlantis_fw/platform/common/lightheader/src/protobuf-c.c **** 
1374:/home/tienluong/workspace/atlantis_fw/platform/common/lightheader/src/protobuf-c.c **** 	ASSERT_IS_MESSAGE(message);
1375:/home/tienluong/workspace/atlantis_fw/platform/common/lightheader/src/protobuf-c.c **** 	for (i = 0; i < message->descriptor->n_fields; i++) {
1376:/home/tienluong/workspace/atlantis_fw/platform/common/lightheader/src/protobuf-c.c **** 		const ProtobufCFieldDescriptor *field =
1377:/home/tienluong/workspace/atlantis_fw/platform/common/lightheader/src/protobuf-c.c **** 			message->descriptor->fields + i;
1378:/home/tienluong/workspace/atlantis_fw/platform/common/lightheader/src/protobuf-c.c **** 		const void *member = ((const char *) message) + field->offset;
1379:/home/tienluong/workspace/atlantis_fw/platform/common/lightheader/src/protobuf-c.c **** 
1380:/home/tienluong/workspace/atlantis_fw/platform/common/lightheader/src/protobuf-c.c **** 		/*
1381:/home/tienluong/workspace/atlantis_fw/platform/common/lightheader/src/protobuf-c.c **** 		 * It doesn't hurt to compute qmember (a pointer to the
1382:/home/tienluong/workspace/atlantis_fw/platform/common/lightheader/src/protobuf-c.c **** 		 * quantifier field of the structure), but the pointer is only
1383:/home/tienluong/workspace/atlantis_fw/platform/common/lightheader/src/protobuf-c.c **** 		 * valid if the field is:
1384:/home/tienluong/workspace/atlantis_fw/platform/common/lightheader/src/protobuf-c.c **** 		 *  - a repeated field, or
1385:/home/tienluong/workspace/atlantis_fw/platform/common/lightheader/src/protobuf-c.c **** 		 *  - a field that is part of a oneof
1386:/home/tienluong/workspace/atlantis_fw/platform/common/lightheader/src/protobuf-c.c **** 		 *  - an optional field that isn't a pointer type
1387:/home/tienluong/workspace/atlantis_fw/platform/common/lightheader/src/protobuf-c.c **** 		 * (Meaning: not a message or a string).
1388:/home/tienluong/workspace/atlantis_fw/platform/common/lightheader/src/protobuf-c.c **** 		 */
1389:/home/tienluong/workspace/atlantis_fw/platform/common/lightheader/src/protobuf-c.c **** 		const void *qmember =
1390:/home/tienluong/workspace/atlantis_fw/platform/common/lightheader/src/protobuf-c.c **** 			((const char *) message) + field->quantifier_offset;
1391:/home/tienluong/workspace/atlantis_fw/platform/common/lightheader/src/protobuf-c.c **** 
1392:/home/tienluong/workspace/atlantis_fw/platform/common/lightheader/src/protobuf-c.c **** 		if (field->label == PROTOBUF_C_LABEL_REQUIRED) {
1393:/home/tienluong/workspace/atlantis_fw/platform/common/lightheader/src/protobuf-c.c **** 			rv += required_field_pack(field, member, out + rv);
1394:/home/tienluong/workspace/atlantis_fw/platform/common/lightheader/src/protobuf-c.c **** 		} else if (field->label == PROTOBUF_C_LABEL_OPTIONAL) {
1395:/home/tienluong/workspace/atlantis_fw/platform/common/lightheader/src/protobuf-c.c **** 			if (0 != (field->flags & PROTOBUF_C_FIELD_FLAG_ONEOF))
1396:/home/tienluong/workspace/atlantis_fw/platform/common/lightheader/src/protobuf-c.c **** 				rv += oneof_field_pack (field, qmember, member, out + rv);
1397:/home/tienluong/workspace/atlantis_fw/platform/common/lightheader/src/protobuf-c.c **** 			else
1398:/home/tienluong/workspace/atlantis_fw/platform/common/lightheader/src/protobuf-c.c **** 				rv += optional_field_pack(field, qmember, member, out + rv);
1399:/home/tienluong/workspace/atlantis_fw/platform/common/lightheader/src/protobuf-c.c **** 		} else {
1400:/home/tienluong/workspace/atlantis_fw/platform/common/lightheader/src/protobuf-c.c **** 			rv += repeated_field_pack(field, *(const size_t *) qmember,
1401:/home/tienluong/workspace/atlantis_fw/platform/common/lightheader/src/protobuf-c.c **** 				member, out + rv);
1402:/home/tienluong/workspace/atlantis_fw/platform/common/lightheader/src/protobuf-c.c **** 		}
1403:/home/tienluong/workspace/atlantis_fw/platform/common/lightheader/src/protobuf-c.c **** 	}
1404:/home/tienluong/workspace/atlantis_fw/platform/common/lightheader/src/protobuf-c.c **** 	for (i = 0; i < message->n_unknown_fields; i++)
1405:/home/tienluong/workspace/atlantis_fw/platform/common/lightheader/src/protobuf-c.c **** 		rv += unknown_field_pack(&message->unknown_fields[i], out + rv);
1406:/home/tienluong/workspace/atlantis_fw/platform/common/lightheader/src/protobuf-c.c **** 	return rv;
1407:/home/tienluong/workspace/atlantis_fw/platform/common/lightheader/src/protobuf-c.c **** }
1408:/home/tienluong/workspace/atlantis_fw/platform/common/lightheader/src/protobuf-c.c **** 
1409:/home/tienluong/workspace/atlantis_fw/platform/common/lightheader/src/protobuf-c.c **** /**
1410:/home/tienluong/workspace/atlantis_fw/platform/common/lightheader/src/protobuf-c.c ****  * \defgroup packbuf protobuf_c_message_pack_to_buffer() implementation
1411:/home/tienluong/workspace/atlantis_fw/platform/common/lightheader/src/protobuf-c.c ****  *
1412:/home/tienluong/workspace/atlantis_fw/platform/common/lightheader/src/protobuf-c.c ****  * Routines mainly used by protobuf_c_message_pack_to_buffer().
1413:/home/tienluong/workspace/atlantis_fw/platform/common/lightheader/src/protobuf-c.c ****  *
1414:/home/tienluong/workspace/atlantis_fw/platform/common/lightheader/src/protobuf-c.c ****  * \ingroup internal
1415:/home/tienluong/workspace/atlantis_fw/platform/common/lightheader/src/protobuf-c.c ****  * @{
1416:/home/tienluong/workspace/atlantis_fw/platform/common/lightheader/src/protobuf-c.c ****  */
1417:/home/tienluong/workspace/atlantis_fw/platform/common/lightheader/src/protobuf-c.c **** 
1418:/home/tienluong/workspace/atlantis_fw/platform/common/lightheader/src/protobuf-c.c **** /**
1419:/home/tienluong/workspace/atlantis_fw/platform/common/lightheader/src/protobuf-c.c ****  * Pack a required field to a virtual buffer.
1420:/home/tienluong/workspace/atlantis_fw/platform/common/lightheader/src/protobuf-c.c ****  *
1421:/home/tienluong/workspace/atlantis_fw/platform/common/lightheader/src/protobuf-c.c ****  * \param field
1422:/home/tienluong/workspace/atlantis_fw/platform/common/lightheader/src/protobuf-c.c ****  *      Field descriptor.
1423:/home/tienluong/workspace/atlantis_fw/platform/common/lightheader/src/protobuf-c.c ****  * \param member
1424:/home/tienluong/workspace/atlantis_fw/platform/common/lightheader/src/protobuf-c.c ****  *      The element to be packed.
1425:/home/tienluong/workspace/atlantis_fw/platform/common/lightheader/src/protobuf-c.c ****  * \param[out] buffer
1426:/home/tienluong/workspace/atlantis_fw/platform/common/lightheader/src/protobuf-c.c ****  *      Virtual buffer to append data to.
1427:/home/tienluong/workspace/atlantis_fw/platform/common/lightheader/src/protobuf-c.c ****  * \return
1428:/home/tienluong/workspace/atlantis_fw/platform/common/lightheader/src/protobuf-c.c ****  *      Number of bytes packed.
1429:/home/tienluong/workspace/atlantis_fw/platform/common/lightheader/src/protobuf-c.c ****  */
1430:/home/tienluong/workspace/atlantis_fw/platform/common/lightheader/src/protobuf-c.c **** LIGHT_HEADER_STATIC static size_t
1431:/home/tienluong/workspace/atlantis_fw/platform/common/lightheader/src/protobuf-c.c **** required_field_pack_to_buffer(const ProtobufCFieldDescriptor *field,
1432:/home/tienluong/workspace/atlantis_fw/platform/common/lightheader/src/protobuf-c.c **** 			      const void *member, ProtobufCBuffer *buffer)
1433:/home/tienluong/workspace/atlantis_fw/platform/common/lightheader/src/protobuf-c.c **** {
1434:/home/tienluong/workspace/atlantis_fw/platform/common/lightheader/src/protobuf-c.c **** 	size_t rv;
1435:/home/tienluong/workspace/atlantis_fw/platform/common/lightheader/src/protobuf-c.c **** 	uint8_t scratch[MAX_UINT64_ENCODED_SIZE * 2];
1436:/home/tienluong/workspace/atlantis_fw/platform/common/lightheader/src/protobuf-c.c **** 
1437:/home/tienluong/workspace/atlantis_fw/platform/common/lightheader/src/protobuf-c.c **** 	rv = tag_pack(field->id, scratch);
1438:/home/tienluong/workspace/atlantis_fw/platform/common/lightheader/src/protobuf-c.c **** 	switch (field->type) {
1439:/home/tienluong/workspace/atlantis_fw/platform/common/lightheader/src/protobuf-c.c **** 	case PROTOBUF_C_TYPE_SINT32:
1440:/home/tienluong/workspace/atlantis_fw/platform/common/lightheader/src/protobuf-c.c **** 		scratch[0] |= PROTOBUF_C_WIRE_TYPE_VARINT;
1441:/home/tienluong/workspace/atlantis_fw/platform/common/lightheader/src/protobuf-c.c **** 		rv += sint32_pack(*(const int32_t *) member, scratch + rv);
1442:/home/tienluong/workspace/atlantis_fw/platform/common/lightheader/src/protobuf-c.c **** 		buffer->append(buffer, rv, scratch);
1443:/home/tienluong/workspace/atlantis_fw/platform/common/lightheader/src/protobuf-c.c **** 		break;
1444:/home/tienluong/workspace/atlantis_fw/platform/common/lightheader/src/protobuf-c.c **** 	case PROTOBUF_C_TYPE_ENUM:
1445:/home/tienluong/workspace/atlantis_fw/platform/common/lightheader/src/protobuf-c.c **** 	case PROTOBUF_C_TYPE_INT32:
1446:/home/tienluong/workspace/atlantis_fw/platform/common/lightheader/src/protobuf-c.c **** 		scratch[0] |= PROTOBUF_C_WIRE_TYPE_VARINT;
1447:/home/tienluong/workspace/atlantis_fw/platform/common/lightheader/src/protobuf-c.c **** 		rv += int32_pack(*(const int32_t *) member, scratch + rv);
1448:/home/tienluong/workspace/atlantis_fw/platform/common/lightheader/src/protobuf-c.c **** 		buffer->append(buffer, rv, scratch);
1449:/home/tienluong/workspace/atlantis_fw/platform/common/lightheader/src/protobuf-c.c **** 		break;
1450:/home/tienluong/workspace/atlantis_fw/platform/common/lightheader/src/protobuf-c.c **** 	case PROTOBUF_C_TYPE_UINT32:
1451:/home/tienluong/workspace/atlantis_fw/platform/common/lightheader/src/protobuf-c.c **** 		scratch[0] |= PROTOBUF_C_WIRE_TYPE_VARINT;
1452:/home/tienluong/workspace/atlantis_fw/platform/common/lightheader/src/protobuf-c.c **** 		rv += uint32_pack(*(const uint32_t *) member, scratch + rv);
1453:/home/tienluong/workspace/atlantis_fw/platform/common/lightheader/src/protobuf-c.c **** 		buffer->append(buffer, rv, scratch);
1454:/home/tienluong/workspace/atlantis_fw/platform/common/lightheader/src/protobuf-c.c **** 		break;
1455:/home/tienluong/workspace/atlantis_fw/platform/common/lightheader/src/protobuf-c.c **** 	case PROTOBUF_C_TYPE_SINT64:
1456:/home/tienluong/workspace/atlantis_fw/platform/common/lightheader/src/protobuf-c.c **** 		scratch[0] |= PROTOBUF_C_WIRE_TYPE_VARINT;
1457:/home/tienluong/workspace/atlantis_fw/platform/common/lightheader/src/protobuf-c.c **** 		rv += sint64_pack(*(const int64_t *) member, scratch + rv);
1458:/home/tienluong/workspace/atlantis_fw/platform/common/lightheader/src/protobuf-c.c **** 		buffer->append(buffer, rv, scratch);
1459:/home/tienluong/workspace/atlantis_fw/platform/common/lightheader/src/protobuf-c.c **** 		break;
1460:/home/tienluong/workspace/atlantis_fw/platform/common/lightheader/src/protobuf-c.c **** 	case PROTOBUF_C_TYPE_INT64:
1461:/home/tienluong/workspace/atlantis_fw/platform/common/lightheader/src/protobuf-c.c **** 	case PROTOBUF_C_TYPE_UINT64:
1462:/home/tienluong/workspace/atlantis_fw/platform/common/lightheader/src/protobuf-c.c **** 		scratch[0] |= PROTOBUF_C_WIRE_TYPE_VARINT;
1463:/home/tienluong/workspace/atlantis_fw/platform/common/lightheader/src/protobuf-c.c **** 		rv += uint64_pack(*(const uint64_t *) member, scratch + rv);
1464:/home/tienluong/workspace/atlantis_fw/platform/common/lightheader/src/protobuf-c.c **** 		buffer->append(buffer, rv, scratch);
1465:/home/tienluong/workspace/atlantis_fw/platform/common/lightheader/src/protobuf-c.c **** 		break;
1466:/home/tienluong/workspace/atlantis_fw/platform/common/lightheader/src/protobuf-c.c **** 	case PROTOBUF_C_TYPE_SFIXED32:
1467:/home/tienluong/workspace/atlantis_fw/platform/common/lightheader/src/protobuf-c.c **** 	case PROTOBUF_C_TYPE_FIXED32:
1468:/home/tienluong/workspace/atlantis_fw/platform/common/lightheader/src/protobuf-c.c **** 	case PROTOBUF_C_TYPE_FLOAT:
1469:/home/tienluong/workspace/atlantis_fw/platform/common/lightheader/src/protobuf-c.c **** 		scratch[0] |= PROTOBUF_C_WIRE_TYPE_32BIT;
1470:/home/tienluong/workspace/atlantis_fw/platform/common/lightheader/src/protobuf-c.c **** 		rv += fixed32_pack(*(const uint32_t *) member, scratch + rv);
1471:/home/tienluong/workspace/atlantis_fw/platform/common/lightheader/src/protobuf-c.c **** 		buffer->append(buffer, rv, scratch);
1472:/home/tienluong/workspace/atlantis_fw/platform/common/lightheader/src/protobuf-c.c **** 		break;
1473:/home/tienluong/workspace/atlantis_fw/platform/common/lightheader/src/protobuf-c.c **** 	case PROTOBUF_C_TYPE_SFIXED64:
1474:/home/tienluong/workspace/atlantis_fw/platform/common/lightheader/src/protobuf-c.c **** 	case PROTOBUF_C_TYPE_FIXED64:
1475:/home/tienluong/workspace/atlantis_fw/platform/common/lightheader/src/protobuf-c.c **** 	case PROTOBUF_C_TYPE_DOUBLE:
1476:/home/tienluong/workspace/atlantis_fw/platform/common/lightheader/src/protobuf-c.c **** 		scratch[0] |= PROTOBUF_C_WIRE_TYPE_64BIT;
1477:/home/tienluong/workspace/atlantis_fw/platform/common/lightheader/src/protobuf-c.c **** 		rv += fixed64_pack(*(const uint64_t *) member, scratch + rv);
1478:/home/tienluong/workspace/atlantis_fw/platform/common/lightheader/src/protobuf-c.c **** 		buffer->append(buffer, rv, scratch);
1479:/home/tienluong/workspace/atlantis_fw/platform/common/lightheader/src/protobuf-c.c **** 		break;
1480:/home/tienluong/workspace/atlantis_fw/platform/common/lightheader/src/protobuf-c.c **** 	case PROTOBUF_C_TYPE_BOOL:
1481:/home/tienluong/workspace/atlantis_fw/platform/common/lightheader/src/protobuf-c.c **** 		scratch[0] |= PROTOBUF_C_WIRE_TYPE_VARINT;
1482:/home/tienluong/workspace/atlantis_fw/platform/common/lightheader/src/protobuf-c.c **** 		rv += boolean_pack(*(const protobuf_c_boolean *) member, scratch + rv);
1483:/home/tienluong/workspace/atlantis_fw/platform/common/lightheader/src/protobuf-c.c **** 		buffer->append(buffer, rv, scratch);
1484:/home/tienluong/workspace/atlantis_fw/platform/common/lightheader/src/protobuf-c.c **** 		break;
1485:/home/tienluong/workspace/atlantis_fw/platform/common/lightheader/src/protobuf-c.c **** 	case PROTOBUF_C_TYPE_STRING: {
1486:/home/tienluong/workspace/atlantis_fw/platform/common/lightheader/src/protobuf-c.c **** 		const char *str = *(char *const *) member;
1487:/home/tienluong/workspace/atlantis_fw/platform/common/lightheader/src/protobuf-c.c **** 		size_t sublen = str ? strlen(str) : 0;
1488:/home/tienluong/workspace/atlantis_fw/platform/common/lightheader/src/protobuf-c.c **** 
1489:/home/tienluong/workspace/atlantis_fw/platform/common/lightheader/src/protobuf-c.c **** 		scratch[0] |= PROTOBUF_C_WIRE_TYPE_LENGTH_PREFIXED;
1490:/home/tienluong/workspace/atlantis_fw/platform/common/lightheader/src/protobuf-c.c **** 		rv += uint32_pack(sublen, scratch + rv);
1491:/home/tienluong/workspace/atlantis_fw/platform/common/lightheader/src/protobuf-c.c **** 		buffer->append(buffer, rv, scratch);
1492:/home/tienluong/workspace/atlantis_fw/platform/common/lightheader/src/protobuf-c.c **** 		buffer->append(buffer, sublen, (const uint8_t *) str);
1493:/home/tienluong/workspace/atlantis_fw/platform/common/lightheader/src/protobuf-c.c **** 		rv += sublen;
1494:/home/tienluong/workspace/atlantis_fw/platform/common/lightheader/src/protobuf-c.c **** 		break;
1495:/home/tienluong/workspace/atlantis_fw/platform/common/lightheader/src/protobuf-c.c **** 	}
1496:/home/tienluong/workspace/atlantis_fw/platform/common/lightheader/src/protobuf-c.c **** 	case PROTOBUF_C_TYPE_BYTES: {
1497:/home/tienluong/workspace/atlantis_fw/platform/common/lightheader/src/protobuf-c.c **** 		const ProtobufCBinaryData *bd = ((const ProtobufCBinaryData *) member);
1498:/home/tienluong/workspace/atlantis_fw/platform/common/lightheader/src/protobuf-c.c **** 		size_t sublen = bd->len;
1499:/home/tienluong/workspace/atlantis_fw/platform/common/lightheader/src/protobuf-c.c **** 
1500:/home/tienluong/workspace/atlantis_fw/platform/common/lightheader/src/protobuf-c.c **** 		scratch[0] |= PROTOBUF_C_WIRE_TYPE_LENGTH_PREFIXED;
1501:/home/tienluong/workspace/atlantis_fw/platform/common/lightheader/src/protobuf-c.c **** 		rv += uint32_pack(sublen, scratch + rv);
1502:/home/tienluong/workspace/atlantis_fw/platform/common/lightheader/src/protobuf-c.c **** 		buffer->append(buffer, rv, scratch);
1503:/home/tienluong/workspace/atlantis_fw/platform/common/lightheader/src/protobuf-c.c **** 		buffer->append(buffer, sublen, bd->data);
1504:/home/tienluong/workspace/atlantis_fw/platform/common/lightheader/src/protobuf-c.c **** 		rv += sublen;
1505:/home/tienluong/workspace/atlantis_fw/platform/common/lightheader/src/protobuf-c.c **** 		break;
1506:/home/tienluong/workspace/atlantis_fw/platform/common/lightheader/src/protobuf-c.c **** 	}
1507:/home/tienluong/workspace/atlantis_fw/platform/common/lightheader/src/protobuf-c.c **** 	case PROTOBUF_C_TYPE_MESSAGE: {
1508:/home/tienluong/workspace/atlantis_fw/platform/common/lightheader/src/protobuf-c.c **** 		uint8_t simple_buffer_scratch[256];
1509:/home/tienluong/workspace/atlantis_fw/platform/common/lightheader/src/protobuf-c.c **** 		size_t sublen;
1510:/home/tienluong/workspace/atlantis_fw/platform/common/lightheader/src/protobuf-c.c **** 		const ProtobufCMessage *msg = *(ProtobufCMessage * const *) member;
1511:/home/tienluong/workspace/atlantis_fw/platform/common/lightheader/src/protobuf-c.c **** 		ProtobufCBufferSimple simple_buffer =
1512:/home/tienluong/workspace/atlantis_fw/platform/common/lightheader/src/protobuf-c.c **** 			PROTOBUF_C_BUFFER_SIMPLE_INIT(simple_buffer_scratch);
1513:/home/tienluong/workspace/atlantis_fw/platform/common/lightheader/src/protobuf-c.c **** 
1514:/home/tienluong/workspace/atlantis_fw/platform/common/lightheader/src/protobuf-c.c **** 		scratch[0] |= PROTOBUF_C_WIRE_TYPE_LENGTH_PREFIXED;
1515:/home/tienluong/workspace/atlantis_fw/platform/common/lightheader/src/protobuf-c.c **** 		if (msg == NULL)
1516:/home/tienluong/workspace/atlantis_fw/platform/common/lightheader/src/protobuf-c.c **** 			sublen = 0;
1517:/home/tienluong/workspace/atlantis_fw/platform/common/lightheader/src/protobuf-c.c **** 		else
1518:/home/tienluong/workspace/atlantis_fw/platform/common/lightheader/src/protobuf-c.c **** 			sublen = protobuf_c_message_pack_to_buffer(msg, &simple_buffer.base);
1519:/home/tienluong/workspace/atlantis_fw/platform/common/lightheader/src/protobuf-c.c **** 		rv += uint32_pack(sublen, scratch + rv);
1520:/home/tienluong/workspace/atlantis_fw/platform/common/lightheader/src/protobuf-c.c **** 		buffer->append(buffer, rv, scratch);
1521:/home/tienluong/workspace/atlantis_fw/platform/common/lightheader/src/protobuf-c.c **** 		buffer->append(buffer, sublen, simple_buffer.data);
1522:/home/tienluong/workspace/atlantis_fw/platform/common/lightheader/src/protobuf-c.c **** 		rv += sublen;
1523:/home/tienluong/workspace/atlantis_fw/platform/common/lightheader/src/protobuf-c.c **** 		PROTOBUF_C_BUFFER_SIMPLE_CLEAR(&simple_buffer);
1524:/home/tienluong/workspace/atlantis_fw/platform/common/lightheader/src/protobuf-c.c **** 		break;
1525:/home/tienluong/workspace/atlantis_fw/platform/common/lightheader/src/protobuf-c.c **** 	}
1526:/home/tienluong/workspace/atlantis_fw/platform/common/lightheader/src/protobuf-c.c **** 	default:
1527:/home/tienluong/workspace/atlantis_fw/platform/common/lightheader/src/protobuf-c.c **** 		PROTOBUF_C__ASSERT_NOT_REACHED();
1528:/home/tienluong/workspace/atlantis_fw/platform/common/lightheader/src/protobuf-c.c **** 	}
1529:/home/tienluong/workspace/atlantis_fw/platform/common/lightheader/src/protobuf-c.c **** 	return rv;
1530:/home/tienluong/workspace/atlantis_fw/platform/common/lightheader/src/protobuf-c.c **** }
1531:/home/tienluong/workspace/atlantis_fw/platform/common/lightheader/src/protobuf-c.c **** 
1532:/home/tienluong/workspace/atlantis_fw/platform/common/lightheader/src/protobuf-c.c **** /**
1533:/home/tienluong/workspace/atlantis_fw/platform/common/lightheader/src/protobuf-c.c ****  * Pack a oneof field to a buffer. Only packs the field that is selected by the case enum.
1534:/home/tienluong/workspace/atlantis_fw/platform/common/lightheader/src/protobuf-c.c ****  *
1535:/home/tienluong/workspace/atlantis_fw/platform/common/lightheader/src/protobuf-c.c ****  * \param field
1536:/home/tienluong/workspace/atlantis_fw/platform/common/lightheader/src/protobuf-c.c ****  *      Field descriptor.
1537:/home/tienluong/workspace/atlantis_fw/platform/common/lightheader/src/protobuf-c.c ****  * \param oneof_case
1538:/home/tienluong/workspace/atlantis_fw/platform/common/lightheader/src/protobuf-c.c ****  *      A pointer to the case enum that selects the field in the oneof.
1539:/home/tienluong/workspace/atlantis_fw/platform/common/lightheader/src/protobuf-c.c ****  * \param member
1540:/home/tienluong/workspace/atlantis_fw/platform/common/lightheader/src/protobuf-c.c ****  *      The element to be packed.
1541:/home/tienluong/workspace/atlantis_fw/platform/common/lightheader/src/protobuf-c.c ****  * \param[out] buffer
1542:/home/tienluong/workspace/atlantis_fw/platform/common/lightheader/src/protobuf-c.c ****  *      Virtual buffer to append data to.
1543:/home/tienluong/workspace/atlantis_fw/platform/common/lightheader/src/protobuf-c.c ****  * \return
1544:/home/tienluong/workspace/atlantis_fw/platform/common/lightheader/src/protobuf-c.c ****  *      Number of bytes serialised to `buffer`.
1545:/home/tienluong/workspace/atlantis_fw/platform/common/lightheader/src/protobuf-c.c ****  */
1546:/home/tienluong/workspace/atlantis_fw/platform/common/lightheader/src/protobuf-c.c **** LIGHT_HEADER_STATIC static size_t
1547:/home/tienluong/workspace/atlantis_fw/platform/common/lightheader/src/protobuf-c.c **** oneof_field_pack_to_buffer(const ProtobufCFieldDescriptor *field,
1548:/home/tienluong/workspace/atlantis_fw/platform/common/lightheader/src/protobuf-c.c **** 			   const uint32_t *oneof_case,
1549:/home/tienluong/workspace/atlantis_fw/platform/common/lightheader/src/protobuf-c.c **** 			   const void *member, ProtobufCBuffer *buffer)
1550:/home/tienluong/workspace/atlantis_fw/platform/common/lightheader/src/protobuf-c.c **** {
1551:/home/tienluong/workspace/atlantis_fw/platform/common/lightheader/src/protobuf-c.c **** 	if (*oneof_case == field->id) {
1552:/home/tienluong/workspace/atlantis_fw/platform/common/lightheader/src/protobuf-c.c **** 		if (field->type == PROTOBUF_C_TYPE_MESSAGE ||
1553:/home/tienluong/workspace/atlantis_fw/platform/common/lightheader/src/protobuf-c.c **** 		    field->type == PROTOBUF_C_TYPE_STRING)
1554:/home/tienluong/workspace/atlantis_fw/platform/common/lightheader/src/protobuf-c.c **** 		{
1555:/home/tienluong/workspace/atlantis_fw/platform/common/lightheader/src/protobuf-c.c **** 			const void *ptr = *(const void *const *) member;
1556:/home/tienluong/workspace/atlantis_fw/platform/common/lightheader/src/protobuf-c.c **** 			if (ptr == NULL || ptr == field->default_value)
1557:/home/tienluong/workspace/atlantis_fw/platform/common/lightheader/src/protobuf-c.c **** 				return 0;
1558:/home/tienluong/workspace/atlantis_fw/platform/common/lightheader/src/protobuf-c.c **** 		}
1559:/home/tienluong/workspace/atlantis_fw/platform/common/lightheader/src/protobuf-c.c **** 	} else {
1560:/home/tienluong/workspace/atlantis_fw/platform/common/lightheader/src/protobuf-c.c **** 		return 0;
1561:/home/tienluong/workspace/atlantis_fw/platform/common/lightheader/src/protobuf-c.c **** 	}
1562:/home/tienluong/workspace/atlantis_fw/platform/common/lightheader/src/protobuf-c.c **** 	return required_field_pack_to_buffer(field, member, buffer);
1563:/home/tienluong/workspace/atlantis_fw/platform/common/lightheader/src/protobuf-c.c **** }
1564:/home/tienluong/workspace/atlantis_fw/platform/common/lightheader/src/protobuf-c.c **** 
1565:/home/tienluong/workspace/atlantis_fw/platform/common/lightheader/src/protobuf-c.c **** /**
1566:/home/tienluong/workspace/atlantis_fw/platform/common/lightheader/src/protobuf-c.c ****  * Pack an optional field to a buffer.
1567:/home/tienluong/workspace/atlantis_fw/platform/common/lightheader/src/protobuf-c.c ****  *
1568:/home/tienluong/workspace/atlantis_fw/platform/common/lightheader/src/protobuf-c.c ****  * \param field
1569:/home/tienluong/workspace/atlantis_fw/platform/common/lightheader/src/protobuf-c.c ****  *      Field descriptor.
1570:/home/tienluong/workspace/atlantis_fw/platform/common/lightheader/src/protobuf-c.c ****  * \param has
1571:/home/tienluong/workspace/atlantis_fw/platform/common/lightheader/src/protobuf-c.c ****  *      Whether the field is set.
1572:/home/tienluong/workspace/atlantis_fw/platform/common/lightheader/src/protobuf-c.c ****  * \param member
1573:/home/tienluong/workspace/atlantis_fw/platform/common/lightheader/src/protobuf-c.c ****  *      The element to be packed.
1574:/home/tienluong/workspace/atlantis_fw/platform/common/lightheader/src/protobuf-c.c ****  * \param[out] buffer
1575:/home/tienluong/workspace/atlantis_fw/platform/common/lightheader/src/protobuf-c.c ****  *      Virtual buffer to append data to.
1576:/home/tienluong/workspace/atlantis_fw/platform/common/lightheader/src/protobuf-c.c ****  * \return
1577:/home/tienluong/workspace/atlantis_fw/platform/common/lightheader/src/protobuf-c.c ****  *      Number of bytes serialised to `buffer`.
1578:/home/tienluong/workspace/atlantis_fw/platform/common/lightheader/src/protobuf-c.c ****  */
1579:/home/tienluong/workspace/atlantis_fw/platform/common/lightheader/src/protobuf-c.c **** LIGHT_HEADER_STATIC static size_t
1580:/home/tienluong/workspace/atlantis_fw/platform/common/lightheader/src/protobuf-c.c **** optional_field_pack_to_buffer(const ProtobufCFieldDescriptor *field,
1581:/home/tienluong/workspace/atlantis_fw/platform/common/lightheader/src/protobuf-c.c **** 			      const protobuf_c_boolean *has,
1582:/home/tienluong/workspace/atlantis_fw/platform/common/lightheader/src/protobuf-c.c **** 			      const void *member, ProtobufCBuffer *buffer)
1583:/home/tienluong/workspace/atlantis_fw/platform/common/lightheader/src/protobuf-c.c **** {
1584:/home/tienluong/workspace/atlantis_fw/platform/common/lightheader/src/protobuf-c.c **** 	if (field->type == PROTOBUF_C_TYPE_MESSAGE ||
1585:/home/tienluong/workspace/atlantis_fw/platform/common/lightheader/src/protobuf-c.c **** 	    field->type == PROTOBUF_C_TYPE_STRING)
1586:/home/tienluong/workspace/atlantis_fw/platform/common/lightheader/src/protobuf-c.c **** 	{
1587:/home/tienluong/workspace/atlantis_fw/platform/common/lightheader/src/protobuf-c.c **** 		const void *ptr = *(const void *const *) member;
1588:/home/tienluong/workspace/atlantis_fw/platform/common/lightheader/src/protobuf-c.c **** 		if (ptr == NULL || ptr == field->default_value)
1589:/home/tienluong/workspace/atlantis_fw/platform/common/lightheader/src/protobuf-c.c **** 			return 0;
1590:/home/tienluong/workspace/atlantis_fw/platform/common/lightheader/src/protobuf-c.c **** 	} else {
1591:/home/tienluong/workspace/atlantis_fw/platform/common/lightheader/src/protobuf-c.c **** 		if (!*has)
1592:/home/tienluong/workspace/atlantis_fw/platform/common/lightheader/src/protobuf-c.c **** 			return 0;
1593:/home/tienluong/workspace/atlantis_fw/platform/common/lightheader/src/protobuf-c.c **** 	}
1594:/home/tienluong/workspace/atlantis_fw/platform/common/lightheader/src/protobuf-c.c **** 	return required_field_pack_to_buffer(field, member, buffer);
1595:/home/tienluong/workspace/atlantis_fw/platform/common/lightheader/src/protobuf-c.c **** }
1596:/home/tienluong/workspace/atlantis_fw/platform/common/lightheader/src/protobuf-c.c **** 
1597:/home/tienluong/workspace/atlantis_fw/platform/common/lightheader/src/protobuf-c.c **** /**
1598:/home/tienluong/workspace/atlantis_fw/platform/common/lightheader/src/protobuf-c.c ****  * Get the packed size of an array of same field type.
1599:/home/tienluong/workspace/atlantis_fw/platform/common/lightheader/src/protobuf-c.c ****  *
1600:/home/tienluong/workspace/atlantis_fw/platform/common/lightheader/src/protobuf-c.c ****  * \param field
1601:/home/tienluong/workspace/atlantis_fw/platform/common/lightheader/src/protobuf-c.c ****  *      Field descriptor.
1602:/home/tienluong/workspace/atlantis_fw/platform/common/lightheader/src/protobuf-c.c ****  * \param count
1603:/home/tienluong/workspace/atlantis_fw/platform/common/lightheader/src/protobuf-c.c ****  *      Number of elements of this type.
1604:/home/tienluong/workspace/atlantis_fw/platform/common/lightheader/src/protobuf-c.c ****  * \param array
1605:/home/tienluong/workspace/atlantis_fw/platform/common/lightheader/src/protobuf-c.c ****  *      The elements to get the size of.
1606:/home/tienluong/workspace/atlantis_fw/platform/common/lightheader/src/protobuf-c.c ****  * \return
1607:/home/tienluong/workspace/atlantis_fw/platform/common/lightheader/src/protobuf-c.c ****  *      Number of bytes required.
1608:/home/tienluong/workspace/atlantis_fw/platform/common/lightheader/src/protobuf-c.c ****  */
1609:/home/tienluong/workspace/atlantis_fw/platform/common/lightheader/src/protobuf-c.c **** LIGHT_HEADER_STATIC static size_t
1610:/home/tienluong/workspace/atlantis_fw/platform/common/lightheader/src/protobuf-c.c **** get_packed_payload_length(const ProtobufCFieldDescriptor *field,
1611:/home/tienluong/workspace/atlantis_fw/platform/common/lightheader/src/protobuf-c.c **** 			  unsigned count, const void *array)
1612:/home/tienluong/workspace/atlantis_fw/platform/common/lightheader/src/protobuf-c.c **** {
1613:/home/tienluong/workspace/atlantis_fw/platform/common/lightheader/src/protobuf-c.c **** 	unsigned rv = 0;
1614:/home/tienluong/workspace/atlantis_fw/platform/common/lightheader/src/protobuf-c.c **** 	unsigned i;
1615:/home/tienluong/workspace/atlantis_fw/platform/common/lightheader/src/protobuf-c.c **** 
1616:/home/tienluong/workspace/atlantis_fw/platform/common/lightheader/src/protobuf-c.c **** 	switch (field->type) {
1617:/home/tienluong/workspace/atlantis_fw/platform/common/lightheader/src/protobuf-c.c **** 	case PROTOBUF_C_TYPE_SFIXED32:
1618:/home/tienluong/workspace/atlantis_fw/platform/common/lightheader/src/protobuf-c.c **** 	case PROTOBUF_C_TYPE_FIXED32:
1619:/home/tienluong/workspace/atlantis_fw/platform/common/lightheader/src/protobuf-c.c **** 	case PROTOBUF_C_TYPE_FLOAT:
1620:/home/tienluong/workspace/atlantis_fw/platform/common/lightheader/src/protobuf-c.c **** 		return count * 4;
1621:/home/tienluong/workspace/atlantis_fw/platform/common/lightheader/src/protobuf-c.c **** 	case PROTOBUF_C_TYPE_SFIXED64:
1622:/home/tienluong/workspace/atlantis_fw/platform/common/lightheader/src/protobuf-c.c **** 	case PROTOBUF_C_TYPE_FIXED64:
1623:/home/tienluong/workspace/atlantis_fw/platform/common/lightheader/src/protobuf-c.c **** 	case PROTOBUF_C_TYPE_DOUBLE:
1624:/home/tienluong/workspace/atlantis_fw/platform/common/lightheader/src/protobuf-c.c **** 		return count * 8;
1625:/home/tienluong/workspace/atlantis_fw/platform/common/lightheader/src/protobuf-c.c **** 	case PROTOBUF_C_TYPE_ENUM:
1626:/home/tienluong/workspace/atlantis_fw/platform/common/lightheader/src/protobuf-c.c **** 	case PROTOBUF_C_TYPE_INT32: {
1627:/home/tienluong/workspace/atlantis_fw/platform/common/lightheader/src/protobuf-c.c **** 		const int32_t *arr = (const int32_t *) array;
1628:/home/tienluong/workspace/atlantis_fw/platform/common/lightheader/src/protobuf-c.c **** 		for (i = 0; i < count; i++)
1629:/home/tienluong/workspace/atlantis_fw/platform/common/lightheader/src/protobuf-c.c **** 			rv += int32_size(arr[i]);
1630:/home/tienluong/workspace/atlantis_fw/platform/common/lightheader/src/protobuf-c.c **** 		break;
1631:/home/tienluong/workspace/atlantis_fw/platform/common/lightheader/src/protobuf-c.c **** 	}
1632:/home/tienluong/workspace/atlantis_fw/platform/common/lightheader/src/protobuf-c.c **** 	case PROTOBUF_C_TYPE_SINT32: {
1633:/home/tienluong/workspace/atlantis_fw/platform/common/lightheader/src/protobuf-c.c **** 		const int32_t *arr = (const int32_t *) array;
1634:/home/tienluong/workspace/atlantis_fw/platform/common/lightheader/src/protobuf-c.c **** 		for (i = 0; i < count; i++)
1635:/home/tienluong/workspace/atlantis_fw/platform/common/lightheader/src/protobuf-c.c **** 			rv += sint32_size(arr[i]);
1636:/home/tienluong/workspace/atlantis_fw/platform/common/lightheader/src/protobuf-c.c **** 		break;
1637:/home/tienluong/workspace/atlantis_fw/platform/common/lightheader/src/protobuf-c.c **** 	}
1638:/home/tienluong/workspace/atlantis_fw/platform/common/lightheader/src/protobuf-c.c **** 	case PROTOBUF_C_TYPE_UINT32: {
1639:/home/tienluong/workspace/atlantis_fw/platform/common/lightheader/src/protobuf-c.c **** 		const uint32_t *arr = (const uint32_t *) array;
1640:/home/tienluong/workspace/atlantis_fw/platform/common/lightheader/src/protobuf-c.c **** 		for (i = 0; i < count; i++)
1641:/home/tienluong/workspace/atlantis_fw/platform/common/lightheader/src/protobuf-c.c **** 			rv += uint32_size(arr[i]);
1642:/home/tienluong/workspace/atlantis_fw/platform/common/lightheader/src/protobuf-c.c **** 		break;
1643:/home/tienluong/workspace/atlantis_fw/platform/common/lightheader/src/protobuf-c.c **** 	}
1644:/home/tienluong/workspace/atlantis_fw/platform/common/lightheader/src/protobuf-c.c **** 	case PROTOBUF_C_TYPE_SINT64: {
1645:/home/tienluong/workspace/atlantis_fw/platform/common/lightheader/src/protobuf-c.c **** 		const int64_t *arr = (const int64_t *) array;
1646:/home/tienluong/workspace/atlantis_fw/platform/common/lightheader/src/protobuf-c.c **** 		for (i = 0; i < count; i++)
1647:/home/tienluong/workspace/atlantis_fw/platform/common/lightheader/src/protobuf-c.c **** 			rv += sint64_size(arr[i]);
1648:/home/tienluong/workspace/atlantis_fw/platform/common/lightheader/src/protobuf-c.c **** 		break;
1649:/home/tienluong/workspace/atlantis_fw/platform/common/lightheader/src/protobuf-c.c **** 	}
1650:/home/tienluong/workspace/atlantis_fw/platform/common/lightheader/src/protobuf-c.c **** 	case PROTOBUF_C_TYPE_INT64:
1651:/home/tienluong/workspace/atlantis_fw/platform/common/lightheader/src/protobuf-c.c **** 	case PROTOBUF_C_TYPE_UINT64: {
1652:/home/tienluong/workspace/atlantis_fw/platform/common/lightheader/src/protobuf-c.c **** 		const uint64_t *arr = (const uint64_t *) array;
1653:/home/tienluong/workspace/atlantis_fw/platform/common/lightheader/src/protobuf-c.c **** 		for (i = 0; i < count; i++)
1654:/home/tienluong/workspace/atlantis_fw/platform/common/lightheader/src/protobuf-c.c **** 			rv += uint64_size(arr[i]);
1655:/home/tienluong/workspace/atlantis_fw/platform/common/lightheader/src/protobuf-c.c **** 		break;
1656:/home/tienluong/workspace/atlantis_fw/platform/common/lightheader/src/protobuf-c.c **** 	}
1657:/home/tienluong/workspace/atlantis_fw/platform/common/lightheader/src/protobuf-c.c **** 	case PROTOBUF_C_TYPE_BOOL:
1658:/home/tienluong/workspace/atlantis_fw/platform/common/lightheader/src/protobuf-c.c **** 		return count;
1659:/home/tienluong/workspace/atlantis_fw/platform/common/lightheader/src/protobuf-c.c **** 	default:
1660:/home/tienluong/workspace/atlantis_fw/platform/common/lightheader/src/protobuf-c.c **** 		PROTOBUF_C__ASSERT_NOT_REACHED();
1661:/home/tienluong/workspace/atlantis_fw/platform/common/lightheader/src/protobuf-c.c **** 	}
1662:/home/tienluong/workspace/atlantis_fw/platform/common/lightheader/src/protobuf-c.c **** 	return rv;
1663:/home/tienluong/workspace/atlantis_fw/platform/common/lightheader/src/protobuf-c.c **** }
1664:/home/tienluong/workspace/atlantis_fw/platform/common/lightheader/src/protobuf-c.c **** 
1665:/home/tienluong/workspace/atlantis_fw/platform/common/lightheader/src/protobuf-c.c **** /**
1666:/home/tienluong/workspace/atlantis_fw/platform/common/lightheader/src/protobuf-c.c ****  * Pack an array of same field type to a virtual buffer.
1667:/home/tienluong/workspace/atlantis_fw/platform/common/lightheader/src/protobuf-c.c ****  *
1668:/home/tienluong/workspace/atlantis_fw/platform/common/lightheader/src/protobuf-c.c ****  * \param field
1669:/home/tienluong/workspace/atlantis_fw/platform/common/lightheader/src/protobuf-c.c ****  *      Field descriptor.
1670:/home/tienluong/workspace/atlantis_fw/platform/common/lightheader/src/protobuf-c.c ****  * \param count
1671:/home/tienluong/workspace/atlantis_fw/platform/common/lightheader/src/protobuf-c.c ****  *      Number of elements of this type.
1672:/home/tienluong/workspace/atlantis_fw/platform/common/lightheader/src/protobuf-c.c ****  * \param array
1673:/home/tienluong/workspace/atlantis_fw/platform/common/lightheader/src/protobuf-c.c ****  *      The elements to get the size of.
1674:/home/tienluong/workspace/atlantis_fw/platform/common/lightheader/src/protobuf-c.c ****  * \param[out] buffer
1675:/home/tienluong/workspace/atlantis_fw/platform/common/lightheader/src/protobuf-c.c ****  *      Virtual buffer to append data to.
1676:/home/tienluong/workspace/atlantis_fw/platform/common/lightheader/src/protobuf-c.c ****  * \return
1677:/home/tienluong/workspace/atlantis_fw/platform/common/lightheader/src/protobuf-c.c ****  *      Number of bytes packed.
1678:/home/tienluong/workspace/atlantis_fw/platform/common/lightheader/src/protobuf-c.c ****  */
1679:/home/tienluong/workspace/atlantis_fw/platform/common/lightheader/src/protobuf-c.c **** LIGHT_HEADER_STATIC static size_t
1680:/home/tienluong/workspace/atlantis_fw/platform/common/lightheader/src/protobuf-c.c **** pack_buffer_packed_payload(const ProtobufCFieldDescriptor *field,
1681:/home/tienluong/workspace/atlantis_fw/platform/common/lightheader/src/protobuf-c.c **** 			   unsigned count, const void *array,
1682:/home/tienluong/workspace/atlantis_fw/platform/common/lightheader/src/protobuf-c.c **** 			   ProtobufCBuffer *buffer)
1683:/home/tienluong/workspace/atlantis_fw/platform/common/lightheader/src/protobuf-c.c **** {
1684:/home/tienluong/workspace/atlantis_fw/platform/common/lightheader/src/protobuf-c.c **** 	uint8_t scratch[16];
1685:/home/tienluong/workspace/atlantis_fw/platform/common/lightheader/src/protobuf-c.c **** 	size_t rv = 0;
1686:/home/tienluong/workspace/atlantis_fw/platform/common/lightheader/src/protobuf-c.c **** 	unsigned i;
1687:/home/tienluong/workspace/atlantis_fw/platform/common/lightheader/src/protobuf-c.c **** 
1688:/home/tienluong/workspace/atlantis_fw/platform/common/lightheader/src/protobuf-c.c **** 	switch (field->type) {
1689:/home/tienluong/workspace/atlantis_fw/platform/common/lightheader/src/protobuf-c.c **** 	case PROTOBUF_C_TYPE_SFIXED32:
1690:/home/tienluong/workspace/atlantis_fw/platform/common/lightheader/src/protobuf-c.c **** 	case PROTOBUF_C_TYPE_FIXED32:
1691:/home/tienluong/workspace/atlantis_fw/platform/common/lightheader/src/protobuf-c.c **** 	case PROTOBUF_C_TYPE_FLOAT:
1692:/home/tienluong/workspace/atlantis_fw/platform/common/lightheader/src/protobuf-c.c **** #if !defined(WORDS_BIGENDIAN)
1693:/home/tienluong/workspace/atlantis_fw/platform/common/lightheader/src/protobuf-c.c **** 		rv = count * 4;
1694:/home/tienluong/workspace/atlantis_fw/platform/common/lightheader/src/protobuf-c.c **** 		goto no_packing_needed;
1695:/home/tienluong/workspace/atlantis_fw/platform/common/lightheader/src/protobuf-c.c **** #else
1696:/home/tienluong/workspace/atlantis_fw/platform/common/lightheader/src/protobuf-c.c **** 		for (i = 0; i < count; i++) {
1697:/home/tienluong/workspace/atlantis_fw/platform/common/lightheader/src/protobuf-c.c **** 			unsigned len = fixed32_pack(((uint32_t *) array)[i], scratch);
1698:/home/tienluong/workspace/atlantis_fw/platform/common/lightheader/src/protobuf-c.c **** 			buffer->append(buffer, len, scratch);
1699:/home/tienluong/workspace/atlantis_fw/platform/common/lightheader/src/protobuf-c.c **** 			rv += len;
1700:/home/tienluong/workspace/atlantis_fw/platform/common/lightheader/src/protobuf-c.c **** 		}
1701:/home/tienluong/workspace/atlantis_fw/platform/common/lightheader/src/protobuf-c.c **** 		break;
1702:/home/tienluong/workspace/atlantis_fw/platform/common/lightheader/src/protobuf-c.c **** #endif
1703:/home/tienluong/workspace/atlantis_fw/platform/common/lightheader/src/protobuf-c.c **** 	case PROTOBUF_C_TYPE_SFIXED64:
1704:/home/tienluong/workspace/atlantis_fw/platform/common/lightheader/src/protobuf-c.c **** 	case PROTOBUF_C_TYPE_FIXED64:
1705:/home/tienluong/workspace/atlantis_fw/platform/common/lightheader/src/protobuf-c.c **** 	case PROTOBUF_C_TYPE_DOUBLE:
1706:/home/tienluong/workspace/atlantis_fw/platform/common/lightheader/src/protobuf-c.c **** #if !defined(WORDS_BIGENDIAN)
1707:/home/tienluong/workspace/atlantis_fw/platform/common/lightheader/src/protobuf-c.c **** 		rv = count * 8;
1708:/home/tienluong/workspace/atlantis_fw/platform/common/lightheader/src/protobuf-c.c **** 		goto no_packing_needed;
1709:/home/tienluong/workspace/atlantis_fw/platform/common/lightheader/src/protobuf-c.c **** #else
1710:/home/tienluong/workspace/atlantis_fw/platform/common/lightheader/src/protobuf-c.c **** 		for (i = 0; i < count; i++) {
1711:/home/tienluong/workspace/atlantis_fw/platform/common/lightheader/src/protobuf-c.c **** 			unsigned len = fixed64_pack(((uint64_t *) array)[i], scratch);
1712:/home/tienluong/workspace/atlantis_fw/platform/common/lightheader/src/protobuf-c.c **** 			buffer->append(buffer, len, scratch);
1713:/home/tienluong/workspace/atlantis_fw/platform/common/lightheader/src/protobuf-c.c **** 			rv += len;
1714:/home/tienluong/workspace/atlantis_fw/platform/common/lightheader/src/protobuf-c.c **** 		}
1715:/home/tienluong/workspace/atlantis_fw/platform/common/lightheader/src/protobuf-c.c **** 		break;
1716:/home/tienluong/workspace/atlantis_fw/platform/common/lightheader/src/protobuf-c.c **** #endif
1717:/home/tienluong/workspace/atlantis_fw/platform/common/lightheader/src/protobuf-c.c **** 	case PROTOBUF_C_TYPE_ENUM:
1718:/home/tienluong/workspace/atlantis_fw/platform/common/lightheader/src/protobuf-c.c **** 	case PROTOBUF_C_TYPE_INT32:
1719:/home/tienluong/workspace/atlantis_fw/platform/common/lightheader/src/protobuf-c.c **** 		for (i = 0; i < count; i++) {
1720:/home/tienluong/workspace/atlantis_fw/platform/common/lightheader/src/protobuf-c.c **** 			unsigned len = int32_pack(((int32_t *) array)[i], scratch);
1721:/home/tienluong/workspace/atlantis_fw/platform/common/lightheader/src/protobuf-c.c **** 			buffer->append(buffer, len, scratch);
1722:/home/tienluong/workspace/atlantis_fw/platform/common/lightheader/src/protobuf-c.c **** 			rv += len;
1723:/home/tienluong/workspace/atlantis_fw/platform/common/lightheader/src/protobuf-c.c **** 		}
1724:/home/tienluong/workspace/atlantis_fw/platform/common/lightheader/src/protobuf-c.c **** 		break;
1725:/home/tienluong/workspace/atlantis_fw/platform/common/lightheader/src/protobuf-c.c **** 	case PROTOBUF_C_TYPE_SINT32:
1726:/home/tienluong/workspace/atlantis_fw/platform/common/lightheader/src/protobuf-c.c **** 		for (i = 0; i < count; i++) {
1727:/home/tienluong/workspace/atlantis_fw/platform/common/lightheader/src/protobuf-c.c **** 			unsigned len = sint32_pack(((int32_t *) array)[i], scratch);
1728:/home/tienluong/workspace/atlantis_fw/platform/common/lightheader/src/protobuf-c.c **** 			buffer->append(buffer, len, scratch);
1729:/home/tienluong/workspace/atlantis_fw/platform/common/lightheader/src/protobuf-c.c **** 			rv += len;
1730:/home/tienluong/workspace/atlantis_fw/platform/common/lightheader/src/protobuf-c.c **** 		}
1731:/home/tienluong/workspace/atlantis_fw/platform/common/lightheader/src/protobuf-c.c **** 		break;
1732:/home/tienluong/workspace/atlantis_fw/platform/common/lightheader/src/protobuf-c.c **** 	case PROTOBUF_C_TYPE_UINT32:
1733:/home/tienluong/workspace/atlantis_fw/platform/common/lightheader/src/protobuf-c.c **** 		for (i = 0; i < count; i++) {
1734:/home/tienluong/workspace/atlantis_fw/platform/common/lightheader/src/protobuf-c.c **** 			unsigned len = uint32_pack(((uint32_t *) array)[i], scratch);
1735:/home/tienluong/workspace/atlantis_fw/platform/common/lightheader/src/protobuf-c.c **** 			buffer->append(buffer, len, scratch);
1736:/home/tienluong/workspace/atlantis_fw/platform/common/lightheader/src/protobuf-c.c **** 			rv += len;
1737:/home/tienluong/workspace/atlantis_fw/platform/common/lightheader/src/protobuf-c.c **** 		}
1738:/home/tienluong/workspace/atlantis_fw/platform/common/lightheader/src/protobuf-c.c **** 		break;
1739:/home/tienluong/workspace/atlantis_fw/platform/common/lightheader/src/protobuf-c.c **** 	case PROTOBUF_C_TYPE_SINT64:
1740:/home/tienluong/workspace/atlantis_fw/platform/common/lightheader/src/protobuf-c.c **** 		for (i = 0; i < count; i++) {
1741:/home/tienluong/workspace/atlantis_fw/platform/common/lightheader/src/protobuf-c.c **** 			unsigned len = sint64_pack(((int64_t *) array)[i], scratch);
1742:/home/tienluong/workspace/atlantis_fw/platform/common/lightheader/src/protobuf-c.c **** 			buffer->append(buffer, len, scratch);
1743:/home/tienluong/workspace/atlantis_fw/platform/common/lightheader/src/protobuf-c.c **** 			rv += len;
1744:/home/tienluong/workspace/atlantis_fw/platform/common/lightheader/src/protobuf-c.c **** 		}
1745:/home/tienluong/workspace/atlantis_fw/platform/common/lightheader/src/protobuf-c.c **** 		break;
1746:/home/tienluong/workspace/atlantis_fw/platform/common/lightheader/src/protobuf-c.c **** 	case PROTOBUF_C_TYPE_INT64:
1747:/home/tienluong/workspace/atlantis_fw/platform/common/lightheader/src/protobuf-c.c **** 	case PROTOBUF_C_TYPE_UINT64:
1748:/home/tienluong/workspace/atlantis_fw/platform/common/lightheader/src/protobuf-c.c **** 		for (i = 0; i < count; i++) {
1749:/home/tienluong/workspace/atlantis_fw/platform/common/lightheader/src/protobuf-c.c **** 			unsigned len = uint64_pack(((uint64_t *) array)[i], scratch);
1750:/home/tienluong/workspace/atlantis_fw/platform/common/lightheader/src/protobuf-c.c **** 			buffer->append(buffer, len, scratch);
1751:/home/tienluong/workspace/atlantis_fw/platform/common/lightheader/src/protobuf-c.c **** 			rv += len;
1752:/home/tienluong/workspace/atlantis_fw/platform/common/lightheader/src/protobuf-c.c **** 		}
1753:/home/tienluong/workspace/atlantis_fw/platform/common/lightheader/src/protobuf-c.c **** 		break;
1754:/home/tienluong/workspace/atlantis_fw/platform/common/lightheader/src/protobuf-c.c **** 	case PROTOBUF_C_TYPE_BOOL:
1755:/home/tienluong/workspace/atlantis_fw/platform/common/lightheader/src/protobuf-c.c **** 		for (i = 0; i < count; i++) {
1756:/home/tienluong/workspace/atlantis_fw/platform/common/lightheader/src/protobuf-c.c **** 			unsigned len = boolean_pack(((protobuf_c_boolean *) array)[i], scratch);
1757:/home/tienluong/workspace/atlantis_fw/platform/common/lightheader/src/protobuf-c.c **** 			buffer->append(buffer, len, scratch);
1758:/home/tienluong/workspace/atlantis_fw/platform/common/lightheader/src/protobuf-c.c **** 			rv += len;
1759:/home/tienluong/workspace/atlantis_fw/platform/common/lightheader/src/protobuf-c.c **** 		}
1760:/home/tienluong/workspace/atlantis_fw/platform/common/lightheader/src/protobuf-c.c **** 		return count;
1761:/home/tienluong/workspace/atlantis_fw/platform/common/lightheader/src/protobuf-c.c **** 	default:
1762:/home/tienluong/workspace/atlantis_fw/platform/common/lightheader/src/protobuf-c.c **** 		PROTOBUF_C__ASSERT_NOT_REACHED();
1763:/home/tienluong/workspace/atlantis_fw/platform/common/lightheader/src/protobuf-c.c **** 	}
1764:/home/tienluong/workspace/atlantis_fw/platform/common/lightheader/src/protobuf-c.c **** 	return rv;
1765:/home/tienluong/workspace/atlantis_fw/platform/common/lightheader/src/protobuf-c.c **** 
1766:/home/tienluong/workspace/atlantis_fw/platform/common/lightheader/src/protobuf-c.c **** no_packing_needed:
1767:/home/tienluong/workspace/atlantis_fw/platform/common/lightheader/src/protobuf-c.c **** 	buffer->append(buffer, rv, array);
1768:/home/tienluong/workspace/atlantis_fw/platform/common/lightheader/src/protobuf-c.c **** 	return rv;
1769:/home/tienluong/workspace/atlantis_fw/platform/common/lightheader/src/protobuf-c.c **** }
1770:/home/tienluong/workspace/atlantis_fw/platform/common/lightheader/src/protobuf-c.c **** 
1771:/home/tienluong/workspace/atlantis_fw/platform/common/lightheader/src/protobuf-c.c **** LIGHT_HEADER_STATIC static size_t
1772:/home/tienluong/workspace/atlantis_fw/platform/common/lightheader/src/protobuf-c.c **** repeated_field_pack_to_buffer(const ProtobufCFieldDescriptor *field,
1773:/home/tienluong/workspace/atlantis_fw/platform/common/lightheader/src/protobuf-c.c **** 			      unsigned count, const void *member,
1774:/home/tienluong/workspace/atlantis_fw/platform/common/lightheader/src/protobuf-c.c **** 			      ProtobufCBuffer *buffer)
1775:/home/tienluong/workspace/atlantis_fw/platform/common/lightheader/src/protobuf-c.c **** {
1776:/home/tienluong/workspace/atlantis_fw/platform/common/lightheader/src/protobuf-c.c **** 	char *array = *(char * const *) member;
1777:/home/tienluong/workspace/atlantis_fw/platform/common/lightheader/src/protobuf-c.c **** 
1778:/home/tienluong/workspace/atlantis_fw/platform/common/lightheader/src/protobuf-c.c **** 	if (count == 0)
1779:/home/tienluong/workspace/atlantis_fw/platform/common/lightheader/src/protobuf-c.c **** 		return 0;
1780:/home/tienluong/workspace/atlantis_fw/platform/common/lightheader/src/protobuf-c.c **** 	if (0 != (field->flags & PROTOBUF_C_FIELD_FLAG_PACKED)) {
1781:/home/tienluong/workspace/atlantis_fw/platform/common/lightheader/src/protobuf-c.c **** 		uint8_t scratch[MAX_UINT64_ENCODED_SIZE * 2];
1782:/home/tienluong/workspace/atlantis_fw/platform/common/lightheader/src/protobuf-c.c **** 		size_t rv = tag_pack(field->id, scratch);
1783:/home/tienluong/workspace/atlantis_fw/platform/common/lightheader/src/protobuf-c.c **** 		size_t payload_len = get_packed_payload_length(field, count, array);
1784:/home/tienluong/workspace/atlantis_fw/platform/common/lightheader/src/protobuf-c.c **** 		size_t tmp;
1785:/home/tienluong/workspace/atlantis_fw/platform/common/lightheader/src/protobuf-c.c **** 
1786:/home/tienluong/workspace/atlantis_fw/platform/common/lightheader/src/protobuf-c.c **** 		scratch[0] |= PROTOBUF_C_WIRE_TYPE_LENGTH_PREFIXED;
1787:/home/tienluong/workspace/atlantis_fw/platform/common/lightheader/src/protobuf-c.c **** 		rv += uint32_pack(payload_len, scratch + rv);
1788:/home/tienluong/workspace/atlantis_fw/platform/common/lightheader/src/protobuf-c.c **** 		buffer->append(buffer, rv, scratch);
1789:/home/tienluong/workspace/atlantis_fw/platform/common/lightheader/src/protobuf-c.c **** 		tmp = pack_buffer_packed_payload(field, count, array, buffer);
1790:/home/tienluong/workspace/atlantis_fw/platform/common/lightheader/src/protobuf-c.c **** 		assert(tmp == payload_len);
1791:/home/tienluong/workspace/atlantis_fw/platform/common/lightheader/src/protobuf-c.c **** 		return rv + payload_len;
1792:/home/tienluong/workspace/atlantis_fw/platform/common/lightheader/src/protobuf-c.c **** 	} else {
1793:/home/tienluong/workspace/atlantis_fw/platform/common/lightheader/src/protobuf-c.c **** 		size_t siz;
1794:/home/tienluong/workspace/atlantis_fw/platform/common/lightheader/src/protobuf-c.c **** 		unsigned i;
1795:/home/tienluong/workspace/atlantis_fw/platform/common/lightheader/src/protobuf-c.c **** 		/* CONSIDER: optimize this case a bit (by putting the loop inside the switch) */
1796:/home/tienluong/workspace/atlantis_fw/platform/common/lightheader/src/protobuf-c.c **** 		unsigned rv = 0;
1797:/home/tienluong/workspace/atlantis_fw/platform/common/lightheader/src/protobuf-c.c **** 
1798:/home/tienluong/workspace/atlantis_fw/platform/common/lightheader/src/protobuf-c.c **** 		siz = sizeof_elt_in_repeated_array(field->type);
1799:/home/tienluong/workspace/atlantis_fw/platform/common/lightheader/src/protobuf-c.c **** 		for (i = 0; i < count; i++) {
1800:/home/tienluong/workspace/atlantis_fw/platform/common/lightheader/src/protobuf-c.c **** 			rv += required_field_pack_to_buffer(field, array, buffer);
1801:/home/tienluong/workspace/atlantis_fw/platform/common/lightheader/src/protobuf-c.c **** 			array += siz;
1802:/home/tienluong/workspace/atlantis_fw/platform/common/lightheader/src/protobuf-c.c **** 		}
1803:/home/tienluong/workspace/atlantis_fw/platform/common/lightheader/src/protobuf-c.c **** 		return rv;
1804:/home/tienluong/workspace/atlantis_fw/platform/common/lightheader/src/protobuf-c.c **** 	}
1805:/home/tienluong/workspace/atlantis_fw/platform/common/lightheader/src/protobuf-c.c **** }
1806:/home/tienluong/workspace/atlantis_fw/platform/common/lightheader/src/protobuf-c.c **** 
1807:/home/tienluong/workspace/atlantis_fw/platform/common/lightheader/src/protobuf-c.c **** LIGHT_HEADER_STATIC static size_t
1808:/home/tienluong/workspace/atlantis_fw/platform/common/lightheader/src/protobuf-c.c **** unknown_field_pack_to_buffer(const ProtobufCMessageUnknownField *field,
1809:/home/tienluong/workspace/atlantis_fw/platform/common/lightheader/src/protobuf-c.c **** 			     ProtobufCBuffer *buffer)
1810:/home/tienluong/workspace/atlantis_fw/platform/common/lightheader/src/protobuf-c.c **** {
1811:/home/tienluong/workspace/atlantis_fw/platform/common/lightheader/src/protobuf-c.c **** 	uint8_t header[MAX_UINT64_ENCODED_SIZE];
1812:/home/tienluong/workspace/atlantis_fw/platform/common/lightheader/src/protobuf-c.c **** 	size_t rv = tag_pack(field->tag, header);
1813:/home/tienluong/workspace/atlantis_fw/platform/common/lightheader/src/protobuf-c.c **** 
1814:/home/tienluong/workspace/atlantis_fw/platform/common/lightheader/src/protobuf-c.c **** 	header[0] |= field->wire_type;
1815:/home/tienluong/workspace/atlantis_fw/platform/common/lightheader/src/protobuf-c.c **** 	buffer->append(buffer, rv, header);
1816:/home/tienluong/workspace/atlantis_fw/platform/common/lightheader/src/protobuf-c.c **** 	buffer->append(buffer, field->len, field->data);
1817:/home/tienluong/workspace/atlantis_fw/platform/common/lightheader/src/protobuf-c.c **** 	return rv + field->len;
1818:/home/tienluong/workspace/atlantis_fw/platform/common/lightheader/src/protobuf-c.c **** }
1819:/home/tienluong/workspace/atlantis_fw/platform/common/lightheader/src/protobuf-c.c **** 
1820:/home/tienluong/workspace/atlantis_fw/platform/common/lightheader/src/protobuf-c.c **** /**@}*/
1821:/home/tienluong/workspace/atlantis_fw/platform/common/lightheader/src/protobuf-c.c **** 
1822:/home/tienluong/workspace/atlantis_fw/platform/common/lightheader/src/protobuf-c.c **** LIGHT_HEADER_FUNC size_t
1823:/home/tienluong/workspace/atlantis_fw/platform/common/lightheader/src/protobuf-c.c **** protobuf_c_message_pack_to_buffer(const ProtobufCMessage *message,
1824:/home/tienluong/workspace/atlantis_fw/platform/common/lightheader/src/protobuf-c.c **** 				  ProtobufCBuffer *buffer)
1825:/home/tienluong/workspace/atlantis_fw/platform/common/lightheader/src/protobuf-c.c **** {
1826:/home/tienluong/workspace/atlantis_fw/platform/common/lightheader/src/protobuf-c.c **** 	unsigned i;
1827:/home/tienluong/workspace/atlantis_fw/platform/common/lightheader/src/protobuf-c.c **** 	size_t rv = 0;
1828:/home/tienluong/workspace/atlantis_fw/platform/common/lightheader/src/protobuf-c.c **** 
1829:/home/tienluong/workspace/atlantis_fw/platform/common/lightheader/src/protobuf-c.c **** 	ASSERT_IS_MESSAGE(message);
1830:/home/tienluong/workspace/atlantis_fw/platform/common/lightheader/src/protobuf-c.c **** 	for (i = 0; i < message->descriptor->n_fields; i++) {
1831:/home/tienluong/workspace/atlantis_fw/platform/common/lightheader/src/protobuf-c.c **** 		const ProtobufCFieldDescriptor *field =
1832:/home/tienluong/workspace/atlantis_fw/platform/common/lightheader/src/protobuf-c.c **** 			message->descriptor->fields + i;
1833:/home/tienluong/workspace/atlantis_fw/platform/common/lightheader/src/protobuf-c.c **** 		const void *member =
1834:/home/tienluong/workspace/atlantis_fw/platform/common/lightheader/src/protobuf-c.c **** 			((const char *) message) + field->offset;
1835:/home/tienluong/workspace/atlantis_fw/platform/common/lightheader/src/protobuf-c.c **** 		const void *qmember =
1836:/home/tienluong/workspace/atlantis_fw/platform/common/lightheader/src/protobuf-c.c **** 			((const char *) message) + field->quantifier_offset;
1837:/home/tienluong/workspace/atlantis_fw/platform/common/lightheader/src/protobuf-c.c **** 
1838:/home/tienluong/workspace/atlantis_fw/platform/common/lightheader/src/protobuf-c.c **** 		if (field->label == PROTOBUF_C_LABEL_REQUIRED) {
1839:/home/tienluong/workspace/atlantis_fw/platform/common/lightheader/src/protobuf-c.c **** 			rv += required_field_pack_to_buffer(field, member, buffer);
1840:/home/tienluong/workspace/atlantis_fw/platform/common/lightheader/src/protobuf-c.c **** 		} else if (field->label == PROTOBUF_C_LABEL_OPTIONAL) {
1841:/home/tienluong/workspace/atlantis_fw/platform/common/lightheader/src/protobuf-c.c **** 			if (0 != (field->flags & PROTOBUF_C_FIELD_FLAG_ONEOF)) {
1842:/home/tienluong/workspace/atlantis_fw/platform/common/lightheader/src/protobuf-c.c **** 				rv += oneof_field_pack_to_buffer(
1843:/home/tienluong/workspace/atlantis_fw/platform/common/lightheader/src/protobuf-c.c **** 					field,
1844:/home/tienluong/workspace/atlantis_fw/platform/common/lightheader/src/protobuf-c.c **** 					qmember,
1845:/home/tienluong/workspace/atlantis_fw/platform/common/lightheader/src/protobuf-c.c **** 					member,
1846:/home/tienluong/workspace/atlantis_fw/platform/common/lightheader/src/protobuf-c.c **** 					buffer
1847:/home/tienluong/workspace/atlantis_fw/platform/common/lightheader/src/protobuf-c.c **** 					);
1848:/home/tienluong/workspace/atlantis_fw/platform/common/lightheader/src/protobuf-c.c **** 			} else {
1849:/home/tienluong/workspace/atlantis_fw/platform/common/lightheader/src/protobuf-c.c **** 				rv += optional_field_pack_to_buffer(
1850:/home/tienluong/workspace/atlantis_fw/platform/common/lightheader/src/protobuf-c.c **** 					field,
1851:/home/tienluong/workspace/atlantis_fw/platform/common/lightheader/src/protobuf-c.c **** 					qmember,
1852:/home/tienluong/workspace/atlantis_fw/platform/common/lightheader/src/protobuf-c.c **** 					member,
1853:/home/tienluong/workspace/atlantis_fw/platform/common/lightheader/src/protobuf-c.c **** 					buffer
1854:/home/tienluong/workspace/atlantis_fw/platform/common/lightheader/src/protobuf-c.c **** 					);
1855:/home/tienluong/workspace/atlantis_fw/platform/common/lightheader/src/protobuf-c.c **** 			}
1856:/home/tienluong/workspace/atlantis_fw/platform/common/lightheader/src/protobuf-c.c **** 		} else {
1857:/home/tienluong/workspace/atlantis_fw/platform/common/lightheader/src/protobuf-c.c **** 			rv += repeated_field_pack_to_buffer(
1858:/home/tienluong/workspace/atlantis_fw/platform/common/lightheader/src/protobuf-c.c **** 				field,
1859:/home/tienluong/workspace/atlantis_fw/platform/common/lightheader/src/protobuf-c.c **** 				*(const size_t *) qmember,
1860:/home/tienluong/workspace/atlantis_fw/platform/common/lightheader/src/protobuf-c.c **** 				member,
1861:/home/tienluong/workspace/atlantis_fw/platform/common/lightheader/src/protobuf-c.c **** 				buffer
1862:/home/tienluong/workspace/atlantis_fw/platform/common/lightheader/src/protobuf-c.c **** 			);
1863:/home/tienluong/workspace/atlantis_fw/platform/common/lightheader/src/protobuf-c.c **** 		}
1864:/home/tienluong/workspace/atlantis_fw/platform/common/lightheader/src/protobuf-c.c **** 	}
1865:/home/tienluong/workspace/atlantis_fw/platform/common/lightheader/src/protobuf-c.c **** 	for (i = 0; i < message->n_unknown_fields; i++)
1866:/home/tienluong/workspace/atlantis_fw/platform/common/lightheader/src/protobuf-c.c **** 		rv += unknown_field_pack_to_buffer(&message->unknown_fields[i], buffer);
1867:/home/tienluong/workspace/atlantis_fw/platform/common/lightheader/src/protobuf-c.c **** 
1868:/home/tienluong/workspace/atlantis_fw/platform/common/lightheader/src/protobuf-c.c **** 	return rv;
1869:/home/tienluong/workspace/atlantis_fw/platform/common/lightheader/src/protobuf-c.c **** }
1870:/home/tienluong/workspace/atlantis_fw/platform/common/lightheader/src/protobuf-c.c **** 
1871:/home/tienluong/workspace/atlantis_fw/platform/common/lightheader/src/protobuf-c.c **** /**
1872:/home/tienluong/workspace/atlantis_fw/platform/common/lightheader/src/protobuf-c.c ****  * \defgroup unpack unpacking implementation
1873:/home/tienluong/workspace/atlantis_fw/platform/common/lightheader/src/protobuf-c.c ****  *
1874:/home/tienluong/workspace/atlantis_fw/platform/common/lightheader/src/protobuf-c.c ****  * Routines mainly used by the unpacking functions.
1875:/home/tienluong/workspace/atlantis_fw/platform/common/lightheader/src/protobuf-c.c ****  *
1876:/home/tienluong/workspace/atlantis_fw/platform/common/lightheader/src/protobuf-c.c ****  * \ingroup internal
1877:/home/tienluong/workspace/atlantis_fw/platform/common/lightheader/src/protobuf-c.c ****  * @{
1878:/home/tienluong/workspace/atlantis_fw/platform/common/lightheader/src/protobuf-c.c ****  */
1879:/home/tienluong/workspace/atlantis_fw/platform/common/lightheader/src/protobuf-c.c **** 
1880:/home/tienluong/workspace/atlantis_fw/platform/common/lightheader/src/protobuf-c.c **** LIGHT_HEADER_STATIC static inline int
1881:/home/tienluong/workspace/atlantis_fw/platform/common/lightheader/src/protobuf-c.c **** int_range_lookup(unsigned n_ranges, const ProtobufCIntRange *ranges, int value)
1882:/home/tienluong/workspace/atlantis_fw/platform/common/lightheader/src/protobuf-c.c **** {
 378              		.loc 1 1882 0
 379              		.cfi_startproc
 380              		@ args = 0, pretend = 0, frame = 0
 381              		@ frame_needed = 0, uses_anonymous_args = 0
 382              	.LVL43:
 383 0000 F0B5     		push	{r4, r5, r6, r7, lr}
 384              	.LCFI3:
 385              		.cfi_def_cfa_offset 20
 386              		.cfi_offset 4, -20
 387              		.cfi_offset 5, -16
 388              		.cfi_offset 6, -12
 389              		.cfi_offset 7, -8
 390              		.cfi_offset 14, -4
1883:/home/tienluong/workspace/atlantis_fw/platform/common/lightheader/src/protobuf-c.c **** 	unsigned n;
1884:/home/tienluong/workspace/atlantis_fw/platform/common/lightheader/src/protobuf-c.c **** 	unsigned start;
1885:/home/tienluong/workspace/atlantis_fw/platform/common/lightheader/src/protobuf-c.c **** 
1886:/home/tienluong/workspace/atlantis_fw/platform/common/lightheader/src/protobuf-c.c **** 	if (n_ranges == 0)
 391              		.loc 1 1886 0
 392 0002 58B3     		cbz	r0, .L40
 393 0004 0025     		movs	r5, #0
 394              	.LVL44:
 395              	.L33:
1887:/home/tienluong/workspace/atlantis_fw/platform/common/lightheader/src/protobuf-c.c **** 		return -1;
1888:/home/tienluong/workspace/atlantis_fw/platform/common/lightheader/src/protobuf-c.c **** 	start = 0;
1889:/home/tienluong/workspace/atlantis_fw/platform/common/lightheader/src/protobuf-c.c **** 	n = n_ranges;
1890:/home/tienluong/workspace/atlantis_fw/platform/common/lightheader/src/protobuf-c.c **** 	while (n > 1) {
 396              		.loc 1 1890 0
 397 0006 0128     		cmp	r0, #1
 398 0008 18D9     		bls	.L42
 399              	.LBB94:
1891:/home/tienluong/workspace/atlantis_fw/platform/common/lightheader/src/protobuf-c.c **** 		unsigned mid = start + n / 2;
 400              		.loc 1 1891 0
 401 000a 4308     		lsrs	r3, r0, #1
 402 000c 5C19     		adds	r4, r3, r5
 403              	.LVL45:
1892:/home/tienluong/workspace/atlantis_fw/platform/common/lightheader/src/protobuf-c.c **** 
1893:/home/tienluong/workspace/atlantis_fw/platform/common/lightheader/src/protobuf-c.c **** 		if (value < ranges[mid].start_value) {
 404              		.loc 1 1893 0
 405 000e 01EBC407 		add	r7, r1, r4, lsl #3
 406 0012 51F83460 		ldr	r6, [r1, r4, lsl #3]
 407 0016 B242     		cmp	r2, r6
 408 0018 0EDB     		blt	.L37
1894:/home/tienluong/workspace/atlantis_fw/platform/common/lightheader/src/protobuf-c.c **** 			n = mid - start;
1895:/home/tienluong/workspace/atlantis_fw/platform/common/lightheader/src/protobuf-c.c **** 		} else if (value >= ranges[mid].start_value +
1896:/home/tienluong/workspace/atlantis_fw/platform/common/lightheader/src/protobuf-c.c **** 			   (int) (ranges[mid + 1].orig_index -
 409              		.loc 1 1896 0
 410 001a 0134     		adds	r4, r4, #1
 411              	.LVL46:
1897:/home/tienluong/workspace/atlantis_fw/platform/common/lightheader/src/protobuf-c.c **** 				  ranges[mid].orig_index))
 412              		.loc 1 1897 0
 413 001c 7B68     		ldr	r3, [r7, #4]
1896:/home/tienluong/workspace/atlantis_fw/platform/common/lightheader/src/protobuf-c.c **** 				  ranges[mid].orig_index))
 414              		.loc 1 1896 0
 415 001e 01EBC407 		add	r7, r1, r4, lsl #3
 416 0022 7F68     		ldr	r7, [r7, #4]
 417 0024 FF1A     		subs	r7, r7, r3
1895:/home/tienluong/workspace/atlantis_fw/platform/common/lightheader/src/protobuf-c.c **** 			   (int) (ranges[mid + 1].orig_index -
 418              		.loc 1 1895 0
 419 0026 3744     		add	r7, r7, r6
 420 0028 BA42     		cmp	r2, r7
 421 002a 03DB     		blt	.L34
 422              	.LVL47:
 423              	.LBB95:
1898:/home/tienluong/workspace/atlantis_fw/platform/common/lightheader/src/protobuf-c.c **** 		{
1899:/home/tienluong/workspace/atlantis_fw/platform/common/lightheader/src/protobuf-c.c **** 			unsigned new_start = mid + 1;
1900:/home/tienluong/workspace/atlantis_fw/platform/common/lightheader/src/protobuf-c.c **** 			n = start + n - new_start;
 424              		.loc 1 1900 0
 425 002c 2844     		add	r0, r0, r5
 426              	.LVL48:
 427 002e 001B     		subs	r0, r0, r4
 428              	.LVL49:
1901:/home/tienluong/workspace/atlantis_fw/platform/common/lightheader/src/protobuf-c.c **** 			start = new_start;
 429              		.loc 1 1901 0
 430 0030 2546     		mov	r5, r4
 431              	.LBE95:
 432 0032 E8E7     		b	.L33
 433              	.LVL50:
 434              	.L34:
1902:/home/tienluong/workspace/atlantis_fw/platform/common/lightheader/src/protobuf-c.c **** 		} else
1903:/home/tienluong/workspace/atlantis_fw/platform/common/lightheader/src/protobuf-c.c **** 			return (value - ranges[mid].start_value) +
 435              		.loc 1 1903 0
 436 0034 901B     		subs	r0, r2, r6
 437              	.LVL51:
 438 0036 0FE0     		b	.L41
 439              	.LVL52:
 440              	.L37:
1894:/home/tienluong/workspace/atlantis_fw/platform/common/lightheader/src/protobuf-c.c **** 		} else if (value >= ranges[mid].start_value +
 441              		.loc 1 1894 0
 442 0038 1846     		mov	r0, r3
 443              	.LVL53:
 444 003a E4E7     		b	.L33
 445              	.LVL54:
 446              	.L42:
 447              	.LBE94:
1904:/home/tienluong/workspace/atlantis_fw/platform/common/lightheader/src/protobuf-c.c **** 			    ranges[mid].orig_index;
1905:/home/tienluong/workspace/atlantis_fw/platform/common/lightheader/src/protobuf-c.c **** 	}
1906:/home/tienluong/workspace/atlantis_fw/platform/common/lightheader/src/protobuf-c.c **** 	if (n > 0) {
 448              		.loc 1 1906 0
 449 003c 70B1     		cbz	r0, .L40
 450              	.LBB96:
1907:/home/tienluong/workspace/atlantis_fw/platform/common/lightheader/src/protobuf-c.c **** 		unsigned start_orig_index = ranges[start].orig_index;
 451              		.loc 1 1907 0
 452 003e 01EBC500 		add	r0, r1, r5, lsl #3
 453              	.LVL55:
 454 0042 4368     		ldr	r3, [r0, #4]
 455              	.LVL56:
1908:/home/tienluong/workspace/atlantis_fw/platform/common/lightheader/src/protobuf-c.c **** 		unsigned range_size =
1909:/home/tienluong/workspace/atlantis_fw/platform/common/lightheader/src/protobuf-c.c **** 			ranges[start + 1].orig_index - start_orig_index;
 456              		.loc 1 1909 0
 457 0044 C468     		ldr	r4, [r0, #12]
 458              	.LVL57:
1910:/home/tienluong/workspace/atlantis_fw/platform/common/lightheader/src/protobuf-c.c **** 
1911:/home/tienluong/workspace/atlantis_fw/platform/common/lightheader/src/protobuf-c.c **** 		if (ranges[start].start_value <= value &&
 459              		.loc 1 1911 0
 460 0046 51F83500 		ldr	r0, [r1, r5, lsl #3]
 461 004a 9042     		cmp	r0, r2
 462 004c 06DC     		bgt	.L40
 463 004e C11A     		subs	r1, r0, r3
 464              	.LVL58:
1912:/home/tienluong/workspace/atlantis_fw/platform/common/lightheader/src/protobuf-c.c **** 		    value < (int) (ranges[start].start_value + range_size))
 465              		.loc 1 1912 0 discriminator 1
 466 0050 2144     		add	r1, r1, r4
1911:/home/tienluong/workspace/atlantis_fw/platform/common/lightheader/src/protobuf-c.c **** 		    value < (int) (ranges[start].start_value + range_size))
 467              		.loc 1 1911 0 discriminator 1
 468 0052 8A42     		cmp	r2, r1
 469 0054 02DA     		bge	.L40
1913:/home/tienluong/workspace/atlantis_fw/platform/common/lightheader/src/protobuf-c.c **** 		{
1914:/home/tienluong/workspace/atlantis_fw/platform/common/lightheader/src/protobuf-c.c **** 			return (value - ranges[start].start_value) +
 470              		.loc 1 1914 0
 471 0056 101A     		subs	r0, r2, r0
 472              	.LVL59:
 473              	.L41:
 474 0058 1844     		add	r0, r0, r3
 475 005a F0BD     		pop	{r4, r5, r6, r7, pc}
 476              	.L40:
 477              	.LBE96:
1887:/home/tienluong/workspace/atlantis_fw/platform/common/lightheader/src/protobuf-c.c **** 	start = 0;
 478              		.loc 1 1887 0
 479 005c 4FF0FF30 		mov	r0, #-1
1915:/home/tienluong/workspace/atlantis_fw/platform/common/lightheader/src/protobuf-c.c **** 			    start_orig_index;
1916:/home/tienluong/workspace/atlantis_fw/platform/common/lightheader/src/protobuf-c.c **** 		}
1917:/home/tienluong/workspace/atlantis_fw/platform/common/lightheader/src/protobuf-c.c **** 	}
1918:/home/tienluong/workspace/atlantis_fw/platform/common/lightheader/src/protobuf-c.c **** 	return -1;
1919:/home/tienluong/workspace/atlantis_fw/platform/common/lightheader/src/protobuf-c.c **** }
 480              		.loc 1 1919 0
 481 0060 F0BD     		pop	{r4, r5, r6, r7, pc}
 482              		.cfi_endproc
 483              	.LFE52:
 485              		.section	.text.parse_uint32,"ax",%progbits
 486              		.align	1
 487              		.thumb
 488              		.thumb_func
 490              	parse_uint32:
 491              	.LFB58:
1920:/home/tienluong/workspace/atlantis_fw/platform/common/lightheader/src/protobuf-c.c **** 
1921:/home/tienluong/workspace/atlantis_fw/platform/common/lightheader/src/protobuf-c.c **** LIGHT_HEADER_STATIC static size_t
1922:/home/tienluong/workspace/atlantis_fw/platform/common/lightheader/src/protobuf-c.c **** parse_tag_and_wiretype(size_t len,
1923:/home/tienluong/workspace/atlantis_fw/platform/common/lightheader/src/protobuf-c.c **** 		       const uint8_t *data,
1924:/home/tienluong/workspace/atlantis_fw/platform/common/lightheader/src/protobuf-c.c **** 		       uint32_t *tag_out,
1925:/home/tienluong/workspace/atlantis_fw/platform/common/lightheader/src/protobuf-c.c **** 		       ProtobufCWireType *wiretype_out)
1926:/home/tienluong/workspace/atlantis_fw/platform/common/lightheader/src/protobuf-c.c **** {
1927:/home/tienluong/workspace/atlantis_fw/platform/common/lightheader/src/protobuf-c.c **** 	unsigned max_rv = len > 5 ? 5 : len;
1928:/home/tienluong/workspace/atlantis_fw/platform/common/lightheader/src/protobuf-c.c **** 	uint32_t tag = (data[0] & 0x7f) >> 3;
1929:/home/tienluong/workspace/atlantis_fw/platform/common/lightheader/src/protobuf-c.c **** 	unsigned shift = 4;
1930:/home/tienluong/workspace/atlantis_fw/platform/common/lightheader/src/protobuf-c.c **** 	unsigned rv;
1931:/home/tienluong/workspace/atlantis_fw/platform/common/lightheader/src/protobuf-c.c **** 
1932:/home/tienluong/workspace/atlantis_fw/platform/common/lightheader/src/protobuf-c.c **** 	*wiretype_out = data[0] & 7;
1933:/home/tienluong/workspace/atlantis_fw/platform/common/lightheader/src/protobuf-c.c **** 	if ((data[0] & 0x80) == 0) {
1934:/home/tienluong/workspace/atlantis_fw/platform/common/lightheader/src/protobuf-c.c **** 		*tag_out = tag;
1935:/home/tienluong/workspace/atlantis_fw/platform/common/lightheader/src/protobuf-c.c **** 		return 1;
1936:/home/tienluong/workspace/atlantis_fw/platform/common/lightheader/src/protobuf-c.c **** 	}
1937:/home/tienluong/workspace/atlantis_fw/platform/common/lightheader/src/protobuf-c.c **** 	for (rv = 1; rv < max_rv; rv++) {
1938:/home/tienluong/workspace/atlantis_fw/platform/common/lightheader/src/protobuf-c.c **** 		if (data[rv] & 0x80) {
1939:/home/tienluong/workspace/atlantis_fw/platform/common/lightheader/src/protobuf-c.c **** 			tag |= (data[rv] & 0x7f) << shift;
1940:/home/tienluong/workspace/atlantis_fw/platform/common/lightheader/src/protobuf-c.c **** 			shift += 7;
1941:/home/tienluong/workspace/atlantis_fw/platform/common/lightheader/src/protobuf-c.c **** 		} else {
