   1              		.syntax unified
   2              		.cpu cortex-r4
   3              		.fpu softvfp
   4              		.eabi_attribute 20, 1
   5              		.eabi_attribute 21, 1
   6              		.eabi_attribute 23, 3
   7              		.eabi_attribute 24, 1
   8              		.eabi_attribute 25, 1
   9              		.eabi_attribute 26, 1
  10              		.eabi_attribute 30, 4
  11              		.eabi_attribute 34, 1
  12              		.eabi_attribute 18, 4
  13              		.thumb
  14              		.file	"proximity_sensors.pb-c.c"
  15              		.text
  16              	.Ltext0:
  17              		.cfi_sections	.debug_frame
  18              		.section	.text.ltpb__proximity_sensors__init,"ax",%progbits
  19              		.align	1
  20              		.global	ltpb__proximity_sensors__init
  21              		.thumb
  22              		.thumb_func
  24              	ltpb__proximity_sensors__init:
  25              	.LFB1:
  26              		.file 1 "/home/tienluong/workspace/atlantis_fw/platform/common/lightheader/src/proximity_sensors.p
   1:/home/tienluong/workspace/atlantis_fw/platform/common/lightheader/src/proximity_sensors.pb-c.c **** /* Generated by the protocol buffer compiler.  DO NOT EDIT! */
   2:/home/tienluong/workspace/atlantis_fw/platform/common/lightheader/src/proximity_sensors.pb-c.c **** /* Generated from: proximity_sensors.proto */
   3:/home/tienluong/workspace/atlantis_fw/platform/common/lightheader/src/proximity_sensors.pb-c.c **** 
   4:/home/tienluong/workspace/atlantis_fw/platform/common/lightheader/src/proximity_sensors.pb-c.c **** /* Do not generate deprecated warnings for self */
   5:/home/tienluong/workspace/atlantis_fw/platform/common/lightheader/src/proximity_sensors.pb-c.c **** #ifndef PROTOBUF_C__NO_DEPRECATED
   6:/home/tienluong/workspace/atlantis_fw/platform/common/lightheader/src/proximity_sensors.pb-c.c **** #define PROTOBUF_C__NO_DEPRECATED
   7:/home/tienluong/workspace/atlantis_fw/platform/common/lightheader/src/proximity_sensors.pb-c.c **** #endif
   8:/home/tienluong/workspace/atlantis_fw/platform/common/lightheader/src/proximity_sensors.pb-c.c **** 
   9:/home/tienluong/workspace/atlantis_fw/platform/common/lightheader/src/proximity_sensors.pb-c.c **** #include "proximity_sensors.pb-c.h"
  10:/home/tienluong/workspace/atlantis_fw/platform/common/lightheader/src/proximity_sensors.pb-c.c **** #include "sections.h"
  11:/home/tienluong/workspace/atlantis_fw/platform/common/lightheader/src/proximity_sensors.pb-c.c **** 
  12:/home/tienluong/workspace/atlantis_fw/platform/common/lightheader/src/proximity_sensors.pb-c.c **** LIGHT_HEADER_FUNC void   ltpb__proximity_sensors__init
  13:/home/tienluong/workspace/atlantis_fw/platform/common/lightheader/src/proximity_sensors.pb-c.c ****                      (Ltpb__ProximitySensors         *message)
  14:/home/tienluong/workspace/atlantis_fw/platform/common/lightheader/src/proximity_sensors.pb-c.c **** {
  27              		.loc 1 14 0
  28              		.cfi_startproc
  29              		@ args = 0, pretend = 0, frame = 0
  30              		@ frame_needed = 0, uses_anonymous_args = 0
  31              	.LVL0:
  32 0000 30B5     		push	{r4, r5, lr}
  33              	.LCFI0:
  34              		.cfi_def_cfa_offset 12
  35              		.cfi_offset 4, -12
  36              		.cfi_offset 5, -8
  37              		.cfi_offset 14, -4
  15:/home/tienluong/workspace/atlantis_fw/platform/common/lightheader/src/proximity_sensors.pb-c.c ****   LIGHT_HEADER_STATIC static Ltpb__ProximitySensors init_value = LTPB__PROXIMITY_SENSORS__INIT;
  16:/home/tienluong/workspace/atlantis_fw/platform/common/lightheader/src/proximity_sensors.pb-c.c ****   *message = init_value;
  38              		.loc 1 16 0
  39 0002 044D     		ldr	r5, .L2
  40 0004 0446     		mov	r4, r0
  41 0006 0FCD     		ldmia	r5!, {r0, r1, r2, r3}
  42              	.LVL1:
  43 0008 0FC4     		stmia	r4!, {r0, r1, r2, r3}
  44              	.LVL2:
  45 000a 95E80F00 		ldmia	r5, {r0, r1, r2, r3}
  46 000e 84E80F00 		stmia	r4, {r0, r1, r2, r3}
  47 0012 30BD     		pop	{r4, r5, pc}
  48              	.LVL3:
  49              	.L3:
  50              		.align	2
  51              	.L2:
  52 0014 00000000 		.word	.LANCHOR0
  53              		.cfi_endproc
  54              	.LFE1:
  56              		.section	.text.ltpb__proximity_sensors__get_packed_size,"ax",%progbits
  57              		.align	1
  58              		.global	ltpb__proximity_sensors__get_packed_size
  59              		.thumb
  60              		.thumb_func
  62              	ltpb__proximity_sensors__get_packed_size:
  63              	.LFB2:
  17:/home/tienluong/workspace/atlantis_fw/platform/common/lightheader/src/proximity_sensors.pb-c.c **** }
  18:/home/tienluong/workspace/atlantis_fw/platform/common/lightheader/src/proximity_sensors.pb-c.c **** LIGHT_HEADER_FUNC size_t ltpb__proximity_sensors__get_packed_size
  19:/home/tienluong/workspace/atlantis_fw/platform/common/lightheader/src/proximity_sensors.pb-c.c ****                      (const Ltpb__ProximitySensors *message)
  20:/home/tienluong/workspace/atlantis_fw/platform/common/lightheader/src/proximity_sensors.pb-c.c **** {
  64              		.loc 1 20 0
  65              		.cfi_startproc
  66              		@ args = 0, pretend = 0, frame = 0
  67              		@ frame_needed = 0, uses_anonymous_args = 0
  68              	.LVL4:
  21:/home/tienluong/workspace/atlantis_fw/platform/common/lightheader/src/proximity_sensors.pb-c.c ****   assert(message->base.descriptor == &ltpb__proximity_sensors__descriptor);
  69              		.loc 1 21 0
  70 0000 0268     		ldr	r2, [r0]
  71 0002 064B     		ldr	r3, .L7
  20:/home/tienluong/workspace/atlantis_fw/platform/common/lightheader/src/proximity_sensors.pb-c.c ****   assert(message->base.descriptor == &ltpb__proximity_sensors__descriptor);
  72              		.loc 1 20 0
  73 0004 10B5     		push	{r4, lr}
  74              	.LCFI1:
  75              		.cfi_def_cfa_offset 8
  76              		.cfi_offset 4, -8
  77              		.cfi_offset 14, -4
  78              		.loc 1 21 0
  79 0006 9A42     		cmp	r2, r3
  20:/home/tienluong/workspace/atlantis_fw/platform/common/lightheader/src/proximity_sensors.pb-c.c ****   assert(message->base.descriptor == &ltpb__proximity_sensors__descriptor);
  80              		.loc 1 20 0
  81 0008 0446     		mov	r4, r0
  82              		.loc 1 21 0
  83 000a 03D0     		beq	.L5
  84              		.loc 1 21 0 is_stmt 0 discriminator 1
  85 000c 0448     		ldr	r0, .L7+4
  86              	.LVL5:
  87 000e 1521     		movs	r1, #21
  88 0010 044B     		ldr	r3, .L7+8
  89 0012 9847     		blx	r3
  90              	.LVL6:
  91              	.L5:
  22:/home/tienluong/workspace/atlantis_fw/platform/common/lightheader/src/proximity_sensors.pb-c.c ****   return protobuf_c_message_get_packed_size ((const ProtobufCMessage*)(message));
  92              		.loc 1 22 0 is_stmt 1
  93 0014 2046     		mov	r0, r4
  94 0016 044B     		ldr	r3, .L7+12
  95 0018 9847     		blx	r3
  96              	.LVL7:
  23:/home/tienluong/workspace/atlantis_fw/platform/common/lightheader/src/proximity_sensors.pb-c.c **** }
  97              		.loc 1 23 0
  98 001a 10BD     		pop	{r4, pc}
  99              	.LVL8:
 100              	.L8:
 101              		.align	2
 102              	.L7:
 103 001c 00000000 		.word	.LANCHOR1
 104 0020 00000000 		.word	.LANCHOR2
 105 0024 00000000 		.word	assert_failed
 106 0028 00000000 		.word	protobuf_c_message_get_packed_size
 107              		.cfi_endproc
 108              	.LFE2:
 110              		.section	.text.ltpb__proximity_sensors__pack,"ax",%progbits
 111              		.align	1
 112              		.global	ltpb__proximity_sensors__pack
 113              		.thumb
 114              		.thumb_func
 116              	ltpb__proximity_sensors__pack:
 117              	.LFB3:
  24:/home/tienluong/workspace/atlantis_fw/platform/common/lightheader/src/proximity_sensors.pb-c.c **** LIGHT_HEADER_FUNC size_t ltpb__proximity_sensors__pack
  25:/home/tienluong/workspace/atlantis_fw/platform/common/lightheader/src/proximity_sensors.pb-c.c ****                      (const Ltpb__ProximitySensors *message,
  26:/home/tienluong/workspace/atlantis_fw/platform/common/lightheader/src/proximity_sensors.pb-c.c ****                       uint8_t       *out)
  27:/home/tienluong/workspace/atlantis_fw/platform/common/lightheader/src/proximity_sensors.pb-c.c **** {
 118              		.loc 1 27 0
 119              		.cfi_startproc
 120              		@ args = 0, pretend = 0, frame = 0
 121              		@ frame_needed = 0, uses_anonymous_args = 0
 122              	.LVL9:
 123 0000 38B5     		push	{r3, r4, r5, lr}
 124              	.LCFI2:
 125              		.cfi_def_cfa_offset 16
 126              		.cfi_offset 3, -16
 127              		.cfi_offset 4, -12
 128              		.cfi_offset 5, -8
 129              		.cfi_offset 14, -4
  28:/home/tienluong/workspace/atlantis_fw/platform/common/lightheader/src/proximity_sensors.pb-c.c ****   assert(message->base.descriptor == &ltpb__proximity_sensors__descriptor);
 130              		.loc 1 28 0
 131 0002 0268     		ldr	r2, [r0]
  27:/home/tienluong/workspace/atlantis_fw/platform/common/lightheader/src/proximity_sensors.pb-c.c ****   assert(message->base.descriptor == &ltpb__proximity_sensors__descriptor);
 132              		.loc 1 27 0
 133 0004 0446     		mov	r4, r0
 134              		.loc 1 28 0
 135 0006 064B     		ldr	r3, .L11
  27:/home/tienluong/workspace/atlantis_fw/platform/common/lightheader/src/proximity_sensors.pb-c.c ****   assert(message->base.descriptor == &ltpb__proximity_sensors__descriptor);
 136              		.loc 1 27 0
 137 0008 0D46     		mov	r5, r1
 138              		.loc 1 28 0
 139 000a 9A42     		cmp	r2, r3
 140 000c 03D0     		beq	.L10
 141              		.loc 1 28 0 is_stmt 0 discriminator 1
 142 000e 0548     		ldr	r0, .L11+4
 143              	.LVL10:
 144 0010 1C21     		movs	r1, #28
 145              	.LVL11:
 146 0012 054B     		ldr	r3, .L11+8
 147 0014 9847     		blx	r3
 148              	.LVL12:
 149              	.L10:
  29:/home/tienluong/workspace/atlantis_fw/platform/common/lightheader/src/proximity_sensors.pb-c.c ****   return protobuf_c_message_pack ((const ProtobufCMessage*)message, out);
 150              		.loc 1 29 0 is_stmt 1
 151 0016 2046     		mov	r0, r4
 152 0018 2946     		mov	r1, r5
 153 001a 044B     		ldr	r3, .L11+12
 154 001c 9847     		blx	r3
 155              	.LVL13:
  30:/home/tienluong/workspace/atlantis_fw/platform/common/lightheader/src/proximity_sensors.pb-c.c **** }
 156              		.loc 1 30 0
 157 001e 38BD     		pop	{r3, r4, r5, pc}
 158              	.LVL14:
 159              	.L12:
 160              		.align	2
 161              	.L11:
 162 0020 00000000 		.word	.LANCHOR1
 163 0024 00000000 		.word	.LANCHOR3
 164 0028 00000000 		.word	assert_failed
 165 002c 00000000 		.word	protobuf_c_message_pack
 166              		.cfi_endproc
 167              	.LFE3:
 169              		.section	.text.ltpb__proximity_sensors__pack_to_buffer,"ax",%progbits
 170              		.align	1
 171              		.global	ltpb__proximity_sensors__pack_to_buffer
 172              		.thumb
 173              		.thumb_func
 175              	ltpb__proximity_sensors__pack_to_buffer:
 176              	.LFB4:
  31:/home/tienluong/workspace/atlantis_fw/platform/common/lightheader/src/proximity_sensors.pb-c.c **** LIGHT_HEADER_FUNC size_t ltpb__proximity_sensors__pack_to_buffer
  32:/home/tienluong/workspace/atlantis_fw/platform/common/lightheader/src/proximity_sensors.pb-c.c ****                      (const Ltpb__ProximitySensors *message,
  33:/home/tienluong/workspace/atlantis_fw/platform/common/lightheader/src/proximity_sensors.pb-c.c ****                       ProtobufCBuffer *buffer)
  34:/home/tienluong/workspace/atlantis_fw/platform/common/lightheader/src/proximity_sensors.pb-c.c **** {
 177              		.loc 1 34 0
 178              		.cfi_startproc
 179              		@ args = 0, pretend = 0, frame = 0
 180              		@ frame_needed = 0, uses_anonymous_args = 0
 181              	.LVL15:
 182 0000 38B5     		push	{r3, r4, r5, lr}
 183              	.LCFI3:
 184              		.cfi_def_cfa_offset 16
 185              		.cfi_offset 3, -16
 186              		.cfi_offset 4, -12
 187              		.cfi_offset 5, -8
 188              		.cfi_offset 14, -4
  35:/home/tienluong/workspace/atlantis_fw/platform/common/lightheader/src/proximity_sensors.pb-c.c ****   assert(message->base.descriptor == &ltpb__proximity_sensors__descriptor);
 189              		.loc 1 35 0
 190 0002 0268     		ldr	r2, [r0]
  34:/home/tienluong/workspace/atlantis_fw/platform/common/lightheader/src/proximity_sensors.pb-c.c ****   assert(message->base.descriptor == &ltpb__proximity_sensors__descriptor);
 191              		.loc 1 34 0
 192 0004 0446     		mov	r4, r0
 193              		.loc 1 35 0
 194 0006 064B     		ldr	r3, .L15
  34:/home/tienluong/workspace/atlantis_fw/platform/common/lightheader/src/proximity_sensors.pb-c.c ****   assert(message->base.descriptor == &ltpb__proximity_sensors__descriptor);
 195              		.loc 1 34 0
 196 0008 0D46     		mov	r5, r1
 197              		.loc 1 35 0
 198 000a 9A42     		cmp	r2, r3
 199 000c 03D0     		beq	.L14
 200              		.loc 1 35 0 is_stmt 0 discriminator 1
 201 000e 0548     		ldr	r0, .L15+4
 202              	.LVL16:
 203 0010 2321     		movs	r1, #35
 204              	.LVL17:
 205 0012 054B     		ldr	r3, .L15+8
 206 0014 9847     		blx	r3
 207              	.LVL18:
 208              	.L14:
  36:/home/tienluong/workspace/atlantis_fw/platform/common/lightheader/src/proximity_sensors.pb-c.c ****   return protobuf_c_message_pack_to_buffer ((const ProtobufCMessage*)message, buffer);
 209              		.loc 1 36 0 is_stmt 1
 210 0016 2046     		mov	r0, r4
 211 0018 2946     		mov	r1, r5
 212 001a 044B     		ldr	r3, .L15+12
 213 001c 9847     		blx	r3
 214              	.LVL19:
  37:/home/tienluong/workspace/atlantis_fw/platform/common/lightheader/src/proximity_sensors.pb-c.c **** }
 215              		.loc 1 37 0
 216 001e 38BD     		pop	{r3, r4, r5, pc}
 217              	.LVL20:
 218              	.L16:
 219              		.align	2
 220              	.L15:
 221 0020 00000000 		.word	.LANCHOR1
 222 0024 00000000 		.word	.LANCHOR4
 223 0028 00000000 		.word	assert_failed
 224 002c 00000000 		.word	protobuf_c_message_pack_to_buffer
 225              		.cfi_endproc
 226              	.LFE4:
 228              		.section	.text.ltpb__proximity_sensors__unpack,"ax",%progbits
 229              		.align	1
 230              		.global	ltpb__proximity_sensors__unpack
 231              		.thumb
 232              		.thumb_func
 234              	ltpb__proximity_sensors__unpack:
 235              	.LFB5:
  38:/home/tienluong/workspace/atlantis_fw/platform/common/lightheader/src/proximity_sensors.pb-c.c **** LIGHT_HEADER_FUNC Ltpb__ProximitySensors *
  39:/home/tienluong/workspace/atlantis_fw/platform/common/lightheader/src/proximity_sensors.pb-c.c ****        ltpb__proximity_sensors__unpack
  40:/home/tienluong/workspace/atlantis_fw/platform/common/lightheader/src/proximity_sensors.pb-c.c ****                      (ProtobufCAllocator  *allocator,
  41:/home/tienluong/workspace/atlantis_fw/platform/common/lightheader/src/proximity_sensors.pb-c.c ****                       size_t               len,
  42:/home/tienluong/workspace/atlantis_fw/platform/common/lightheader/src/proximity_sensors.pb-c.c ****                       const uint8_t       *data)
  43:/home/tienluong/workspace/atlantis_fw/platform/common/lightheader/src/proximity_sensors.pb-c.c **** {
 236              		.loc 1 43 0
 237              		.cfi_startproc
 238              		@ args = 0, pretend = 0, frame = 0
 239              		@ frame_needed = 0, uses_anonymous_args = 0
 240              	.LVL21:
 241 0000 38B5     		push	{r3, r4, r5, lr}
 242              	.LCFI4:
 243              		.cfi_def_cfa_offset 16
 244              		.cfi_offset 3, -16
 245              		.cfi_offset 4, -12
 246              		.cfi_offset 5, -8
 247              		.cfi_offset 14, -4
 248              		.loc 1 43 0
 249 0002 0546     		mov	r5, r0
 250 0004 0C46     		mov	r4, r1
 251 0006 1346     		mov	r3, r2
  44:/home/tienluong/workspace/atlantis_fw/platform/common/lightheader/src/proximity_sensors.pb-c.c ****   return (Ltpb__ProximitySensors *)
 252              		.loc 1 44 0
 253 0008 2946     		mov	r1, r5
 254              	.LVL22:
 255 000a 2246     		mov	r2, r4
 256              	.LVL23:
 257 000c 0148     		ldr	r0, .L18
 258              	.LVL24:
 259 000e 024C     		ldr	r4, .L18+4
 260              	.LVL25:
 261 0010 A047     		blx	r4
 262              	.LVL26:
  45:/home/tienluong/workspace/atlantis_fw/platform/common/lightheader/src/proximity_sensors.pb-c.c ****      protobuf_c_message_unpack (&ltpb__proximity_sensors__descriptor,
  46:/home/tienluong/workspace/atlantis_fw/platform/common/lightheader/src/proximity_sensors.pb-c.c ****                                 allocator, len, data);
  47:/home/tienluong/workspace/atlantis_fw/platform/common/lightheader/src/proximity_sensors.pb-c.c **** }
 263              		.loc 1 47 0
 264 0012 38BD     		pop	{r3, r4, r5, pc}
 265              	.LVL27:
 266              	.L19:
 267              		.align	2
 268              	.L18:
 269 0014 00000000 		.word	.LANCHOR1
 270 0018 00000000 		.word	protobuf_c_message_unpack
 271              		.cfi_endproc
 272              	.LFE5:
 274              		.section	.text.ltpb__proximity_sensors__free_unpacked,"ax",%progbits
 275              		.align	1
 276              		.global	ltpb__proximity_sensors__free_unpacked
 277              		.thumb
 278              		.thumb_func
 280              	ltpb__proximity_sensors__free_unpacked:
 281              	.LFB6:
  48:/home/tienluong/workspace/atlantis_fw/platform/common/lightheader/src/proximity_sensors.pb-c.c **** LIGHT_HEADER_FUNC void   ltpb__proximity_sensors__free_unpacked
  49:/home/tienluong/workspace/atlantis_fw/platform/common/lightheader/src/proximity_sensors.pb-c.c ****                      (Ltpb__ProximitySensors *message,
  50:/home/tienluong/workspace/atlantis_fw/platform/common/lightheader/src/proximity_sensors.pb-c.c ****                       ProtobufCAllocator *allocator)
  51:/home/tienluong/workspace/atlantis_fw/platform/common/lightheader/src/proximity_sensors.pb-c.c **** {
 282              		.loc 1 51 0
 283              		.cfi_startproc
 284              		@ args = 0, pretend = 0, frame = 0
 285              		@ frame_needed = 0, uses_anonymous_args = 0
 286              	.LVL28:
 287 0000 38B5     		push	{r3, r4, r5, lr}
 288              	.LCFI5:
 289              		.cfi_def_cfa_offset 16
 290              		.cfi_offset 3, -16
 291              		.cfi_offset 4, -12
 292              		.cfi_offset 5, -8
 293              		.cfi_offset 14, -4
  52:/home/tienluong/workspace/atlantis_fw/platform/common/lightheader/src/proximity_sensors.pb-c.c ****   assert(message->base.descriptor == &ltpb__proximity_sensors__descriptor);
 294              		.loc 1 52 0
 295 0002 0268     		ldr	r2, [r0]
  51:/home/tienluong/workspace/atlantis_fw/platform/common/lightheader/src/proximity_sensors.pb-c.c ****   assert(message->base.descriptor == &ltpb__proximity_sensors__descriptor);
 296              		.loc 1 51 0
 297 0004 0446     		mov	r4, r0
 298              		.loc 1 52 0
 299 0006 064B     		ldr	r3, .L22
  51:/home/tienluong/workspace/atlantis_fw/platform/common/lightheader/src/proximity_sensors.pb-c.c ****   assert(message->base.descriptor == &ltpb__proximity_sensors__descriptor);
 300              		.loc 1 51 0
 301 0008 0D46     		mov	r5, r1
 302              		.loc 1 52 0
 303 000a 9A42     		cmp	r2, r3
 304 000c 03D0     		beq	.L21
 305              		.loc 1 52 0 is_stmt 0 discriminator 1
 306 000e 0548     		ldr	r0, .L22+4
 307              	.LVL29:
 308 0010 3421     		movs	r1, #52
 309              	.LVL30:
 310 0012 054B     		ldr	r3, .L22+8
 311 0014 9847     		blx	r3
 312              	.LVL31:
 313              	.L21:
  53:/home/tienluong/workspace/atlantis_fw/platform/common/lightheader/src/proximity_sensors.pb-c.c ****   protobuf_c_message_free_unpacked ((ProtobufCMessage*)message, allocator);
 314              		.loc 1 53 0 is_stmt 1
 315 0016 2046     		mov	r0, r4
 316 0018 2946     		mov	r1, r5
 317 001a 044B     		ldr	r3, .L22+12
 318 001c 9847     		blx	r3
 319              	.LVL32:
 320 001e 38BD     		pop	{r3, r4, r5, pc}
 321              	.LVL33:
 322              	.L23:
 323              		.align	2
 324              	.L22:
 325 0020 00000000 		.word	.LANCHOR1
 326 0024 00000000 		.word	.LANCHOR5
 327 0028 00000000 		.word	assert_failed
 328 002c 00000000 		.word	protobuf_c_message_free_unpacked
 329              		.cfi_endproc
 330              	.LFE6:
 332              		.global	ltpb__proximity_sensors__descriptor
 333              		.section	.rodata.ltpb__proximity_sensors__field_indices_by_name,"a",%progbits
 334              		.align	2
 337              	ltpb__proximity_sensors__field_indices_by_name:
 338 0000 00000000 		.word	0
 339 0004 01000000 		.word	1
 340 0008 02000000 		.word	2
 341 000c 03000000 		.word	3
 342 0010 04000000 		.word	4
 343              		.section	.rodata.ltpb__proximity_sensors__field_descriptors,"a",%progbits
 344              		.align	2
 347              	ltpb__proximity_sensors__field_descriptors:
 348 0000 43000000 		.word	.LC4
 349 0004 01000000 		.word	1
 350 0008 00       		.byte	0
 351 0009 0C       		.byte	12
 352 000a 0000     		.space	2
 353 000c 00000000 		.word	0
 354 0010 0C000000 		.word	12
 355 0014 00000000 		.word	0
 356 0018 00000000 		.word	0
 357 001c 00000000 		.word	0
 358 0020 00000000 		.word	0
 359 0024 00000000 		.word	0
 360 0028 00000000 		.word	0
 361 002c 4C000000 		.word	.LC5
 362 0030 02000000 		.word	2
 363 0034 00       		.byte	0
 364 0035 0C       		.byte	12
 365 0036 0000     		.space	2
 366 0038 00000000 		.word	0
 367 003c 10000000 		.word	16
 368 0040 00000000 		.word	0
 369 0044 00000000 		.word	0
 370 0048 00000000 		.word	0
 371 004c 00000000 		.word	0
 372 0050 00000000 		.word	0
 373 0054 00000000 		.word	0
 374 0058 55000000 		.word	.LC6
 375 005c 03000000 		.word	3
 376 0060 00       		.byte	0
 377 0061 0C       		.byte	12
 378 0062 0000     		.space	2
 379 0064 00000000 		.word	0
 380 0068 14000000 		.word	20
 381 006c 00000000 		.word	0
 382 0070 00000000 		.word	0
 383 0074 00000000 		.word	0
 384 0078 00000000 		.word	0
 385 007c 00000000 		.word	0
 386 0080 00000000 		.word	0
 387 0084 5E000000 		.word	.LC7
 388 0088 04000000 		.word	4
 389 008c 00       		.byte	0
 390 008d 0C       		.byte	12
 391 008e 0000     		.space	2
 392 0090 00000000 		.word	0
 393 0094 18000000 		.word	24
 394 0098 00000000 		.word	0
 395 009c 00000000 		.word	0
 396 00a0 00000000 		.word	0
 397 00a4 00000000 		.word	0
 398 00a8 00000000 		.word	0
 399 00ac 00000000 		.word	0
 400 00b0 67000000 		.word	.LC8
 401 00b4 05000000 		.word	5
 402 00b8 00       		.byte	0
 403 00b9 0C       		.byte	12
 404 00ba 0000     		.space	2
 405 00bc 00000000 		.word	0
 406 00c0 1C000000 		.word	28
 407 00c4 00000000 		.word	0
 408 00c8 00000000 		.word	0
 409 00cc 00000000 		.word	0
 410 00d0 00000000 		.word	0
 411 00d4 00000000 		.word	0
 412 00d8 00000000 		.word	0
 413              		.section	.rodata.init_value.6429,"a",%progbits
 414              		.align	2
 415              		.set	.LANCHOR0,. + 0
 418              	init_value.6429:
 419 0000 00000000 		.word	ltpb__proximity_sensors__descriptor
 420 0004 00000000 		.word	0
 421 0008 00000000 		.word	0
 422 000c 00000000 		.word	0
 423 0010 00000000 		.word	0
 424 0014 00000000 		.word	0
 425 0018 00000000 		.word	0
 426 001c 00000000 		.word	0
 427              		.section	.rodata.ltpb__proximity_sensors__number_ranges,"a",%progbits
 428              		.align	2
 431              	ltpb__proximity_sensors__number_ranges:
 432 0000 01000000 		.word	1
 433 0004 00000000 		.word	0
 434 0008 00000000 		.word	0
 435 000c 05000000 		.word	5
 436              		.section	.rodata.ltpb__proximity_sensors__descriptor,"a",%progbits
 437              		.align	2
 438              		.set	.LANCHOR1,. + 0
 441              	ltpb__proximity_sensors__descriptor:
 442 0000 F9EEAA28 		.word	682290937
 443 0004 00000000 		.word	.LC0
 444 0008 16000000 		.word	.LC1
 445 000c 27000000 		.word	.LC2
 446 0010 3E000000 		.word	.LC3
 447 0014 20000000 		.word	32
 448 0018 05000000 		.word	5
 449 001c 00000000 		.word	ltpb__proximity_sensors__field_descriptors
 450 0020 00000000 		.word	ltpb__proximity_sensors__field_indices_by_name
 451 0024 01000000 		.word	1
 452 0028 00000000 		.word	ltpb__proximity_sensors__number_ranges
 453 002c 00000000 		.word	ltpb__proximity_sensors__init
 454 0030 00000000 		.word	0
 455 0034 00000000 		.word	0
 456 0038 00000000 		.word	0
 457              		.section	.rodata.str1.1,"aMS",%progbits,1
 458              	.LC0:
 459 0000 6C747062 		.ascii	"ltpb.ProximitySensors\000"
 459      2E50726F 
 459      78696D69 
 459      74795365 
 459      6E736F72 
 460              	.LC1:
 461 0016 50726F78 		.ascii	"ProximitySensors\000"
 461      696D6974 
 461      7953656E 
 461      736F7273 
 461      00
 462              	.LC2:
 463 0027 4C747062 		.ascii	"Ltpb__ProximitySensors\000"
 463      5F5F5072 
 463      6F78696D 
 463      69747953 
 463      656E736F 
 464              	.LC3:
 465 003e 6C747062 		.ascii	"ltpb\000"
 465      00
 466              	.LC4:
 467 0043 73656E73 		.ascii	"sensor_1\000"
 467      6F725F31 
 467      00
 468              	.LC5:
 469 004c 73656E73 		.ascii	"sensor_2\000"
 469      6F725F32 
 469      00
 470              	.LC6:
 471 0055 73656E73 		.ascii	"sensor_3\000"
 471      6F725F33 
 471      00
 472              	.LC7:
 473 005e 73656E73 		.ascii	"sensor_4\000"
 473      6F725F34 
 473      00
 474              	.LC8:
 475 0067 73656E73 		.ascii	"sensor_5\000"
 475      6F725F35 
 475      00
 476              		.section	.rodata.__FUNCTION__.6433,"a",%progbits
 477              		.set	.LANCHOR2,. + 0
 480              	__FUNCTION__.6433:
 481 0000 6C747062 		.ascii	"ltpb__proximity_sensors__get_packed_size\000"
 481      5F5F7072 
 481      6F78696D 
 481      6974795F 
 481      73656E73 
 482              		.section	.rodata.__FUNCTION__.6438,"a",%progbits
 483              		.set	.LANCHOR3,. + 0
 486              	__FUNCTION__.6438:
 487 0000 6C747062 		.ascii	"ltpb__proximity_sensors__pack\000"
 487      5F5F7072 
 487      6F78696D 
 487      6974795F 
 487      73656E73 
 488              		.section	.rodata.__FUNCTION__.6453,"a",%progbits
 489              		.set	.LANCHOR5,. + 0
 492              	__FUNCTION__.6453:
 493 0000 6C747062 		.ascii	"ltpb__proximity_sensors__free_unpacked\000"
 493      5F5F7072 
 493      6F78696D 
 493      6974795F 
 493      73656E73 
 494              		.section	.rodata.__FUNCTION__.6443,"a",%progbits
 495              		.set	.LANCHOR4,. + 0
 498              	__FUNCTION__.6443:
 499 0000 6C747062 		.ascii	"ltpb__proximity_sensors__pack_to_buffer\000"
 499      5F5F7072 
 499      6F78696D 
 499      6974795F 
 499      73656E73 
 500              		.text
 501              	.Letext0:
 502              		.file 2 "/opt/toolchains/gcc-arm-none-eabi-4_9-2015q1/arm-none-eabi/include/machine/_default_types
 503              		.file 3 "/opt/toolchains/gcc-arm-none-eabi-4_9-2015q1/lib/gcc/arm-none-eabi/4.9.3/include/stddef.h
 504              		.file 4 "/opt/toolchains/gcc-arm-none-eabi-4_9-2015q1/arm-none-eabi/include/stdint.h"
 505              		.file 5 "/home/tienluong/workspace/atlantis_fw/platform/os/Source/portable/GCC/cortex-r4/portmacro
 506              		.file 6 "/home/tienluong/workspace/atlantis_fw/platform/common/lightheader/include/protobuf-c/prot
 507              		.file 7 "/home/tienluong/workspace/atlantis_fw/platform/common/lightheader/include/proximity_senso
DEFINED SYMBOLS
                            *ABS*:00000000 proximity_sensors.pb-c.c
     /tmp/ccFwOSod.s:19     .text.ltpb__proximity_sensors__init:00000000 $t
     /tmp/ccFwOSod.s:24     .text.ltpb__proximity_sensors__init:00000000 ltpb__proximity_sensors__init
     /tmp/ccFwOSod.s:52     .text.ltpb__proximity_sensors__init:00000014 $d
     /tmp/ccFwOSod.s:57     .text.ltpb__proximity_sensors__get_packed_size:00000000 $t
     /tmp/ccFwOSod.s:62     .text.ltpb__proximity_sensors__get_packed_size:00000000 ltpb__proximity_sensors__get_packed_size
     /tmp/ccFwOSod.s:103    .text.ltpb__proximity_sensors__get_packed_size:0000001c $d
     /tmp/ccFwOSod.s:111    .text.ltpb__proximity_sensors__pack:00000000 $t
     /tmp/ccFwOSod.s:116    .text.ltpb__proximity_sensors__pack:00000000 ltpb__proximity_sensors__pack
     /tmp/ccFwOSod.s:162    .text.ltpb__proximity_sensors__pack:00000020 $d
     /tmp/ccFwOSod.s:170    .text.ltpb__proximity_sensors__pack_to_buffer:00000000 $t
     /tmp/ccFwOSod.s:175    .text.ltpb__proximity_sensors__pack_to_buffer:00000000 ltpb__proximity_sensors__pack_to_buffer
     /tmp/ccFwOSod.s:221    .text.ltpb__proximity_sensors__pack_to_buffer:00000020 $d
     /tmp/ccFwOSod.s:229    .text.ltpb__proximity_sensors__unpack:00000000 $t
     /tmp/ccFwOSod.s:234    .text.ltpb__proximity_sensors__unpack:00000000 ltpb__proximity_sensors__unpack
     /tmp/ccFwOSod.s:269    .text.ltpb__proximity_sensors__unpack:00000014 $d
     /tmp/ccFwOSod.s:275    .text.ltpb__proximity_sensors__free_unpacked:00000000 $t
     /tmp/ccFwOSod.s:280    .text.ltpb__proximity_sensors__free_unpacked:00000000 ltpb__proximity_sensors__free_unpacked
     /tmp/ccFwOSod.s:325    .text.ltpb__proximity_sensors__free_unpacked:00000020 $d
     /tmp/ccFwOSod.s:441    .rodata.ltpb__proximity_sensors__descriptor:00000000 ltpb__proximity_sensors__descriptor
     /tmp/ccFwOSod.s:334    .rodata.ltpb__proximity_sensors__field_indices_by_name:00000000 $d
     /tmp/ccFwOSod.s:337    .rodata.ltpb__proximity_sensors__field_indices_by_name:00000000 ltpb__proximity_sensors__field_indices_by_name
     /tmp/ccFwOSod.s:344    .rodata.ltpb__proximity_sensors__field_descriptors:00000000 $d
     /tmp/ccFwOSod.s:347    .rodata.ltpb__proximity_sensors__field_descriptors:00000000 ltpb__proximity_sensors__field_descriptors
     /tmp/ccFwOSod.s:414    .rodata.init_value.6429:00000000 $d
     /tmp/ccFwOSod.s:418    .rodata.init_value.6429:00000000 init_value.6429
     /tmp/ccFwOSod.s:428    .rodata.ltpb__proximity_sensors__number_ranges:00000000 $d
     /tmp/ccFwOSod.s:431    .rodata.ltpb__proximity_sensors__number_ranges:00000000 ltpb__proximity_sensors__number_ranges
     /tmp/ccFwOSod.s:437    .rodata.ltpb__proximity_sensors__descriptor:00000000 $d
     /tmp/ccFwOSod.s:480    .rodata.__FUNCTION__.6433:00000000 __FUNCTION__.6433
     /tmp/ccFwOSod.s:486    .rodata.__FUNCTION__.6438:00000000 __FUNCTION__.6438
     /tmp/ccFwOSod.s:492    .rodata.__FUNCTION__.6453:00000000 __FUNCTION__.6453
     /tmp/ccFwOSod.s:498    .rodata.__FUNCTION__.6443:00000000 __FUNCTION__.6443
                     .debug_frame:00000010 $d

UNDEFINED SYMBOLS
assert_failed
protobuf_c_message_get_packed_size
protobuf_c_message_pack
protobuf_c_message_pack_to_buffer
protobuf_c_message_unpack
protobuf_c_message_free_unpacked
