   1              		.syntax unified
   2              		.cpu cortex-r4
   3              		.fpu softvfp
   4              		.eabi_attribute 20, 1
   5              		.eabi_attribute 21, 1
   6              		.eabi_attribute 23, 3
   7              		.eabi_attribute 24, 1
   8              		.eabi_attribute 25, 1
   9              		.eabi_attribute 26, 1
  10              		.eabi_attribute 30, 4
  11              		.eabi_attribute 34, 1
  12              		.eabi_attribute 18, 4
  13              		.thumb
  14              		.file	"calibclasses.cpp"
  15              		.text
  16              	.Ltext0:
  17              		.cfi_sections	.debug_frame
  18              		.section	.text._ZN4ltaf13CalibDataBaseD2Ev,"axG",%progbits,_ZN4ltaf13CalibDataBaseD5Ev,comdat
  19              		.align	1
  20              		.weak	_ZN4ltaf13CalibDataBaseD2Ev
  21              		.thumb
  22              		.thumb_func
  24              	_ZN4ltaf13CalibDataBaseD2Ev:
  25              	.LFB3255:
  26              		.file 1 "/home/tienluong/workspace/atlantis_fw/AsicFwS2/include/calibclasses.h"
   1:/home/tienluong/workspace/atlantis_fw/AsicFwS2/include/calibclasses.h **** // this file contains CI side calibration related code
   2:/home/tienluong/workspace/atlantis_fw/AsicFwS2/include/calibclasses.h **** // that we require for disparity based focus to work
   3:/home/tienluong/workspace/atlantis_fw/AsicFwS2/include/calibclasses.h **** #ifndef __CALIBCLASSES_H__
   4:/home/tienluong/workspace/atlantis_fw/AsicFwS2/include/calibclasses.h **** #define __CALIBCLASSES_H__
   5:/home/tienluong/workspace/atlantis_fw/AsicFwS2/include/calibclasses.h **** 
   6:/home/tienluong/workspace/atlantis_fw/AsicFwS2/include/calibclasses.h **** #ifdef __cplusplus
   7:/home/tienluong/workspace/atlantis_fw/AsicFwS2/include/calibclasses.h **** #include <memory>
   8:/home/tienluong/workspace/atlantis_fw/AsicFwS2/include/calibclasses.h **** #include <cassert>
   9:/home/tienluong/workspace/atlantis_fw/AsicFwS2/include/calibclasses.h **** #include "matrix.h"
  10:/home/tienluong/workspace/atlantis_fw/AsicFwS2/include/calibclasses.h **** #include "line2.h"
  11:/home/tienluong/workspace/atlantis_fw/AsicFwS2/include/calibclasses.h **** #include "mirrorsystems.h"
  12:/home/tienluong/workspace/atlantis_fw/AsicFwS2/include/calibclasses.h **** #include "lightheader/include/lightheader.pb-c.h"
  13:/home/tienluong/workspace/atlantis_fw/AsicFwS2/include/calibclasses.h **** 
  14:/home/tienluong/workspace/atlantis_fw/AsicFwS2/include/calibclasses.h **** namespace ltaf {
  15:/home/tienluong/workspace/atlantis_fw/AsicFwS2/include/calibclasses.h **** 
  16:/home/tienluong/workspace/atlantis_fw/AsicFwS2/include/calibclasses.h **** constexpr short kNumModules = 16;
  17:/home/tienluong/workspace/atlantis_fw/AsicFwS2/include/calibclasses.h **** //constexpr short kNumAModules = 5;
  18:/home/tienluong/workspace/atlantis_fw/AsicFwS2/include/calibclasses.h **** //constexpr short kNonMoveableModules = 5 + 1 + 1; // B4, C5
  19:/home/tienluong/workspace/atlantis_fw/AsicFwS2/include/calibclasses.h **** //constexpr short kMoveableModules = 9;
  20:/home/tienluong/workspace/atlantis_fw/AsicFwS2/include/calibclasses.h **** 
  21:/home/tienluong/workspace/atlantis_fw/AsicFwS2/include/calibclasses.h **** enum ModuleName {
  22:/home/tienluong/workspace/atlantis_fw/AsicFwS2/include/calibclasses.h ****     A1 = 0,
  23:/home/tienluong/workspace/atlantis_fw/AsicFwS2/include/calibclasses.h ****     A2,
  24:/home/tienluong/workspace/atlantis_fw/AsicFwS2/include/calibclasses.h ****     A3,
  25:/home/tienluong/workspace/atlantis_fw/AsicFwS2/include/calibclasses.h ****     A4,
  26:/home/tienluong/workspace/atlantis_fw/AsicFwS2/include/calibclasses.h ****     A5,
  27:/home/tienluong/workspace/atlantis_fw/AsicFwS2/include/calibclasses.h ****     B1,
  28:/home/tienluong/workspace/atlantis_fw/AsicFwS2/include/calibclasses.h ****     B2,
  29:/home/tienluong/workspace/atlantis_fw/AsicFwS2/include/calibclasses.h ****     B3,
  30:/home/tienluong/workspace/atlantis_fw/AsicFwS2/include/calibclasses.h ****     B4,
  31:/home/tienluong/workspace/atlantis_fw/AsicFwS2/include/calibclasses.h ****     B5,
  32:/home/tienluong/workspace/atlantis_fw/AsicFwS2/include/calibclasses.h ****     C1,
  33:/home/tienluong/workspace/atlantis_fw/AsicFwS2/include/calibclasses.h ****     C2,
  34:/home/tienluong/workspace/atlantis_fw/AsicFwS2/include/calibclasses.h ****     C3,
  35:/home/tienluong/workspace/atlantis_fw/AsicFwS2/include/calibclasses.h ****     C4,
  36:/home/tienluong/workspace/atlantis_fw/AsicFwS2/include/calibclasses.h ****     C5,
  37:/home/tienluong/workspace/atlantis_fw/AsicFwS2/include/calibclasses.h ****     C6  // 15
  38:/home/tienluong/workspace/atlantis_fw/AsicFwS2/include/calibclasses.h **** };
  39:/home/tienluong/workspace/atlantis_fw/AsicFwS2/include/calibclasses.h **** 
  40:/home/tienluong/workspace/atlantis_fw/AsicFwS2/include/calibclasses.h **** enum MirrorType
  41:/home/tienluong/workspace/atlantis_fw/AsicFwS2/include/calibclasses.h **** {
  42:/home/tienluong/workspace/atlantis_fw/AsicFwS2/include/calibclasses.h ****     NotMoveable = 0,           ///< Not moveable
  43:/home/tienluong/workspace/atlantis_fw/AsicFwS2/include/calibclasses.h ****     Moveable        ///< Mirrors that can move. All B and C modules that are not glued.
  44:/home/tienluong/workspace/atlantis_fw/AsicFwS2/include/calibclasses.h **** };
  45:/home/tienluong/workspace/atlantis_fw/AsicFwS2/include/calibclasses.h **** 
  46:/home/tienluong/workspace/atlantis_fw/AsicFwS2/include/calibclasses.h **** struct MirrorActuatorMapping {
  47:/home/tienluong/workspace/atlantis_fw/AsicFwS2/include/calibclasses.h ****     float actuator_length_offset;
  48:/home/tienluong/workspace/atlantis_fw/AsicFwS2/include/calibclasses.h ****     float actuator_length_scale;
  49:/home/tienluong/workspace/atlantis_fw/AsicFwS2/include/calibclasses.h ****     float mirror_angle_offset;
  50:/home/tienluong/workspace/atlantis_fw/AsicFwS2/include/calibclasses.h ****     float mirror_angle_scale;
  51:/home/tienluong/workspace/atlantis_fw/AsicFwS2/include/calibclasses.h ****     float a; // param 3, discard first 3. ( 001)
  52:/home/tienluong/workspace/atlantis_fw/AsicFwS2/include/calibclasses.h ****     float b;
  53:/home/tienluong/workspace/atlantis_fw/AsicFwS2/include/calibclasses.h ****     float c;
  54:/home/tienluong/workspace/atlantis_fw/AsicFwS2/include/calibclasses.h ****     bool branch_left;
  55:/home/tienluong/workspace/atlantis_fw/AsicFwS2/include/calibclasses.h ****     // //default:
  56:/home/tienluong/workspace/atlantis_fw/AsicFwS2/include/calibclasses.h ****     // MirrorActuatorMapping():
  57:/home/tienluong/workspace/atlantis_fw/AsicFwS2/include/calibclasses.h ****     //     actuator_length_offset(0),
  58:/home/tienluong/workspace/atlantis_fw/AsicFwS2/include/calibclasses.h ****     //     actuator_length_scale(0),
  59:/home/tienluong/workspace/atlantis_fw/AsicFwS2/include/calibclasses.h ****     //     mirror_angle_offset(0),
  60:/home/tienluong/workspace/atlantis_fw/AsicFwS2/include/calibclasses.h ****     //     mirror_angle_scale(0),
  61:/home/tienluong/workspace/atlantis_fw/AsicFwS2/include/calibclasses.h ****     //     a(0),
  62:/home/tienluong/workspace/atlantis_fw/AsicFwS2/include/calibclasses.h ****     //     b(0),
  63:/home/tienluong/workspace/atlantis_fw/AsicFwS2/include/calibclasses.h ****     //     c(0),
  64:/home/tienluong/workspace/atlantis_fw/AsicFwS2/include/calibclasses.h ****     //     branch_left(true)
  65:/home/tienluong/workspace/atlantis_fw/AsicFwS2/include/calibclasses.h ****     // {}
  66:/home/tienluong/workspace/atlantis_fw/AsicFwS2/include/calibclasses.h **** };
  67:/home/tienluong/workspace/atlantis_fw/AsicFwS2/include/calibclasses.h **** 
  68:/home/tienluong/workspace/atlantis_fw/AsicFwS2/include/calibclasses.h **** // -------------------------------------------------------
  69:/home/tienluong/workspace/atlantis_fw/AsicFwS2/include/calibclasses.h **** //			calibdata
  70:/home/tienluong/workspace/atlantis_fw/AsicFwS2/include/calibclasses.h **** // -------------------------------------------------------
  71:/home/tienluong/workspace/atlantis_fw/AsicFwS2/include/calibclasses.h **** class CalibDataBase{
  72:/home/tienluong/workspace/atlantis_fw/AsicFwS2/include/calibclasses.h **** public:
  73:/home/tienluong/workspace/atlantis_fw/AsicFwS2/include/calibclasses.h ****     CalibDataBase():
  74:/home/tienluong/workspace/atlantis_fw/AsicFwS2/include/calibclasses.h ****         _K(Matrix3x3f::Identity()){}
  75:/home/tienluong/workspace/atlantis_fw/AsicFwS2/include/calibclasses.h **** 
  76:/home/tienluong/workspace/atlantis_fw/AsicFwS2/include/calibclasses.h ****     CalibDataBase(const Matrix3x3f & k):
  77:/home/tienluong/workspace/atlantis_fw/AsicFwS2/include/calibclasses.h ****         _K(k) {}
  78:/home/tienluong/workspace/atlantis_fw/AsicFwS2/include/calibclasses.h **** 
  79:/home/tienluong/workspace/atlantis_fw/AsicFwS2/include/calibclasses.h ****     virtual ~CalibDataBase() {}
  27              		.loc 1 79 0
  28              		.cfi_startproc
  29              		@ args = 0, pretend = 0, frame = 0
  30              		@ frame_needed = 0, uses_anonymous_args = 0
  31              		@ link register save eliminated.
  32              	.LVL0:
  33              		.loc 1 79 0
  34 0000 7047     		bx	lr
  35              		.cfi_endproc
  36              	.LFE3255:
  38              		.weak	_ZN4ltaf13CalibDataBaseD1Ev
  39              		.thumb_set _ZN4ltaf13CalibDataBaseD1Ev,_ZN4ltaf13CalibDataBaseD2Ev
  40              		.section	.text._ZN4ltaf16CalibDataWMirrorD2Ev,"axG",%progbits,_ZN4ltaf16CalibDataWMirrorD5Ev,comda
  41              		.align	1
  42              		.weak	_ZN4ltaf16CalibDataWMirrorD2Ev
  43              		.thumb
  44              		.thumb_func
  46              	_ZN4ltaf16CalibDataWMirrorD2Ev:
  47              	.LFB3668:
  80:/home/tienluong/workspace/atlantis_fw/AsicFwS2/include/calibclasses.h **** 
  81:/home/tienluong/workspace/atlantis_fw/AsicFwS2/include/calibclasses.h ****     const Matrix3x3f & K() const { return _K;}
  82:/home/tienluong/workspace/atlantis_fw/AsicFwS2/include/calibclasses.h **** protected:
  83:/home/tienluong/workspace/atlantis_fw/AsicFwS2/include/calibclasses.h ****     Matrix3x3f _K;
  84:/home/tienluong/workspace/atlantis_fw/AsicFwS2/include/calibclasses.h **** };
  85:/home/tienluong/workspace/atlantis_fw/AsicFwS2/include/calibclasses.h **** 
  86:/home/tienluong/workspace/atlantis_fw/AsicFwS2/include/calibclasses.h **** class CalibData : public CalibDataBase
  87:/home/tienluong/workspace/atlantis_fw/AsicFwS2/include/calibclasses.h **** {
  88:/home/tienluong/workspace/atlantis_fw/AsicFwS2/include/calibclasses.h **** public:
  89:/home/tienluong/workspace/atlantis_fw/AsicFwS2/include/calibclasses.h ****     CalibData()
  90:/home/tienluong/workspace/atlantis_fw/AsicFwS2/include/calibclasses.h ****         : CalibDataBase()
  91:/home/tienluong/workspace/atlantis_fw/AsicFwS2/include/calibclasses.h ****         , _T( {0.0, 0.0, 0.0} )
  92:/home/tienluong/workspace/atlantis_fw/AsicFwS2/include/calibclasses.h ****     	, _R( Matrix3x3f::Identity() ) {}
  93:/home/tienluong/workspace/atlantis_fw/AsicFwS2/include/calibclasses.h **** 
  94:/home/tienluong/workspace/atlantis_fw/AsicFwS2/include/calibclasses.h ****     CalibData(const Matrix3x3f & k,
  95:/home/tienluong/workspace/atlantis_fw/AsicFwS2/include/calibclasses.h ****     		  const Matrix3x3f & r,
  96:/home/tienluong/workspace/atlantis_fw/AsicFwS2/include/calibclasses.h ****     		  const Vec3f	   & t)
  97:/home/tienluong/workspace/atlantis_fw/AsicFwS2/include/calibclasses.h ****         : CalibDataBase( k )
  98:/home/tienluong/workspace/atlantis_fw/AsicFwS2/include/calibclasses.h ****         , _T( t )
  99:/home/tienluong/workspace/atlantis_fw/AsicFwS2/include/calibclasses.h ****     	, _R( r ) {}
 100:/home/tienluong/workspace/atlantis_fw/AsicFwS2/include/calibclasses.h **** 
 101:/home/tienluong/workspace/atlantis_fw/AsicFwS2/include/calibclasses.h **** //    const Matrix3x3f & K() const { return _K;}
 102:/home/tienluong/workspace/atlantis_fw/AsicFwS2/include/calibclasses.h **** 
 103:/home/tienluong/workspace/atlantis_fw/AsicFwS2/include/calibclasses.h ****     const Vec3f & translation() const {return _T;}
 104:/home/tienluong/workspace/atlantis_fw/AsicFwS2/include/calibclasses.h **** 
 105:/home/tienluong/workspace/atlantis_fw/AsicFwS2/include/calibclasses.h ****     const Matrix3x3f & R() const {return _R;}
 106:/home/tienluong/workspace/atlantis_fw/AsicFwS2/include/calibclasses.h **** 
 107:/home/tienluong/workspace/atlantis_fw/AsicFwS2/include/calibclasses.h ****     void setCameraParameters( const Matrix3x3f & K,
 108:/home/tienluong/workspace/atlantis_fw/AsicFwS2/include/calibclasses.h ****                               const Matrix3x3f & R,
 109:/home/tienluong/workspace/atlantis_fw/AsicFwS2/include/calibclasses.h ****                               const Vec3f    &   translation );
 110:/home/tienluong/workspace/atlantis_fw/AsicFwS2/include/calibclasses.h **** 
 111:/home/tienluong/workspace/atlantis_fw/AsicFwS2/include/calibclasses.h ****     /// Scale the camera (e.g. reduce the pixel size) by
 112:/home/tienluong/workspace/atlantis_fw/AsicFwS2/include/calibclasses.h ****     /// adjusting the corresponding intrinsic matrix
 113:/home/tienluong/workspace/atlantis_fw/AsicFwS2/include/calibclasses.h ****     void scale( float s );
 114:/home/tienluong/workspace/atlantis_fw/AsicFwS2/include/calibclasses.h **** 
 115:/home/tienluong/workspace/atlantis_fw/AsicFwS2/include/calibclasses.h ****     /// Shift the camera parallel to the sensor plane.
 116:/home/tienluong/workspace/atlantis_fw/AsicFwS2/include/calibclasses.h ****     void shift( int delta_x, int delta_y );
 117:/home/tienluong/workspace/atlantis_fw/AsicFwS2/include/calibclasses.h **** 
 118:/home/tienluong/workspace/atlantis_fw/AsicFwS2/include/calibclasses.h **** protected:
 119:/home/tienluong/workspace/atlantis_fw/AsicFwS2/include/calibclasses.h ****     //Matrix3x3f  _K;                  /// Intrinsic matrix and its precomputed inversion.
 120:/home/tienluong/workspace/atlantis_fw/AsicFwS2/include/calibclasses.h ****     Vec3f       _T;                  /// Translation
 121:/home/tienluong/workspace/atlantis_fw/AsicFwS2/include/calibclasses.h ****     Matrix3x3f  _R;                  /// Rotation matrix
 122:/home/tienluong/workspace/atlantis_fw/AsicFwS2/include/calibclasses.h **** };
 123:/home/tienluong/workspace/atlantis_fw/AsicFwS2/include/calibclasses.h **** 
 124:/home/tienluong/workspace/atlantis_fw/AsicFwS2/include/calibclasses.h **** class CalibDataWMirror : public CalibDataBase 
  48              		.loc 1 124 0
  49              		.cfi_startproc
  50              		@ args = 0, pretend = 0, frame = 0
  51              		@ frame_needed = 0, uses_anonymous_args = 0
  52              		@ link register save eliminated.
  53              	.LVL1:
  54              		.loc 1 124 0
  55 0000 7047     		bx	lr
  56              		.cfi_endproc
  57              	.LFE3668:
  59              		.weak	_ZN4ltaf16CalibDataWMirrorD1Ev
  60              		.thumb_set _ZN4ltaf16CalibDataWMirrorD1Ev,_ZN4ltaf16CalibDataWMirrorD2Ev
  61              		.section	.text._ZN4ltaf9CalibDataD2Ev,"axG",%progbits,_ZN4ltaf9CalibDataD5Ev,comdat
  62              		.align	1
  63              		.weak	_ZN4ltaf9CalibDataD2Ev
  64              		.thumb
  65              		.thumb_func
  67              	_ZN4ltaf9CalibDataD2Ev:
  68              	.LFB3672:
  86:/home/tienluong/workspace/atlantis_fw/AsicFwS2/include/calibclasses.h **** {
  69              		.loc 1 86 0
  70              		.cfi_startproc
  71              		@ args = 0, pretend = 0, frame = 0
  72              		@ frame_needed = 0, uses_anonymous_args = 0
  73              		@ link register save eliminated.
  74              	.LVL2:
  86:/home/tienluong/workspace/atlantis_fw/AsicFwS2/include/calibclasses.h **** {
  75              		.loc 1 86 0
  76 0000 7047     		bx	lr
  77              		.cfi_endproc
  78              	.LFE3672:
  80              		.weak	_ZN4ltaf9CalibDataD1Ev
  81              		.thumb_set _ZN4ltaf9CalibDataD1Ev,_ZN4ltaf9CalibDataD2Ev
  82              		.section	.text._ZN4ltaf16CalibDataWMirrorD0Ev,"axG",%progbits,_ZN4ltaf16CalibDataWMirrorD5Ev,comda
  83              		.align	1
  84              		.weak	_ZN4ltaf16CalibDataWMirrorD0Ev
  85              		.thumb
  86              		.thumb_func
  88              	_ZN4ltaf16CalibDataWMirrorD0Ev:
  89              	.LFB3670:
  90              		.loc 1 124 0
  91              		.cfi_startproc
  92              		@ args = 0, pretend = 0, frame = 0
  93              		@ frame_needed = 0, uses_anonymous_args = 0
  94              	.LVL3:
  95 0000 10B5     		push	{r4, lr}
  96              	.LCFI0:
  97              		.cfi_def_cfa_offset 8
  98              		.cfi_offset 4, -8
  99              		.cfi_offset 14, -4
 100              		.loc 1 124 0
 101 0002 024B     		ldr	r3, .L5
 102 0004 0446     		mov	r4, r0
 103              	.LVL4:
 104 0006 9847     		blx	r3
 105              	.LVL5:
 106 0008 2046     		mov	r0, r4
 107 000a 10BD     		pop	{r4, pc}
 108              	.LVL6:
 109              	.L6:
 110              		.align	2
 111              	.L5:
 112 000c 00000000 		.word	_ZdlPv
 113              		.cfi_endproc
 114              	.LFE3670:
 116              		.section	.text._ZN4ltaf13CalibDataBaseD0Ev,"axG",%progbits,_ZN4ltaf13CalibDataBaseD5Ev,comdat
 117              		.align	1
 118              		.weak	_ZN4ltaf13CalibDataBaseD0Ev
 119              		.thumb
 120              		.thumb_func
 122              	_ZN4ltaf13CalibDataBaseD0Ev:
 123              	.LFB3257:
  79:/home/tienluong/workspace/atlantis_fw/AsicFwS2/include/calibclasses.h **** 
 124              		.loc 1 79 0
 125              		.cfi_startproc
 126              		@ args = 0, pretend = 0, frame = 0
 127              		@ frame_needed = 0, uses_anonymous_args = 0
 128              	.LVL7:
 129 0000 10B5     		push	{r4, lr}
 130              	.LCFI1:
 131              		.cfi_def_cfa_offset 8
 132              		.cfi_offset 4, -8
 133              		.cfi_offset 14, -4
  79:/home/tienluong/workspace/atlantis_fw/AsicFwS2/include/calibclasses.h **** 
 134              		.loc 1 79 0
 135 0002 024B     		ldr	r3, .L8
 136 0004 0446     		mov	r4, r0
 137              	.LVL8:
 138 0006 9847     		blx	r3
 139              	.LVL9:
 140 0008 2046     		mov	r0, r4
 141 000a 10BD     		pop	{r4, pc}
 142              	.LVL10:
 143              	.L9:
 144              		.align	2
 145              	.L8:
 146 000c 00000000 		.word	_ZdlPv
 147              		.cfi_endproc
 148              	.LFE3257:
 150              		.section	.text._ZN4ltaf9CalibDataD0Ev,"axG",%progbits,_ZN4ltaf9CalibDataD5Ev,comdat
 151              		.align	1
 152              		.weak	_ZN4ltaf9CalibDataD0Ev
 153              		.thumb
 154              		.thumb_func
 156              	_ZN4ltaf9CalibDataD0Ev:
 157              	.LFB3674:
  86:/home/tienluong/workspace/atlantis_fw/AsicFwS2/include/calibclasses.h **** {
 158              		.loc 1 86 0
 159              		.cfi_startproc
 160              		@ args = 0, pretend = 0, frame = 0
 161              		@ frame_needed = 0, uses_anonymous_args = 0
 162              	.LVL11:
 163 0000 10B5     		push	{r4, lr}
 164              	.LCFI2:
 165              		.cfi_def_cfa_offset 8
 166              		.cfi_offset 4, -8
 167              		.cfi_offset 14, -4
  86:/home/tienluong/workspace/atlantis_fw/AsicFwS2/include/calibclasses.h **** {
 168              		.loc 1 86 0
 169 0002 024B     		ldr	r3, .L11
 170 0004 0446     		mov	r4, r0
 171              	.LVL12:
 172 0006 9847     		blx	r3
 173              	.LVL13:
 174 0008 2046     		mov	r0, r4
 175 000a 10BD     		pop	{r4, pc}
 176              	.LVL14:
 177              	.L12:
 178              		.align	2
 179              	.L11:
 180 000c 00000000 		.word	_ZdlPv
 181              		.cfi_endproc
 182              	.LFE3674:
 184              		.global	__aeabi_fmul
 185              		.global	__aeabi_fsub
 186              		.global	__aeabi_fdiv
 187              		.section	.text._ZNK4ltaf20SquareMatrixInverterIfLi2EE3runEPf.isra.1,"ax",%progbits
 188              		.align	1
 189              		.thumb
 190              		.thumb_func
 192              	_ZNK4ltaf20SquareMatrixInverterIfLi2EE3runEPf.isra.1:
 193              	.LFB3676:
 194              		.file 2 "/home/tienluong/workspace/atlantis_fw/AsicFwS2/include/matrix.h"
   1:/home/tienluong/workspace/atlantis_fw/AsicFwS2/include/matrix.h **** // we want to have support for the following:
   2:/home/tienluong/workspace/atlantis_fw/AsicFwS2/include/matrix.h **** // matrix3x3f, matrix4x4f, vec2f, vec3f, vec4f
   3:/home/tienluong/workspace/atlantis_fw/AsicFwS2/include/matrix.h **** // plus, minus, multiplication, inverse, transpose
   4:/home/tienluong/workspace/atlantis_fw/AsicFwS2/include/matrix.h **** 
   5:/home/tienluong/workspace/atlantis_fw/AsicFwS2/include/matrix.h **** #ifndef __MATRIX_H__
   6:/home/tienluong/workspace/atlantis_fw/AsicFwS2/include/matrix.h **** #define __MATRIX_H__
   7:/home/tienluong/workspace/atlantis_fw/AsicFwS2/include/matrix.h **** 
   8:/home/tienluong/workspace/atlantis_fw/AsicFwS2/include/matrix.h **** #ifdef __cplusplus
   9:/home/tienluong/workspace/atlantis_fw/AsicFwS2/include/matrix.h **** 
  10:/home/tienluong/workspace/atlantis_fw/AsicFwS2/include/matrix.h **** #include <cstdlib>
  11:/home/tienluong/workspace/atlantis_fw/AsicFwS2/include/matrix.h **** #include <algorithm> // has compile problem...
  12:/home/tienluong/workspace/atlantis_fw/AsicFwS2/include/matrix.h **** #include <cmath>
  13:/home/tienluong/workspace/atlantis_fw/AsicFwS2/include/matrix.h **** 
  14:/home/tienluong/workspace/atlantis_fw/AsicFwS2/include/matrix.h **** namespace ltaf { // lt auto focus
  15:/home/tienluong/workspace/atlantis_fw/AsicFwS2/include/matrix.h **** 
  16:/home/tienluong/workspace/atlantis_fw/AsicFwS2/include/matrix.h **** // -----------------------------------------------------------
  17:/home/tienluong/workspace/atlantis_fw/AsicFwS2/include/matrix.h **** // 			Vec2 class
  18:/home/tienluong/workspace/atlantis_fw/AsicFwS2/include/matrix.h **** // -----------------------------------------------------------
  19:/home/tienluong/workspace/atlantis_fw/AsicFwS2/include/matrix.h **** template<typename T>
  20:/home/tienluong/workspace/atlantis_fw/AsicFwS2/include/matrix.h **** class Vec2
  21:/home/tienluong/workspace/atlantis_fw/AsicFwS2/include/matrix.h **** {
  22:/home/tienluong/workspace/atlantis_fw/AsicFwS2/include/matrix.h **** public:
  23:/home/tienluong/workspace/atlantis_fw/AsicFwS2/include/matrix.h ****     Vec2() {}
  24:/home/tienluong/workspace/atlantis_fw/AsicFwS2/include/matrix.h ****     Vec2( T t ) : _x( t ), _y( t ) {}
  25:/home/tienluong/workspace/atlantis_fw/AsicFwS2/include/matrix.h ****     Vec2( T x, T y ) : _x( x ), _y( y ) {}
  26:/home/tienluong/workspace/atlantis_fw/AsicFwS2/include/matrix.h ****     Vec2( const Vec2 & t ) : _x( t._x ), _y( t._y ) {}
  27:/home/tienluong/workspace/atlantis_fw/AsicFwS2/include/matrix.h **** 
  28:/home/tienluong/workspace/atlantis_fw/AsicFwS2/include/matrix.h ****     template<typename U>
  29:/home/tienluong/workspace/atlantis_fw/AsicFwS2/include/matrix.h ****     explicit Vec2( const Vec2<U> & t )
  30:/home/tienluong/workspace/atlantis_fw/AsicFwS2/include/matrix.h ****         : _x( static_cast<T>( t.x() ) )
  31:/home/tienluong/workspace/atlantis_fw/AsicFwS2/include/matrix.h ****         , _y( static_cast<T>( t.y() ) ) {}
  32:/home/tienluong/workspace/atlantis_fw/AsicFwS2/include/matrix.h **** 
  33:/home/tienluong/workspace/atlantis_fw/AsicFwS2/include/matrix.h ****     Vec2 & operator=( const Vec2 & t )
  34:/home/tienluong/workspace/atlantis_fw/AsicFwS2/include/matrix.h ****     { _x = t._x; _y = t._y; return *this; }
  35:/home/tienluong/workspace/atlantis_fw/AsicFwS2/include/matrix.h **** 
  36:/home/tienluong/workspace/atlantis_fw/AsicFwS2/include/matrix.h ****     Vec2 & operator/=( const Vec2 & t )
  37:/home/tienluong/workspace/atlantis_fw/AsicFwS2/include/matrix.h ****     { _x /= t._x; _y /= t._y; return *this; }
  38:/home/tienluong/workspace/atlantis_fw/AsicFwS2/include/matrix.h **** 
  39:/home/tienluong/workspace/atlantis_fw/AsicFwS2/include/matrix.h ****     Vec2 & operator%=( const Vec2 & t )
  40:/home/tienluong/workspace/atlantis_fw/AsicFwS2/include/matrix.h ****     { _x %= t._x; _y %= t._y; return *this; }
  41:/home/tienluong/workspace/atlantis_fw/AsicFwS2/include/matrix.h **** 
  42:/home/tienluong/workspace/atlantis_fw/AsicFwS2/include/matrix.h ****     Vec2 & operator*=( const Vec2 & t )
  43:/home/tienluong/workspace/atlantis_fw/AsicFwS2/include/matrix.h ****     { _x *= t._x; _y *= t._y; return *this; }
  44:/home/tienluong/workspace/atlantis_fw/AsicFwS2/include/matrix.h **** 
  45:/home/tienluong/workspace/atlantis_fw/AsicFwS2/include/matrix.h ****     Vec2 & operator+=( const Vec2 & t )
  46:/home/tienluong/workspace/atlantis_fw/AsicFwS2/include/matrix.h ****     { _x += t._x; _y += t._y; return *this; }
  47:/home/tienluong/workspace/atlantis_fw/AsicFwS2/include/matrix.h **** 
  48:/home/tienluong/workspace/atlantis_fw/AsicFwS2/include/matrix.h ****     Vec2 & operator-=( const Vec2 & t )
  49:/home/tienluong/workspace/atlantis_fw/AsicFwS2/include/matrix.h ****     { _x -= t._x; _y -= t._y; return *this; }
  50:/home/tienluong/workspace/atlantis_fw/AsicFwS2/include/matrix.h **** 
  51:/home/tienluong/workspace/atlantis_fw/AsicFwS2/include/matrix.h ****     Vec2 & operator&=( const Vec2 & t )
  52:/home/tienluong/workspace/atlantis_fw/AsicFwS2/include/matrix.h ****     { _x &= t._x; _y &= t._y; return *this; }
  53:/home/tienluong/workspace/atlantis_fw/AsicFwS2/include/matrix.h **** 
  54:/home/tienluong/workspace/atlantis_fw/AsicFwS2/include/matrix.h ****     Vec2 & operator|=( const Vec2 & t )
  55:/home/tienluong/workspace/atlantis_fw/AsicFwS2/include/matrix.h ****     { _x |= t._x; _y |= t._y; return *this; }
  56:/home/tienluong/workspace/atlantis_fw/AsicFwS2/include/matrix.h **** 
  57:/home/tienluong/workspace/atlantis_fw/AsicFwS2/include/matrix.h ****     Vec2 & operator>>=( int t )
  58:/home/tienluong/workspace/atlantis_fw/AsicFwS2/include/matrix.h ****     { _x >>= t; _y >>= t; return *this; }
  59:/home/tienluong/workspace/atlantis_fw/AsicFwS2/include/matrix.h **** 
  60:/home/tienluong/workspace/atlantis_fw/AsicFwS2/include/matrix.h ****     Vec2 & operator<<=( int t )
  61:/home/tienluong/workspace/atlantis_fw/AsicFwS2/include/matrix.h ****     { _x <<= t; _y <<= t; return *this; }
  62:/home/tienluong/workspace/atlantis_fw/AsicFwS2/include/matrix.h **** 
  63:/home/tienluong/workspace/atlantis_fw/AsicFwS2/include/matrix.h ****     Vec2 operator-() const { return { -_x, -_y}; }
  64:/home/tienluong/workspace/atlantis_fw/AsicFwS2/include/matrix.h **** 
  65:/home/tienluong/workspace/atlantis_fw/AsicFwS2/include/matrix.h ****     template<typename U> Vec2<typename std::common_type<T, U>::type>
  66:/home/tienluong/workspace/atlantis_fw/AsicFwS2/include/matrix.h ****     operator+( const Vec2<U> & t ) const { return { _x + t.x(), _y + t.y() }; }
  67:/home/tienluong/workspace/atlantis_fw/AsicFwS2/include/matrix.h **** 
  68:/home/tienluong/workspace/atlantis_fw/AsicFwS2/include/matrix.h ****     template<typename U> Vec2<typename std::common_type<T, U>::type>
  69:/home/tienluong/workspace/atlantis_fw/AsicFwS2/include/matrix.h ****     operator-( const Vec2<U> & t ) const { return { _x - t.x(), _y - t.y() }; }
  70:/home/tienluong/workspace/atlantis_fw/AsicFwS2/include/matrix.h **** 
  71:/home/tienluong/workspace/atlantis_fw/AsicFwS2/include/matrix.h ****     template<typename U> Vec2<typename std::common_type<T, U>::type>
  72:/home/tienluong/workspace/atlantis_fw/AsicFwS2/include/matrix.h ****     operator*( const Vec2<U> & t ) const { return { _x * t.x(), _y * t.y() }; }
  73:/home/tienluong/workspace/atlantis_fw/AsicFwS2/include/matrix.h **** 
  74:/home/tienluong/workspace/atlantis_fw/AsicFwS2/include/matrix.h ****     template<typename U> Vec2<typename std::common_type<T, U>::type>
  75:/home/tienluong/workspace/atlantis_fw/AsicFwS2/include/matrix.h ****     operator/( const Vec2<U> & t ) const { return { _x / t.x(), _y / t.y() }; }
  76:/home/tienluong/workspace/atlantis_fw/AsicFwS2/include/matrix.h **** 
  77:/home/tienluong/workspace/atlantis_fw/AsicFwS2/include/matrix.h ****     template < typename U,
  78:/home/tienluong/workspace/atlantis_fw/AsicFwS2/include/matrix.h ****                typename = typename std::enable_if < std::is_integral<T>::value && std::is_integral<
  79:/home/tienluong/workspace/atlantis_fw/AsicFwS2/include/matrix.h ****     Vec2<typename std::common_type<T, U>::type>
  80:/home/tienluong/workspace/atlantis_fw/AsicFwS2/include/matrix.h ****     operator%( const Vec2<U> & t ) const { return { _x % t.x(), _y % t.y() }; }
  81:/home/tienluong/workspace/atlantis_fw/AsicFwS2/include/matrix.h **** 
  82:/home/tienluong/workspace/atlantis_fw/AsicFwS2/include/matrix.h ****     template < typename U,
  83:/home/tienluong/workspace/atlantis_fw/AsicFwS2/include/matrix.h ****                typename = typename std::enable_if < std::is_arithmetic<U>::value >::type >
  84:/home/tienluong/workspace/atlantis_fw/AsicFwS2/include/matrix.h ****     Vec2<typename std::common_type<T, U>::type>
  85:/home/tienluong/workspace/atlantis_fw/AsicFwS2/include/matrix.h ****     operator+( U t ) const { return { _x + t, _y + t }; }
  86:/home/tienluong/workspace/atlantis_fw/AsicFwS2/include/matrix.h **** 
  87:/home/tienluong/workspace/atlantis_fw/AsicFwS2/include/matrix.h ****     template < typename U,
  88:/home/tienluong/workspace/atlantis_fw/AsicFwS2/include/matrix.h ****                typename = typename std::enable_if < std::is_arithmetic<U>::value >::type >
  89:/home/tienluong/workspace/atlantis_fw/AsicFwS2/include/matrix.h ****     Vec2<typename std::common_type<T, U>::type>
  90:/home/tienluong/workspace/atlantis_fw/AsicFwS2/include/matrix.h ****     operator-( U t ) const { return { _x - t, _y - t }; }
  91:/home/tienluong/workspace/atlantis_fw/AsicFwS2/include/matrix.h **** 
  92:/home/tienluong/workspace/atlantis_fw/AsicFwS2/include/matrix.h ****     template < typename U,
  93:/home/tienluong/workspace/atlantis_fw/AsicFwS2/include/matrix.h ****                typename = typename std::enable_if < std::is_arithmetic<U>::value >::type >
  94:/home/tienluong/workspace/atlantis_fw/AsicFwS2/include/matrix.h ****     Vec2<typename std::common_type<T, U>::type>
  95:/home/tienluong/workspace/atlantis_fw/AsicFwS2/include/matrix.h ****     operator*( U t ) const { return { _x * t, _y * t }; }
  96:/home/tienluong/workspace/atlantis_fw/AsicFwS2/include/matrix.h **** 
  97:/home/tienluong/workspace/atlantis_fw/AsicFwS2/include/matrix.h ****     template < typename U,
  98:/home/tienluong/workspace/atlantis_fw/AsicFwS2/include/matrix.h ****                typename = typename std::enable_if < std::is_arithmetic<U>::value >::type >
  99:/home/tienluong/workspace/atlantis_fw/AsicFwS2/include/matrix.h ****     Vec2<typename std::common_type<T, U>::type>
 100:/home/tienluong/workspace/atlantis_fw/AsicFwS2/include/matrix.h ****     operator/( U t ) const { return { _x / t, _y / t }; }
 101:/home/tienluong/workspace/atlantis_fw/AsicFwS2/include/matrix.h **** 
 102:/home/tienluong/workspace/atlantis_fw/AsicFwS2/include/matrix.h ****     template < typename U,
 103:/home/tienluong/workspace/atlantis_fw/AsicFwS2/include/matrix.h ****                typename = typename std::enable_if < std::is_integral<T>::value && std::is_integral<
 104:/home/tienluong/workspace/atlantis_fw/AsicFwS2/include/matrix.h ****     Vec2<typename std::common_type<T, U>::type>
 105:/home/tienluong/workspace/atlantis_fw/AsicFwS2/include/matrix.h ****     operator%( U t ) const { return { _x % t, _y % t }; }
 106:/home/tienluong/workspace/atlantis_fw/AsicFwS2/include/matrix.h **** 
 107:/home/tienluong/workspace/atlantis_fw/AsicFwS2/include/matrix.h ****     T min() const { return std::min( _x, _y ); }
 108:/home/tienluong/workspace/atlantis_fw/AsicFwS2/include/matrix.h ****     T max() const { return std::max( _x, _y ); }
 109:/home/tienluong/workspace/atlantis_fw/AsicFwS2/include/matrix.h ****     T sum() const { return _x + _y; }
 110:/home/tienluong/workspace/atlantis_fw/AsicFwS2/include/matrix.h ****     T dot( const Vec2<T> & t ) const { return _x * t.x() + _y * t.y(); }
 111:/home/tienluong/workspace/atlantis_fw/AsicFwS2/include/matrix.h **** 
 112:/home/tienluong/workspace/atlantis_fw/AsicFwS2/include/matrix.h ****     Vec2 abs() const { return { std::abs( _x ), std::abs( _y ) }; }
 113:/home/tienluong/workspace/atlantis_fw/AsicFwS2/include/matrix.h ****     
 114:/home/tienluong/workspace/atlantis_fw/AsicFwS2/include/matrix.h ****     const T & x() const { return _x; }
 115:/home/tienluong/workspace/atlantis_fw/AsicFwS2/include/matrix.h ****     const T & y() const { return _y; }
 116:/home/tienluong/workspace/atlantis_fw/AsicFwS2/include/matrix.h **** 
 117:/home/tienluong/workspace/atlantis_fw/AsicFwS2/include/matrix.h ****     void setX( T x ) { _x = x; }
 118:/home/tienluong/workspace/atlantis_fw/AsicFwS2/include/matrix.h ****     void setY( T y ) { _y = y; }
 119:/home/tienluong/workspace/atlantis_fw/AsicFwS2/include/matrix.h **** 
 120:/home/tienluong/workspace/atlantis_fw/AsicFwS2/include/matrix.h **** private:
 121:/home/tienluong/workspace/atlantis_fw/AsicFwS2/include/matrix.h **** 	T _x, _y;
 122:/home/tienluong/workspace/atlantis_fw/AsicFwS2/include/matrix.h **** };
 123:/home/tienluong/workspace/atlantis_fw/AsicFwS2/include/matrix.h **** 
 124:/home/tienluong/workspace/atlantis_fw/AsicFwS2/include/matrix.h **** 
 125:/home/tienluong/workspace/atlantis_fw/AsicFwS2/include/matrix.h **** // basic add/sub/mul/div operators
 126:/home/tienluong/workspace/atlantis_fw/AsicFwS2/include/matrix.h **** template < typename T, typename U,
 127:/home/tienluong/workspace/atlantis_fw/AsicFwS2/include/matrix.h ****            typename = typename std::enable_if < std::is_arithmetic<T>::value >::type >
 128:/home/tienluong/workspace/atlantis_fw/AsicFwS2/include/matrix.h **** Vec2<typename std::common_type<T, U>::type>
 129:/home/tienluong/workspace/atlantis_fw/AsicFwS2/include/matrix.h **** operator+( T a, const Vec2<U> & b ) { return b + a; }
 130:/home/tienluong/workspace/atlantis_fw/AsicFwS2/include/matrix.h **** 
 131:/home/tienluong/workspace/atlantis_fw/AsicFwS2/include/matrix.h **** template < typename T, typename U,
 132:/home/tienluong/workspace/atlantis_fw/AsicFwS2/include/matrix.h ****            typename = typename std::enable_if < std::is_arithmetic<T>::value >::type >
 133:/home/tienluong/workspace/atlantis_fw/AsicFwS2/include/matrix.h **** Vec2<typename std::common_type<T, U>::type>
 134:/home/tienluong/workspace/atlantis_fw/AsicFwS2/include/matrix.h **** operator*( T a, const Vec2<U> & b ) { return b * a; }
 135:/home/tienluong/workspace/atlantis_fw/AsicFwS2/include/matrix.h **** 
 136:/home/tienluong/workspace/atlantis_fw/AsicFwS2/include/matrix.h **** template < typename T, typename U,
 137:/home/tienluong/workspace/atlantis_fw/AsicFwS2/include/matrix.h ****            typename = typename std::enable_if < std::is_arithmetic<T>::value >::type >
 138:/home/tienluong/workspace/atlantis_fw/AsicFwS2/include/matrix.h **** Vec2<typename std::common_type<T, U>::type>
 139:/home/tienluong/workspace/atlantis_fw/AsicFwS2/include/matrix.h **** operator-( T a, const Vec2<U> & b ) { return Vec2<T>( a ) - b; }
 140:/home/tienluong/workspace/atlantis_fw/AsicFwS2/include/matrix.h **** 
 141:/home/tienluong/workspace/atlantis_fw/AsicFwS2/include/matrix.h **** template < typename T, typename U,
 142:/home/tienluong/workspace/atlantis_fw/AsicFwS2/include/matrix.h ****            typename = typename std::enable_if < std::is_arithmetic<T>::value >::type >
 143:/home/tienluong/workspace/atlantis_fw/AsicFwS2/include/matrix.h **** Vec2<typename std::common_type<T, U>::type>
 144:/home/tienluong/workspace/atlantis_fw/AsicFwS2/include/matrix.h **** operator/( T a, const Vec2<U> & b ) { return Vec2<T>( a ) / b; }
 145:/home/tienluong/workspace/atlantis_fw/AsicFwS2/include/matrix.h **** 
 146:/home/tienluong/workspace/atlantis_fw/AsicFwS2/include/matrix.h **** // basic math functions
 147:/home/tienluong/workspace/atlantis_fw/AsicFwS2/include/matrix.h **** template<typename T>
 148:/home/tienluong/workspace/atlantis_fw/AsicFwS2/include/matrix.h **** T min( const Vec2<T> & t ) { return t.min(); }
 149:/home/tienluong/workspace/atlantis_fw/AsicFwS2/include/matrix.h **** 
 150:/home/tienluong/workspace/atlantis_fw/AsicFwS2/include/matrix.h **** template<typename T>
 151:/home/tienluong/workspace/atlantis_fw/AsicFwS2/include/matrix.h **** T max( const Vec2<T> & t ) { return t.max(); }
 152:/home/tienluong/workspace/atlantis_fw/AsicFwS2/include/matrix.h **** 
 153:/home/tienluong/workspace/atlantis_fw/AsicFwS2/include/matrix.h **** template<typename T>
 154:/home/tienluong/workspace/atlantis_fw/AsicFwS2/include/matrix.h **** T sum( const Vec2<T> & t ) { return t.sum(); }
 155:/home/tienluong/workspace/atlantis_fw/AsicFwS2/include/matrix.h **** 
 156:/home/tienluong/workspace/atlantis_fw/AsicFwS2/include/matrix.h **** template<typename T>
 157:/home/tienluong/workspace/atlantis_fw/AsicFwS2/include/matrix.h **** T dot( const Vec2<T> & a, const Vec2<T> & b ) { return a.dot( b ); }
 158:/home/tienluong/workspace/atlantis_fw/AsicFwS2/include/matrix.h **** 
 159:/home/tienluong/workspace/atlantis_fw/AsicFwS2/include/matrix.h **** template<typename T>
 160:/home/tienluong/workspace/atlantis_fw/AsicFwS2/include/matrix.h **** Vec2<T> min( const Vec2<T> & a, const Vec2<T> & b )
 161:/home/tienluong/workspace/atlantis_fw/AsicFwS2/include/matrix.h **** { return { std::min( a.x(), b.x() ), std::min( a.y(), b.y() ) }; }
 162:/home/tienluong/workspace/atlantis_fw/AsicFwS2/include/matrix.h **** 
 163:/home/tienluong/workspace/atlantis_fw/AsicFwS2/include/matrix.h **** template<typename T>
 164:/home/tienluong/workspace/atlantis_fw/AsicFwS2/include/matrix.h **** Vec2<T> abs( const Vec2<T> & t ) { return t.abs(); }
 165:/home/tienluong/workspace/atlantis_fw/AsicFwS2/include/matrix.h **** 
 166:/home/tienluong/workspace/atlantis_fw/AsicFwS2/include/matrix.h **** // template<typename T>
 167:/home/tienluong/workspace/atlantis_fw/AsicFwS2/include/matrix.h **** // Vec2<T> sign( const Vec2<T> & t ) { return t.sign(); }
 168:/home/tienluong/workspace/atlantis_fw/AsicFwS2/include/matrix.h **** 
 169:/home/tienluong/workspace/atlantis_fw/AsicFwS2/include/matrix.h **** template<typename T>
 170:/home/tienluong/workspace/atlantis_fw/AsicFwS2/include/matrix.h **** typename std::enable_if<std::is_floating_point<T>::value, T>::type
 171:/home/tienluong/workspace/atlantis_fw/AsicFwS2/include/matrix.h **** length( const Vec2<T> & a )
 172:/home/tienluong/workspace/atlantis_fw/AsicFwS2/include/matrix.h **** { return std::sqrt( dot( a, a ) ); }
 173:/home/tienluong/workspace/atlantis_fw/AsicFwS2/include/matrix.h **** 
 174:/home/tienluong/workspace/atlantis_fw/AsicFwS2/include/matrix.h **** template<typename T>
 175:/home/tienluong/workspace/atlantis_fw/AsicFwS2/include/matrix.h **** typename std::enable_if<std::is_floating_point<T>::value, Vec2<T> >::type
 176:/home/tienluong/workspace/atlantis_fw/AsicFwS2/include/matrix.h **** sqrt( const Vec2<T> & a )
 177:/home/tienluong/workspace/atlantis_fw/AsicFwS2/include/matrix.h **** { return { std::sqrt( a.x() ), std::sqrt( a.y() ) }; }
 178:/home/tienluong/workspace/atlantis_fw/AsicFwS2/include/matrix.h **** 
 179:/home/tienluong/workspace/atlantis_fw/AsicFwS2/include/matrix.h **** template<typename T>
 180:/home/tienluong/workspace/atlantis_fw/AsicFwS2/include/matrix.h **** typename std::enable_if<std::is_floating_point<T>::value, T>::type
 181:/home/tienluong/workspace/atlantis_fw/AsicFwS2/include/matrix.h **** squaredSum( const Vec2<T> & a )
 182:/home/tienluong/workspace/atlantis_fw/AsicFwS2/include/matrix.h **** { return dot( a, a ); }
 183:/home/tienluong/workspace/atlantis_fw/AsicFwS2/include/matrix.h **** 
 184:/home/tienluong/workspace/atlantis_fw/AsicFwS2/include/matrix.h **** template<typename T>
 185:/home/tienluong/workspace/atlantis_fw/AsicFwS2/include/matrix.h **** typename std::enable_if<std::is_floating_point<T>::value, Vec2<T> >::type
 186:/home/tienluong/workspace/atlantis_fw/AsicFwS2/include/matrix.h **** normalize( const Vec2<T> & a )
 187:/home/tienluong/workspace/atlantis_fw/AsicFwS2/include/matrix.h **** {
 188:/home/tienluong/workspace/atlantis_fw/AsicFwS2/include/matrix.h ****     return a / length( a );
 189:/home/tienluong/workspace/atlantis_fw/AsicFwS2/include/matrix.h **** }
 190:/home/tienluong/workspace/atlantis_fw/AsicFwS2/include/matrix.h **** 
 191:/home/tienluong/workspace/atlantis_fw/AsicFwS2/include/matrix.h **** // template<typename T>
 192:/home/tienluong/workspace/atlantis_fw/AsicFwS2/include/matrix.h **** // typename std::enable_if<std::is_floating_point<T>::value, Vec2<T> >::type
 193:/home/tienluong/workspace/atlantis_fw/AsicFwS2/include/matrix.h **** // pow( const Vec2<T> & a, const Vec2<T> & b )
 194:/home/tienluong/workspace/atlantis_fw/AsicFwS2/include/matrix.h **** // { return { std::pow( a.x(), b.x() ), std::pow( a.y(), b.y() ) }; }
 195:/home/tienluong/workspace/atlantis_fw/AsicFwS2/include/matrix.h **** 
 196:/home/tienluong/workspace/atlantis_fw/AsicFwS2/include/matrix.h **** // template<typename T>
 197:/home/tienluong/workspace/atlantis_fw/AsicFwS2/include/matrix.h **** // typename std::enable_if<std::is_floating_point<T>::value, Vec2<T> >::type
 198:/home/tienluong/workspace/atlantis_fw/AsicFwS2/include/matrix.h **** // pow( const Vec2<T> & a, T  b )
 199:/home/tienluong/workspace/atlantis_fw/AsicFwS2/include/matrix.h **** // { return { std::pow( a.x(), b ), std::pow( a.y(), b ) }; }
 200:/home/tienluong/workspace/atlantis_fw/AsicFwS2/include/matrix.h **** 
 201:/home/tienluong/workspace/atlantis_fw/AsicFwS2/include/matrix.h **** // template<typename T>
 202:/home/tienluong/workspace/atlantis_fw/AsicFwS2/include/matrix.h **** // typename std::enable_if<std::is_floating_point<T>::value, Vec2<T> >::type
 203:/home/tienluong/workspace/atlantis_fw/AsicFwS2/include/matrix.h **** // pow( T a, const Vec2<T> & b )
 204:/home/tienluong/workspace/atlantis_fw/AsicFwS2/include/matrix.h **** // { return { std::pow( a, b.x() ), std::pow( a, b.y() ) }; }
 205:/home/tienluong/workspace/atlantis_fw/AsicFwS2/include/matrix.h **** 
 206:/home/tienluong/workspace/atlantis_fw/AsicFwS2/include/matrix.h **** // template<typename T>
 207:/home/tienluong/workspace/atlantis_fw/AsicFwS2/include/matrix.h **** // typename std::enable_if<std::is_floating_point<T>::value, Vec2<T> >::type
 208:/home/tienluong/workspace/atlantis_fw/AsicFwS2/include/matrix.h **** // floor( const Vec2<T> & a )
 209:/home/tienluong/workspace/atlantis_fw/AsicFwS2/include/matrix.h **** // { return { std::floor( a.x() ), std::floor( a.y() ) }; }
 210:/home/tienluong/workspace/atlantis_fw/AsicFwS2/include/matrix.h **** 
 211:/home/tienluong/workspace/atlantis_fw/AsicFwS2/include/matrix.h **** // template<typename T>
 212:/home/tienluong/workspace/atlantis_fw/AsicFwS2/include/matrix.h **** // typename std::enable_if<std::is_floating_point<T>::value, Vec2<T> >::type
 213:/home/tienluong/workspace/atlantis_fw/AsicFwS2/include/matrix.h **** // ceil( const Vec2<T> & a )
 214:/home/tienluong/workspace/atlantis_fw/AsicFwS2/include/matrix.h **** // { return { std::ceil( a.x() ), std::ceil( a.y() ) }; }
 215:/home/tienluong/workspace/atlantis_fw/AsicFwS2/include/matrix.h **** 
 216:/home/tienluong/workspace/atlantis_fw/AsicFwS2/include/matrix.h **** 
 217:/home/tienluong/workspace/atlantis_fw/AsicFwS2/include/matrix.h **** 
 218:/home/tienluong/workspace/atlantis_fw/AsicFwS2/include/matrix.h **** 
 219:/home/tienluong/workspace/atlantis_fw/AsicFwS2/include/matrix.h **** 
 220:/home/tienluong/workspace/atlantis_fw/AsicFwS2/include/matrix.h **** // -----------------------------------------------------------
 221:/home/tienluong/workspace/atlantis_fw/AsicFwS2/include/matrix.h **** // 			Vec3 class
 222:/home/tienluong/workspace/atlantis_fw/AsicFwS2/include/matrix.h **** // -----------------------------------------------------------
 223:/home/tienluong/workspace/atlantis_fw/AsicFwS2/include/matrix.h **** template<typename T>
 224:/home/tienluong/workspace/atlantis_fw/AsicFwS2/include/matrix.h **** class Vec3
 225:/home/tienluong/workspace/atlantis_fw/AsicFwS2/include/matrix.h **** {
 226:/home/tienluong/workspace/atlantis_fw/AsicFwS2/include/matrix.h **** public:
 227:/home/tienluong/workspace/atlantis_fw/AsicFwS2/include/matrix.h ****     Vec3() {}
 228:/home/tienluong/workspace/atlantis_fw/AsicFwS2/include/matrix.h ****     Vec3( T t ) : _x( t ), _y( t ), _z( t ) {}
 229:/home/tienluong/workspace/atlantis_fw/AsicFwS2/include/matrix.h ****     Vec3( T x, T y, T z ) : _x( x ), _y( y ), _z( z ) {}
 230:/home/tienluong/workspace/atlantis_fw/AsicFwS2/include/matrix.h ****     Vec3( const Vec3 & t ) : _x( t._x ), _y( t._y ), _z( t._z ) {}
 231:/home/tienluong/workspace/atlantis_fw/AsicFwS2/include/matrix.h **** 
 232:/home/tienluong/workspace/atlantis_fw/AsicFwS2/include/matrix.h ****     template<typename U>
 233:/home/tienluong/workspace/atlantis_fw/AsicFwS2/include/matrix.h ****     explicit Vec3( const Vec3<U> & t )
 234:/home/tienluong/workspace/atlantis_fw/AsicFwS2/include/matrix.h ****         : _x( static_cast<T>( t.x() ) )
 235:/home/tienluong/workspace/atlantis_fw/AsicFwS2/include/matrix.h ****         , _y( static_cast<T>( t.y() ) )
 236:/home/tienluong/workspace/atlantis_fw/AsicFwS2/include/matrix.h ****         , _z( static_cast<T>( t.z() ) ) {}
 237:/home/tienluong/workspace/atlantis_fw/AsicFwS2/include/matrix.h **** 
 238:/home/tienluong/workspace/atlantis_fw/AsicFwS2/include/matrix.h ****     Vec3 & operator=( const Vec3 & t )
 239:/home/tienluong/workspace/atlantis_fw/AsicFwS2/include/matrix.h ****     { _x = t._x; _y = t._y; _z = t._z; return *this; }
 240:/home/tienluong/workspace/atlantis_fw/AsicFwS2/include/matrix.h **** 
 241:/home/tienluong/workspace/atlantis_fw/AsicFwS2/include/matrix.h ****     Vec3 & operator/=( const Vec3 & t )
 242:/home/tienluong/workspace/atlantis_fw/AsicFwS2/include/matrix.h ****     { _x /= t._x; _y /= t._y; _z /= t._z; return *this; }
 243:/home/tienluong/workspace/atlantis_fw/AsicFwS2/include/matrix.h **** 
 244:/home/tienluong/workspace/atlantis_fw/AsicFwS2/include/matrix.h ****     Vec3 & operator%=( const Vec3 & t )
 245:/home/tienluong/workspace/atlantis_fw/AsicFwS2/include/matrix.h ****     { _x %= t._x; _y %= t._y; _z %= t._z; return *this; }
 246:/home/tienluong/workspace/atlantis_fw/AsicFwS2/include/matrix.h **** 
 247:/home/tienluong/workspace/atlantis_fw/AsicFwS2/include/matrix.h ****     Vec3 & operator*=( const Vec3 & t )
 248:/home/tienluong/workspace/atlantis_fw/AsicFwS2/include/matrix.h ****     { _x *= t._x; _y *= t._y; _z *= t._z; return *this; }
 249:/home/tienluong/workspace/atlantis_fw/AsicFwS2/include/matrix.h **** 
 250:/home/tienluong/workspace/atlantis_fw/AsicFwS2/include/matrix.h ****     Vec3 & operator+=( const Vec3 & t )
 251:/home/tienluong/workspace/atlantis_fw/AsicFwS2/include/matrix.h ****     { _x += t._x; _y += t._y; _z += t._z; return *this; }
 252:/home/tienluong/workspace/atlantis_fw/AsicFwS2/include/matrix.h **** 
 253:/home/tienluong/workspace/atlantis_fw/AsicFwS2/include/matrix.h ****     Vec3 & operator-=( const Vec3 & t )
 254:/home/tienluong/workspace/atlantis_fw/AsicFwS2/include/matrix.h ****     { _x -= t._x; _y -= t._y; _z -= t._z; return *this; }
 255:/home/tienluong/workspace/atlantis_fw/AsicFwS2/include/matrix.h **** 
 256:/home/tienluong/workspace/atlantis_fw/AsicFwS2/include/matrix.h ****     Vec3 & operator&=( const Vec3 & t )
 257:/home/tienluong/workspace/atlantis_fw/AsicFwS2/include/matrix.h ****     { _x &= t._x; _y &= t._y; _z &= t._z; return *this; }
 258:/home/tienluong/workspace/atlantis_fw/AsicFwS2/include/matrix.h **** 
 259:/home/tienluong/workspace/atlantis_fw/AsicFwS2/include/matrix.h ****     Vec3 & operator|=( const Vec3 & t )
 260:/home/tienluong/workspace/atlantis_fw/AsicFwS2/include/matrix.h ****     { _x |= t._x; _y |= t._y; _z |= t._z; return *this; }
 261:/home/tienluong/workspace/atlantis_fw/AsicFwS2/include/matrix.h **** 
 262:/home/tienluong/workspace/atlantis_fw/AsicFwS2/include/matrix.h ****     Vec3 & operator>>=( int t )
 263:/home/tienluong/workspace/atlantis_fw/AsicFwS2/include/matrix.h ****     { _x >>= t; _y >>= t; _z >>= t; return *this; }
 264:/home/tienluong/workspace/atlantis_fw/AsicFwS2/include/matrix.h **** 
 265:/home/tienluong/workspace/atlantis_fw/AsicFwS2/include/matrix.h ****     Vec3 & operator<<=( int t )
 266:/home/tienluong/workspace/atlantis_fw/AsicFwS2/include/matrix.h ****     { _x <<= t; _y <<= t; _z <<= t; return *this; }
 267:/home/tienluong/workspace/atlantis_fw/AsicFwS2/include/matrix.h **** 
 268:/home/tienluong/workspace/atlantis_fw/AsicFwS2/include/matrix.h ****     Vec3 operator-() const { return { -_x, -_y, -_z }; }
 269:/home/tienluong/workspace/atlantis_fw/AsicFwS2/include/matrix.h **** 
 270:/home/tienluong/workspace/atlantis_fw/AsicFwS2/include/matrix.h ****     template<typename U > 
 271:/home/tienluong/workspace/atlantis_fw/AsicFwS2/include/matrix.h ****     Vec3<typename std::common_type<T, U>::type>
 272:/home/tienluong/workspace/atlantis_fw/AsicFwS2/include/matrix.h ****     operator+( const Vec3<U> & t ) const { return { _x + t.x(), _y + t.y(), _z + t.z() }; }
 273:/home/tienluong/workspace/atlantis_fw/AsicFwS2/include/matrix.h **** 
 274:/home/tienluong/workspace/atlantis_fw/AsicFwS2/include/matrix.h ****     template<typename U> Vec3<typename std::common_type<T, U>::type>
 275:/home/tienluong/workspace/atlantis_fw/AsicFwS2/include/matrix.h ****     operator-( const Vec3<U> & t ) const { return { _x - t.x(), _y - t.y(), _z - t.z() }; }
 276:/home/tienluong/workspace/atlantis_fw/AsicFwS2/include/matrix.h **** 
 277:/home/tienluong/workspace/atlantis_fw/AsicFwS2/include/matrix.h ****     template<typename U> Vec3<typename std::common_type<T, U>::type>
 278:/home/tienluong/workspace/atlantis_fw/AsicFwS2/include/matrix.h ****     operator*( const Vec3<U> & t ) const { return { _x * t.x(), _y * t.y(), _z * t.z() }; }
 279:/home/tienluong/workspace/atlantis_fw/AsicFwS2/include/matrix.h **** 
 280:/home/tienluong/workspace/atlantis_fw/AsicFwS2/include/matrix.h ****     template<typename U> Vec3<typename std::common_type<T, U>::type>
 281:/home/tienluong/workspace/atlantis_fw/AsicFwS2/include/matrix.h ****     operator/( const Vec3<U> & t ) const { return { _x / t.x(), _y / t.y(), _z / t.z() }; }
 282:/home/tienluong/workspace/atlantis_fw/AsicFwS2/include/matrix.h **** 
 283:/home/tienluong/workspace/atlantis_fw/AsicFwS2/include/matrix.h ****     template < typename U,
 284:/home/tienluong/workspace/atlantis_fw/AsicFwS2/include/matrix.h ****                typename = typename std::enable_if < std::is_integral<T>::value && std::is_integral<
 285:/home/tienluong/workspace/atlantis_fw/AsicFwS2/include/matrix.h ****     Vec3<typename std::common_type<T, U>::type>
 286:/home/tienluong/workspace/atlantis_fw/AsicFwS2/include/matrix.h ****     operator%( const Vec3<U> & t ) const { return { _x % t.x(), _y % t.y(), _z % t.z() }; }
 287:/home/tienluong/workspace/atlantis_fw/AsicFwS2/include/matrix.h **** 
 288:/home/tienluong/workspace/atlantis_fw/AsicFwS2/include/matrix.h ****     template < typename U,
 289:/home/tienluong/workspace/atlantis_fw/AsicFwS2/include/matrix.h ****                typename = typename std::enable_if < std::is_arithmetic<U>::value >::type >
 290:/home/tienluong/workspace/atlantis_fw/AsicFwS2/include/matrix.h ****     Vec3<typename std::common_type<T, U>::type>
 291:/home/tienluong/workspace/atlantis_fw/AsicFwS2/include/matrix.h ****     operator+( U t ) const { return { _x + t, _y + t, _z + t }; }
 292:/home/tienluong/workspace/atlantis_fw/AsicFwS2/include/matrix.h **** 
 293:/home/tienluong/workspace/atlantis_fw/AsicFwS2/include/matrix.h ****     template < typename U,
 294:/home/tienluong/workspace/atlantis_fw/AsicFwS2/include/matrix.h ****                typename = typename std::enable_if < std::is_arithmetic<U>::value >::type >
 295:/home/tienluong/workspace/atlantis_fw/AsicFwS2/include/matrix.h ****     Vec3<typename std::common_type<T, U>::type>
 296:/home/tienluong/workspace/atlantis_fw/AsicFwS2/include/matrix.h ****     operator-( U t ) const { return { _x - t, _y - t, _z - t }; }
 297:/home/tienluong/workspace/atlantis_fw/AsicFwS2/include/matrix.h **** 
 298:/home/tienluong/workspace/atlantis_fw/AsicFwS2/include/matrix.h ****     template < typename U,
 299:/home/tienluong/workspace/atlantis_fw/AsicFwS2/include/matrix.h ****                typename = typename std::enable_if < std::is_arithmetic<U>::value >::type >
 300:/home/tienluong/workspace/atlantis_fw/AsicFwS2/include/matrix.h ****     Vec3<typename std::common_type<T, U>::type>
 301:/home/tienluong/workspace/atlantis_fw/AsicFwS2/include/matrix.h ****     operator*( U t ) const { return { _x * t, _y * t, _z * t }; }
 302:/home/tienluong/workspace/atlantis_fw/AsicFwS2/include/matrix.h **** 
 303:/home/tienluong/workspace/atlantis_fw/AsicFwS2/include/matrix.h ****     template < typename U,
 304:/home/tienluong/workspace/atlantis_fw/AsicFwS2/include/matrix.h ****                typename = typename std::enable_if < std::is_arithmetic<U>::value >::type >
 305:/home/tienluong/workspace/atlantis_fw/AsicFwS2/include/matrix.h ****     Vec3<typename std::common_type<T, U>::type>
 306:/home/tienluong/workspace/atlantis_fw/AsicFwS2/include/matrix.h ****     operator/( U t ) const { return { _x / t, _y / t, _z / t }; }
 307:/home/tienluong/workspace/atlantis_fw/AsicFwS2/include/matrix.h **** 
 308:/home/tienluong/workspace/atlantis_fw/AsicFwS2/include/matrix.h ****     template < typename U,
 309:/home/tienluong/workspace/atlantis_fw/AsicFwS2/include/matrix.h ****                typename = typename std::enable_if < std::is_integral<T>::value && std::is_integral<
 310:/home/tienluong/workspace/atlantis_fw/AsicFwS2/include/matrix.h ****     Vec3<typename std::common_type<T, U>::type>
 311:/home/tienluong/workspace/atlantis_fw/AsicFwS2/include/matrix.h ****     operator%( U t ) const { return { _x % t, _y % t, _z % t }; }
 312:/home/tienluong/workspace/atlantis_fw/AsicFwS2/include/matrix.h ****     Vec3<bool> operator==( const Vec3 & t ) const { return { _x == t._x, _y == t._y, _z == t._z }; 
 313:/home/tienluong/workspace/atlantis_fw/AsicFwS2/include/matrix.h ****     Vec3<bool> operator!=( const Vec3 & t ) const { return { _x != t._x, _y != t._y, _z != t._z }; 
 314:/home/tienluong/workspace/atlantis_fw/AsicFwS2/include/matrix.h ****     Vec3<bool> operator>=( const Vec3 & t ) const { return { _x >= t._x, _y >= t._y, _z >= t._z }; 
 315:/home/tienluong/workspace/atlantis_fw/AsicFwS2/include/matrix.h ****     Vec3<bool> operator>( const Vec3 & t )  const { return { _x >  t._x, _y >  t._y, _z >  t._z }; 
 316:/home/tienluong/workspace/atlantis_fw/AsicFwS2/include/matrix.h ****     Vec3<bool> operator<=( const Vec3 & t ) const { return { _x <= t._x, _y <= t._y, _z <= t._z }; 
 317:/home/tienluong/workspace/atlantis_fw/AsicFwS2/include/matrix.h ****     Vec3<bool> operator<( const Vec3 & t )  const { return { _x <  t._x, _y <  t._y, _z <  t._z }; 
 318:/home/tienluong/workspace/atlantis_fw/AsicFwS2/include/matrix.h **** 
 319:/home/tienluong/workspace/atlantis_fw/AsicFwS2/include/matrix.h ****     T min() const { return std::min( std::min( _x, _y ), _z ); }
 320:/home/tienluong/workspace/atlantis_fw/AsicFwS2/include/matrix.h ****     T max() const { return std::max( std::max( _x, _y ), _z ); }
 321:/home/tienluong/workspace/atlantis_fw/AsicFwS2/include/matrix.h ****     T sum() const { return _x + _y + _z; }
 322:/home/tienluong/workspace/atlantis_fw/AsicFwS2/include/matrix.h ****     T dot( const Vec3<T> & t ) const { return _x * t.x() + _y * t.y() + _z * t.z(); }
 323:/home/tienluong/workspace/atlantis_fw/AsicFwS2/include/matrix.h **** 
 324:/home/tienluong/workspace/atlantis_fw/AsicFwS2/include/matrix.h ****     // cross product in right-hand side coordinate (i.e. if this=(1,0,0), t=(0,1,0), out=(0,0,1)).
 325:/home/tienluong/workspace/atlantis_fw/AsicFwS2/include/matrix.h ****     Vec3<T> cross( const Vec3<T> & t ) const
 326:/home/tienluong/workspace/atlantis_fw/AsicFwS2/include/matrix.h ****     { return Vec3<T> {_y * t.z() - _z * t.y(), _z * t.x() - _x * t.z(), _x * t.y() - _y * t.x()};}
 327:/home/tienluong/workspace/atlantis_fw/AsicFwS2/include/matrix.h **** 
 328:/home/tienluong/workspace/atlantis_fw/AsicFwS2/include/matrix.h ****     Vec3 abs() const { return { std::abs( _x ), std::abs( _y ), std::abs( _z ) }; }
 329:/home/tienluong/workspace/atlantis_fw/AsicFwS2/include/matrix.h **** 
 330:/home/tienluong/workspace/atlantis_fw/AsicFwS2/include/matrix.h ****     const T & x() const { return _x; }
 331:/home/tienluong/workspace/atlantis_fw/AsicFwS2/include/matrix.h ****     const T & y() const { return _y; }
 332:/home/tienluong/workspace/atlantis_fw/AsicFwS2/include/matrix.h ****     const T & z() const { return _z; }
 333:/home/tienluong/workspace/atlantis_fw/AsicFwS2/include/matrix.h **** 
 334:/home/tienluong/workspace/atlantis_fw/AsicFwS2/include/matrix.h ****     void setX( T x ) { _x = x; }
 335:/home/tienluong/workspace/atlantis_fw/AsicFwS2/include/matrix.h ****     void setY( T y ) { _y = y; }
 336:/home/tienluong/workspace/atlantis_fw/AsicFwS2/include/matrix.h ****     void setZ( T z ) { _z = z; }
 337:/home/tienluong/workspace/atlantis_fw/AsicFwS2/include/matrix.h **** 
 338:/home/tienluong/workspace/atlantis_fw/AsicFwS2/include/matrix.h ****     Vec3 & normalize()
 339:/home/tienluong/workspace/atlantis_fw/AsicFwS2/include/matrix.h ****     {
 340:/home/tienluong/workspace/atlantis_fw/AsicFwS2/include/matrix.h ****         T len = length(*this);
 341:/home/tienluong/workspace/atlantis_fw/AsicFwS2/include/matrix.h ****         _x /= len;
 342:/home/tienluong/workspace/atlantis_fw/AsicFwS2/include/matrix.h ****         _y /= len;
 343:/home/tienluong/workspace/atlantis_fw/AsicFwS2/include/matrix.h ****         _z /= len;
 344:/home/tienluong/workspace/atlantis_fw/AsicFwS2/include/matrix.h ****         return *this;
 345:/home/tienluong/workspace/atlantis_fw/AsicFwS2/include/matrix.h ****     }
 346:/home/tienluong/workspace/atlantis_fw/AsicFwS2/include/matrix.h **** 
 347:/home/tienluong/workspace/atlantis_fw/AsicFwS2/include/matrix.h **** private:
 348:/home/tienluong/workspace/atlantis_fw/AsicFwS2/include/matrix.h ****     T _x, _y, _z;
 349:/home/tienluong/workspace/atlantis_fw/AsicFwS2/include/matrix.h **** };
 350:/home/tienluong/workspace/atlantis_fw/AsicFwS2/include/matrix.h **** 
 351:/home/tienluong/workspace/atlantis_fw/AsicFwS2/include/matrix.h **** // basic math functions
 352:/home/tienluong/workspace/atlantis_fw/AsicFwS2/include/matrix.h **** template<typename T>
 353:/home/tienluong/workspace/atlantis_fw/AsicFwS2/include/matrix.h **** T min( const Vec3<T> & t ) { return t.min(); }
 354:/home/tienluong/workspace/atlantis_fw/AsicFwS2/include/matrix.h **** 
 355:/home/tienluong/workspace/atlantis_fw/AsicFwS2/include/matrix.h **** template<typename T>
 356:/home/tienluong/workspace/atlantis_fw/AsicFwS2/include/matrix.h **** T max( const Vec3<T> & t ) { return t.max(); }
 357:/home/tienluong/workspace/atlantis_fw/AsicFwS2/include/matrix.h **** 
 358:/home/tienluong/workspace/atlantis_fw/AsicFwS2/include/matrix.h **** template<typename T>
 359:/home/tienluong/workspace/atlantis_fw/AsicFwS2/include/matrix.h **** T sum( const Vec3<T> & t ) { return t.sum(); }
 360:/home/tienluong/workspace/atlantis_fw/AsicFwS2/include/matrix.h **** 
 361:/home/tienluong/workspace/atlantis_fw/AsicFwS2/include/matrix.h **** template<typename T>
 362:/home/tienluong/workspace/atlantis_fw/AsicFwS2/include/matrix.h **** T dot( const Vec3<T> & a, const Vec3<T> & b ) { return a.dot( b ); }
 363:/home/tienluong/workspace/atlantis_fw/AsicFwS2/include/matrix.h **** 
 364:/home/tienluong/workspace/atlantis_fw/AsicFwS2/include/matrix.h **** template<typename T>
 365:/home/tienluong/workspace/atlantis_fw/AsicFwS2/include/matrix.h **** Vec3<T> cross( const Vec3<T> & a, const Vec3<T> & b ) { return a.cross( b ); }
 366:/home/tienluong/workspace/atlantis_fw/AsicFwS2/include/matrix.h **** 
 367:/home/tienluong/workspace/atlantis_fw/AsicFwS2/include/matrix.h **** template<typename T>
 368:/home/tienluong/workspace/atlantis_fw/AsicFwS2/include/matrix.h **** Vec3<T> min( const Vec3<T> & a, const Vec3<T> & b )
 369:/home/tienluong/workspace/atlantis_fw/AsicFwS2/include/matrix.h **** { return { std::min( a.x(), b.x() ), std::min( a.y(), b.y() ), std::min( a.z(), b.z() ) }; }
 370:/home/tienluong/workspace/atlantis_fw/AsicFwS2/include/matrix.h **** 
 371:/home/tienluong/workspace/atlantis_fw/AsicFwS2/include/matrix.h **** // template<typename T, typename U>
 372:/home/tienluong/workspace/atlantis_fw/AsicFwS2/include/matrix.h **** // typename std::enable_if<std::is_arithmetic<U>::value, Vec3<T> >::type
 373:/home/tienluong/workspace/atlantis_fw/AsicFwS2/include/matrix.h **** // min( U a, const Vec3<T> & b )
 374:/home/tienluong/workspace/atlantis_fw/AsicFwS2/include/matrix.h **** // { return min( Vec3<T>( a ), b ); }
 375:/home/tienluong/workspace/atlantis_fw/AsicFwS2/include/matrix.h **** 
 376:/home/tienluong/workspace/atlantis_fw/AsicFwS2/include/matrix.h **** // template<typename T, typename U>
 377:/home/tienluong/workspace/atlantis_fw/AsicFwS2/include/matrix.h **** // typename std::enable_if<std::is_arithmetic<U>::value, Vec3<T> >::type
 378:/home/tienluong/workspace/atlantis_fw/AsicFwS2/include/matrix.h **** // min( const Vec3<T> & a, U b )
 379:/home/tienluong/workspace/atlantis_fw/AsicFwS2/include/matrix.h **** // { return min( a, Vec3<T>( b ) ); }
 380:/home/tienluong/workspace/atlantis_fw/AsicFwS2/include/matrix.h **** 
 381:/home/tienluong/workspace/atlantis_fw/AsicFwS2/include/matrix.h **** // template<typename T>
 382:/home/tienluong/workspace/atlantis_fw/AsicFwS2/include/matrix.h **** // Vec3<T> max( const Vec3<T> & a, const Vec3<T> & b )
 383:/home/tienluong/workspace/atlantis_fw/AsicFwS2/include/matrix.h **** // { return { max( a.x(), b.x() ), max( a.y(), b.y() ), max( a.z(), b.z() ) }; }
 384:/home/tienluong/workspace/atlantis_fw/AsicFwS2/include/matrix.h **** 
 385:/home/tienluong/workspace/atlantis_fw/AsicFwS2/include/matrix.h **** // template<typename T, typename U>
 386:/home/tienluong/workspace/atlantis_fw/AsicFwS2/include/matrix.h **** // typename std::enable_if<std::is_arithmetic<U>::value, Vec3<T> >::type
 387:/home/tienluong/workspace/atlantis_fw/AsicFwS2/include/matrix.h **** // max( U a, const Vec3<T> & b )
 388:/home/tienluong/workspace/atlantis_fw/AsicFwS2/include/matrix.h **** // { return max( Vec3<T>( a ), b ); }
 389:/home/tienluong/workspace/atlantis_fw/AsicFwS2/include/matrix.h **** 
 390:/home/tienluong/workspace/atlantis_fw/AsicFwS2/include/matrix.h **** // template<typename T, typename U>
 391:/home/tienluong/workspace/atlantis_fw/AsicFwS2/include/matrix.h **** // typename std::enable_if<std::is_arithmetic<U>::value, Vec3<T> >::type
 392:/home/tienluong/workspace/atlantis_fw/AsicFwS2/include/matrix.h **** // max( const Vec3<T> & a, U b )
 393:/home/tienluong/workspace/atlantis_fw/AsicFwS2/include/matrix.h **** // { return max( a, Vec3<T>( b ) ); }
 394:/home/tienluong/workspace/atlantis_fw/AsicFwS2/include/matrix.h **** 
 395:/home/tienluong/workspace/atlantis_fw/AsicFwS2/include/matrix.h **** // template<typename T>
 396:/home/tienluong/workspace/atlantis_fw/AsicFwS2/include/matrix.h **** // Vec3<T> clamp( const Vec3<T> & t, const Vec3<T> & min_t, const Vec3<T> & max_t )
 397:/home/tienluong/workspace/atlantis_fw/AsicFwS2/include/matrix.h **** // { return min( max( t, min_t ), max_t ); }
 398:/home/tienluong/workspace/atlantis_fw/AsicFwS2/include/matrix.h **** 
 399:/home/tienluong/workspace/atlantis_fw/AsicFwS2/include/matrix.h **** // template<typename T, typename U>
 400:/home/tienluong/workspace/atlantis_fw/AsicFwS2/include/matrix.h **** // typename std::enable_if<std::is_arithmetic<U>::value, Vec3<T> >::type
 401:/home/tienluong/workspace/atlantis_fw/AsicFwS2/include/matrix.h **** // clamp( const Vec3<T> & t, U min_t, const Vec3<T> & max_t )
 402:/home/tienluong/workspace/atlantis_fw/AsicFwS2/include/matrix.h **** // { return clamp( t, Vec3<T>( min_t ), max_t ); }
 403:/home/tienluong/workspace/atlantis_fw/AsicFwS2/include/matrix.h **** 
 404:/home/tienluong/workspace/atlantis_fw/AsicFwS2/include/matrix.h **** // template<typename T, typename U>
 405:/home/tienluong/workspace/atlantis_fw/AsicFwS2/include/matrix.h **** // typename std::enable_if<std::is_arithmetic<U>::value, Vec3<T> >::type
 406:/home/tienluong/workspace/atlantis_fw/AsicFwS2/include/matrix.h **** // clamp( const Vec3<T> & t, const Vec3<T> & min_t, U max_t )
 407:/home/tienluong/workspace/atlantis_fw/AsicFwS2/include/matrix.h **** // { return clamp( t, min_t, Vec3<T>( max_t ) ); }
 408:/home/tienluong/workspace/atlantis_fw/AsicFwS2/include/matrix.h **** 
 409:/home/tienluong/workspace/atlantis_fw/AsicFwS2/include/matrix.h **** // template<typename T, typename U, typename V>
 410:/home/tienluong/workspace/atlantis_fw/AsicFwS2/include/matrix.h **** // typename std::enable_if < std::is_arithmetic<U>::value && std::is_arithmetic<V>::value, Vec3<T> 
 411:/home/tienluong/workspace/atlantis_fw/AsicFwS2/include/matrix.h **** // clamp( const Vec3<T> & t, U min_t, V max_t )
 412:/home/tienluong/workspace/atlantis_fw/AsicFwS2/include/matrix.h **** // { return clamp( t, Vec3<T>( min_t ), Vec3<T>( max_t ) ); }
 413:/home/tienluong/workspace/atlantis_fw/AsicFwS2/include/matrix.h **** 
 414:/home/tienluong/workspace/atlantis_fw/AsicFwS2/include/matrix.h **** template<typename T>
 415:/home/tienluong/workspace/atlantis_fw/AsicFwS2/include/matrix.h **** Vec3<T> abs( const Vec3<T> & t ) { return t.abs(); }
 416:/home/tienluong/workspace/atlantis_fw/AsicFwS2/include/matrix.h **** 
 417:/home/tienluong/workspace/atlantis_fw/AsicFwS2/include/matrix.h **** // template<typename T>
 418:/home/tienluong/workspace/atlantis_fw/AsicFwS2/include/matrix.h **** // Vec3<T> sign( const Vec3<T> & t ) { return t.sign(); }
 419:/home/tienluong/workspace/atlantis_fw/AsicFwS2/include/matrix.h **** 
 420:/home/tienluong/workspace/atlantis_fw/AsicFwS2/include/matrix.h **** template<typename T>
 421:/home/tienluong/workspace/atlantis_fw/AsicFwS2/include/matrix.h **** typename std::enable_if<std::is_floating_point<T>::value, T>::type
 422:/home/tienluong/workspace/atlantis_fw/AsicFwS2/include/matrix.h **** length( const Vec3<T> & a )
 423:/home/tienluong/workspace/atlantis_fw/AsicFwS2/include/matrix.h **** { return std::sqrt( dot( a, a ) ); }
 424:/home/tienluong/workspace/atlantis_fw/AsicFwS2/include/matrix.h **** 
 425:/home/tienluong/workspace/atlantis_fw/AsicFwS2/include/matrix.h **** template<typename T>
 426:/home/tienluong/workspace/atlantis_fw/AsicFwS2/include/matrix.h **** typename std::enable_if<std::is_floating_point<T>::value, Vec3<T> >::type
 427:/home/tienluong/workspace/atlantis_fw/AsicFwS2/include/matrix.h **** sqrt( const Vec3<T> & a )
 428:/home/tienluong/workspace/atlantis_fw/AsicFwS2/include/matrix.h **** { return { std::sqrt( a.x() ), std::sqrt( a.y() ), std::sqrt( a.z() ) }; }
 429:/home/tienluong/workspace/atlantis_fw/AsicFwS2/include/matrix.h **** 
 430:/home/tienluong/workspace/atlantis_fw/AsicFwS2/include/matrix.h **** template<typename T>
 431:/home/tienluong/workspace/atlantis_fw/AsicFwS2/include/matrix.h **** typename std::enable_if<std::is_floating_point<T>::value, T>::type
 432:/home/tienluong/workspace/atlantis_fw/AsicFwS2/include/matrix.h **** squaredSum( const Vec3<T> & a )
 433:/home/tienluong/workspace/atlantis_fw/AsicFwS2/include/matrix.h **** { return dot( a, a ); }
 434:/home/tienluong/workspace/atlantis_fw/AsicFwS2/include/matrix.h **** 
 435:/home/tienluong/workspace/atlantis_fw/AsicFwS2/include/matrix.h **** template<typename T>
 436:/home/tienluong/workspace/atlantis_fw/AsicFwS2/include/matrix.h **** typename std::enable_if<std::is_floating_point<T>::value, Vec3<T> >::type
 437:/home/tienluong/workspace/atlantis_fw/AsicFwS2/include/matrix.h **** normalize( const Vec3<T> & a )
 438:/home/tienluong/workspace/atlantis_fw/AsicFwS2/include/matrix.h **** {
 439:/home/tienluong/workspace/atlantis_fw/AsicFwS2/include/matrix.h ****     return a / length( a );
 440:/home/tienluong/workspace/atlantis_fw/AsicFwS2/include/matrix.h **** }
 441:/home/tienluong/workspace/atlantis_fw/AsicFwS2/include/matrix.h **** 
 442:/home/tienluong/workspace/atlantis_fw/AsicFwS2/include/matrix.h **** // template<typename T>
 443:/home/tienluong/workspace/atlantis_fw/AsicFwS2/include/matrix.h **** // typename std::enable_if<std::is_floating_point<T>::value, Vec3<T> >::type
 444:/home/tienluong/workspace/atlantis_fw/AsicFwS2/include/matrix.h **** // pow( const Vec3<T> & a, const Vec3<T> & b )
 445:/home/tienluong/workspace/atlantis_fw/AsicFwS2/include/matrix.h **** // { return { std::pow( a.x(), b.x() ), std::pow( a.y(), b.y() ), std::pow( a.z(), b.z() ) }; }
 446:/home/tienluong/workspace/atlantis_fw/AsicFwS2/include/matrix.h **** 
 447:/home/tienluong/workspace/atlantis_fw/AsicFwS2/include/matrix.h **** // template<typename T>
 448:/home/tienluong/workspace/atlantis_fw/AsicFwS2/include/matrix.h **** // typename std::enable_if<std::is_floating_point<T>::value, Vec3<T> >::type
 449:/home/tienluong/workspace/atlantis_fw/AsicFwS2/include/matrix.h **** // pow( const Vec3<T> & a, T  b )
 450:/home/tienluong/workspace/atlantis_fw/AsicFwS2/include/matrix.h **** // { return { std::pow( a.x(), b ), std::pow( a.y(), b ), std::pow( a.z(), b ) }; }
 451:/home/tienluong/workspace/atlantis_fw/AsicFwS2/include/matrix.h **** 
 452:/home/tienluong/workspace/atlantis_fw/AsicFwS2/include/matrix.h **** // template<typename T>
 453:/home/tienluong/workspace/atlantis_fw/AsicFwS2/include/matrix.h **** // typename std::enable_if<std::is_floating_point<T>::value, Vec3<T> >::type
 454:/home/tienluong/workspace/atlantis_fw/AsicFwS2/include/matrix.h **** // pow( T a, const Vec3<T> & b )
 455:/home/tienluong/workspace/atlantis_fw/AsicFwS2/include/matrix.h **** // { return { std::pow( a, b.x() ), std::pow( a, b.y() ), std::pow( a, b.z() ) }; }
 456:/home/tienluong/workspace/atlantis_fw/AsicFwS2/include/matrix.h **** 
 457:/home/tienluong/workspace/atlantis_fw/AsicFwS2/include/matrix.h **** // template<typename T>
 458:/home/tienluong/workspace/atlantis_fw/AsicFwS2/include/matrix.h **** // typename std::enable_if<std::is_floating_point<T>::value, Vec3<T> >::type
 459:/home/tienluong/workspace/atlantis_fw/AsicFwS2/include/matrix.h **** // floor( const Vec3<T> & a )
 460:/home/tienluong/workspace/atlantis_fw/AsicFwS2/include/matrix.h **** // { return { std::floor( a.x() ), std::floor( a.y() ), std::floor( a.z() ) }; }
 461:/home/tienluong/workspace/atlantis_fw/AsicFwS2/include/matrix.h **** 
 462:/home/tienluong/workspace/atlantis_fw/AsicFwS2/include/matrix.h **** // template<typename T>
 463:/home/tienluong/workspace/atlantis_fw/AsicFwS2/include/matrix.h **** // typename std::enable_if<std::is_floating_point<T>::value, Vec3<T> >::type
 464:/home/tienluong/workspace/atlantis_fw/AsicFwS2/include/matrix.h **** // ceil( const Vec3<T> & a )
 465:/home/tienluong/workspace/atlantis_fw/AsicFwS2/include/matrix.h **** // { return { std::ceil( a.x() ), std::ceil( a.y() ), std::ceil( a.z() ) }; }
 466:/home/tienluong/workspace/atlantis_fw/AsicFwS2/include/matrix.h **** 
 467:/home/tienluong/workspace/atlantis_fw/AsicFwS2/include/matrix.h **** 
 468:/home/tienluong/workspace/atlantis_fw/AsicFwS2/include/matrix.h **** // -----------------------------------------------------------
 469:/home/tienluong/workspace/atlantis_fw/AsicFwS2/include/matrix.h **** // 			Vec4 class
 470:/home/tienluong/workspace/atlantis_fw/AsicFwS2/include/matrix.h **** // -----------------------------------------------------------
 471:/home/tienluong/workspace/atlantis_fw/AsicFwS2/include/matrix.h **** template<typename T>
 472:/home/tienluong/workspace/atlantis_fw/AsicFwS2/include/matrix.h **** class Vec4
 473:/home/tienluong/workspace/atlantis_fw/AsicFwS2/include/matrix.h **** {
 474:/home/tienluong/workspace/atlantis_fw/AsicFwS2/include/matrix.h **** public:
 475:/home/tienluong/workspace/atlantis_fw/AsicFwS2/include/matrix.h ****     Vec4() {}
 476:/home/tienluong/workspace/atlantis_fw/AsicFwS2/include/matrix.h ****     Vec4( T t ) : _x( t ), _y( t ), _z( t ), _a( t ) {}
 477:/home/tienluong/workspace/atlantis_fw/AsicFwS2/include/matrix.h ****     Vec4( T x, T y, T z, T a ) : _x( x ), _y( y ), _z( z ), _a ( a ){}
 478:/home/tienluong/workspace/atlantis_fw/AsicFwS2/include/matrix.h ****     Vec4( const Vec4 & t ) : _x( t._x ), _y( t._y ), _z( t._z ), _a( t._a ) {}
 479:/home/tienluong/workspace/atlantis_fw/AsicFwS2/include/matrix.h **** 
 480:/home/tienluong/workspace/atlantis_fw/AsicFwS2/include/matrix.h ****     template<typename U>
 481:/home/tienluong/workspace/atlantis_fw/AsicFwS2/include/matrix.h ****     explicit Vec4( const Vec4<U> & t )
 482:/home/tienluong/workspace/atlantis_fw/AsicFwS2/include/matrix.h ****         : _x( static_cast<T>( t.x() ) )
 483:/home/tienluong/workspace/atlantis_fw/AsicFwS2/include/matrix.h ****         , _y( static_cast<T>( t.y() ) )
 484:/home/tienluong/workspace/atlantis_fw/AsicFwS2/include/matrix.h ****         , _z( static_cast<T>( t.z() ) )
 485:/home/tienluong/workspace/atlantis_fw/AsicFwS2/include/matrix.h ****         , _a( static_cast<T>( t.a() ) ) {}
 486:/home/tienluong/workspace/atlantis_fw/AsicFwS2/include/matrix.h **** 
 487:/home/tienluong/workspace/atlantis_fw/AsicFwS2/include/matrix.h ****     Vec4 & operator=( const Vec4 & t )
 488:/home/tienluong/workspace/atlantis_fw/AsicFwS2/include/matrix.h ****     { _x = t._x; _y = t._y; _z = t._z; _a = t._a; return *this; }
 489:/home/tienluong/workspace/atlantis_fw/AsicFwS2/include/matrix.h **** 
 490:/home/tienluong/workspace/atlantis_fw/AsicFwS2/include/matrix.h ****     Vec4 & operator/=( const Vec4 & t )
 491:/home/tienluong/workspace/atlantis_fw/AsicFwS2/include/matrix.h ****     { _x /= t._x; _y /= t._y; _z /= t._z; _a /= t._a; return *this; }
 492:/home/tienluong/workspace/atlantis_fw/AsicFwS2/include/matrix.h **** 
 493:/home/tienluong/workspace/atlantis_fw/AsicFwS2/include/matrix.h ****     Vec4 & operator%=( const Vec4 & t )
 494:/home/tienluong/workspace/atlantis_fw/AsicFwS2/include/matrix.h ****     { _x %= t._x; _y %= t._y; _z %= t._z; _a %= t._a; return *this; }
 495:/home/tienluong/workspace/atlantis_fw/AsicFwS2/include/matrix.h **** 
 496:/home/tienluong/workspace/atlantis_fw/AsicFwS2/include/matrix.h ****     Vec4 & operator*=( const Vec4 & t )
 497:/home/tienluong/workspace/atlantis_fw/AsicFwS2/include/matrix.h ****     { _x *= t._x; _y *= t._y; _z *= t._z; _a *= t._a; return *this; }
 498:/home/tienluong/workspace/atlantis_fw/AsicFwS2/include/matrix.h **** 
 499:/home/tienluong/workspace/atlantis_fw/AsicFwS2/include/matrix.h ****     Vec4 & operator+=( const Vec4 & t )
 500:/home/tienluong/workspace/atlantis_fw/AsicFwS2/include/matrix.h ****     { _x += t._x; _y += t._y; _z += t._z; _a += t._a; return *this; }
 501:/home/tienluong/workspace/atlantis_fw/AsicFwS2/include/matrix.h **** 
 502:/home/tienluong/workspace/atlantis_fw/AsicFwS2/include/matrix.h ****     Vec4 & operator-=( const Vec4 & t )
 503:/home/tienluong/workspace/atlantis_fw/AsicFwS2/include/matrix.h ****     { _x -= t._x; _y -= t._y; _z -= t._z; _a -= t._a; return *this; }
 504:/home/tienluong/workspace/atlantis_fw/AsicFwS2/include/matrix.h **** 
 505:/home/tienluong/workspace/atlantis_fw/AsicFwS2/include/matrix.h ****     Vec4 operator-() const { return { -_x, -_y, _z, _a}; }
 506:/home/tienluong/workspace/atlantis_fw/AsicFwS2/include/matrix.h **** 
 507:/home/tienluong/workspace/atlantis_fw/AsicFwS2/include/matrix.h ****     Vec4<bool> operator==( const Vec4 & t ) const { return { _x == t._x, _y == t._y, _z == t._z, _a
 508:/home/tienluong/workspace/atlantis_fw/AsicFwS2/include/matrix.h ****     Vec4<bool> operator!=( const Vec4 & t ) const { return { _x != t._x, _y != t._y, _z != t._z, _a
 509:/home/tienluong/workspace/atlantis_fw/AsicFwS2/include/matrix.h ****     Vec4<bool> operator>=( const Vec4 & t ) const { return { _x >= t._x, _y >= t._y, _z >= t._z, _a
 510:/home/tienluong/workspace/atlantis_fw/AsicFwS2/include/matrix.h ****     Vec4<bool> operator>( const  Vec4 & t )  const { return { _x >  t._x, _y >  t._y, _z > t._z, _a
 511:/home/tienluong/workspace/atlantis_fw/AsicFwS2/include/matrix.h ****     Vec4<bool> operator<=( const Vec4 & t ) const { return { _x <= t._x, _y <= t._y, _z <= t._z, _a
 512:/home/tienluong/workspace/atlantis_fw/AsicFwS2/include/matrix.h ****     Vec4<bool> operator<( const  Vec4 & t )  const { return { _x <  t._x, _y <  t._y, _z <  t._z, _
 513:/home/tienluong/workspace/atlantis_fw/AsicFwS2/include/matrix.h **** 
 514:/home/tienluong/workspace/atlantis_fw/AsicFwS2/include/matrix.h ****     T min() const { return std::min( std::min( std::min( _x, _y ), _z ), _a); }
 515:/home/tienluong/workspace/atlantis_fw/AsicFwS2/include/matrix.h ****     T max() const { return std::max( std::max( std::max( _x, _y ), _z ), _a); }
 516:/home/tienluong/workspace/atlantis_fw/AsicFwS2/include/matrix.h ****     T sum() const { return _x + _y + _z + _a; }
 517:/home/tienluong/workspace/atlantis_fw/AsicFwS2/include/matrix.h ****     T dot( const Vec4<T> & t ) const { return _x * t.x() + _y * t.y() + _z * t.z() + _a * t.a(); }
 518:/home/tienluong/workspace/atlantis_fw/AsicFwS2/include/matrix.h **** 
 519:/home/tienluong/workspace/atlantis_fw/AsicFwS2/include/matrix.h ****     Vec4 abs() const { return { std::abs( _x ), std::abs( _y ), std::abs( _z ), std::abs( _a ) }; }
 520:/home/tienluong/workspace/atlantis_fw/AsicFwS2/include/matrix.h **** 
 521:/home/tienluong/workspace/atlantis_fw/AsicFwS2/include/matrix.h ****     const T & x() const { return _x; }
 522:/home/tienluong/workspace/atlantis_fw/AsicFwS2/include/matrix.h ****     const T & y() const { return _y; }
 523:/home/tienluong/workspace/atlantis_fw/AsicFwS2/include/matrix.h ****     const T & z() const { return _z; }
 524:/home/tienluong/workspace/atlantis_fw/AsicFwS2/include/matrix.h ****     const T & a() const { return _a; }
 525:/home/tienluong/workspace/atlantis_fw/AsicFwS2/include/matrix.h **** 
 526:/home/tienluong/workspace/atlantis_fw/AsicFwS2/include/matrix.h ****     void setX( T x ) { _x = x; }
 527:/home/tienluong/workspace/atlantis_fw/AsicFwS2/include/matrix.h ****     void setY( T y ) { _y = y; }
 528:/home/tienluong/workspace/atlantis_fw/AsicFwS2/include/matrix.h ****     void setZ( T z ) { _z = z; }
 529:/home/tienluong/workspace/atlantis_fw/AsicFwS2/include/matrix.h **** 	void setA( T a ) { _a = a; }
 530:/home/tienluong/workspace/atlantis_fw/AsicFwS2/include/matrix.h **** private:
 531:/home/tienluong/workspace/atlantis_fw/AsicFwS2/include/matrix.h ****     T _x, _y, _z, _a;
 532:/home/tienluong/workspace/atlantis_fw/AsicFwS2/include/matrix.h **** };
 533:/home/tienluong/workspace/atlantis_fw/AsicFwS2/include/matrix.h **** 
 534:/home/tienluong/workspace/atlantis_fw/AsicFwS2/include/matrix.h **** 
 535:/home/tienluong/workspace/atlantis_fw/AsicFwS2/include/matrix.h **** using Vec2f = Vec2<float>;
 536:/home/tienluong/workspace/atlantis_fw/AsicFwS2/include/matrix.h **** using Vec2d = Vec2<double>;
 537:/home/tienluong/workspace/atlantis_fw/AsicFwS2/include/matrix.h **** using Vec3u16 = Vec3<std::uint16_t>;
 538:/home/tienluong/workspace/atlantis_fw/AsicFwS2/include/matrix.h **** using Vec3f = Vec3<float>;
 539:/home/tienluong/workspace/atlantis_fw/AsicFwS2/include/matrix.h **** using Vec3d = Vec3<double>;
 540:/home/tienluong/workspace/atlantis_fw/AsicFwS2/include/matrix.h **** using Vec4f = Vec4<float>;
 541:/home/tienluong/workspace/atlantis_fw/AsicFwS2/include/matrix.h **** using Vec4d = Vec4<double>;
 542:/home/tienluong/workspace/atlantis_fw/AsicFwS2/include/matrix.h **** 
 543:/home/tienluong/workspace/atlantis_fw/AsicFwS2/include/matrix.h **** 
 544:/home/tienluong/workspace/atlantis_fw/AsicFwS2/include/matrix.h **** // -----------------------------------------------------------
 545:/home/tienluong/workspace/atlantis_fw/AsicFwS2/include/matrix.h **** // 			Matrix class
 546:/home/tienluong/workspace/atlantis_fw/AsicFwS2/include/matrix.h **** // -----------------------------------------------------------
 547:/home/tienluong/workspace/atlantis_fw/AsicFwS2/include/matrix.h **** namespace Internal
 548:/home/tienluong/workspace/atlantis_fw/AsicFwS2/include/matrix.h **** {
 549:/home/tienluong/workspace/atlantis_fw/AsicFwS2/include/matrix.h **** 
 550:/home/tienluong/workspace/atlantis_fw/AsicFwS2/include/matrix.h **** template<typename T, int R, int C>
 551:/home/tienluong/workspace/atlantis_fw/AsicFwS2/include/matrix.h **** class MatrixStorage
 552:/home/tienluong/workspace/atlantis_fw/AsicFwS2/include/matrix.h **** {
 553:/home/tienluong/workspace/atlantis_fw/AsicFwS2/include/matrix.h **** public:
 554:/home/tienluong/workspace/atlantis_fw/AsicFwS2/include/matrix.h ****     MatrixStorage() {}
 555:/home/tienluong/workspace/atlantis_fw/AsicFwS2/include/matrix.h **** protected:
 556:/home/tienluong/workspace/atlantis_fw/AsicFwS2/include/matrix.h ****     T _data[R * C];
 557:/home/tienluong/workspace/atlantis_fw/AsicFwS2/include/matrix.h **** };
 558:/home/tienluong/workspace/atlantis_fw/AsicFwS2/include/matrix.h **** 
 559:/home/tienluong/workspace/atlantis_fw/AsicFwS2/include/matrix.h **** #if 0
 560:/home/tienluong/workspace/atlantis_fw/AsicFwS2/include/matrix.h **** /// Some Matrix types require aligned storage due to SIMD acceleration
 561:/home/tienluong/workspace/atlantis_fw/AsicFwS2/include/matrix.h **** template<>
 562:/home/tienluong/workspace/atlantis_fw/AsicFwS2/include/matrix.h **** class MatrixStorage<float, 4, 4>
 563:/home/tienluong/workspace/atlantis_fw/AsicFwS2/include/matrix.h **** {
 564:/home/tienluong/workspace/atlantis_fw/AsicFwS2/include/matrix.h **** public:
 565:/home/tienluong/workspace/atlantis_fw/AsicFwS2/include/matrix.h ****     MatrixStorage() {}
 566:/home/tienluong/workspace/atlantis_fw/AsicFwS2/include/matrix.h **** protected:
 567:/home/tienluong/workspace/atlantis_fw/AsicFwS2/include/matrix.h ****     alignas( 16 ) float _data[16];
 568:/home/tienluong/workspace/atlantis_fw/AsicFwS2/include/matrix.h **** };
 569:/home/tienluong/workspace/atlantis_fw/AsicFwS2/include/matrix.h **** #endif
 570:/home/tienluong/workspace/atlantis_fw/AsicFwS2/include/matrix.h **** } // Internal namespace
 571:/home/tienluong/workspace/atlantis_fw/AsicFwS2/include/matrix.h **** 
 572:/home/tienluong/workspace/atlantis_fw/AsicFwS2/include/matrix.h **** template<typename T, int R, int C, bool RowMajor = true>
 573:/home/tienluong/workspace/atlantis_fw/AsicFwS2/include/matrix.h **** class Matrix : public Internal::MatrixStorage<T, R, C>
 574:/home/tienluong/workspace/atlantis_fw/AsicFwS2/include/matrix.h **** {
 575:/home/tienluong/workspace/atlantis_fw/AsicFwS2/include/matrix.h ****     //static_assert( std::is_floating_point<T>::value, "Matrix template class requires floating poi
 576:/home/tienluong/workspace/atlantis_fw/AsicFwS2/include/matrix.h ****     static constexpr int kSize = R * C;
 577:/home/tienluong/workspace/atlantis_fw/AsicFwS2/include/matrix.h **** 
 578:/home/tienluong/workspace/atlantis_fw/AsicFwS2/include/matrix.h ****     static inline constexpr int Idx( int row, int col )
 579:/home/tienluong/workspace/atlantis_fw/AsicFwS2/include/matrix.h ****     {
 580:/home/tienluong/workspace/atlantis_fw/AsicFwS2/include/matrix.h ****         return RowMajor ? row * C + col : col * R + row;
 581:/home/tienluong/workspace/atlantis_fw/AsicFwS2/include/matrix.h ****     }
 582:/home/tienluong/workspace/atlantis_fw/AsicFwS2/include/matrix.h **** 
 583:/home/tienluong/workspace/atlantis_fw/AsicFwS2/include/matrix.h **** public:
 584:/home/tienluong/workspace/atlantis_fw/AsicFwS2/include/matrix.h ****     using ScalarType = T;
 585:/home/tienluong/workspace/atlantis_fw/AsicFwS2/include/matrix.h **** 
 586:/home/tienluong/workspace/atlantis_fw/AsicFwS2/include/matrix.h ****     static constexpr int kRows = R;
 587:/home/tienluong/workspace/atlantis_fw/AsicFwS2/include/matrix.h ****     static constexpr int kCols = C;
 588:/home/tienluong/workspace/atlantis_fw/AsicFwS2/include/matrix.h **** 
 589:/home/tienluong/workspace/atlantis_fw/AsicFwS2/include/matrix.h ****     Matrix() { }
 590:/home/tienluong/workspace/atlantis_fw/AsicFwS2/include/matrix.h **** 
 591:/home/tienluong/workspace/atlantis_fw/AsicFwS2/include/matrix.h ****     Matrix( const Matrix<T, R, C, true> & src ) { *this = src; }
 592:/home/tienluong/workspace/atlantis_fw/AsicFwS2/include/matrix.h **** 
 593:/home/tienluong/workspace/atlantis_fw/AsicFwS2/include/matrix.h ****     Matrix( const Matrix<T, R, C, false> & src ) { *this = src; }
 594:/home/tienluong/workspace/atlantis_fw/AsicFwS2/include/matrix.h **** 
 595:/home/tienluong/workspace/atlantis_fw/AsicFwS2/include/matrix.h ****     /// Input in row-major order.
 596:/home/tienluong/workspace/atlantis_fw/AsicFwS2/include/matrix.h ****     Matrix( std::initializer_list<T> list ) { *this = list; }
 597:/home/tienluong/workspace/atlantis_fw/AsicFwS2/include/matrix.h **** 
 598:/home/tienluong/workspace/atlantis_fw/AsicFwS2/include/matrix.h ****     /// Input in row-major order.
 599:/home/tienluong/workspace/atlantis_fw/AsicFwS2/include/matrix.h ****     explicit Matrix( const std::vector<T> & data ) { *this = data; }
 600:/home/tienluong/workspace/atlantis_fw/AsicFwS2/include/matrix.h **** 
 601:/home/tienluong/workspace/atlantis_fw/AsicFwS2/include/matrix.h ****     /// Input in row-major order.
 602:/home/tienluong/workspace/atlantis_fw/AsicFwS2/include/matrix.h ****     explicit Matrix( const T * ptr )
 603:/home/tienluong/workspace/atlantis_fw/AsicFwS2/include/matrix.h ****     {
 604:/home/tienluong/workspace/atlantis_fw/AsicFwS2/include/matrix.h ****         for( int i = 0; i < R; ++i )
 605:/home/tienluong/workspace/atlantis_fw/AsicFwS2/include/matrix.h ****         {
 606:/home/tienluong/workspace/atlantis_fw/AsicFwS2/include/matrix.h ****             for( int j = 0; j < C; ++j )
 607:/home/tienluong/workspace/atlantis_fw/AsicFwS2/include/matrix.h ****             { this->_data[Idx( i, j )] = ptr[i * C + j]; }
 608:/home/tienluong/workspace/atlantis_fw/AsicFwS2/include/matrix.h ****         }
 609:/home/tienluong/workspace/atlantis_fw/AsicFwS2/include/matrix.h ****     }
 610:/home/tienluong/workspace/atlantis_fw/AsicFwS2/include/matrix.h **** 
 611:/home/tienluong/workspace/atlantis_fw/AsicFwS2/include/matrix.h ****     // generic size/type converting constructor
 612:/home/tienluong/workspace/atlantis_fw/AsicFwS2/include/matrix.h ****     // performs matrix truncation/expansion if necessary
 613:/home/tienluong/workspace/atlantis_fw/AsicFwS2/include/matrix.h ****     template<typename U, int M, int N, bool D>
 614:/home/tienluong/workspace/atlantis_fw/AsicFwS2/include/matrix.h ****     explicit Matrix( const Matrix<U, M, N, D> & src )
 615:/home/tienluong/workspace/atlantis_fw/AsicFwS2/include/matrix.h ****     {
 616:/home/tienluong/workspace/atlantis_fw/AsicFwS2/include/matrix.h ****         constexpr int kMinRow = M < R ? M : R;
 617:/home/tienluong/workspace/atlantis_fw/AsicFwS2/include/matrix.h ****         constexpr int kMinCol = N < C ? N : C;
 618:/home/tienluong/workspace/atlantis_fw/AsicFwS2/include/matrix.h ****         for( int i = 0; i < kMinRow; ++i )
 619:/home/tienluong/workspace/atlantis_fw/AsicFwS2/include/matrix.h ****         {
 620:/home/tienluong/workspace/atlantis_fw/AsicFwS2/include/matrix.h ****             for( int j = 0; j < kMinCol; ++j )
 621:/home/tienluong/workspace/atlantis_fw/AsicFwS2/include/matrix.h ****             { this->_data[Idx( i, j )] = static_cast<T>( src( i, j ) ); }
 622:/home/tienluong/workspace/atlantis_fw/AsicFwS2/include/matrix.h ****             for( int j = kMinCol; j < C; ++j )
 623:/home/tienluong/workspace/atlantis_fw/AsicFwS2/include/matrix.h ****             { this->_data[Idx( i, j )] = i == j ? T{1} : T{0}; }
 624:/home/tienluong/workspace/atlantis_fw/AsicFwS2/include/matrix.h ****         }
 625:/home/tienluong/workspace/atlantis_fw/AsicFwS2/include/matrix.h ****         for( int i = kMinRow; i < R; ++i )
 626:/home/tienluong/workspace/atlantis_fw/AsicFwS2/include/matrix.h ****         {
 627:/home/tienluong/workspace/atlantis_fw/AsicFwS2/include/matrix.h ****             for( int j = 0; j < C; ++j )
 628:/home/tienluong/workspace/atlantis_fw/AsicFwS2/include/matrix.h ****             { this->_data[Idx( i, j )] = i == j ? T{1} : T{0}; }
 629:/home/tienluong/workspace/atlantis_fw/AsicFwS2/include/matrix.h ****         }
 630:/home/tienluong/workspace/atlantis_fw/AsicFwS2/include/matrix.h ****     }
 631:/home/tienluong/workspace/atlantis_fw/AsicFwS2/include/matrix.h **** 
 632:/home/tienluong/workspace/atlantis_fw/AsicFwS2/include/matrix.h ****     template<int M, int N, bool D>
 633:/home/tienluong/workspace/atlantis_fw/AsicFwS2/include/matrix.h ****     Matrix & operator=( const Matrix<T, M, N, D> & src )
 634:/home/tienluong/workspace/atlantis_fw/AsicFwS2/include/matrix.h ****     {
 635:/home/tienluong/workspace/atlantis_fw/AsicFwS2/include/matrix.h ****         static_assert( R == M && C == N, "matrix size mismatch!" );
 636:/home/tienluong/workspace/atlantis_fw/AsicFwS2/include/matrix.h ****         if( RowMajor == D )
 637:/home/tienluong/workspace/atlantis_fw/AsicFwS2/include/matrix.h ****         {
 638:/home/tienluong/workspace/atlantis_fw/AsicFwS2/include/matrix.h ****             // same element ordering, just copy the elements
 639:/home/tienluong/workspace/atlantis_fw/AsicFwS2/include/matrix.h ****             const T * src_ptr = src.data();
 640:/home/tienluong/workspace/atlantis_fw/AsicFwS2/include/matrix.h ****             for( int i = 0; i < kSize; ++i ) { this->_data[i] = src_ptr[i]; }
 641:/home/tienluong/workspace/atlantis_fw/AsicFwS2/include/matrix.h ****         }
 642:/home/tienluong/workspace/atlantis_fw/AsicFwS2/include/matrix.h ****         else
 643:/home/tienluong/workspace/atlantis_fw/AsicFwS2/include/matrix.h ****         {
 644:/home/tienluong/workspace/atlantis_fw/AsicFwS2/include/matrix.h ****             // different element ordering requires a transpose
 645:/home/tienluong/workspace/atlantis_fw/AsicFwS2/include/matrix.h ****             for( int i = 0; i < R; ++i )
 646:/home/tienluong/workspace/atlantis_fw/AsicFwS2/include/matrix.h ****             {
 647:/home/tienluong/workspace/atlantis_fw/AsicFwS2/include/matrix.h ****                 for( int j = 0; j < C; ++j )
 648:/home/tienluong/workspace/atlantis_fw/AsicFwS2/include/matrix.h ****                 { this->_data[Idx( i, j )] = src( i, j ); }
 649:/home/tienluong/workspace/atlantis_fw/AsicFwS2/include/matrix.h ****             }
 650:/home/tienluong/workspace/atlantis_fw/AsicFwS2/include/matrix.h ****         }
 651:/home/tienluong/workspace/atlantis_fw/AsicFwS2/include/matrix.h ****         return *this;
 652:/home/tienluong/workspace/atlantis_fw/AsicFwS2/include/matrix.h ****     }
 653:/home/tienluong/workspace/atlantis_fw/AsicFwS2/include/matrix.h **** 
 654:/home/tienluong/workspace/atlantis_fw/AsicFwS2/include/matrix.h ****     /// Input in row-major order.
 655:/home/tienluong/workspace/atlantis_fw/AsicFwS2/include/matrix.h ****     Matrix & operator=( const std::vector<T> & src )
 656:/home/tienluong/workspace/atlantis_fw/AsicFwS2/include/matrix.h ****     {
 657:/home/tienluong/workspace/atlantis_fw/AsicFwS2/include/matrix.h ****         //if( src.size() != kSize )
 658:/home/tienluong/workspace/atlantis_fw/AsicFwS2/include/matrix.h ****         //{ LT_THROW( "source data and matrix size mismatch!" ); }
 659:/home/tienluong/workspace/atlantis_fw/AsicFwS2/include/matrix.h **** 
 660:/home/tienluong/workspace/atlantis_fw/AsicFwS2/include/matrix.h ****         auto it = src.begin();
 661:/home/tienluong/workspace/atlantis_fw/AsicFwS2/include/matrix.h ****         for( int i = 0; i < R; ++i )
 662:/home/tienluong/workspace/atlantis_fw/AsicFwS2/include/matrix.h ****         {
 663:/home/tienluong/workspace/atlantis_fw/AsicFwS2/include/matrix.h ****             for( int j = 0; j < C; ++j, ++it )
 664:/home/tienluong/workspace/atlantis_fw/AsicFwS2/include/matrix.h ****             { this->_data[Idx( i, j )] = *it; }
 665:/home/tienluong/workspace/atlantis_fw/AsicFwS2/include/matrix.h ****         }
 666:/home/tienluong/workspace/atlantis_fw/AsicFwS2/include/matrix.h **** 
 667:/home/tienluong/workspace/atlantis_fw/AsicFwS2/include/matrix.h ****         return *this;
 668:/home/tienluong/workspace/atlantis_fw/AsicFwS2/include/matrix.h ****     }
 669:/home/tienluong/workspace/atlantis_fw/AsicFwS2/include/matrix.h **** 
 670:/home/tienluong/workspace/atlantis_fw/AsicFwS2/include/matrix.h ****     /// Input in row-major order.
 671:/home/tienluong/workspace/atlantis_fw/AsicFwS2/include/matrix.h ****     Matrix & operator=( const std::initializer_list<T> src )
 672:/home/tienluong/workspace/atlantis_fw/AsicFwS2/include/matrix.h ****     {
 673:/home/tienluong/workspace/atlantis_fw/AsicFwS2/include/matrix.h ****         //if( src.size() != kSize )
 674:/home/tienluong/workspace/atlantis_fw/AsicFwS2/include/matrix.h ****         //{ LT_THROW( "source data and matrix size mismatch!" ); }
 675:/home/tienluong/workspace/atlantis_fw/AsicFwS2/include/matrix.h **** 
 676:/home/tienluong/workspace/atlantis_fw/AsicFwS2/include/matrix.h ****         auto it = src.begin();
 677:/home/tienluong/workspace/atlantis_fw/AsicFwS2/include/matrix.h ****         for( int i = 0; i < R; ++i )
 678:/home/tienluong/workspace/atlantis_fw/AsicFwS2/include/matrix.h ****         {
 679:/home/tienluong/workspace/atlantis_fw/AsicFwS2/include/matrix.h ****             for( int j = 0; j < C; ++j, ++it )
 680:/home/tienluong/workspace/atlantis_fw/AsicFwS2/include/matrix.h ****             { this->_data[Idx( i, j )] = *it; }
 681:/home/tienluong/workspace/atlantis_fw/AsicFwS2/include/matrix.h ****         }
 682:/home/tienluong/workspace/atlantis_fw/AsicFwS2/include/matrix.h **** 
 683:/home/tienluong/workspace/atlantis_fw/AsicFwS2/include/matrix.h ****         return *this;
 684:/home/tienluong/workspace/atlantis_fw/AsicFwS2/include/matrix.h ****     }
 685:/home/tienluong/workspace/atlantis_fw/AsicFwS2/include/matrix.h **** 
 686:/home/tienluong/workspace/atlantis_fw/AsicFwS2/include/matrix.h ****     Matrix & operator=( T scalar )
 687:/home/tienluong/workspace/atlantis_fw/AsicFwS2/include/matrix.h ****     {
 688:/home/tienluong/workspace/atlantis_fw/AsicFwS2/include/matrix.h ****         for( int i = 0; i < kSize; ++i ) { this->_data[i] = scalar; }
 689:/home/tienluong/workspace/atlantis_fw/AsicFwS2/include/matrix.h ****         return *this;
 690:/home/tienluong/workspace/atlantis_fw/AsicFwS2/include/matrix.h ****     }
 691:/home/tienluong/workspace/atlantis_fw/AsicFwS2/include/matrix.h **** 
 692:/home/tienluong/workspace/atlantis_fw/AsicFwS2/include/matrix.h ****     template<typename U, int M, int N, bool D>
 693:/home/tienluong/workspace/atlantis_fw/AsicFwS2/include/matrix.h ****     bool operator==( const Matrix<U, M, N, D> & mat ) const
 694:/home/tienluong/workspace/atlantis_fw/AsicFwS2/include/matrix.h ****     {
 695:/home/tienluong/workspace/atlantis_fw/AsicFwS2/include/matrix.h ****         static_assert( R == M && C == N, "matrix size mismatch!" );
 696:/home/tienluong/workspace/atlantis_fw/AsicFwS2/include/matrix.h ****         for( int i = 0; i < R; ++i )
 697:/home/tienluong/workspace/atlantis_fw/AsicFwS2/include/matrix.h ****         {
 698:/home/tienluong/workspace/atlantis_fw/AsicFwS2/include/matrix.h ****             for( int j = 0; j < C; ++j )
 699:/home/tienluong/workspace/atlantis_fw/AsicFwS2/include/matrix.h ****             { if( this->_data[Idx( i, j )] != mat( i, j ) ) { return false; } }
 700:/home/tienluong/workspace/atlantis_fw/AsicFwS2/include/matrix.h ****         }
 701:/home/tienluong/workspace/atlantis_fw/AsicFwS2/include/matrix.h ****         return true;
 702:/home/tienluong/workspace/atlantis_fw/AsicFwS2/include/matrix.h ****     }
 703:/home/tienluong/workspace/atlantis_fw/AsicFwS2/include/matrix.h **** 
 704:/home/tienluong/workspace/atlantis_fw/AsicFwS2/include/matrix.h ****     template<typename U, int M, int N, bool D>
 705:/home/tienluong/workspace/atlantis_fw/AsicFwS2/include/matrix.h ****     bool operator!=( const Matrix<U, M, N, D> & mat ) const
 706:/home/tienluong/workspace/atlantis_fw/AsicFwS2/include/matrix.h ****     { return !( *this == mat ); }
 707:/home/tienluong/workspace/atlantis_fw/AsicFwS2/include/matrix.h **** 
 708:/home/tienluong/workspace/atlantis_fw/AsicFwS2/include/matrix.h ****     const T * data() const { return this->_data; }
 709:/home/tienluong/workspace/atlantis_fw/AsicFwS2/include/matrix.h ****     T * data() { return this->_data; }
 710:/home/tienluong/workspace/atlantis_fw/AsicFwS2/include/matrix.h **** 
 711:/home/tienluong/workspace/atlantis_fw/AsicFwS2/include/matrix.h ****     T & operator()( int r, int c ) { return this->_data[Idx( r, c )]; }
 712:/home/tienluong/workspace/atlantis_fw/AsicFwS2/include/matrix.h ****     const T & operator()( int r, int c ) const { return this->_data[Idx( r, c )]; }
 713:/home/tienluong/workspace/atlantis_fw/AsicFwS2/include/matrix.h **** 
 714:/home/tienluong/workspace/atlantis_fw/AsicFwS2/include/matrix.h ****     template<int M, int N, bool D>
 715:/home/tienluong/workspace/atlantis_fw/AsicFwS2/include/matrix.h ****     Matrix<T, R, N> operator*( const Matrix<T, M, N, D> & mat ) const
 716:/home/tienluong/workspace/atlantis_fw/AsicFwS2/include/matrix.h ****     {
 717:/home/tienluong/workspace/atlantis_fw/AsicFwS2/include/matrix.h ****         static_assert( C == M, "invalid matrix product!" );
 718:/home/tienluong/workspace/atlantis_fw/AsicFwS2/include/matrix.h ****         Matrix<T, R, N> rval;
 719:/home/tienluong/workspace/atlantis_fw/AsicFwS2/include/matrix.h **** 
 720:/home/tienluong/workspace/atlantis_fw/AsicFwS2/include/matrix.h ****         // XXX: is this code actually more SIMD-friendly than a naive implementation?
 721:/home/tienluong/workspace/atlantis_fw/AsicFwS2/include/matrix.h ****         for( int i = 0; i < R; ++i )
 722:/home/tienluong/workspace/atlantis_fw/AsicFwS2/include/matrix.h ****         {
 723:/home/tienluong/workspace/atlantis_fw/AsicFwS2/include/matrix.h ****             // set 1st row
 724:/home/tienluong/workspace/atlantis_fw/AsicFwS2/include/matrix.h ****             for( int j = 0; j < N; ++j )
 725:/home/tienluong/workspace/atlantis_fw/AsicFwS2/include/matrix.h ****             { rval( i, j ) = this->_data[Idx( i, 0 )] * mat( 0, j ); }
 726:/home/tienluong/workspace/atlantis_fw/AsicFwS2/include/matrix.h ****             // accum n-th row
 727:/home/tienluong/workspace/atlantis_fw/AsicFwS2/include/matrix.h ****             for( int k = 1; k < M; ++k )
 728:/home/tienluong/workspace/atlantis_fw/AsicFwS2/include/matrix.h ****             {
 729:/home/tienluong/workspace/atlantis_fw/AsicFwS2/include/matrix.h ****                 for( int j = 0; j < N; ++j )
 730:/home/tienluong/workspace/atlantis_fw/AsicFwS2/include/matrix.h ****                 { rval( i, j ) += this->_data[Idx( i, k )] * mat( k, j ); }
 731:/home/tienluong/workspace/atlantis_fw/AsicFwS2/include/matrix.h ****             }
 732:/home/tienluong/workspace/atlantis_fw/AsicFwS2/include/matrix.h ****         }
 733:/home/tienluong/workspace/atlantis_fw/AsicFwS2/include/matrix.h ****         return rval;
 734:/home/tienluong/workspace/atlantis_fw/AsicFwS2/include/matrix.h ****     }
 735:/home/tienluong/workspace/atlantis_fw/AsicFwS2/include/matrix.h **** 
 736:/home/tienluong/workspace/atlantis_fw/AsicFwS2/include/matrix.h ****     template<int M, int N, bool D>
 737:/home/tienluong/workspace/atlantis_fw/AsicFwS2/include/matrix.h ****     Matrix & operator *=( const Matrix<T, M, N, D> & mat )
 738:/home/tienluong/workspace/atlantis_fw/AsicFwS2/include/matrix.h ****     {
 739:/home/tienluong/workspace/atlantis_fw/AsicFwS2/include/matrix.h ****         *this = *this * mat;
 740:/home/tienluong/workspace/atlantis_fw/AsicFwS2/include/matrix.h ****         return *this;
 741:/home/tienluong/workspace/atlantis_fw/AsicFwS2/include/matrix.h ****     }
 742:/home/tienluong/workspace/atlantis_fw/AsicFwS2/include/matrix.h **** 
 743:/home/tienluong/workspace/atlantis_fw/AsicFwS2/include/matrix.h ****     template<int M, int N, bool D>
 744:/home/tienluong/workspace/atlantis_fw/AsicFwS2/include/matrix.h ****     Matrix & operator +=( const Matrix<T, M, N, D> & mat )
 745:/home/tienluong/workspace/atlantis_fw/AsicFwS2/include/matrix.h ****     {
 746:/home/tienluong/workspace/atlantis_fw/AsicFwS2/include/matrix.h ****         static_assert( R == M && C == N, "matrix size mismatch!" );
 747:/home/tienluong/workspace/atlantis_fw/AsicFwS2/include/matrix.h ****         for( int i = 0; i < R; ++i )
 748:/home/tienluong/workspace/atlantis_fw/AsicFwS2/include/matrix.h ****         {
 749:/home/tienluong/workspace/atlantis_fw/AsicFwS2/include/matrix.h ****             for( int j = 0; j < C; ++j )
 750:/home/tienluong/workspace/atlantis_fw/AsicFwS2/include/matrix.h ****             { this->_data[Idx( i, j )] += mat( i, j ); }
 751:/home/tienluong/workspace/atlantis_fw/AsicFwS2/include/matrix.h ****         }
 752:/home/tienluong/workspace/atlantis_fw/AsicFwS2/include/matrix.h ****         return *this;
 753:/home/tienluong/workspace/atlantis_fw/AsicFwS2/include/matrix.h ****     }
 754:/home/tienluong/workspace/atlantis_fw/AsicFwS2/include/matrix.h **** 
 755:/home/tienluong/workspace/atlantis_fw/AsicFwS2/include/matrix.h ****     template<int M, int N, bool D>
 756:/home/tienluong/workspace/atlantis_fw/AsicFwS2/include/matrix.h ****     Matrix & operator -=( const Matrix<T, M, N, D> & mat )
 757:/home/tienluong/workspace/atlantis_fw/AsicFwS2/include/matrix.h ****     {
 758:/home/tienluong/workspace/atlantis_fw/AsicFwS2/include/matrix.h ****         static_assert( R == M && C == N, "matrix size mismatch!" );
 759:/home/tienluong/workspace/atlantis_fw/AsicFwS2/include/matrix.h ****         for( int i = 0; i < R; ++i )
 760:/home/tienluong/workspace/atlantis_fw/AsicFwS2/include/matrix.h ****         {
 761:/home/tienluong/workspace/atlantis_fw/AsicFwS2/include/matrix.h ****             for( int j = 0; j < C; ++j )
 762:/home/tienluong/workspace/atlantis_fw/AsicFwS2/include/matrix.h ****             { this->_data[Idx( i, j )] -= mat( i, j ); }
 763:/home/tienluong/workspace/atlantis_fw/AsicFwS2/include/matrix.h ****         }
 764:/home/tienluong/workspace/atlantis_fw/AsicFwS2/include/matrix.h ****         return *this;
 765:/home/tienluong/workspace/atlantis_fw/AsicFwS2/include/matrix.h ****     }
 766:/home/tienluong/workspace/atlantis_fw/AsicFwS2/include/matrix.h **** 
 767:/home/tienluong/workspace/atlantis_fw/AsicFwS2/include/matrix.h ****     Matrix & operator *=( T scalar )
 768:/home/tienluong/workspace/atlantis_fw/AsicFwS2/include/matrix.h ****     {
 769:/home/tienluong/workspace/atlantis_fw/AsicFwS2/include/matrix.h ****         for( int i = 0; i < kSize; ++i ) { this->_data[i] *= scalar; }
 770:/home/tienluong/workspace/atlantis_fw/AsicFwS2/include/matrix.h ****         return *this;
 771:/home/tienluong/workspace/atlantis_fw/AsicFwS2/include/matrix.h ****     }
 772:/home/tienluong/workspace/atlantis_fw/AsicFwS2/include/matrix.h **** 
 773:/home/tienluong/workspace/atlantis_fw/AsicFwS2/include/matrix.h ****     Matrix & operator +=( T scalar )
 774:/home/tienluong/workspace/atlantis_fw/AsicFwS2/include/matrix.h ****     {
 775:/home/tienluong/workspace/atlantis_fw/AsicFwS2/include/matrix.h ****         for( int i = 0; i < kSize; ++i ) { this->_data[i] += scalar; }
 776:/home/tienluong/workspace/atlantis_fw/AsicFwS2/include/matrix.h ****         return *this;
 777:/home/tienluong/workspace/atlantis_fw/AsicFwS2/include/matrix.h ****     }
 778:/home/tienluong/workspace/atlantis_fw/AsicFwS2/include/matrix.h **** 
 779:/home/tienluong/workspace/atlantis_fw/AsicFwS2/include/matrix.h ****     Matrix & operator /=( T scalar )
 780:/home/tienluong/workspace/atlantis_fw/AsicFwS2/include/matrix.h ****     {
 781:/home/tienluong/workspace/atlantis_fw/AsicFwS2/include/matrix.h ****         scalar = 1.0f / scalar;
 782:/home/tienluong/workspace/atlantis_fw/AsicFwS2/include/matrix.h ****         for( int i = 0; i < kSize; ++i ) { this->_data[i] *= scalar; }
 783:/home/tienluong/workspace/atlantis_fw/AsicFwS2/include/matrix.h ****         return *this;
 784:/home/tienluong/workspace/atlantis_fw/AsicFwS2/include/matrix.h ****     }
 785:/home/tienluong/workspace/atlantis_fw/AsicFwS2/include/matrix.h **** 
 786:/home/tienluong/workspace/atlantis_fw/AsicFwS2/include/matrix.h ****     Matrix & operator -=( T scalar )
 787:/home/tienluong/workspace/atlantis_fw/AsicFwS2/include/matrix.h ****     {
 788:/home/tienluong/workspace/atlantis_fw/AsicFwS2/include/matrix.h ****         for( int i = 0; i < kSize; ++i ) { this->_data[i] -= scalar; }
 789:/home/tienluong/workspace/atlantis_fw/AsicFwS2/include/matrix.h ****         return *this;
 790:/home/tienluong/workspace/atlantis_fw/AsicFwS2/include/matrix.h ****     }
 791:/home/tienluong/workspace/atlantis_fw/AsicFwS2/include/matrix.h **** 
 792:/home/tienluong/workspace/atlantis_fw/AsicFwS2/include/matrix.h ****     template<int M, int N, bool D>
 793:/home/tienluong/workspace/atlantis_fw/AsicFwS2/include/matrix.h ****     Matrix operator+( const Matrix<T, M, N, D> & mat ) const
 794:/home/tienluong/workspace/atlantis_fw/AsicFwS2/include/matrix.h ****     { Matrix rval{*this}; rval += mat; return rval; }
 795:/home/tienluong/workspace/atlantis_fw/AsicFwS2/include/matrix.h **** 
 796:/home/tienluong/workspace/atlantis_fw/AsicFwS2/include/matrix.h ****     template<int M, int N, bool D>
 797:/home/tienluong/workspace/atlantis_fw/AsicFwS2/include/matrix.h ****     Matrix operator-( const Matrix<T, M, N, D> & mat ) const
 798:/home/tienluong/workspace/atlantis_fw/AsicFwS2/include/matrix.h ****     { Matrix rval{*this}; rval -= mat; return rval; }
 799:/home/tienluong/workspace/atlantis_fw/AsicFwS2/include/matrix.h **** 
 800:/home/tienluong/workspace/atlantis_fw/AsicFwS2/include/matrix.h ****     Matrix operator*( T scalar ) const
 801:/home/tienluong/workspace/atlantis_fw/AsicFwS2/include/matrix.h ****     { Matrix rval{*this}; rval *= scalar; return rval; }
 802:/home/tienluong/workspace/atlantis_fw/AsicFwS2/include/matrix.h **** 
 803:/home/tienluong/workspace/atlantis_fw/AsicFwS2/include/matrix.h ****     Matrix operator+( T scalar ) const
 804:/home/tienluong/workspace/atlantis_fw/AsicFwS2/include/matrix.h ****     { Matrix rval{*this}; rval += scalar; return rval; }
 805:/home/tienluong/workspace/atlantis_fw/AsicFwS2/include/matrix.h **** 
 806:/home/tienluong/workspace/atlantis_fw/AsicFwS2/include/matrix.h ****     Matrix operator-( T scalar ) const
 807:/home/tienluong/workspace/atlantis_fw/AsicFwS2/include/matrix.h ****     { Matrix rval{*this}; rval -= scalar; return rval; }
 808:/home/tienluong/workspace/atlantis_fw/AsicFwS2/include/matrix.h **** 
 809:/home/tienluong/workspace/atlantis_fw/AsicFwS2/include/matrix.h ****     Matrix operator/( T scalar ) const
 810:/home/tienluong/workspace/atlantis_fw/AsicFwS2/include/matrix.h ****     { Matrix rval{*this}; rval /= scalar; return rval; }
 811:/home/tienluong/workspace/atlantis_fw/AsicFwS2/include/matrix.h **** 
 812:/home/tienluong/workspace/atlantis_fw/AsicFwS2/include/matrix.h ****     Matrix<T, 1, C> row( int i ) const
 813:/home/tienluong/workspace/atlantis_fw/AsicFwS2/include/matrix.h ****     {
 814:/home/tienluong/workspace/atlantis_fw/AsicFwS2/include/matrix.h ****         Matrix<T, 1, C> rval;
 815:/home/tienluong/workspace/atlantis_fw/AsicFwS2/include/matrix.h ****         for( int j = 0; j < C; ++j ) { rval( 0, j ) = this->_data[Idx( i, j )]; }
 816:/home/tienluong/workspace/atlantis_fw/AsicFwS2/include/matrix.h ****         return rval;
 817:/home/tienluong/workspace/atlantis_fw/AsicFwS2/include/matrix.h ****     }
 818:/home/tienluong/workspace/atlantis_fw/AsicFwS2/include/matrix.h **** 
 819:/home/tienluong/workspace/atlantis_fw/AsicFwS2/include/matrix.h ****     Matrix<T, 1, C> column( int i ) const
 820:/home/tienluong/workspace/atlantis_fw/AsicFwS2/include/matrix.h ****     {
 821:/home/tienluong/workspace/atlantis_fw/AsicFwS2/include/matrix.h ****         Matrix<T, R, 1> rval;
 822:/home/tienluong/workspace/atlantis_fw/AsicFwS2/include/matrix.h ****         for( int j = 0; j < R; ++j ) { rval( j, 0 ) = this->_data[Idx( j, i )]; }
 823:/home/tienluong/workspace/atlantis_fw/AsicFwS2/include/matrix.h ****         return rval;
 824:/home/tienluong/workspace/atlantis_fw/AsicFwS2/include/matrix.h ****     }
 825:/home/tienluong/workspace/atlantis_fw/AsicFwS2/include/matrix.h **** 
 826:/home/tienluong/workspace/atlantis_fw/AsicFwS2/include/matrix.h ****     Matrix & swapRow( int i, int j )
 827:/home/tienluong/workspace/atlantis_fw/AsicFwS2/include/matrix.h ****     {
 828:/home/tienluong/workspace/atlantis_fw/AsicFwS2/include/matrix.h ****         using std::swap;
 829:/home/tienluong/workspace/atlantis_fw/AsicFwS2/include/matrix.h ****         for( int k = 0; k < C; ++k )
 830:/home/tienluong/workspace/atlantis_fw/AsicFwS2/include/matrix.h ****         { swap( this->_data[Idx( i, k )], this->_data[Idx( j, k )] ); }
 831:/home/tienluong/workspace/atlantis_fw/AsicFwS2/include/matrix.h ****         return *this;
 832:/home/tienluong/workspace/atlantis_fw/AsicFwS2/include/matrix.h ****     }
 833:/home/tienluong/workspace/atlantis_fw/AsicFwS2/include/matrix.h **** 
 834:/home/tienluong/workspace/atlantis_fw/AsicFwS2/include/matrix.h ****     Matrix & swapColumn( int i, int j )
 835:/home/tienluong/workspace/atlantis_fw/AsicFwS2/include/matrix.h ****     {
 836:/home/tienluong/workspace/atlantis_fw/AsicFwS2/include/matrix.h ****         using std::swap;
 837:/home/tienluong/workspace/atlantis_fw/AsicFwS2/include/matrix.h ****         for( int k = 0; k < R; ++k )
 838:/home/tienluong/workspace/atlantis_fw/AsicFwS2/include/matrix.h ****         { swap( this->_data[Idx( k, i )], this->_data[Idx( k, j )] ); }
 839:/home/tienluong/workspace/atlantis_fw/AsicFwS2/include/matrix.h ****         return *this;
 840:/home/tienluong/workspace/atlantis_fw/AsicFwS2/include/matrix.h ****     }
 841:/home/tienluong/workspace/atlantis_fw/AsicFwS2/include/matrix.h **** 
 842:/home/tienluong/workspace/atlantis_fw/AsicFwS2/include/matrix.h ****     T sum() const
 843:/home/tienluong/workspace/atlantis_fw/AsicFwS2/include/matrix.h ****     {
 844:/home/tienluong/workspace/atlantis_fw/AsicFwS2/include/matrix.h ****         T sum = this->_data[0];
 845:/home/tienluong/workspace/atlantis_fw/AsicFwS2/include/matrix.h ****         for( int j = 1; j < kSize; ++j ) { sum += this->_data[j]; }
 846:/home/tienluong/workspace/atlantis_fw/AsicFwS2/include/matrix.h ****         return sum;
 847:/home/tienluong/workspace/atlantis_fw/AsicFwS2/include/matrix.h ****     }
 848:/home/tienluong/workspace/atlantis_fw/AsicFwS2/include/matrix.h **** 
 849:/home/tienluong/workspace/atlantis_fw/AsicFwS2/include/matrix.h ****     Matrix & setIdentity()
 850:/home/tienluong/workspace/atlantis_fw/AsicFwS2/include/matrix.h ****     {
 851:/home/tienluong/workspace/atlantis_fw/AsicFwS2/include/matrix.h ****         for( int i = 0; i < R; ++i )
 852:/home/tienluong/workspace/atlantis_fw/AsicFwS2/include/matrix.h ****         {
 853:/home/tienluong/workspace/atlantis_fw/AsicFwS2/include/matrix.h ****             for( int j = 0; j < C; ++j )
 854:/home/tienluong/workspace/atlantis_fw/AsicFwS2/include/matrix.h ****             { this->_data[Idx( i, j )] = i == j ? T{1} : T{0}; }
 855:/home/tienluong/workspace/atlantis_fw/AsicFwS2/include/matrix.h ****         }
 856:/home/tienluong/workspace/atlantis_fw/AsicFwS2/include/matrix.h ****         return *this;
 857:/home/tienluong/workspace/atlantis_fw/AsicFwS2/include/matrix.h ****     }
 858:/home/tienluong/workspace/atlantis_fw/AsicFwS2/include/matrix.h **** 
 859:/home/tienluong/workspace/atlantis_fw/AsicFwS2/include/matrix.h ****     const Matrix < T, C, R, !RowMajor > & transpose() const
 860:/home/tienluong/workspace/atlantis_fw/AsicFwS2/include/matrix.h ****     {
 861:/home/tienluong/workspace/atlantis_fw/AsicFwS2/include/matrix.h ****         return *reinterpret_cast < const Matrix < T, C, R, !RowMajor > * >( this );
 862:/home/tienluong/workspace/atlantis_fw/AsicFwS2/include/matrix.h ****     }
 863:/home/tienluong/workspace/atlantis_fw/AsicFwS2/include/matrix.h **** 
 864:/home/tienluong/workspace/atlantis_fw/AsicFwS2/include/matrix.h ****     // friend std::ostream & operator<<( std::ostream & os, const Matrix & m )
 865:/home/tienluong/workspace/atlantis_fw/AsicFwS2/include/matrix.h ****     // {
 866:/home/tienluong/workspace/atlantis_fw/AsicFwS2/include/matrix.h ****     //     std::stringstream sb;
 867:/home/tienluong/workspace/atlantis_fw/AsicFwS2/include/matrix.h ****     //     sb << std::endl << "[ ";
 868:/home/tienluong/workspace/atlantis_fw/AsicFwS2/include/matrix.h ****     //     for( int i = 0; i < R; ++i )
 869:/home/tienluong/workspace/atlantis_fw/AsicFwS2/include/matrix.h ****     //     {
 870:/home/tienluong/workspace/atlantis_fw/AsicFwS2/include/matrix.h ****     //         for( int j = 0; j < C; ++j ) { sb << m( i, j ) << " "; }
 871:/home/tienluong/workspace/atlantis_fw/AsicFwS2/include/matrix.h ****     //         if( i != R - 1 ) { sb << std::endl; }
 872:/home/tienluong/workspace/atlantis_fw/AsicFwS2/include/matrix.h ****     //     }
 873:/home/tienluong/workspace/atlantis_fw/AsicFwS2/include/matrix.h ****     //     sb << "]" << std::endl;
 874:/home/tienluong/workspace/atlantis_fw/AsicFwS2/include/matrix.h ****     //     return os << sb.rdbuf();
 875:/home/tienluong/workspace/atlantis_fw/AsicFwS2/include/matrix.h ****     // }
 876:/home/tienluong/workspace/atlantis_fw/AsicFwS2/include/matrix.h **** 
 877:/home/tienluong/workspace/atlantis_fw/AsicFwS2/include/matrix.h ****     static constexpr bool IsRowMajor() { return RowMajor; }
 878:/home/tienluong/workspace/atlantis_fw/AsicFwS2/include/matrix.h **** 
 879:/home/tienluong/workspace/atlantis_fw/AsicFwS2/include/matrix.h ****     static Matrix Identity()
 880:/home/tienluong/workspace/atlantis_fw/AsicFwS2/include/matrix.h ****     {
 881:/home/tienluong/workspace/atlantis_fw/AsicFwS2/include/matrix.h ****         Matrix rval;
 882:/home/tienluong/workspace/atlantis_fw/AsicFwS2/include/matrix.h ****         return rval.setIdentity();
 883:/home/tienluong/workspace/atlantis_fw/AsicFwS2/include/matrix.h ****     }
 884:/home/tienluong/workspace/atlantis_fw/AsicFwS2/include/matrix.h **** };
 885:/home/tienluong/workspace/atlantis_fw/AsicFwS2/include/matrix.h **** 
 886:/home/tienluong/workspace/atlantis_fw/AsicFwS2/include/matrix.h **** template<typename T, int R, int C, bool D>
 887:/home/tienluong/workspace/atlantis_fw/AsicFwS2/include/matrix.h **** Matrix < T, C, R, !D > transpose( const Matrix<T, R, C, D> & mat )
 888:/home/tienluong/workspace/atlantis_fw/AsicFwS2/include/matrix.h **** {
 889:/home/tienluong/workspace/atlantis_fw/AsicFwS2/include/matrix.h ****     // simply copy the data and flip the matrix ordering
 890:/home/tienluong/workspace/atlantis_fw/AsicFwS2/include/matrix.h ****     Matrix < T, C, R, !D > rval;
 891:/home/tienluong/workspace/atlantis_fw/AsicFwS2/include/matrix.h ****     T * dst = rval.data();
 892:/home/tienluong/workspace/atlantis_fw/AsicFwS2/include/matrix.h ****     const T * src = mat.data();
 893:/home/tienluong/workspace/atlantis_fw/AsicFwS2/include/matrix.h ****     for( int i = 0; i < R * C; ++i ) { dst[i] = src[i]; }
 894:/home/tienluong/workspace/atlantis_fw/AsicFwS2/include/matrix.h ****     return rval;
 895:/home/tienluong/workspace/atlantis_fw/AsicFwS2/include/matrix.h **** }
 896:/home/tienluong/workspace/atlantis_fw/AsicFwS2/include/matrix.h **** 
 897:/home/tienluong/workspace/atlantis_fw/AsicFwS2/include/matrix.h **** template<typename T, int N, bool D>
 898:/home/tienluong/workspace/atlantis_fw/AsicFwS2/include/matrix.h **** Matrix<T, N, N, D> inverse( const Matrix<T, N, N, D> & mat );
 899:/home/tienluong/workspace/atlantis_fw/AsicFwS2/include/matrix.h **** 
 900:/home/tienluong/workspace/atlantis_fw/AsicFwS2/include/matrix.h **** template<typename T, int N, bool D>
 901:/home/tienluong/workspace/atlantis_fw/AsicFwS2/include/matrix.h **** T determinant( const Matrix<T, N, N, D> & mat );
 902:/home/tienluong/workspace/atlantis_fw/AsicFwS2/include/matrix.h **** 
 903:/home/tienluong/workspace/atlantis_fw/AsicFwS2/include/matrix.h **** // scalar-matrix operators
 904:/home/tienluong/workspace/atlantis_fw/AsicFwS2/include/matrix.h **** template<typename T, typename U, int R, int C, bool D>
 905:/home/tienluong/workspace/atlantis_fw/AsicFwS2/include/matrix.h **** typename std::enable_if<std::is_arithmetic<T>::value, Matrix<U, R, C, D> >::type
 906:/home/tienluong/workspace/atlantis_fw/AsicFwS2/include/matrix.h **** operator+( T a, const Matrix<U, R, C, D> & b ) { return b + a; }
 907:/home/tienluong/workspace/atlantis_fw/AsicFwS2/include/matrix.h **** 
 908:/home/tienluong/workspace/atlantis_fw/AsicFwS2/include/matrix.h **** template<typename T, typename U, int R, int C, bool D>
 909:/home/tienluong/workspace/atlantis_fw/AsicFwS2/include/matrix.h **** typename std::enable_if<std::is_arithmetic<T>::value, Matrix<U, R, C, D> >::type
 910:/home/tienluong/workspace/atlantis_fw/AsicFwS2/include/matrix.h **** operator-( T a, const Matrix<U, R, C, D> & b )
 911:/home/tienluong/workspace/atlantis_fw/AsicFwS2/include/matrix.h **** {
 912:/home/tienluong/workspace/atlantis_fw/AsicFwS2/include/matrix.h ****     Matrix<U, R, C, D> rval;
 913:/home/tienluong/workspace/atlantis_fw/AsicFwS2/include/matrix.h ****     for( int i = 0; i < R; ++i )
 914:/home/tienluong/workspace/atlantis_fw/AsicFwS2/include/matrix.h ****     { for( int j = 0; j < C; ++j ) { rval( i, j ) = U( a ) - b( i, j ); } }
 915:/home/tienluong/workspace/atlantis_fw/AsicFwS2/include/matrix.h ****     return rval;
 916:/home/tienluong/workspace/atlantis_fw/AsicFwS2/include/matrix.h **** }
 917:/home/tienluong/workspace/atlantis_fw/AsicFwS2/include/matrix.h **** 
 918:/home/tienluong/workspace/atlantis_fw/AsicFwS2/include/matrix.h **** template<typename T, typename U, int R, int C, bool D>
 919:/home/tienluong/workspace/atlantis_fw/AsicFwS2/include/matrix.h **** typename std::enable_if<std::is_arithmetic<T>::value, Matrix<U, R, C, D> >::type
 920:/home/tienluong/workspace/atlantis_fw/AsicFwS2/include/matrix.h **** operator*( T a, const Matrix<U, R, C, D> & b ) { return b * a; }
 921:/home/tienluong/workspace/atlantis_fw/AsicFwS2/include/matrix.h **** 
 922:/home/tienluong/workspace/atlantis_fw/AsicFwS2/include/matrix.h **** using Matrix2x2f = Matrix<float, 2, 2>;
 923:/home/tienluong/workspace/atlantis_fw/AsicFwS2/include/matrix.h **** using Matrix3x3f = Matrix<float, 3, 3>;
 924:/home/tienluong/workspace/atlantis_fw/AsicFwS2/include/matrix.h **** using Matrix4x4f = Matrix<float, 4, 4>;
 925:/home/tienluong/workspace/atlantis_fw/AsicFwS2/include/matrix.h **** using Matrix2x2d = Matrix<double, 2, 2>;
 926:/home/tienluong/workspace/atlantis_fw/AsicFwS2/include/matrix.h **** using Matrix3x3d = Matrix<double, 3, 3>;
 927:/home/tienluong/workspace/atlantis_fw/AsicFwS2/include/matrix.h **** using Matrix4x4d = Matrix<double, 4, 4>;
 928:/home/tienluong/workspace/atlantis_fw/AsicFwS2/include/matrix.h **** 
 929:/home/tienluong/workspace/atlantis_fw/AsicFwS2/include/matrix.h **** // optimized implementation of matrix-vector operations
 930:/home/tienluong/workspace/atlantis_fw/AsicFwS2/include/matrix.h **** // mind the order of color channels in memory is BGRA, i.e.,
 931:/home/tienluong/workspace/atlantis_fw/AsicFwS2/include/matrix.h **** // blue channel corresponds to the first matrix dimension!
 932:/home/tienluong/workspace/atlantis_fw/AsicFwS2/include/matrix.h **** 
 933:/home/tienluong/workspace/atlantis_fw/AsicFwS2/include/matrix.h **** template<bool D>
 934:/home/tienluong/workspace/atlantis_fw/AsicFwS2/include/matrix.h **** Vec4f operator*( const Matrix<float, 4, 4, D> & mat, const Vec4f & vec )
 935:/home/tienluong/workspace/atlantis_fw/AsicFwS2/include/matrix.h **** {
 936:/home/tienluong/workspace/atlantis_fw/AsicFwS2/include/matrix.h ****     return
 937:/home/tienluong/workspace/atlantis_fw/AsicFwS2/include/matrix.h ****     {
 938:/home/tienluong/workspace/atlantis_fw/AsicFwS2/include/matrix.h ****         mat( 0, 0 ) * vec.x() + mat( 0, 1 ) * vec.y() + mat( 0, 2 ) * vec.z() + mat( 0, 3 ) * vec.a
 939:/home/tienluong/workspace/atlantis_fw/AsicFwS2/include/matrix.h ****         mat( 1, 0 ) * vec.x() + mat( 1, 1 ) * vec.y() + mat( 1, 2 ) * vec.z() + mat( 1, 3 ) * vec.a
 940:/home/tienluong/workspace/atlantis_fw/AsicFwS2/include/matrix.h ****         mat( 2, 0 ) * vec.x() + mat( 2, 1 ) * vec.y() + mat( 2, 2 ) * vec.z() + mat( 2, 3 ) * vec.a
 941:/home/tienluong/workspace/atlantis_fw/AsicFwS2/include/matrix.h ****         mat( 3, 0 ) * vec.x() + mat( 3, 1 ) * vec.y() + mat( 3, 2 ) * vec.z() + mat( 3, 3 ) * vec.a
 942:/home/tienluong/workspace/atlantis_fw/AsicFwS2/include/matrix.h ****     };
 943:/home/tienluong/workspace/atlantis_fw/AsicFwS2/include/matrix.h **** }
 944:/home/tienluong/workspace/atlantis_fw/AsicFwS2/include/matrix.h **** 
 945:/home/tienluong/workspace/atlantis_fw/AsicFwS2/include/matrix.h **** template<bool D>
 946:/home/tienluong/workspace/atlantis_fw/AsicFwS2/include/matrix.h **** Vec4f operator*( const Vec4f & vec, const Matrix<float, 4, 4, D> & mat )
 947:/home/tienluong/workspace/atlantis_fw/AsicFwS2/include/matrix.h **** {
 948:/home/tienluong/workspace/atlantis_fw/AsicFwS2/include/matrix.h ****     return
 949:/home/tienluong/workspace/atlantis_fw/AsicFwS2/include/matrix.h ****     {
 950:/home/tienluong/workspace/atlantis_fw/AsicFwS2/include/matrix.h ****         mat( 0, 0 ) * vec.x() + mat( 1, 0 ) * vec.y() + mat( 2, 0 ) * vec.z() + mat( 3, 0 ) * vec.a
 951:/home/tienluong/workspace/atlantis_fw/AsicFwS2/include/matrix.h ****         mat( 0, 1 ) * vec.x() + mat( 1, 1 ) * vec.y() + mat( 2, 1 ) * vec.z() + mat( 3, 1 ) * vec.a
 952:/home/tienluong/workspace/atlantis_fw/AsicFwS2/include/matrix.h ****         mat( 0, 2 ) * vec.x() + mat( 1, 2 ) * vec.y() + mat( 2, 2 ) * vec.z() + mat( 3, 2 ) * vec.a
 953:/home/tienluong/workspace/atlantis_fw/AsicFwS2/include/matrix.h ****         mat( 0, 3 ) * vec.x() + mat( 1, 3 ) * vec.y() + mat( 2, 3 ) * vec.z() + mat( 3, 3 ) * vec.a
 954:/home/tienluong/workspace/atlantis_fw/AsicFwS2/include/matrix.h ****     };
 955:/home/tienluong/workspace/atlantis_fw/AsicFwS2/include/matrix.h **** }
 956:/home/tienluong/workspace/atlantis_fw/AsicFwS2/include/matrix.h **** 
 957:/home/tienluong/workspace/atlantis_fw/AsicFwS2/include/matrix.h **** // Vec3 left- and right-hand side multiplication operator
 958:/home/tienluong/workspace/atlantis_fw/AsicFwS2/include/matrix.h **** template<typename T, typename U, bool D>
 959:/home/tienluong/workspace/atlantis_fw/AsicFwS2/include/matrix.h **** Vec3<typename std::common_type<T, U>::type> operator*( const Matrix<T, 3, 3, D> & mat, const Vec3<U
 960:/home/tienluong/workspace/atlantis_fw/AsicFwS2/include/matrix.h **** {
 961:/home/tienluong/workspace/atlantis_fw/AsicFwS2/include/matrix.h ****     return
 962:/home/tienluong/workspace/atlantis_fw/AsicFwS2/include/matrix.h ****     {
 963:/home/tienluong/workspace/atlantis_fw/AsicFwS2/include/matrix.h ****         mat( 0, 0 ) * vec.x() + mat( 0, 1 ) * vec.y() + mat( 0, 2 ) * vec.z(),
 964:/home/tienluong/workspace/atlantis_fw/AsicFwS2/include/matrix.h ****         mat( 1, 0 ) * vec.x() + mat( 1, 1 ) * vec.y() + mat( 1, 2 ) * vec.z(),
 965:/home/tienluong/workspace/atlantis_fw/AsicFwS2/include/matrix.h ****         mat( 2, 0 ) * vec.x() + mat( 2, 1 ) * vec.y() + mat( 2, 2 ) * vec.z()
 966:/home/tienluong/workspace/atlantis_fw/AsicFwS2/include/matrix.h ****     };
 967:/home/tienluong/workspace/atlantis_fw/AsicFwS2/include/matrix.h **** }
 968:/home/tienluong/workspace/atlantis_fw/AsicFwS2/include/matrix.h **** 
 969:/home/tienluong/workspace/atlantis_fw/AsicFwS2/include/matrix.h **** template<typename T, typename U, bool D>
 970:/home/tienluong/workspace/atlantis_fw/AsicFwS2/include/matrix.h **** Vec3<typename std::common_type<T, U>::type> operator*( const Vec3<T> & vec, const Matrix<U, 3, 3, D
 971:/home/tienluong/workspace/atlantis_fw/AsicFwS2/include/matrix.h **** {
 972:/home/tienluong/workspace/atlantis_fw/AsicFwS2/include/matrix.h ****     return
 973:/home/tienluong/workspace/atlantis_fw/AsicFwS2/include/matrix.h ****     {
 974:/home/tienluong/workspace/atlantis_fw/AsicFwS2/include/matrix.h ****         mat( 0, 0 ) * vec.x() + mat( 1, 0 ) * vec.y() + mat( 2, 0 ) * vec.z(),
 975:/home/tienluong/workspace/atlantis_fw/AsicFwS2/include/matrix.h ****         mat( 0, 1 ) * vec.x() + mat( 1, 1 ) * vec.y() + mat( 2, 1 ) * vec.z(),
 976:/home/tienluong/workspace/atlantis_fw/AsicFwS2/include/matrix.h ****         mat( 0, 2 ) * vec.x() + mat( 1, 2 ) * vec.y() + mat( 2, 2 ) * vec.z()
 977:/home/tienluong/workspace/atlantis_fw/AsicFwS2/include/matrix.h ****     };
 978:/home/tienluong/workspace/atlantis_fw/AsicFwS2/include/matrix.h **** }
 979:/home/tienluong/workspace/atlantis_fw/AsicFwS2/include/matrix.h **** 
 980:/home/tienluong/workspace/atlantis_fw/AsicFwS2/include/matrix.h **** 
 981:/home/tienluong/workspace/atlantis_fw/AsicFwS2/include/matrix.h **** // mat3x3 and vec2 special multiplication operation used in roitransfer
 982:/home/tienluong/workspace/atlantis_fw/AsicFwS2/include/matrix.h **** /// Return H * p for 2D p, p is made homogeneous, division in the end.
 983:/home/tienluong/workspace/atlantis_fw/AsicFwS2/include/matrix.h **** template<typename T, typename U, bool D>
 984:/home/tienluong/workspace/atlantis_fw/AsicFwS2/include/matrix.h **** Vec2<typename std::common_type<T, U>::type> operator*( const Matrix<T, 3, 3, D> & h, const Vec2<U> 
 985:/home/tienluong/workspace/atlantis_fw/AsicFwS2/include/matrix.h **** {
 986:/home/tienluong/workspace/atlantis_fw/AsicFwS2/include/matrix.h ****     T w_inv = T{1} / ( h(2, 0) * p.x() + h(2, 1) * p.y() + h(2, 2) );
 987:/home/tienluong/workspace/atlantis_fw/AsicFwS2/include/matrix.h ****     return  { 
 988:/home/tienluong/workspace/atlantis_fw/AsicFwS2/include/matrix.h ****                 ( h(0, 0) * p.x() + h(0, 1) * p.y() + h(0, 2) ) * w_inv,
 989:/home/tienluong/workspace/atlantis_fw/AsicFwS2/include/matrix.h ****                 ( h(1, 0) * p.x() + h(1, 1) * p.y() + h(1, 2) ) * w_inv
 990:/home/tienluong/workspace/atlantis_fw/AsicFwS2/include/matrix.h ****             };
 991:/home/tienluong/workspace/atlantis_fw/AsicFwS2/include/matrix.h **** }
 992:/home/tienluong/workspace/atlantis_fw/AsicFwS2/include/matrix.h **** 
 993:/home/tienluong/workspace/atlantis_fw/AsicFwS2/include/matrix.h **** 
 994:/home/tienluong/workspace/atlantis_fw/AsicFwS2/include/matrix.h **** 
 995:/home/tienluong/workspace/atlantis_fw/AsicFwS2/include/matrix.h **** // Vec2 multiplication operator
 996:/home/tienluong/workspace/atlantis_fw/AsicFwS2/include/matrix.h **** //right hand
 997:/home/tienluong/workspace/atlantis_fw/AsicFwS2/include/matrix.h **** template<typename T, typename U, bool D>
 998:/home/tienluong/workspace/atlantis_fw/AsicFwS2/include/matrix.h **** Vec2<typename std::common_type<T, U>::type> operator*( const Matrix<T, 2, 2, D> & mat, const Vec2<U
 999:/home/tienluong/workspace/atlantis_fw/AsicFwS2/include/matrix.h **** {
1000:/home/tienluong/workspace/atlantis_fw/AsicFwS2/include/matrix.h ****     return
1001:/home/tienluong/workspace/atlantis_fw/AsicFwS2/include/matrix.h ****     {
1002:/home/tienluong/workspace/atlantis_fw/AsicFwS2/include/matrix.h ****         mat( 0, 0 ) * vec.x() + mat( 0, 1 ) * vec.y(),
1003:/home/tienluong/workspace/atlantis_fw/AsicFwS2/include/matrix.h ****         mat( 1, 0 ) * vec.x() + mat( 1, 1 ) * vec.y()
1004:/home/tienluong/workspace/atlantis_fw/AsicFwS2/include/matrix.h ****     };
1005:/home/tienluong/workspace/atlantis_fw/AsicFwS2/include/matrix.h **** }
1006:/home/tienluong/workspace/atlantis_fw/AsicFwS2/include/matrix.h **** //left hand
1007:/home/tienluong/workspace/atlantis_fw/AsicFwS2/include/matrix.h **** template<typename T, typename U, bool D>
1008:/home/tienluong/workspace/atlantis_fw/AsicFwS2/include/matrix.h **** Vec2<typename std::common_type<T, U>::type> operator*( const Vec2<U> & vec, const Matrix<T, 2, 2, D
1009:/home/tienluong/workspace/atlantis_fw/AsicFwS2/include/matrix.h **** {
1010:/home/tienluong/workspace/atlantis_fw/AsicFwS2/include/matrix.h ****     return
1011:/home/tienluong/workspace/atlantis_fw/AsicFwS2/include/matrix.h ****     {
1012:/home/tienluong/workspace/atlantis_fw/AsicFwS2/include/matrix.h ****         mat( 0, 0 ) * vec.x() + mat( 1, 0 ) * vec.y(),
1013:/home/tienluong/workspace/atlantis_fw/AsicFwS2/include/matrix.h ****         mat( 0, 1 ) * vec.x() + mat( 1, 1 ) * vec.y()
1014:/home/tienluong/workspace/atlantis_fw/AsicFwS2/include/matrix.h ****     };
1015:/home/tienluong/workspace/atlantis_fw/AsicFwS2/include/matrix.h **** }
1016:/home/tienluong/workspace/atlantis_fw/AsicFwS2/include/matrix.h **** 
1017:/home/tienluong/workspace/atlantis_fw/AsicFwS2/include/matrix.h **** // Create a diagonal matrix from a vector
1018:/home/tienluong/workspace/atlantis_fw/AsicFwS2/include/matrix.h **** inline Matrix4x4f diagonal( const Vec4f & vec )
1019:/home/tienluong/workspace/atlantis_fw/AsicFwS2/include/matrix.h **** {
1020:/home/tienluong/workspace/atlantis_fw/AsicFwS2/include/matrix.h ****     return
1021:/home/tienluong/workspace/atlantis_fw/AsicFwS2/include/matrix.h ****     {
1022:/home/tienluong/workspace/atlantis_fw/AsicFwS2/include/matrix.h ****         vec.x(), 0.0f, 0.0f, 0.0f,
1023:/home/tienluong/workspace/atlantis_fw/AsicFwS2/include/matrix.h ****         0.0f, vec.y(), 0.0f, 0.0f,
1024:/home/tienluong/workspace/atlantis_fw/AsicFwS2/include/matrix.h ****         0.0f, 0.0f, vec.z(), 0.0f,
1025:/home/tienluong/workspace/atlantis_fw/AsicFwS2/include/matrix.h ****         0.0f, 0.0f, 0.0f, vec.a()
1026:/home/tienluong/workspace/atlantis_fw/AsicFwS2/include/matrix.h ****     };
1027:/home/tienluong/workspace/atlantis_fw/AsicFwS2/include/matrix.h **** }
1028:/home/tienluong/workspace/atlantis_fw/AsicFwS2/include/matrix.h **** 
1029:/home/tienluong/workspace/atlantis_fw/AsicFwS2/include/matrix.h **** template<typename T>
1030:/home/tienluong/workspace/atlantis_fw/AsicFwS2/include/matrix.h **** Matrix<T, 3, 3> diagonal( const Vec3<T> & vec )
1031:/home/tienluong/workspace/atlantis_fw/AsicFwS2/include/matrix.h **** {
1032:/home/tienluong/workspace/atlantis_fw/AsicFwS2/include/matrix.h ****     return
1033:/home/tienluong/workspace/atlantis_fw/AsicFwS2/include/matrix.h ****     {
1034:/home/tienluong/workspace/atlantis_fw/AsicFwS2/include/matrix.h ****         vec.x(), T{0}, T{0},
1035:/home/tienluong/workspace/atlantis_fw/AsicFwS2/include/matrix.h ****         T{0}, vec.y(), T{0},
1036:/home/tienluong/workspace/atlantis_fw/AsicFwS2/include/matrix.h ****         T{0}, T{0}, vec.z()
1037:/home/tienluong/workspace/atlantis_fw/AsicFwS2/include/matrix.h ****     };
1038:/home/tienluong/workspace/atlantis_fw/AsicFwS2/include/matrix.h **** }
1039:/home/tienluong/workspace/atlantis_fw/AsicFwS2/include/matrix.h **** 
1040:/home/tienluong/workspace/atlantis_fw/AsicFwS2/include/matrix.h **** template<typename T>
1041:/home/tienluong/workspace/atlantis_fw/AsicFwS2/include/matrix.h **** Matrix<T, 2, 2> diagonal( const Vec2<T> & vec )
1042:/home/tienluong/workspace/atlantis_fw/AsicFwS2/include/matrix.h **** {
1043:/home/tienluong/workspace/atlantis_fw/AsicFwS2/include/matrix.h ****     return
1044:/home/tienluong/workspace/atlantis_fw/AsicFwS2/include/matrix.h ****     {
1045:/home/tienluong/workspace/atlantis_fw/AsicFwS2/include/matrix.h ****         vec.x(), T{0},
1046:/home/tienluong/workspace/atlantis_fw/AsicFwS2/include/matrix.h ****         T{0}, vec.y(),
1047:/home/tienluong/workspace/atlantis_fw/AsicFwS2/include/matrix.h ****     };
1048:/home/tienluong/workspace/atlantis_fw/AsicFwS2/include/matrix.h **** }
1049:/home/tienluong/workspace/atlantis_fw/AsicFwS2/include/matrix.h **** 
1050:/home/tienluong/workspace/atlantis_fw/AsicFwS2/include/matrix.h **** // ------------------------------------
1051:/home/tienluong/workspace/atlantis_fw/AsicFwS2/include/matrix.h **** // determinant, inverse, etc
1052:/home/tienluong/workspace/atlantis_fw/AsicFwS2/include/matrix.h **** // ------------------------------------
1053:/home/tienluong/workspace/atlantis_fw/AsicFwS2/include/matrix.h **** 
1054:/home/tienluong/workspace/atlantis_fw/AsicFwS2/include/matrix.h **** template<typename T, int N>
1055:/home/tienluong/workspace/atlantis_fw/AsicFwS2/include/matrix.h **** struct MatrixDeterminant { };
1056:/home/tienluong/workspace/atlantis_fw/AsicFwS2/include/matrix.h **** 
1057:/home/tienluong/workspace/atlantis_fw/AsicFwS2/include/matrix.h **** template<typename T>
1058:/home/tienluong/workspace/atlantis_fw/AsicFwS2/include/matrix.h **** struct MatrixDeterminant<T, 2>
1059:/home/tienluong/workspace/atlantis_fw/AsicFwS2/include/matrix.h **** {
1060:/home/tienluong/workspace/atlantis_fw/AsicFwS2/include/matrix.h ****     T operator()( const T * mat ) const
1061:/home/tienluong/workspace/atlantis_fw/AsicFwS2/include/matrix.h ****     {
1062:/home/tienluong/workspace/atlantis_fw/AsicFwS2/include/matrix.h ****         return mat[0] * mat[3] - mat[1] * mat[2];
1063:/home/tienluong/workspace/atlantis_fw/AsicFwS2/include/matrix.h ****     }
1064:/home/tienluong/workspace/atlantis_fw/AsicFwS2/include/matrix.h **** };
1065:/home/tienluong/workspace/atlantis_fw/AsicFwS2/include/matrix.h **** 
1066:/home/tienluong/workspace/atlantis_fw/AsicFwS2/include/matrix.h **** template<typename T>
1067:/home/tienluong/workspace/atlantis_fw/AsicFwS2/include/matrix.h **** struct MatrixDeterminant<T, 3>
1068:/home/tienluong/workspace/atlantis_fw/AsicFwS2/include/matrix.h **** {
1069:/home/tienluong/workspace/atlantis_fw/AsicFwS2/include/matrix.h ****     T operator()( const T * mat ) const
1070:/home/tienluong/workspace/atlantis_fw/AsicFwS2/include/matrix.h ****     {
1071:/home/tienluong/workspace/atlantis_fw/AsicFwS2/include/matrix.h ****         return + mat[0] * ( mat[4] * mat[8] - mat[7] * mat[5] )
1072:/home/tienluong/workspace/atlantis_fw/AsicFwS2/include/matrix.h ****                - mat[1] * ( mat[3] * mat[8] - mat[5] * mat[6] )
1073:/home/tienluong/workspace/atlantis_fw/AsicFwS2/include/matrix.h ****                + mat[2] * ( mat[3] * mat[7] - mat[4] * mat[6] );
1074:/home/tienluong/workspace/atlantis_fw/AsicFwS2/include/matrix.h ****     }
1075:/home/tienluong/workspace/atlantis_fw/AsicFwS2/include/matrix.h **** };
1076:/home/tienluong/workspace/atlantis_fw/AsicFwS2/include/matrix.h **** 
1077:/home/tienluong/workspace/atlantis_fw/AsicFwS2/include/matrix.h **** template<typename T>
1078:/home/tienluong/workspace/atlantis_fw/AsicFwS2/include/matrix.h **** struct MatrixDeterminant<T, 4>
1079:/home/tienluong/workspace/atlantis_fw/AsicFwS2/include/matrix.h **** {
1080:/home/tienluong/workspace/atlantis_fw/AsicFwS2/include/matrix.h ****     T operator()( const T * mat ) const
1081:/home/tienluong/workspace/atlantis_fw/AsicFwS2/include/matrix.h ****     {
1082:/home/tienluong/workspace/atlantis_fw/AsicFwS2/include/matrix.h ****         T dst[4];
1083:/home/tienluong/workspace/atlantis_fw/AsicFwS2/include/matrix.h ****         T tmp[12];
1084:/home/tienluong/workspace/atlantis_fw/AsicFwS2/include/matrix.h **** 
1085:/home/tienluong/workspace/atlantis_fw/AsicFwS2/include/matrix.h ****         // calculate pairs for first 8 elements (cofactors)
1086:/home/tienluong/workspace/atlantis_fw/AsicFwS2/include/matrix.h ****         tmp[0] = mat[10] * mat[15];
1087:/home/tienluong/workspace/atlantis_fw/AsicFwS2/include/matrix.h ****         tmp[1] = mat[11] * mat[14];
1088:/home/tienluong/workspace/atlantis_fw/AsicFwS2/include/matrix.h ****         tmp[2] = mat[9] * mat[15];
1089:/home/tienluong/workspace/atlantis_fw/AsicFwS2/include/matrix.h ****         tmp[3] = mat[11] * mat[13];
1090:/home/tienluong/workspace/atlantis_fw/AsicFwS2/include/matrix.h ****         tmp[4] = mat[9] * mat[14];
1091:/home/tienluong/workspace/atlantis_fw/AsicFwS2/include/matrix.h ****         tmp[5] = mat[10] * mat[13];
1092:/home/tienluong/workspace/atlantis_fw/AsicFwS2/include/matrix.h ****         tmp[6] = mat[8] * mat[15];
1093:/home/tienluong/workspace/atlantis_fw/AsicFwS2/include/matrix.h ****         tmp[7] = mat[11] * mat[12];
1094:/home/tienluong/workspace/atlantis_fw/AsicFwS2/include/matrix.h ****         tmp[8] = mat[8] * mat[14];
1095:/home/tienluong/workspace/atlantis_fw/AsicFwS2/include/matrix.h ****         tmp[9] = mat[10] * mat[12];
1096:/home/tienluong/workspace/atlantis_fw/AsicFwS2/include/matrix.h ****         tmp[10] = mat[8] * mat[13];
1097:/home/tienluong/workspace/atlantis_fw/AsicFwS2/include/matrix.h ****         tmp[11] = mat[9] * mat[12];
1098:/home/tienluong/workspace/atlantis_fw/AsicFwS2/include/matrix.h **** 
1099:/home/tienluong/workspace/atlantis_fw/AsicFwS2/include/matrix.h ****         // calculate first 8 elements (cofactors)
1100:/home/tienluong/workspace/atlantis_fw/AsicFwS2/include/matrix.h ****         dst[0]  = tmp[0] * mat[5] + tmp[3] * mat[6] + tmp[4]  * mat[7];
1101:/home/tienluong/workspace/atlantis_fw/AsicFwS2/include/matrix.h ****         dst[0] -= tmp[1] * mat[5] + tmp[2] * mat[6] + tmp[5]  * mat[7];
1102:/home/tienluong/workspace/atlantis_fw/AsicFwS2/include/matrix.h ****         dst[1]  = tmp[1] * mat[4] + tmp[6] * mat[6] + tmp[9]  * mat[7];
1103:/home/tienluong/workspace/atlantis_fw/AsicFwS2/include/matrix.h ****         dst[1] -= tmp[0] * mat[4] + tmp[7] * mat[6] + tmp[8]  * mat[7];
1104:/home/tienluong/workspace/atlantis_fw/AsicFwS2/include/matrix.h ****         dst[2]  = tmp[2] * mat[4] + tmp[7] * mat[5] + tmp[10] * mat[7];
1105:/home/tienluong/workspace/atlantis_fw/AsicFwS2/include/matrix.h ****         dst[2] -= tmp[3] * mat[4] + tmp[6] * mat[5] + tmp[11] * mat[7];
1106:/home/tienluong/workspace/atlantis_fw/AsicFwS2/include/matrix.h ****         dst[3]  = tmp[5] * mat[4] + tmp[8] * mat[5] + tmp[11] * mat[6];
1107:/home/tienluong/workspace/atlantis_fw/AsicFwS2/include/matrix.h ****         dst[3] -= tmp[4] * mat[4] + tmp[9] * mat[5] + tmp[10] * mat[6];
1108:/home/tienluong/workspace/atlantis_fw/AsicFwS2/include/matrix.h **** 
1109:/home/tienluong/workspace/atlantis_fw/AsicFwS2/include/matrix.h ****         // calculate determinant
1110:/home/tienluong/workspace/atlantis_fw/AsicFwS2/include/matrix.h ****         return mat[0] * dst[0] + mat[1] * dst[1] + mat[2] * dst[2] + mat[3] * dst[3];
1111:/home/tienluong/workspace/atlantis_fw/AsicFwS2/include/matrix.h ****     }
1112:/home/tienluong/workspace/atlantis_fw/AsicFwS2/include/matrix.h **** };
1113:/home/tienluong/workspace/atlantis_fw/AsicFwS2/include/matrix.h **** 
1114:/home/tienluong/workspace/atlantis_fw/AsicFwS2/include/matrix.h **** 
1115:/home/tienluong/workspace/atlantis_fw/AsicFwS2/include/matrix.h **** template<typename T, int N>
1116:/home/tienluong/workspace/atlantis_fw/AsicFwS2/include/matrix.h **** struct SquareMatrixInverter { };
1117:/home/tienluong/workspace/atlantis_fw/AsicFwS2/include/matrix.h **** 
1118:/home/tienluong/workspace/atlantis_fw/AsicFwS2/include/matrix.h **** template<typename T>
1119:/home/tienluong/workspace/atlantis_fw/AsicFwS2/include/matrix.h **** struct SquareMatrixInverter<T, 2>
1120:/home/tienluong/workspace/atlantis_fw/AsicFwS2/include/matrix.h **** {
1121:/home/tienluong/workspace/atlantis_fw/AsicFwS2/include/matrix.h ****     void run( T * mat ) const
 195              		.loc 2 1121 0
 196              		.cfi_startproc
 197              		@ args = 0, pretend = 0, frame = 16
 198              		@ frame_needed = 0, uses_anonymous_args = 0
 199              	.LVL15:
 200 0000 2DE9FF47 		push	{r0, r1, r2, r3, r4, r5, r6, r7, r8, r9, r10, lr}
 201              	.LCFI3:
 202              		.cfi_def_cfa_offset 48
 203              		.cfi_offset 4, -32
 204              		.cfi_offset 5, -28
 205              		.cfi_offset 6, -24
 206              		.cfi_offset 7, -20
 207              		.cfi_offset 8, -16
 208              		.cfi_offset 9, -12
 209              		.cfi_offset 10, -8
 210              		.cfi_offset 14, -4
 211              	.LBB1203:
1122:/home/tienluong/workspace/atlantis_fw/AsicFwS2/include/matrix.h ****     {
1123:/home/tienluong/workspace/atlantis_fw/AsicFwS2/include/matrix.h ****         const T det = mat[0] * mat[3] - mat[1] * mat[2];
 212              		.loc 2 1123 0
 213 0004 D0F80C90 		ldr	r9, [r0, #12]	@ float
 214              	.LBE1203:
1121:/home/tienluong/workspace/atlantis_fw/AsicFwS2/include/matrix.h ****     {
 215              		.loc 2 1121 0
 216 0008 0546     		mov	r5, r0
 217              	.LBB1206:
 218              		.loc 2 1123 0
 219 000a D0F80080 		ldr	r8, [r0]	@ float
 220 000e 4946     		mov	r1, r9
 221 0010 4768     		ldr	r7, [r0, #4]	@ float
 222 0012 8468     		ldr	r4, [r0, #8]	@ float
 223              	.LVL16:
 224 0014 4046     		mov	r0, r8
 225              	.LVL17:
 226 0016 134E     		ldr	r6, .L17
 227 0018 B047     		blx	r6
 228              	.LVL18:
 229 001a 2146     		mov	r1, r4
1124:/home/tienluong/workspace/atlantis_fw/AsicFwS2/include/matrix.h **** 
1125:/home/tienluong/workspace/atlantis_fw/AsicFwS2/include/matrix.h ****         const T invdet = T{1} / det;
1126:/home/tienluong/workspace/atlantis_fw/AsicFwS2/include/matrix.h **** 
1127:/home/tienluong/workspace/atlantis_fw/AsicFwS2/include/matrix.h ****         T tmp[4];
1128:/home/tienluong/workspace/atlantis_fw/AsicFwS2/include/matrix.h ****         tmp[0] = mat[3];
1129:/home/tienluong/workspace/atlantis_fw/AsicFwS2/include/matrix.h ****         tmp[1] = -mat[1];
1130:/home/tienluong/workspace/atlantis_fw/AsicFwS2/include/matrix.h ****         tmp[2] = -mat[2];
 230              		.loc 2 1130 0
 231 001c 04F10044 		add	r4, r4, #-2147483648
 232              	.LVL19:
1123:/home/tienluong/workspace/atlantis_fw/AsicFwS2/include/matrix.h **** 
 233              		.loc 2 1123 0
 234 0020 8246     		mov	r10, r0
 235 0022 3846     		mov	r0, r7
 236 0024 B047     		blx	r6
 237              	.LVL20:
 238 0026 104B     		ldr	r3, .L17+4
1129:/home/tienluong/workspace/atlantis_fw/AsicFwS2/include/matrix.h ****         tmp[2] = -mat[2];
 239              		.loc 2 1129 0
 240 0028 07F10047 		add	r7, r7, #-2147483648
1123:/home/tienluong/workspace/atlantis_fw/AsicFwS2/include/matrix.h **** 
 241              		.loc 2 1123 0
 242 002c 0146     		mov	r1, r0
 243 002e 5046     		mov	r0, r10
 244 0030 9847     		blx	r3
 245              	.LVL21:
1125:/home/tienluong/workspace/atlantis_fw/AsicFwS2/include/matrix.h **** 
 246              		.loc 2 1125 0
 247 0032 0E4B     		ldr	r3, .L17+8
1123:/home/tienluong/workspace/atlantis_fw/AsicFwS2/include/matrix.h **** 
 248              		.loc 2 1123 0
 249 0034 0146     		mov	r1, r0
1125:/home/tienluong/workspace/atlantis_fw/AsicFwS2/include/matrix.h **** 
 250              		.loc 2 1125 0
 251 0036 4FF07E50 		mov	r0, #1065353216
 252 003a 9847     		blx	r3
 253              	.LVL22:
 254              		.loc 2 1130 0
 255 003c 0294     		str	r4, [sp, #8]	@ float
 256              	.LBB1204:
1131:/home/tienluong/workspace/atlantis_fw/AsicFwS2/include/matrix.h ****         tmp[3] = mat[0];
1132:/home/tienluong/workspace/atlantis_fw/AsicFwS2/include/matrix.h **** 
1133:/home/tienluong/workspace/atlantis_fw/AsicFwS2/include/matrix.h ****         for( int i = 0; i < 4; ++i ) { mat[i] = tmp[i] * invdet; }
 257              		.loc 2 1133 0
 258 003e 0024     		movs	r4, #0
 259              	.LBE1204:
1128:/home/tienluong/workspace/atlantis_fw/AsicFwS2/include/matrix.h ****         tmp[1] = -mat[1];
 260              		.loc 2 1128 0
 261 0040 CDF80090 		str	r9, [sp]	@ float
1129:/home/tienluong/workspace/atlantis_fw/AsicFwS2/include/matrix.h ****         tmp[2] = -mat[2];
 262              		.loc 2 1129 0
 263 0044 0197     		str	r7, [sp, #4]	@ float
1131:/home/tienluong/workspace/atlantis_fw/AsicFwS2/include/matrix.h ****         tmp[3] = mat[0];
 264              		.loc 2 1131 0
 265 0046 CDF80C80 		str	r8, [sp, #12]	@ float
1125:/home/tienluong/workspace/atlantis_fw/AsicFwS2/include/matrix.h **** 
 266              		.loc 2 1125 0
 267 004a 8246     		mov	r10, r0
 268              	.LVL23:
 269              	.L14:
 270              	.LBB1205:
 271              		.loc 2 1133 0
 272 004c 5DF82400 		ldr	r0, [sp, r4, lsl #2]	@ float
 273 0050 5146     		mov	r1, r10
 274 0052 B047     		blx	r6
 275              	.LVL24:
 276 0054 45F82400 		str	r0, [r5, r4, lsl #2]	@ float
 277 0058 0134     		adds	r4, r4, #1
 278              	.LVL25:
 279 005a 042C     		cmp	r4, #4
 280 005c F6D1     		bne	.L14
 281              	.LBE1205:
 282              	.LBE1206:
1134:/home/tienluong/workspace/atlantis_fw/AsicFwS2/include/matrix.h ****     }
 283              		.loc 2 1134 0
 284 005e 04B0     		add	sp, sp, #16
 285              	.LCFI4:
 286              		.cfi_def_cfa_offset 32
 287              		@ sp needed
 288 0060 BDE8F087 		pop	{r4, r5, r6, r7, r8, r9, r10, pc}
 289              	.LVL26:
 290              	.L18:
 291              		.align	2
 292              	.L17:
 293 0064 00000000 		.word	__aeabi_fmul
 294 0068 00000000 		.word	__aeabi_fsub
 295 006c 00000000 		.word	__aeabi_fdiv
 296              		.cfi_endproc
 297              	.LFE3676:
 299              		.section	.text._ZN4ltaf6MatrixIfLi3ELi3ELb1EEaSESt16initializer_listIfE.isra.6,"ax",%progbits
 300              		.align	1
 301              		.thumb
 302              		.thumb_func
 304              	_ZN4ltaf6MatrixIfLi3ELi3ELb1EEaSESt16initializer_listIfE.isra.6:
 305              	.LFB3681:
 671:/home/tienluong/workspace/atlantis_fw/AsicFwS2/include/matrix.h ****     {
 306              		.loc 2 671 0
 307              		.cfi_startproc
 308              		@ args = 0, pretend = 0, frame = 0
 309              		@ frame_needed = 0, uses_anonymous_args = 0
 310              	.LVL27:
 311 0000 0022     		movs	r2, #0
 312 0002 70B5     		push	{r4, r5, r6, lr}
 313              	.LCFI5:
 314              		.cfi_def_cfa_offset 16
 315              		.cfi_offset 4, -16
 316              		.cfi_offset 5, -12
 317              		.cfi_offset 6, -8
 318              		.cfi_offset 14, -4
 319              	.LVL28:
 320              	.L20:
 321 0004 8C18     		adds	r4, r1, r2
 322              	.LVL29:
 671:/home/tienluong/workspace/atlantis_fw/AsicFwS2/include/matrix.h ****     {
 323              		.loc 2 671 0
 324 0006 0023     		movs	r3, #0
 325              	.LVL30:
 326              	.L21:
 327 0008 8518     		adds	r5, r0, r2
 328              	.LBB1207:
 329              	.LBB1208:
 330              	.LBB1209:
 680:/home/tienluong/workspace/atlantis_fw/AsicFwS2/include/matrix.h ****         }
 331              		.loc 2 680 0
 332 000a 54F82360 		ldr	r6, [r4, r3, lsl #2]	@ float
 333 000e 45F82360 		str	r6, [r5, r3, lsl #2]	@ float
 679:/home/tienluong/workspace/atlantis_fw/AsicFwS2/include/matrix.h ****             { this->_data[Idx( i, j )] = *it; }
 334              		.loc 2 679 0
 335 0012 0133     		adds	r3, r3, #1
 336              	.LVL31:
 337 0014 032B     		cmp	r3, #3
 338 0016 F7D1     		bne	.L21
 339              	.LVL32:
 340 0018 0C32     		adds	r2, r2, #12
 341              	.LBE1209:
 677:/home/tienluong/workspace/atlantis_fw/AsicFwS2/include/matrix.h ****         {
 342              		.loc 2 677 0
 343 001a 242A     		cmp	r2, #36
 344 001c F2D1     		bne	.L20
 345              	.LBE1208:
 346              	.LBE1207:
 684:/home/tienluong/workspace/atlantis_fw/AsicFwS2/include/matrix.h **** 
 347              		.loc 2 684 0
 348 001e 70BD     		pop	{r4, r5, r6, pc}
 349              		.cfi_endproc
 350              	.LFE3681:
 352              		.section	.text._ZN4ltaf7inverseIfLi2ELb1EEENS_6MatrixIT_XT0_EXT0_EXT1_EEERKS3_,"axG",%progbits,_ZN
 353              		.align	1
 354              		.weak	_ZN4ltaf7inverseIfLi2ELb1EEENS_6MatrixIT_XT0_EXT0_EXT1_EEERKS3_
 355              		.thumb
 356              		.thumb_func
 358              	_ZN4ltaf7inverseIfLi2ELb1EEENS_6MatrixIT_XT0_EXT0_EXT1_EEERKS3_:
 359              	.LFB3380:
1135:/home/tienluong/workspace/atlantis_fw/AsicFwS2/include/matrix.h **** };
1136:/home/tienluong/workspace/atlantis_fw/AsicFwS2/include/matrix.h **** 
1137:/home/tienluong/workspace/atlantis_fw/AsicFwS2/include/matrix.h **** template<typename T>
1138:/home/tienluong/workspace/atlantis_fw/AsicFwS2/include/matrix.h **** struct SquareMatrixInverter<T, 3>
1139:/home/tienluong/workspace/atlantis_fw/AsicFwS2/include/matrix.h **** {
1140:/home/tienluong/workspace/atlantis_fw/AsicFwS2/include/matrix.h ****     void run( T * mat ) const
1141:/home/tienluong/workspace/atlantis_fw/AsicFwS2/include/matrix.h ****     {
1142:/home/tienluong/workspace/atlantis_fw/AsicFwS2/include/matrix.h ****         const T det = + mat[0] * ( mat[4] * mat[8] - mat[7] * mat[5] )
1143:/home/tienluong/workspace/atlantis_fw/AsicFwS2/include/matrix.h ****                       - mat[1] * ( mat[3] * mat[8] - mat[5] * mat[6] )
1144:/home/tienluong/workspace/atlantis_fw/AsicFwS2/include/matrix.h ****                       + mat[2] * ( mat[3] * mat[7] - mat[4] * mat[6] );
1145:/home/tienluong/workspace/atlantis_fw/AsicFwS2/include/matrix.h **** 
1146:/home/tienluong/workspace/atlantis_fw/AsicFwS2/include/matrix.h ****         const T invdet = T{1} / det;
1147:/home/tienluong/workspace/atlantis_fw/AsicFwS2/include/matrix.h **** 
1148:/home/tienluong/workspace/atlantis_fw/AsicFwS2/include/matrix.h ****         T tmp[9];
1149:/home/tienluong/workspace/atlantis_fw/AsicFwS2/include/matrix.h ****         tmp[0] =  mat[4] * mat[8] - mat[7] * mat[5];
1150:/home/tienluong/workspace/atlantis_fw/AsicFwS2/include/matrix.h ****         tmp[1] = -( mat[1] * mat[8] - mat[2] * mat[7] );
1151:/home/tienluong/workspace/atlantis_fw/AsicFwS2/include/matrix.h ****         tmp[2] =  mat[1] * mat[5] - mat[2] * mat[4];
1152:/home/tienluong/workspace/atlantis_fw/AsicFwS2/include/matrix.h ****         tmp[3] = -( mat[3] * mat[8] - mat[5] * mat[6] );
1153:/home/tienluong/workspace/atlantis_fw/AsicFwS2/include/matrix.h ****         tmp[4] =  mat[0] * mat[8] - mat[2] * mat[6];
1154:/home/tienluong/workspace/atlantis_fw/AsicFwS2/include/matrix.h ****         tmp[5] = -( mat[0] * mat[5] - mat[3] * mat[2] );
1155:/home/tienluong/workspace/atlantis_fw/AsicFwS2/include/matrix.h ****         tmp[6] =  mat[3] * mat[7] - mat[6] * mat[ 4];
1156:/home/tienluong/workspace/atlantis_fw/AsicFwS2/include/matrix.h ****         tmp[7] = -( mat[0] * mat[7] - mat[6] * mat[1] );
1157:/home/tienluong/workspace/atlantis_fw/AsicFwS2/include/matrix.h ****         tmp[8] =  mat[0] * mat[4] - mat[3] * mat[1];
1158:/home/tienluong/workspace/atlantis_fw/AsicFwS2/include/matrix.h **** 
1159:/home/tienluong/workspace/atlantis_fw/AsicFwS2/include/matrix.h ****         for( int i = 0; i < 9; ++i ) { mat[i] = tmp[i] * invdet; }
1160:/home/tienluong/workspace/atlantis_fw/AsicFwS2/include/matrix.h ****     }
1161:/home/tienluong/workspace/atlantis_fw/AsicFwS2/include/matrix.h **** };
1162:/home/tienluong/workspace/atlantis_fw/AsicFwS2/include/matrix.h **** 
1163:/home/tienluong/workspace/atlantis_fw/AsicFwS2/include/matrix.h **** template<typename T>
1164:/home/tienluong/workspace/atlantis_fw/AsicFwS2/include/matrix.h **** struct SquareMatrixInverter<T, 4>
1165:/home/tienluong/workspace/atlantis_fw/AsicFwS2/include/matrix.h **** {
1166:/home/tienluong/workspace/atlantis_fw/AsicFwS2/include/matrix.h ****     void run( T * mat ) const
1167:/home/tienluong/workspace/atlantis_fw/AsicFwS2/include/matrix.h ****     {
1168:/home/tienluong/workspace/atlantis_fw/AsicFwS2/include/matrix.h ****         T dst[16];
1169:/home/tienluong/workspace/atlantis_fw/AsicFwS2/include/matrix.h ****         T tmp[12];
1170:/home/tienluong/workspace/atlantis_fw/AsicFwS2/include/matrix.h **** 
1171:/home/tienluong/workspace/atlantis_fw/AsicFwS2/include/matrix.h ****         // calculate pairs for first 8 elements (cofactors)
1172:/home/tienluong/workspace/atlantis_fw/AsicFwS2/include/matrix.h ****         tmp[0] = mat[10] * mat[15];
1173:/home/tienluong/workspace/atlantis_fw/AsicFwS2/include/matrix.h ****         tmp[1] = mat[11] * mat[14];
1174:/home/tienluong/workspace/atlantis_fw/AsicFwS2/include/matrix.h ****         tmp[2] = mat[9] * mat[15];
1175:/home/tienluong/workspace/atlantis_fw/AsicFwS2/include/matrix.h ****         tmp[3] = mat[11] * mat[13];
1176:/home/tienluong/workspace/atlantis_fw/AsicFwS2/include/matrix.h ****         tmp[4] = mat[9] * mat[14];
1177:/home/tienluong/workspace/atlantis_fw/AsicFwS2/include/matrix.h ****         tmp[5] = mat[10] * mat[13];
1178:/home/tienluong/workspace/atlantis_fw/AsicFwS2/include/matrix.h ****         tmp[6] = mat[8] * mat[15];
1179:/home/tienluong/workspace/atlantis_fw/AsicFwS2/include/matrix.h ****         tmp[7] = mat[11] * mat[12];
1180:/home/tienluong/workspace/atlantis_fw/AsicFwS2/include/matrix.h ****         tmp[8] = mat[8] * mat[14];
1181:/home/tienluong/workspace/atlantis_fw/AsicFwS2/include/matrix.h ****         tmp[9] = mat[10] * mat[12];
1182:/home/tienluong/workspace/atlantis_fw/AsicFwS2/include/matrix.h ****         tmp[10] = mat[8] * mat[13];
1183:/home/tienluong/workspace/atlantis_fw/AsicFwS2/include/matrix.h ****         tmp[11] = mat[9] * mat[12];
1184:/home/tienluong/workspace/atlantis_fw/AsicFwS2/include/matrix.h **** 
1185:/home/tienluong/workspace/atlantis_fw/AsicFwS2/include/matrix.h ****         // calculate first 8 elements (cofactors)
1186:/home/tienluong/workspace/atlantis_fw/AsicFwS2/include/matrix.h ****         dst[0]   = tmp[0] * mat[5] + tmp[3] * mat[6] + tmp[4]  * mat[7];
1187:/home/tienluong/workspace/atlantis_fw/AsicFwS2/include/matrix.h ****         dst[0]  -= tmp[1] * mat[5] + tmp[2] * mat[6] + tmp[5]  * mat[7];
1188:/home/tienluong/workspace/atlantis_fw/AsicFwS2/include/matrix.h ****         dst[4]   = tmp[1] * mat[4] + tmp[6] * mat[6] + tmp[9]  * mat[7];
1189:/home/tienluong/workspace/atlantis_fw/AsicFwS2/include/matrix.h ****         dst[4]  -= tmp[0] * mat[4] + tmp[7] * mat[6] + tmp[8]  * mat[7];
1190:/home/tienluong/workspace/atlantis_fw/AsicFwS2/include/matrix.h ****         dst[8]   = tmp[2] * mat[4] + tmp[7] * mat[5] + tmp[10] * mat[7];
1191:/home/tienluong/workspace/atlantis_fw/AsicFwS2/include/matrix.h ****         dst[8]  -= tmp[3] * mat[4] + tmp[6] * mat[5] + tmp[11] * mat[7];
1192:/home/tienluong/workspace/atlantis_fw/AsicFwS2/include/matrix.h ****         dst[12]  = tmp[5] * mat[4] + tmp[8] * mat[5] + tmp[11] * mat[6];
1193:/home/tienluong/workspace/atlantis_fw/AsicFwS2/include/matrix.h ****         dst[12] -= tmp[4] * mat[4] + tmp[9] * mat[5] + tmp[10] * mat[6];
1194:/home/tienluong/workspace/atlantis_fw/AsicFwS2/include/matrix.h **** 
1195:/home/tienluong/workspace/atlantis_fw/AsicFwS2/include/matrix.h ****         // calculate determinant
1196:/home/tienluong/workspace/atlantis_fw/AsicFwS2/include/matrix.h ****         const T det = mat[0] * dst[0] + mat[1] * dst[4] + mat[2] * dst[8] + mat[3] * dst[12];
1197:/home/tienluong/workspace/atlantis_fw/AsicFwS2/include/matrix.h **** 
1198:/home/tienluong/workspace/atlantis_fw/AsicFwS2/include/matrix.h ****         const T inv_det = T{1} / det;
1199:/home/tienluong/workspace/atlantis_fw/AsicFwS2/include/matrix.h **** 
1200:/home/tienluong/workspace/atlantis_fw/AsicFwS2/include/matrix.h ****         dst[1]   = tmp[1] * mat[1] + tmp[2] * mat[2] + tmp[5]  * mat[3];
1201:/home/tienluong/workspace/atlantis_fw/AsicFwS2/include/matrix.h ****         dst[1]  -= tmp[0] * mat[1] + tmp[3] * mat[2] + tmp[4]  * mat[3];
1202:/home/tienluong/workspace/atlantis_fw/AsicFwS2/include/matrix.h ****         dst[5]   = tmp[0] * mat[0] + tmp[7] * mat[2] + tmp[8]  * mat[3];
1203:/home/tienluong/workspace/atlantis_fw/AsicFwS2/include/matrix.h ****         dst[5]  -= tmp[1] * mat[0] + tmp[6] * mat[2] + tmp[9]  * mat[3];
1204:/home/tienluong/workspace/atlantis_fw/AsicFwS2/include/matrix.h ****         dst[9]   = tmp[3] * mat[0] + tmp[6] * mat[1] + tmp[11] * mat[3];
1205:/home/tienluong/workspace/atlantis_fw/AsicFwS2/include/matrix.h ****         dst[9]  -= tmp[2] * mat[0] + tmp[7] * mat[1] + tmp[10] * mat[3];
1206:/home/tienluong/workspace/atlantis_fw/AsicFwS2/include/matrix.h ****         dst[13]  = tmp[4] * mat[0] + tmp[9] * mat[1] + tmp[10] * mat[2];
1207:/home/tienluong/workspace/atlantis_fw/AsicFwS2/include/matrix.h ****         dst[13] -= tmp[5] * mat[0] + tmp[8] * mat[1] + tmp[11] * mat[2];
1208:/home/tienluong/workspace/atlantis_fw/AsicFwS2/include/matrix.h **** 
1209:/home/tienluong/workspace/atlantis_fw/AsicFwS2/include/matrix.h ****         // calculate pairs for second 8 elements (cofactors)
1210:/home/tienluong/workspace/atlantis_fw/AsicFwS2/include/matrix.h ****         tmp[0] = mat[2] * mat[7];
1211:/home/tienluong/workspace/atlantis_fw/AsicFwS2/include/matrix.h ****         tmp[1] = mat[3] * mat[6];
1212:/home/tienluong/workspace/atlantis_fw/AsicFwS2/include/matrix.h ****         tmp[2] = mat[1] * mat[7];
1213:/home/tienluong/workspace/atlantis_fw/AsicFwS2/include/matrix.h ****         tmp[3] = mat[3] * mat[5];
1214:/home/tienluong/workspace/atlantis_fw/AsicFwS2/include/matrix.h ****         tmp[4] = mat[1] * mat[6];
1215:/home/tienluong/workspace/atlantis_fw/AsicFwS2/include/matrix.h ****         tmp[5] = mat[2] * mat[5];
1216:/home/tienluong/workspace/atlantis_fw/AsicFwS2/include/matrix.h ****         tmp[6] = mat[0] * mat[7];
1217:/home/tienluong/workspace/atlantis_fw/AsicFwS2/include/matrix.h ****         tmp[7] = mat[3] * mat[4];
1218:/home/tienluong/workspace/atlantis_fw/AsicFwS2/include/matrix.h ****         tmp[8] = mat[0] * mat[6];
1219:/home/tienluong/workspace/atlantis_fw/AsicFwS2/include/matrix.h ****         tmp[9] = mat[2] * mat[4];
1220:/home/tienluong/workspace/atlantis_fw/AsicFwS2/include/matrix.h ****         tmp[10] = mat[0] * mat[5];
1221:/home/tienluong/workspace/atlantis_fw/AsicFwS2/include/matrix.h ****         tmp[11] = mat[1] * mat[4];
1222:/home/tienluong/workspace/atlantis_fw/AsicFwS2/include/matrix.h **** 
1223:/home/tienluong/workspace/atlantis_fw/AsicFwS2/include/matrix.h ****         // calculate second 8 elements (cofactors)
1224:/home/tienluong/workspace/atlantis_fw/AsicFwS2/include/matrix.h ****         dst[2]   = tmp[0]  * mat[13] + tmp[3]  * mat[14] + tmp[4]  * mat[15];
1225:/home/tienluong/workspace/atlantis_fw/AsicFwS2/include/matrix.h ****         dst[2]  -= tmp[1]  * mat[13] + tmp[2]  * mat[14] + tmp[5]  * mat[15];
1226:/home/tienluong/workspace/atlantis_fw/AsicFwS2/include/matrix.h ****         dst[3]   = tmp[2]  * mat[10] + tmp[5]  * mat[11] + tmp[1]  * mat[9];
1227:/home/tienluong/workspace/atlantis_fw/AsicFwS2/include/matrix.h ****         dst[3]  -= tmp[4]  * mat[11] + tmp[0]  * mat[9]  + tmp[3]  * mat[10];
1228:/home/tienluong/workspace/atlantis_fw/AsicFwS2/include/matrix.h ****         dst[6]   = tmp[1]  * mat[12] + tmp[6]  * mat[14] + tmp[9]  * mat[15];
1229:/home/tienluong/workspace/atlantis_fw/AsicFwS2/include/matrix.h ****         dst[6]  -= tmp[0]  * mat[12] + tmp[7]  * mat[14] + tmp[8]  * mat[15];
1230:/home/tienluong/workspace/atlantis_fw/AsicFwS2/include/matrix.h ****         dst[7]   = tmp[8]  * mat[11] + tmp[0]  * mat[8]  + tmp[7]  * mat[10];
1231:/home/tienluong/workspace/atlantis_fw/AsicFwS2/include/matrix.h ****         dst[7]  -= tmp[6]  * mat[10] + tmp[9]  * mat[11] + tmp[1]  * mat[8];
1232:/home/tienluong/workspace/atlantis_fw/AsicFwS2/include/matrix.h ****         dst[10]  = tmp[2]  * mat[12] + tmp[7]  * mat[13] + tmp[10] * mat[15];
1233:/home/tienluong/workspace/atlantis_fw/AsicFwS2/include/matrix.h ****         dst[10] -= tmp[3]  * mat[12] + tmp[6]  * mat[13] + tmp[11] * mat[15];
1234:/home/tienluong/workspace/atlantis_fw/AsicFwS2/include/matrix.h ****         dst[11]  = tmp[6]  * mat[9]  + tmp[11] * mat[11] + tmp[3]  * mat[8];
1235:/home/tienluong/workspace/atlantis_fw/AsicFwS2/include/matrix.h ****         dst[11] -= tmp[10] * mat[11] + tmp[2]  * mat[8]  + tmp[7]  * mat[9];
1236:/home/tienluong/workspace/atlantis_fw/AsicFwS2/include/matrix.h ****         dst[14]  = tmp[5]  * mat[12] + tmp[8]  * mat[13] + tmp[11] * mat[14];
1237:/home/tienluong/workspace/atlantis_fw/AsicFwS2/include/matrix.h ****         dst[14] -= tmp[4]  * mat[12] + tmp[9]  * mat[13] + tmp[10] * mat[14];
1238:/home/tienluong/workspace/atlantis_fw/AsicFwS2/include/matrix.h ****         dst[15]  = tmp[10] * mat[10] + tmp[4]  * mat[8]  + tmp[9]  * mat[9];
1239:/home/tienluong/workspace/atlantis_fw/AsicFwS2/include/matrix.h ****         dst[15] -= tmp[8]  * mat[9]  + tmp[11] * mat[10] + tmp[5]  * mat[8];
1240:/home/tienluong/workspace/atlantis_fw/AsicFwS2/include/matrix.h **** 
1241:/home/tienluong/workspace/atlantis_fw/AsicFwS2/include/matrix.h ****         // calculate matrix inverse
1242:/home/tienluong/workspace/atlantis_fw/AsicFwS2/include/matrix.h ****         for( int i = 0; i < 16; i++ ) { mat[i] = dst[i] * inv_det; }
1243:/home/tienluong/workspace/atlantis_fw/AsicFwS2/include/matrix.h ****     }
1244:/home/tienluong/workspace/atlantis_fw/AsicFwS2/include/matrix.h **** };
1245:/home/tienluong/workspace/atlantis_fw/AsicFwS2/include/matrix.h **** 
1246:/home/tienluong/workspace/atlantis_fw/AsicFwS2/include/matrix.h **** template<typename T, int N, bool D>
1247:/home/tienluong/workspace/atlantis_fw/AsicFwS2/include/matrix.h **** Matrix<T, N, N, D> inverse( const Matrix<T, N, N, D> & mat )
 360              		.loc 2 1247 0
 361              		.cfi_startproc
 362              		@ args = 0, pretend = 0, frame = 0
 363              		@ frame_needed = 0, uses_anonymous_args = 0
 364              	.LVL33:
 365 0000 10B5     		push	{r4, lr}
 366              	.LCFI6:
 367              		.cfi_def_cfa_offset 8
 368              		.cfi_offset 4, -8
 369              		.cfi_offset 14, -4
 370              		.loc 2 1247 0
 371 0002 0446     		mov	r4, r0
 372              	.LVL34:
 373              	.LBB1216:
 374              	.LBB1217:
 375              	.LBB1218:
 591:/home/tienluong/workspace/atlantis_fw/AsicFwS2/include/matrix.h **** 
 376              		.loc 2 591 0
 377 0004 0FC9     		ldmia	r1, {r0, r1, r2, r3}
 378              	.LVL35:
 379 0006 84E80F00 		stmia	r4, {r0, r1, r2, r3}
 380              	.LVL36:
 381              	.LBE1218:
 382              	.LBE1217:
1248:/home/tienluong/workspace/atlantis_fw/AsicFwS2/include/matrix.h **** {
1249:/home/tienluong/workspace/atlantis_fw/AsicFwS2/include/matrix.h ****     Matrix<T, N, N, D> rval( mat );
1250:/home/tienluong/workspace/atlantis_fw/AsicFwS2/include/matrix.h ****     SquareMatrixInverter<T, N> inverter;
1251:/home/tienluong/workspace/atlantis_fw/AsicFwS2/include/matrix.h ****     inverter.run( rval.data() );
 383              		.loc 2 1251 0
 384 000a 2046     		mov	r0, r4
 385 000c 014B     		ldr	r3, .L25
 386 000e 9847     		blx	r3
 387              	.LVL37:
 388              	.LBE1216:
1252:/home/tienluong/workspace/atlantis_fw/AsicFwS2/include/matrix.h ****     return rval;
1253:/home/tienluong/workspace/atlantis_fw/AsicFwS2/include/matrix.h **** }
 389              		.loc 2 1253 0
 390 0010 2046     		mov	r0, r4
 391 0012 10BD     		pop	{r4, pc}
 392              	.LVL38:
 393              	.L26:
 394              		.align	2
 395              	.L25:
 396 0014 00000000 		.word	_ZNK4ltaf20SquareMatrixInverterIfLi2EE3runEPf.isra.1
 397              		.cfi_endproc
 398              	.LFE3380:
 400              		.section	.text._ZN4ltaf7inverseIfLi2ELb0EEENS_6MatrixIT_XT0_EXT0_EXT1_EEERKS3_,"axG",%progbits,_ZN
 401              		.align	1
 402              		.weak	_ZN4ltaf7inverseIfLi2ELb0EEENS_6MatrixIT_XT0_EXT0_EXT1_EEERKS3_
 403              		.thumb
 404              		.thumb_func
 406              	_ZN4ltaf7inverseIfLi2ELb0EEENS_6MatrixIT_XT0_EXT0_EXT1_EEERKS3_:
 407              	.LFB3383:
1247:/home/tienluong/workspace/atlantis_fw/AsicFwS2/include/matrix.h **** {
 408              		.loc 2 1247 0
 409              		.cfi_startproc
 410              		@ args = 0, pretend = 0, frame = 0
 411              		@ frame_needed = 0, uses_anonymous_args = 0
 412              	.LVL39:
 413 0000 10B5     		push	{r4, lr}
 414              	.LCFI7:
 415              		.cfi_def_cfa_offset 8
 416              		.cfi_offset 4, -8
 417              		.cfi_offset 14, -4
1247:/home/tienluong/workspace/atlantis_fw/AsicFwS2/include/matrix.h **** {
 418              		.loc 2 1247 0
 419 0002 0446     		mov	r4, r0
 420              	.LVL40:
 421              	.LBB1225:
 422              	.LBB1226:
 423              	.LBB1227:
 593:/home/tienluong/workspace/atlantis_fw/AsicFwS2/include/matrix.h **** 
 424              		.loc 2 593 0
 425 0004 0FC9     		ldmia	r1, {r0, r1, r2, r3}
 426              	.LVL41:
 427 0006 84E80F00 		stmia	r4, {r0, r1, r2, r3}
 428              	.LVL42:
 429              	.LBE1227:
 430              	.LBE1226:
1251:/home/tienluong/workspace/atlantis_fw/AsicFwS2/include/matrix.h ****     return rval;
 431              		.loc 2 1251 0
 432 000a 2046     		mov	r0, r4
 433 000c 014B     		ldr	r3, .L28
 434 000e 9847     		blx	r3
 435              	.LVL43:
 436              	.LBE1225:
 437              		.loc 2 1253 0
 438 0010 2046     		mov	r0, r4
 439 0012 10BD     		pop	{r4, pc}
 440              	.LVL44:
 441              	.L29:
 442              		.align	2
 443              	.L28:
 444 0014 00000000 		.word	_ZNK4ltaf20SquareMatrixInverterIfLi2EE3runEPf.isra.1
 445              		.cfi_endproc
 446              	.LFE3383:
 448              		.section	.text._ZN4ltaf11determinantIfLi2ELb1EEET_RKNS_6MatrixIS1_XT0_EXT0_EXT1_EEE,"axG",%progbit
 449              		.align	1
 450              		.weak	_ZN4ltaf11determinantIfLi2ELb1EEET_RKNS_6MatrixIS1_XT0_EXT0_EXT1_EEE
 451              		.thumb
 452              		.thumb_func
 454              	_ZN4ltaf11determinantIfLi2ELb1EEET_RKNS_6MatrixIS1_XT0_EXT0_EXT1_EEE:
 455              	.LFB3392:
1254:/home/tienluong/workspace/atlantis_fw/AsicFwS2/include/matrix.h **** 
1255:/home/tienluong/workspace/atlantis_fw/AsicFwS2/include/matrix.h **** template<typename T, int N, bool D>
1256:/home/tienluong/workspace/atlantis_fw/AsicFwS2/include/matrix.h **** T determinant( const Matrix<T, N, N, D> & mat )
 456              		.loc 2 1256 0
 457              		.cfi_startproc
 458              		@ args = 0, pretend = 0, frame = 0
 459              		@ frame_needed = 0, uses_anonymous_args = 0
 460              	.LVL45:
 461 0000 70B5     		push	{r4, r5, r6, lr}
 462              	.LCFI8:
 463              		.cfi_def_cfa_offset 16
 464              		.cfi_offset 4, -16
 465              		.cfi_offset 5, -12
 466              		.cfi_offset 6, -8
 467              		.cfi_offset 14, -4
 468              		.loc 2 1256 0
 469 0002 0446     		mov	r4, r0
 470              	.LBB1233:
 471              	.LBB1234:
 472              	.LBB1235:
1062:/home/tienluong/workspace/atlantis_fw/AsicFwS2/include/matrix.h ****     }
 473              		.loc 2 1062 0
 474 0004 064D     		ldr	r5, .L31
 475 0006 0068     		ldr	r0, [r0]	@ float
 476              	.LVL46:
 477 0008 E168     		ldr	r1, [r4, #12]	@ float
 478 000a A847     		blx	r5
 479              	.LVL47:
 480 000c A168     		ldr	r1, [r4, #8]	@ float
 481 000e 0646     		mov	r6, r0
 482 0010 6068     		ldr	r0, [r4, #4]	@ float
 483 0012 A847     		blx	r5
 484              	.LVL48:
 485 0014 034B     		ldr	r3, .L31+4
 486 0016 0146     		mov	r1, r0
 487 0018 3046     		mov	r0, r6
 488 001a 9847     		blx	r3
 489              	.LVL49:
 490              	.LBE1235:
 491              	.LBE1234:
 492              	.LBE1233:
1257:/home/tienluong/workspace/atlantis_fw/AsicFwS2/include/matrix.h **** {
1258:/home/tienluong/workspace/atlantis_fw/AsicFwS2/include/matrix.h ****     MatrixDeterminant<T, N> det;
1259:/home/tienluong/workspace/atlantis_fw/AsicFwS2/include/matrix.h ****     return det( mat.data() );
1260:/home/tienluong/workspace/atlantis_fw/AsicFwS2/include/matrix.h **** }
 493              		.loc 2 1260 0
 494 001c 70BD     		pop	{r4, r5, r6, pc}
 495              	.LVL50:
 496              	.L32:
 497 001e 00BF     		.align	2
 498              	.L31:
 499 0020 00000000 		.word	__aeabi_fmul
 500 0024 00000000 		.word	__aeabi_fsub
 501              		.cfi_endproc
 502              	.LFE3392:
 504              		.section	.text._ZN4ltaf11determinantIfLi2ELb0EEET_RKNS_6MatrixIS1_XT0_EXT0_EXT1_EEE,"axG",%progbit
 505              		.align	1
 506              		.weak	_ZN4ltaf11determinantIfLi2ELb0EEET_RKNS_6MatrixIS1_XT0_EXT0_EXT1_EEE
 507              		.thumb
 508              		.thumb_func
 510              	_ZN4ltaf11determinantIfLi2ELb0EEET_RKNS_6MatrixIS1_XT0_EXT0_EXT1_EEE:
 511              	.LFB3395:
1256:/home/tienluong/workspace/atlantis_fw/AsicFwS2/include/matrix.h **** {
 512              		.loc 2 1256 0
 513              		.cfi_startproc
 514              		@ args = 0, pretend = 0, frame = 0
 515              		@ frame_needed = 0, uses_anonymous_args = 0
 516              	.LVL51:
 517 0000 70B5     		push	{r4, r5, r6, lr}
 518              	.LCFI9:
 519              		.cfi_def_cfa_offset 16
 520              		.cfi_offset 4, -16
 521              		.cfi_offset 5, -12
 522              		.cfi_offset 6, -8
 523              		.cfi_offset 14, -4
1256:/home/tienluong/workspace/atlantis_fw/AsicFwS2/include/matrix.h **** {
 524              		.loc 2 1256 0
 525 0002 0446     		mov	r4, r0
 526              	.LBB1241:
 527              	.LBB1242:
 528              	.LBB1243:
1062:/home/tienluong/workspace/atlantis_fw/AsicFwS2/include/matrix.h ****     }
 529              		.loc 2 1062 0
 530 0004 064D     		ldr	r5, .L34
 531 0006 0068     		ldr	r0, [r0]	@ float
 532              	.LVL52:
 533 0008 E168     		ldr	r1, [r4, #12]	@ float
 534 000a A847     		blx	r5
 535              	.LVL53:
 536 000c A168     		ldr	r1, [r4, #8]	@ float
 537 000e 0646     		mov	r6, r0
 538 0010 6068     		ldr	r0, [r4, #4]	@ float
 539 0012 A847     		blx	r5
 540              	.LVL54:
 541 0014 034B     		ldr	r3, .L34+4
 542 0016 0146     		mov	r1, r0
 543 0018 3046     		mov	r0, r6
 544 001a 9847     		blx	r3
 545              	.LVL55:
 546              	.LBE1243:
 547              	.LBE1242:
 548              	.LBE1241:
 549              		.loc 2 1260 0
 550 001c 70BD     		pop	{r4, r5, r6, pc}
 551              	.LVL56:
 552              	.L35:
 553 001e 00BF     		.align	2
 554              	.L34:
 555 0020 00000000 		.word	__aeabi_fmul
 556 0024 00000000 		.word	__aeabi_fsub
 557              		.cfi_endproc
 558              	.LFE3395:
 560              		.global	__aeabi_dmul
 561              		.global	__aeabi_dsub
 562              		.section	.text._ZN4ltaf11determinantIdLi2ELb1EEET_RKNS_6MatrixIS1_XT0_EXT0_EXT1_EEE,"axG",%progbit
 563              		.align	1
 564              		.weak	_ZN4ltaf11determinantIdLi2ELb1EEET_RKNS_6MatrixIS1_XT0_EXT0_EXT1_EEE
 565              		.thumb
 566              		.thumb_func
 568              	_ZN4ltaf11determinantIdLi2ELb1EEET_RKNS_6MatrixIS1_XT0_EXT0_EXT1_EEE:
 569              	.LFB3398:
1256:/home/tienluong/workspace/atlantis_fw/AsicFwS2/include/matrix.h **** {
 570              		.loc 2 1256 0
 571              		.cfi_startproc
 572              		@ args = 0, pretend = 0, frame = 0
 573              		@ frame_needed = 0, uses_anonymous_args = 0
 574              	.LVL57:
 575 0000 F8B5     		push	{r3, r4, r5, r6, r7, lr}
 576              	.LCFI10:
 577              		.cfi_def_cfa_offset 24
 578              		.cfi_offset 3, -24
 579              		.cfi_offset 4, -20
 580              		.cfi_offset 5, -16
 581              		.cfi_offset 6, -12
 582              		.cfi_offset 7, -8
 583              		.cfi_offset 14, -4
1256:/home/tienluong/workspace/atlantis_fw/AsicFwS2/include/matrix.h **** {
 584              		.loc 2 1256 0
 585 0002 0446     		mov	r4, r0
 586              	.LBB1249:
 587              	.LBB1250:
 588              	.LBB1251:
1062:/home/tienluong/workspace/atlantis_fw/AsicFwS2/include/matrix.h ****     }
 589              		.loc 2 1062 0
 590 0004 094D     		ldr	r5, .L37
 591 0006 D0E90001 		ldrd	r0, [r0]
 592              	.LVL58:
 593 000a D4E90623 		ldrd	r2, [r4, #24]
 594 000e A847     		blx	r5
 595              	.LVL59:
 596 0010 D4E90423 		ldrd	r2, [r4, #16]
 597 0014 0646     		mov	r6, r0
 598 0016 0F46     		mov	r7, r1
 599 0018 D4E90201 		ldrd	r0, [r4, #8]
 600 001c A847     		blx	r5
 601              	.LVL60:
 602 001e 044C     		ldr	r4, .L37+4
 603              	.LVL61:
 604 0020 0246     		mov	r2, r0
 605 0022 0B46     		mov	r3, r1
 606 0024 3046     		mov	r0, r6
 607 0026 3946     		mov	r1, r7
 608 0028 A047     		blx	r4
 609              	.LVL62:
 610              	.LBE1251:
 611              	.LBE1250:
 612              	.LBE1249:
 613              		.loc 2 1260 0
 614 002a F8BD     		pop	{r3, r4, r5, r6, r7, pc}
 615              	.L38:
 616              		.align	2
 617              	.L37:
 618 002c 00000000 		.word	__aeabi_dmul
 619 0030 00000000 		.word	__aeabi_dsub
 620              		.cfi_endproc
 621              	.LFE3398:
 623              		.section	.text._ZN4ltaf11determinantIdLi2ELb0EEET_RKNS_6MatrixIS1_XT0_EXT0_EXT1_EEE,"axG",%progbit
 624              		.align	1
 625              		.weak	_ZN4ltaf11determinantIdLi2ELb0EEET_RKNS_6MatrixIS1_XT0_EXT0_EXT1_EEE
 626              		.thumb
 627              		.thumb_func
 629              	_ZN4ltaf11determinantIdLi2ELb0EEET_RKNS_6MatrixIS1_XT0_EXT0_EXT1_EEE:
 630              	.LFB3401:
1256:/home/tienluong/workspace/atlantis_fw/AsicFwS2/include/matrix.h **** {
 631              		.loc 2 1256 0
 632              		.cfi_startproc
 633              		@ args = 0, pretend = 0, frame = 0
 634              		@ frame_needed = 0, uses_anonymous_args = 0
 635              	.LVL63:
 636 0000 F8B5     		push	{r3, r4, r5, r6, r7, lr}
 637              	.LCFI11:
 638              		.cfi_def_cfa_offset 24
 639              		.cfi_offset 3, -24
 640              		.cfi_offset 4, -20
 641              		.cfi_offset 5, -16
 642              		.cfi_offset 6, -12
 643              		.cfi_offset 7, -8
 644              		.cfi_offset 14, -4
1256:/home/tienluong/workspace/atlantis_fw/AsicFwS2/include/matrix.h **** {
 645              		.loc 2 1256 0
 646 0002 0446     		mov	r4, r0
 647              	.LBB1257:
 648              	.LBB1258:
 649              	.LBB1259:
1062:/home/tienluong/workspace/atlantis_fw/AsicFwS2/include/matrix.h ****     }
 650              		.loc 2 1062 0
 651 0004 094D     		ldr	r5, .L40
 652 0006 D0E90001 		ldrd	r0, [r0]
 653              	.LVL64:
 654 000a D4E90623 		ldrd	r2, [r4, #24]
 655 000e A847     		blx	r5
 656              	.LVL65:
 657 0010 D4E90423 		ldrd	r2, [r4, #16]
 658 0014 0646     		mov	r6, r0
 659 0016 0F46     		mov	r7, r1
 660 0018 D4E90201 		ldrd	r0, [r4, #8]
 661 001c A847     		blx	r5
 662              	.LVL66:
 663 001e 044C     		ldr	r4, .L40+4
 664              	.LVL67:
 665 0020 0246     		mov	r2, r0
 666 0022 0B46     		mov	r3, r1
 667 0024 3046     		mov	r0, r6
 668 0026 3946     		mov	r1, r7
 669 0028 A047     		blx	r4
 670              	.LVL68:
 671              	.LBE1259:
 672              	.LBE1258:
 673              	.LBE1257:
 674              		.loc 2 1260 0
 675 002a F8BD     		pop	{r3, r4, r5, r6, r7, pc}
 676              	.L41:
 677              		.align	2
 678              	.L40:
 679 002c 00000000 		.word	__aeabi_dmul
 680 0030 00000000 		.word	__aeabi_dsub
 681              		.cfi_endproc
 682              	.LFE3401:
 684              		.section	.text._ZN4ltaf9CalibDataC2ERKNS_6MatrixIfLi3ELi3ELb1EEES4_RKNS_4Vec3IfEE,"axG",%progbits,
 685              		.align	1
 686              		.weak	_ZN4ltaf9CalibDataC2ERKNS_6MatrixIfLi3ELi3ELb1EEES4_RKNS_4Vec3IfEE
 687              		.thumb
 688              		.thumb_func
 690              	_ZN4ltaf9CalibDataC2ERKNS_6MatrixIfLi3ELi3ELb1EEES4_RKNS_4Vec3IfEE:
 691              	.LFB3263:
  94:/home/tienluong/workspace/atlantis_fw/AsicFwS2/include/calibclasses.h ****     		  const Matrix3x3f & r,
 692              		.loc 1 94 0
 693              		.cfi_startproc
 694              		@ args = 0, pretend = 0, frame = 0
 695              		@ frame_needed = 0, uses_anonymous_args = 0
 696              	.LVL69:
 697 0000 F0B5     		push	{r4, r5, r6, r7, lr}
 698              	.LCFI12:
 699              		.cfi_def_cfa_offset 20
 700              		.cfi_offset 4, -20
 701              		.cfi_offset 5, -16
 702              		.cfi_offset 6, -12
 703              		.cfi_offset 7, -8
 704              		.cfi_offset 14, -4
 705              	.LBB1272:
 706              	.LBB1273:
 707              	.LBB1274:
 708              	.LBB1275:
 591:/home/tienluong/workspace/atlantis_fw/AsicFwS2/include/matrix.h **** 
 709              		.loc 2 591 0
 710 0002 0E46     		mov	r6, r1
 711              	.LBE1275:
 712              	.LBE1274:
 713              	.LBE1273:
 714              	.LBE1272:
  94:/home/tienluong/workspace/atlantis_fw/AsicFwS2/include/calibclasses.h ****     		  const Matrix3x3f & r,
 715              		.loc 1 94 0
 716 0004 0746     		mov	r7, r0
 717 0006 9E46     		mov	lr, r3
 718 0008 1446     		mov	r4, r2
 719              	.LBB1287:
 720              	.LBB1278:
 721              	.LBB1277:
 722              	.LBB1276:
 591:/home/tienluong/workspace/atlantis_fw/AsicFwS2/include/matrix.h **** 
 723              		.loc 2 591 0
 724 000a 051D     		adds	r5, r0, #4
 725              	.LVL70:
 726 000c 0FCE     		ldmia	r6!, {r0, r1, r2, r3}
 727              	.LVL71:
 728 000e 0FC5     		stmia	r5!, {r0, r1, r2, r3}
 729              	.LVL72:
 730 0010 0FCE     		ldmia	r6!, {r0, r1, r2, r3}
 731              	.LVL73:
 732 0012 0FC5     		stmia	r5!, {r0, r1, r2, r3}
 733              	.LVL74:
 734 0014 3368     		ldr	r3, [r6]
 735 0016 2B60     		str	r3, [r5]
 736              	.LBE1276:
 737              	.LBE1277:
 738              	.LBE1278:
 739              	.LBB1279:
 740              	.LBB1280:
 741 0018 07F13405 		add	r5, r7, #52
 742              	.LVL75:
 743              	.LBE1280:
 744              	.LBE1279:
  99:/home/tienluong/workspace/atlantis_fw/AsicFwS2/include/calibclasses.h **** 
 745              		.loc 1 99 0
 746 001c 094B     		ldr	r3, .L43
 747 001e 3B60     		str	r3, [r7]
 748              	.LVL76:
 749              	.LBB1283:
 750              	.LBB1284:
 230:/home/tienluong/workspace/atlantis_fw/AsicFwS2/include/matrix.h **** 
 751              		.loc 2 230 0
 752 0020 DEF80030 		ldr	r3, [lr]	@ float
 753 0024 BB62     		str	r3, [r7, #40]	@ float
 754 0026 DEF80430 		ldr	r3, [lr, #4]	@ float
 755 002a FB62     		str	r3, [r7, #44]	@ float
 756 002c DEF80830 		ldr	r3, [lr, #8]	@ float
 757 0030 3B63     		str	r3, [r7, #48]	@ float
 758              	.LVL77:
 759              	.LBE1284:
 760              	.LBE1283:
 761              	.LBB1285:
 762              	.LBB1281:
 591:/home/tienluong/workspace/atlantis_fw/AsicFwS2/include/matrix.h **** 
 763              		.loc 2 591 0
 764 0032 0FCC     		ldmia	r4!, {r0, r1, r2, r3}
 765              	.LVL78:
 766 0034 0FC5     		stmia	r5!, {r0, r1, r2, r3}
 767              	.LVL79:
 768 0036 0FCC     		ldmia	r4!, {r0, r1, r2, r3}
 769              	.LVL80:
 770 0038 0FC5     		stmia	r5!, {r0, r1, r2, r3}
 771              	.LVL81:
 772 003a 2368     		ldr	r3, [r4]
 773              	.LBE1281:
 774              	.LBE1285:
 775              	.LBE1287:
  99:/home/tienluong/workspace/atlantis_fw/AsicFwS2/include/calibclasses.h **** 
 776              		.loc 1 99 0
 777 003c 3846     		mov	r0, r7
 778              	.LBB1288:
 779              	.LBB1286:
 780              	.LBB1282:
 591:/home/tienluong/workspace/atlantis_fw/AsicFwS2/include/matrix.h **** 
 781              		.loc 2 591 0
 782 003e 2B60     		str	r3, [r5]
 783              	.LBE1282:
 784              	.LBE1286:
 785              	.LBE1288:
  99:/home/tienluong/workspace/atlantis_fw/AsicFwS2/include/calibclasses.h **** 
 786              		.loc 1 99 0
 787 0040 F0BD     		pop	{r4, r5, r6, r7, pc}
 788              	.LVL82:
 789              	.L44:
 790 0042 00BF     		.align	2
 791              	.L43:
 792 0044 08000000 		.word	_ZTVN4ltaf9CalibDataE+8
 793              		.cfi_endproc
 794              	.LFE3263:
 796              		.weak	_ZN4ltaf9CalibDataC1ERKNS_6MatrixIfLi3ELi3ELb1EEES4_RKNS_4Vec3IfEE
 797              		.thumb_set _ZN4ltaf9CalibDataC1ERKNS_6MatrixIfLi3ELi3ELb1EEES4_RKNS_4Vec3IfEE,_ZN4ltaf9CalibDataC2
 798              		.section	.text._ZN4ltaf16CalibDataWMirrorC2ERKNS_6MatrixIfLi3ELi3ELb1EEERKNS_14MirrorSysParamERKNS
 799              		.align	1
 800              		.weak	_ZN4ltaf16CalibDataWMirrorC2ERKNS_6MatrixIfLi3ELi3ELb1EEERKNS_14MirrorSysParamERKNS_21Mirror
 801              		.thumb
 802              		.thumb_func
 804              	_ZN4ltaf16CalibDataWMirrorC2ERKNS_6MatrixIfLi3ELi3ELb1EEERKNS_14MirrorSysParamERKNS_21MirrorActuato
 805              	.LFB3277:
 125:/home/tienluong/workspace/atlantis_fw/AsicFwS2/include/calibclasses.h **** {
 126:/home/tienluong/workspace/atlantis_fw/AsicFwS2/include/calibclasses.h **** public:
 127:/home/tienluong/workspace/atlantis_fw/AsicFwS2/include/calibclasses.h ****     // default constructor
 128:/home/tienluong/workspace/atlantis_fw/AsicFwS2/include/calibclasses.h ****     CalibDataWMirror(){}
 129:/home/tienluong/workspace/atlantis_fw/AsicFwS2/include/calibclasses.h **** 
 130:/home/tienluong/workspace/atlantis_fw/AsicFwS2/include/calibclasses.h ****     CalibDataWMirror(const Matrix3x3f & k,
 806              		.loc 1 130 0
 807              		.cfi_startproc
 808              		@ args = 0, pretend = 0, frame = 0
 809              		@ frame_needed = 0, uses_anonymous_args = 0
 810              	.LVL83:
 811 0000 F0B5     		push	{r4, r5, r6, r7, lr}
 812              	.LCFI13:
 813              		.cfi_def_cfa_offset 20
 814              		.cfi_offset 4, -20
 815              		.cfi_offset 5, -16
 816              		.cfi_offset 6, -12
 817              		.cfi_offset 7, -8
 818              		.cfi_offset 14, -4
 819              	.LBB1312:
 820              	.LBB1313:
 821              	.LBB1314:
 822              	.LBB1315:
 591:/home/tienluong/workspace/atlantis_fw/AsicFwS2/include/matrix.h **** 
 823              		.loc 2 591 0
 824 0002 0F46     		mov	r7, r1
 825              	.LBE1315:
 826              	.LBE1314:
 827              	.LBE1313:
 828              	.LBE1312:
 829              		.loc 1 130 0
 830 0004 0446     		mov	r4, r0
 831 0006 1546     		mov	r5, r2
 832 0008 9E46     		mov	lr, r3
 833              	.LBB1346:
 834              	.LBB1320:
 835              	.LBB1318:
 836              	.LBB1316:
 591:/home/tienluong/workspace/atlantis_fw/AsicFwS2/include/matrix.h **** 
 837              		.loc 2 591 0
 838 000a 061D     		adds	r6, r0, #4
 839              	.LVL84:
 840 000c 0FCF     		ldmia	r7!, {r0, r1, r2, r3}
 841              	.LVL85:
 842 000e 0FC6     		stmia	r6!, {r0, r1, r2, r3}
 843              	.LVL86:
 844 0010 0FCF     		ldmia	r7!, {r0, r1, r2, r3}
 845              	.LVL87:
 846 0012 0FC6     		stmia	r6!, {r0, r1, r2, r3}
 847              	.LVL88:
 848 0014 3B68     		ldr	r3, [r7]
 849              	.LBE1316:
 850              	.LBE1318:
 851              	.LBE1320:
 852              	.LBB1321:
 853              	.LBB1322:
 854              	.LBB1323:
 855              	.LBB1324:
 856 0016 2F46     		mov	r7, r5
 857              	.LVL89:
 858              	.LBE1324:
 859              	.LBE1323:
 860              	.LBE1322:
 861              	.LBE1321:
 862              	.LBB1342:
 863              	.LBB1319:
 864              	.LBB1317:
 865 0018 3360     		str	r3, [r6]
 866              	.LBE1317:
 867              	.LBE1319:
 868              	.LBE1342:
 131:/home/tienluong/workspace/atlantis_fw/AsicFwS2/include/calibclasses.h ****                      const MirrorSysParam & msp,
 132:/home/tienluong/workspace/atlantis_fw/AsicFwS2/include/calibclasses.h ****                      const MirrorActuatorMapping & map):
 133:/home/tienluong/workspace/atlantis_fw/AsicFwS2/include/calibclasses.h ****         CalibDataBase(k),
 134:/home/tienluong/workspace/atlantis_fw/AsicFwS2/include/calibclasses.h ****         _mirror_sys_param(msp),
 135:/home/tienluong/workspace/atlantis_fw/AsicFwS2/include/calibclasses.h ****         _mirror_act_mapping(map)
 869              		.loc 1 135 0
 870 001a 2646     		mov	r6, r4
 871              	.LVL90:
 872 001c 1B4B     		ldr	r3, .L46
 873 001e 46F8283B 		str	r3, [r6], #40
 874              	.LVL91:
 875              	.LBB1343:
 876              	.LBB1339:
 877              	.LBB1326:
 878              	.LBB1325:
 591:/home/tienluong/workspace/atlantis_fw/AsicFwS2/include/matrix.h **** 
 879              		.loc 2 591 0
 880 0022 0FCF     		ldmia	r7!, {r0, r1, r2, r3}
 881 0024 0FC6     		stmia	r6!, {r0, r1, r2, r3}
 882              	.LVL92:
 883 0026 0FCF     		ldmia	r7!, {r0, r1, r2, r3}
 884 0028 0FC6     		stmia	r6!, {r0, r1, r2, r3}
 885              	.LVL93:
 886 002a 3B68     		ldr	r3, [r7]
 887 002c 3360     		str	r3, [r6]
 888              	.LVL94:
 889              	.LBE1325:
 890              	.LBE1326:
 891              	.LBE1339:
 892              	.LBE1343:
 893              		.loc 1 135 0
 894 002e 04F18C06 		add	r6, r4, #140
 895              	.LVL95:
 896              	.LBB1344:
 897              	.LBB1340:
 898              	.LBB1327:
 899              	.LBB1328:
 230:/home/tienluong/workspace/atlantis_fw/AsicFwS2/include/matrix.h **** 
 900              		.loc 2 230 0
 901 0032 6B6A     		ldr	r3, [r5, #36]	@ float
 902 0034 E364     		str	r3, [r4, #76]	@ float
 903 0036 AB6A     		ldr	r3, [r5, #40]	@ float
 904 0038 2365     		str	r3, [r4, #80]	@ float
 905 003a EB6A     		ldr	r3, [r5, #44]	@ float
 906 003c 6365     		str	r3, [r4, #84]	@ float
 907              	.LVL96:
 908              	.LBE1328:
 909              	.LBE1327:
 910              	.LBB1329:
 911              	.LBB1330:
 912 003e 2B6B     		ldr	r3, [r5, #48]	@ float
 913 0040 A365     		str	r3, [r4, #88]	@ float
 914 0042 6B6B     		ldr	r3, [r5, #52]	@ float
 915 0044 E365     		str	r3, [r4, #92]	@ float
 916 0046 AB6B     		ldr	r3, [r5, #56]	@ float
 917 0048 2366     		str	r3, [r4, #96]	@ float
 918              	.LVL97:
 919              	.LBE1330:
 920              	.LBE1329:
 921              	.LBB1331:
 922              	.LBB1332:
 923 004a EB6B     		ldr	r3, [r5, #60]	@ float
 924 004c 6366     		str	r3, [r4, #100]	@ float
 925 004e 2B6C     		ldr	r3, [r5, #64]	@ float
 926 0050 A366     		str	r3, [r4, #104]	@ float
 927 0052 6B6C     		ldr	r3, [r5, #68]	@ float
 928 0054 E366     		str	r3, [r4, #108]	@ float
 929              	.LVL98:
 930              	.LBE1332:
 931              	.LBE1331:
 932              	.LBB1333:
 933              	.LBB1334:
 934 0056 AB6C     		ldr	r3, [r5, #72]	@ float
 935 0058 2367     		str	r3, [r4, #112]	@ float
 936 005a EB6C     		ldr	r3, [r5, #76]	@ float
 937 005c 6367     		str	r3, [r4, #116]	@ float
 938 005e 2B6D     		ldr	r3, [r5, #80]	@ float
 939 0060 A367     		str	r3, [r4, #120]	@ float
 940              	.LBE1334:
 941              	.LBE1333:
 942              		.file 3 "/home/tienluong/workspace/atlantis_fw/AsicFwS2/include/mirrorsystems.h"
   1:/home/tienluong/workspace/atlantis_fw/AsicFwS2/include/mirrorsystems.h **** #ifndef __MIRRORSYSTEMS_H__
   2:/home/tienluong/workspace/atlantis_fw/AsicFwS2/include/mirrorsystems.h **** #define __MIRRORSYSTEMS_H__
   3:/home/tienluong/workspace/atlantis_fw/AsicFwS2/include/mirrorsystems.h **** 
   4:/home/tienluong/workspace/atlantis_fw/AsicFwS2/include/mirrorsystems.h **** #ifdef __cplusplus
   5:/home/tienluong/workspace/atlantis_fw/AsicFwS2/include/mirrorsystems.h **** 
   6:/home/tienluong/workspace/atlantis_fw/AsicFwS2/include/mirrorsystems.h **** // #include "mirroractuatormapping.h"
   7:/home/tienluong/workspace/atlantis_fw/AsicFwS2/include/mirrorsystems.h **** // #include "logdefines.h"
   8:/home/tienluong/workspace/atlantis_fw/AsicFwS2/include/mirrorsystems.h **** // #include "utilities/domfile.h"
   9:/home/tienluong/workspace/atlantis_fw/AsicFwS2/include/mirrorsystems.h **** // #include "rotation3d.h"
  10:/home/tienluong/workspace/atlantis_fw/AsicFwS2/include/mirrorsystems.h **** 
  11:/home/tienluong/workspace/atlantis_fw/AsicFwS2/include/mirrorsystems.h **** #include "matrix.h"
  12:/home/tienluong/workspace/atlantis_fw/AsicFwS2/include/mirrorsystems.h **** 
  13:/home/tienluong/workspace/atlantis_fw/AsicFwS2/include/mirrorsystems.h **** # define M_PI       3.14159265358979323846  /* pi */
  14:/home/tienluong/workspace/atlantis_fw/AsicFwS2/include/mirrorsystems.h **** 
  15:/home/tienluong/workspace/atlantis_fw/AsicFwS2/include/mirrorsystems.h **** namespace ltaf {
  16:/home/tienluong/workspace/atlantis_fw/AsicFwS2/include/mirrorsystems.h **** 
  17:/home/tienluong/workspace/atlantis_fw/AsicFwS2/include/mirrorsystems.h **** /// Normalize axis
  18:/home/tienluong/workspace/atlantis_fw/AsicFwS2/include/mirrorsystems.h **** template <typename T>
  19:/home/tienluong/workspace/atlantis_fw/AsicFwS2/include/mirrorsystems.h **** void normalizeAxis( T iter )
  20:/home/tienluong/workspace/atlantis_fw/AsicFwS2/include/mirrorsystems.h **** {
  21:/home/tienluong/workspace/atlantis_fw/AsicFwS2/include/mirrorsystems.h ****     double norm2 = 0.0f;
  22:/home/tienluong/workspace/atlantis_fw/AsicFwS2/include/mirrorsystems.h ****     norm2 += iter[0] * iter[0]; norm2 += iter[1] * iter[1]; norm2 += iter[2] * iter[2];
  23:/home/tienluong/workspace/atlantis_fw/AsicFwS2/include/mirrorsystems.h ****     double inv_norm2 = 1.0 / std::sqrt( norm2 );
  24:/home/tienluong/workspace/atlantis_fw/AsicFwS2/include/mirrorsystems.h ****     iter[0] *= inv_norm2; iter[1] *= inv_norm2; iter[2] *= inv_norm2;
  25:/home/tienluong/workspace/atlantis_fw/AsicFwS2/include/mirrorsystems.h **** }
  26:/home/tienluong/workspace/atlantis_fw/AsicFwS2/include/mirrorsystems.h **** 
  27:/home/tienluong/workspace/atlantis_fw/AsicFwS2/include/mirrorsystems.h **** 
  28:/home/tienluong/workspace/atlantis_fw/AsicFwS2/include/mirrorsystems.h **** /// Data structure that stores the fixed parameters of a mirror system.
  29:/home/tienluong/workspace/atlantis_fw/AsicFwS2/include/mirrorsystems.h **** /// Considers mirror and camera as a fixed pair system.
  30:/home/tienluong/workspace/atlantis_fw/AsicFwS2/include/mirrorsystems.h **** /// Includes parameters for both.
  31:/home/tienluong/workspace/atlantis_fw/AsicFwS2/include/mirrorsystems.h **** struct MirrorSysParam
 943              		.loc 3 31 0
 944 0062 6B6D     		ldr	r3, [r5, #84]	@ float
 945 0064 E367     		str	r3, [r4, #124]	@ float
 946 0066 95F85830 		ldrb	r3, [r5, #88]	@ zero_extendqisi2
 947 006a 84F88030 		strb	r3, [r4, #128]
 948              	.LVL99:
 949              	.LBB1335:
 950              	.LBB1336:
  26:/home/tienluong/workspace/atlantis_fw/AsicFwS2/include/matrix.h **** 
 951              		.loc 2 26 0
 952 006e EB6D     		ldr	r3, [r5, #92]	@ float
 953 0070 C4F88430 		str	r3, [r4, #132]	@ float
 954 0074 2B6E     		ldr	r3, [r5, #96]	@ float
 955              	.LBE1336:
 956              	.LBE1335:
 957              	.LBE1340:
 958              	.LBE1344:
 959              		.loc 1 135 0
 960 0076 7546     		mov	r5, lr
 961              	.LVL100:
 962              	.LBB1345:
 963              	.LBB1341:
 964              	.LBB1338:
 965              	.LBB1337:
  26:/home/tienluong/workspace/atlantis_fw/AsicFwS2/include/matrix.h **** 
 966              		.loc 2 26 0
 967 0078 C4F88830 		str	r3, [r4, #136]	@ float
 968              	.LBE1337:
 969              	.LBE1338:
 970              	.LBE1341:
 971              	.LBE1345:
 972              		.loc 1 135 0
 973 007c 0FCD     		ldmia	r5!, {r0, r1, r2, r3}
 974 007e 0FC6     		stmia	r6!, {r0, r1, r2, r3}
 975 0080 95E80F00 		ldmia	r5, {r0, r1, r2, r3}
 976 0084 86E80F00 		stmia	r6, {r0, r1, r2, r3}
 977              	.LBE1346:
 136:/home/tienluong/workspace/atlantis_fw/AsicFwS2/include/calibclasses.h ****     {}
 978              		.loc 1 136 0
 979 0088 2046     		mov	r0, r4
 980 008a F0BD     		pop	{r4, r5, r6, r7, pc}
 981              	.LVL101:
 982              	.L47:
 983              		.align	2
 984              	.L46:
 985 008c 08000000 		.word	_ZTVN4ltaf16CalibDataWMirrorE+8
 986              		.cfi_endproc
 987              	.LFE3277:
 989              		.weak	_ZN4ltaf16CalibDataWMirrorC1ERKNS_6MatrixIfLi3ELi3ELb1EEERKNS_14MirrorSysParamERKNS_21Mirror
 990              		.thumb_set _ZN4ltaf16CalibDataWMirrorC1ERKNS_6MatrixIfLi3ELi3ELb1EEERKNS_14MirrorSysParamERKNS_21M
 991              		.section	.text._ZN4ltaf9CalibData19setCameraParametersERKNS_6MatrixIfLi3ELi3ELb1EEES4_RKNS_4Vec3If
 992              		.align	1
 993              		.global	_ZN4ltaf9CalibData19setCameraParametersERKNS_6MatrixIfLi3ELi3ELb1EEES4_RKNS_4Vec3IfEE
 994              		.thumb
 995              		.thumb_func
 997              	_ZN4ltaf9CalibData19setCameraParametersERKNS_6MatrixIfLi3ELi3ELb1EEES4_RKNS_4Vec3IfEE:
 998              	.LFB3320:
 999              		.file 4 "/home/tienluong/workspace/atlantis_fw/AsicFwS2/src/calibclasses.cpp"
   1:/home/tienluong/workspace/atlantis_fw/AsicFwS2/src/calibclasses.cpp **** #include "log.h"
   2:/home/tienluong/workspace/atlantis_fw/AsicFwS2/src/calibclasses.cpp **** #include "calibclasses.h"
   3:/home/tienluong/workspace/atlantis_fw/AsicFwS2/src/calibclasses.cpp **** #include "operator_new.h"
   4:/home/tienluong/workspace/atlantis_fw/AsicFwS2/src/calibclasses.cpp **** 
   5:/home/tienluong/workspace/atlantis_fw/AsicFwS2/src/calibclasses.cpp **** 
   6:/home/tienluong/workspace/atlantis_fw/AsicFwS2/src/calibclasses.cpp **** #define SLOGF_ID                SLOG_ID_AF
   7:/home/tienluong/workspace/atlantis_fw/AsicFwS2/src/calibclasses.cpp **** 
   8:/home/tienluong/workspace/atlantis_fw/AsicFwS2/src/calibclasses.cpp **** 
   9:/home/tienluong/workspace/atlantis_fw/AsicFwS2/src/calibclasses.cpp **** namespace ltaf {
  10:/home/tienluong/workspace/atlantis_fw/AsicFwS2/src/calibclasses.cpp **** 
  11:/home/tienluong/workspace/atlantis_fw/AsicFwS2/src/calibclasses.cpp **** void CalibData::setCameraParameters( const Matrix3x3f & K,
  12:/home/tienluong/workspace/atlantis_fw/AsicFwS2/src/calibclasses.cpp ****                                      const Matrix3x3f & R,
  13:/home/tienluong/workspace/atlantis_fw/AsicFwS2/src/calibclasses.cpp ****                                      const Vec3f & translation )
  14:/home/tienluong/workspace/atlantis_fw/AsicFwS2/src/calibclasses.cpp **** {
 1000              		.loc 4 14 0
 1001              		.cfi_startproc
 1002              		@ args = 0, pretend = 0, frame = 0
 1003              		@ frame_needed = 0, uses_anonymous_args = 0
 1004              	.LVL102:
 1005 0000 F0B5     		push	{r4, r5, r6, r7, lr}
 1006              	.LCFI14:
 1007              		.cfi_def_cfa_offset 20
 1008              		.cfi_offset 4, -20
 1009              		.cfi_offset 5, -16
 1010              		.cfi_offset 6, -12
 1011              		.cfi_offset 7, -8
 1012              		.cfi_offset 14, -4
  15:/home/tienluong/workspace/atlantis_fw/AsicFwS2/src/calibclasses.cpp ****     _K = K;
 1013              		.loc 4 15 0
 1014 0002 0E46     		mov	r6, r1
  14:/home/tienluong/workspace/atlantis_fw/AsicFwS2/src/calibclasses.cpp ****     _K = K;
 1015              		.loc 4 14 0
 1016 0004 0746     		mov	r7, r0
 1017 0006 9E46     		mov	lr, r3
 1018 0008 1446     		mov	r4, r2
 1019              		.loc 4 15 0
 1020 000a 051D     		adds	r5, r0, #4
 1021 000c 0FCE     		ldmia	r6!, {r0, r1, r2, r3}
 1022              	.LVL103:
 1023 000e 0FC5     		stmia	r5!, {r0, r1, r2, r3}
 1024 0010 0FCE     		ldmia	r6!, {r0, r1, r2, r3}
 1025              	.LVL104:
 1026 0012 0FC5     		stmia	r5!, {r0, r1, r2, r3}
 1027 0014 3368     		ldr	r3, [r6]
 1028 0016 2B60     		str	r3, [r5]
  16:/home/tienluong/workspace/atlantis_fw/AsicFwS2/src/calibclasses.cpp ****     _R = R;
 1029              		.loc 4 16 0
 1030 0018 07F13405 		add	r5, r7, #52
 1031 001c 0FCC     		ldmia	r4!, {r0, r1, r2, r3}
 1032              	.LVL105:
 1033 001e 0FC5     		stmia	r5!, {r0, r1, r2, r3}
 1034 0020 0FCC     		ldmia	r4!, {r0, r1, r2, r3}
 1035              	.LVL106:
 1036 0022 0FC5     		stmia	r5!, {r0, r1, r2, r3}
 1037 0024 2368     		ldr	r3, [r4]
 1038 0026 2B60     		str	r3, [r5]
 1039              	.LVL107:
 1040              	.LBB1347:
 1041              	.LBB1348:
 239:/home/tienluong/workspace/atlantis_fw/AsicFwS2/include/matrix.h **** 
 1042              		.loc 2 239 0
 1043 0028 DEF80030 		ldr	r3, [lr]	@ float
 1044 002c BB62     		str	r3, [r7, #40]	@ float
 1045 002e DEF80430 		ldr	r3, [lr, #4]	@ float
 1046 0032 FB62     		str	r3, [r7, #44]	@ float
 1047 0034 DEF80830 		ldr	r3, [lr, #8]	@ float
 1048 0038 3B63     		str	r3, [r7, #48]	@ float
 1049 003a F0BD     		pop	{r4, r5, r6, r7, pc}
 1050              	.LBE1348:
 1051              	.LBE1347:
 1052              		.cfi_endproc
 1053              	.LFE3320:
 1055              		.global	__aeabi_fcmpeq
 1056              		.global	__aeabi_fcmpgt
 1057              		.section	.text._ZN4ltaf9CalibData5scaleEf,"ax",%progbits
 1058              		.align	1
 1059              		.global	_ZN4ltaf9CalibData5scaleEf
 1060              		.thumb
 1061              		.thumb_func
 1063              	_ZN4ltaf9CalibData5scaleEf:
 1064              	.LFB3321:
  17:/home/tienluong/workspace/atlantis_fw/AsicFwS2/src/calibclasses.cpp ****     _T = translation;
  18:/home/tienluong/workspace/atlantis_fw/AsicFwS2/src/calibclasses.cpp **** }
  19:/home/tienluong/workspace/atlantis_fw/AsicFwS2/src/calibclasses.cpp **** 
  20:/home/tienluong/workspace/atlantis_fw/AsicFwS2/src/calibclasses.cpp **** void CalibData::scale( float s )
  21:/home/tienluong/workspace/atlantis_fw/AsicFwS2/src/calibclasses.cpp **** {
 1065              		.loc 4 21 0
 1066              		.cfi_startproc
 1067              		@ args = 0, pretend = 0, frame = 0
 1068              		@ frame_needed = 0, uses_anonymous_args = 0
 1069              	.LVL108:
 1070 0000 70B5     		push	{r4, r5, r6, lr}
 1071              	.LCFI15:
 1072              		.cfi_def_cfa_offset 16
 1073              		.cfi_offset 4, -16
 1074              		.cfi_offset 5, -12
 1075              		.cfi_offset 6, -8
 1076              		.cfi_offset 14, -4
 1077              	.LBB1349:
  22:/home/tienluong/workspace/atlantis_fw/AsicFwS2/src/calibclasses.cpp ****     if( s == 1.0f ) { return; }
 1078              		.loc 4 22 0
 1079 0002 114B     		ldr	r3, .L52
 1080              	.LBE1349:
  21:/home/tienluong/workspace/atlantis_fw/AsicFwS2/src/calibclasses.cpp ****     if( s == 1.0f ) { return; }
 1081              		.loc 4 21 0
 1082 0004 0446     		mov	r4, r0
 1083 0006 0D46     		mov	r5, r1
 1084              	.LBB1350:
 1085              		.loc 4 22 0
 1086 0008 0846     		mov	r0, r1
 1087              	.LVL109:
 1088 000a 4FF07E51 		mov	r1, #1065353216
 1089              	.LVL110:
 1090 000e 9847     		blx	r3
 1091              	.LVL111:
 1092 0010 C8B9     		cbnz	r0, .L49
  23:/home/tienluong/workspace/atlantis_fw/AsicFwS2/src/calibclasses.cpp **** 
  24:/home/tienluong/workspace/atlantis_fw/AsicFwS2/src/calibclasses.cpp ****     assert( s > 0 ); //, "Scale has to be a positive value." );
 1093              		.loc 4 24 0
 1094 0012 2846     		mov	r0, r5
 1095 0014 0021     		movs	r1, #0
 1096 0016 0D4B     		ldr	r3, .L52+4
 1097 0018 9847     		blx	r3
 1098              	.LVL112:
 1099 001a 18B9     		cbnz	r0, .L51
 1100              		.loc 4 24 0 is_stmt 0 discriminator 1
 1101 001c 0C48     		ldr	r0, .L52+8
 1102 001e 1821     		movs	r1, #24
 1103 0020 0C4B     		ldr	r3, .L52+12
 1104 0022 9847     		blx	r3
 1105              	.LVL113:
 1106              	.L51:
  25:/home/tienluong/workspace/atlantis_fw/AsicFwS2/src/calibclasses.cpp **** 
  26:/home/tienluong/workspace/atlantis_fw/AsicFwS2/src/calibclasses.cpp ****     _K( 0, 0 ) *= s;
 1107              		.loc 4 26 0 is_stmt 1
 1108 0024 0C4E     		ldr	r6, .L52+16
 1109 0026 2946     		mov	r1, r5
 1110 0028 6068     		ldr	r0, [r4, #4]	@ float
 1111 002a B047     		blx	r6
 1112              	.LVL114:
  27:/home/tienluong/workspace/atlantis_fw/AsicFwS2/src/calibclasses.cpp ****     _K( 1, 1 ) *= s;
 1113              		.loc 4 27 0
 1114 002c 2946     		mov	r1, r5
  26:/home/tienluong/workspace/atlantis_fw/AsicFwS2/src/calibclasses.cpp ****     _K( 1, 1 ) *= s;
 1115              		.loc 4 26 0
 1116 002e 6060     		str	r0, [r4, #4]	@ float
 1117              	.LVL115:
 1118              		.loc 4 27 0
 1119 0030 6069     		ldr	r0, [r4, #20]	@ float
 1120 0032 B047     		blx	r6
 1121              	.LVL116:
  28:/home/tienluong/workspace/atlantis_fw/AsicFwS2/src/calibclasses.cpp ****     _K( 1, 2 ) *= s;
 1122              		.loc 4 28 0
 1123 0034 2946     		mov	r1, r5
  27:/home/tienluong/workspace/atlantis_fw/AsicFwS2/src/calibclasses.cpp ****     _K( 1, 1 ) *= s;
 1124              		.loc 4 27 0
 1125 0036 6061     		str	r0, [r4, #20]	@ float
 1126              	.LVL117:
 1127              		.loc 4 28 0
 1128 0038 A069     		ldr	r0, [r4, #24]	@ float
 1129 003a B047     		blx	r6
 1130              	.LVL118:
  29:/home/tienluong/workspace/atlantis_fw/AsicFwS2/src/calibclasses.cpp ****     _K( 0, 2 ) *= s;
 1131              		.loc 4 29 0
 1132 003c 2946     		mov	r1, r5
  28:/home/tienluong/workspace/atlantis_fw/AsicFwS2/src/calibclasses.cpp ****     _K( 1, 2 ) *= s;
 1133              		.loc 4 28 0
 1134 003e A061     		str	r0, [r4, #24]	@ float
 1135              	.LVL119:
 1136              		.loc 4 29 0
 1137 0040 E068     		ldr	r0, [r4, #12]	@ float
 1138 0042 B047     		blx	r6
 1139              	.LVL120:
 1140 0044 E060     		str	r0, [r4, #12]	@ float
 1141              	.LVL121:
 1142              	.L49:
 1143 0046 70BD     		pop	{r4, r5, r6, pc}
 1144              	.LVL122:
 1145              	.L53:
 1146              		.align	2
 1147              	.L52:
 1148 0048 00000000 		.word	__aeabi_fcmpeq
 1149 004c 00000000 		.word	__aeabi_fcmpgt
 1150 0050 00000000 		.word	.LANCHOR0
 1151 0054 00000000 		.word	assert_failed
 1152 0058 00000000 		.word	__aeabi_fmul
 1153              	.LBE1350:
 1154              		.cfi_endproc
 1155              	.LFE3321:
 1157              		.global	__aeabi_i2f
 1158              		.section	.text._ZN4ltaf9CalibData5shiftEii,"ax",%progbits
 1159              		.align	1
 1160              		.global	_ZN4ltaf9CalibData5shiftEii
 1161              		.thumb
 1162              		.thumb_func
 1164              	_ZN4ltaf9CalibData5shiftEii:
 1165              	.LFB3322:
  30:/home/tienluong/workspace/atlantis_fw/AsicFwS2/src/calibclasses.cpp **** }
  31:/home/tienluong/workspace/atlantis_fw/AsicFwS2/src/calibclasses.cpp **** 
  32:/home/tienluong/workspace/atlantis_fw/AsicFwS2/src/calibclasses.cpp **** void CalibData::shift( int delta_x, int delta_y )
  33:/home/tienluong/workspace/atlantis_fw/AsicFwS2/src/calibclasses.cpp **** {
 1166              		.loc 4 33 0
 1167              		.cfi_startproc
 1168              		@ args = 0, pretend = 0, frame = 0
 1169              		@ frame_needed = 0, uses_anonymous_args = 0
 1170              	.LVL123:
 1171 0000 F8B5     		push	{r3, r4, r5, r6, r7, lr}
 1172              	.LCFI16:
 1173              		.cfi_def_cfa_offset 24
 1174              		.cfi_offset 3, -24
 1175              		.cfi_offset 4, -20
 1176              		.cfi_offset 5, -16
 1177              		.cfi_offset 6, -12
 1178              		.cfi_offset 7, -8
 1179              		.cfi_offset 14, -4
 1180              		.loc 4 33 0
 1181 0002 0446     		mov	r4, r0
 1182              	.LVL124:
  34:/home/tienluong/workspace/atlantis_fw/AsicFwS2/src/calibclasses.cpp ****     _K( 0, 2 ) -= delta_x;
 1183              		.loc 4 34 0
 1184 0004 0846     		mov	r0, r1
 1185              	.LVL125:
 1186 0006 074E     		ldr	r6, .L55
  33:/home/tienluong/workspace/atlantis_fw/AsicFwS2/src/calibclasses.cpp ****     _K( 0, 2 ) -= delta_x;
 1187              		.loc 4 33 0
 1188 0008 1746     		mov	r7, r2
 1189              		.loc 4 34 0
 1190 000a B047     		blx	r6
 1191              	.LVL126:
 1192 000c 064D     		ldr	r5, .L55+4
 1193 000e 0146     		mov	r1, r0
 1194 0010 E068     		ldr	r0, [r4, #12]	@ float
 1195 0012 A847     		blx	r5
 1196              	.LVL127:
 1197 0014 E060     		str	r0, [r4, #12]	@ float
 1198              	.LVL128:
  35:/home/tienluong/workspace/atlantis_fw/AsicFwS2/src/calibclasses.cpp ****     _K( 1, 2 ) -= delta_y;
 1199              		.loc 4 35 0
 1200 0016 3846     		mov	r0, r7
 1201 0018 B047     		blx	r6
 1202              	.LVL129:
 1203 001a 0146     		mov	r1, r0
 1204 001c A069     		ldr	r0, [r4, #24]	@ float
 1205 001e A847     		blx	r5
 1206              	.LVL130:
 1207 0020 A061     		str	r0, [r4, #24]	@ float
 1208 0022 F8BD     		pop	{r3, r4, r5, r6, r7, pc}
 1209              	.LVL131:
 1210              	.L56:
 1211              		.align	2
 1212              	.L55:
 1213 0024 00000000 		.word	__aeabi_i2f
 1214 0028 00000000 		.word	__aeabi_fsub
 1215              		.cfi_endproc
 1216              	.LFE3322:
 1218              		.global	__aeabi_fadd
 1219              		.section	.text._ZNK4ltaf9WarpField9project3DEfff,"ax",%progbits
 1220              		.align	1
 1221              		.global	_ZNK4ltaf9WarpField9project3DEfff
 1222              		.thumb
 1223              		.thumb_func
 1225              	_ZNK4ltaf9WarpField9project3DEfff:
 1226              	.LFB3334:
  36:/home/tienluong/workspace/atlantis_fw/AsicFwS2/src/calibclasses.cpp **** }
  37:/home/tienluong/workspace/atlantis_fw/AsicFwS2/src/calibclasses.cpp **** 
  38:/home/tienluong/workspace/atlantis_fw/AsicFwS2/src/calibclasses.cpp **** 
  39:/home/tienluong/workspace/atlantis_fw/AsicFwS2/src/calibclasses.cpp **** EpiField::EpiField( const CalibData & ref, const CalibData & src )
  40:/home/tienluong/workspace/atlantis_fw/AsicFwS2/src/calibclasses.cpp **** {
  41:/home/tienluong/workspace/atlantis_fw/AsicFwS2/src/calibclasses.cpp ****     setup( ref, src );
  42:/home/tienluong/workspace/atlantis_fw/AsicFwS2/src/calibclasses.cpp **** }
  43:/home/tienluong/workspace/atlantis_fw/AsicFwS2/src/calibclasses.cpp **** 
  44:/home/tienluong/workspace/atlantis_fw/AsicFwS2/src/calibclasses.cpp **** void EpiField::setup( const CalibData & ref, const CalibData & src )
  45:/home/tienluong/workspace/atlantis_fw/AsicFwS2/src/calibclasses.cpp **** {
  46:/home/tienluong/workspace/atlantis_fw/AsicFwS2/src/calibclasses.cpp ****     /// Skwe matrix for cross product
  47:/home/tienluong/workspace/atlantis_fw/AsicFwS2/src/calibclasses.cpp ****     auto skew = []( const Vec3f & p ) ->Matrix3x3f
  48:/home/tienluong/workspace/atlantis_fw/AsicFwS2/src/calibclasses.cpp ****     {
  49:/home/tienluong/workspace/atlantis_fw/AsicFwS2/src/calibclasses.cpp ****         return Matrix3x3f( {0, -p.z(), p.y(), p.z(), 0, -p.x(), -p.y(), p.x(), 0} );
  50:/home/tienluong/workspace/atlantis_fw/AsicFwS2/src/calibclasses.cpp ****     };
  51:/home/tienluong/workspace/atlantis_fw/AsicFwS2/src/calibclasses.cpp **** 
  52:/home/tienluong/workspace/atlantis_fw/AsicFwS2/src/calibclasses.cpp ****     Matrix3x3f R_rel   = src.R() * transpose( ref.R() );
  53:/home/tienluong/workspace/atlantis_fw/AsicFwS2/src/calibclasses.cpp ****     Vec3f T_rel = R_rel *  ref.translation() - src.translation();
  54:/home/tienluong/workspace/atlantis_fw/AsicFwS2/src/calibclasses.cpp ****     Vec3f epipole = ref.K() * transpose( R_rel ) * T_rel;
  55:/home/tienluong/workspace/atlantis_fw/AsicFwS2/src/calibclasses.cpp ****     _F = transpose( inverse( src.K() ) ) * R_rel * transpose( ref.K() ) * skew( epipole );
  56:/home/tienluong/workspace/atlantis_fw/AsicFwS2/src/calibclasses.cpp **** }
  57:/home/tienluong/workspace/atlantis_fw/AsicFwS2/src/calibclasses.cpp **** 
  58:/home/tienluong/workspace/atlantis_fw/AsicFwS2/src/calibclasses.cpp **** 
  59:/home/tienluong/workspace/atlantis_fw/AsicFwS2/src/calibclasses.cpp **** 
  60:/home/tienluong/workspace/atlantis_fw/AsicFwS2/src/calibclasses.cpp **** static Matrix4x4d CreateExtrinsicMatrix( const Matrix3x3f & rot, const Vec3f & translation )
  61:/home/tienluong/workspace/atlantis_fw/AsicFwS2/src/calibclasses.cpp **** {
  62:/home/tienluong/workspace/atlantis_fw/AsicFwS2/src/calibclasses.cpp ****     Matrix4x4d extrinsic( rot );
  63:/home/tienluong/workspace/atlantis_fw/AsicFwS2/src/calibclasses.cpp ****     extrinsic( 0, 3 ) = translation.x();
  64:/home/tienluong/workspace/atlantis_fw/AsicFwS2/src/calibclasses.cpp ****     extrinsic( 1, 3 ) = translation.y();
  65:/home/tienluong/workspace/atlantis_fw/AsicFwS2/src/calibclasses.cpp ****     extrinsic( 2, 3 ) = translation.z();
  66:/home/tienluong/workspace/atlantis_fw/AsicFwS2/src/calibclasses.cpp ****     return extrinsic;
  67:/home/tienluong/workspace/atlantis_fw/AsicFwS2/src/calibclasses.cpp **** }
  68:/home/tienluong/workspace/atlantis_fw/AsicFwS2/src/calibclasses.cpp **** 
  69:/home/tienluong/workspace/atlantis_fw/AsicFwS2/src/calibclasses.cpp **** 
  70:/home/tienluong/workspace/atlantis_fw/AsicFwS2/src/calibclasses.cpp **** WarpField::WarpField( const CalibData & ref,
  71:/home/tienluong/workspace/atlantis_fw/AsicFwS2/src/calibclasses.cpp ****                       const CalibData & src ){
  72:/home/tienluong/workspace/atlantis_fw/AsicFwS2/src/calibclasses.cpp ****         Matrix4x4d e_ref = CreateExtrinsicMatrix( ref.R(), ref.translation() );
  73:/home/tienluong/workspace/atlantis_fw/AsicFwS2/src/calibclasses.cpp ****         Matrix4x4d e_src = CreateExtrinsicMatrix( src.R(), src.translation() );
  74:/home/tienluong/workspace/atlantis_fw/AsicFwS2/src/calibclasses.cpp ****         Matrix4x4d k_ref( ref.K() ); // expand with 0* and diagonal is 1.
  75:/home/tienluong/workspace/atlantis_fw/AsicFwS2/src/calibclasses.cpp ****         Matrix4x4d k_src( src.K() );
  76:/home/tienluong/workspace/atlantis_fw/AsicFwS2/src/calibclasses.cpp ****         _mat = Matrix4x4f( transpose( ( k_src * e_src ) * inverse( ( k_ref * e_ref ) ) ) );
  77:/home/tienluong/workspace/atlantis_fw/AsicFwS2/src/calibclasses.cpp **** }
  78:/home/tienluong/workspace/atlantis_fw/AsicFwS2/src/calibclasses.cpp **** 
  79:/home/tienluong/workspace/atlantis_fw/AsicFwS2/src/calibclasses.cpp **** /// 3D projection from (x,y,z) to (x',y',z')
  80:/home/tienluong/workspace/atlantis_fw/AsicFwS2/src/calibclasses.cpp **** Vec3f WarpField::project3D( float x, float y, float depth ) const
  81:/home/tienluong/workspace/atlantis_fw/AsicFwS2/src/calibclasses.cpp **** {
 1227              		.loc 4 81 0
 1228              		.cfi_startproc
 1229              		@ args = 4, pretend = 0, frame = 8
 1230              		@ frame_needed = 0, uses_anonymous_args = 0
 1231              	.LVL132:
 1232 0000 2DE9F74F 		push	{r0, r1, r2, r4, r5, r6, r7, r8, r9, r10, fp, lr}
 1233              	.LCFI17:
 1234              		.cfi_def_cfa_offset 48
 1235              		.cfi_offset 4, -36
 1236              		.cfi_offset 5, -32
 1237              		.cfi_offset 6, -28
 1238              		.cfi_offset 7, -24
 1239              		.cfi_offset 8, -20
 1240              		.cfi_offset 9, -16
 1241              		.cfi_offset 10, -12
 1242              		.cfi_offset 11, -8
 1243              		.cfi_offset 14, -4
 1244              		.loc 4 81 0
 1245 0004 0D46     		mov	r5, r1
 1246 0006 0746     		mov	r7, r0
 1247              	.LBB1360:
  82:/home/tienluong/workspace/atlantis_fw/AsicFwS2/src/calibclasses.cpp ****     const Vec4f out = Vec4f( x * depth, y * depth, depth, 1.0f ) * _mat;
 1248              		.loc 4 82 0
 1249 0008 2D4C     		ldr	r4, .L58
 1250 000a 1046     		mov	r0, r2
 1251              	.LVL133:
 1252 000c 0C99     		ldr	r1, [sp, #48]	@ float
 1253              	.LVL134:
 1254              	.LBE1360:
  81:/home/tienluong/workspace/atlantis_fw/AsicFwS2/src/calibclasses.cpp ****     const Vec4f out = Vec4f( x * depth, y * depth, depth, 1.0f ) * _mat;
 1255              		.loc 4 81 0
 1256 000e 1E46     		mov	r6, r3
 1257              	.LBB1377:
 1258              		.loc 4 82 0
 1259 0010 A047     		blx	r4
 1260              	.LVL135:
 1261 0012 0C99     		ldr	r1, [sp, #48]	@ float
 1262 0014 8146     		mov	r9, r0
 1263 0016 3046     		mov	r0, r6
 1264 0018 A047     		blx	r4
 1265              	.LVL136:
 1266              	.LBB1361:
 1267              	.LBB1362:
 954:/home/tienluong/workspace/atlantis_fw/AsicFwS2/include/matrix.h **** }
 1268              		.loc 2 954 0
 1269 001a A968     		ldr	r1, [r5, #8]	@ float
 1270 001c 294E     		ldr	r6, .L58+4
 1271              	.LVL137:
 1272              	.LBE1362:
 1273              	.LBE1361:
 1274              		.loc 4 82 0
 1275 001e 8046     		mov	r8, r0
 1276              	.LVL138:
 1277              	.LBB1369:
 1278              	.LBB1363:
 954:/home/tienluong/workspace/atlantis_fw/AsicFwS2/include/matrix.h **** }
 1279              		.loc 2 954 0
 1280 0020 4846     		mov	r0, r9
 1281              	.LVL139:
 1282 0022 A047     		blx	r4
 1283              	.LVL140:
 1284 0024 A969     		ldr	r1, [r5, #24]	@ float
 1285 0026 8246     		mov	r10, r0
 1286 0028 4046     		mov	r0, r8
 1287 002a A047     		blx	r4
 1288              	.LVL141:
 1289 002c 0146     		mov	r1, r0
 1290 002e 5046     		mov	r0, r10
 1291 0030 B047     		blx	r6
 1292              	.LVL142:
 1293 0032 A96A     		ldr	r1, [r5, #40]	@ float
 1294 0034 8246     		mov	r10, r0
 1295 0036 0C98     		ldr	r0, [sp, #48]	@ float
 1296 0038 A047     		blx	r4
 1297              	.LVL143:
 1298 003a 0146     		mov	r1, r0
 1299 003c 5046     		mov	r0, r10
 1300 003e B047     		blx	r6
 1301              	.LVL144:
 1302 0040 A96B     		ldr	r1, [r5, #56]	@ float
 1303 0042 B047     		blx	r6
 1304              	.LVL145:
 1305              	.LBE1363:
 1306              	.LBE1369:
  83:/home/tienluong/workspace/atlantis_fw/AsicFwS2/src/calibclasses.cpp ****     const float inv_z = 1.0f / out.z();
 1307              		.loc 4 83 0
 1308 0044 204B     		ldr	r3, .L58+8
 1309              	.LBB1370:
 1310              	.LBB1364:
 954:/home/tienluong/workspace/atlantis_fw/AsicFwS2/include/matrix.h **** }
 1311              		.loc 2 954 0
 1312 0046 8246     		mov	r10, r0
 1313              	.LVL146:
 1314              	.LBE1364:
 1315              	.LBE1370:
 1316              		.loc 4 83 0
 1317 0048 4FF07E50 		mov	r0, #1065353216
 1318              	.LVL147:
 1319 004c 5146     		mov	r1, r10
 1320 004e 9847     		blx	r3
 1321              	.LVL148:
 1322              	.LBB1371:
 1323              	.LBB1365:
 954:/home/tienluong/workspace/atlantis_fw/AsicFwS2/include/matrix.h **** }
 1324              		.loc 2 954 0
 1325 0050 6968     		ldr	r1, [r5, #4]	@ float
 1326              	.LBE1365:
 1327              	.LBE1371:
 1328              		.loc 4 83 0
 1329 0052 8346     		mov	fp, r0
 1330              	.LVL149:
 1331              	.LBB1372:
 1332              	.LBB1366:
 954:/home/tienluong/workspace/atlantis_fw/AsicFwS2/include/matrix.h **** }
 1333              		.loc 2 954 0
 1334 0054 4846     		mov	r0, r9
 1335              	.LVL150:
 1336 0056 A047     		blx	r4
 1337              	.LVL151:
 1338 0058 6969     		ldr	r1, [r5, #20]	@ float
 1339 005a 0190     		str	r0, [sp, #4]
 1340 005c 4046     		mov	r0, r8
 1341 005e A047     		blx	r4
 1342              	.LVL152:
 1343 0060 019B     		ldr	r3, [sp, #4]
 1344 0062 0146     		mov	r1, r0
 1345 0064 1846     		mov	r0, r3
 1346 0066 B047     		blx	r6
 1347              	.LVL153:
 1348 0068 696A     		ldr	r1, [r5, #36]	@ float
 1349 006a 0190     		str	r0, [sp, #4]
 1350 006c 0C98     		ldr	r0, [sp, #48]	@ float
 1351 006e A047     		blx	r4
 1352              	.LVL154:
 1353 0070 019B     		ldr	r3, [sp, #4]
 1354 0072 0146     		mov	r1, r0
 1355 0074 1846     		mov	r0, r3
 1356 0076 B047     		blx	r6
 1357              	.LVL155:
 1358 0078 696B     		ldr	r1, [r5, #52]	@ float
 1359 007a B047     		blx	r6
 1360              	.LVL156:
 1361              	.LBE1366:
 1362              	.LBE1372:
  84:/home/tienluong/workspace/atlantis_fw/AsicFwS2/src/calibclasses.cpp ****     return Vec3f( out.x() * inv_z, out.y() * inv_z, out.z() );
 1363              		.loc 4 84 0
 1364 007c 5946     		mov	r1, fp
 1365 007e A047     		blx	r4
 1366              	.LVL157:
 1367              	.LBB1373:
 1368              	.LBB1367:
 954:/home/tienluong/workspace/atlantis_fw/AsicFwS2/include/matrix.h **** }
 1369              		.loc 2 954 0
 1370 0080 2968     		ldr	r1, [r5]	@ float
 1371              	.LBE1367:
 1372              	.LBE1373:
 1373              		.loc 4 84 0
 1374 0082 0190     		str	r0, [sp, #4]
 1375              	.LVL158:
 1376              	.LBB1374:
 1377              	.LBB1368:
 954:/home/tienluong/workspace/atlantis_fw/AsicFwS2/include/matrix.h **** }
 1378              		.loc 2 954 0
 1379 0084 4846     		mov	r0, r9
 1380 0086 A047     		blx	r4
 1381              	.LVL159:
 1382 0088 2969     		ldr	r1, [r5, #16]	@ float
 1383 008a 8146     		mov	r9, r0
 1384              	.LVL160:
 1385 008c 4046     		mov	r0, r8
 1386 008e A047     		blx	r4
 1387              	.LVL161:
 1388 0090 0146     		mov	r1, r0
 1389 0092 4846     		mov	r0, r9
 1390 0094 B047     		blx	r6
 1391              	.LVL162:
 1392 0096 296A     		ldr	r1, [r5, #32]	@ float
 1393 0098 8046     		mov	r8, r0
 1394              	.LVL163:
 1395 009a 0C98     		ldr	r0, [sp, #48]	@ float
 1396 009c A047     		blx	r4
 1397              	.LVL164:
 1398 009e 0146     		mov	r1, r0
 1399 00a0 4046     		mov	r0, r8
 1400 00a2 B047     		blx	r6
 1401              	.LVL165:
 1402 00a4 296B     		ldr	r1, [r5, #48]	@ float
 1403 00a6 B047     		blx	r6
 1404              	.LVL166:
 1405              	.LBE1368:
 1406              	.LBE1374:
 1407              		.loc 4 84 0
 1408 00a8 5946     		mov	r1, fp
 1409 00aa A047     		blx	r4
 1410              	.LVL167:
 1411              	.LBB1375:
 1412              	.LBB1376:
 229:/home/tienluong/workspace/atlantis_fw/AsicFwS2/include/matrix.h ****     Vec3( const Vec3 & t ) : _x( t._x ), _y( t._y ), _z( t._z ) {}
 1413              		.loc 2 229 0
 1414 00ac 019B     		ldr	r3, [sp, #4]
 1415 00ae 7B60     		str	r3, [r7, #4]	@ float
 1416 00b0 C7F808A0 		str	r10, [r7, #8]	@ float
 1417 00b4 3860     		str	r0, [r7]	@ float
 1418              	.LBE1376:
 1419              	.LBE1375:
 1420              	.LBE1377:
  85:/home/tienluong/workspace/atlantis_fw/AsicFwS2/src/calibclasses.cpp **** }
 1421              		.loc 4 85 0
 1422 00b6 3846     		mov	r0, r7
 1423 00b8 03B0     		add	sp, sp, #12
 1424              	.LCFI18:
 1425              		.cfi_def_cfa_offset 36
 1426              		@ sp needed
 1427 00ba BDE8F08F 		pop	{r4, r5, r6, r7, r8, r9, r10, fp, pc}
 1428              	.LVL168:
 1429              	.L59:
 1430 00be 00BF     		.align	2
 1431              	.L58:
 1432 00c0 00000000 		.word	__aeabi_fmul
 1433 00c4 00000000 		.word	__aeabi_fadd
 1434 00c8 00000000 		.word	__aeabi_fdiv
 1435              		.cfi_endproc
 1436              	.LFE3334:
 1438              		.section	.text._ZN4ltaf16CalibDataManager14setMirrorTypesENS_10ModuleNameENS_10MirrorTypeE,"ax",%p
 1439              		.align	1
 1440              		.global	_ZN4ltaf16CalibDataManager14setMirrorTypesENS_10ModuleNameENS_10MirrorTypeE
 1441              		.thumb
 1442              		.thumb_func
 1444              	_ZN4ltaf16CalibDataManager14setMirrorTypesENS_10ModuleNameENS_10MirrorTypeE:
 1445              	.LFB3340:
  86:/home/tienluong/workspace/atlantis_fw/AsicFwS2/src/calibclasses.cpp **** 
  87:/home/tienluong/workspace/atlantis_fw/AsicFwS2/src/calibclasses.cpp **** 
  88:/home/tienluong/workspace/atlantis_fw/AsicFwS2/src/calibclasses.cpp **** float CalibUtils::depthGivenCorrespondence( const EpiField & epf,
  89:/home/tienluong/workspace/atlantis_fw/AsicFwS2/src/calibclasses.cpp ****                                    const CalibData & ref, const CalibData & src,
  90:/home/tienluong/workspace/atlantis_fw/AsicFwS2/src/calibclasses.cpp ****                                    float x, float y,
  91:/home/tienluong/workspace/atlantis_fw/AsicFwS2/src/calibclasses.cpp ****                                    float x_src, float y_src )
  92:/home/tienluong/workspace/atlantis_fw/AsicFwS2/src/calibclasses.cpp **** {
  93:/home/tienluong/workspace/atlantis_fw/AsicFwS2/src/calibclasses.cpp ****     SLOGF(SLOG_DEBUG, "depthGivenCorrespondence. x: %f, y: %f, x_src: %f, y_src: %f", x, y, x_src, 
  94:/home/tienluong/workspace/atlantis_fw/AsicFwS2/src/calibclasses.cpp **** 
  95:/home/tienluong/workspace/atlantis_fw/AsicFwS2/src/calibclasses.cpp ****     // We first project the source point to the epipolar line
  96:/home/tienluong/workspace/atlantis_fw/AsicFwS2/src/calibclasses.cpp ****     // induced by (x,y) on current image. Then compute the world coordinate (a1, a2)
  97:/home/tienluong/workspace/atlantis_fw/AsicFwS2/src/calibclasses.cpp ****     // and the baseline (b1, b2), and then use Laws of sines to reconstruct
  98:/home/tienluong/workspace/atlantis_fw/AsicFwS2/src/calibclasses.cpp ****     // the distance between object and camera 1.
  99:/home/tienluong/workspace/atlantis_fw/AsicFwS2/src/calibclasses.cpp **** 
 100:/home/tienluong/workspace/atlantis_fw/AsicFwS2/src/calibclasses.cpp ****     // We first project / correct the source point to the epipolar line
 101:/home/tienluong/workspace/atlantis_fw/AsicFwS2/src/calibclasses.cpp ****     // induced by ref image (x,y) onto the src image.
 102:/home/tienluong/workspace/atlantis_fw/AsicFwS2/src/calibclasses.cpp ****     Vec2f src_proj = epf( x, y ).closest( Vec2f( x_src, y_src ) );
 103:/home/tienluong/workspace/atlantis_fw/AsicFwS2/src/calibclasses.cpp ****     SLOGF(SLOG_DEBUG, "depthGivenCorrespondence. src_proj.x: %f, src_proj.y: %f", src_proj.x(), src
 104:/home/tienluong/workspace/atlantis_fw/AsicFwS2/src/calibclasses.cpp **** 
 105:/home/tienluong/workspace/atlantis_fw/AsicFwS2/src/calibclasses.cpp ****     // a1 is the vector from ref camera center to (x y 1) on the image plane
 106:/home/tienluong/workspace/atlantis_fw/AsicFwS2/src/calibclasses.cpp ****     Vec3f a1 = inverse( ref.K() ) * Vec3f( x, y, 1 );
 107:/home/tienluong/workspace/atlantis_fw/AsicFwS2/src/calibclasses.cpp ****     // a2 is the vector from src camera center to (x_src y_src 1) on the image plane
 108:/home/tienluong/workspace/atlantis_fw/AsicFwS2/src/calibclasses.cpp ****     Vec3f a2 = inverse( src.K() ) * Vec3f( src_proj.x(), src_proj.y(), 1 );
 109:/home/tienluong/workspace/atlantis_fw/AsicFwS2/src/calibclasses.cpp **** 
 110:/home/tienluong/workspace/atlantis_fw/AsicFwS2/src/calibclasses.cpp ****     // b1 is the vector from ref to src camera center, b2 is the other way round.
 111:/home/tienluong/workspace/atlantis_fw/AsicFwS2/src/calibclasses.cpp ****     Matrix3x3f refR_srcR_T = ref.R() * transpose( src.R() ); // ref R * (src R)^T
 112:/home/tienluong/workspace/atlantis_fw/AsicFwS2/src/calibclasses.cpp ****     Vec3f b1 =  ref.translation() - refR_srcR_T * src.translation();
 113:/home/tienluong/workspace/atlantis_fw/AsicFwS2/src/calibclasses.cpp ****     Vec3f b2 =  src.translation() - transpose( refR_srcR_T ) * ref.translation();
 114:/home/tienluong/workspace/atlantis_fw/AsicFwS2/src/calibclasses.cpp **** 
 115:/home/tienluong/workspace/atlantis_fw/AsicFwS2/src/calibclasses.cpp ****     float a1a1 = a1.dot( a1 );
 116:/home/tienluong/workspace/atlantis_fw/AsicFwS2/src/calibclasses.cpp ****     float b1b1 = b1.dot( b1 );
 117:/home/tienluong/workspace/atlantis_fw/AsicFwS2/src/calibclasses.cpp **** 
 118:/home/tienluong/workspace/atlantis_fw/AsicFwS2/src/calibclasses.cpp ****     // theta_i is the angle between a_i and b_i
 119:/home/tienluong/workspace/atlantis_fw/AsicFwS2/src/calibclasses.cpp ****     float cos_theta_1 = a1.dot( b1 ) / std::sqrt( a1a1 * b1b1 );
 120:/home/tienluong/workspace/atlantis_fw/AsicFwS2/src/calibclasses.cpp ****     float cos_theta_2 = a2.dot( b2 ) / std::sqrt( a2.dot( a2 ) * b2.dot( b2 ) );
 121:/home/tienluong/workspace/atlantis_fw/AsicFwS2/src/calibclasses.cpp ****     float sin_theta_1 = std::sqrt( 1 - cos_theta_1 * cos_theta_1 );
 122:/home/tienluong/workspace/atlantis_fw/AsicFwS2/src/calibclasses.cpp ****     float sin_theta_2 = std::sqrt( 1 - cos_theta_2 * cos_theta_2 );
 123:/home/tienluong/workspace/atlantis_fw/AsicFwS2/src/calibclasses.cpp **** 
 124:/home/tienluong/workspace/atlantis_fw/AsicFwS2/src/calibclasses.cpp ****     // phi is the angle between a1 and 2.
 125:/home/tienluong/workspace/atlantis_fw/AsicFwS2/src/calibclasses.cpp ****     float sin_phi =  sin_theta_1 * cos_theta_2 + sin_theta_2 * cos_theta_1;
 126:/home/tienluong/workspace/atlantis_fw/AsicFwS2/src/calibclasses.cpp ****     float s_theta2_phi = std::abs(sin_theta_2 / sin_phi);
 127:/home/tienluong/workspace/atlantis_fw/AsicFwS2/src/calibclasses.cpp ****     // world point to ref camera center dist / a1 length is equal to
 128:/home/tienluong/workspace/atlantis_fw/AsicFwS2/src/calibclasses.cpp ****     // world point depth / 1.
 129:/home/tienluong/workspace/atlantis_fw/AsicFwS2/src/calibclasses.cpp ****     // depth = dist / a1 length
 130:/home/tienluong/workspace/atlantis_fw/AsicFwS2/src/calibclasses.cpp ****     // where dist / sin theta_2 = b1 length / sin phi.
 131:/home/tienluong/workspace/atlantis_fw/AsicFwS2/src/calibclasses.cpp **** 
 132:/home/tienluong/workspace/atlantis_fw/AsicFwS2/src/calibclasses.cpp ****     float d = s_theta2_phi * std::sqrt(b1b1 / a1a1);
 133:/home/tienluong/workspace/atlantis_fw/AsicFwS2/src/calibclasses.cpp **** 
 134:/home/tienluong/workspace/atlantis_fw/AsicFwS2/src/calibclasses.cpp ****     SLOGF(SLOG_DEBUG, "depthGivenCorrespondence. d: %f, sin_phi: %f", d, sin_phi);
 135:/home/tienluong/workspace/atlantis_fw/AsicFwS2/src/calibclasses.cpp **** 
 136:/home/tienluong/workspace/atlantis_fw/AsicFwS2/src/calibclasses.cpp ****     return sin_phi > 0 ? d : 0.0f;
 137:/home/tienluong/workspace/atlantis_fw/AsicFwS2/src/calibclasses.cpp **** }
 138:/home/tienluong/workspace/atlantis_fw/AsicFwS2/src/calibclasses.cpp **** 
 139:/home/tienluong/workspace/atlantis_fw/AsicFwS2/src/calibclasses.cpp **** // compute depth given point to point correspondence
 140:/home/tienluong/workspace/atlantis_fw/AsicFwS2/src/calibclasses.cpp **** float CalibUtils::depthGivenCorrespondence( const CalibData & ref,
 141:/home/tienluong/workspace/atlantis_fw/AsicFwS2/src/calibclasses.cpp ****                                        const CalibData & src,
 142:/home/tienluong/workspace/atlantis_fw/AsicFwS2/src/calibclasses.cpp ****                                        float x, float y,
 143:/home/tienluong/workspace/atlantis_fw/AsicFwS2/src/calibclasses.cpp ****                                        float x_src, float y_src )
 144:/home/tienluong/workspace/atlantis_fw/AsicFwS2/src/calibclasses.cpp **** {
 145:/home/tienluong/workspace/atlantis_fw/AsicFwS2/src/calibclasses.cpp ****     // We first project the source point to the epipolar line
 146:/home/tienluong/workspace/atlantis_fw/AsicFwS2/src/calibclasses.cpp ****     // induced by (x,y) on current image. Then compute the world coordinate (a1, a2)
 147:/home/tienluong/workspace/atlantis_fw/AsicFwS2/src/calibclasses.cpp ****     // and the baseline (b1, b2), and then use Laws of sines to reconstruct
 148:/home/tienluong/workspace/atlantis_fw/AsicFwS2/src/calibclasses.cpp ****     // the distance between object and camera 1.
 149:/home/tienluong/workspace/atlantis_fw/AsicFwS2/src/calibclasses.cpp **** 
 150:/home/tienluong/workspace/atlantis_fw/AsicFwS2/src/calibclasses.cpp ****     EpiField epf( ref, src );
 151:/home/tienluong/workspace/atlantis_fw/AsicFwS2/src/calibclasses.cpp ****     return depthGivenCorrespondence(epf, ref, src, x, y, x_src, y_src);
 152:/home/tienluong/workspace/atlantis_fw/AsicFwS2/src/calibclasses.cpp **** }
 153:/home/tienluong/workspace/atlantis_fw/AsicFwS2/src/calibclasses.cpp **** 
 154:/home/tienluong/workspace/atlantis_fw/AsicFwS2/src/calibclasses.cpp **** // ----------------- calib data manager ---------------------
 155:/home/tienluong/workspace/atlantis_fw/AsicFwS2/src/calibclasses.cpp **** 
 156:/home/tienluong/workspace/atlantis_fw/AsicFwS2/src/calibclasses.cpp **** CalibDataManager::CalibDataManager(const Ltpb__LightHeader& lh) {
 157:/home/tienluong/workspace/atlantis_fw/AsicFwS2/src/calibclasses.cpp ****     if (!parseGeometricCalibData(lh)) {
 158:/home/tienluong/workspace/atlantis_fw/AsicFwS2/src/calibclasses.cpp ****         SLOGF(SLOG_ERROR, "Parsing calibration protobuf failed...");
 159:/home/tienluong/workspace/atlantis_fw/AsicFwS2/src/calibclasses.cpp ****     }
 160:/home/tienluong/workspace/atlantis_fw/AsicFwS2/src/calibclasses.cpp **** }
 161:/home/tienluong/workspace/atlantis_fw/AsicFwS2/src/calibclasses.cpp **** 
 162:/home/tienluong/workspace/atlantis_fw/AsicFwS2/src/calibclasses.cpp **** void CalibDataManager::setMirrorTypes(ModuleName m, MirrorType t){
 1446              		.loc 4 162 0
 1447              		.cfi_startproc
 1448              		@ args = 0, pretend = 0, frame = 0
 1449              		@ frame_needed = 0, uses_anonymous_args = 0
 1450              		@ link register save eliminated.
 1451              	.LVL169:
 163:/home/tienluong/workspace/atlantis_fw/AsicFwS2/src/calibclasses.cpp ****     _cam_mirror_types[m] = t;
 1452              		.loc 4 163 0
 1453 0000 0144     		add	r1, r1, r0
 1454              	.LVL170:
 1455 0002 81F84020 		strb	r2, [r1, #64]
 1456 0006 7047     		bx	lr
 1457              		.cfi_endproc
 1458              	.LFE3340:
 1460              		.section	.text._ZNK4ltaf16CalibDataManager18isModuleCalibratedENS_10ModuleNameE,"ax",%progbits
 1461              		.align	1
 1462              		.global	_ZNK4ltaf16CalibDataManager18isModuleCalibratedENS_10ModuleNameE
 1463              		.thumb
 1464              		.thumb_func
 1466              	_ZNK4ltaf16CalibDataManager18isModuleCalibratedENS_10ModuleNameE:
 1467              	.LFB3341:
 164:/home/tienluong/workspace/atlantis_fw/AsicFwS2/src/calibclasses.cpp **** }
 165:/home/tienluong/workspace/atlantis_fw/AsicFwS2/src/calibclasses.cpp **** 
 166:/home/tienluong/workspace/atlantis_fw/AsicFwS2/src/calibclasses.cpp **** //whether we have calibration data for this module
 167:/home/tienluong/workspace/atlantis_fw/AsicFwS2/src/calibclasses.cpp **** bool CalibDataManager::isModuleCalibrated(ModuleName m) const{
 1468              		.loc 4 167 0
 1469              		.cfi_startproc
 1470              		@ args = 0, pretend = 0, frame = 0
 1471              		@ frame_needed = 0, uses_anonymous_args = 0
 1472              		@ link register save eliminated.
 1473              	.LVL171:
 168:/home/tienluong/workspace/atlantis_fw/AsicFwS2/src/calibclasses.cpp ****     return _cam_params[m].get()!=nullptr;
 1474              		.loc 4 168 0
 1475 0000 50F82100 		ldr	r0, [r0, r1, lsl #2]
 1476              	.LVL172:
 169:/home/tienluong/workspace/atlantis_fw/AsicFwS2/src/calibclasses.cpp **** }
 1477              		.loc 4 169 0
 1478 0004 0030     		adds	r0, r0, #0
 1479 0006 18BF     		it	ne
 1480 0008 0120     		movne	r0, #1
 1481 000a 7047     		bx	lr
 1482              		.cfi_endproc
 1483              	.LFE3341:
 1485              		.section	.text._ZNK4ltaf16CalibDataManager22isModuleMirrorMoveableENS_10ModuleNameE,"ax",%progbits
 1486              		.align	1
 1487              		.global	_ZNK4ltaf16CalibDataManager22isModuleMirrorMoveableENS_10ModuleNameE
 1488              		.thumb
 1489              		.thumb_func
 1491              	_ZNK4ltaf16CalibDataManager22isModuleMirrorMoveableENS_10ModuleNameE:
 1492              	.LFB3342:
 170:/home/tienluong/workspace/atlantis_fw/AsicFwS2/src/calibclasses.cpp **** 
 171:/home/tienluong/workspace/atlantis_fw/AsicFwS2/src/calibclasses.cpp **** bool CalibDataManager::isModuleMirrorMoveable(ModuleName m) const {
 1493              		.loc 4 171 0
 1494              		.cfi_startproc
 1495              		@ args = 0, pretend = 0, frame = 0
 1496              		@ frame_needed = 0, uses_anonymous_args = 0
 1497              		@ link register save eliminated.
 1498              	.LVL173:
 172:/home/tienluong/workspace/atlantis_fw/AsicFwS2/src/calibclasses.cpp ****     return _cam_mirror_types[m] == MirrorType::Moveable;
 1499              		.loc 4 172 0
 1500 0000 0144     		add	r1, r1, r0
 1501              	.LVL174:
 1502 0002 91F84000 		ldrb	r0, [r1, #64]	@ zero_extendqisi2
 1503              	.LVL175:
 173:/home/tienluong/workspace/atlantis_fw/AsicFwS2/src/calibclasses.cpp **** }
 1504              		.loc 4 173 0
 1505 0006 431E     		subs	r3, r0, #1
 1506 0008 5842     		rsbs	r0, r3, #0
 1507 000a 5841     		adcs	r0, r0, r3
 1508 000c 7047     		bx	lr
 1509              		.cfi_endproc
 1510              	.LFE3342:
 1512              		.section	.text._ZNK4ltaf16CalibDataManager12getCamParamsENS_10ModuleNameE,"ax",%progbits
 1513              		.align	1
 1514              		.global	_ZNK4ltaf16CalibDataManager12getCamParamsENS_10ModuleNameE
 1515              		.thumb
 1516              		.thumb_func
 1518              	_ZNK4ltaf16CalibDataManager12getCamParamsENS_10ModuleNameE:
 1519              	.LFB3343:
 174:/home/tienluong/workspace/atlantis_fw/AsicFwS2/src/calibclasses.cpp **** 
 175:/home/tienluong/workspace/atlantis_fw/AsicFwS2/src/calibclasses.cpp **** const CalibDataBase * CalibDataManager::getCamParams(ModuleName m) const {
 1520              		.loc 4 175 0
 1521              		.cfi_startproc
 1522              		@ args = 0, pretend = 0, frame = 0
 1523              		@ frame_needed = 0, uses_anonymous_args = 0
 1524              		@ link register save eliminated.
 1525              	.LVL176:
 176:/home/tienluong/workspace/atlantis_fw/AsicFwS2/src/calibclasses.cpp ****     return _cam_params[m].get();
 177:/home/tienluong/workspace/atlantis_fw/AsicFwS2/src/calibclasses.cpp **** }
 1526              		.loc 4 177 0
 1527 0000 50F82100 		ldr	r0, [r0, r1, lsl #2]
 1528              	.LVL177:
 1529 0004 7047     		bx	lr
 1530              		.cfi_endproc
 1531              	.LFE3343:
 1533              		.section	.text._ZN4ltaf16CalibDataManager17parseMirrorSystemEPK19_Ltpb__MirrorSystemRNS_14MirrorSy
 1534              		.align	1
 1535              		.global	_ZN4ltaf16CalibDataManager17parseMirrorSystemEPK19_Ltpb__MirrorSystemRNS_14MirrorSysParamE
 1536              		.thumb
 1537              		.thumb_func
 1539              	_ZN4ltaf16CalibDataManager17parseMirrorSystemEPK19_Ltpb__MirrorSystemRNS_14MirrorSysParamE:
 1540              	.LFB3344:
 178:/home/tienluong/workspace/atlantis_fw/AsicFwS2/src/calibclasses.cpp **** 
 179:/home/tienluong/workspace/atlantis_fw/AsicFwS2/src/calibclasses.cpp **** 
 180:/home/tienluong/workspace/atlantis_fw/AsicFwS2/src/calibclasses.cpp **** void CalibDataManager::parseMirrorSystem(const Ltpb__MirrorSystem * m, MirrorSysParam & msp){
 1541              		.loc 4 180 0
 1542              		.cfi_startproc
 1543              		@ args = 0, pretend = 0, frame = 176
 1544              		@ frame_needed = 0, uses_anonymous_args = 0
 1545              	.LVL178:
 181:/home/tienluong/workspace/atlantis_fw/AsicFwS2/src/calibclasses.cpp ****     msp = MirrorSysParam({
 1546              		.loc 4 181 0
 1547 0000 0B69     		ldr	r3, [r1, #16]
 180:/home/tienluong/workspace/atlantis_fw/AsicFwS2/src/calibclasses.cpp ****     msp = MirrorSysParam({
 1548              		.loc 4 180 0
 1549 0002 2DE9F04F 		push	{r4, r5, r6, r7, r8, r9, r10, fp, lr}
 1550              	.LCFI19:
 1551              		.cfi_def_cfa_offset 36
 1552              		.cfi_offset 4, -36
 1553              		.cfi_offset 5, -32
 1554              		.cfi_offset 6, -28
 1555              		.cfi_offset 7, -24
 1556              		.cfi_offset 8, -20
 1557              		.cfi_offset 9, -16
 1558              		.cfi_offset 10, -12
 1559              		.cfi_offset 11, -8
 1560              		.cfi_offset 14, -4
 1561 0006 ADB0     		sub	sp, sp, #180
 1562              	.LCFI20:
 1563              		.cfi_def_cfa_offset 216
 180:/home/tienluong/workspace/atlantis_fw/AsicFwS2/src/calibclasses.cpp ****     msp = MirrorSysParam({
 1564              		.loc 4 180 0
 1565 0008 1446     		mov	r4, r2
 1566 000a 0D46     		mov	r5, r1
 1567              		.loc 4 181 0
 1568 000c DA68     		ldr	r2, [r3, #12]	@ float
 1569              	.LVL179:
 1570              	.LBB1402:
 1571              	.LBB1403:
 596:/home/tienluong/workspace/atlantis_fw/AsicFwS2/include/matrix.h **** 
 1572              		.loc 2 596 0
 1573 000e 0AA9     		add	r1, sp, #40
 1574              	.LVL180:
 1575              	.LBE1403:
 1576              	.LBE1402:
 1577              		.loc 4 181 0
 1578 0010 0A92     		str	r2, [sp, #40]	@ float
 1579              	.LBB1407:
 1580              	.LBB1404:
 596:/home/tienluong/workspace/atlantis_fw/AsicFwS2/include/matrix.h **** 
 1581              		.loc 2 596 0
 1582 0012 13A8     		add	r0, sp, #76
 1583              	.LVL181:
 1584              	.LBE1404:
 1585              	.LBE1407:
 1586              		.loc 4 181 0
 1587 0014 1A69     		ldr	r2, [r3, #16]	@ float
 1588              	.LBB1408:
 1589              	.LBB1409:
 1590              		.loc 3 31 0
 1591 0016 2646     		mov	r6, r4
 1592              	.LBE1409:
 1593              	.LBE1408:
 1594              		.loc 4 181 0
 1595 0018 0B92     		str	r2, [sp, #44]	@ float
 1596 001a 5A69     		ldr	r2, [r3, #20]	@ float
 1597 001c 0C92     		str	r2, [sp, #48]	@ float
 1598 001e 9A69     		ldr	r2, [r3, #24]	@ float
 1599 0020 0D92     		str	r2, [sp, #52]	@ float
 1600 0022 DA69     		ldr	r2, [r3, #28]	@ float
 1601 0024 0E92     		str	r2, [sp, #56]	@ float
 1602 0026 1A6A     		ldr	r2, [r3, #32]	@ float
 1603 0028 0F92     		str	r2, [sp, #60]	@ float
 1604 002a 5A6A     		ldr	r2, [r3, #36]	@ float
 1605 002c 1092     		str	r2, [sp, #64]	@ float
 1606 002e 9A6A     		ldr	r2, [r3, #40]	@ float
 1607 0030 DB6A     		ldr	r3, [r3, #44]	@ float
 1608 0032 1293     		str	r3, [sp, #72]	@ float
 1609              	.LVL182:
 1610              	.LBB1426:
 1611              	.LBB1405:
 596:/home/tienluong/workspace/atlantis_fw/AsicFwS2/include/matrix.h **** 
 1612              		.loc 2 596 0
 1613 0034 2A4B     		ldr	r3, .L65
 1614              	.LBE1405:
 1615              	.LBE1426:
 1616              		.loc 4 181 0
 1617 0036 1192     		str	r2, [sp, #68]	@ float
 1618              	.LBB1427:
 1619              	.LBB1406:
 596:/home/tienluong/workspace/atlantis_fw/AsicFwS2/include/matrix.h **** 
 1620              		.loc 2 596 0
 1621 0038 9847     		blx	r3
 1622              	.LVL183:
 1623              	.LBE1406:
 1624              	.LBE1427:
 1625              		.loc 4 181 0
 1626 003a EB68     		ldr	r3, [r5, #12]
 182:/home/tienluong/workspace/atlantis_fw/AsicFwS2/src/calibclasses.cpp ****         Matrix3x3f{   m->real_camera_orientation->x00,m->real_camera_orientation->x01,m->real_camer
 183:/home/tienluong/workspace/atlantis_fw/AsicFwS2/src/calibclasses.cpp ****                       m->real_camera_orientation->x10,m->real_camera_orientation->x11,m->real_camer
 184:/home/tienluong/workspace/atlantis_fw/AsicFwS2/src/calibclasses.cpp ****                       m->real_camera_orientation->x20,m->real_camera_orientation->x21,m->real_camer
 185:/home/tienluong/workspace/atlantis_fw/AsicFwS2/src/calibclasses.cpp ****         Vec3f{m->real_camera_location->x, m->real_camera_location->y, m->real_camera_location->z },
 186:/home/tienluong/workspace/atlantis_fw/AsicFwS2/src/calibclasses.cpp ****         Vec3f{m->point_on_rotation_axis->x, m->point_on_rotation_axis->y, m->point_on_rotation_axis
 187:/home/tienluong/workspace/atlantis_fw/AsicFwS2/src/calibclasses.cpp ****         Vec3f{m->rotation_axis->x, m->rotation_axis->y, m->rotation_axis->z},
 188:/home/tienluong/workspace/atlantis_fw/AsicFwS2/src/calibclasses.cpp ****         Vec3f{m->mirror_normal_at_zero_degrees->x, m->mirror_normal_at_zero_degrees->y, m->mirror_n
 189:/home/tienluong/workspace/atlantis_fw/AsicFwS2/src/calibclasses.cpp ****         m->distance_mirror_plane_to_point_on_rotation_axis,
 190:/home/tienluong/workspace/atlantis_fw/AsicFwS2/src/calibclasses.cpp ****         (m->flip_img_around_x)>0, // protobuf-c-boolean is int
 1627              		.loc 4 190 0
 1628 003c 6F6A     		ldr	r7, [r5, #36]
 181:/home/tienluong/workspace/atlantis_fw/AsicFwS2/src/calibclasses.cpp ****         Matrix3x3f{   m->real_camera_orientation->x00,m->real_camera_orientation->x01,m->real_camer
 1629              		.loc 4 181 0
 1630 003e D3F80CB0 		ldr	fp, [r3, #12]	@ float
 1631              		.loc 4 190 0
 1632 0042 002F     		cmp	r7, #0
 181:/home/tienluong/workspace/atlantis_fw/AsicFwS2/src/calibclasses.cpp ****         Matrix3x3f{   m->real_camera_orientation->x00,m->real_camera_orientation->x01,m->real_camer
 1633              		.loc 4 181 0
 1634 0044 D3F810A0 		ldr	r10, [r3, #16]	@ float
 1635              		.loc 4 190 0
 1636 0048 D8BF     		it	le
 1637 004a 0027     		movle	r7, #0
 181:/home/tienluong/workspace/atlantis_fw/AsicFwS2/src/calibclasses.cpp ****         Matrix3x3f{   m->real_camera_orientation->x00,m->real_camera_orientation->x01,m->real_camer
 1638              		.loc 4 181 0
 1639 004c D3F81490 		ldr	r9, [r3, #20]	@ float
 1640              	.LVL184:
 1641              		.loc 4 190 0
 1642 0050 C8BF     		it	gt
 1643 0052 0127     		movgt	r7, #1
 181:/home/tienluong/workspace/atlantis_fw/AsicFwS2/src/calibclasses.cpp ****         Matrix3x3f{   m->real_camera_orientation->x00,m->real_camera_orientation->x01,m->real_camer
 1644              		.loc 4 181 0
 1645 0054 AB69     		ldr	r3, [r5, #24]
 1646 0056 D3F80C80 		ldr	r8, [r3, #12]	@ float
 1647 005a 1A69     		ldr	r2, [r3, #16]	@ float
 1648 005c 5B69     		ldr	r3, [r3, #20]	@ float
 1649 005e 0293     		str	r3, [sp, #8]	@ float
 1650              	.LVL185:
 1651 0060 6B69     		ldr	r3, [r5, #20]
 1652              	.LVL186:
 1653 0062 0192     		str	r2, [sp, #4]	@ float
 1654              	.LVL187:
 1655 0064 DA68     		ldr	r2, [r3, #12]	@ float
 1656 0066 0392     		str	r2, [sp, #12]	@ float
 1657 0068 1A69     		ldr	r2, [r3, #16]	@ float
 1658 006a 5B69     		ldr	r3, [r3, #20]	@ float
 1659 006c 0593     		str	r3, [sp, #20]	@ float
 1660              	.LVL188:
 1661 006e 2B6A     		ldr	r3, [r5, #32]
 1662              	.LVL189:
 1663 0070 0492     		str	r2, [sp, #16]	@ float
 1664              	.LVL190:
 1665 0072 DA68     		ldr	r2, [r3, #12]	@ float
 1666 0074 0692     		str	r2, [sp, #24]	@ float
 1667 0076 1A69     		ldr	r2, [r3, #16]	@ float
 1668 0078 5B69     		ldr	r3, [r3, #20]	@ float
 1669 007a 0893     		str	r3, [sp, #32]	@ float
 1670              	.LVL191:
 1671 007c EB69     		ldr	r3, [r5, #28]	@ float
 1672              	.LVL192:
 1673 007e 0993     		str	r3, [sp, #36]	@ float
 1674 0080 AB6A     		ldr	r3, [r5, #40]
 1675              	.LBB1428:
 1676              	.LBB1424:
 1677              		.loc 3 31 0
 1678 0082 13AD     		add	r5, sp, #76
 1679              	.LVL193:
 1680              	.LBE1424:
 1681              	.LBE1428:
 181:/home/tienluong/workspace/atlantis_fw/AsicFwS2/src/calibclasses.cpp ****         Matrix3x3f{   m->real_camera_orientation->x00,m->real_camera_orientation->x01,m->real_camer
 1682              		.loc 4 181 0
 1683 0084 0792     		str	r2, [sp, #28]	@ float
 1684              	.LVL194:
 1685 0086 D3F80CC0 		ldr	ip, [r3, #12]	@ float
 1686 008a D3F810E0 		ldr	lr, [r3, #16]	@ float
 1687              	.LVL195:
 1688              	.LBB1429:
 1689              	.LBB1425:
 1690              		.loc 3 31 0
 1691 008e 0FCD     		ldmia	r5!, {r0, r1, r2, r3}
 1692              	.LVL196:
 1693 0090 0FC6     		stmia	r6!, {r0, r1, r2, r3}
 1694 0092 0FCD     		ldmia	r5!, {r0, r1, r2, r3}
 1695              	.LVL197:
 1696 0094 0FC6     		stmia	r6!, {r0, r1, r2, r3}
 1697 0096 2B68     		ldr	r3, [r5]
 1698 0098 3360     		str	r3, [r6]
 1699              	.LVL198:
 1700              	.LBB1410:
 1701              	.LBB1411:
 239:/home/tienluong/workspace/atlantis_fw/AsicFwS2/include/matrix.h **** 
 1702              		.loc 2 239 0
 1703 009a 019B     		ldr	r3, [sp, #4]	@ float
 1704 009c 6363     		str	r3, [r4, #52]	@ float
 1705 009e 029B     		ldr	r3, [sp, #8]	@ float
 1706 00a0 A363     		str	r3, [r4, #56]	@ float
 1707              	.LBE1411:
 1708              	.LBE1410:
 1709              	.LBB1413:
 1710              	.LBB1414:
 1711 00a2 039B     		ldr	r3, [sp, #12]	@ float
 1712 00a4 E363     		str	r3, [r4, #60]	@ float
 1713 00a6 049B     		ldr	r3, [sp, #16]	@ float
 1714 00a8 2364     		str	r3, [r4, #64]	@ float
 1715 00aa 059B     		ldr	r3, [sp, #20]	@ float
 1716 00ac 6364     		str	r3, [r4, #68]	@ float
 1717              	.LBE1414:
 1718              	.LBE1413:
 1719              	.LBB1415:
 1720              	.LBB1416:
 1721 00ae 069B     		ldr	r3, [sp, #24]	@ float
 1722 00b0 A364     		str	r3, [r4, #72]	@ float
 1723 00b2 079B     		ldr	r3, [sp, #28]	@ float
 1724              	.LBE1416:
 1725              	.LBE1415:
 1726              	.LBB1418:
 1727              	.LBB1419:
 1728 00b4 C4F824B0 		str	fp, [r4, #36]	@ float
 1729 00b8 C4F828A0 		str	r10, [r4, #40]	@ float
 1730 00bc C4F82C90 		str	r9, [r4, #44]	@ float
 1731              	.LVL199:
 1732              	.LBE1419:
 1733              	.LBE1418:
 1734              	.LBB1420:
 1735              	.LBB1412:
 1736 00c0 C4F83080 		str	r8, [r4, #48]	@ float
 1737              	.LBE1412:
 1738              	.LBE1420:
 1739              	.LBB1421:
 1740              	.LBB1417:
 1741 00c4 E364     		str	r3, [r4, #76]	@ float
 1742 00c6 089B     		ldr	r3, [sp, #32]	@ float
 1743 00c8 2365     		str	r3, [r4, #80]	@ float
 1744              	.LBE1417:
 1745              	.LBE1421:
 1746              		.loc 3 31 0
 1747 00ca 099B     		ldr	r3, [sp, #36]	@ float
 1748 00cc 6365     		str	r3, [r4, #84]	@ float
 1749 00ce 84F85870 		strb	r7, [r4, #88]
 1750              	.LVL200:
 1751              	.LBB1422:
 1752              	.LBB1423:
  34:/home/tienluong/workspace/atlantis_fw/AsicFwS2/include/matrix.h **** 
 1753              		.loc 2 34 0
 1754 00d2 C4F85CC0 		str	ip, [r4, #92]	@ float
 1755 00d6 C4F860E0 		str	lr, [r4, #96]	@ float
 1756              	.LBE1423:
 1757              	.LBE1422:
 1758              	.LBE1425:
 1759              	.LBE1429:
 191:/home/tienluong/workspace/atlantis_fw/AsicFwS2/src/calibclasses.cpp ****         Vec2f{m->mirror_angle_range->min_val, m->mirror_angle_range->max_val}
 192:/home/tienluong/workspace/atlantis_fw/AsicFwS2/src/calibclasses.cpp ****     });
 193:/home/tienluong/workspace/atlantis_fw/AsicFwS2/src/calibclasses.cpp **** }
 1760              		.loc 4 193 0
 1761 00da 2DB0     		add	sp, sp, #180
 1762              	.LCFI21:
 1763              		.cfi_def_cfa_offset 36
 1764              		@ sp needed
 1765 00dc BDE8F08F 		pop	{r4, r5, r6, r7, r8, r9, r10, fp, pc}
 1766              	.LVL201:
 1767              	.L66:
 1768              		.align	2
 1769              	.L65:
 1770 00e0 00000000 		.word	_ZN4ltaf6MatrixIfLi3ELi3ELb1EEaSESt16initializer_listIfE.isra.6
 1771              		.cfi_endproc
 1772              	.LFE3344:
 1774              		.section	.text._ZN4ltaf16CalibDataManager26parseMirrorActuatorMappingEPK28_Ltpb__MirrorActuatorMap
 1775              		.align	1
 1776              		.global	_ZN4ltaf16CalibDataManager26parseMirrorActuatorMappingEPK28_Ltpb__MirrorActuatorMappingRNS
 1777              		.thumb
 1778              		.thumb_func
 1780              	_ZN4ltaf16CalibDataManager26parseMirrorActuatorMappingEPK28_Ltpb__MirrorActuatorMappingRNS_21Mirror
 1781              	.LFB3349:
 194:/home/tienluong/workspace/atlantis_fw/AsicFwS2/src/calibclasses.cpp **** 
 195:/home/tienluong/workspace/atlantis_fw/AsicFwS2/src/calibclasses.cpp **** 
 196:/home/tienluong/workspace/atlantis_fw/AsicFwS2/src/calibclasses.cpp **** void CalibDataManager::parseMirrorActuatorMapping(const Ltpb__MirrorActuatorMapping * m, MirrorActu
 1782              		.loc 4 196 0
 1783              		.cfi_startproc
 1784              		@ args = 0, pretend = 0, frame = 0
 1785              		@ frame_needed = 0, uses_anonymous_args = 0
 1786              	.LVL202:
 197:/home/tienluong/workspace/atlantis_fw/AsicFwS2/src/calibclasses.cpp ****     mam = MirrorActuatorMapping({
 198:/home/tienluong/workspace/atlantis_fw/AsicFwS2/src/calibclasses.cpp ****         m->actuator_length_offset, m->actuator_length_scale, m->mirror_angle_offset, m->mirror_angl
 199:/home/tienluong/workspace/atlantis_fw/AsicFwS2/src/calibclasses.cpp ****         m->quadratic_model->model_coeffs[3], m->quadratic_model->model_coeffs[4], m->quadratic_mode
 1787              		.loc 4 199 0
 1788 0000 886A     		ldr	r0, [r1, #40]
 1789              	.LVL203:
 196:/home/tienluong/workspace/atlantis_fw/AsicFwS2/src/calibclasses.cpp ****     mam = MirrorActuatorMapping({
 1790              		.loc 4 196 0
 1791 0002 F0B5     		push	{r4, r5, r6, r7, lr}
 1792              	.LCFI22:
 1793              		.cfi_def_cfa_offset 20
 1794              		.cfi_offset 4, -20
 1795              		.cfi_offset 5, -16
 1796              		.cfi_offset 6, -12
 1797              		.cfi_offset 7, -8
 1798              		.cfi_offset 14, -4
 1799              		.loc 4 199 0
 1800 0004 C369     		ldr	r3, [r0, #28]
 200:/home/tienluong/workspace/atlantis_fw/AsicFwS2/src/calibclasses.cpp ****         m->quadratic_model->use_rplus_for_left_segment > 0 // int to bool
 201:/home/tienluong/workspace/atlantis_fw/AsicFwS2/src/calibclasses.cpp ****     });
 1801              		.loc 4 201 0
 1802 0006 D1F814C0 		ldr	ip, [r1, #20]	@ float
 1803 000a D1F818E0 		ldr	lr, [r1, #24]	@ float
 199:/home/tienluong/workspace/atlantis_fw/AsicFwS2/src/calibclasses.cpp ****         m->quadratic_model->use_rplus_for_left_segment > 0 // int to bool
 1804              		.loc 4 199 0
 1805 000e DE68     		ldr	r6, [r3, #12]	@ float
 1806 0010 1D69     		ldr	r5, [r3, #16]	@ float
 1807 0012 5C69     		ldr	r4, [r3, #20]	@ float
 200:/home/tienluong/workspace/atlantis_fw/AsicFwS2/src/calibclasses.cpp ****         m->quadratic_model->use_rplus_for_left_segment > 0 // int to bool
 1808              		.loc 4 200 0
 1809 0014 C368     		ldr	r3, [r0, #12]
 1810              		.loc 4 201 0
 1811 0016 CF69     		ldr	r7, [r1, #28]	@ float
 200:/home/tienluong/workspace/atlantis_fw/AsicFwS2/src/calibclasses.cpp ****         m->quadratic_model->use_rplus_for_left_segment > 0 // int to bool
 1812              		.loc 4 200 0
 1813 0018 002B     		cmp	r3, #0
 1814 001a D4BF     		ite	le
 1815 001c 0023     		movle	r3, #0
 1816 001e 0123     		movgt	r3, #1
 1817              		.loc 4 201 0
 1818 0020 0969     		ldr	r1, [r1, #16]	@ float
 1819              	.LVL204:
 1820 0022 1160     		str	r1, [r2]	@ float
 1821 0024 C2F804C0 		str	ip, [r2, #4]	@ float
 1822 0028 C2F808E0 		str	lr, [r2, #8]	@ float
 1823 002c D760     		str	r7, [r2, #12]	@ float
 1824 002e 1661     		str	r6, [r2, #16]	@ float
 1825 0030 5561     		str	r5, [r2, #20]	@ float
 1826 0032 9461     		str	r4, [r2, #24]	@ float
 1827 0034 1377     		strb	r3, [r2, #28]
 1828 0036 F0BD     		pop	{r4, r5, r6, r7, pc}
 1829              		.cfi_endproc
 1830              	.LFE3349:
 1832              		.section	.text._ZN4ltaf16CalibDataManager21setDefaultMirrorTypesEv,"ax",%progbits
 1833              		.align	1
 1834              		.global	_ZN4ltaf16CalibDataManager21setDefaultMirrorTypesEv
 1835              		.thumb
 1836              		.thumb_func
 1838              	_ZN4ltaf16CalibDataManager21setDefaultMirrorTypesEv:
 1839              	.LFB3351:
 202:/home/tienluong/workspace/atlantis_fw/AsicFwS2/src/calibclasses.cpp **** }
 203:/home/tienluong/workspace/atlantis_fw/AsicFwS2/src/calibclasses.cpp **** 
 204:/home/tienluong/workspace/atlantis_fw/AsicFwS2/src/calibclasses.cpp **** bool CalibDataManager::parseGeometricCalibData(const Ltpb__LightHeader& lh) {
 205:/home/tienluong/workspace/atlantis_fw/AsicFwS2/src/calibclasses.cpp **** 
 206:/home/tienluong/workspace/atlantis_fw/AsicFwS2/src/calibclasses.cpp ****     // parse the data
 207:/home/tienluong/workspace/atlantis_fw/AsicFwS2/src/calibclasses.cpp ****     SLOGF(SLOG_DEBUG, "Found %i factory module calibration", int(lh.n_module_calibration));
 208:/home/tienluong/workspace/atlantis_fw/AsicFwS2/src/calibclasses.cpp ****     for (std::size_t i = 0; i < lh.n_module_calibration; ++i) {
 209:/home/tienluong/workspace/atlantis_fw/AsicFwS2/src/calibclasses.cpp ****         
 210:/home/tienluong/workspace/atlantis_fw/AsicFwS2/src/calibclasses.cpp ****         Ltpb__FactoryModuleCalibration * fmc = lh.module_calibration[i];
 211:/home/tienluong/workspace/atlantis_fw/AsicFwS2/src/calibclasses.cpp ****         ModuleName curr_module_name = static_cast<ModuleName>(fmc->camera_id);
 212:/home/tienluong/workspace/atlantis_fw/AsicFwS2/src/calibclasses.cpp ****         SLOGF(SLOG_DEBUG, "Current camera id = %i", int(fmc->camera_id));
 213:/home/tienluong/workspace/atlantis_fw/AsicFwS2/src/calibclasses.cpp **** 
 214:/home/tienluong/workspace/atlantis_fw/AsicFwS2/src/calibclasses.cpp ****         Ltpb__GeometricCalibration * geometry = fmc->geometry;
 215:/home/tienluong/workspace/atlantis_fw/AsicFwS2/src/calibclasses.cpp **** 
 216:/home/tienluong/workspace/atlantis_fw/AsicFwS2/src/calibclasses.cpp ****         bool calib_w_mirror = false;
 217:/home/tienluong/workspace/atlantis_fw/AsicFwS2/src/calibclasses.cpp **** 
 218:/home/tienluong/workspace/atlantis_fw/AsicFwS2/src/calibclasses.cpp ****         // --------------- check mirror type ------------------
 219:/home/tienluong/workspace/atlantis_fw/AsicFwS2/src/calibclasses.cpp ****         Ltpb__GeometricCalibration__MirrorType mirrortype = geometry->mirror_type;
 220:/home/tienluong/workspace/atlantis_fw/AsicFwS2/src/calibclasses.cpp ****         if (    mirrortype == LTPB__GEOMETRIC_CALIBRATION__MIRROR_TYPE__NONE  ||
 221:/home/tienluong/workspace/atlantis_fw/AsicFwS2/src/calibclasses.cpp ****                 mirrortype == LTPB__GEOMETRIC_CALIBRATION__MIRROR_TYPE__GLUED ){
 222:/home/tienluong/workspace/atlantis_fw/AsicFwS2/src/calibclasses.cpp ****             SLOGF(SLOG_DEBUG, "Current module has no moveable mirror");
 223:/home/tienluong/workspace/atlantis_fw/AsicFwS2/src/calibclasses.cpp ****             _cam_mirror_types[curr_module_name] = MirrorType::NotMoveable;
 224:/home/tienluong/workspace/atlantis_fw/AsicFwS2/src/calibclasses.cpp ****         }
 225:/home/tienluong/workspace/atlantis_fw/AsicFwS2/src/calibclasses.cpp ****         else if (mirrortype == LTPB__GEOMETRIC_CALIBRATION__MIRROR_TYPE__MOVABLE){
 226:/home/tienluong/workspace/atlantis_fw/AsicFwS2/src/calibclasses.cpp ****             SLOGF(SLOG_DEBUG, "Current module mirror is moveable");
 227:/home/tienluong/workspace/atlantis_fw/AsicFwS2/src/calibclasses.cpp ****             calib_w_mirror = true;
 228:/home/tienluong/workspace/atlantis_fw/AsicFwS2/src/calibclasses.cpp ****             _cam_mirror_types[curr_module_name] = MirrorType::Moveable;
 229:/home/tienluong/workspace/atlantis_fw/AsicFwS2/src/calibclasses.cpp ****         }
 230:/home/tienluong/workspace/atlantis_fw/AsicFwS2/src/calibclasses.cpp ****         else{
 231:/home/tienluong/workspace/atlantis_fw/AsicFwS2/src/calibclasses.cpp ****             SLOGF(SLOG_ERROR, "Unknown mirror type: %d", int(mirrortype));
 232:/home/tienluong/workspace/atlantis_fw/AsicFwS2/src/calibclasses.cpp ****             return false;
 233:/home/tienluong/workspace/atlantis_fw/AsicFwS2/src/calibclasses.cpp ****         }
 234:/home/tienluong/workspace/atlantis_fw/AsicFwS2/src/calibclasses.cpp **** 
 235:/home/tienluong/workspace/atlantis_fw/AsicFwS2/src/calibclasses.cpp ****         // ---------------- get number of focus -------------------
 236:/home/tienluong/workspace/atlantis_fw/AsicFwS2/src/calibclasses.cpp ****         SLOGF(SLOG_DEBUG, "n_per_focus_calibration = %i", int(geometry->n_per_focus_calibration));
 237:/home/tienluong/workspace/atlantis_fw/AsicFwS2/src/calibclasses.cpp **** 
 238:/home/tienluong/workspace/atlantis_fw/AsicFwS2/src/calibclasses.cpp ****         // use the first one? todo: if more than 1, check which one to use for now
 239:/home/tienluong/workspace/atlantis_fw/AsicFwS2/src/calibclasses.cpp ****         Ltpb__GeometricCalibration__CalibrationFocusBundle * gcfb = geometry->per_focus_calibration
 240:/home/tienluong/workspace/atlantis_fw/AsicFwS2/src/calibclasses.cpp **** 
 241:/home/tienluong/workspace/atlantis_fw/AsicFwS2/src/calibclasses.cpp ****         float fd = gcfb->focus_distance;
 242:/home/tienluong/workspace/atlantis_fw/AsicFwS2/src/calibclasses.cpp ****         SLOGF(SLOG_DEBUG, "Choosing calibration data with focus distance = %f", fd);
 243:/home/tienluong/workspace/atlantis_fw/AsicFwS2/src/calibclasses.cpp **** 
 244:/home/tienluong/workspace/atlantis_fw/AsicFwS2/src/calibclasses.cpp ****         Ltpb__GeometricCalibration__Intrinsics * intrinsics = gcfb->intrinsics;
 245:/home/tienluong/workspace/atlantis_fw/AsicFwS2/src/calibclasses.cpp **** 
 246:/home/tienluong/workspace/atlantis_fw/AsicFwS2/src/calibclasses.cpp ****         // --------------- get K mat ------------------
 247:/home/tienluong/workspace/atlantis_fw/AsicFwS2/src/calibclasses.cpp ****         Ltpb__Matrix3x3F * k_mat = intrinsics->k_mat;
 248:/home/tienluong/workspace/atlantis_fw/AsicFwS2/src/calibclasses.cpp ****         Matrix3x3f K({ k_mat->x00, k_mat->x01, k_mat->x02, k_mat->x10, k_mat->x11, k_mat->x12, k_ma
 249:/home/tienluong/workspace/atlantis_fw/AsicFwS2/src/calibclasses.cpp **** 
 250:/home/tienluong/workspace/atlantis_fw/AsicFwS2/src/calibclasses.cpp ****         Ltpb__GeometricCalibration__Extrinsics * extrinsics = gcfb->extrinsics;
 251:/home/tienluong/workspace/atlantis_fw/AsicFwS2/src/calibclasses.cpp ****         if (extrinsics == nullptr) {
 252:/home/tienluong/workspace/atlantis_fw/AsicFwS2/src/calibclasses.cpp ****             extrinsics = geometry->per_focus_calibration[geometry->n_per_focus_calibration-1]->extr
 253:/home/tienluong/workspace/atlantis_fw/AsicFwS2/src/calibclasses.cpp ****         }
 254:/home/tienluong/workspace/atlantis_fw/AsicFwS2/src/calibclasses.cpp **** 
 255:/home/tienluong/workspace/atlantis_fw/AsicFwS2/src/calibclasses.cpp ****         // ----------------- get extrinsics ------------------
 256:/home/tienluong/workspace/atlantis_fw/AsicFwS2/src/calibclasses.cpp ****         if (calib_w_mirror) { // use mirror system params and actuator mapping
 257:/home/tienluong/workspace/atlantis_fw/AsicFwS2/src/calibclasses.cpp ****             Ltpb__MirrorSystem *mirror_system = extrinsics->moveable_mirror->mirror_system;
 258:/home/tienluong/workspace/atlantis_fw/AsicFwS2/src/calibclasses.cpp ****             Ltpb__MirrorActuatorMapping *mirror_actuator_mapping = extrinsics->moveable_mirror->mir
 259:/home/tienluong/workspace/atlantis_fw/AsicFwS2/src/calibclasses.cpp ****             if ((mirror_system != nullptr) && (mirror_actuator_mapping != nullptr)) {
 260:/home/tienluong/workspace/atlantis_fw/AsicFwS2/src/calibclasses.cpp ****                 MirrorSysParam msp;
 261:/home/tienluong/workspace/atlantis_fw/AsicFwS2/src/calibclasses.cpp ****                 parseMirrorSystem(mirror_system, msp);
 262:/home/tienluong/workspace/atlantis_fw/AsicFwS2/src/calibclasses.cpp **** 
 263:/home/tienluong/workspace/atlantis_fw/AsicFwS2/src/calibclasses.cpp ****                 MirrorActuatorMapping mam;
 264:/home/tienluong/workspace/atlantis_fw/AsicFwS2/src/calibclasses.cpp ****                 parseMirrorActuatorMapping(mirror_actuator_mapping, mam);
 265:/home/tienluong/workspace/atlantis_fw/AsicFwS2/src/calibclasses.cpp **** 
 266:/home/tienluong/workspace/atlantis_fw/AsicFwS2/src/calibclasses.cpp ****                 _cam_params[curr_module_name].reset(new(Heap::DDR) CalibDataWMirror( K, msp, mam ))
 267:/home/tienluong/workspace/atlantis_fw/AsicFwS2/src/calibclasses.cpp ****             }
 268:/home/tienluong/workspace/atlantis_fw/AsicFwS2/src/calibclasses.cpp ****         } else { // normal R and t matrices
 269:/home/tienluong/workspace/atlantis_fw/AsicFwS2/src/calibclasses.cpp ****             Ltpb__GeometricCalibration__Extrinsics__CanonicalFormat * canonical = extrinsics->canon
 270:/home/tienluong/workspace/atlantis_fw/AsicFwS2/src/calibclasses.cpp ****             Ltpb__Matrix3x3F *rotation = canonical->rotation;
 271:/home/tienluong/workspace/atlantis_fw/AsicFwS2/src/calibclasses.cpp ****             Matrix3x3f R{ rotation->x00, rotation->x01, rotation->x02, rotation->x10, rotation->x11
 272:/home/tienluong/workspace/atlantis_fw/AsicFwS2/src/calibclasses.cpp ****             Ltpb__Point3F * translation = canonical->translation;
 273:/home/tienluong/workspace/atlantis_fw/AsicFwS2/src/calibclasses.cpp ****             Vec3f t{translation->x, translation->y, translation->z};
 274:/home/tienluong/workspace/atlantis_fw/AsicFwS2/src/calibclasses.cpp ****             _cam_params[curr_module_name].reset(new(Heap::DDR) CalibData(K, R, t));
 275:/home/tienluong/workspace/atlantis_fw/AsicFwS2/src/calibclasses.cpp ****         }
 276:/home/tienluong/workspace/atlantis_fw/AsicFwS2/src/calibclasses.cpp ****     }
 277:/home/tienluong/workspace/atlantis_fw/AsicFwS2/src/calibclasses.cpp **** #if 0 // these logs cause later code failure for some still unknown issue - stack overflow??
 278:/home/tienluong/workspace/atlantis_fw/AsicFwS2/src/calibclasses.cpp ****     CalibData& ca1 = *static_cast<CalibData*>(_cam_params[A1].get());
 279:/home/tienluong/workspace/atlantis_fw/AsicFwS2/src/calibclasses.cpp ****     SLOGF(SLOG_DEBUG, "A1 calib K: %f, %f, %f, %f, %f, %f, %f, %f, %f",
 280:/home/tienluong/workspace/atlantis_fw/AsicFwS2/src/calibclasses.cpp ****             ca1.K()(0,0), ca1.K()(0,1), ca1.K()(0,2),
 281:/home/tienluong/workspace/atlantis_fw/AsicFwS2/src/calibclasses.cpp ****             ca1.K()(1,0), ca1.K()(1,1), ca1.K()(1,2),
 282:/home/tienluong/workspace/atlantis_fw/AsicFwS2/src/calibclasses.cpp ****             ca1.K()(2,0), ca1.K()(2,1), ca1.K()(2,2));
 283:/home/tienluong/workspace/atlantis_fw/AsicFwS2/src/calibclasses.cpp ****     SLOGF(SLOG_DEBUG, "A1 calib R: %f, %f, %f, %f, %f, %f, %f, %f, %f",
 284:/home/tienluong/workspace/atlantis_fw/AsicFwS2/src/calibclasses.cpp ****             ca1.R()(0,0), ca1.R()(0,1), ca1.R()(0,2),
 285:/home/tienluong/workspace/atlantis_fw/AsicFwS2/src/calibclasses.cpp ****             ca1.R()(1,0), ca1.R()(1,1), ca1.R()(1,2),
 286:/home/tienluong/workspace/atlantis_fw/AsicFwS2/src/calibclasses.cpp ****             ca1.R()(2,0), ca1.R()(2,1), ca1.R()(2,2));
 287:/home/tienluong/workspace/atlantis_fw/AsicFwS2/src/calibclasses.cpp ****     SLOGF(SLOG_DEBUG, "A1 calib t: %f, %f, %f",
 288:/home/tienluong/workspace/atlantis_fw/AsicFwS2/src/calibclasses.cpp ****             ca1.translation().x(), ca1.translation().y(), ca1.translation().z());
 289:/home/tienluong/workspace/atlantis_fw/AsicFwS2/src/calibclasses.cpp **** 
 290:/home/tienluong/workspace/atlantis_fw/AsicFwS2/src/calibclasses.cpp ****     CalibData& ca5 = *static_cast<CalibData*>(_cam_params[A5].get());
 291:/home/tienluong/workspace/atlantis_fw/AsicFwS2/src/calibclasses.cpp ****     SLOGF(SLOG_DEBUG, "A5 calib K: %f, %f, %f, %f, %f, %f, %f, %f, %f",
 292:/home/tienluong/workspace/atlantis_fw/AsicFwS2/src/calibclasses.cpp ****             ca5.K()(0,0), ca5.K()(0,1), ca5.K()(0,2),
 293:/home/tienluong/workspace/atlantis_fw/AsicFwS2/src/calibclasses.cpp ****             ca5.K()(1,0), ca5.K()(1,1), ca5.K()(1,2),
 294:/home/tienluong/workspace/atlantis_fw/AsicFwS2/src/calibclasses.cpp ****             ca5.K()(2,0), ca5.K()(2,1), ca5.K()(2,2));
 295:/home/tienluong/workspace/atlantis_fw/AsicFwS2/src/calibclasses.cpp ****     SLOGF(SLOG_DEBUG, "A5 calib R: %f, %f, %f, %f, %f, %f, %f, %f, %f",
 296:/home/tienluong/workspace/atlantis_fw/AsicFwS2/src/calibclasses.cpp ****             ca5.R()(0,0), ca5.R()(0,1), ca5.R()(0,2),
 297:/home/tienluong/workspace/atlantis_fw/AsicFwS2/src/calibclasses.cpp ****             ca5.R()(1,0), ca5.R()(1,1), ca5.R()(1,2),
 298:/home/tienluong/workspace/atlantis_fw/AsicFwS2/src/calibclasses.cpp ****             ca5.R()(2,0), ca5.R()(2,1), ca5.R()(2,2));
 299:/home/tienluong/workspace/atlantis_fw/AsicFwS2/src/calibclasses.cpp ****     SLOGF(SLOG_DEBUG, "A5 calib t: %f, %f, %f",
 300:/home/tienluong/workspace/atlantis_fw/AsicFwS2/src/calibclasses.cpp ****             ca5.translation().x(), ca5.translation().y(), ca5.translation().z());
 301:/home/tienluong/workspace/atlantis_fw/AsicFwS2/src/calibclasses.cpp **** #endif
 302:/home/tienluong/workspace/atlantis_fw/AsicFwS2/src/calibclasses.cpp ****     return true;
 303:/home/tienluong/workspace/atlantis_fw/AsicFwS2/src/calibclasses.cpp **** }
 304:/home/tienluong/workspace/atlantis_fw/AsicFwS2/src/calibclasses.cpp **** 
 305:/home/tienluong/workspace/atlantis_fw/AsicFwS2/src/calibclasses.cpp **** 
 306:/home/tienluong/workspace/atlantis_fw/AsicFwS2/src/calibclasses.cpp **** void CalibDataManager::setDefaultMirrorTypes(){
 1840              		.loc 4 306 0
 1841              		.cfi_startproc
 1842              		@ args = 0, pretend = 0, frame = 0
 1843              		@ frame_needed = 0, uses_anonymous_args = 0
 1844              		@ link register save eliminated.
 1845              	.LVL205:
 307:/home/tienluong/workspace/atlantis_fw/AsicFwS2/src/calibclasses.cpp ****     //A1 - A5
 308:/home/tienluong/workspace/atlantis_fw/AsicFwS2/src/calibclasses.cpp ****     _cam_mirror_types[0] = MirrorType::NotMoveable;
 309:/home/tienluong/workspace/atlantis_fw/AsicFwS2/src/calibclasses.cpp ****     _cam_mirror_types[1] = MirrorType::NotMoveable;
 310:/home/tienluong/workspace/atlantis_fw/AsicFwS2/src/calibclasses.cpp ****     _cam_mirror_types[2] = MirrorType::NotMoveable;
 311:/home/tienluong/workspace/atlantis_fw/AsicFwS2/src/calibclasses.cpp ****     _cam_mirror_types[3] = MirrorType::NotMoveable; 
 312:/home/tienluong/workspace/atlantis_fw/AsicFwS2/src/calibclasses.cpp ****     _cam_mirror_types[4] = MirrorType::NotMoveable;
 313:/home/tienluong/workspace/atlantis_fw/AsicFwS2/src/calibclasses.cpp ****     //B1 - B5
 314:/home/tienluong/workspace/atlantis_fw/AsicFwS2/src/calibclasses.cpp ****     _cam_mirror_types[5] = MirrorType::Moveable;
 1846              		.loc 4 314 0
 1847 0000 0123     		movs	r3, #1
 308:/home/tienluong/workspace/atlantis_fw/AsicFwS2/src/calibclasses.cpp ****     _cam_mirror_types[1] = MirrorType::NotMoveable;
 1848              		.loc 4 308 0
 1849 0002 0022     		movs	r2, #0
 1850              		.loc 4 314 0
 1851 0004 80F84530 		strb	r3, [r0, #69]
 308:/home/tienluong/workspace/atlantis_fw/AsicFwS2/src/calibclasses.cpp ****     _cam_mirror_types[1] = MirrorType::NotMoveable;
 1852              		.loc 4 308 0
 1853 0008 80F84020 		strb	r2, [r0, #64]
 309:/home/tienluong/workspace/atlantis_fw/AsicFwS2/src/calibclasses.cpp ****     _cam_mirror_types[2] = MirrorType::NotMoveable;
 1854              		.loc 4 309 0
 1855 000c 80F84120 		strb	r2, [r0, #65]
 310:/home/tienluong/workspace/atlantis_fw/AsicFwS2/src/calibclasses.cpp ****     _cam_mirror_types[3] = MirrorType::NotMoveable; 
 1856              		.loc 4 310 0
 1857 0010 80F84220 		strb	r2, [r0, #66]
 311:/home/tienluong/workspace/atlantis_fw/AsicFwS2/src/calibclasses.cpp ****     _cam_mirror_types[4] = MirrorType::NotMoveable;
 1858              		.loc 4 311 0
 1859 0014 80F84320 		strb	r2, [r0, #67]
 312:/home/tienluong/workspace/atlantis_fw/AsicFwS2/src/calibclasses.cpp ****     //B1 - B5
 1860              		.loc 4 312 0
 1861 0018 80F84420 		strb	r2, [r0, #68]
 315:/home/tienluong/workspace/atlantis_fw/AsicFwS2/src/calibclasses.cpp ****     _cam_mirror_types[6] = MirrorType::Moveable;
 1862              		.loc 4 315 0
 1863 001c 80F84630 		strb	r3, [r0, #70]
 316:/home/tienluong/workspace/atlantis_fw/AsicFwS2/src/calibclasses.cpp ****     _cam_mirror_types[7] = MirrorType::Moveable;
 1864              		.loc 4 316 0
 1865 0020 80F84730 		strb	r3, [r0, #71]
 317:/home/tienluong/workspace/atlantis_fw/AsicFwS2/src/calibclasses.cpp ****     _cam_mirror_types[8] = MirrorType::NotMoveable; //B4 glued
 1866              		.loc 4 317 0
 1867 0024 80F84820 		strb	r2, [r0, #72]
 318:/home/tienluong/workspace/atlantis_fw/AsicFwS2/src/calibclasses.cpp ****     _cam_mirror_types[9] = MirrorType::Moveable;
 1868              		.loc 4 318 0
 1869 0028 80F84930 		strb	r3, [r0, #73]
 319:/home/tienluong/workspace/atlantis_fw/AsicFwS2/src/calibclasses.cpp ****     //C1 - C6
 320:/home/tienluong/workspace/atlantis_fw/AsicFwS2/src/calibclasses.cpp ****     _cam_mirror_types[10] = MirrorType::Moveable;
 1870              		.loc 4 320 0
 1871 002c 80F84A30 		strb	r3, [r0, #74]
 321:/home/tienluong/workspace/atlantis_fw/AsicFwS2/src/calibclasses.cpp ****     _cam_mirror_types[11] = MirrorType::Moveable;
 1872              		.loc 4 321 0
 1873 0030 80F84B30 		strb	r3, [r0, #75]
 322:/home/tienluong/workspace/atlantis_fw/AsicFwS2/src/calibclasses.cpp ****     _cam_mirror_types[12] = MirrorType::Moveable;
 1874              		.loc 4 322 0
 1875 0034 80F84C30 		strb	r3, [r0, #76]
 323:/home/tienluong/workspace/atlantis_fw/AsicFwS2/src/calibclasses.cpp ****     _cam_mirror_types[13] = MirrorType::Moveable;
 1876              		.loc 4 323 0
 1877 0038 80F84D30 		strb	r3, [r0, #77]
 324:/home/tienluong/workspace/atlantis_fw/AsicFwS2/src/calibclasses.cpp ****     _cam_mirror_types[14] = MirrorType::NotMoveable;    //C5 glued
 1878              		.loc 4 324 0
 1879 003c 80F84E20 		strb	r2, [r0, #78]
 325:/home/tienluong/workspace/atlantis_fw/AsicFwS2/src/calibclasses.cpp ****     _cam_mirror_types[15] = MirrorType::Moveable;
 1880              		.loc 4 325 0
 1881 0040 80F84F30 		strb	r3, [r0, #79]
 1882 0044 7047     		bx	lr
 1883              		.cfi_endproc
 1884              	.LFE3351:
 1886              		.section	.text._ZNK4ltaf4Vec3IfE3dotERKS1_,"axG",%progbits,_ZNK4ltaf4Vec3IfE3dotERKS1_,comdat
 1887              		.align	1
 1888              		.weak	_ZNK4ltaf4Vec3IfE3dotERKS1_
 1889              		.thumb
 1890              		.thumb_func
 1892              	_ZNK4ltaf4Vec3IfE3dotERKS1_:
 1893              	.LFB3404:
 322:/home/tienluong/workspace/atlantis_fw/AsicFwS2/include/matrix.h **** 
 1894              		.loc 2 322 0
 1895              		.cfi_startproc
 1896              		@ args = 0, pretend = 0, frame = 0
 1897              		@ frame_needed = 0, uses_anonymous_args = 0
 1898              	.LVL206:
 1899 0000 2DE9F041 		push	{r4, r5, r6, r7, r8, lr}
 1900              	.LCFI23:
 1901              		.cfi_def_cfa_offset 24
 1902              		.cfi_offset 4, -24
 1903              		.cfi_offset 5, -20
 1904              		.cfi_offset 6, -16
 1905              		.cfi_offset 7, -12
 1906              		.cfi_offset 8, -8
 1907              		.cfi_offset 14, -4
 322:/home/tienluong/workspace/atlantis_fw/AsicFwS2/include/matrix.h **** 
 1908              		.loc 2 322 0
 1909 0004 0646     		mov	r6, r0
 1910 0006 0D46     		mov	r5, r1
 1911 0008 0A4C     		ldr	r4, .L70
 1912 000a 0968     		ldr	r1, [r1]	@ float
 1913              	.LVL207:
 1914 000c 0068     		ldr	r0, [r0]	@ float
 1915              	.LVL208:
 1916 000e A047     		blx	r4
 1917              	.LVL209:
 1918 0010 6968     		ldr	r1, [r5, #4]	@ float
 1919 0012 094F     		ldr	r7, .L70+4
 1920 0014 8046     		mov	r8, r0
 1921 0016 7068     		ldr	r0, [r6, #4]	@ float
 1922 0018 A047     		blx	r4
 1923              	.LVL210:
 1924 001a 0146     		mov	r1, r0
 1925 001c 4046     		mov	r0, r8
 1926 001e B847     		blx	r7
 1927              	.LVL211:
 1928 0020 A968     		ldr	r1, [r5, #8]	@ float
 1929 0022 8046     		mov	r8, r0
 1930 0024 B068     		ldr	r0, [r6, #8]	@ float
 1931 0026 A047     		blx	r4
 1932              	.LVL212:
 1933 0028 0146     		mov	r1, r0
 1934 002a 4046     		mov	r0, r8
 1935 002c B847     		blx	r7
 1936              	.LVL213:
 1937 002e BDE8F081 		pop	{r4, r5, r6, r7, r8, pc}
 1938              	.LVL214:
 1939              	.L71:
 1940 0032 00BF     		.align	2
 1941              	.L70:
 1942 0034 00000000 		.word	__aeabi_fmul
 1943 0038 00000000 		.word	__aeabi_fadd
 1944              		.cfi_endproc
 1945              	.LFE3404:
 1947              		.section	.text._ZN4ltafmlIffLb1EEENS_4Vec3INSt11common_typeIIT_T0_EE4typeEEERKNS_6MatrixIS3_Li3ELi
 1948              		.align	1
 1949              		.weak	_ZN4ltafmlIffLb1EEENS_4Vec3INSt11common_typeIIT_T0_EE4typeEEERKNS_6MatrixIS3_Li3ELi3EXT1_EEE
 1950              		.thumb
 1951              		.thumb_func
 1953              	_ZN4ltafmlIffLb1EEENS_4Vec3INSt11common_typeIIT_T0_EE4typeEEERKNS_6MatrixIS3_Li3ELi3EXT1_EEERKNS1_I
 1954              	.LFB3433:
 959:/home/tienluong/workspace/atlantis_fw/AsicFwS2/include/matrix.h **** {
 1955              		.loc 2 959 0
 1956              		.cfi_startproc
 1957              		@ args = 0, pretend = 0, frame = 8
 1958              		@ frame_needed = 0, uses_anonymous_args = 0
 1959              	.LVL215:
 1960 0000 2DE9F74F 		push	{r0, r1, r2, r4, r5, r6, r7, r8, r9, r10, fp, lr}
 1961              	.LCFI24:
 1962              		.cfi_def_cfa_offset 48
 1963              		.cfi_offset 4, -36
 1964              		.cfi_offset 5, -32
 1965              		.cfi_offset 6, -28
 1966              		.cfi_offset 7, -24
 1967              		.cfi_offset 8, -20
 1968              		.cfi_offset 9, -16
 1969              		.cfi_offset 10, -12
 1970              		.cfi_offset 11, -8
 1971              		.cfi_offset 14, -4
 966:/home/tienluong/workspace/atlantis_fw/AsicFwS2/include/matrix.h **** }
 1972              		.loc 2 966 0
 1973 0004 D2F800A0 		ldr	r10, [r2]	@ float
 959:/home/tienluong/workspace/atlantis_fw/AsicFwS2/include/matrix.h **** {
 1974              		.loc 2 959 0
 1975 0008 0D46     		mov	r5, r1
 1976              	.LVL216:
 966:/home/tienluong/workspace/atlantis_fw/AsicFwS2/include/matrix.h **** }
 1977              		.loc 2 966 0
 1978 000a 224C     		ldr	r4, .L73
 959:/home/tienluong/workspace/atlantis_fw/AsicFwS2/include/matrix.h **** {
 1979              		.loc 2 959 0
 1980 000c 0746     		mov	r7, r0
 966:/home/tienluong/workspace/atlantis_fw/AsicFwS2/include/matrix.h **** }
 1981              		.loc 2 966 0
 1982 000e C968     		ldr	r1, [r1, #12]	@ float
 1983              	.LVL217:
 1984 0010 5046     		mov	r0, r10
 1985              	.LVL218:
 1986 0012 D2F80490 		ldr	r9, [r2, #4]	@ float
 1987              	.LVL219:
 1988 0016 D2F80880 		ldr	r8, [r2, #8]	@ float
 1989              	.LVL220:
 1990 001a A047     		blx	r4
 1991              	.LVL221:
 1992 001c 2969     		ldr	r1, [r5, #16]	@ float
 1993 001e 1E4E     		ldr	r6, .L73+4
 1994 0020 8346     		mov	fp, r0
 1995 0022 4846     		mov	r0, r9
 1996 0024 A047     		blx	r4
 1997              	.LVL222:
 1998 0026 0146     		mov	r1, r0
 1999 0028 5846     		mov	r0, fp
 2000 002a B047     		blx	r6
 2001              	.LVL223:
 2002 002c 6969     		ldr	r1, [r5, #20]	@ float
 2003 002e 8346     		mov	fp, r0
 2004 0030 4046     		mov	r0, r8
 2005 0032 A047     		blx	r4
 2006              	.LVL224:
 2007 0034 0146     		mov	r1, r0
 2008 0036 5846     		mov	r0, fp
 2009 0038 B047     		blx	r6
 2010              	.LVL225:
 2011 003a A969     		ldr	r1, [r5, #24]	@ float
 2012 003c 0190     		str	r0, [sp, #4]
 2013              	.LVL226:
 2014 003e 5046     		mov	r0, r10
 2015 0040 A047     		blx	r4
 2016              	.LVL227:
 2017 0042 E969     		ldr	r1, [r5, #28]	@ float
 2018 0044 8346     		mov	fp, r0
 2019 0046 4846     		mov	r0, r9
 2020 0048 A047     		blx	r4
 2021              	.LVL228:
 2022 004a 0146     		mov	r1, r0
 2023 004c 5846     		mov	r0, fp
 2024 004e B047     		blx	r6
 2025              	.LVL229:
 2026 0050 296A     		ldr	r1, [r5, #32]	@ float
 2027 0052 8346     		mov	fp, r0
 2028 0054 4046     		mov	r0, r8
 2029 0056 A047     		blx	r4
 2030              	.LVL230:
 2031 0058 0146     		mov	r1, r0
 2032 005a 5846     		mov	r0, fp
 2033 005c B047     		blx	r6
 2034              	.LVL231:
 2035 005e 2968     		ldr	r1, [r5]	@ float
 2036 0060 8346     		mov	fp, r0
 2037              	.LVL232:
 2038 0062 5046     		mov	r0, r10
 2039              	.LVL233:
 2040 0064 A047     		blx	r4
 2041              	.LVL234:
 2042 0066 6968     		ldr	r1, [r5, #4]	@ float
 2043 0068 8246     		mov	r10, r0
 2044 006a 4846     		mov	r0, r9
 2045 006c A047     		blx	r4
 2046              	.LVL235:
 2047 006e 0146     		mov	r1, r0
 2048 0070 5046     		mov	r0, r10
 2049 0072 B047     		blx	r6
 2050              	.LVL236:
 2051 0074 A968     		ldr	r1, [r5, #8]	@ float
 2052 0076 8146     		mov	r9, r0
 2053 0078 4046     		mov	r0, r8
 2054 007a A047     		blx	r4
 2055              	.LVL237:
 2056 007c 0146     		mov	r1, r0
 2057 007e 4846     		mov	r0, r9
 2058 0080 B047     		blx	r6
 2059              	.LVL238:
 2060              	.LBB1430:
 2061              	.LBB1431:
 229:/home/tienluong/workspace/atlantis_fw/AsicFwS2/include/matrix.h ****     Vec3( const Vec3 & t ) : _x( t._x ), _y( t._y ), _z( t._z ) {}
 2062              		.loc 2 229 0
 2063 0082 019B     		ldr	r3, [sp, #4]
 2064 0084 7B60     		str	r3, [r7, #4]	@ float
 2065 0086 C7F808B0 		str	fp, [r7, #8]	@ float
 2066 008a 3860     		str	r0, [r7]	@ float
 2067              	.LBE1431:
 2068              	.LBE1430:
 967:/home/tienluong/workspace/atlantis_fw/AsicFwS2/include/matrix.h **** 
 2069              		.loc 2 967 0
 2070 008c 3846     		mov	r0, r7
 2071 008e 03B0     		add	sp, sp, #12
 2072              	.LCFI25:
 2073              		.cfi_def_cfa_offset 36
 2074              		@ sp needed
 2075 0090 BDE8F08F 		pop	{r4, r5, r6, r7, r8, r9, r10, fp, pc}
 2076              	.LVL239:
 2077              	.L74:
 2078              		.align	2
 2079              	.L73:
 2080 0094 00000000 		.word	__aeabi_fmul
 2081 0098 00000000 		.word	__aeabi_fadd
 2082              		.cfi_endproc
 2083              	.LFE3433:
 2085              		.weak	_ZN4ltafmlIffLb1EEENS_4Vec3INSt11common_typeIJT_T0_EE4typeEEERKNS_6MatrixIS3_Li3ELi3EXT1_EEE
 2086              		.thumb_set _ZN4ltafmlIffLb1EEENS_4Vec3INSt11common_typeIJT_T0_EE4typeEEERKNS_6MatrixIS3_Li3ELi3EXT
 2087              		.section	.text._ZN4ltaf9transposeIfLi3ELi3ELb1EEENS_6MatrixIT_XT1_EXT0_EXntT2_EEERKNS1_IS2_XT0_EXT
 2088              		.align	1
 2089              		.weak	_ZN4ltaf9transposeIfLi3ELi3ELb1EEENS_6MatrixIT_XT1_EXT0_EXntT2_EEERKNS1_IS2_XT0_EXT1_EXT2_EE
 2090              		.thumb
 2091              		.thumb_func
 2093              	_ZN4ltaf9transposeIfLi3ELi3ELb1EEENS_6MatrixIT_XT1_EXT0_EXntT2_EEERKNS1_IS2_XT0_EXT1_EXT2_EEE:
 2094              	.LFB3456:
 887:/home/tienluong/workspace/atlantis_fw/AsicFwS2/include/matrix.h **** {
 2095              		.loc 2 887 0
 2096              		.cfi_startproc
 2097              		@ args = 0, pretend = 0, frame = 0
 2098              		@ frame_needed = 0, uses_anonymous_args = 0
 2099              		@ link register save eliminated.
 2100              	.LVL240:
 2101              	.LBB1432:
 2102              	.LBB1433:
 893:/home/tienluong/workspace/atlantis_fw/AsicFwS2/include/matrix.h ****     return rval;
 2103              		.loc 2 893 0
 2104 0000 0023     		movs	r3, #0
 2105              	.LVL241:
 2106              	.L76:
 893:/home/tienluong/workspace/atlantis_fw/AsicFwS2/include/matrix.h ****     return rval;
 2107              		.loc 2 893 0 is_stmt 0 discriminator 3
 2108 0002 51F82320 		ldr	r2, [r1, r3, lsl #2]	@ float
 2109 0006 40F82320 		str	r2, [r0, r3, lsl #2]	@ float
 2110 000a 0133     		adds	r3, r3, #1
 2111              	.LVL242:
 2112 000c 092B     		cmp	r3, #9
 2113 000e F8D1     		bne	.L76
 2114              	.LBE1433:
 2115              	.LBE1432:
 895:/home/tienluong/workspace/atlantis_fw/AsicFwS2/include/matrix.h **** 
 2116              		.loc 2 895 0 is_stmt 1
 2117 0010 7047     		bx	lr
 2118              		.cfi_endproc
 2119              	.LFE3456:
 2121              		.section	.text._ZNK4ltaf6MatrixIfLi3ELi3ELb1EEmlILi3ELi3ELb0EEENS0_IfLi3EXT0_ELb1EEERKNS0_IfXT_EXT
 2122              		.align	1
 2123              		.weak	_ZNK4ltaf6MatrixIfLi3ELi3ELb1EEmlILi3ELi3ELb0EEENS0_IfLi3EXT0_ELb1EEERKNS0_IfXT_EXT0_EXT1_EE
 2124              		.thumb
 2125              		.thumb_func
 2127              	_ZNK4ltaf6MatrixIfLi3ELi3ELb1EEmlILi3ELi3ELb0EEENS0_IfLi3EXT0_ELb1EEERKNS0_IfXT_EXT0_EXT1_EEE:
 2128              	.LFB3457:
 715:/home/tienluong/workspace/atlantis_fw/AsicFwS2/include/matrix.h ****     {
 2129              		.loc 2 715 0
 2130              		.cfi_startproc
 2131              		@ args = 0, pretend = 0, frame = 8
 2132              		@ frame_needed = 0, uses_anonymous_args = 0
 2133              	.LVL243:
 2134 0000 2DE9F74F 		push	{r0, r1, r2, r4, r5, r6, r7, r8, r9, r10, fp, lr}
 2135              	.LCFI26:
 2136              		.cfi_def_cfa_offset 48
 2137              		.cfi_offset 4, -36
 2138              		.cfi_offset 5, -32
 2139              		.cfi_offset 6, -28
 2140              		.cfi_offset 7, -24
 2141              		.cfi_offset 8, -20
 2142              		.cfi_offset 9, -16
 2143              		.cfi_offset 10, -12
 2144              		.cfi_offset 11, -8
 2145              		.cfi_offset 14, -4
 715:/home/tienluong/workspace/atlantis_fw/AsicFwS2/include/matrix.h ****     {
 2146              		.loc 2 715 0
 2147 0004 0746     		mov	r7, r0
 2148              	.LVL244:
 2149 0006 8846     		mov	r8, r1
 2150 0008 9146     		mov	r9, r2
 2151              	.LBB1434:
 2152              	.LBB1435:
 2153              	.LBB1436:
 2154 000a 0024     		movs	r4, #0
 2155              	.LVL245:
 2156              	.L79:
 2157              	.LBE1436:
 2158              	.LBE1435:
 2159              	.LBE1434:
 2160 000c 0025     		movs	r5, #0
 2161              	.LVL246:
 2162              	.L80:
 2163 000e 0C23     		movs	r3, #12
 2164              	.LBB1442:
 2165              	.LBB1440:
 2166              	.LBB1438:
 725:/home/tienluong/workspace/atlantis_fw/AsicFwS2/include/matrix.h ****             // accum n-th row
 2167              		.loc 2 725 0
 2168 0010 184E     		ldr	r6, .L92
 2169 0012 07EB040A 		add	r10, r7, r4
 2170 0016 6B43     		muls	r3, r5, r3
 2171 0018 58F80400 		ldr	r0, [r8, r4]	@ float
 2172 001c 59F80310 		ldr	r1, [r9, r3]	@ float
 2173 0020 B047     		blx	r6
 2174              	.LVL247:
 2175 0022 0096     		str	r6, [sp]
 2176 0024 4AF82500 		str	r0, [r10, r5, lsl #2]	@ float
 724:/home/tienluong/workspace/atlantis_fw/AsicFwS2/include/matrix.h ****             { rval( i, j ) = this->_data[Idx( i, 0 )] * mat( 0, j ); }
 2177              		.loc 2 724 0
 2178 0028 0135     		adds	r5, r5, #1
 2179              	.LVL248:
 2180 002a 032D     		cmp	r5, #3
 2181 002c EFD1     		bne	.L80
 2182 002e 0126     		movs	r6, #1
 2183              	.LVL249:
 2184              	.L83:
 2185 0030 D346     		mov	fp, r10
 2186 0032 09EB8602 		add	r2, r9, r6, lsl #2
 2187              	.LBE1438:
 2188              	.LBE1440:
 2189              	.LBE1442:
 715:/home/tienluong/workspace/atlantis_fw/AsicFwS2/include/matrix.h ****     {
 2190              		.loc 2 715 0
 2191 0036 0025     		movs	r5, #0
 2192              	.LVL250:
 2193              	.L82:
 2194 0038 08EB0401 		add	r1, r8, r4
 2195              	.LBB1443:
 2196              	.LBB1441:
 2197              	.LBB1439:
 2198              	.LBB1437:
 730:/home/tienluong/workspace/atlantis_fw/AsicFwS2/include/matrix.h ****             }
 2199              		.loc 2 730 0
 2200 003c 0192     		str	r2, [sp, #4]
 2201 003e 009B     		ldr	r3, [sp]
 2202 0040 51F82600 		ldr	r0, [r1, r6, lsl #2]	@ float
 2203 0044 5159     		ldr	r1, [r2, r5]	@ float
 2204 0046 0C35     		adds	r5, r5, #12
 2205 0048 9847     		blx	r3
 2206              	.LVL251:
 2207 004a 0B4B     		ldr	r3, .L92+4
 2208 004c 0146     		mov	r1, r0
 2209 004e DBF80000 		ldr	r0, [fp]	@ float
 2210 0052 9847     		blx	r3
 2211              	.LVL252:
 729:/home/tienluong/workspace/atlantis_fw/AsicFwS2/include/matrix.h ****                 { rval( i, j ) += this->_data[Idx( i, k )] * mat( k, j ); }
 2212              		.loc 2 729 0
 2213 0054 242D     		cmp	r5, #36
 2214 0056 019A     		ldr	r2, [sp, #4]
 730:/home/tienluong/workspace/atlantis_fw/AsicFwS2/include/matrix.h ****             }
 2215              		.loc 2 730 0
 2216 0058 4BF8040B 		str	r0, [fp], #4	@ float
 729:/home/tienluong/workspace/atlantis_fw/AsicFwS2/include/matrix.h ****                 { rval( i, j ) += this->_data[Idx( i, k )] * mat( k, j ); }
 2217              		.loc 2 729 0
 2218 005c ECD1     		bne	.L82
 2219              	.LVL253:
 2220              	.LBE1437:
 727:/home/tienluong/workspace/atlantis_fw/AsicFwS2/include/matrix.h ****             {
 2221              		.loc 2 727 0 discriminator 2
 2222 005e 022E     		cmp	r6, #2
 2223 0060 01D0     		beq	.L91
 2224 0062 0226     		movs	r6, #2
 2225              	.LVL254:
 2226 0064 E4E7     		b	.L83
 2227              	.LVL255:
 2228              	.L91:
 2229 0066 0C34     		adds	r4, r4, #12
 2230              	.LBE1439:
 721:/home/tienluong/workspace/atlantis_fw/AsicFwS2/include/matrix.h ****         {
 2231              		.loc 2 721 0 discriminator 2
 2232 0068 242C     		cmp	r4, #36
 2233 006a CFD1     		bne	.L79
 2234              	.LBE1441:
 2235              	.LBE1443:
 734:/home/tienluong/workspace/atlantis_fw/AsicFwS2/include/matrix.h **** 
 2236              		.loc 2 734 0
 2237 006c 3846     		mov	r0, r7
 2238 006e 03B0     		add	sp, sp, #12
 2239              	.LCFI27:
 2240              		.cfi_def_cfa_offset 36
 2241              		@ sp needed
 2242 0070 BDE8F08F 		pop	{r4, r5, r6, r7, r8, r9, r10, fp, pc}
 2243              	.LVL256:
 2244              	.L93:
 2245              		.align	2
 2246              	.L92:
 2247 0074 00000000 		.word	__aeabi_fmul
 2248 0078 00000000 		.word	__aeabi_fadd
 2249              		.cfi_endproc
 2250              	.LFE3457:
 2252              		.global	__aeabi_f2d
 2253              		.section	.text._ZN4ltaf6MatrixIdLi4ELi4ELb1EEC2IfLi3ELi3ELb1EEERKNS0_IT_XT0_EXT1_EXT2_EEE,"axG",%p
 2254              		.align	1
 2255              		.weak	_ZN4ltaf6MatrixIdLi4ELi4ELb1EEC2IfLi3ELi3ELb1EEERKNS0_IT_XT0_EXT1_EXT2_EEE
 2256              		.thumb
 2257              		.thumb_func
 2259              	_ZN4ltaf6MatrixIdLi4ELi4ELb1EEC2IfLi3ELi3ELb1EEERKNS0_IT_XT0_EXT1_EXT2_EEE:
 2260              	.LFB3463:
 614:/home/tienluong/workspace/atlantis_fw/AsicFwS2/include/matrix.h ****     {
 2261              		.loc 2 614 0
 2262              		.cfi_startproc
 2263              		@ args = 0, pretend = 0, frame = 0
 2264              		@ frame_needed = 0, uses_anonymous_args = 0
 2265              	.LVL257:
 2266 0000 2DE9F843 		push	{r3, r4, r5, r6, r7, r8, r9, lr}
 2267              	.LCFI28:
 2268              		.cfi_def_cfa_offset 32
 2269              		.cfi_offset 3, -32
 2270              		.cfi_offset 4, -28
 2271              		.cfi_offset 5, -24
 2272              		.cfi_offset 6, -20
 2273              		.cfi_offset 7, -16
 2274              		.cfi_offset 8, -12
 2275              		.cfi_offset 9, -8
 2276              		.cfi_offset 14, -4
 614:/home/tienluong/workspace/atlantis_fw/AsicFwS2/include/matrix.h ****     {
 2277              		.loc 2 614 0
 2278 0004 0446     		mov	r4, r0
 2279 0006 8946     		mov	r9, r1
 2280 0008 0646     		mov	r6, r0
 2281 000a 0027     		movs	r7, #0
 2282              	.LVL258:
 2283              	.L95:
 2284 000c B046     		mov	r8, r6
 2285 000e 0025     		movs	r5, #0
 2286              	.LVL259:
 2287              	.L96:
 2288 0010 09EB0703 		add	r3, r9, r7
 2289              	.LBB1444:
 2290              	.LBB1445:
 2291              	.LBB1446:
 621:/home/tienluong/workspace/atlantis_fw/AsicFwS2/include/matrix.h ****             for( int j = kMinCol; j < C; ++j )
 2292              		.loc 2 621 0
 2293 0014 53F82500 		ldr	r0, [r3, r5, lsl #2]	@ float
 620:/home/tienluong/workspace/atlantis_fw/AsicFwS2/include/matrix.h ****             { this->_data[Idx( i, j )] = static_cast<T>( src( i, j ) ); }
 2294              		.loc 2 620 0
 2295 0018 0135     		adds	r5, r5, #1
 2296              	.LVL260:
 621:/home/tienluong/workspace/atlantis_fw/AsicFwS2/include/matrix.h ****             for( int j = kMinCol; j < C; ++j )
 2297              		.loc 2 621 0
 2298 001a 0E4B     		ldr	r3, .L99
 2299 001c 9847     		blx	r3
 2300              	.LVL261:
 620:/home/tienluong/workspace/atlantis_fw/AsicFwS2/include/matrix.h ****             { this->_data[Idx( i, j )] = static_cast<T>( src( i, j ) ); }
 2301              		.loc 2 620 0
 2302 001e 032D     		cmp	r5, #3
 621:/home/tienluong/workspace/atlantis_fw/AsicFwS2/include/matrix.h ****             for( int j = kMinCol; j < C; ++j )
 2303              		.loc 2 621 0
 2304 0020 E8E80201 		strd	r0, [r8], #8
 620:/home/tienluong/workspace/atlantis_fw/AsicFwS2/include/matrix.h ****             { this->_data[Idx( i, j )] = static_cast<T>( src( i, j ) ); }
 2305              		.loc 2 620 0
 2306 0024 F4D1     		bne	.L96
 2307              	.LVL262:
 2308 0026 0C37     		adds	r7, r7, #12
 2309              	.LBE1446:
 2310              	.LBB1447:
 623:/home/tienluong/workspace/atlantis_fw/AsicFwS2/include/matrix.h ****         }
 2311              		.loc 2 623 0 discriminator 2
 2312 0028 0022     		movs	r2, #0
 2313 002a 0023     		movs	r3, #0
 2314              	.LBE1447:
 618:/home/tienluong/workspace/atlantis_fw/AsicFwS2/include/matrix.h ****         {
 2315              		.loc 2 618 0 discriminator 2
 2316 002c 242F     		cmp	r7, #36
 2317              	.LBB1448:
 623:/home/tienluong/workspace/atlantis_fw/AsicFwS2/include/matrix.h ****         }
 2318              		.loc 2 623 0 discriminator 2
 2319 002e C6E90623 		strd	r2, [r6, #24]
 2320              	.LVL263:
 2321 0032 06F12006 		add	r6, r6, #32
 2322              	.LBE1448:
 618:/home/tienluong/workspace/atlantis_fw/AsicFwS2/include/matrix.h ****         {
 2323              		.loc 2 618 0 discriminator 2
 2324 0036 E9D1     		bne	.L95
 2325              	.LVL264:
 2326              	.LBE1445:
 2327              	.LBB1449:
 2328              	.LBB1450:
 628:/home/tienluong/workspace/atlantis_fw/AsicFwS2/include/matrix.h ****         }
 2329              		.loc 2 628 0
 2330 0038 C4E91823 		strd	r2, [r4, #96]
 2331              	.LVL265:
 2332              	.LBE1450:
 2333              	.LBE1449:
 2334              	.LBE1444:
 630:/home/tienluong/workspace/atlantis_fw/AsicFwS2/include/matrix.h **** 
 2335              		.loc 2 630 0
 2336 003c 2046     		mov	r0, r4
 2337              	.LBB1453:
 2338              	.LBB1452:
 2339              	.LBB1451:
 628:/home/tienluong/workspace/atlantis_fw/AsicFwS2/include/matrix.h ****         }
 2340              		.loc 2 628 0
 2341 003e C4E91A23 		strd	r2, [r4, #104]
 2342              	.LVL266:
 2343 0042 C4E91C23 		strd	r2, [r4, #112]
 2344              	.LVL267:
 2345 0046 0022     		movs	r2, #0
 2346 0048 034B     		ldr	r3, .L99+4
 2347 004a C4E91E23 		strd	r2, [r4, #120]
 2348              	.LVL268:
 2349              	.LBE1451:
 2350              	.LBE1452:
 2351              	.LBE1453:
 630:/home/tienluong/workspace/atlantis_fw/AsicFwS2/include/matrix.h **** 
 2352              		.loc 2 630 0
 2353 004e BDE8F883 		pop	{r3, r4, r5, r6, r7, r8, r9, pc}
 2354              	.LVL269:
 2355              	.L100:
 2356 0052 00BF     		.align	2
 2357              	.L99:
 2358 0054 00000000 		.word	__aeabi_f2d
 2359 0058 0000F03F 		.word	1072693248
 2360              		.cfi_endproc
 2361              	.LFE3463:
 2363              		.weak	_ZN4ltaf6MatrixIdLi4ELi4ELb1EEC1IfLi3ELi3ELb1EEERKNS0_IT_XT0_EXT1_EXT2_EEE
 2364              		.thumb_set _ZN4ltaf6MatrixIdLi4ELi4ELb1EEC1IfLi3ELi3ELb1EEERKNS0_IT_XT0_EXT1_EXT2_EEE,_ZN4ltaf6Mat
 2365              		.global	__aeabi_dadd
 2366              		.section	.text._ZNK4ltaf6MatrixIdLi4ELi4ELb1EEmlILi4ELi4ELb1EEENS0_IdLi4EXT0_ELb1EEERKNS0_IdXT_EXT
 2367              		.align	1
 2368              		.weak	_ZNK4ltaf6MatrixIdLi4ELi4ELb1EEmlILi4ELi4ELb1EEENS0_IdLi4EXT0_ELb1EEERKNS0_IdXT_EXT0_EXT1_EE
 2369              		.thumb
 2370              		.thumb_func
 2372              	_ZNK4ltaf6MatrixIdLi4ELi4ELb1EEmlILi4ELi4ELb1EEENS0_IdLi4EXT0_ELb1EEERKNS0_IdXT_EXT0_EXT1_EEE:
 2373              	.LFB3472:
 715:/home/tienluong/workspace/atlantis_fw/AsicFwS2/include/matrix.h ****     {
 2374              		.loc 2 715 0
 2375              		.cfi_startproc
 2376              		@ args = 0, pretend = 0, frame = 16
 2377              		@ frame_needed = 0, uses_anonymous_args = 0
 2378              	.LVL270:
 2379 0000 2DE9F04F 		push	{r4, r5, r6, r7, r8, r9, r10, fp, lr}
 2380              	.LCFI29:
 2381              		.cfi_def_cfa_offset 36
 2382              		.cfi_offset 4, -36
 2383              		.cfi_offset 5, -32
 2384              		.cfi_offset 6, -28
 2385              		.cfi_offset 7, -24
 2386              		.cfi_offset 8, -20
 2387              		.cfi_offset 9, -16
 2388              		.cfi_offset 10, -12
 2389              		.cfi_offset 11, -8
 2390              		.cfi_offset 14, -4
 2391 0004 00F18003 		add	r3, r0, #128
 2392 0008 85B0     		sub	sp, sp, #20
 2393              	.LCFI30:
 2394              		.cfi_def_cfa_offset 56
 715:/home/tienluong/workspace/atlantis_fw/AsicFwS2/include/matrix.h ****     {
 2395              		.loc 2 715 0
 2396 000a 8046     		mov	r8, r0
 2397 000c 9146     		mov	r9, r2
 2398 000e 0446     		mov	r4, r0
 2399 0010 0E46     		mov	r6, r1
 2400 0012 0393     		str	r3, [sp, #12]
 2401              	.LVL271:
 2402              	.L102:
 2403 0014 04F12003 		add	r3, r4, #32
 2404 0018 A9F10807 		sub	r7, r9, #8
 2405 001c 2546     		mov	r5, r4
 2406 001e 0193     		str	r3, [sp, #4]
 2407              	.LVL272:
 2408              	.L103:
 2409              	.LBB1454:
 2410              	.LBB1455:
 2411              	.LBB1456:
 725:/home/tienluong/workspace/atlantis_fw/AsicFwS2/include/matrix.h ****             // accum n-th row
 2412              		.loc 2 725 0
 2413 0020 F7E90223 		ldrd	r2, [r7, #8]!
 2414 0024 D6E90001 		ldrd	r0, [r6]
 2415 0028 DFF860C0 		ldr	ip, .L110
 2416 002c E047     		blx	ip
 2417              	.LVL273:
 724:/home/tienluong/workspace/atlantis_fw/AsicFwS2/include/matrix.h ****             { rval( i, j ) = this->_data[Idx( i, 0 )] * mat( 0, j ); }
 2418              		.loc 2 724 0
 2419 002e 019B     		ldr	r3, [sp, #4]
 725:/home/tienluong/workspace/atlantis_fw/AsicFwS2/include/matrix.h ****             // accum n-th row
 2420              		.loc 2 725 0
 2421 0030 E5E80201 		strd	r0, [r5], #8
 724:/home/tienluong/workspace/atlantis_fw/AsicFwS2/include/matrix.h ****             { rval( i, j ) = this->_data[Idx( i, 0 )] * mat( 0, j ); }
 2422              		.loc 2 724 0
 2423 0034 9D42     		cmp	r5, r3
 2424 0036 F3D1     		bne	.L103
 2425 0038 09F18003 		add	r3, r9, #128
 2426 003c 09F12007 		add	r7, r9, #32
 2427 0040 B246     		mov	r10, r6
 2428 0042 0293     		str	r3, [sp, #8]
 2429              	.L104:
 2430              	.LVL274:
 2431              	.LBE1456:
 2432              	.LBE1455:
 2433              	.LBE1454:
 715:/home/tienluong/workspace/atlantis_fw/AsicFwS2/include/matrix.h ****     {
 2434              		.loc 2 715 0
 2435 0044 2546     		mov	r5, r4
 2436 0046 BB46     		mov	fp, r7
 2437              	.LVL275:
 2438              	.L105:
 2439              	.LBB1460:
 2440              	.LBB1459:
 2441              	.LBB1457:
 2442              	.LBB1458:
 730:/home/tienluong/workspace/atlantis_fw/AsicFwS2/include/matrix.h ****             }
 2443              		.loc 2 730 0
 2444 0048 DAE90223 		ldrd	r2, [r10, #8]
 2445 004c FBE80201 		ldrd	r0, [fp], #8
 2446 0050 DFF838C0 		ldr	ip, .L110
 2447 0054 E047     		blx	ip
 2448              	.LVL276:
 2449 0056 DFF838C0 		ldr	ip, .L110+4
 2450 005a 0B46     		mov	r3, r1
 2451 005c 0246     		mov	r2, r0
 2452 005e D5E90001 		ldrd	r0, [r5]
 2453 0062 E047     		blx	ip
 2454              	.LVL277:
 729:/home/tienluong/workspace/atlantis_fw/AsicFwS2/include/matrix.h ****                 { rval( i, j ) += this->_data[Idx( i, k )] * mat( k, j ); }
 2455              		.loc 2 729 0
 2456 0064 019B     		ldr	r3, [sp, #4]
 730:/home/tienluong/workspace/atlantis_fw/AsicFwS2/include/matrix.h ****             }
 2457              		.loc 2 730 0
 2458 0066 E5E80201 		strd	r0, [r5], #8
 729:/home/tienluong/workspace/atlantis_fw/AsicFwS2/include/matrix.h ****                 { rval( i, j ) += this->_data[Idx( i, k )] * mat( k, j ); }
 2459              		.loc 2 729 0
 2460 006a 9D42     		cmp	r5, r3
 2461 006c ECD1     		bne	.L105
 2462              	.LVL278:
 2463              	.LBE1458:
 727:/home/tienluong/workspace/atlantis_fw/AsicFwS2/include/matrix.h ****             {
 2464              		.loc 2 727 0 discriminator 2
 2465 006e 029B     		ldr	r3, [sp, #8]
 2466 0070 2037     		adds	r7, r7, #32
 2467 0072 0AF1080A 		add	r10, r10, #8
 2468 0076 9F42     		cmp	r7, r3
 2469 0078 E4D1     		bne	.L104
 2470              	.LBE1457:
 721:/home/tienluong/workspace/atlantis_fw/AsicFwS2/include/matrix.h ****         {
 2471              		.loc 2 721 0 discriminator 2
 2472 007a 039B     		ldr	r3, [sp, #12]
 2473 007c 2036     		adds	r6, r6, #32
 2474 007e 2C46     		mov	r4, r5
 2475 0080 9D42     		cmp	r5, r3
 2476 0082 C7D1     		bne	.L102
 2477              	.LBE1459:
 2478              	.LBE1460:
 734:/home/tienluong/workspace/atlantis_fw/AsicFwS2/include/matrix.h **** 
 2479              		.loc 2 734 0
 2480 0084 4046     		mov	r0, r8
 2481 0086 05B0     		add	sp, sp, #20
 2482              	.LCFI31:
 2483              		.cfi_def_cfa_offset 36
 2484              		@ sp needed
 2485 0088 BDE8F08F 		pop	{r4, r5, r6, r7, r8, r9, r10, fp, pc}
 2486              	.LVL279:
 2487              	.L111:
 2488              		.align	2
 2489              	.L110:
 2490 008c 00000000 		.word	__aeabi_dmul
 2491 0090 00000000 		.word	__aeabi_dadd
 2492              		.cfi_endproc
 2493              	.LFE3472:
 2495              		.section	.text._ZNSt10unique_ptrIN4ltaf13CalibDataBaseESt14default_deleteIS1_EE5resetEPS1_,"axG",%
 2496              		.align	1
 2497              		.weak	_ZNSt10unique_ptrIN4ltaf13CalibDataBaseESt14default_deleteIS1_EE5resetEPS1_
 2498              		.thumb
 2499              		.thumb_func
 2501              	_ZNSt10unique_ptrIN4ltaf13CalibDataBaseESt14default_deleteIS1_EE5resetEPS1_:
 2502              	.LFB3498:
 2503              		.file 5 "/opt/toolchains/gcc-arm-none-eabi-4_9-2015q1/arm-none-eabi/include/c++/4.9.3/bits/unique_
   1:/opt/toolchains/gcc-arm-none-eabi-4_9-2015q1/arm-none-eabi/include/c++/4.9.3/bits/unique_ptr.h **** // unique_ptr implementation -*- C++ -*-
   2:/opt/toolchains/gcc-arm-none-eabi-4_9-2015q1/arm-none-eabi/include/c++/4.9.3/bits/unique_ptr.h **** 
   3:/opt/toolchains/gcc-arm-none-eabi-4_9-2015q1/arm-none-eabi/include/c++/4.9.3/bits/unique_ptr.h **** // Copyright (C) 2008-2014 Free Software Foundation, Inc.
   4:/opt/toolchains/gcc-arm-none-eabi-4_9-2015q1/arm-none-eabi/include/c++/4.9.3/bits/unique_ptr.h **** //
   5:/opt/toolchains/gcc-arm-none-eabi-4_9-2015q1/arm-none-eabi/include/c++/4.9.3/bits/unique_ptr.h **** // This file is part of the GNU ISO C++ Library.  This library is free
   6:/opt/toolchains/gcc-arm-none-eabi-4_9-2015q1/arm-none-eabi/include/c++/4.9.3/bits/unique_ptr.h **** // software; you can redistribute it and/or modify it under the
   7:/opt/toolchains/gcc-arm-none-eabi-4_9-2015q1/arm-none-eabi/include/c++/4.9.3/bits/unique_ptr.h **** // terms of the GNU General Public License as published by the
   8:/opt/toolchains/gcc-arm-none-eabi-4_9-2015q1/arm-none-eabi/include/c++/4.9.3/bits/unique_ptr.h **** // Free Software Foundation; either version 3, or (at your option)
   9:/opt/toolchains/gcc-arm-none-eabi-4_9-2015q1/arm-none-eabi/include/c++/4.9.3/bits/unique_ptr.h **** // any later version.
  10:/opt/toolchains/gcc-arm-none-eabi-4_9-2015q1/arm-none-eabi/include/c++/4.9.3/bits/unique_ptr.h **** 
  11:/opt/toolchains/gcc-arm-none-eabi-4_9-2015q1/arm-none-eabi/include/c++/4.9.3/bits/unique_ptr.h **** // This library is distributed in the hope that it will be useful,
  12:/opt/toolchains/gcc-arm-none-eabi-4_9-2015q1/arm-none-eabi/include/c++/4.9.3/bits/unique_ptr.h **** // but WITHOUT ANY WARRANTY; without even the implied warranty of
  13:/opt/toolchains/gcc-arm-none-eabi-4_9-2015q1/arm-none-eabi/include/c++/4.9.3/bits/unique_ptr.h **** // MERCHANTABILITY or FITNESS FOR A PARTICULAR PURPOSE.  See the
  14:/opt/toolchains/gcc-arm-none-eabi-4_9-2015q1/arm-none-eabi/include/c++/4.9.3/bits/unique_ptr.h **** // GNU General Public License for more details.
  15:/opt/toolchains/gcc-arm-none-eabi-4_9-2015q1/arm-none-eabi/include/c++/4.9.3/bits/unique_ptr.h **** 
  16:/opt/toolchains/gcc-arm-none-eabi-4_9-2015q1/arm-none-eabi/include/c++/4.9.3/bits/unique_ptr.h **** // Under Section 7 of GPL version 3, you are granted additional
  17:/opt/toolchains/gcc-arm-none-eabi-4_9-2015q1/arm-none-eabi/include/c++/4.9.3/bits/unique_ptr.h **** // permissions described in the GCC Runtime Library Exception, version
  18:/opt/toolchains/gcc-arm-none-eabi-4_9-2015q1/arm-none-eabi/include/c++/4.9.3/bits/unique_ptr.h **** // 3.1, as published by the Free Software Foundation.
  19:/opt/toolchains/gcc-arm-none-eabi-4_9-2015q1/arm-none-eabi/include/c++/4.9.3/bits/unique_ptr.h **** 
  20:/opt/toolchains/gcc-arm-none-eabi-4_9-2015q1/arm-none-eabi/include/c++/4.9.3/bits/unique_ptr.h **** // You should have received a copy of the GNU General Public License and
  21:/opt/toolchains/gcc-arm-none-eabi-4_9-2015q1/arm-none-eabi/include/c++/4.9.3/bits/unique_ptr.h **** // a copy of the GCC Runtime Library Exception along with this program;
  22:/opt/toolchains/gcc-arm-none-eabi-4_9-2015q1/arm-none-eabi/include/c++/4.9.3/bits/unique_ptr.h **** // see the files COPYING3 and COPYING.RUNTIME respectively.  If not, see
  23:/opt/toolchains/gcc-arm-none-eabi-4_9-2015q1/arm-none-eabi/include/c++/4.9.3/bits/unique_ptr.h **** // <http://www.gnu.org/licenses/>.
  24:/opt/toolchains/gcc-arm-none-eabi-4_9-2015q1/arm-none-eabi/include/c++/4.9.3/bits/unique_ptr.h **** 
  25:/opt/toolchains/gcc-arm-none-eabi-4_9-2015q1/arm-none-eabi/include/c++/4.9.3/bits/unique_ptr.h **** /** @file bits/unique_ptr.h
  26:/opt/toolchains/gcc-arm-none-eabi-4_9-2015q1/arm-none-eabi/include/c++/4.9.3/bits/unique_ptr.h ****  *  This is an internal header file, included by other library headers.
  27:/opt/toolchains/gcc-arm-none-eabi-4_9-2015q1/arm-none-eabi/include/c++/4.9.3/bits/unique_ptr.h ****  *  Do not attempt to use it directly. @headername{memory}
  28:/opt/toolchains/gcc-arm-none-eabi-4_9-2015q1/arm-none-eabi/include/c++/4.9.3/bits/unique_ptr.h ****  */
  29:/opt/toolchains/gcc-arm-none-eabi-4_9-2015q1/arm-none-eabi/include/c++/4.9.3/bits/unique_ptr.h **** 
  30:/opt/toolchains/gcc-arm-none-eabi-4_9-2015q1/arm-none-eabi/include/c++/4.9.3/bits/unique_ptr.h **** #ifndef _UNIQUE_PTR_H
  31:/opt/toolchains/gcc-arm-none-eabi-4_9-2015q1/arm-none-eabi/include/c++/4.9.3/bits/unique_ptr.h **** #define _UNIQUE_PTR_H 1
  32:/opt/toolchains/gcc-arm-none-eabi-4_9-2015q1/arm-none-eabi/include/c++/4.9.3/bits/unique_ptr.h **** 
  33:/opt/toolchains/gcc-arm-none-eabi-4_9-2015q1/arm-none-eabi/include/c++/4.9.3/bits/unique_ptr.h **** #include <bits/c++config.h>
  34:/opt/toolchains/gcc-arm-none-eabi-4_9-2015q1/arm-none-eabi/include/c++/4.9.3/bits/unique_ptr.h **** #include <debug/debug.h>
  35:/opt/toolchains/gcc-arm-none-eabi-4_9-2015q1/arm-none-eabi/include/c++/4.9.3/bits/unique_ptr.h **** #include <type_traits>
  36:/opt/toolchains/gcc-arm-none-eabi-4_9-2015q1/arm-none-eabi/include/c++/4.9.3/bits/unique_ptr.h **** #include <utility>
  37:/opt/toolchains/gcc-arm-none-eabi-4_9-2015q1/arm-none-eabi/include/c++/4.9.3/bits/unique_ptr.h **** #include <tuple>
  38:/opt/toolchains/gcc-arm-none-eabi-4_9-2015q1/arm-none-eabi/include/c++/4.9.3/bits/unique_ptr.h **** 
  39:/opt/toolchains/gcc-arm-none-eabi-4_9-2015q1/arm-none-eabi/include/c++/4.9.3/bits/unique_ptr.h **** namespace std _GLIBCXX_VISIBILITY(default)
  40:/opt/toolchains/gcc-arm-none-eabi-4_9-2015q1/arm-none-eabi/include/c++/4.9.3/bits/unique_ptr.h **** {
  41:/opt/toolchains/gcc-arm-none-eabi-4_9-2015q1/arm-none-eabi/include/c++/4.9.3/bits/unique_ptr.h **** _GLIBCXX_BEGIN_NAMESPACE_VERSION
  42:/opt/toolchains/gcc-arm-none-eabi-4_9-2015q1/arm-none-eabi/include/c++/4.9.3/bits/unique_ptr.h **** 
  43:/opt/toolchains/gcc-arm-none-eabi-4_9-2015q1/arm-none-eabi/include/c++/4.9.3/bits/unique_ptr.h ****   /**
  44:/opt/toolchains/gcc-arm-none-eabi-4_9-2015q1/arm-none-eabi/include/c++/4.9.3/bits/unique_ptr.h ****    * @addtogroup pointer_abstractions
  45:/opt/toolchains/gcc-arm-none-eabi-4_9-2015q1/arm-none-eabi/include/c++/4.9.3/bits/unique_ptr.h ****    * @{
  46:/opt/toolchains/gcc-arm-none-eabi-4_9-2015q1/arm-none-eabi/include/c++/4.9.3/bits/unique_ptr.h ****    */
  47:/opt/toolchains/gcc-arm-none-eabi-4_9-2015q1/arm-none-eabi/include/c++/4.9.3/bits/unique_ptr.h **** 
  48:/opt/toolchains/gcc-arm-none-eabi-4_9-2015q1/arm-none-eabi/include/c++/4.9.3/bits/unique_ptr.h **** #if _GLIBCXX_USE_DEPRECATED
  49:/opt/toolchains/gcc-arm-none-eabi-4_9-2015q1/arm-none-eabi/include/c++/4.9.3/bits/unique_ptr.h ****   template<typename> class auto_ptr;
  50:/opt/toolchains/gcc-arm-none-eabi-4_9-2015q1/arm-none-eabi/include/c++/4.9.3/bits/unique_ptr.h **** #endif
  51:/opt/toolchains/gcc-arm-none-eabi-4_9-2015q1/arm-none-eabi/include/c++/4.9.3/bits/unique_ptr.h **** 
  52:/opt/toolchains/gcc-arm-none-eabi-4_9-2015q1/arm-none-eabi/include/c++/4.9.3/bits/unique_ptr.h ****   /// Primary template of default_delete, used by unique_ptr
  53:/opt/toolchains/gcc-arm-none-eabi-4_9-2015q1/arm-none-eabi/include/c++/4.9.3/bits/unique_ptr.h ****   template<typename _Tp>
  54:/opt/toolchains/gcc-arm-none-eabi-4_9-2015q1/arm-none-eabi/include/c++/4.9.3/bits/unique_ptr.h ****     struct default_delete
  55:/opt/toolchains/gcc-arm-none-eabi-4_9-2015q1/arm-none-eabi/include/c++/4.9.3/bits/unique_ptr.h ****     {
  56:/opt/toolchains/gcc-arm-none-eabi-4_9-2015q1/arm-none-eabi/include/c++/4.9.3/bits/unique_ptr.h ****       /// Default constructor
  57:/opt/toolchains/gcc-arm-none-eabi-4_9-2015q1/arm-none-eabi/include/c++/4.9.3/bits/unique_ptr.h ****       constexpr default_delete() noexcept = default;
  58:/opt/toolchains/gcc-arm-none-eabi-4_9-2015q1/arm-none-eabi/include/c++/4.9.3/bits/unique_ptr.h **** 
  59:/opt/toolchains/gcc-arm-none-eabi-4_9-2015q1/arm-none-eabi/include/c++/4.9.3/bits/unique_ptr.h ****       /** @brief Converting constructor.
  60:/opt/toolchains/gcc-arm-none-eabi-4_9-2015q1/arm-none-eabi/include/c++/4.9.3/bits/unique_ptr.h ****        *
  61:/opt/toolchains/gcc-arm-none-eabi-4_9-2015q1/arm-none-eabi/include/c++/4.9.3/bits/unique_ptr.h ****        * Allows conversion from a deleter for arrays of another type, @p _Up,
  62:/opt/toolchains/gcc-arm-none-eabi-4_9-2015q1/arm-none-eabi/include/c++/4.9.3/bits/unique_ptr.h ****        * only if @p _Up* is convertible to @p _Tp*.
  63:/opt/toolchains/gcc-arm-none-eabi-4_9-2015q1/arm-none-eabi/include/c++/4.9.3/bits/unique_ptr.h ****        */
  64:/opt/toolchains/gcc-arm-none-eabi-4_9-2015q1/arm-none-eabi/include/c++/4.9.3/bits/unique_ptr.h ****       template<typename _Up, typename = typename
  65:/opt/toolchains/gcc-arm-none-eabi-4_9-2015q1/arm-none-eabi/include/c++/4.9.3/bits/unique_ptr.h **** 	       enable_if<is_convertible<_Up*, _Tp*>::value>::type>
  66:/opt/toolchains/gcc-arm-none-eabi-4_9-2015q1/arm-none-eabi/include/c++/4.9.3/bits/unique_ptr.h ****         default_delete(const default_delete<_Up>&) noexcept { }
  67:/opt/toolchains/gcc-arm-none-eabi-4_9-2015q1/arm-none-eabi/include/c++/4.9.3/bits/unique_ptr.h **** 
  68:/opt/toolchains/gcc-arm-none-eabi-4_9-2015q1/arm-none-eabi/include/c++/4.9.3/bits/unique_ptr.h ****       /// Calls @c delete @p __ptr
  69:/opt/toolchains/gcc-arm-none-eabi-4_9-2015q1/arm-none-eabi/include/c++/4.9.3/bits/unique_ptr.h ****       void
  70:/opt/toolchains/gcc-arm-none-eabi-4_9-2015q1/arm-none-eabi/include/c++/4.9.3/bits/unique_ptr.h ****       operator()(_Tp* __ptr) const
  71:/opt/toolchains/gcc-arm-none-eabi-4_9-2015q1/arm-none-eabi/include/c++/4.9.3/bits/unique_ptr.h ****       {
  72:/opt/toolchains/gcc-arm-none-eabi-4_9-2015q1/arm-none-eabi/include/c++/4.9.3/bits/unique_ptr.h **** 	static_assert(!is_void<_Tp>::value,
  73:/opt/toolchains/gcc-arm-none-eabi-4_9-2015q1/arm-none-eabi/include/c++/4.9.3/bits/unique_ptr.h **** 		      "can't delete pointer to incomplete type");
  74:/opt/toolchains/gcc-arm-none-eabi-4_9-2015q1/arm-none-eabi/include/c++/4.9.3/bits/unique_ptr.h **** 	static_assert(sizeof(_Tp)>0,
  75:/opt/toolchains/gcc-arm-none-eabi-4_9-2015q1/arm-none-eabi/include/c++/4.9.3/bits/unique_ptr.h **** 		      "can't delete pointer to incomplete type");
  76:/opt/toolchains/gcc-arm-none-eabi-4_9-2015q1/arm-none-eabi/include/c++/4.9.3/bits/unique_ptr.h **** 	delete __ptr;
  77:/opt/toolchains/gcc-arm-none-eabi-4_9-2015q1/arm-none-eabi/include/c++/4.9.3/bits/unique_ptr.h ****       }
  78:/opt/toolchains/gcc-arm-none-eabi-4_9-2015q1/arm-none-eabi/include/c++/4.9.3/bits/unique_ptr.h ****     };
  79:/opt/toolchains/gcc-arm-none-eabi-4_9-2015q1/arm-none-eabi/include/c++/4.9.3/bits/unique_ptr.h **** 
  80:/opt/toolchains/gcc-arm-none-eabi-4_9-2015q1/arm-none-eabi/include/c++/4.9.3/bits/unique_ptr.h ****   // _GLIBCXX_RESOLVE_LIB_DEFECTS
  81:/opt/toolchains/gcc-arm-none-eabi-4_9-2015q1/arm-none-eabi/include/c++/4.9.3/bits/unique_ptr.h ****   // DR 740 - omit specialization for array objects with a compile time length
  82:/opt/toolchains/gcc-arm-none-eabi-4_9-2015q1/arm-none-eabi/include/c++/4.9.3/bits/unique_ptr.h ****   /// Specialization for arrays, default_delete.
  83:/opt/toolchains/gcc-arm-none-eabi-4_9-2015q1/arm-none-eabi/include/c++/4.9.3/bits/unique_ptr.h ****   template<typename _Tp>
  84:/opt/toolchains/gcc-arm-none-eabi-4_9-2015q1/arm-none-eabi/include/c++/4.9.3/bits/unique_ptr.h ****     struct default_delete<_Tp[]>
  85:/opt/toolchains/gcc-arm-none-eabi-4_9-2015q1/arm-none-eabi/include/c++/4.9.3/bits/unique_ptr.h ****     {
  86:/opt/toolchains/gcc-arm-none-eabi-4_9-2015q1/arm-none-eabi/include/c++/4.9.3/bits/unique_ptr.h ****     private:
  87:/opt/toolchains/gcc-arm-none-eabi-4_9-2015q1/arm-none-eabi/include/c++/4.9.3/bits/unique_ptr.h ****       template<typename _Up>
  88:/opt/toolchains/gcc-arm-none-eabi-4_9-2015q1/arm-none-eabi/include/c++/4.9.3/bits/unique_ptr.h **** 	using __remove_cv = typename remove_cv<_Up>::type;
  89:/opt/toolchains/gcc-arm-none-eabi-4_9-2015q1/arm-none-eabi/include/c++/4.9.3/bits/unique_ptr.h **** 
  90:/opt/toolchains/gcc-arm-none-eabi-4_9-2015q1/arm-none-eabi/include/c++/4.9.3/bits/unique_ptr.h ****       // Like is_base_of<_Tp, _Up> but false if unqualified types are the same
  91:/opt/toolchains/gcc-arm-none-eabi-4_9-2015q1/arm-none-eabi/include/c++/4.9.3/bits/unique_ptr.h ****       template<typename _Up>
  92:/opt/toolchains/gcc-arm-none-eabi-4_9-2015q1/arm-none-eabi/include/c++/4.9.3/bits/unique_ptr.h **** 	using __is_derived_Tp
  93:/opt/toolchains/gcc-arm-none-eabi-4_9-2015q1/arm-none-eabi/include/c++/4.9.3/bits/unique_ptr.h **** 	  = __and_< is_base_of<_Tp, _Up>,
  94:/opt/toolchains/gcc-arm-none-eabi-4_9-2015q1/arm-none-eabi/include/c++/4.9.3/bits/unique_ptr.h **** 		    __not_<is_same<__remove_cv<_Tp>, __remove_cv<_Up>>> >;
  95:/opt/toolchains/gcc-arm-none-eabi-4_9-2015q1/arm-none-eabi/include/c++/4.9.3/bits/unique_ptr.h **** 
  96:/opt/toolchains/gcc-arm-none-eabi-4_9-2015q1/arm-none-eabi/include/c++/4.9.3/bits/unique_ptr.h ****     public:
  97:/opt/toolchains/gcc-arm-none-eabi-4_9-2015q1/arm-none-eabi/include/c++/4.9.3/bits/unique_ptr.h ****       /// Default constructor
  98:/opt/toolchains/gcc-arm-none-eabi-4_9-2015q1/arm-none-eabi/include/c++/4.9.3/bits/unique_ptr.h ****       constexpr default_delete() noexcept = default;
  99:/opt/toolchains/gcc-arm-none-eabi-4_9-2015q1/arm-none-eabi/include/c++/4.9.3/bits/unique_ptr.h **** 
 100:/opt/toolchains/gcc-arm-none-eabi-4_9-2015q1/arm-none-eabi/include/c++/4.9.3/bits/unique_ptr.h ****       /** @brief Converting constructor.
 101:/opt/toolchains/gcc-arm-none-eabi-4_9-2015q1/arm-none-eabi/include/c++/4.9.3/bits/unique_ptr.h ****        *
 102:/opt/toolchains/gcc-arm-none-eabi-4_9-2015q1/arm-none-eabi/include/c++/4.9.3/bits/unique_ptr.h ****        * Allows conversion from a deleter for arrays of another type, such as
 103:/opt/toolchains/gcc-arm-none-eabi-4_9-2015q1/arm-none-eabi/include/c++/4.9.3/bits/unique_ptr.h ****        * a const-qualified version of @p _Tp.
 104:/opt/toolchains/gcc-arm-none-eabi-4_9-2015q1/arm-none-eabi/include/c++/4.9.3/bits/unique_ptr.h ****        *
 105:/opt/toolchains/gcc-arm-none-eabi-4_9-2015q1/arm-none-eabi/include/c++/4.9.3/bits/unique_ptr.h ****        * Conversions from types derived from @c _Tp are not allowed because
 106:/opt/toolchains/gcc-arm-none-eabi-4_9-2015q1/arm-none-eabi/include/c++/4.9.3/bits/unique_ptr.h ****        * it is unsafe to @c delete[] an array of derived types through a
 107:/opt/toolchains/gcc-arm-none-eabi-4_9-2015q1/arm-none-eabi/include/c++/4.9.3/bits/unique_ptr.h ****        * pointer to the base type.
 108:/opt/toolchains/gcc-arm-none-eabi-4_9-2015q1/arm-none-eabi/include/c++/4.9.3/bits/unique_ptr.h ****        */
 109:/opt/toolchains/gcc-arm-none-eabi-4_9-2015q1/arm-none-eabi/include/c++/4.9.3/bits/unique_ptr.h ****       template<typename _Up, typename = typename
 110:/opt/toolchains/gcc-arm-none-eabi-4_9-2015q1/arm-none-eabi/include/c++/4.9.3/bits/unique_ptr.h **** 	       enable_if<!__is_derived_Tp<_Up>::value>::type>
 111:/opt/toolchains/gcc-arm-none-eabi-4_9-2015q1/arm-none-eabi/include/c++/4.9.3/bits/unique_ptr.h ****         default_delete(const default_delete<_Up[]>&) noexcept { }
 112:/opt/toolchains/gcc-arm-none-eabi-4_9-2015q1/arm-none-eabi/include/c++/4.9.3/bits/unique_ptr.h **** 
 113:/opt/toolchains/gcc-arm-none-eabi-4_9-2015q1/arm-none-eabi/include/c++/4.9.3/bits/unique_ptr.h ****       /// Calls @c delete[] @p __ptr
 114:/opt/toolchains/gcc-arm-none-eabi-4_9-2015q1/arm-none-eabi/include/c++/4.9.3/bits/unique_ptr.h ****       void
 115:/opt/toolchains/gcc-arm-none-eabi-4_9-2015q1/arm-none-eabi/include/c++/4.9.3/bits/unique_ptr.h ****       operator()(_Tp* __ptr) const
 116:/opt/toolchains/gcc-arm-none-eabi-4_9-2015q1/arm-none-eabi/include/c++/4.9.3/bits/unique_ptr.h ****       {
 117:/opt/toolchains/gcc-arm-none-eabi-4_9-2015q1/arm-none-eabi/include/c++/4.9.3/bits/unique_ptr.h **** 	static_assert(sizeof(_Tp)>0,
 118:/opt/toolchains/gcc-arm-none-eabi-4_9-2015q1/arm-none-eabi/include/c++/4.9.3/bits/unique_ptr.h **** 		      "can't delete pointer to incomplete type");
 119:/opt/toolchains/gcc-arm-none-eabi-4_9-2015q1/arm-none-eabi/include/c++/4.9.3/bits/unique_ptr.h **** 	delete [] __ptr;
 120:/opt/toolchains/gcc-arm-none-eabi-4_9-2015q1/arm-none-eabi/include/c++/4.9.3/bits/unique_ptr.h ****       }
 121:/opt/toolchains/gcc-arm-none-eabi-4_9-2015q1/arm-none-eabi/include/c++/4.9.3/bits/unique_ptr.h **** 
 122:/opt/toolchains/gcc-arm-none-eabi-4_9-2015q1/arm-none-eabi/include/c++/4.9.3/bits/unique_ptr.h ****       template<typename _Up>
 123:/opt/toolchains/gcc-arm-none-eabi-4_9-2015q1/arm-none-eabi/include/c++/4.9.3/bits/unique_ptr.h **** 	typename enable_if<__is_derived_Tp<_Up>::value>::type
 124:/opt/toolchains/gcc-arm-none-eabi-4_9-2015q1/arm-none-eabi/include/c++/4.9.3/bits/unique_ptr.h **** 	operator()(_Up*) const = delete;
 125:/opt/toolchains/gcc-arm-none-eabi-4_9-2015q1/arm-none-eabi/include/c++/4.9.3/bits/unique_ptr.h ****     };
 126:/opt/toolchains/gcc-arm-none-eabi-4_9-2015q1/arm-none-eabi/include/c++/4.9.3/bits/unique_ptr.h **** 
 127:/opt/toolchains/gcc-arm-none-eabi-4_9-2015q1/arm-none-eabi/include/c++/4.9.3/bits/unique_ptr.h ****   /// 20.7.1.2 unique_ptr for single objects.
 128:/opt/toolchains/gcc-arm-none-eabi-4_9-2015q1/arm-none-eabi/include/c++/4.9.3/bits/unique_ptr.h ****   template <typename _Tp, typename _Dp = default_delete<_Tp> >
 129:/opt/toolchains/gcc-arm-none-eabi-4_9-2015q1/arm-none-eabi/include/c++/4.9.3/bits/unique_ptr.h ****     class unique_ptr
 130:/opt/toolchains/gcc-arm-none-eabi-4_9-2015q1/arm-none-eabi/include/c++/4.9.3/bits/unique_ptr.h ****     {
 131:/opt/toolchains/gcc-arm-none-eabi-4_9-2015q1/arm-none-eabi/include/c++/4.9.3/bits/unique_ptr.h ****       // use SFINAE to determine whether _Del::pointer exists
 132:/opt/toolchains/gcc-arm-none-eabi-4_9-2015q1/arm-none-eabi/include/c++/4.9.3/bits/unique_ptr.h ****       class _Pointer
 133:/opt/toolchains/gcc-arm-none-eabi-4_9-2015q1/arm-none-eabi/include/c++/4.9.3/bits/unique_ptr.h ****       {
 134:/opt/toolchains/gcc-arm-none-eabi-4_9-2015q1/arm-none-eabi/include/c++/4.9.3/bits/unique_ptr.h **** 	template<typename _Up>
 135:/opt/toolchains/gcc-arm-none-eabi-4_9-2015q1/arm-none-eabi/include/c++/4.9.3/bits/unique_ptr.h **** 	  static typename _Up::pointer __test(typename _Up::pointer*);
 136:/opt/toolchains/gcc-arm-none-eabi-4_9-2015q1/arm-none-eabi/include/c++/4.9.3/bits/unique_ptr.h **** 
 137:/opt/toolchains/gcc-arm-none-eabi-4_9-2015q1/arm-none-eabi/include/c++/4.9.3/bits/unique_ptr.h **** 	template<typename _Up>
 138:/opt/toolchains/gcc-arm-none-eabi-4_9-2015q1/arm-none-eabi/include/c++/4.9.3/bits/unique_ptr.h **** 	  static _Tp* __test(...);
 139:/opt/toolchains/gcc-arm-none-eabi-4_9-2015q1/arm-none-eabi/include/c++/4.9.3/bits/unique_ptr.h **** 
 140:/opt/toolchains/gcc-arm-none-eabi-4_9-2015q1/arm-none-eabi/include/c++/4.9.3/bits/unique_ptr.h **** 	typedef typename remove_reference<_Dp>::type _Del;
 141:/opt/toolchains/gcc-arm-none-eabi-4_9-2015q1/arm-none-eabi/include/c++/4.9.3/bits/unique_ptr.h **** 
 142:/opt/toolchains/gcc-arm-none-eabi-4_9-2015q1/arm-none-eabi/include/c++/4.9.3/bits/unique_ptr.h ****       public:
 143:/opt/toolchains/gcc-arm-none-eabi-4_9-2015q1/arm-none-eabi/include/c++/4.9.3/bits/unique_ptr.h **** 	typedef decltype(__test<_Del>(0)) type;
 144:/opt/toolchains/gcc-arm-none-eabi-4_9-2015q1/arm-none-eabi/include/c++/4.9.3/bits/unique_ptr.h ****       };
 145:/opt/toolchains/gcc-arm-none-eabi-4_9-2015q1/arm-none-eabi/include/c++/4.9.3/bits/unique_ptr.h **** 
 146:/opt/toolchains/gcc-arm-none-eabi-4_9-2015q1/arm-none-eabi/include/c++/4.9.3/bits/unique_ptr.h ****       typedef std::tuple<typename _Pointer::type, _Dp>  __tuple_type;
 147:/opt/toolchains/gcc-arm-none-eabi-4_9-2015q1/arm-none-eabi/include/c++/4.9.3/bits/unique_ptr.h ****       __tuple_type                                      _M_t;
 148:/opt/toolchains/gcc-arm-none-eabi-4_9-2015q1/arm-none-eabi/include/c++/4.9.3/bits/unique_ptr.h **** 
 149:/opt/toolchains/gcc-arm-none-eabi-4_9-2015q1/arm-none-eabi/include/c++/4.9.3/bits/unique_ptr.h ****     public:
 150:/opt/toolchains/gcc-arm-none-eabi-4_9-2015q1/arm-none-eabi/include/c++/4.9.3/bits/unique_ptr.h ****       typedef typename _Pointer::type   pointer;
 151:/opt/toolchains/gcc-arm-none-eabi-4_9-2015q1/arm-none-eabi/include/c++/4.9.3/bits/unique_ptr.h ****       typedef _Tp                       element_type;
 152:/opt/toolchains/gcc-arm-none-eabi-4_9-2015q1/arm-none-eabi/include/c++/4.9.3/bits/unique_ptr.h ****       typedef _Dp                       deleter_type;
 153:/opt/toolchains/gcc-arm-none-eabi-4_9-2015q1/arm-none-eabi/include/c++/4.9.3/bits/unique_ptr.h **** 
 154:/opt/toolchains/gcc-arm-none-eabi-4_9-2015q1/arm-none-eabi/include/c++/4.9.3/bits/unique_ptr.h ****       // Constructors.
 155:/opt/toolchains/gcc-arm-none-eabi-4_9-2015q1/arm-none-eabi/include/c++/4.9.3/bits/unique_ptr.h **** 
 156:/opt/toolchains/gcc-arm-none-eabi-4_9-2015q1/arm-none-eabi/include/c++/4.9.3/bits/unique_ptr.h ****       /// Default constructor, creates a unique_ptr that owns nothing.
 157:/opt/toolchains/gcc-arm-none-eabi-4_9-2015q1/arm-none-eabi/include/c++/4.9.3/bits/unique_ptr.h ****       constexpr unique_ptr() noexcept
 158:/opt/toolchains/gcc-arm-none-eabi-4_9-2015q1/arm-none-eabi/include/c++/4.9.3/bits/unique_ptr.h ****       : _M_t()
 159:/opt/toolchains/gcc-arm-none-eabi-4_9-2015q1/arm-none-eabi/include/c++/4.9.3/bits/unique_ptr.h ****       { static_assert(!is_pointer<deleter_type>::value,
 160:/opt/toolchains/gcc-arm-none-eabi-4_9-2015q1/arm-none-eabi/include/c++/4.9.3/bits/unique_ptr.h **** 		     "constructed with null function pointer deleter"); }
 161:/opt/toolchains/gcc-arm-none-eabi-4_9-2015q1/arm-none-eabi/include/c++/4.9.3/bits/unique_ptr.h **** 
 162:/opt/toolchains/gcc-arm-none-eabi-4_9-2015q1/arm-none-eabi/include/c++/4.9.3/bits/unique_ptr.h ****       /** Takes ownership of a pointer.
 163:/opt/toolchains/gcc-arm-none-eabi-4_9-2015q1/arm-none-eabi/include/c++/4.9.3/bits/unique_ptr.h ****        *
 164:/opt/toolchains/gcc-arm-none-eabi-4_9-2015q1/arm-none-eabi/include/c++/4.9.3/bits/unique_ptr.h ****        * @param __p  A pointer to an object of @c element_type
 165:/opt/toolchains/gcc-arm-none-eabi-4_9-2015q1/arm-none-eabi/include/c++/4.9.3/bits/unique_ptr.h ****        *
 166:/opt/toolchains/gcc-arm-none-eabi-4_9-2015q1/arm-none-eabi/include/c++/4.9.3/bits/unique_ptr.h ****        * The deleter will be value-initialized.
 167:/opt/toolchains/gcc-arm-none-eabi-4_9-2015q1/arm-none-eabi/include/c++/4.9.3/bits/unique_ptr.h ****        */
 168:/opt/toolchains/gcc-arm-none-eabi-4_9-2015q1/arm-none-eabi/include/c++/4.9.3/bits/unique_ptr.h ****       explicit
 169:/opt/toolchains/gcc-arm-none-eabi-4_9-2015q1/arm-none-eabi/include/c++/4.9.3/bits/unique_ptr.h ****       unique_ptr(pointer __p) noexcept
 170:/opt/toolchains/gcc-arm-none-eabi-4_9-2015q1/arm-none-eabi/include/c++/4.9.3/bits/unique_ptr.h ****       : _M_t(__p, deleter_type())
 171:/opt/toolchains/gcc-arm-none-eabi-4_9-2015q1/arm-none-eabi/include/c++/4.9.3/bits/unique_ptr.h ****       { static_assert(!is_pointer<deleter_type>::value,
 172:/opt/toolchains/gcc-arm-none-eabi-4_9-2015q1/arm-none-eabi/include/c++/4.9.3/bits/unique_ptr.h **** 		     "constructed with null function pointer deleter"); }
 173:/opt/toolchains/gcc-arm-none-eabi-4_9-2015q1/arm-none-eabi/include/c++/4.9.3/bits/unique_ptr.h **** 
 174:/opt/toolchains/gcc-arm-none-eabi-4_9-2015q1/arm-none-eabi/include/c++/4.9.3/bits/unique_ptr.h ****       /** Takes ownership of a pointer.
 175:/opt/toolchains/gcc-arm-none-eabi-4_9-2015q1/arm-none-eabi/include/c++/4.9.3/bits/unique_ptr.h ****        *
 176:/opt/toolchains/gcc-arm-none-eabi-4_9-2015q1/arm-none-eabi/include/c++/4.9.3/bits/unique_ptr.h ****        * @param __p  A pointer to an object of @c element_type
 177:/opt/toolchains/gcc-arm-none-eabi-4_9-2015q1/arm-none-eabi/include/c++/4.9.3/bits/unique_ptr.h ****        * @param __d  A reference to a deleter.
 178:/opt/toolchains/gcc-arm-none-eabi-4_9-2015q1/arm-none-eabi/include/c++/4.9.3/bits/unique_ptr.h ****        *
 179:/opt/toolchains/gcc-arm-none-eabi-4_9-2015q1/arm-none-eabi/include/c++/4.9.3/bits/unique_ptr.h ****        * The deleter will be initialized with @p __d
 180:/opt/toolchains/gcc-arm-none-eabi-4_9-2015q1/arm-none-eabi/include/c++/4.9.3/bits/unique_ptr.h ****        */
 181:/opt/toolchains/gcc-arm-none-eabi-4_9-2015q1/arm-none-eabi/include/c++/4.9.3/bits/unique_ptr.h ****       unique_ptr(pointer __p,
 182:/opt/toolchains/gcc-arm-none-eabi-4_9-2015q1/arm-none-eabi/include/c++/4.9.3/bits/unique_ptr.h **** 	  typename conditional<is_reference<deleter_type>::value,
 183:/opt/toolchains/gcc-arm-none-eabi-4_9-2015q1/arm-none-eabi/include/c++/4.9.3/bits/unique_ptr.h **** 	    deleter_type, const deleter_type&>::type __d) noexcept
 184:/opt/toolchains/gcc-arm-none-eabi-4_9-2015q1/arm-none-eabi/include/c++/4.9.3/bits/unique_ptr.h ****       : _M_t(__p, __d) { }
 185:/opt/toolchains/gcc-arm-none-eabi-4_9-2015q1/arm-none-eabi/include/c++/4.9.3/bits/unique_ptr.h **** 
 186:/opt/toolchains/gcc-arm-none-eabi-4_9-2015q1/arm-none-eabi/include/c++/4.9.3/bits/unique_ptr.h ****       /** Takes ownership of a pointer.
 187:/opt/toolchains/gcc-arm-none-eabi-4_9-2015q1/arm-none-eabi/include/c++/4.9.3/bits/unique_ptr.h ****        *
 188:/opt/toolchains/gcc-arm-none-eabi-4_9-2015q1/arm-none-eabi/include/c++/4.9.3/bits/unique_ptr.h ****        * @param __p  A pointer to an object of @c element_type
 189:/opt/toolchains/gcc-arm-none-eabi-4_9-2015q1/arm-none-eabi/include/c++/4.9.3/bits/unique_ptr.h ****        * @param __d  An rvalue reference to a deleter.
 190:/opt/toolchains/gcc-arm-none-eabi-4_9-2015q1/arm-none-eabi/include/c++/4.9.3/bits/unique_ptr.h ****        *
 191:/opt/toolchains/gcc-arm-none-eabi-4_9-2015q1/arm-none-eabi/include/c++/4.9.3/bits/unique_ptr.h ****        * The deleter will be initialized with @p std::move(__d)
 192:/opt/toolchains/gcc-arm-none-eabi-4_9-2015q1/arm-none-eabi/include/c++/4.9.3/bits/unique_ptr.h ****        */
 193:/opt/toolchains/gcc-arm-none-eabi-4_9-2015q1/arm-none-eabi/include/c++/4.9.3/bits/unique_ptr.h ****       unique_ptr(pointer __p,
 194:/opt/toolchains/gcc-arm-none-eabi-4_9-2015q1/arm-none-eabi/include/c++/4.9.3/bits/unique_ptr.h **** 	  typename remove_reference<deleter_type>::type&& __d) noexcept
 195:/opt/toolchains/gcc-arm-none-eabi-4_9-2015q1/arm-none-eabi/include/c++/4.9.3/bits/unique_ptr.h ****       : _M_t(std::move(__p), std::move(__d))
 196:/opt/toolchains/gcc-arm-none-eabi-4_9-2015q1/arm-none-eabi/include/c++/4.9.3/bits/unique_ptr.h ****       { static_assert(!std::is_reference<deleter_type>::value,
 197:/opt/toolchains/gcc-arm-none-eabi-4_9-2015q1/arm-none-eabi/include/c++/4.9.3/bits/unique_ptr.h **** 		      "rvalue deleter bound to reference"); }
 198:/opt/toolchains/gcc-arm-none-eabi-4_9-2015q1/arm-none-eabi/include/c++/4.9.3/bits/unique_ptr.h **** 
 199:/opt/toolchains/gcc-arm-none-eabi-4_9-2015q1/arm-none-eabi/include/c++/4.9.3/bits/unique_ptr.h ****       /// Creates a unique_ptr that owns nothing.
 200:/opt/toolchains/gcc-arm-none-eabi-4_9-2015q1/arm-none-eabi/include/c++/4.9.3/bits/unique_ptr.h ****       constexpr unique_ptr(nullptr_t) noexcept : unique_ptr() { }
 201:/opt/toolchains/gcc-arm-none-eabi-4_9-2015q1/arm-none-eabi/include/c++/4.9.3/bits/unique_ptr.h **** 
 202:/opt/toolchains/gcc-arm-none-eabi-4_9-2015q1/arm-none-eabi/include/c++/4.9.3/bits/unique_ptr.h ****       // Move constructors.
 203:/opt/toolchains/gcc-arm-none-eabi-4_9-2015q1/arm-none-eabi/include/c++/4.9.3/bits/unique_ptr.h **** 
 204:/opt/toolchains/gcc-arm-none-eabi-4_9-2015q1/arm-none-eabi/include/c++/4.9.3/bits/unique_ptr.h ****       /// Move constructor.
 205:/opt/toolchains/gcc-arm-none-eabi-4_9-2015q1/arm-none-eabi/include/c++/4.9.3/bits/unique_ptr.h ****       unique_ptr(unique_ptr&& __u) noexcept
 206:/opt/toolchains/gcc-arm-none-eabi-4_9-2015q1/arm-none-eabi/include/c++/4.9.3/bits/unique_ptr.h ****       : _M_t(__u.release(), std::forward<deleter_type>(__u.get_deleter())) { }
 207:/opt/toolchains/gcc-arm-none-eabi-4_9-2015q1/arm-none-eabi/include/c++/4.9.3/bits/unique_ptr.h **** 
 208:/opt/toolchains/gcc-arm-none-eabi-4_9-2015q1/arm-none-eabi/include/c++/4.9.3/bits/unique_ptr.h ****       /** @brief Converting constructor from another type
 209:/opt/toolchains/gcc-arm-none-eabi-4_9-2015q1/arm-none-eabi/include/c++/4.9.3/bits/unique_ptr.h ****        *
 210:/opt/toolchains/gcc-arm-none-eabi-4_9-2015q1/arm-none-eabi/include/c++/4.9.3/bits/unique_ptr.h ****        * Requires that the pointer owned by @p __u is convertible to the
 211:/opt/toolchains/gcc-arm-none-eabi-4_9-2015q1/arm-none-eabi/include/c++/4.9.3/bits/unique_ptr.h ****        * type of pointer owned by this object, @p __u does not own an array,
 212:/opt/toolchains/gcc-arm-none-eabi-4_9-2015q1/arm-none-eabi/include/c++/4.9.3/bits/unique_ptr.h ****        * and @p __u has a compatible deleter type.
 213:/opt/toolchains/gcc-arm-none-eabi-4_9-2015q1/arm-none-eabi/include/c++/4.9.3/bits/unique_ptr.h ****        */
 214:/opt/toolchains/gcc-arm-none-eabi-4_9-2015q1/arm-none-eabi/include/c++/4.9.3/bits/unique_ptr.h ****       template<typename _Up, typename _Ep, typename = _Require<
 215:/opt/toolchains/gcc-arm-none-eabi-4_9-2015q1/arm-none-eabi/include/c++/4.9.3/bits/unique_ptr.h **** 	       is_convertible<typename unique_ptr<_Up, _Ep>::pointer, pointer>,
 216:/opt/toolchains/gcc-arm-none-eabi-4_9-2015q1/arm-none-eabi/include/c++/4.9.3/bits/unique_ptr.h **** 	       __not_<is_array<_Up>>,
 217:/opt/toolchains/gcc-arm-none-eabi-4_9-2015q1/arm-none-eabi/include/c++/4.9.3/bits/unique_ptr.h **** 	       typename conditional<is_reference<_Dp>::value,
 218:/opt/toolchains/gcc-arm-none-eabi-4_9-2015q1/arm-none-eabi/include/c++/4.9.3/bits/unique_ptr.h **** 				    is_same<_Ep, _Dp>,
 219:/opt/toolchains/gcc-arm-none-eabi-4_9-2015q1/arm-none-eabi/include/c++/4.9.3/bits/unique_ptr.h **** 				    is_convertible<_Ep, _Dp>>::type>>
 220:/opt/toolchains/gcc-arm-none-eabi-4_9-2015q1/arm-none-eabi/include/c++/4.9.3/bits/unique_ptr.h **** 	unique_ptr(unique_ptr<_Up, _Ep>&& __u) noexcept
 221:/opt/toolchains/gcc-arm-none-eabi-4_9-2015q1/arm-none-eabi/include/c++/4.9.3/bits/unique_ptr.h **** 	: _M_t(__u.release(), std::forward<_Ep>(__u.get_deleter()))
 222:/opt/toolchains/gcc-arm-none-eabi-4_9-2015q1/arm-none-eabi/include/c++/4.9.3/bits/unique_ptr.h **** 	{ }
 223:/opt/toolchains/gcc-arm-none-eabi-4_9-2015q1/arm-none-eabi/include/c++/4.9.3/bits/unique_ptr.h **** 
 224:/opt/toolchains/gcc-arm-none-eabi-4_9-2015q1/arm-none-eabi/include/c++/4.9.3/bits/unique_ptr.h **** #if _GLIBCXX_USE_DEPRECATED
 225:/opt/toolchains/gcc-arm-none-eabi-4_9-2015q1/arm-none-eabi/include/c++/4.9.3/bits/unique_ptr.h ****       /// Converting constructor from @c auto_ptr
 226:/opt/toolchains/gcc-arm-none-eabi-4_9-2015q1/arm-none-eabi/include/c++/4.9.3/bits/unique_ptr.h ****       template<typename _Up, typename = _Require<
 227:/opt/toolchains/gcc-arm-none-eabi-4_9-2015q1/arm-none-eabi/include/c++/4.9.3/bits/unique_ptr.h **** 	       is_convertible<_Up*, _Tp*>, is_same<_Dp, default_delete<_Tp>>>>
 228:/opt/toolchains/gcc-arm-none-eabi-4_9-2015q1/arm-none-eabi/include/c++/4.9.3/bits/unique_ptr.h **** 	unique_ptr(auto_ptr<_Up>&& __u) noexcept;
 229:/opt/toolchains/gcc-arm-none-eabi-4_9-2015q1/arm-none-eabi/include/c++/4.9.3/bits/unique_ptr.h **** #endif
 230:/opt/toolchains/gcc-arm-none-eabi-4_9-2015q1/arm-none-eabi/include/c++/4.9.3/bits/unique_ptr.h **** 
 231:/opt/toolchains/gcc-arm-none-eabi-4_9-2015q1/arm-none-eabi/include/c++/4.9.3/bits/unique_ptr.h ****       /// Destructor, invokes the deleter if the stored pointer is not null.
 232:/opt/toolchains/gcc-arm-none-eabi-4_9-2015q1/arm-none-eabi/include/c++/4.9.3/bits/unique_ptr.h ****       ~unique_ptr() noexcept
 233:/opt/toolchains/gcc-arm-none-eabi-4_9-2015q1/arm-none-eabi/include/c++/4.9.3/bits/unique_ptr.h ****       {
 234:/opt/toolchains/gcc-arm-none-eabi-4_9-2015q1/arm-none-eabi/include/c++/4.9.3/bits/unique_ptr.h **** 	auto& __ptr = std::get<0>(_M_t);
 235:/opt/toolchains/gcc-arm-none-eabi-4_9-2015q1/arm-none-eabi/include/c++/4.9.3/bits/unique_ptr.h **** 	if (__ptr != nullptr)
 236:/opt/toolchains/gcc-arm-none-eabi-4_9-2015q1/arm-none-eabi/include/c++/4.9.3/bits/unique_ptr.h **** 	  get_deleter()(__ptr);
 237:/opt/toolchains/gcc-arm-none-eabi-4_9-2015q1/arm-none-eabi/include/c++/4.9.3/bits/unique_ptr.h **** 	__ptr = pointer();
 238:/opt/toolchains/gcc-arm-none-eabi-4_9-2015q1/arm-none-eabi/include/c++/4.9.3/bits/unique_ptr.h ****       }
 239:/opt/toolchains/gcc-arm-none-eabi-4_9-2015q1/arm-none-eabi/include/c++/4.9.3/bits/unique_ptr.h **** 
 240:/opt/toolchains/gcc-arm-none-eabi-4_9-2015q1/arm-none-eabi/include/c++/4.9.3/bits/unique_ptr.h ****       // Assignment.
 241:/opt/toolchains/gcc-arm-none-eabi-4_9-2015q1/arm-none-eabi/include/c++/4.9.3/bits/unique_ptr.h **** 
 242:/opt/toolchains/gcc-arm-none-eabi-4_9-2015q1/arm-none-eabi/include/c++/4.9.3/bits/unique_ptr.h ****       /** @brief Move assignment operator.
 243:/opt/toolchains/gcc-arm-none-eabi-4_9-2015q1/arm-none-eabi/include/c++/4.9.3/bits/unique_ptr.h ****        *
 244:/opt/toolchains/gcc-arm-none-eabi-4_9-2015q1/arm-none-eabi/include/c++/4.9.3/bits/unique_ptr.h ****        * @param __u  The object to transfer ownership from.
 245:/opt/toolchains/gcc-arm-none-eabi-4_9-2015q1/arm-none-eabi/include/c++/4.9.3/bits/unique_ptr.h ****        *
 246:/opt/toolchains/gcc-arm-none-eabi-4_9-2015q1/arm-none-eabi/include/c++/4.9.3/bits/unique_ptr.h ****        * Invokes the deleter first if this object owns a pointer.
 247:/opt/toolchains/gcc-arm-none-eabi-4_9-2015q1/arm-none-eabi/include/c++/4.9.3/bits/unique_ptr.h ****        */
 248:/opt/toolchains/gcc-arm-none-eabi-4_9-2015q1/arm-none-eabi/include/c++/4.9.3/bits/unique_ptr.h ****       unique_ptr&
 249:/opt/toolchains/gcc-arm-none-eabi-4_9-2015q1/arm-none-eabi/include/c++/4.9.3/bits/unique_ptr.h ****       operator=(unique_ptr&& __u) noexcept
 250:/opt/toolchains/gcc-arm-none-eabi-4_9-2015q1/arm-none-eabi/include/c++/4.9.3/bits/unique_ptr.h ****       {
 251:/opt/toolchains/gcc-arm-none-eabi-4_9-2015q1/arm-none-eabi/include/c++/4.9.3/bits/unique_ptr.h **** 	reset(__u.release());
 252:/opt/toolchains/gcc-arm-none-eabi-4_9-2015q1/arm-none-eabi/include/c++/4.9.3/bits/unique_ptr.h **** 	get_deleter() = std::forward<deleter_type>(__u.get_deleter());
 253:/opt/toolchains/gcc-arm-none-eabi-4_9-2015q1/arm-none-eabi/include/c++/4.9.3/bits/unique_ptr.h **** 	return *this;
 254:/opt/toolchains/gcc-arm-none-eabi-4_9-2015q1/arm-none-eabi/include/c++/4.9.3/bits/unique_ptr.h ****       }
 255:/opt/toolchains/gcc-arm-none-eabi-4_9-2015q1/arm-none-eabi/include/c++/4.9.3/bits/unique_ptr.h **** 
 256:/opt/toolchains/gcc-arm-none-eabi-4_9-2015q1/arm-none-eabi/include/c++/4.9.3/bits/unique_ptr.h ****       /** @brief Assignment from another type.
 257:/opt/toolchains/gcc-arm-none-eabi-4_9-2015q1/arm-none-eabi/include/c++/4.9.3/bits/unique_ptr.h ****        *
 258:/opt/toolchains/gcc-arm-none-eabi-4_9-2015q1/arm-none-eabi/include/c++/4.9.3/bits/unique_ptr.h ****        * @param __u  The object to transfer ownership from, which owns a
 259:/opt/toolchains/gcc-arm-none-eabi-4_9-2015q1/arm-none-eabi/include/c++/4.9.3/bits/unique_ptr.h ****        *             convertible pointer to a non-array object.
 260:/opt/toolchains/gcc-arm-none-eabi-4_9-2015q1/arm-none-eabi/include/c++/4.9.3/bits/unique_ptr.h ****        *
 261:/opt/toolchains/gcc-arm-none-eabi-4_9-2015q1/arm-none-eabi/include/c++/4.9.3/bits/unique_ptr.h ****        * Invokes the deleter first if this object owns a pointer.
 262:/opt/toolchains/gcc-arm-none-eabi-4_9-2015q1/arm-none-eabi/include/c++/4.9.3/bits/unique_ptr.h ****        */
 263:/opt/toolchains/gcc-arm-none-eabi-4_9-2015q1/arm-none-eabi/include/c++/4.9.3/bits/unique_ptr.h ****       template<typename _Up, typename _Ep>
 264:/opt/toolchains/gcc-arm-none-eabi-4_9-2015q1/arm-none-eabi/include/c++/4.9.3/bits/unique_ptr.h **** 	typename enable_if< __and_<
 265:/opt/toolchains/gcc-arm-none-eabi-4_9-2015q1/arm-none-eabi/include/c++/4.9.3/bits/unique_ptr.h **** 	  is_convertible<typename unique_ptr<_Up, _Ep>::pointer, pointer>,
 266:/opt/toolchains/gcc-arm-none-eabi-4_9-2015q1/arm-none-eabi/include/c++/4.9.3/bits/unique_ptr.h **** 	  __not_<is_array<_Up>>
 267:/opt/toolchains/gcc-arm-none-eabi-4_9-2015q1/arm-none-eabi/include/c++/4.9.3/bits/unique_ptr.h **** 	  >::value,
 268:/opt/toolchains/gcc-arm-none-eabi-4_9-2015q1/arm-none-eabi/include/c++/4.9.3/bits/unique_ptr.h **** 	  unique_ptr&>::type
 269:/opt/toolchains/gcc-arm-none-eabi-4_9-2015q1/arm-none-eabi/include/c++/4.9.3/bits/unique_ptr.h **** 	operator=(unique_ptr<_Up, _Ep>&& __u) noexcept
 270:/opt/toolchains/gcc-arm-none-eabi-4_9-2015q1/arm-none-eabi/include/c++/4.9.3/bits/unique_ptr.h **** 	{
 271:/opt/toolchains/gcc-arm-none-eabi-4_9-2015q1/arm-none-eabi/include/c++/4.9.3/bits/unique_ptr.h **** 	  reset(__u.release());
 272:/opt/toolchains/gcc-arm-none-eabi-4_9-2015q1/arm-none-eabi/include/c++/4.9.3/bits/unique_ptr.h **** 	  get_deleter() = std::forward<_Ep>(__u.get_deleter());
 273:/opt/toolchains/gcc-arm-none-eabi-4_9-2015q1/arm-none-eabi/include/c++/4.9.3/bits/unique_ptr.h **** 	  return *this;
 274:/opt/toolchains/gcc-arm-none-eabi-4_9-2015q1/arm-none-eabi/include/c++/4.9.3/bits/unique_ptr.h **** 	}
 275:/opt/toolchains/gcc-arm-none-eabi-4_9-2015q1/arm-none-eabi/include/c++/4.9.3/bits/unique_ptr.h **** 
 276:/opt/toolchains/gcc-arm-none-eabi-4_9-2015q1/arm-none-eabi/include/c++/4.9.3/bits/unique_ptr.h ****       /// Reset the %unique_ptr to empty, invoking the deleter if necessary.
 277:/opt/toolchains/gcc-arm-none-eabi-4_9-2015q1/arm-none-eabi/include/c++/4.9.3/bits/unique_ptr.h ****       unique_ptr&
 278:/opt/toolchains/gcc-arm-none-eabi-4_9-2015q1/arm-none-eabi/include/c++/4.9.3/bits/unique_ptr.h ****       operator=(nullptr_t) noexcept
 279:/opt/toolchains/gcc-arm-none-eabi-4_9-2015q1/arm-none-eabi/include/c++/4.9.3/bits/unique_ptr.h ****       {
 280:/opt/toolchains/gcc-arm-none-eabi-4_9-2015q1/arm-none-eabi/include/c++/4.9.3/bits/unique_ptr.h **** 	reset();
 281:/opt/toolchains/gcc-arm-none-eabi-4_9-2015q1/arm-none-eabi/include/c++/4.9.3/bits/unique_ptr.h **** 	return *this;
 282:/opt/toolchains/gcc-arm-none-eabi-4_9-2015q1/arm-none-eabi/include/c++/4.9.3/bits/unique_ptr.h ****       }
 283:/opt/toolchains/gcc-arm-none-eabi-4_9-2015q1/arm-none-eabi/include/c++/4.9.3/bits/unique_ptr.h **** 
 284:/opt/toolchains/gcc-arm-none-eabi-4_9-2015q1/arm-none-eabi/include/c++/4.9.3/bits/unique_ptr.h ****       // Observers.
 285:/opt/toolchains/gcc-arm-none-eabi-4_9-2015q1/arm-none-eabi/include/c++/4.9.3/bits/unique_ptr.h **** 
 286:/opt/toolchains/gcc-arm-none-eabi-4_9-2015q1/arm-none-eabi/include/c++/4.9.3/bits/unique_ptr.h ****       /// Dereference the stored pointer.
 287:/opt/toolchains/gcc-arm-none-eabi-4_9-2015q1/arm-none-eabi/include/c++/4.9.3/bits/unique_ptr.h ****       typename add_lvalue_reference<element_type>::type
 288:/opt/toolchains/gcc-arm-none-eabi-4_9-2015q1/arm-none-eabi/include/c++/4.9.3/bits/unique_ptr.h ****       operator*() const
 289:/opt/toolchains/gcc-arm-none-eabi-4_9-2015q1/arm-none-eabi/include/c++/4.9.3/bits/unique_ptr.h ****       {
 290:/opt/toolchains/gcc-arm-none-eabi-4_9-2015q1/arm-none-eabi/include/c++/4.9.3/bits/unique_ptr.h **** 	_GLIBCXX_DEBUG_ASSERT(get() != pointer());
 291:/opt/toolchains/gcc-arm-none-eabi-4_9-2015q1/arm-none-eabi/include/c++/4.9.3/bits/unique_ptr.h **** 	return *get();
 292:/opt/toolchains/gcc-arm-none-eabi-4_9-2015q1/arm-none-eabi/include/c++/4.9.3/bits/unique_ptr.h ****       }
 293:/opt/toolchains/gcc-arm-none-eabi-4_9-2015q1/arm-none-eabi/include/c++/4.9.3/bits/unique_ptr.h **** 
 294:/opt/toolchains/gcc-arm-none-eabi-4_9-2015q1/arm-none-eabi/include/c++/4.9.3/bits/unique_ptr.h ****       /// Return the stored pointer.
 295:/opt/toolchains/gcc-arm-none-eabi-4_9-2015q1/arm-none-eabi/include/c++/4.9.3/bits/unique_ptr.h ****       pointer
 296:/opt/toolchains/gcc-arm-none-eabi-4_9-2015q1/arm-none-eabi/include/c++/4.9.3/bits/unique_ptr.h ****       operator->() const noexcept
 297:/opt/toolchains/gcc-arm-none-eabi-4_9-2015q1/arm-none-eabi/include/c++/4.9.3/bits/unique_ptr.h ****       {
 298:/opt/toolchains/gcc-arm-none-eabi-4_9-2015q1/arm-none-eabi/include/c++/4.9.3/bits/unique_ptr.h **** 	_GLIBCXX_DEBUG_ASSERT(get() != pointer());
 299:/opt/toolchains/gcc-arm-none-eabi-4_9-2015q1/arm-none-eabi/include/c++/4.9.3/bits/unique_ptr.h **** 	return get();
 300:/opt/toolchains/gcc-arm-none-eabi-4_9-2015q1/arm-none-eabi/include/c++/4.9.3/bits/unique_ptr.h ****       }
 301:/opt/toolchains/gcc-arm-none-eabi-4_9-2015q1/arm-none-eabi/include/c++/4.9.3/bits/unique_ptr.h **** 
 302:/opt/toolchains/gcc-arm-none-eabi-4_9-2015q1/arm-none-eabi/include/c++/4.9.3/bits/unique_ptr.h ****       /// Return the stored pointer.
 303:/opt/toolchains/gcc-arm-none-eabi-4_9-2015q1/arm-none-eabi/include/c++/4.9.3/bits/unique_ptr.h ****       pointer
 304:/opt/toolchains/gcc-arm-none-eabi-4_9-2015q1/arm-none-eabi/include/c++/4.9.3/bits/unique_ptr.h ****       get() const noexcept
 305:/opt/toolchains/gcc-arm-none-eabi-4_9-2015q1/arm-none-eabi/include/c++/4.9.3/bits/unique_ptr.h ****       { return std::get<0>(_M_t); }
 306:/opt/toolchains/gcc-arm-none-eabi-4_9-2015q1/arm-none-eabi/include/c++/4.9.3/bits/unique_ptr.h **** 
 307:/opt/toolchains/gcc-arm-none-eabi-4_9-2015q1/arm-none-eabi/include/c++/4.9.3/bits/unique_ptr.h ****       /// Return a reference to the stored deleter.
 308:/opt/toolchains/gcc-arm-none-eabi-4_9-2015q1/arm-none-eabi/include/c++/4.9.3/bits/unique_ptr.h ****       deleter_type&
 309:/opt/toolchains/gcc-arm-none-eabi-4_9-2015q1/arm-none-eabi/include/c++/4.9.3/bits/unique_ptr.h ****       get_deleter() noexcept
 310:/opt/toolchains/gcc-arm-none-eabi-4_9-2015q1/arm-none-eabi/include/c++/4.9.3/bits/unique_ptr.h ****       { return std::get<1>(_M_t); }
 311:/opt/toolchains/gcc-arm-none-eabi-4_9-2015q1/arm-none-eabi/include/c++/4.9.3/bits/unique_ptr.h **** 
 312:/opt/toolchains/gcc-arm-none-eabi-4_9-2015q1/arm-none-eabi/include/c++/4.9.3/bits/unique_ptr.h ****       /// Return a reference to the stored deleter.
 313:/opt/toolchains/gcc-arm-none-eabi-4_9-2015q1/arm-none-eabi/include/c++/4.9.3/bits/unique_ptr.h ****       const deleter_type&
 314:/opt/toolchains/gcc-arm-none-eabi-4_9-2015q1/arm-none-eabi/include/c++/4.9.3/bits/unique_ptr.h ****       get_deleter() const noexcept
 315:/opt/toolchains/gcc-arm-none-eabi-4_9-2015q1/arm-none-eabi/include/c++/4.9.3/bits/unique_ptr.h ****       { return std::get<1>(_M_t); }
 316:/opt/toolchains/gcc-arm-none-eabi-4_9-2015q1/arm-none-eabi/include/c++/4.9.3/bits/unique_ptr.h **** 
 317:/opt/toolchains/gcc-arm-none-eabi-4_9-2015q1/arm-none-eabi/include/c++/4.9.3/bits/unique_ptr.h ****       /// Return @c true if the stored pointer is not null.
 318:/opt/toolchains/gcc-arm-none-eabi-4_9-2015q1/arm-none-eabi/include/c++/4.9.3/bits/unique_ptr.h ****       explicit operator bool() const noexcept
 319:/opt/toolchains/gcc-arm-none-eabi-4_9-2015q1/arm-none-eabi/include/c++/4.9.3/bits/unique_ptr.h ****       { return get() == pointer() ? false : true; }
 320:/opt/toolchains/gcc-arm-none-eabi-4_9-2015q1/arm-none-eabi/include/c++/4.9.3/bits/unique_ptr.h **** 
 321:/opt/toolchains/gcc-arm-none-eabi-4_9-2015q1/arm-none-eabi/include/c++/4.9.3/bits/unique_ptr.h ****       // Modifiers.
 322:/opt/toolchains/gcc-arm-none-eabi-4_9-2015q1/arm-none-eabi/include/c++/4.9.3/bits/unique_ptr.h **** 
 323:/opt/toolchains/gcc-arm-none-eabi-4_9-2015q1/arm-none-eabi/include/c++/4.9.3/bits/unique_ptr.h ****       /// Release ownership of any stored pointer.
 324:/opt/toolchains/gcc-arm-none-eabi-4_9-2015q1/arm-none-eabi/include/c++/4.9.3/bits/unique_ptr.h ****       pointer
 325:/opt/toolchains/gcc-arm-none-eabi-4_9-2015q1/arm-none-eabi/include/c++/4.9.3/bits/unique_ptr.h ****       release() noexcept
 326:/opt/toolchains/gcc-arm-none-eabi-4_9-2015q1/arm-none-eabi/include/c++/4.9.3/bits/unique_ptr.h ****       {
 327:/opt/toolchains/gcc-arm-none-eabi-4_9-2015q1/arm-none-eabi/include/c++/4.9.3/bits/unique_ptr.h **** 	pointer __p = get();
 328:/opt/toolchains/gcc-arm-none-eabi-4_9-2015q1/arm-none-eabi/include/c++/4.9.3/bits/unique_ptr.h **** 	std::get<0>(_M_t) = pointer();
 329:/opt/toolchains/gcc-arm-none-eabi-4_9-2015q1/arm-none-eabi/include/c++/4.9.3/bits/unique_ptr.h **** 	return __p;
 330:/opt/toolchains/gcc-arm-none-eabi-4_9-2015q1/arm-none-eabi/include/c++/4.9.3/bits/unique_ptr.h ****       }
 331:/opt/toolchains/gcc-arm-none-eabi-4_9-2015q1/arm-none-eabi/include/c++/4.9.3/bits/unique_ptr.h **** 
 332:/opt/toolchains/gcc-arm-none-eabi-4_9-2015q1/arm-none-eabi/include/c++/4.9.3/bits/unique_ptr.h ****       /** @brief Replace the stored pointer.
 333:/opt/toolchains/gcc-arm-none-eabi-4_9-2015q1/arm-none-eabi/include/c++/4.9.3/bits/unique_ptr.h ****        *
 334:/opt/toolchains/gcc-arm-none-eabi-4_9-2015q1/arm-none-eabi/include/c++/4.9.3/bits/unique_ptr.h ****        * @param __p  The new pointer to store.
 335:/opt/toolchains/gcc-arm-none-eabi-4_9-2015q1/arm-none-eabi/include/c++/4.9.3/bits/unique_ptr.h ****        *
 336:/opt/toolchains/gcc-arm-none-eabi-4_9-2015q1/arm-none-eabi/include/c++/4.9.3/bits/unique_ptr.h ****        * The deleter will be invoked if a pointer is already owned.
 337:/opt/toolchains/gcc-arm-none-eabi-4_9-2015q1/arm-none-eabi/include/c++/4.9.3/bits/unique_ptr.h ****        */
 338:/opt/toolchains/gcc-arm-none-eabi-4_9-2015q1/arm-none-eabi/include/c++/4.9.3/bits/unique_ptr.h ****       void
 339:/opt/toolchains/gcc-arm-none-eabi-4_9-2015q1/arm-none-eabi/include/c++/4.9.3/bits/unique_ptr.h ****       reset(pointer __p = pointer()) noexcept
 2504              		.loc 5 339 0
 2505              		.cfi_startproc
 2506              		@ args = 0, pretend = 0, frame = 0
 2507              		@ frame_needed = 0, uses_anonymous_args = 0
 2508              		@ link register save eliminated.
 2509              	.LVL280:
 2510              	.LBB1466:
 2511              	.LBB1467:
 2512              	.LBB1468:
 2513              		.file 6 "/opt/toolchains/gcc-arm-none-eabi-4_9-2015q1/arm-none-eabi/include/c++/4.9.3/bits/move.h"
   1:/opt/toolchains/gcc-arm-none-eabi-4_9-2015q1/arm-none-eabi/include/c++/4.9.3/bits/move.h **** // Move, forward and identity for C++0x + swap -*- C++ -*-
   2:/opt/toolchains/gcc-arm-none-eabi-4_9-2015q1/arm-none-eabi/include/c++/4.9.3/bits/move.h **** 
   3:/opt/toolchains/gcc-arm-none-eabi-4_9-2015q1/arm-none-eabi/include/c++/4.9.3/bits/move.h **** // Copyright (C) 2007-2014 Free Software Foundation, Inc.
   4:/opt/toolchains/gcc-arm-none-eabi-4_9-2015q1/arm-none-eabi/include/c++/4.9.3/bits/move.h **** //
   5:/opt/toolchains/gcc-arm-none-eabi-4_9-2015q1/arm-none-eabi/include/c++/4.9.3/bits/move.h **** // This file is part of the GNU ISO C++ Library.  This library is free
   6:/opt/toolchains/gcc-arm-none-eabi-4_9-2015q1/arm-none-eabi/include/c++/4.9.3/bits/move.h **** // software; you can redistribute it and/or modify it under the
   7:/opt/toolchains/gcc-arm-none-eabi-4_9-2015q1/arm-none-eabi/include/c++/4.9.3/bits/move.h **** // terms of the GNU General Public License as published by the
   8:/opt/toolchains/gcc-arm-none-eabi-4_9-2015q1/arm-none-eabi/include/c++/4.9.3/bits/move.h **** // Free Software Foundation; either version 3, or (at your option)
   9:/opt/toolchains/gcc-arm-none-eabi-4_9-2015q1/arm-none-eabi/include/c++/4.9.3/bits/move.h **** // any later version.
  10:/opt/toolchains/gcc-arm-none-eabi-4_9-2015q1/arm-none-eabi/include/c++/4.9.3/bits/move.h **** 
  11:/opt/toolchains/gcc-arm-none-eabi-4_9-2015q1/arm-none-eabi/include/c++/4.9.3/bits/move.h **** // This library is distributed in the hope that it will be useful,
  12:/opt/toolchains/gcc-arm-none-eabi-4_9-2015q1/arm-none-eabi/include/c++/4.9.3/bits/move.h **** // but WITHOUT ANY WARRANTY; without even the implied warranty of
  13:/opt/toolchains/gcc-arm-none-eabi-4_9-2015q1/arm-none-eabi/include/c++/4.9.3/bits/move.h **** // MERCHANTABILITY or FITNESS FOR A PARTICULAR PURPOSE.  See the
  14:/opt/toolchains/gcc-arm-none-eabi-4_9-2015q1/arm-none-eabi/include/c++/4.9.3/bits/move.h **** // GNU General Public License for more details.
  15:/opt/toolchains/gcc-arm-none-eabi-4_9-2015q1/arm-none-eabi/include/c++/4.9.3/bits/move.h **** 
  16:/opt/toolchains/gcc-arm-none-eabi-4_9-2015q1/arm-none-eabi/include/c++/4.9.3/bits/move.h **** // Under Section 7 of GPL version 3, you are granted additional
  17:/opt/toolchains/gcc-arm-none-eabi-4_9-2015q1/arm-none-eabi/include/c++/4.9.3/bits/move.h **** // permissions described in the GCC Runtime Library Exception, version
  18:/opt/toolchains/gcc-arm-none-eabi-4_9-2015q1/arm-none-eabi/include/c++/4.9.3/bits/move.h **** // 3.1, as published by the Free Software Foundation.
  19:/opt/toolchains/gcc-arm-none-eabi-4_9-2015q1/arm-none-eabi/include/c++/4.9.3/bits/move.h **** 
  20:/opt/toolchains/gcc-arm-none-eabi-4_9-2015q1/arm-none-eabi/include/c++/4.9.3/bits/move.h **** // You should have received a copy of the GNU General Public License and
  21:/opt/toolchains/gcc-arm-none-eabi-4_9-2015q1/arm-none-eabi/include/c++/4.9.3/bits/move.h **** // a copy of the GCC Runtime Library Exception along with this program;
  22:/opt/toolchains/gcc-arm-none-eabi-4_9-2015q1/arm-none-eabi/include/c++/4.9.3/bits/move.h **** // see the files COPYING3 and COPYING.RUNTIME respectively.  If not, see
  23:/opt/toolchains/gcc-arm-none-eabi-4_9-2015q1/arm-none-eabi/include/c++/4.9.3/bits/move.h **** // <http://www.gnu.org/licenses/>.
  24:/opt/toolchains/gcc-arm-none-eabi-4_9-2015q1/arm-none-eabi/include/c++/4.9.3/bits/move.h **** 
  25:/opt/toolchains/gcc-arm-none-eabi-4_9-2015q1/arm-none-eabi/include/c++/4.9.3/bits/move.h **** /** @file bits/move.h
  26:/opt/toolchains/gcc-arm-none-eabi-4_9-2015q1/arm-none-eabi/include/c++/4.9.3/bits/move.h ****  *  This is an internal header file, included by other library headers.
  27:/opt/toolchains/gcc-arm-none-eabi-4_9-2015q1/arm-none-eabi/include/c++/4.9.3/bits/move.h ****  *  Do not attempt to use it directly. @headername{utility}
  28:/opt/toolchains/gcc-arm-none-eabi-4_9-2015q1/arm-none-eabi/include/c++/4.9.3/bits/move.h ****  */
  29:/opt/toolchains/gcc-arm-none-eabi-4_9-2015q1/arm-none-eabi/include/c++/4.9.3/bits/move.h **** 
  30:/opt/toolchains/gcc-arm-none-eabi-4_9-2015q1/arm-none-eabi/include/c++/4.9.3/bits/move.h **** #ifndef _MOVE_H
  31:/opt/toolchains/gcc-arm-none-eabi-4_9-2015q1/arm-none-eabi/include/c++/4.9.3/bits/move.h **** #define _MOVE_H 1
  32:/opt/toolchains/gcc-arm-none-eabi-4_9-2015q1/arm-none-eabi/include/c++/4.9.3/bits/move.h **** 
  33:/opt/toolchains/gcc-arm-none-eabi-4_9-2015q1/arm-none-eabi/include/c++/4.9.3/bits/move.h **** #include <bits/c++config.h>
  34:/opt/toolchains/gcc-arm-none-eabi-4_9-2015q1/arm-none-eabi/include/c++/4.9.3/bits/move.h **** #include <bits/concept_check.h>
  35:/opt/toolchains/gcc-arm-none-eabi-4_9-2015q1/arm-none-eabi/include/c++/4.9.3/bits/move.h **** 
  36:/opt/toolchains/gcc-arm-none-eabi-4_9-2015q1/arm-none-eabi/include/c++/4.9.3/bits/move.h **** namespace std _GLIBCXX_VISIBILITY(default)
  37:/opt/toolchains/gcc-arm-none-eabi-4_9-2015q1/arm-none-eabi/include/c++/4.9.3/bits/move.h **** {
  38:/opt/toolchains/gcc-arm-none-eabi-4_9-2015q1/arm-none-eabi/include/c++/4.9.3/bits/move.h **** _GLIBCXX_BEGIN_NAMESPACE_VERSION
  39:/opt/toolchains/gcc-arm-none-eabi-4_9-2015q1/arm-none-eabi/include/c++/4.9.3/bits/move.h **** 
  40:/opt/toolchains/gcc-arm-none-eabi-4_9-2015q1/arm-none-eabi/include/c++/4.9.3/bits/move.h ****   // Used, in C++03 mode too, by allocators, etc.
  41:/opt/toolchains/gcc-arm-none-eabi-4_9-2015q1/arm-none-eabi/include/c++/4.9.3/bits/move.h ****   /**
  42:/opt/toolchains/gcc-arm-none-eabi-4_9-2015q1/arm-none-eabi/include/c++/4.9.3/bits/move.h ****    *  @brief Same as C++11 std::addressof
  43:/opt/toolchains/gcc-arm-none-eabi-4_9-2015q1/arm-none-eabi/include/c++/4.9.3/bits/move.h ****    *  @ingroup utilities
  44:/opt/toolchains/gcc-arm-none-eabi-4_9-2015q1/arm-none-eabi/include/c++/4.9.3/bits/move.h ****    */
  45:/opt/toolchains/gcc-arm-none-eabi-4_9-2015q1/arm-none-eabi/include/c++/4.9.3/bits/move.h ****   template<typename _Tp>
  46:/opt/toolchains/gcc-arm-none-eabi-4_9-2015q1/arm-none-eabi/include/c++/4.9.3/bits/move.h ****     inline _Tp*
  47:/opt/toolchains/gcc-arm-none-eabi-4_9-2015q1/arm-none-eabi/include/c++/4.9.3/bits/move.h ****     __addressof(_Tp& __r) _GLIBCXX_NOEXCEPT
  48:/opt/toolchains/gcc-arm-none-eabi-4_9-2015q1/arm-none-eabi/include/c++/4.9.3/bits/move.h ****     {
  49:/opt/toolchains/gcc-arm-none-eabi-4_9-2015q1/arm-none-eabi/include/c++/4.9.3/bits/move.h ****       return reinterpret_cast<_Tp*>
  50:/opt/toolchains/gcc-arm-none-eabi-4_9-2015q1/arm-none-eabi/include/c++/4.9.3/bits/move.h **** 	(&const_cast<char&>(reinterpret_cast<const volatile char&>(__r)));
  51:/opt/toolchains/gcc-arm-none-eabi-4_9-2015q1/arm-none-eabi/include/c++/4.9.3/bits/move.h ****     }
  52:/opt/toolchains/gcc-arm-none-eabi-4_9-2015q1/arm-none-eabi/include/c++/4.9.3/bits/move.h **** 
  53:/opt/toolchains/gcc-arm-none-eabi-4_9-2015q1/arm-none-eabi/include/c++/4.9.3/bits/move.h **** _GLIBCXX_END_NAMESPACE_VERSION
  54:/opt/toolchains/gcc-arm-none-eabi-4_9-2015q1/arm-none-eabi/include/c++/4.9.3/bits/move.h **** } // namespace
  55:/opt/toolchains/gcc-arm-none-eabi-4_9-2015q1/arm-none-eabi/include/c++/4.9.3/bits/move.h **** 
  56:/opt/toolchains/gcc-arm-none-eabi-4_9-2015q1/arm-none-eabi/include/c++/4.9.3/bits/move.h **** #if __cplusplus >= 201103L
  57:/opt/toolchains/gcc-arm-none-eabi-4_9-2015q1/arm-none-eabi/include/c++/4.9.3/bits/move.h **** #include <type_traits> // Brings in std::declval too.
  58:/opt/toolchains/gcc-arm-none-eabi-4_9-2015q1/arm-none-eabi/include/c++/4.9.3/bits/move.h **** 
  59:/opt/toolchains/gcc-arm-none-eabi-4_9-2015q1/arm-none-eabi/include/c++/4.9.3/bits/move.h **** namespace std _GLIBCXX_VISIBILITY(default)
  60:/opt/toolchains/gcc-arm-none-eabi-4_9-2015q1/arm-none-eabi/include/c++/4.9.3/bits/move.h **** {
  61:/opt/toolchains/gcc-arm-none-eabi-4_9-2015q1/arm-none-eabi/include/c++/4.9.3/bits/move.h **** _GLIBCXX_BEGIN_NAMESPACE_VERSION
  62:/opt/toolchains/gcc-arm-none-eabi-4_9-2015q1/arm-none-eabi/include/c++/4.9.3/bits/move.h **** 
  63:/opt/toolchains/gcc-arm-none-eabi-4_9-2015q1/arm-none-eabi/include/c++/4.9.3/bits/move.h ****   /**
  64:/opt/toolchains/gcc-arm-none-eabi-4_9-2015q1/arm-none-eabi/include/c++/4.9.3/bits/move.h ****    *  @addtogroup utilities
  65:/opt/toolchains/gcc-arm-none-eabi-4_9-2015q1/arm-none-eabi/include/c++/4.9.3/bits/move.h ****    *  @{
  66:/opt/toolchains/gcc-arm-none-eabi-4_9-2015q1/arm-none-eabi/include/c++/4.9.3/bits/move.h ****    */
  67:/opt/toolchains/gcc-arm-none-eabi-4_9-2015q1/arm-none-eabi/include/c++/4.9.3/bits/move.h **** 
  68:/opt/toolchains/gcc-arm-none-eabi-4_9-2015q1/arm-none-eabi/include/c++/4.9.3/bits/move.h ****   /**
  69:/opt/toolchains/gcc-arm-none-eabi-4_9-2015q1/arm-none-eabi/include/c++/4.9.3/bits/move.h ****    *  @brief  Forward an lvalue.
  70:/opt/toolchains/gcc-arm-none-eabi-4_9-2015q1/arm-none-eabi/include/c++/4.9.3/bits/move.h ****    *  @return The parameter cast to the specified type.
  71:/opt/toolchains/gcc-arm-none-eabi-4_9-2015q1/arm-none-eabi/include/c++/4.9.3/bits/move.h ****    *
  72:/opt/toolchains/gcc-arm-none-eabi-4_9-2015q1/arm-none-eabi/include/c++/4.9.3/bits/move.h ****    *  This function is used to implement "perfect forwarding".
  73:/opt/toolchains/gcc-arm-none-eabi-4_9-2015q1/arm-none-eabi/include/c++/4.9.3/bits/move.h ****    */
  74:/opt/toolchains/gcc-arm-none-eabi-4_9-2015q1/arm-none-eabi/include/c++/4.9.3/bits/move.h ****   template<typename _Tp>
  75:/opt/toolchains/gcc-arm-none-eabi-4_9-2015q1/arm-none-eabi/include/c++/4.9.3/bits/move.h ****     constexpr _Tp&&
  76:/opt/toolchains/gcc-arm-none-eabi-4_9-2015q1/arm-none-eabi/include/c++/4.9.3/bits/move.h ****     forward(typename std::remove_reference<_Tp>::type& __t) noexcept
  77:/opt/toolchains/gcc-arm-none-eabi-4_9-2015q1/arm-none-eabi/include/c++/4.9.3/bits/move.h ****     { return static_cast<_Tp&&>(__t); }
  78:/opt/toolchains/gcc-arm-none-eabi-4_9-2015q1/arm-none-eabi/include/c++/4.9.3/bits/move.h **** 
  79:/opt/toolchains/gcc-arm-none-eabi-4_9-2015q1/arm-none-eabi/include/c++/4.9.3/bits/move.h ****   /**
  80:/opt/toolchains/gcc-arm-none-eabi-4_9-2015q1/arm-none-eabi/include/c++/4.9.3/bits/move.h ****    *  @brief  Forward an rvalue.
  81:/opt/toolchains/gcc-arm-none-eabi-4_9-2015q1/arm-none-eabi/include/c++/4.9.3/bits/move.h ****    *  @return The parameter cast to the specified type.
  82:/opt/toolchains/gcc-arm-none-eabi-4_9-2015q1/arm-none-eabi/include/c++/4.9.3/bits/move.h ****    *
  83:/opt/toolchains/gcc-arm-none-eabi-4_9-2015q1/arm-none-eabi/include/c++/4.9.3/bits/move.h ****    *  This function is used to implement "perfect forwarding".
  84:/opt/toolchains/gcc-arm-none-eabi-4_9-2015q1/arm-none-eabi/include/c++/4.9.3/bits/move.h ****    */
  85:/opt/toolchains/gcc-arm-none-eabi-4_9-2015q1/arm-none-eabi/include/c++/4.9.3/bits/move.h ****   template<typename _Tp>
  86:/opt/toolchains/gcc-arm-none-eabi-4_9-2015q1/arm-none-eabi/include/c++/4.9.3/bits/move.h ****     constexpr _Tp&&
  87:/opt/toolchains/gcc-arm-none-eabi-4_9-2015q1/arm-none-eabi/include/c++/4.9.3/bits/move.h ****     forward(typename std::remove_reference<_Tp>::type&& __t) noexcept
  88:/opt/toolchains/gcc-arm-none-eabi-4_9-2015q1/arm-none-eabi/include/c++/4.9.3/bits/move.h ****     {
  89:/opt/toolchains/gcc-arm-none-eabi-4_9-2015q1/arm-none-eabi/include/c++/4.9.3/bits/move.h ****       static_assert(!std::is_lvalue_reference<_Tp>::value, "template argument"
  90:/opt/toolchains/gcc-arm-none-eabi-4_9-2015q1/arm-none-eabi/include/c++/4.9.3/bits/move.h **** 		    " substituting _Tp is an lvalue reference type");
  91:/opt/toolchains/gcc-arm-none-eabi-4_9-2015q1/arm-none-eabi/include/c++/4.9.3/bits/move.h ****       return static_cast<_Tp&&>(__t);
  92:/opt/toolchains/gcc-arm-none-eabi-4_9-2015q1/arm-none-eabi/include/c++/4.9.3/bits/move.h ****     }
  93:/opt/toolchains/gcc-arm-none-eabi-4_9-2015q1/arm-none-eabi/include/c++/4.9.3/bits/move.h **** 
  94:/opt/toolchains/gcc-arm-none-eabi-4_9-2015q1/arm-none-eabi/include/c++/4.9.3/bits/move.h ****   /**
  95:/opt/toolchains/gcc-arm-none-eabi-4_9-2015q1/arm-none-eabi/include/c++/4.9.3/bits/move.h ****    *  @brief  Convert a value to an rvalue.
  96:/opt/toolchains/gcc-arm-none-eabi-4_9-2015q1/arm-none-eabi/include/c++/4.9.3/bits/move.h ****    *  @param  __t  A thing of arbitrary type.
  97:/opt/toolchains/gcc-arm-none-eabi-4_9-2015q1/arm-none-eabi/include/c++/4.9.3/bits/move.h ****    *  @return The parameter cast to an rvalue-reference to allow moving it.
  98:/opt/toolchains/gcc-arm-none-eabi-4_9-2015q1/arm-none-eabi/include/c++/4.9.3/bits/move.h ****   */
  99:/opt/toolchains/gcc-arm-none-eabi-4_9-2015q1/arm-none-eabi/include/c++/4.9.3/bits/move.h ****   template<typename _Tp>
 100:/opt/toolchains/gcc-arm-none-eabi-4_9-2015q1/arm-none-eabi/include/c++/4.9.3/bits/move.h ****     constexpr typename std::remove_reference<_Tp>::type&&
 101:/opt/toolchains/gcc-arm-none-eabi-4_9-2015q1/arm-none-eabi/include/c++/4.9.3/bits/move.h ****     move(_Tp&& __t) noexcept
 102:/opt/toolchains/gcc-arm-none-eabi-4_9-2015q1/arm-none-eabi/include/c++/4.9.3/bits/move.h ****     { return static_cast<typename std::remove_reference<_Tp>::type&&>(__t); }
 103:/opt/toolchains/gcc-arm-none-eabi-4_9-2015q1/arm-none-eabi/include/c++/4.9.3/bits/move.h **** 
 104:/opt/toolchains/gcc-arm-none-eabi-4_9-2015q1/arm-none-eabi/include/c++/4.9.3/bits/move.h **** 
 105:/opt/toolchains/gcc-arm-none-eabi-4_9-2015q1/arm-none-eabi/include/c++/4.9.3/bits/move.h ****   template<typename _Tp>
 106:/opt/toolchains/gcc-arm-none-eabi-4_9-2015q1/arm-none-eabi/include/c++/4.9.3/bits/move.h ****     struct __move_if_noexcept_cond
 107:/opt/toolchains/gcc-arm-none-eabi-4_9-2015q1/arm-none-eabi/include/c++/4.9.3/bits/move.h ****     : public __and_<__not_<is_nothrow_move_constructible<_Tp>>,
 108:/opt/toolchains/gcc-arm-none-eabi-4_9-2015q1/arm-none-eabi/include/c++/4.9.3/bits/move.h ****                     is_copy_constructible<_Tp>>::type { };
 109:/opt/toolchains/gcc-arm-none-eabi-4_9-2015q1/arm-none-eabi/include/c++/4.9.3/bits/move.h **** 
 110:/opt/toolchains/gcc-arm-none-eabi-4_9-2015q1/arm-none-eabi/include/c++/4.9.3/bits/move.h ****   /**
 111:/opt/toolchains/gcc-arm-none-eabi-4_9-2015q1/arm-none-eabi/include/c++/4.9.3/bits/move.h ****    *  @brief  Conditionally convert a value to an rvalue.
 112:/opt/toolchains/gcc-arm-none-eabi-4_9-2015q1/arm-none-eabi/include/c++/4.9.3/bits/move.h ****    *  @param  __x  A thing of arbitrary type.
 113:/opt/toolchains/gcc-arm-none-eabi-4_9-2015q1/arm-none-eabi/include/c++/4.9.3/bits/move.h ****    *  @return The parameter, possibly cast to an rvalue-reference.
 114:/opt/toolchains/gcc-arm-none-eabi-4_9-2015q1/arm-none-eabi/include/c++/4.9.3/bits/move.h ****    *
 115:/opt/toolchains/gcc-arm-none-eabi-4_9-2015q1/arm-none-eabi/include/c++/4.9.3/bits/move.h ****    *  Same as std::move unless the type's move constructor could throw and the
 116:/opt/toolchains/gcc-arm-none-eabi-4_9-2015q1/arm-none-eabi/include/c++/4.9.3/bits/move.h ****    *  type is copyable, in which case an lvalue-reference is returned instead.
 117:/opt/toolchains/gcc-arm-none-eabi-4_9-2015q1/arm-none-eabi/include/c++/4.9.3/bits/move.h ****    */
 118:/opt/toolchains/gcc-arm-none-eabi-4_9-2015q1/arm-none-eabi/include/c++/4.9.3/bits/move.h ****   template<typename _Tp>
 119:/opt/toolchains/gcc-arm-none-eabi-4_9-2015q1/arm-none-eabi/include/c++/4.9.3/bits/move.h ****     constexpr typename
 120:/opt/toolchains/gcc-arm-none-eabi-4_9-2015q1/arm-none-eabi/include/c++/4.9.3/bits/move.h ****     conditional<__move_if_noexcept_cond<_Tp>::value, const _Tp&, _Tp&&>::type
 121:/opt/toolchains/gcc-arm-none-eabi-4_9-2015q1/arm-none-eabi/include/c++/4.9.3/bits/move.h ****     move_if_noexcept(_Tp& __x) noexcept
 122:/opt/toolchains/gcc-arm-none-eabi-4_9-2015q1/arm-none-eabi/include/c++/4.9.3/bits/move.h ****     { return std::move(__x); }
 123:/opt/toolchains/gcc-arm-none-eabi-4_9-2015q1/arm-none-eabi/include/c++/4.9.3/bits/move.h **** 
 124:/opt/toolchains/gcc-arm-none-eabi-4_9-2015q1/arm-none-eabi/include/c++/4.9.3/bits/move.h ****   // declval, from type_traits.
 125:/opt/toolchains/gcc-arm-none-eabi-4_9-2015q1/arm-none-eabi/include/c++/4.9.3/bits/move.h **** 
 126:/opt/toolchains/gcc-arm-none-eabi-4_9-2015q1/arm-none-eabi/include/c++/4.9.3/bits/move.h ****   /**
 127:/opt/toolchains/gcc-arm-none-eabi-4_9-2015q1/arm-none-eabi/include/c++/4.9.3/bits/move.h ****    *  @brief Returns the actual address of the object or function
 128:/opt/toolchains/gcc-arm-none-eabi-4_9-2015q1/arm-none-eabi/include/c++/4.9.3/bits/move.h ****    *         referenced by r, even in the presence of an overloaded
 129:/opt/toolchains/gcc-arm-none-eabi-4_9-2015q1/arm-none-eabi/include/c++/4.9.3/bits/move.h ****    *         operator&.
 130:/opt/toolchains/gcc-arm-none-eabi-4_9-2015q1/arm-none-eabi/include/c++/4.9.3/bits/move.h ****    *  @param  __r  Reference to an object or function.
 131:/opt/toolchains/gcc-arm-none-eabi-4_9-2015q1/arm-none-eabi/include/c++/4.9.3/bits/move.h ****    *  @return   The actual address.
 132:/opt/toolchains/gcc-arm-none-eabi-4_9-2015q1/arm-none-eabi/include/c++/4.9.3/bits/move.h ****   */
 133:/opt/toolchains/gcc-arm-none-eabi-4_9-2015q1/arm-none-eabi/include/c++/4.9.3/bits/move.h ****   template<typename _Tp>
 134:/opt/toolchains/gcc-arm-none-eabi-4_9-2015q1/arm-none-eabi/include/c++/4.9.3/bits/move.h ****     inline _Tp*
 135:/opt/toolchains/gcc-arm-none-eabi-4_9-2015q1/arm-none-eabi/include/c++/4.9.3/bits/move.h ****     addressof(_Tp& __r) noexcept
 136:/opt/toolchains/gcc-arm-none-eabi-4_9-2015q1/arm-none-eabi/include/c++/4.9.3/bits/move.h ****     { return std::__addressof(__r); }
 137:/opt/toolchains/gcc-arm-none-eabi-4_9-2015q1/arm-none-eabi/include/c++/4.9.3/bits/move.h **** 
 138:/opt/toolchains/gcc-arm-none-eabi-4_9-2015q1/arm-none-eabi/include/c++/4.9.3/bits/move.h ****   /// @} group utilities
 139:/opt/toolchains/gcc-arm-none-eabi-4_9-2015q1/arm-none-eabi/include/c++/4.9.3/bits/move.h **** _GLIBCXX_END_NAMESPACE_VERSION
 140:/opt/toolchains/gcc-arm-none-eabi-4_9-2015q1/arm-none-eabi/include/c++/4.9.3/bits/move.h **** } // namespace
 141:/opt/toolchains/gcc-arm-none-eabi-4_9-2015q1/arm-none-eabi/include/c++/4.9.3/bits/move.h **** 
 142:/opt/toolchains/gcc-arm-none-eabi-4_9-2015q1/arm-none-eabi/include/c++/4.9.3/bits/move.h **** #define _GLIBCXX_MOVE(__val) std::move(__val)
 143:/opt/toolchains/gcc-arm-none-eabi-4_9-2015q1/arm-none-eabi/include/c++/4.9.3/bits/move.h **** #define _GLIBCXX_FORWARD(_Tp, __val) std::forward<_Tp>(__val)
 144:/opt/toolchains/gcc-arm-none-eabi-4_9-2015q1/arm-none-eabi/include/c++/4.9.3/bits/move.h **** #else
 145:/opt/toolchains/gcc-arm-none-eabi-4_9-2015q1/arm-none-eabi/include/c++/4.9.3/bits/move.h **** #define _GLIBCXX_MOVE(__val) (__val)
 146:/opt/toolchains/gcc-arm-none-eabi-4_9-2015q1/arm-none-eabi/include/c++/4.9.3/bits/move.h **** #define _GLIBCXX_FORWARD(_Tp, __val) (__val)
 147:/opt/toolchains/gcc-arm-none-eabi-4_9-2015q1/arm-none-eabi/include/c++/4.9.3/bits/move.h **** #endif
 148:/opt/toolchains/gcc-arm-none-eabi-4_9-2015q1/arm-none-eabi/include/c++/4.9.3/bits/move.h **** 
 149:/opt/toolchains/gcc-arm-none-eabi-4_9-2015q1/arm-none-eabi/include/c++/4.9.3/bits/move.h **** namespace std _GLIBCXX_VISIBILITY(default)
 150:/opt/toolchains/gcc-arm-none-eabi-4_9-2015q1/arm-none-eabi/include/c++/4.9.3/bits/move.h **** {
 151:/opt/toolchains/gcc-arm-none-eabi-4_9-2015q1/arm-none-eabi/include/c++/4.9.3/bits/move.h **** _GLIBCXX_BEGIN_NAMESPACE_VERSION
 152:/opt/toolchains/gcc-arm-none-eabi-4_9-2015q1/arm-none-eabi/include/c++/4.9.3/bits/move.h **** 
 153:/opt/toolchains/gcc-arm-none-eabi-4_9-2015q1/arm-none-eabi/include/c++/4.9.3/bits/move.h ****   /**
 154:/opt/toolchains/gcc-arm-none-eabi-4_9-2015q1/arm-none-eabi/include/c++/4.9.3/bits/move.h ****    *  @addtogroup utilities
 155:/opt/toolchains/gcc-arm-none-eabi-4_9-2015q1/arm-none-eabi/include/c++/4.9.3/bits/move.h ****    *  @{
 156:/opt/toolchains/gcc-arm-none-eabi-4_9-2015q1/arm-none-eabi/include/c++/4.9.3/bits/move.h ****    */
 157:/opt/toolchains/gcc-arm-none-eabi-4_9-2015q1/arm-none-eabi/include/c++/4.9.3/bits/move.h **** 
 158:/opt/toolchains/gcc-arm-none-eabi-4_9-2015q1/arm-none-eabi/include/c++/4.9.3/bits/move.h ****   /**
 159:/opt/toolchains/gcc-arm-none-eabi-4_9-2015q1/arm-none-eabi/include/c++/4.9.3/bits/move.h ****    *  @brief Swaps two values.
 160:/opt/toolchains/gcc-arm-none-eabi-4_9-2015q1/arm-none-eabi/include/c++/4.9.3/bits/move.h ****    *  @param  __a  A thing of arbitrary type.
 161:/opt/toolchains/gcc-arm-none-eabi-4_9-2015q1/arm-none-eabi/include/c++/4.9.3/bits/move.h ****    *  @param  __b  Another thing of arbitrary type.
 162:/opt/toolchains/gcc-arm-none-eabi-4_9-2015q1/arm-none-eabi/include/c++/4.9.3/bits/move.h ****    *  @return   Nothing.
 163:/opt/toolchains/gcc-arm-none-eabi-4_9-2015q1/arm-none-eabi/include/c++/4.9.3/bits/move.h ****   */
 164:/opt/toolchains/gcc-arm-none-eabi-4_9-2015q1/arm-none-eabi/include/c++/4.9.3/bits/move.h ****   template<typename _Tp>
 165:/opt/toolchains/gcc-arm-none-eabi-4_9-2015q1/arm-none-eabi/include/c++/4.9.3/bits/move.h ****     inline void
 166:/opt/toolchains/gcc-arm-none-eabi-4_9-2015q1/arm-none-eabi/include/c++/4.9.3/bits/move.h ****     swap(_Tp& __a, _Tp& __b)
 167:/opt/toolchains/gcc-arm-none-eabi-4_9-2015q1/arm-none-eabi/include/c++/4.9.3/bits/move.h **** #if __cplusplus >= 201103L
 168:/opt/toolchains/gcc-arm-none-eabi-4_9-2015q1/arm-none-eabi/include/c++/4.9.3/bits/move.h ****     noexcept(__and_<is_nothrow_move_constructible<_Tp>,
 169:/opt/toolchains/gcc-arm-none-eabi-4_9-2015q1/arm-none-eabi/include/c++/4.9.3/bits/move.h **** 	            is_nothrow_move_assignable<_Tp>>::value)
 170:/opt/toolchains/gcc-arm-none-eabi-4_9-2015q1/arm-none-eabi/include/c++/4.9.3/bits/move.h **** #endif
 171:/opt/toolchains/gcc-arm-none-eabi-4_9-2015q1/arm-none-eabi/include/c++/4.9.3/bits/move.h ****     {
 172:/opt/toolchains/gcc-arm-none-eabi-4_9-2015q1/arm-none-eabi/include/c++/4.9.3/bits/move.h ****       // concept requirements
 173:/opt/toolchains/gcc-arm-none-eabi-4_9-2015q1/arm-none-eabi/include/c++/4.9.3/bits/move.h ****       __glibcxx_function_requires(_SGIAssignableConcept<_Tp>)
 174:/opt/toolchains/gcc-arm-none-eabi-4_9-2015q1/arm-none-eabi/include/c++/4.9.3/bits/move.h **** 
 175:/opt/toolchains/gcc-arm-none-eabi-4_9-2015q1/arm-none-eabi/include/c++/4.9.3/bits/move.h ****       _Tp __tmp = _GLIBCXX_MOVE(__a);
 2514              		.loc 6 175 0
 2515 0000 0368     		ldr	r3, [r0]
 2516              	.LVL281:
 176:/opt/toolchains/gcc-arm-none-eabi-4_9-2015q1/arm-none-eabi/include/c++/4.9.3/bits/move.h ****       __a = _GLIBCXX_MOVE(__b);
 2517              		.loc 6 176 0
 2518 0002 0160     		str	r1, [r0]
 2519              	.LVL282:
 2520              	.LBE1468:
 2521              	.LBE1467:
 340:/opt/toolchains/gcc-arm-none-eabi-4_9-2015q1/arm-none-eabi/include/c++/4.9.3/bits/unique_ptr.h ****       {
 341:/opt/toolchains/gcc-arm-none-eabi-4_9-2015q1/arm-none-eabi/include/c++/4.9.3/bits/unique_ptr.h **** 	using std::swap;
 342:/opt/toolchains/gcc-arm-none-eabi-4_9-2015q1/arm-none-eabi/include/c++/4.9.3/bits/unique_ptr.h **** 	swap(std::get<0>(_M_t), __p);
 343:/opt/toolchains/gcc-arm-none-eabi-4_9-2015q1/arm-none-eabi/include/c++/4.9.3/bits/unique_ptr.h **** 	if (__p != pointer())
 2522              		.loc 5 343 0
 2523 0004 1BB1     		cbz	r3, .L112
 2524              	.LVL283:
 2525              	.LBB1469:
 2526              	.LBB1470:
  76:/opt/toolchains/gcc-arm-none-eabi-4_9-2015q1/arm-none-eabi/include/c++/4.9.3/bits/unique_ptr.h ****       }
 2527              		.loc 5 76 0
 2528 0006 1A68     		ldr	r2, [r3]
 2529 0008 1846     		mov	r0, r3
 2530              	.LVL284:
 2531 000a 5268     		ldr	r2, [r2, #4]
 2532 000c 1047     		bx	r2
 2533              	.LVL285:
 2534              	.L112:
 2535 000e 7047     		bx	lr
 2536              	.LBE1470:
 2537              	.LBE1469:
 2538              	.LBE1466:
 2539              		.cfi_endproc
 2540              	.LFE3498:
 2542              		.section	.text._ZN4ltaf16CalibDataManager23parseGeometricCalibDataERK18_Ltpb__LightHeader,"ax",%pr
 2543              		.align	1
 2544              		.global	_ZN4ltaf16CalibDataManager23parseGeometricCalibDataERK18_Ltpb__LightHeader
 2545              		.thumb
 2546              		.thumb_func
 2548              	_ZN4ltaf16CalibDataManager23parseGeometricCalibDataERK18_Ltpb__LightHeader:
 2549              	.LFB3350:
 204:/home/tienluong/workspace/atlantis_fw/AsicFwS2/src/calibclasses.cpp **** 
 2550              		.loc 4 204 0
 2551              		.cfi_startproc
 2552              		@ args = 0, pretend = 0, frame = 184
 2553              		@ frame_needed = 0, uses_anonymous_args = 0
 2554              	.LVL286:
 2555 0000 2DE9F04F 		push	{r4, r5, r6, r7, r8, r9, r10, fp, lr}
 2556              	.LCFI32:
 2557              		.cfi_def_cfa_offset 36
 2558              		.cfi_offset 4, -36
 2559              		.cfi_offset 5, -32
 2560              		.cfi_offset 6, -28
 2561              		.cfi_offset 7, -24
 2562              		.cfi_offset 8, -20
 2563              		.cfi_offset 9, -16
 2564              		.cfi_offset 10, -12
 2565              		.cfi_offset 11, -8
 2566              		.cfi_offset 14, -4
 2567 0004 8846     		mov	r8, r1
 2568 0006 B1B0     		sub	sp, sp, #196
 2569              	.LCFI33:
 2570              		.cfi_def_cfa_offset 232
 204:/home/tienluong/workspace/atlantis_fw/AsicFwS2/src/calibclasses.cpp **** 
 2571              		.loc 4 204 0
 2572 0008 0546     		mov	r5, r0
 2573              	.LBB1471:
 207:/home/tienluong/workspace/atlantis_fw/AsicFwS2/src/calibclasses.cpp ****     for (std::size_t i = 0; i < lh.n_module_calibration; ++i) {
 2574              		.loc 4 207 0
 2575 000a 1021     		movs	r1, #16
 2576              	.LVL287:
 2577 000c 2B20     		movs	r0, #43
 2578              	.LVL288:
 2579 000e 684A     		ldr	r2, .L133
 2580              	.LBB1472:
 208:/home/tienluong/workspace/atlantis_fw/AsicFwS2/src/calibclasses.cpp ****         
 2581              		.loc 4 208 0
 2582 0010 0027     		movs	r7, #0
 2583              	.LBE1472:
 207:/home/tienluong/workspace/atlantis_fw/AsicFwS2/src/calibclasses.cpp ****     for (std::size_t i = 0; i < lh.n_module_calibration; ++i) {
 2584              		.loc 4 207 0
 2585 0012 D8F87030 		ldr	r3, [r8, #112]
 2586 0016 674E     		ldr	r6, .L133+4
 2587 0018 B047     		blx	r6
 2588              	.LVL289:
 2589              	.L115:
 2590              	.LBB1495:
 208:/home/tienluong/workspace/atlantis_fw/AsicFwS2/src/calibclasses.cpp ****         
 2591              		.loc 4 208 0 discriminator 1
 2592 001a D8F87030 		ldr	r3, [r8, #112]
 2593 001e 9F42     		cmp	r7, r3
 2594 0020 80F0C180 		bcs	.L132
 2595              	.LBB1473:
 210:/home/tienluong/workspace/atlantis_fw/AsicFwS2/src/calibclasses.cpp ****         ModuleName curr_module_name = static_cast<ModuleName>(fmc->camera_id);
 2596              		.loc 4 210 0
 2597 0024 D8F87430 		ldr	r3, [r8, #116]
 212:/home/tienluong/workspace/atlantis_fw/AsicFwS2/src/calibclasses.cpp **** 
 2598              		.loc 4 212 0
 2599 0028 2B20     		movs	r0, #43
 2600 002a 1021     		movs	r1, #16
 2601 002c 624A     		ldr	r2, .L133+8
 210:/home/tienluong/workspace/atlantis_fw/AsicFwS2/src/calibclasses.cpp ****         ModuleName curr_module_name = static_cast<ModuleName>(fmc->camera_id);
 2602              		.loc 4 210 0
 2603 002e 53F827A0 		ldr	r10, [r3, r7, lsl #2]
 2604              	.LVL290:
 212:/home/tienluong/workspace/atlantis_fw/AsicFwS2/src/calibclasses.cpp **** 
 2605              		.loc 4 212 0
 2606 0032 DFF88091 		ldr	r9, .L133+4
 211:/home/tienluong/workspace/atlantis_fw/AsicFwS2/src/calibclasses.cpp ****         SLOGF(SLOG_DEBUG, "Current camera id = %i", int(fmc->camera_id));
 2607              		.loc 4 211 0
 2608 0036 DAF80C40 		ldr	r4, [r10, #12]
 2609              	.LVL291:
 212:/home/tienluong/workspace/atlantis_fw/AsicFwS2/src/calibclasses.cpp **** 
 2610              		.loc 4 212 0
 2611 003a 2346     		mov	r3, r4
 2612 003c B047     		blx	r6
 2613              	.LVL292:
 214:/home/tienluong/workspace/atlantis_fw/AsicFwS2/src/calibclasses.cpp **** 
 2614              		.loc 4 214 0
 2615 003e DAF818A0 		ldr	r10, [r10, #24]
 2616              	.LVL293:
 222:/home/tienluong/workspace/atlantis_fw/AsicFwS2/src/calibclasses.cpp ****             _cam_mirror_types[curr_module_name] = MirrorType::NotMoveable;
 2617              		.loc 4 222 0
 2618 0042 2B20     		movs	r0, #43
 219:/home/tienluong/workspace/atlantis_fw/AsicFwS2/src/calibclasses.cpp ****         if (    mirrortype == LTPB__GEOMETRIC_CALIBRATION__MIRROR_TYPE__NONE  ||
 2619              		.loc 4 219 0
 2620 0044 DAF81030 		ldr	r3, [r10, #16]
 2621              	.LVL294:
 220:/home/tienluong/workspace/atlantis_fw/AsicFwS2/src/calibclasses.cpp ****                 mirrortype == LTPB__GEOMETRIC_CALIBRATION__MIRROR_TYPE__GLUED ){
 2622              		.loc 4 220 0
 2623 0048 012B     		cmp	r3, #1
 2624 004a 07D8     		bhi	.L116
 222:/home/tienluong/workspace/atlantis_fw/AsicFwS2/src/calibclasses.cpp ****             _cam_mirror_types[curr_module_name] = MirrorType::NotMoveable;
 2625              		.loc 4 222 0
 2626 004c 1021     		movs	r1, #16
 2627 004e 5B4A     		ldr	r2, .L133+12
 2628 0050 C847     		blx	r9
 2629              	.LVL295:
 223:/home/tienluong/workspace/atlantis_fw/AsicFwS2/src/calibclasses.cpp ****         }
 2630              		.loc 4 223 0
 2631 0052 55FA84F3 		uxtab	r3, r5, r4
 2632 0056 4FF00009 		mov	r9, #0
 2633 005a 08E0     		b	.L130
 2634              	.LVL296:
 2635              	.L116:
 225:/home/tienluong/workspace/atlantis_fw/AsicFwS2/src/calibclasses.cpp ****             SLOGF(SLOG_DEBUG, "Current module mirror is moveable");
 2636              		.loc 4 225 0
 2637 005c 022B     		cmp	r3, #2
 2638 005e 45D1     		bne	.L118
 226:/home/tienluong/workspace/atlantis_fw/AsicFwS2/src/calibclasses.cpp ****             calib_w_mirror = true;
 2639              		.loc 4 226 0
 2640 0060 1021     		movs	r1, #16
 2641 0062 574A     		ldr	r2, .L133+16
 2642 0064 C847     		blx	r9
 2643              	.LVL297:
 228:/home/tienluong/workspace/atlantis_fw/AsicFwS2/src/calibclasses.cpp ****         }
 2644              		.loc 4 228 0
 2645 0066 55FA84F3 		uxtab	r3, r5, r4
 2646 006a 4FF00109 		mov	r9, #1
 2647              	.LVL298:
 2648              	.L130:
 236:/home/tienluong/workspace/atlantis_fw/AsicFwS2/src/calibclasses.cpp **** 
 2649              		.loc 4 236 0
 2650 006e 554A     		ldr	r2, .L133+20
 2651 0070 2B20     		movs	r0, #43
 228:/home/tienluong/workspace/atlantis_fw/AsicFwS2/src/calibclasses.cpp ****         }
 2652              		.loc 4 228 0
 2653 0072 83F84090 		strb	r9, [r3, #64]
 2654              	.LVL299:
 236:/home/tienluong/workspace/atlantis_fw/AsicFwS2/src/calibclasses.cpp **** 
 2655              		.loc 4 236 0
 2656 0076 1021     		movs	r1, #16
 2657 0078 DAF81430 		ldr	r3, [r10, #20]
 2658 007c B047     		blx	r6
 2659              	.LVL300:
 239:/home/tienluong/workspace/atlantis_fw/AsicFwS2/src/calibclasses.cpp **** 
 2660              		.loc 4 239 0
 2661 007e DAF81830 		ldr	r3, [r10, #24]
 2662 0082 D3F800B0 		ldr	fp, [r3]
 2663              	.LVL301:
 242:/home/tienluong/workspace/atlantis_fw/AsicFwS2/src/calibclasses.cpp **** 
 2664              		.loc 4 242 0
 2665 0086 504B     		ldr	r3, .L133+24
 2666 0088 DBF80C00 		ldr	r0, [fp, #12]	@ float
 2667 008c 9847     		blx	r3
 2668              	.LVL302:
 2669 008e 4F4A     		ldr	r2, .L133+28
 2670 0090 CDE90001 		strd	r0, [sp]
 2671 0094 2B20     		movs	r0, #43
 2672 0096 1021     		movs	r1, #16
 2673 0098 B047     		blx	r6
 2674              	.LVL303:
 247:/home/tienluong/workspace/atlantis_fw/AsicFwS2/src/calibclasses.cpp ****         Matrix3x3f K({ k_mat->x00, k_mat->x01, k_mat->x02, k_mat->x10, k_mat->x11, k_mat->x12, k_ma
 2675              		.loc 4 247 0
 2676 009a DBF81030 		ldr	r3, [fp, #16]
 2677              	.LBB1474:
 2678              	.LBB1475:
 596:/home/tienluong/workspace/atlantis_fw/AsicFwS2/include/matrix.h **** 
 2679              		.loc 2 596 0
 2680 009e 05A8     		add	r0, sp, #20
 2681 00a0 17A9     		add	r1, sp, #92
 2682              	.LBE1475:
 2683              	.LBE1474:
 247:/home/tienluong/workspace/atlantis_fw/AsicFwS2/src/calibclasses.cpp ****         Matrix3x3f K({ k_mat->x00, k_mat->x01, k_mat->x02, k_mat->x10, k_mat->x11, k_mat->x12, k_ma
 2684              		.loc 4 247 0
 2685 00a2 DB68     		ldr	r3, [r3, #12]
 2686              	.LVL304:
 248:/home/tienluong/workspace/atlantis_fw/AsicFwS2/src/calibclasses.cpp **** 
 2687              		.loc 4 248 0
 2688 00a4 DA68     		ldr	r2, [r3, #12]	@ float
 2689 00a6 1792     		str	r2, [sp, #92]	@ float
 2690              	.LVL305:
 2691 00a8 1A69     		ldr	r2, [r3, #16]	@ float
 2692 00aa 1892     		str	r2, [sp, #96]	@ float
 2693 00ac 5A69     		ldr	r2, [r3, #20]	@ float
 2694 00ae 1992     		str	r2, [sp, #100]	@ float
 2695 00b0 9A69     		ldr	r2, [r3, #24]	@ float
 2696 00b2 1A92     		str	r2, [sp, #104]	@ float
 2697 00b4 DA69     		ldr	r2, [r3, #28]	@ float
 2698 00b6 1B92     		str	r2, [sp, #108]	@ float
 2699 00b8 1A6A     		ldr	r2, [r3, #32]	@ float
 2700 00ba 1C92     		str	r2, [sp, #112]	@ float
 2701 00bc 5A6A     		ldr	r2, [r3, #36]	@ float
 2702 00be 1D92     		str	r2, [sp, #116]	@ float
 2703 00c0 9A6A     		ldr	r2, [r3, #40]	@ float
 2704 00c2 1E92     		str	r2, [sp, #120]	@ float
 2705              	.LBB1478:
 2706              	.LBB1476:
 596:/home/tienluong/workspace/atlantis_fw/AsicFwS2/include/matrix.h **** 
 2707              		.loc 2 596 0
 2708 00c4 424A     		ldr	r2, .L133+32
 2709              	.LBE1476:
 2710              	.LBE1478:
 248:/home/tienluong/workspace/atlantis_fw/AsicFwS2/src/calibclasses.cpp **** 
 2711              		.loc 4 248 0
 2712 00c6 DB6A     		ldr	r3, [r3, #44]	@ float
 2713              	.LVL306:
 2714 00c8 1F93     		str	r3, [sp, #124]	@ float
 2715              	.LVL307:
 2716              	.LBB1479:
 2717              	.LBB1477:
 596:/home/tienluong/workspace/atlantis_fw/AsicFwS2/include/matrix.h **** 
 2718              		.loc 2 596 0
 2719 00ca 0392     		str	r2, [sp, #12]
 2720 00cc 9047     		blx	r2
 2721              	.LVL308:
 2722              	.LBE1477:
 2723              	.LBE1479:
 250:/home/tienluong/workspace/atlantis_fw/AsicFwS2/src/calibclasses.cpp ****         if (extrinsics == nullptr) {
 2724              		.loc 4 250 0
 2725 00ce DBF81430 		ldr	r3, [fp, #20]
 2726              	.LVL309:
 2727 00d2 039A     		ldr	r2, [sp, #12]
 251:/home/tienluong/workspace/atlantis_fw/AsicFwS2/src/calibclasses.cpp ****             extrinsics = geometry->per_focus_calibration[geometry->n_per_focus_calibration-1]->extr
 2728              		.loc 4 251 0
 2729 00d4 7BB9     		cbnz	r3, .L120
 252:/home/tienluong/workspace/atlantis_fw/AsicFwS2/src/calibclasses.cpp ****         }
 2730              		.loc 4 252 0
 2731 00d6 DAF81430 		ldr	r3, [r10, #20]
 2732              	.LVL310:
 2733 00da DAF81810 		ldr	r1, [r10, #24]
 2734 00de 03F18043 		add	r3, r3, #1073741824
 2735 00e2 013B     		subs	r3, r3, #1
 2736 00e4 51F82330 		ldr	r3, [r1, r3, lsl #2]
 2737 00e8 5B69     		ldr	r3, [r3, #20]
 2738              	.LVL311:
 2739 00ea 04E0     		b	.L120
 2740              	.LVL312:
 2741              	.L118:
 231:/home/tienluong/workspace/atlantis_fw/AsicFwS2/src/calibclasses.cpp ****             return false;
 2742              		.loc 4 231 0
 2743 00ec 0221     		movs	r1, #2
 2744 00ee 394A     		ldr	r2, .L133+36
 2745 00f0 C847     		blx	r9
 2746              	.LVL313:
 232:/home/tienluong/workspace/atlantis_fw/AsicFwS2/src/calibclasses.cpp ****         }
 2747              		.loc 4 232 0
 2748 00f2 0020     		movs	r0, #0
 2749 00f4 58E0     		b	.L119
 2750              	.LVL314:
 2751              	.L120:
 2752              	.LBB1480:
 256:/home/tienluong/workspace/atlantis_fw/AsicFwS2/src/calibclasses.cpp ****             Ltpb__MirrorSystem *mirror_system = extrinsics->moveable_mirror->mirror_system;
 2753              		.loc 4 256 0
 2754 00f6 B9F1000F 		cmp	r9, #0
 2755 00fa 1FD0     		beq	.L121
 2756              	.LBB1481:
 257:/home/tienluong/workspace/atlantis_fw/AsicFwS2/src/calibclasses.cpp ****             Ltpb__MirrorActuatorMapping *mirror_actuator_mapping = extrinsics->moveable_mirror->mir
 2757              		.loc 4 257 0
 2758 00fc 1B69     		ldr	r3, [r3, #16]
 2759              	.LVL315:
 2760 00fe D968     		ldr	r1, [r3, #12]
 2761              	.LVL316:
 258:/home/tienluong/workspace/atlantis_fw/AsicFwS2/src/calibclasses.cpp ****             if ((mirror_system != nullptr) && (mirror_actuator_mapping != nullptr)) {
 2762              		.loc 4 258 0
 2763 0100 D3F81090 		ldr	r9, [r3, #16]
 2764              	.LVL317:
 2765              	.LBB1482:
 259:/home/tienluong/workspace/atlantis_fw/AsicFwS2/src/calibclasses.cpp ****                 MirrorSysParam msp;
 2766              		.loc 4 259 0
 2767 0104 0029     		cmp	r1, #0
 2768 0106 4CD0     		beq	.L122
 259:/home/tienluong/workspace/atlantis_fw/AsicFwS2/src/calibclasses.cpp ****                 MirrorSysParam msp;
 2769              		.loc 4 259 0 is_stmt 0 discriminator 1
 2770 0108 B9F1000F 		cmp	r9, #0
 2771 010c 49D0     		beq	.L122
 2772              	.LVL318:
 2773              	.LBB1483:
 261:/home/tienluong/workspace/atlantis_fw/AsicFwS2/src/calibclasses.cpp **** 
 2774              		.loc 4 261 0 is_stmt 1
 2775 010e 2846     		mov	r0, r5
 2776 0110 17AA     		add	r2, sp, #92
 2777              	.LVL319:
 2778 0112 314B     		ldr	r3, .L133+40
 2779 0114 E4B2     		uxtb	r4, r4
 2780 0116 9847     		blx	r3
 2781              	.LVL320:
 264:/home/tienluong/workspace/atlantis_fw/AsicFwS2/src/calibclasses.cpp **** 
 2782              		.loc 4 264 0
 2783 0118 4946     		mov	r1, r9
 2784 011a 0EAA     		add	r2, sp, #56
 2785 011c 2846     		mov	r0, r5
 266:/home/tienluong/workspace/atlantis_fw/AsicFwS2/src/calibclasses.cpp ****             }
 2786              		.loc 4 266 0
 2787 011e 05EB8404 		add	r4, r5, r4, lsl #2
 2788              	.LVL321:
 264:/home/tienluong/workspace/atlantis_fw/AsicFwS2/src/calibclasses.cpp **** 
 2789              		.loc 4 264 0
 2790 0122 2E4B     		ldr	r3, .L133+44
 2791 0124 9847     		blx	r3
 2792              	.LVL322:
 266:/home/tienluong/workspace/atlantis_fw/AsicFwS2/src/calibclasses.cpp ****             }
 2793              		.loc 4 266 0
 2794 0126 0121     		movs	r1, #1
 2795 0128 2D4B     		ldr	r3, .L133+48
 2796 012a AC20     		movs	r0, #172
 2797 012c 9847     		blx	r3
 2798              	.LVL323:
 2799 012e 05A9     		add	r1, sp, #20
 2800              	.LVL324:
 2801 0130 17AA     		add	r2, sp, #92
 2802              	.LVL325:
 2803 0132 0EAB     		add	r3, sp, #56
 2804 0134 DFF8B0C0 		ldr	ip, .L133+56
 2805 0138 8146     		mov	r9, r0
 2806              	.LVL326:
 2807 013a 2DE0     		b	.L131
 2808              	.LVL327:
 2809              	.L121:
 2810              	.LBE1483:
 2811              	.LBE1482:
 2812              	.LBE1481:
 2813              	.LBB1484:
 269:/home/tienluong/workspace/atlantis_fw/AsicFwS2/src/calibclasses.cpp ****             Ltpb__Matrix3x3F *rotation = canonical->rotation;
 2814              		.loc 4 269 0 discriminator 3
 2815 013c D3F80C90 		ldr	r9, [r3, #12]
 2816              	.LVL328:
 2817              	.LBB1485:
 2818              	.LBB1486:
 596:/home/tienluong/workspace/atlantis_fw/AsicFwS2/include/matrix.h **** 
 2819              		.loc 2 596 0 discriminator 3
 2820 0140 0EA8     		add	r0, sp, #56
 2821 0142 E4B2     		uxtb	r4, r4
 2822              	.LBE1486:
 2823              	.LBE1485:
 270:/home/tienluong/workspace/atlantis_fw/AsicFwS2/src/calibclasses.cpp ****             Matrix3x3f R{ rotation->x00, rotation->x01, rotation->x02, rotation->x10, rotation->x11
 2824              		.loc 4 270 0 discriminator 3
 2825 0144 D9F80C30 		ldr	r3, [r9, #12]
 2826              	.LVL329:
 274:/home/tienluong/workspace/atlantis_fw/AsicFwS2/src/calibclasses.cpp ****         }
 2827              		.loc 4 274 0 discriminator 3
 2828 0148 05EB8404 		add	r4, r5, r4, lsl #2
 2829              	.LVL330:
 271:/home/tienluong/workspace/atlantis_fw/AsicFwS2/src/calibclasses.cpp ****             Ltpb__Point3F * translation = canonical->translation;
 2830              		.loc 4 271 0 discriminator 3
 2831 014c D968     		ldr	r1, [r3, #12]	@ float
 2832 014e 1791     		str	r1, [sp, #92]	@ float
 2833 0150 1969     		ldr	r1, [r3, #16]	@ float
 2834 0152 1891     		str	r1, [sp, #96]	@ float
 2835 0154 5969     		ldr	r1, [r3, #20]	@ float
 2836 0156 1991     		str	r1, [sp, #100]	@ float
 2837 0158 9969     		ldr	r1, [r3, #24]	@ float
 2838 015a 1A91     		str	r1, [sp, #104]	@ float
 2839 015c D969     		ldr	r1, [r3, #28]	@ float
 2840 015e 1B91     		str	r1, [sp, #108]	@ float
 2841 0160 196A     		ldr	r1, [r3, #32]	@ float
 2842 0162 1C91     		str	r1, [sp, #112]	@ float
 2843 0164 596A     		ldr	r1, [r3, #36]	@ float
 2844 0166 1D91     		str	r1, [sp, #116]	@ float
 2845 0168 996A     		ldr	r1, [r3, #40]	@ float
 2846 016a 1E91     		str	r1, [sp, #120]	@ float
 2847              	.LBB1489:
 2848              	.LBB1487:
 596:/home/tienluong/workspace/atlantis_fw/AsicFwS2/include/matrix.h **** 
 2849              		.loc 2 596 0 discriminator 3
 2850 016c 17A9     		add	r1, sp, #92
 2851              	.LVL331:
 2852              	.LBE1487:
 2853              	.LBE1489:
 271:/home/tienluong/workspace/atlantis_fw/AsicFwS2/src/calibclasses.cpp ****             Ltpb__Point3F * translation = canonical->translation;
 2854              		.loc 4 271 0 discriminator 3
 2855 016e DB6A     		ldr	r3, [r3, #44]	@ float
 2856              	.LVL332:
 2857 0170 1F93     		str	r3, [sp, #124]	@ float
 2858              	.LVL333:
 2859              	.LBB1490:
 2860              	.LBB1488:
 596:/home/tienluong/workspace/atlantis_fw/AsicFwS2/include/matrix.h **** 
 2861              		.loc 2 596 0 discriminator 3
 2862 0172 9047     		blx	r2
 2863              	.LVL334:
 2864              	.LBE1488:
 2865              	.LBE1490:
 272:/home/tienluong/workspace/atlantis_fw/AsicFwS2/src/calibclasses.cpp ****             Vec3f t{translation->x, translation->y, translation->z};
 2866              		.loc 4 272 0 discriminator 3
 2867 0174 D9F81030 		ldr	r3, [r9, #16]
 2868              	.LVL335:
 274:/home/tienluong/workspace/atlantis_fw/AsicFwS2/src/calibclasses.cpp ****         }
 2869              		.loc 4 274 0 discriminator 3
 2870 0178 5820     		movs	r0, #88
 273:/home/tienluong/workspace/atlantis_fw/AsicFwS2/src/calibclasses.cpp ****             _cam_params[curr_module_name].reset(new(Heap::DDR) CalibData(K, R, t));
 2871              		.loc 4 273 0 discriminator 3
 2872 017a 1969     		ldr	r1, [r3, #16]	@ float
 2873 017c 5A69     		ldr	r2, [r3, #20]	@ float
 2874              	.LVL336:
 2875              	.LBB1491:
 2876              	.LBB1492:
 229:/home/tienluong/workspace/atlantis_fw/AsicFwS2/include/matrix.h ****     Vec3( const Vec3 & t ) : _x( t._x ), _y( t._y ), _z( t._z ) {}
 2877              		.loc 2 229 0 discriminator 3
 2878 017e DB68     		ldr	r3, [r3, #12]	@ float
 2879              	.LVL337:
 2880 0180 1793     		str	r3, [sp, #92]	@ float
 2881 0182 1891     		str	r1, [sp, #96]	@ float
 2882              	.LBE1492:
 2883              	.LBE1491:
 274:/home/tienluong/workspace/atlantis_fw/AsicFwS2/src/calibclasses.cpp ****         }
 2884              		.loc 4 274 0 discriminator 3
 2885 0184 0121     		movs	r1, #1
 2886              	.LVL338:
 2887 0186 164B     		ldr	r3, .L133+48
 2888              	.LVL339:
 2889              	.LBB1494:
 2890              	.LBB1493:
 229:/home/tienluong/workspace/atlantis_fw/AsicFwS2/include/matrix.h ****     Vec3( const Vec3 & t ) : _x( t._x ), _y( t._y ), _z( t._z ) {}
 2891              		.loc 2 229 0 discriminator 3
 2892 0188 1992     		str	r2, [sp, #100]	@ float
 2893              	.LBE1493:
 2894              	.LBE1494:
 274:/home/tienluong/workspace/atlantis_fw/AsicFwS2/src/calibclasses.cpp ****         }
 2895              		.loc 4 274 0 discriminator 3
 2896 018a 9847     		blx	r3
 2897              	.LVL340:
 2898 018c DFF85CC0 		ldr	ip, .L133+60
 2899 0190 05A9     		add	r1, sp, #20
 2900              	.LVL341:
 2901 0192 0EAA     		add	r2, sp, #56
 2902              	.LVL342:
 2903 0194 17AB     		add	r3, sp, #92
 2904              	.LVL343:
 2905 0196 8146     		mov	r9, r0
 2906              	.LVL344:
 2907              	.L131:
 2908 0198 E047     		blx	ip
 2909              	.LVL345:
 2910 019a 2046     		mov	r0, r4
 2911 019c 4946     		mov	r1, r9
 2912 019e 114B     		ldr	r3, .L133+52
 2913 01a0 9847     		blx	r3
 2914              	.LVL346:
 2915              	.L122:
 2916              	.LBE1484:
 2917              	.LBE1480:
 2918              	.LBE1473:
 208:/home/tienluong/workspace/atlantis_fw/AsicFwS2/src/calibclasses.cpp ****         
 2919              		.loc 4 208 0 discriminator 2
 2920 01a2 0137     		adds	r7, r7, #1
 2921              	.LVL347:
 2922 01a4 39E7     		b	.L115
 2923              	.LVL348:
 2924              	.L132:
 2925              	.LBE1495:
 302:/home/tienluong/workspace/atlantis_fw/AsicFwS2/src/calibclasses.cpp **** }
 2926              		.loc 4 302 0
 2927 01a6 0120     		movs	r0, #1
 2928              	.L119:
 2929              	.LBE1471:
 303:/home/tienluong/workspace/atlantis_fw/AsicFwS2/src/calibclasses.cpp **** 
 2930              		.loc 4 303 0
 2931 01a8 31B0     		add	sp, sp, #196
 2932              	.LCFI34:
 2933              		.cfi_def_cfa_offset 36
 2934              		@ sp needed
 2935 01aa BDE8F08F 		pop	{r4, r5, r6, r7, r8, r9, r10, fp, pc}
 2936              	.LVL349:
 2937              	.L134:
 2938 01ae 00BF     		.align	2
 2939              	.L133:
 2940 01b0 00000000 		.word	.LC24
 2941 01b4 00000000 		.word	slogf
 2942 01b8 24000000 		.word	.LC25
 2943 01bc 3B000000 		.word	.LC26
 2944 01c0 61000000 		.word	.LC27
 2945 01c4 9B000000 		.word	.LC29
 2946 01c8 00000000 		.word	__aeabi_f2d
 2947 01cc B8000000 		.word	.LC30
 2948 01d0 00000000 		.word	_ZN4ltaf6MatrixIfLi3ELi3ELb1EEaSESt16initializer_listIfE.isra.6
 2949 01d4 83000000 		.word	.LC28
 2950 01d8 00000000 		.word	_ZN4ltaf16CalibDataManager17parseMirrorSystemEPK19_Ltpb__MirrorSystemRNS_14MirrorSysParamE
 2951 01dc 00000000 		.word	_ZN4ltaf16CalibDataManager26parseMirrorActuatorMappingEPK28_Ltpb__MirrorActuatorMappingRNS_2
 2952 01e0 00000000 		.word	_Znwj4Heap
 2953 01e4 00000000 		.word	_ZNSt10unique_ptrIN4ltaf13CalibDataBaseESt14default_deleteIS1_EE5resetEPS1_
 2954 01e8 00000000 		.word	_ZN4ltaf16CalibDataWMirrorC1ERKNS_6MatrixIfLi3ELi3ELb1EEERKNS_14MirrorSysParamERKNS_21Mirror
 2955 01ec 00000000 		.word	_ZN4ltaf9CalibDataC1ERKNS_6MatrixIfLi3ELi3ELb1EEES4_RKNS_4Vec3IfEE
 2956              		.cfi_endproc
 2957              	.LFE3350:
 2959              		.section	.text._ZN4ltaf16CalibDataManagerC2ERK18_Ltpb__LightHeader,"ax",%progbits
 2960              		.align	1
 2961              		.global	_ZN4ltaf16CalibDataManagerC2ERK18_Ltpb__LightHeader
 2962              		.thumb
 2963              		.thumb_func
 2965              	_ZN4ltaf16CalibDataManagerC2ERK18_Ltpb__LightHeader:
 2966              	.LFB3338:
 156:/home/tienluong/workspace/atlantis_fw/AsicFwS2/src/calibclasses.cpp ****     if (!parseGeometricCalibData(lh)) {
 2967              		.loc 4 156 0
 2968              		.cfi_startproc
 2969              		@ args = 0, pretend = 0, frame = 0
 2970              		@ frame_needed = 0, uses_anonymous_args = 0
 2971              	.LVL350:
 2972 0000 10B5     		push	{r4, lr}
 2973              	.LCFI35:
 2974              		.cfi_def_cfa_offset 8
 2975              		.cfi_offset 4, -8
 2976              		.cfi_offset 14, -4
 2977              	.LBB1496:
 156:/home/tienluong/workspace/atlantis_fw/AsicFwS2/src/calibclasses.cpp ****     if (!parseGeometricCalibData(lh)) {
 2978              		.loc 4 156 0
 2979 0002 0346     		mov	r3, r0
 2980              	.LBE1496:
 2981 0004 0446     		mov	r4, r0
 2982 0006 00F14002 		add	r2, r0, #64
 2983              	.LVL351:
 2984              	.L136:
 2985              	.LBB1506:
 2986              	.LBB1497:
 2987              	.LBB1498:
 2988              	.LBB1499:
 2989              	.LBB1500:
 2990              	.LBB1501:
 2991              	.LBB1502:
 2992              	.LBB1503:
 2993              	.LBB1504:
 2994              	.LBB1505:
 2995              		.file 7 "/opt/toolchains/gcc-arm-none-eabi-4_9-2015q1/arm-none-eabi/include/c++/4.9.3/tuple"
   1:/opt/toolchains/gcc-arm-none-eabi-4_9-2015q1/arm-none-eabi/include/c++/4.9.3/tuple **** // <tuple> -*- C++ -*-
   2:/opt/toolchains/gcc-arm-none-eabi-4_9-2015q1/arm-none-eabi/include/c++/4.9.3/tuple **** 
   3:/opt/toolchains/gcc-arm-none-eabi-4_9-2015q1/arm-none-eabi/include/c++/4.9.3/tuple **** // Copyright (C) 2007-2014 Free Software Foundation, Inc.
   4:/opt/toolchains/gcc-arm-none-eabi-4_9-2015q1/arm-none-eabi/include/c++/4.9.3/tuple **** //
   5:/opt/toolchains/gcc-arm-none-eabi-4_9-2015q1/arm-none-eabi/include/c++/4.9.3/tuple **** // This file is part of the GNU ISO C++ Library.  This library is free
   6:/opt/toolchains/gcc-arm-none-eabi-4_9-2015q1/arm-none-eabi/include/c++/4.9.3/tuple **** // software; you can redistribute it and/or modify it under the
   7:/opt/toolchains/gcc-arm-none-eabi-4_9-2015q1/arm-none-eabi/include/c++/4.9.3/tuple **** // terms of the GNU General Public License as published by the
   8:/opt/toolchains/gcc-arm-none-eabi-4_9-2015q1/arm-none-eabi/include/c++/4.9.3/tuple **** // Free Software Foundation; either version 3, or (at your option)
   9:/opt/toolchains/gcc-arm-none-eabi-4_9-2015q1/arm-none-eabi/include/c++/4.9.3/tuple **** // any later version.
  10:/opt/toolchains/gcc-arm-none-eabi-4_9-2015q1/arm-none-eabi/include/c++/4.9.3/tuple **** 
  11:/opt/toolchains/gcc-arm-none-eabi-4_9-2015q1/arm-none-eabi/include/c++/4.9.3/tuple **** // This library is distributed in the hope that it will be useful,
  12:/opt/toolchains/gcc-arm-none-eabi-4_9-2015q1/arm-none-eabi/include/c++/4.9.3/tuple **** // but WITHOUT ANY WARRANTY; without even the implied warranty of
  13:/opt/toolchains/gcc-arm-none-eabi-4_9-2015q1/arm-none-eabi/include/c++/4.9.3/tuple **** // MERCHANTABILITY or FITNESS FOR A PARTICULAR PURPOSE.  See the
  14:/opt/toolchains/gcc-arm-none-eabi-4_9-2015q1/arm-none-eabi/include/c++/4.9.3/tuple **** // GNU General Public License for more details.
  15:/opt/toolchains/gcc-arm-none-eabi-4_9-2015q1/arm-none-eabi/include/c++/4.9.3/tuple **** 
  16:/opt/toolchains/gcc-arm-none-eabi-4_9-2015q1/arm-none-eabi/include/c++/4.9.3/tuple **** // Under Section 7 of GPL version 3, you are granted additional
  17:/opt/toolchains/gcc-arm-none-eabi-4_9-2015q1/arm-none-eabi/include/c++/4.9.3/tuple **** // permissions described in the GCC Runtime Library Exception, version
  18:/opt/toolchains/gcc-arm-none-eabi-4_9-2015q1/arm-none-eabi/include/c++/4.9.3/tuple **** // 3.1, as published by the Free Software Foundation.
  19:/opt/toolchains/gcc-arm-none-eabi-4_9-2015q1/arm-none-eabi/include/c++/4.9.3/tuple **** 
  20:/opt/toolchains/gcc-arm-none-eabi-4_9-2015q1/arm-none-eabi/include/c++/4.9.3/tuple **** // You should have received a copy of the GNU General Public License and
  21:/opt/toolchains/gcc-arm-none-eabi-4_9-2015q1/arm-none-eabi/include/c++/4.9.3/tuple **** // a copy of the GCC Runtime Library Exception along with this program;
  22:/opt/toolchains/gcc-arm-none-eabi-4_9-2015q1/arm-none-eabi/include/c++/4.9.3/tuple **** // see the files COPYING3 and COPYING.RUNTIME respectively.  If not, see
  23:/opt/toolchains/gcc-arm-none-eabi-4_9-2015q1/arm-none-eabi/include/c++/4.9.3/tuple **** // <http://www.gnu.org/licenses/>.
  24:/opt/toolchains/gcc-arm-none-eabi-4_9-2015q1/arm-none-eabi/include/c++/4.9.3/tuple **** 
  25:/opt/toolchains/gcc-arm-none-eabi-4_9-2015q1/arm-none-eabi/include/c++/4.9.3/tuple **** /** @file include/tuple
  26:/opt/toolchains/gcc-arm-none-eabi-4_9-2015q1/arm-none-eabi/include/c++/4.9.3/tuple ****  *  This is a Standard C++ Library header.
  27:/opt/toolchains/gcc-arm-none-eabi-4_9-2015q1/arm-none-eabi/include/c++/4.9.3/tuple ****  */
  28:/opt/toolchains/gcc-arm-none-eabi-4_9-2015q1/arm-none-eabi/include/c++/4.9.3/tuple **** 
  29:/opt/toolchains/gcc-arm-none-eabi-4_9-2015q1/arm-none-eabi/include/c++/4.9.3/tuple **** #ifndef _GLIBCXX_TUPLE
  30:/opt/toolchains/gcc-arm-none-eabi-4_9-2015q1/arm-none-eabi/include/c++/4.9.3/tuple **** #define _GLIBCXX_TUPLE 1
  31:/opt/toolchains/gcc-arm-none-eabi-4_9-2015q1/arm-none-eabi/include/c++/4.9.3/tuple **** 
  32:/opt/toolchains/gcc-arm-none-eabi-4_9-2015q1/arm-none-eabi/include/c++/4.9.3/tuple **** #pragma GCC system_header
  33:/opt/toolchains/gcc-arm-none-eabi-4_9-2015q1/arm-none-eabi/include/c++/4.9.3/tuple **** 
  34:/opt/toolchains/gcc-arm-none-eabi-4_9-2015q1/arm-none-eabi/include/c++/4.9.3/tuple **** #if __cplusplus < 201103L
  35:/opt/toolchains/gcc-arm-none-eabi-4_9-2015q1/arm-none-eabi/include/c++/4.9.3/tuple **** # include <bits/c++0x_warning.h>
  36:/opt/toolchains/gcc-arm-none-eabi-4_9-2015q1/arm-none-eabi/include/c++/4.9.3/tuple **** #else
  37:/opt/toolchains/gcc-arm-none-eabi-4_9-2015q1/arm-none-eabi/include/c++/4.9.3/tuple **** 
  38:/opt/toolchains/gcc-arm-none-eabi-4_9-2015q1/arm-none-eabi/include/c++/4.9.3/tuple **** #include <utility>
  39:/opt/toolchains/gcc-arm-none-eabi-4_9-2015q1/arm-none-eabi/include/c++/4.9.3/tuple **** #include <array>
  40:/opt/toolchains/gcc-arm-none-eabi-4_9-2015q1/arm-none-eabi/include/c++/4.9.3/tuple **** #include <bits/uses_allocator.h>
  41:/opt/toolchains/gcc-arm-none-eabi-4_9-2015q1/arm-none-eabi/include/c++/4.9.3/tuple **** 
  42:/opt/toolchains/gcc-arm-none-eabi-4_9-2015q1/arm-none-eabi/include/c++/4.9.3/tuple **** namespace std _GLIBCXX_VISIBILITY(default)
  43:/opt/toolchains/gcc-arm-none-eabi-4_9-2015q1/arm-none-eabi/include/c++/4.9.3/tuple **** {
  44:/opt/toolchains/gcc-arm-none-eabi-4_9-2015q1/arm-none-eabi/include/c++/4.9.3/tuple **** _GLIBCXX_BEGIN_NAMESPACE_VERSION
  45:/opt/toolchains/gcc-arm-none-eabi-4_9-2015q1/arm-none-eabi/include/c++/4.9.3/tuple **** 
  46:/opt/toolchains/gcc-arm-none-eabi-4_9-2015q1/arm-none-eabi/include/c++/4.9.3/tuple ****   /**
  47:/opt/toolchains/gcc-arm-none-eabi-4_9-2015q1/arm-none-eabi/include/c++/4.9.3/tuple ****    *  @addtogroup utilities
  48:/opt/toolchains/gcc-arm-none-eabi-4_9-2015q1/arm-none-eabi/include/c++/4.9.3/tuple ****    *  @{
  49:/opt/toolchains/gcc-arm-none-eabi-4_9-2015q1/arm-none-eabi/include/c++/4.9.3/tuple ****    */
  50:/opt/toolchains/gcc-arm-none-eabi-4_9-2015q1/arm-none-eabi/include/c++/4.9.3/tuple **** 
  51:/opt/toolchains/gcc-arm-none-eabi-4_9-2015q1/arm-none-eabi/include/c++/4.9.3/tuple ****   // Adds a const reference to a non-reference type.
  52:/opt/toolchains/gcc-arm-none-eabi-4_9-2015q1/arm-none-eabi/include/c++/4.9.3/tuple ****   template<typename _Tp>
  53:/opt/toolchains/gcc-arm-none-eabi-4_9-2015q1/arm-none-eabi/include/c++/4.9.3/tuple ****     struct __add_c_ref
  54:/opt/toolchains/gcc-arm-none-eabi-4_9-2015q1/arm-none-eabi/include/c++/4.9.3/tuple ****     { typedef const _Tp& type; };
  55:/opt/toolchains/gcc-arm-none-eabi-4_9-2015q1/arm-none-eabi/include/c++/4.9.3/tuple **** 
  56:/opt/toolchains/gcc-arm-none-eabi-4_9-2015q1/arm-none-eabi/include/c++/4.9.3/tuple ****   template<typename _Tp>
  57:/opt/toolchains/gcc-arm-none-eabi-4_9-2015q1/arm-none-eabi/include/c++/4.9.3/tuple ****     struct __add_c_ref<_Tp&>
  58:/opt/toolchains/gcc-arm-none-eabi-4_9-2015q1/arm-none-eabi/include/c++/4.9.3/tuple ****     { typedef _Tp& type; };
  59:/opt/toolchains/gcc-arm-none-eabi-4_9-2015q1/arm-none-eabi/include/c++/4.9.3/tuple **** 
  60:/opt/toolchains/gcc-arm-none-eabi-4_9-2015q1/arm-none-eabi/include/c++/4.9.3/tuple ****   // Adds a reference to a non-reference type.
  61:/opt/toolchains/gcc-arm-none-eabi-4_9-2015q1/arm-none-eabi/include/c++/4.9.3/tuple ****   template<typename _Tp>
  62:/opt/toolchains/gcc-arm-none-eabi-4_9-2015q1/arm-none-eabi/include/c++/4.9.3/tuple ****     struct __add_ref
  63:/opt/toolchains/gcc-arm-none-eabi-4_9-2015q1/arm-none-eabi/include/c++/4.9.3/tuple ****     { typedef _Tp& type; };
  64:/opt/toolchains/gcc-arm-none-eabi-4_9-2015q1/arm-none-eabi/include/c++/4.9.3/tuple **** 
  65:/opt/toolchains/gcc-arm-none-eabi-4_9-2015q1/arm-none-eabi/include/c++/4.9.3/tuple ****   template<typename _Tp>
  66:/opt/toolchains/gcc-arm-none-eabi-4_9-2015q1/arm-none-eabi/include/c++/4.9.3/tuple ****     struct __add_ref<_Tp&>
  67:/opt/toolchains/gcc-arm-none-eabi-4_9-2015q1/arm-none-eabi/include/c++/4.9.3/tuple ****     { typedef _Tp& type; };
  68:/opt/toolchains/gcc-arm-none-eabi-4_9-2015q1/arm-none-eabi/include/c++/4.9.3/tuple **** 
  69:/opt/toolchains/gcc-arm-none-eabi-4_9-2015q1/arm-none-eabi/include/c++/4.9.3/tuple ****   // Adds an rvalue reference to a non-reference type.
  70:/opt/toolchains/gcc-arm-none-eabi-4_9-2015q1/arm-none-eabi/include/c++/4.9.3/tuple ****   template<typename _Tp>
  71:/opt/toolchains/gcc-arm-none-eabi-4_9-2015q1/arm-none-eabi/include/c++/4.9.3/tuple ****     struct __add_r_ref
  72:/opt/toolchains/gcc-arm-none-eabi-4_9-2015q1/arm-none-eabi/include/c++/4.9.3/tuple ****     { typedef _Tp&& type; };
  73:/opt/toolchains/gcc-arm-none-eabi-4_9-2015q1/arm-none-eabi/include/c++/4.9.3/tuple **** 
  74:/opt/toolchains/gcc-arm-none-eabi-4_9-2015q1/arm-none-eabi/include/c++/4.9.3/tuple ****   template<typename _Tp>
  75:/opt/toolchains/gcc-arm-none-eabi-4_9-2015q1/arm-none-eabi/include/c++/4.9.3/tuple ****     struct __add_r_ref<_Tp&>
  76:/opt/toolchains/gcc-arm-none-eabi-4_9-2015q1/arm-none-eabi/include/c++/4.9.3/tuple ****     { typedef _Tp& type; };
  77:/opt/toolchains/gcc-arm-none-eabi-4_9-2015q1/arm-none-eabi/include/c++/4.9.3/tuple **** 
  78:/opt/toolchains/gcc-arm-none-eabi-4_9-2015q1/arm-none-eabi/include/c++/4.9.3/tuple ****   template<std::size_t _Idx, typename _Head, bool _IsEmptyNotFinal>
  79:/opt/toolchains/gcc-arm-none-eabi-4_9-2015q1/arm-none-eabi/include/c++/4.9.3/tuple ****     struct _Head_base;
  80:/opt/toolchains/gcc-arm-none-eabi-4_9-2015q1/arm-none-eabi/include/c++/4.9.3/tuple **** 
  81:/opt/toolchains/gcc-arm-none-eabi-4_9-2015q1/arm-none-eabi/include/c++/4.9.3/tuple ****   template<std::size_t _Idx, typename _Head>
  82:/opt/toolchains/gcc-arm-none-eabi-4_9-2015q1/arm-none-eabi/include/c++/4.9.3/tuple ****     struct _Head_base<_Idx, _Head, true>
  83:/opt/toolchains/gcc-arm-none-eabi-4_9-2015q1/arm-none-eabi/include/c++/4.9.3/tuple ****     : public _Head
  84:/opt/toolchains/gcc-arm-none-eabi-4_9-2015q1/arm-none-eabi/include/c++/4.9.3/tuple ****     {
  85:/opt/toolchains/gcc-arm-none-eabi-4_9-2015q1/arm-none-eabi/include/c++/4.9.3/tuple ****       constexpr _Head_base()
  86:/opt/toolchains/gcc-arm-none-eabi-4_9-2015q1/arm-none-eabi/include/c++/4.9.3/tuple ****       : _Head() { }
  87:/opt/toolchains/gcc-arm-none-eabi-4_9-2015q1/arm-none-eabi/include/c++/4.9.3/tuple **** 
  88:/opt/toolchains/gcc-arm-none-eabi-4_9-2015q1/arm-none-eabi/include/c++/4.9.3/tuple ****       constexpr _Head_base(const _Head& __h)
  89:/opt/toolchains/gcc-arm-none-eabi-4_9-2015q1/arm-none-eabi/include/c++/4.9.3/tuple ****       : _Head(__h) { }
  90:/opt/toolchains/gcc-arm-none-eabi-4_9-2015q1/arm-none-eabi/include/c++/4.9.3/tuple **** 
  91:/opt/toolchains/gcc-arm-none-eabi-4_9-2015q1/arm-none-eabi/include/c++/4.9.3/tuple ****       constexpr _Head_base(const _Head_base&) = default;
  92:/opt/toolchains/gcc-arm-none-eabi-4_9-2015q1/arm-none-eabi/include/c++/4.9.3/tuple ****       constexpr _Head_base(_Head_base&&) = default;
  93:/opt/toolchains/gcc-arm-none-eabi-4_9-2015q1/arm-none-eabi/include/c++/4.9.3/tuple **** 
  94:/opt/toolchains/gcc-arm-none-eabi-4_9-2015q1/arm-none-eabi/include/c++/4.9.3/tuple ****       template<typename _UHead>
  95:/opt/toolchains/gcc-arm-none-eabi-4_9-2015q1/arm-none-eabi/include/c++/4.9.3/tuple ****         constexpr _Head_base(_UHead&& __h)
  96:/opt/toolchains/gcc-arm-none-eabi-4_9-2015q1/arm-none-eabi/include/c++/4.9.3/tuple **** 	: _Head(std::forward<_UHead>(__h)) { }
  97:/opt/toolchains/gcc-arm-none-eabi-4_9-2015q1/arm-none-eabi/include/c++/4.9.3/tuple **** 
  98:/opt/toolchains/gcc-arm-none-eabi-4_9-2015q1/arm-none-eabi/include/c++/4.9.3/tuple ****       _Head_base(allocator_arg_t, __uses_alloc0)
  99:/opt/toolchains/gcc-arm-none-eabi-4_9-2015q1/arm-none-eabi/include/c++/4.9.3/tuple ****       : _Head() { }
 100:/opt/toolchains/gcc-arm-none-eabi-4_9-2015q1/arm-none-eabi/include/c++/4.9.3/tuple **** 
 101:/opt/toolchains/gcc-arm-none-eabi-4_9-2015q1/arm-none-eabi/include/c++/4.9.3/tuple ****       template<typename _Alloc>
 102:/opt/toolchains/gcc-arm-none-eabi-4_9-2015q1/arm-none-eabi/include/c++/4.9.3/tuple **** 	_Head_base(allocator_arg_t, __uses_alloc1<_Alloc> __a)
 103:/opt/toolchains/gcc-arm-none-eabi-4_9-2015q1/arm-none-eabi/include/c++/4.9.3/tuple **** 	: _Head(allocator_arg, *__a._M_a) { }
 104:/opt/toolchains/gcc-arm-none-eabi-4_9-2015q1/arm-none-eabi/include/c++/4.9.3/tuple **** 
 105:/opt/toolchains/gcc-arm-none-eabi-4_9-2015q1/arm-none-eabi/include/c++/4.9.3/tuple ****       template<typename _Alloc>
 106:/opt/toolchains/gcc-arm-none-eabi-4_9-2015q1/arm-none-eabi/include/c++/4.9.3/tuple **** 	_Head_base(allocator_arg_t, __uses_alloc2<_Alloc> __a)
 107:/opt/toolchains/gcc-arm-none-eabi-4_9-2015q1/arm-none-eabi/include/c++/4.9.3/tuple **** 	: _Head(*__a._M_a) { }
 108:/opt/toolchains/gcc-arm-none-eabi-4_9-2015q1/arm-none-eabi/include/c++/4.9.3/tuple **** 
 109:/opt/toolchains/gcc-arm-none-eabi-4_9-2015q1/arm-none-eabi/include/c++/4.9.3/tuple ****       template<typename _UHead>
 110:/opt/toolchains/gcc-arm-none-eabi-4_9-2015q1/arm-none-eabi/include/c++/4.9.3/tuple **** 	_Head_base(__uses_alloc0, _UHead&& __uhead)
 111:/opt/toolchains/gcc-arm-none-eabi-4_9-2015q1/arm-none-eabi/include/c++/4.9.3/tuple **** 	: _Head(std::forward<_UHead>(__uhead)) { }
 112:/opt/toolchains/gcc-arm-none-eabi-4_9-2015q1/arm-none-eabi/include/c++/4.9.3/tuple **** 
 113:/opt/toolchains/gcc-arm-none-eabi-4_9-2015q1/arm-none-eabi/include/c++/4.9.3/tuple ****       template<typename _Alloc, typename _UHead>
 114:/opt/toolchains/gcc-arm-none-eabi-4_9-2015q1/arm-none-eabi/include/c++/4.9.3/tuple **** 	_Head_base(__uses_alloc1<_Alloc> __a, _UHead&& __uhead)
 115:/opt/toolchains/gcc-arm-none-eabi-4_9-2015q1/arm-none-eabi/include/c++/4.9.3/tuple **** 	: _Head(allocator_arg, *__a._M_a, std::forward<_UHead>(__uhead)) { }
 116:/opt/toolchains/gcc-arm-none-eabi-4_9-2015q1/arm-none-eabi/include/c++/4.9.3/tuple **** 
 117:/opt/toolchains/gcc-arm-none-eabi-4_9-2015q1/arm-none-eabi/include/c++/4.9.3/tuple ****       template<typename _Alloc, typename _UHead>
 118:/opt/toolchains/gcc-arm-none-eabi-4_9-2015q1/arm-none-eabi/include/c++/4.9.3/tuple **** 	_Head_base(__uses_alloc2<_Alloc> __a, _UHead&& __uhead)
 119:/opt/toolchains/gcc-arm-none-eabi-4_9-2015q1/arm-none-eabi/include/c++/4.9.3/tuple **** 	: _Head(std::forward<_UHead>(__uhead), *__a._M_a) { }
 120:/opt/toolchains/gcc-arm-none-eabi-4_9-2015q1/arm-none-eabi/include/c++/4.9.3/tuple **** 
 121:/opt/toolchains/gcc-arm-none-eabi-4_9-2015q1/arm-none-eabi/include/c++/4.9.3/tuple ****       static constexpr _Head&
 122:/opt/toolchains/gcc-arm-none-eabi-4_9-2015q1/arm-none-eabi/include/c++/4.9.3/tuple ****       _M_head(_Head_base& __b) noexcept { return __b; }
 123:/opt/toolchains/gcc-arm-none-eabi-4_9-2015q1/arm-none-eabi/include/c++/4.9.3/tuple **** 
 124:/opt/toolchains/gcc-arm-none-eabi-4_9-2015q1/arm-none-eabi/include/c++/4.9.3/tuple ****       static constexpr const _Head&
 125:/opt/toolchains/gcc-arm-none-eabi-4_9-2015q1/arm-none-eabi/include/c++/4.9.3/tuple ****       _M_head(const _Head_base& __b) noexcept { return __b; }
 126:/opt/toolchains/gcc-arm-none-eabi-4_9-2015q1/arm-none-eabi/include/c++/4.9.3/tuple ****     };
 127:/opt/toolchains/gcc-arm-none-eabi-4_9-2015q1/arm-none-eabi/include/c++/4.9.3/tuple **** 
 128:/opt/toolchains/gcc-arm-none-eabi-4_9-2015q1/arm-none-eabi/include/c++/4.9.3/tuple ****   template<std::size_t _Idx, typename _Head>
 129:/opt/toolchains/gcc-arm-none-eabi-4_9-2015q1/arm-none-eabi/include/c++/4.9.3/tuple ****     struct _Head_base<_Idx, _Head, false>
 130:/opt/toolchains/gcc-arm-none-eabi-4_9-2015q1/arm-none-eabi/include/c++/4.9.3/tuple ****     {
 131:/opt/toolchains/gcc-arm-none-eabi-4_9-2015q1/arm-none-eabi/include/c++/4.9.3/tuple ****       constexpr _Head_base()
 132:/opt/toolchains/gcc-arm-none-eabi-4_9-2015q1/arm-none-eabi/include/c++/4.9.3/tuple ****       : _M_head_impl() { }
 2996              		.loc 7 132 0
 2997 000a 0020     		movs	r0, #0
 2998 000c 43F8040B 		str	r0, [r3], #4
 2999              	.LVL352:
 3000              	.LBE1505:
 3001              	.LBE1504:
 3002              	.LBE1503:
 3003              	.LBE1502:
 3004              	.LBE1501:
 3005              	.LBE1500:
 3006              	.LBE1499:
 3007              	.LBE1498:
 3008              	.LBE1497:
 156:/home/tienluong/workspace/atlantis_fw/AsicFwS2/src/calibclasses.cpp ****     if (!parseGeometricCalibData(lh)) {
 3009              		.loc 4 156 0
 3010 0010 9342     		cmp	r3, r2
 3011 0012 FAD1     		bne	.L136
 157:/home/tienluong/workspace/atlantis_fw/AsicFwS2/src/calibclasses.cpp ****         SLOGF(SLOG_ERROR, "Parsing calibration protobuf failed...");
 3012              		.loc 4 157 0 discriminator 4
 3013 0014 2046     		mov	r0, r4
 3014 0016 054B     		ldr	r3, .L139
 3015              	.LVL353:
 3016 0018 9847     		blx	r3
 3017              	.LVL354:
 3018 001a 20B9     		cbnz	r0, .L137
 158:/home/tienluong/workspace/atlantis_fw/AsicFwS2/src/calibclasses.cpp ****     }
 3019              		.loc 4 158 0
 3020 001c 2B20     		movs	r0, #43
 3021 001e 0221     		movs	r1, #2
 3022 0020 034A     		ldr	r2, .L139+4
 3023 0022 044B     		ldr	r3, .L139+8
 3024 0024 9847     		blx	r3
 3025              	.LVL355:
 3026              	.L137:
 3027              	.LBE1506:
 160:/home/tienluong/workspace/atlantis_fw/AsicFwS2/src/calibclasses.cpp **** 
 3028              		.loc 4 160 0
 3029 0026 2046     		mov	r0, r4
 3030 0028 10BD     		pop	{r4, pc}
 3031              	.LVL356:
 3032              	.L140:
 3033 002a 00BF     		.align	2
 3034              	.L139:
 3035 002c 00000000 		.word	_ZN4ltaf16CalibDataManager23parseGeometricCalibDataERK18_Ltpb__LightHeader
 3036 0030 EB000000 		.word	.LC31
 3037 0034 00000000 		.word	slogf
 3038              		.cfi_endproc
 3039              	.LFE3338:
 3041              		.global	_ZN4ltaf16CalibDataManagerC1ERK18_Ltpb__LightHeader
 3042              		.thumb_set _ZN4ltaf16CalibDataManagerC1ERK18_Ltpb__LightHeader,_ZN4ltaf16CalibDataManagerC2ERK18_L
 3043              		.section	.text._ZN4ltaf16CalibDataManager13hardCodeCalibEv,"ax",%progbits
 3044              		.align	1
 3045              		.global	_ZN4ltaf16CalibDataManager13hardCodeCalibEv
 3046              		.thumb
 3047              		.thumb_func
 3049              	_ZN4ltaf16CalibDataManager13hardCodeCalibEv:
 3050              	.LFB3352:
 326:/home/tienluong/workspace/atlantis_fw/AsicFwS2/src/calibclasses.cpp **** }
 327:/home/tienluong/workspace/atlantis_fw/AsicFwS2/src/calibclasses.cpp **** 
 328:/home/tienluong/workspace/atlantis_fw/AsicFwS2/src/calibclasses.cpp **** 
 329:/home/tienluong/workspace/atlantis_fw/AsicFwS2/src/calibclasses.cpp **** //------for hardcording calib --------
 330:/home/tienluong/workspace/atlantis_fw/AsicFwS2/src/calibclasses.cpp **** #define USE_P2_17
 331:/home/tienluong/workspace/atlantis_fw/AsicFwS2/src/calibclasses.cpp **** 
 332:/home/tienluong/workspace/atlantis_fw/AsicFwS2/src/calibclasses.cpp **** 
 333:/home/tienluong/workspace/atlantis_fw/AsicFwS2/src/calibclasses.cpp **** #if defined(USE_P2_9)
 334:/home/tienluong/workspace/atlantis_fw/AsicFwS2/src/calibclasses.cpp **** void CalibDataManager::hardCodeCalib(){
 335:/home/tienluong/workspace/atlantis_fw/AsicFwS2/src/calibclasses.cpp ****     // set everything to null first
 336:/home/tienluong/workspace/atlantis_fw/AsicFwS2/src/calibclasses.cpp ****     for (int i = 0; i<kNumModules; ++i){
 337:/home/tienluong/workspace/atlantis_fw/AsicFwS2/src/calibclasses.cpp ****         _cam_params[i].reset();
 338:/home/tienluong/workspace/atlantis_fw/AsicFwS2/src/calibclasses.cpp ****     }
 339:/home/tienluong/workspace/atlantis_fw/AsicFwS2/src/calibclasses.cpp **** 
 340:/home/tienluong/workspace/atlantis_fw/AsicFwS2/src/calibclasses.cpp ****     _cam_params[ModuleName::A1].reset( new(Heap::DDR) CalibData(Matrix3x3f({3295.0591148450653,0,20
 341:/home/tienluong/workspace/atlantis_fw/AsicFwS2/src/calibclasses.cpp ****                                             Matrix3x3f({0.9999999999999999,-2.3816433467529536e-20,
 342:/home/tienluong/workspace/atlantis_fw/AsicFwS2/src/calibclasses.cpp ****                                             Vec3f({0,0,0})) );
 343:/home/tienluong/workspace/atlantis_fw/AsicFwS2/src/calibclasses.cpp **** 
 344:/home/tienluong/workspace/atlantis_fw/AsicFwS2/src/calibclasses.cpp ****     _cam_params[ModuleName::A2].reset( new(Heap::DDR) CalibData(Matrix3x3f({3292.662800728938,0,207
 345:/home/tienluong/workspace/atlantis_fw/AsicFwS2/src/calibclasses.cpp ****                                             Matrix3x3f({0.9999811814247545,0.0011315950069566996,-0
 346:/home/tienluong/workspace/atlantis_fw/AsicFwS2/src/calibclasses.cpp ****                                             Vec3f({29.49858846344386,26.503786194567483,3.802835407
 347:/home/tienluong/workspace/atlantis_fw/AsicFwS2/src/calibclasses.cpp **** 
 348:/home/tienluong/workspace/atlantis_fw/AsicFwS2/src/calibclasses.cpp **** //A4 stuck, no calibration data available.
 349:/home/tienluong/workspace/atlantis_fw/AsicFwS2/src/calibclasses.cpp **** 
 350:/home/tienluong/workspace/atlantis_fw/AsicFwS2/src/calibclasses.cpp ****     _cam_params[ModuleName::A3].reset( new(Heap::DDR) CalibData(Matrix3x3f({3313.6273113454727,0,20
 351:/home/tienluong/workspace/atlantis_fw/AsicFwS2/src/calibclasses.cpp ****                                             Matrix3x3f({0.9999987383721348,0.0014672622200696548,-0
 352:/home/tienluong/workspace/atlantis_fw/AsicFwS2/src/calibclasses.cpp ****                                             Vec3f({-10.019090578826673,26.520590074318777,4.5270152
 353:/home/tienluong/workspace/atlantis_fw/AsicFwS2/src/calibclasses.cpp **** 
 354:/home/tienluong/workspace/atlantis_fw/AsicFwS2/src/calibclasses.cpp ****     _cam_params[ModuleName::A5].reset( new(Heap::DDR) CalibData(Matrix3x3f({3291.0635576697628,0,21
 355:/home/tienluong/workspace/atlantis_fw/AsicFwS2/src/calibclasses.cpp ****                                             Matrix3x3f({0.9999589422747642,0.004341889206131372,-0.
 356:/home/tienluong/workspace/atlantis_fw/AsicFwS2/src/calibclasses.cpp ****                                             Vec3f({42.10074769960174,3.8443510765515525,0.932169744
 357:/home/tienluong/workspace/atlantis_fw/AsicFwS2/src/calibclasses.cpp **** 
 358:/home/tienluong/workspace/atlantis_fw/AsicFwS2/src/calibclasses.cpp ****     _cam_params[ModuleName::B4].reset( new(Heap::DDR) CalibData(Matrix3x3f({8266.011118041928,0,212
 359:/home/tienluong/workspace/atlantis_fw/AsicFwS2/src/calibclasses.cpp ****                                             Matrix3x3f({0.99722741660368,-0.024544865893738507,-0.0
 360:/home/tienluong/workspace/atlantis_fw/AsicFwS2/src/calibclasses.cpp ****                                             Vec3f({6.299786067286529,-16.573715979308394,33.0817973
 361:/home/tienluong/workspace/atlantis_fw/AsicFwS2/src/calibclasses.cpp **** 
 362:/home/tienluong/workspace/atlantis_fw/AsicFwS2/src/calibclasses.cpp **** 
 363:/home/tienluong/workspace/atlantis_fw/AsicFwS2/src/calibclasses.cpp **** // B2
 364:/home/tienluong/workspace/atlantis_fw/AsicFwS2/src/calibclasses.cpp ****     _cam_params[ModuleName::B2].reset( new(Heap::DDR) CalibDataWMirror( 
 365:/home/tienluong/workspace/atlantis_fw/AsicFwS2/src/calibclasses.cpp ****                 Matrix3x3f({8282.306922904852,0,2126.069870006372,0,8313.334914265235,1684.46813609
 366:/home/tienluong/workspace/atlantis_fw/AsicFwS2/src/calibclasses.cpp ****                 MirrorSysParam
 367:/home/tienluong/workspace/atlantis_fw/AsicFwS2/src/calibclasses.cpp ****                     { Matrix3x3f{0.35902530983180727,0.4644519275409676,-0.8095586661284373,-0.4951
 368:/home/tienluong/workspace/atlantis_fw/AsicFwS2/src/calibclasses.cpp ****                      Vec3f{3.0433017274683729,-8.723102708377145,-19.693766500410278},
 369:/home/tienluong/workspace/atlantis_fw/AsicFwS2/src/calibclasses.cpp ****                      Vec3f{-9.257113888455056,-16.95579212058076,-10.34046237360415},
 370:/home/tienluong/workspace/atlantis_fw/AsicFwS2/src/calibclasses.cpp ****                      Vec3f{0.49610134984994716,-0.861758302992775,-0.10609466480494355},
 371:/home/tienluong/workspace/atlantis_fw/AsicFwS2/src/calibclasses.cpp ****                      Vec3f{-0.7816876221803366,-0.6235675196751278,-0.011314138776807042},
 372:/home/tienluong/workspace/atlantis_fw/AsicFwS2/src/calibclasses.cpp ****                      9.173385620117188f, 
 373:/home/tienluong/workspace/atlantis_fw/AsicFwS2/src/calibclasses.cpp ****                      true, 
 374:/home/tienluong/workspace/atlantis_fw/AsicFwS2/src/calibclasses.cpp ****                      Vec2f{39.05859968494464,42.13551163101412}
 375:/home/tienluong/workspace/atlantis_fw/AsicFwS2/src/calibclasses.cpp ****                  }, // mirror sys param
 376:/home/tienluong/workspace/atlantis_fw/AsicFwS2/src/calibclasses.cpp ****                 MirrorActuatorMapping({443.3333333333333, 92.11586906355133,40.63525138761976,1.539
 377:/home/tienluong/workspace/atlantis_fw/AsicFwS2/src/calibclasses.cpp ****                                                 -0.012551557522439664,0.9990424741648483,0.00836770
 378:/home/tienluong/workspace/atlantis_fw/AsicFwS2/src/calibclasses.cpp ****                 ) );
 379:/home/tienluong/workspace/atlantis_fw/AsicFwS2/src/calibclasses.cpp ****                                        
 380:/home/tienluong/workspace/atlantis_fw/AsicFwS2/src/calibclasses.cpp **** 
 381:/home/tienluong/workspace/atlantis_fw/AsicFwS2/src/calibclasses.cpp **** 
 382:/home/tienluong/workspace/atlantis_fw/AsicFwS2/src/calibclasses.cpp **** // B3 is probably not well calibrated given the mirror movement range.
 383:/home/tienluong/workspace/atlantis_fw/AsicFwS2/src/calibclasses.cpp ****     _cam_params[ModuleName::B3].reset( new(Heap::DDR) CalibDataWMirror(
 384:/home/tienluong/workspace/atlantis_fw/AsicFwS2/src/calibclasses.cpp ****                 Matrix3x3f{8256.814045307285,0,2182.607354070612,0,8284.332223450714,1679.218343799
 385:/home/tienluong/workspace/atlantis_fw/AsicFwS2/src/calibclasses.cpp ****                 MirrorSysParam{   
 386:/home/tienluong/workspace/atlantis_fw/AsicFwS2/src/calibclasses.cpp ****                     Matrix3x3f{0.37533429180019087,-0.49805673862472796,-0.7817056060367922,0.47045
 387:/home/tienluong/workspace/atlantis_fw/AsicFwS2/src/calibclasses.cpp ****                     Vec3f{-43.420606563817099,77.79990800085051,-91.84131049208833},
 388:/home/tienluong/workspace/atlantis_fw/AsicFwS2/src/calibclasses.cpp ****                     Vec3f{-37.495629583599058,74.20560224514296,-103.57297135387853},
 389:/home/tienluong/workspace/atlantis_fw/AsicFwS2/src/calibclasses.cpp ****                     Vec3f{-0.58026344223544,-0.8132449211597401,-0.04389801604818028},
 390:/home/tienluong/workspace/atlantis_fw/AsicFwS2/src/calibclasses.cpp ****                     Vec3f{-0.8099616372228859,0.586457715964707,-0.005430802213442899},
 391:/home/tienluong/workspace/atlantis_fw/AsicFwS2/src/calibclasses.cpp ****                     -47.38914108276367, 
 392:/home/tienluong/workspace/atlantis_fw/AsicFwS2/src/calibclasses.cpp ****                     true, 
 393:/home/tienluong/workspace/atlantis_fw/AsicFwS2/src/calibclasses.cpp ****                     Vec2f{42.33553405632188,42.49524020951211}
 394:/home/tienluong/workspace/atlantis_fw/AsicFwS2/src/calibclasses.cpp ****                 }, // mirror sys param
 395:/home/tienluong/workspace/atlantis_fw/AsicFwS2/src/calibclasses.cpp ****                 MirrorActuatorMapping{539.3333333333334, 3.055050463303893, 42.40638788351465,0.081
 396:/home/tienluong/workspace/atlantis_fw/AsicFwS2/src/calibclasses.cpp ****                                               -0.005477918887415739,1.0017252745521648,0.0036519459
 397:/home/tienluong/workspace/atlantis_fw/AsicFwS2/src/calibclasses.cpp ****                 ) );
 398:/home/tienluong/workspace/atlantis_fw/AsicFwS2/src/calibclasses.cpp **** 
 399:/home/tienluong/workspace/atlantis_fw/AsicFwS2/src/calibclasses.cpp **** //B5
 400:/home/tienluong/workspace/atlantis_fw/AsicFwS2/src/calibclasses.cpp ****     _cam_params[ModuleName::B5].reset( new(Heap::DDR) CalibDataWMirror(
 401:/home/tienluong/workspace/atlantis_fw/AsicFwS2/src/calibclasses.cpp ****                 Matrix3x3f{8253.018231946164,0,2067.820266354399,0,8260.310544194503,1569.025940062
 402:/home/tienluong/workspace/atlantis_fw/AsicFwS2/src/calibclasses.cpp ****                 MirrorSysParam{
 403:/home/tienluong/workspace/atlantis_fw/AsicFwS2/src/calibclasses.cpp ****                    Matrix3x3f{-0.35702511296356956,-0.4636726051390165,0.8108888850865749,0.4947156
 404:/home/tienluong/workspace/atlantis_fw/AsicFwS2/src/calibclasses.cpp ****                         Vec3f{-45.513762811923538,23.307570608824823,-10.801205567561976},
 405:/home/tienluong/workspace/atlantis_fw/AsicFwS2/src/calibclasses.cpp ****                         Vec3f{-47.4283540845383,21.967579358041726,-18.55051558814425},
 406:/home/tienluong/workspace/atlantis_fw/AsicFwS2/src/calibclasses.cpp ****                         Vec3f{-0.6030252445335417,0.7976454264036477,0.011060207620370695},
 407:/home/tienluong/workspace/atlantis_fw/AsicFwS2/src/calibclasses.cpp ****                         Vec3f{0.8164065404110127,0.5774769966018447,0.0008241176097991389},
 408:/home/tienluong/workspace/atlantis_fw/AsicFwS2/src/calibclasses.cpp ****                         9.917757034301758, 
 409:/home/tienluong/workspace/atlantis_fw/AsicFwS2/src/calibclasses.cpp ****                         false, 
 410:/home/tienluong/workspace/atlantis_fw/AsicFwS2/src/calibclasses.cpp ****                         Vec2f{42.385095204988449,44.451176131153278}
 411:/home/tienluong/workspace/atlantis_fw/AsicFwS2/src/calibclasses.cpp ****                 }, // mirror sys param
 412:/home/tienluong/workspace/atlantis_fw/AsicFwS2/src/calibclasses.cpp ****                 MirrorActuatorMapping{444.3333333333333, 92.04527871288855,43.435002111555778,1.033
 413:/home/tienluong/workspace/atlantis_fw/AsicFwS2/src/calibclasses.cpp ****                                                 -0.00538141028115564,0.9997320073549088,0.003587606
 414:/home/tienluong/workspace/atlantis_fw/AsicFwS2/src/calibclasses.cpp ****                 ) );
 415:/home/tienluong/workspace/atlantis_fw/AsicFwS2/src/calibclasses.cpp **** 
 416:/home/tienluong/workspace/atlantis_fw/AsicFwS2/src/calibclasses.cpp **** // to do: C calib data
 417:/home/tienluong/workspace/atlantis_fw/AsicFwS2/src/calibclasses.cpp ****                                             
 418:/home/tienluong/workspace/atlantis_fw/AsicFwS2/src/calibclasses.cpp **** }
 419:/home/tienluong/workspace/atlantis_fw/AsicFwS2/src/calibclasses.cpp **** 
 420:/home/tienluong/workspace/atlantis_fw/AsicFwS2/src/calibclasses.cpp **** 
 421:/home/tienluong/workspace/atlantis_fw/AsicFwS2/src/calibclasses.cpp **** #elif defined(USE_P2_20)
 422:/home/tienluong/workspace/atlantis_fw/AsicFwS2/src/calibclasses.cpp **** 
 423:/home/tienluong/workspace/atlantis_fw/AsicFwS2/src/calibclasses.cpp **** void CalibDataManager::hardCodeCalib(){
 424:/home/tienluong/workspace/atlantis_fw/AsicFwS2/src/calibclasses.cpp ****     // set everything to null first
 425:/home/tienluong/workspace/atlantis_fw/AsicFwS2/src/calibclasses.cpp ****     for (int i = 0; i<kNumModules; ++i){
 426:/home/tienluong/workspace/atlantis_fw/AsicFwS2/src/calibclasses.cpp ****         _cam_params[i].reset();
 427:/home/tienluong/workspace/atlantis_fw/AsicFwS2/src/calibclasses.cpp ****     }
 428:/home/tienluong/workspace/atlantis_fw/AsicFwS2/src/calibclasses.cpp **** 
 429:/home/tienluong/workspace/atlantis_fw/AsicFwS2/src/calibclasses.cpp ****     _cam_params[ModuleName::A1].reset( new(Heap::DDR) CalibData(Matrix3x3f({3280.5305426947125,0,20
 430:/home/tienluong/workspace/atlantis_fw/AsicFwS2/src/calibclasses.cpp ****                                             Matrix3x3f({0.9999999999999999,-3.748872363731547e-21,2
 431:/home/tienluong/workspace/atlantis_fw/AsicFwS2/src/calibclasses.cpp ****                                             Vec3f({0,0,0})) );
 432:/home/tienluong/workspace/atlantis_fw/AsicFwS2/src/calibclasses.cpp **** 
 433:/home/tienluong/workspace/atlantis_fw/AsicFwS2/src/calibclasses.cpp ****     
 434:/home/tienluong/workspace/atlantis_fw/AsicFwS2/src/calibclasses.cpp **** 
 435:/home/tienluong/workspace/atlantis_fw/AsicFwS2/src/calibclasses.cpp **** 
 436:/home/tienluong/workspace/atlantis_fw/AsicFwS2/src/calibclasses.cpp ****     _cam_params[ModuleName::A2].reset( new(Heap::DDR) CalibData(Matrix3x3f({3304.8448314723137,0,21
 437:/home/tienluong/workspace/atlantis_fw/AsicFwS2/src/calibclasses.cpp ****                                             Matrix3x3f({0.9999982149649729,0.001261901856627429,-0.
 438:/home/tienluong/workspace/atlantis_fw/AsicFwS2/src/calibclasses.cpp ****                                             Vec3f({26.850456053996465,23.155008470843357,2.45106421
 439:/home/tienluong/workspace/atlantis_fw/AsicFwS2/src/calibclasses.cpp **** 
 440:/home/tienluong/workspace/atlantis_fw/AsicFwS2/src/calibclasses.cpp ****     _cam_params[ModuleName::A3].reset( new(Heap::DDR) CalibData(Matrix3x3f({3282.4003167172496,0,20
 441:/home/tienluong/workspace/atlantis_fw/AsicFwS2/src/calibclasses.cpp ****                                             Matrix3x3f({0.9999970223716608,0.0022106388076789395,-0
 442:/home/tienluong/workspace/atlantis_fw/AsicFwS2/src/calibclasses.cpp ****                                             Vec3f({-8.723877086190978,23.67454003577845,-0.74551117
 443:/home/tienluong/workspace/atlantis_fw/AsicFwS2/src/calibclasses.cpp **** 
 444:/home/tienluong/workspace/atlantis_fw/AsicFwS2/src/calibclasses.cpp ****     _cam_params[ModuleName::A4].reset( new(Heap::DDR) CalibData(Matrix3x3f({3275.915659596053,0,204
 445:/home/tienluong/workspace/atlantis_fw/AsicFwS2/src/calibclasses.cpp ****                                             Matrix3x3f({0.9999702671665456,0.007698306272300902,0.0
 446:/home/tienluong/workspace/atlantis_fw/AsicFwS2/src/calibclasses.cpp ****                                             Vec3f({-24.500993753695817,-21.6141971758371,-5.0984913
 447:/home/tienluong/workspace/atlantis_fw/AsicFwS2/src/calibclasses.cpp **** 
 448:/home/tienluong/workspace/atlantis_fw/AsicFwS2/src/calibclasses.cpp **** 
 449:/home/tienluong/workspace/atlantis_fw/AsicFwS2/src/calibclasses.cpp ****     _cam_params[ModuleName::A5].reset( new(Heap::DDR) CalibData(Matrix3x3f({3304.1046029307777,0,20
 450:/home/tienluong/workspace/atlantis_fw/AsicFwS2/src/calibclasses.cpp ****                                             Matrix3x3f({0.9999847359836309,0.0031492576152972768,0.
 451:/home/tienluong/workspace/atlantis_fw/AsicFwS2/src/calibclasses.cpp ****                                             Vec3f({42.11328364949198,-2.6510973441808867,3.60704836
 452:/home/tienluong/workspace/atlantis_fw/AsicFwS2/src/calibclasses.cpp **** 
 453:/home/tienluong/workspace/atlantis_fw/AsicFwS2/src/calibclasses.cpp ****     _cam_params[ModuleName::B4].reset( new(Heap::DDR) CalibData(Matrix3x3f({8229.28539453575,0,2148
 454:/home/tienluong/workspace/atlantis_fw/AsicFwS2/src/calibclasses.cpp ****                                             Matrix3x3f({0.9995873830352314,-0.017279216446002538,-0
 455:/home/tienluong/workspace/atlantis_fw/AsicFwS2/src/calibclasses.cpp ****                                             Vec3f({5.504509634741404,-15.753686243478086,25.8545981
 456:/home/tienluong/workspace/atlantis_fw/AsicFwS2/src/calibclasses.cpp **** 
 457:/home/tienluong/workspace/atlantis_fw/AsicFwS2/src/calibclasses.cpp **** 
 458:/home/tienluong/workspace/atlantis_fw/AsicFwS2/src/calibclasses.cpp **** // B1
 459:/home/tienluong/workspace/atlantis_fw/AsicFwS2/src/calibclasses.cpp ****     _cam_params[ModuleName::B1].reset( new(Heap::DDR) CalibDataWMirror( 
 460:/home/tienluong/workspace/atlantis_fw/AsicFwS2/src/calibclasses.cpp ****                 Matrix3x3f({8275.313632245749,0,2094.5997431002756,0,8286.984429043388,1544.2275981
 461:/home/tienluong/workspace/atlantis_fw/AsicFwS2/src/calibclasses.cpp ****                 MirrorSysParam
 462:/home/tienluong/workspace/atlantis_fw/AsicFwS2/src/calibclasses.cpp ****                     { Matrix3x3f{-0.3641656880387787,0.49425524760685288,0.7893637322985719,-0.4682
 463:/home/tienluong/workspace/atlantis_fw/AsicFwS2/src/calibclasses.cpp ****                      Vec3f{26.47229190174795,5.158908511759591,-35.07128645824435},
 464:/home/tienluong/workspace/atlantis_fw/AsicFwS2/src/calibclasses.cpp ****                      Vec3f{28.47067823535999,3.637715106803811,-33.41342208940389},
 465:/home/tienluong/workspace/atlantis_fw/AsicFwS2/src/calibclasses.cpp ****                      Vec3f{0.6214301250421991,0.7828662154992272,-0.030742288788487654},
 466:/home/tienluong/workspace/atlantis_fw/AsicFwS2/src/calibclasses.cpp ****                      Vec3f{0.7979061100016143,-0.6027780078129306,-0.0021243632378838115},
 467:/home/tienluong/workspace/atlantis_fw/AsicFwS2/src/calibclasses.cpp ****                      -1.3221596479415894, 
 468:/home/tienluong/workspace/atlantis_fw/AsicFwS2/src/calibclasses.cpp ****                      false, 
 469:/home/tienluong/workspace/atlantis_fw/AsicFwS2/src/calibclasses.cpp ****                      Vec2f{37.26603296696898,46.99395319979643}
 470:/home/tienluong/workspace/atlantis_fw/AsicFwS2/src/calibclasses.cpp ****                  }, // mirror sys param
 471:/home/tienluong/workspace/atlantis_fw/AsicFwS2/src/calibclasses.cpp ****                 MirrorActuatorMapping({ 453.75, 332.4649104291559, 42.27017752944356, 4.21375601688
 472:/home/tienluong/workspace/atlantis_fw/AsicFwS2/src/calibclasses.cpp ****                                                -0.0011437340034409093,0.9999093375537627,0.00085780
 473:/home/tienluong/workspace/atlantis_fw/AsicFwS2/src/calibclasses.cpp ****                 ) );
 474:/home/tienluong/workspace/atlantis_fw/AsicFwS2/src/calibclasses.cpp **** 
 475:/home/tienluong/workspace/atlantis_fw/AsicFwS2/src/calibclasses.cpp **** // B2
 476:/home/tienluong/workspace/atlantis_fw/AsicFwS2/src/calibclasses.cpp ****     _cam_params[ModuleName::B2].reset( new(Heap::DDR) CalibDataWMirror( 
 477:/home/tienluong/workspace/atlantis_fw/AsicFwS2/src/calibclasses.cpp ****                 Matrix3x3f({8271.513642064405,0,2171.1273106952412,0,8300.886741675955,1632.3739693
 478:/home/tienluong/workspace/atlantis_fw/AsicFwS2/src/calibclasses.cpp ****                 MirrorSysParam
 479:/home/tienluong/workspace/atlantis_fw/AsicFwS2/src/calibclasses.cpp ****                     { Matrix3x3f{0.3568184935347023,0.4688460300048786,-0.8079999769927534,-0.48933
 480:/home/tienluong/workspace/atlantis_fw/AsicFwS2/src/calibclasses.cpp ****                      Vec3f{-21.159360554445614,-26.222093569425835,-42.73208500275925},
 481:/home/tienluong/workspace/atlantis_fw/AsicFwS2/src/calibclasses.cpp ****                      Vec3f{-24.47737463429766,-28.741867328001658,-38.72128215535967},
 482:/home/tienluong/workspace/atlantis_fw/AsicFwS2/src/calibclasses.cpp ****                      Vec3f{0.5942594595924562,-0.8041584471080813,-0.013597302291322136},
 483:/home/tienluong/workspace/atlantis_fw/AsicFwS2/src/calibclasses.cpp ****                      Vec3f{-0.8039515218521105,-0.5946948223961965,-0.00013684601562877842},
 484:/home/tienluong/workspace/atlantis_fw/AsicFwS2/src/calibclasses.cpp ****                      -5.778927803039551, 
 485:/home/tienluong/workspace/atlantis_fw/AsicFwS2/src/calibclasses.cpp ****                      true, 
 486:/home/tienluong/workspace/atlantis_fw/AsicFwS2/src/calibclasses.cpp ****                      Vec2f{35.663086993164167,45.31076020855335}
 487:/home/tienluong/workspace/atlantis_fw/AsicFwS2/src/calibclasses.cpp ****                  }, // mirror sys param
 488:/home/tienluong/workspace/atlantis_fw/AsicFwS2/src/calibclasses.cpp ****                 MirrorActuatorMapping({444.5,315.5339390092081,40.48567517294649, 4.16355227533705,
 489:/home/tienluong/workspace/atlantis_fw/AsicFwS2/src/calibclasses.cpp ****                                                 -0.005857171209437758,0.9999959776612998,0.00439287
 490:/home/tienluong/workspace/atlantis_fw/AsicFwS2/src/calibclasses.cpp ****                 ) ); 
 491:/home/tienluong/workspace/atlantis_fw/AsicFwS2/src/calibclasses.cpp **** 
 492:/home/tienluong/workspace/atlantis_fw/AsicFwS2/src/calibclasses.cpp **** //B3 is missing for p2-20
 493:/home/tienluong/workspace/atlantis_fw/AsicFwS2/src/calibclasses.cpp **** 
 494:/home/tienluong/workspace/atlantis_fw/AsicFwS2/src/calibclasses.cpp **** // B5
 495:/home/tienluong/workspace/atlantis_fw/AsicFwS2/src/calibclasses.cpp ****     _cam_params[ModuleName::B2].reset( new(Heap::DDR) CalibDataWMirror( 
 496:/home/tienluong/workspace/atlantis_fw/AsicFwS2/src/calibclasses.cpp ****                 Matrix3x3f({8238.008153704817,0,2029.3181668738032,0,8255.493325729016,1587.1413041
 497:/home/tienluong/workspace/atlantis_fw/AsicFwS2/src/calibclasses.cpp ****                 MirrorSysParam
 498:/home/tienluong/workspace/atlantis_fw/AsicFwS2/src/calibclasses.cpp ****                     { Matrix3x3f{-0.36062486332429058,-0.4733771385674304,0.8036565140867387,0.4870
 499:/home/tienluong/workspace/atlantis_fw/AsicFwS2/src/calibclasses.cpp ****                      Vec3f{-42.78451366088321,26.89612072257969,-12.512978606932265},
 500:/home/tienluong/workspace/atlantis_fw/AsicFwS2/src/calibclasses.cpp ****                      Vec3f{-36.595502311786109,31.470163821871613,-6.2522884437565999},
 501:/home/tienluong/workspace/atlantis_fw/AsicFwS2/src/calibclasses.cpp ****                      Vec3f{-0.5853839326147728,0.8106426264176462,-0.013571428486486714},
 502:/home/tienluong/workspace/atlantis_fw/AsicFwS2/src/calibclasses.cpp ****                      Vec3f{0.8036517779860654,0.5950986168243709,-0.0012066455803420567},
 503:/home/tienluong/workspace/atlantis_fw/AsicFwS2/src/calibclasses.cpp ****                      10.94692611694336, 
 504:/home/tienluong/workspace/atlantis_fw/AsicFwS2/src/calibclasses.cpp ****                      false, 
 505:/home/tienluong/workspace/atlantis_fw/AsicFwS2/src/calibclasses.cpp ****                      Vec2f{36.50045993643318,47.21181177090214}
 506:/home/tienluong/workspace/atlantis_fw/AsicFwS2/src/calibclasses.cpp ****                  }, // mirror sys param
 507:/home/tienluong/workspace/atlantis_fw/AsicFwS2/src/calibclasses.cpp ****                 MirrorActuatorMapping({464.5,   329.9803024424337,   41.8921133561107, 4.6107298656
 508:/home/tienluong/workspace/atlantis_fw/AsicFwS2/src/calibclasses.cpp ****                                                 0.007934248427417168,1.0001320962250342,-0.00595068
 509:/home/tienluong/workspace/atlantis_fw/AsicFwS2/src/calibclasses.cpp ****                 ) );
 510:/home/tienluong/workspace/atlantis_fw/AsicFwS2/src/calibclasses.cpp **** }
 511:/home/tienluong/workspace/atlantis_fw/AsicFwS2/src/calibclasses.cpp **** 
 512:/home/tienluong/workspace/atlantis_fw/AsicFwS2/src/calibclasses.cpp **** #elif defined(USE_P2_17)
 513:/home/tienluong/workspace/atlantis_fw/AsicFwS2/src/calibclasses.cpp **** 
 514:/home/tienluong/workspace/atlantis_fw/AsicFwS2/src/calibclasses.cpp **** void CalibDataManager::hardCodeCalib() {
 3051              		.loc 4 514 0
 3052              		.cfi_startproc
 3053              		@ args = 0, pretend = 0, frame = 176
 3054              		@ frame_needed = 0, uses_anonymous_args = 0
 3055              	.LVL357:
 3056 0000 2DE9F04F 		push	{r4, r5, r6, r7, r8, r9, r10, fp, lr}
 3057              	.LCFI36:
 3058              		.cfi_def_cfa_offset 36
 3059              		.cfi_offset 4, -36
 3060              		.cfi_offset 5, -32
 3061              		.cfi_offset 6, -28
 3062              		.cfi_offset 7, -24
 3063              		.cfi_offset 8, -20
 3064              		.cfi_offset 9, -16
 3065              		.cfi_offset 10, -12
 3066              		.cfi_offset 11, -8
 3067              		.cfi_offset 14, -4
 3068 0004 8046     		mov	r8, r0
 3069 0006 ADB0     		sub	sp, sp, #180
 3070              	.LCFI37:
 3071              		.cfi_def_cfa_offset 216
 3072              		.loc 4 514 0
 3073 0008 0024     		movs	r4, #0
 3074              	.LVL358:
 3075              	.L142:
 3076              	.LBB1507:
 3077              	.LBB1508:
 515:/home/tienluong/workspace/atlantis_fw/AsicFwS2/src/calibclasses.cpp ****     // set everything to null first
 516:/home/tienluong/workspace/atlantis_fw/AsicFwS2/src/calibclasses.cpp ****     for (int i = 0; i<kNumModules; ++i){
 517:/home/tienluong/workspace/atlantis_fw/AsicFwS2/src/calibclasses.cpp ****         _cam_params[i].reset();
 3078              		.loc 4 517 0 discriminator 3
 3079 000a 08EB0400 		add	r0, r8, r4
 3080 000e 0021     		movs	r1, #0
 3081 0010 934F     		ldr	r7, .L144
 3082 0012 0434     		adds	r4, r4, #4
 3083 0014 B847     		blx	r7
 3084              	.LVL359:
 516:/home/tienluong/workspace/atlantis_fw/AsicFwS2/src/calibclasses.cpp ****         _cam_params[i].reset();
 3085              		.loc 4 516 0 discriminator 3
 3086 0016 402C     		cmp	r4, #64
 3087 0018 F7D1     		bne	.L142
 3088              	.LVL360:
 3089              	.LBE1508:
 3090              	.LBB1509:
 3091              	.LBB1510:
 596:/home/tienluong/workspace/atlantis_fw/AsicFwS2/include/matrix.h **** 
 3092              		.loc 2 596 0
 3093 001a 924E     		ldr	r6, .L144+4
 3094 001c 0AA8     		add	r0, sp, #40
 3095              	.LVL361:
 3096 001e 9249     		ldr	r1, .L144+8
 3097 0020 B047     		blx	r6
 3098              	.LVL362:
 3099              	.LBE1510:
 3100              	.LBE1509:
 3101              	.LBB1511:
 3102              	.LBB1512:
 3103 0022 13A8     		add	r0, sp, #76
 3104              	.LVL363:
 3105 0024 9149     		ldr	r1, .L144+12
 3106 0026 B047     		blx	r6
 3107              	.LVL364:
 3108              	.LBE1512:
 3109              	.LBE1511:
 3110              	.LBB1513:
 3111              	.LBB1514:
 229:/home/tienluong/workspace/atlantis_fw/AsicFwS2/include/matrix.h ****     Vec3( const Vec3 & t ) : _x( t._x ), _y( t._y ), _z( t._z ) {}
 3112              		.loc 2 229 0
 3113 0028 0023     		movs	r3, #0
 3114              	.LBE1514:
 3115              	.LBE1513:
 518:/home/tienluong/workspace/atlantis_fw/AsicFwS2/src/calibclasses.cpp ****     }
 519:/home/tienluong/workspace/atlantis_fw/AsicFwS2/src/calibclasses.cpp ****     _cam_params[ModuleName::A1].reset( new(Heap::DDR) CalibData(Matrix3x3f({3283.0178806848958,0,20
 520:/home/tienluong/workspace/atlantis_fw/AsicFwS2/src/calibclasses.cpp ****                                             Matrix3x3f({1,-5.758690746490504e-21,-3.178811586789630
 521:/home/tienluong/workspace/atlantis_fw/AsicFwS2/src/calibclasses.cpp ****                                             Vec3f({0,0,0})) );
 3116              		.loc 4 521 0
 3117 002a DFF84C93 		ldr	r9, .L144+280
 3118 002e 0121     		movs	r1, #1
 3119 0030 5820     		movs	r0, #88
 3120              	.LBB1516:
 3121              	.LBB1515:
 229:/home/tienluong/workspace/atlantis_fw/AsicFwS2/include/matrix.h ****     Vec3( const Vec3 & t ) : _x( t._x ), _y( t._y ), _z( t._z ) {}
 3122              		.loc 2 229 0
 3123 0032 0293     		str	r3, [sp, #8]	@ float
 3124 0034 0393     		str	r3, [sp, #12]	@ float
 3125 0036 0493     		str	r3, [sp, #16]	@ float
 3126              	.LBE1515:
 3127              	.LBE1516:
 3128              		.loc 4 521 0
 3129 0038 C847     		blx	r9
 3130              	.LVL365:
 3131 003a 8D4C     		ldr	r4, .L144+16
 3132 003c 13AA     		add	r2, sp, #76
 3133              	.LVL366:
 3134 003e 02AB     		add	r3, sp, #8
 3135              	.LVL367:
 3136 0040 0AA9     		add	r1, sp, #40
 3137              	.LVL368:
 522:/home/tienluong/workspace/atlantis_fw/AsicFwS2/src/calibclasses.cpp **** 
 523:/home/tienluong/workspace/atlantis_fw/AsicFwS2/src/calibclasses.cpp ****     _cam_params[ModuleName::A2].reset( new(Heap::DDR) CalibData(Matrix3x3f({3288.40439677336,0,2060
 524:/home/tienluong/workspace/atlantis_fw/AsicFwS2/src/calibclasses.cpp ****                                             Matrix3x3f({0.999992536045131,-0.003115561090423153,-0.
 525:/home/tienluong/workspace/atlantis_fw/AsicFwS2/src/calibclasses.cpp ****                                             Vec3f({27.544676082731497,24.054302671695046,4.29305368
 526:/home/tienluong/workspace/atlantis_fw/AsicFwS2/src/calibclasses.cpp **** 
 527:/home/tienluong/workspace/atlantis_fw/AsicFwS2/src/calibclasses.cpp ****     _cam_params[ModuleName::A3].reset( new(Heap::DDR) CalibData(Matrix3x3f({3283.9925702283035,0,20
 528:/home/tienluong/workspace/atlantis_fw/AsicFwS2/src/calibclasses.cpp ****                                             Matrix3x3f({0.9999877558591814,0.004948227040131077,0.0
 529:/home/tienluong/workspace/atlantis_fw/AsicFwS2/src/calibclasses.cpp ****                                             Vec3f({-8.419114067217319,22.64080263740905,1.859985954
 530:/home/tienluong/workspace/atlantis_fw/AsicFwS2/src/calibclasses.cpp ****     _cam_params[ModuleName::A4].reset( new(Heap::DDR) CalibData(Matrix3x3f({3272.9707507103954,0,20
 531:/home/tienluong/workspace/atlantis_fw/AsicFwS2/src/calibclasses.cpp ****                                             Matrix3x3f({0.9999854308705849,-0.0012390067725664579,-
 532:/home/tienluong/workspace/atlantis_fw/AsicFwS2/src/calibclasses.cpp ****                                             Vec3f({-24.784214131925994,-22.880831625046313,-3.52455
 533:/home/tienluong/workspace/atlantis_fw/AsicFwS2/src/calibclasses.cpp ****     _cam_params[ModuleName::A5].reset( new(Heap::DDR) CalibData(Matrix3x3f({3303.334581027952,0,205
 534:/home/tienluong/workspace/atlantis_fw/AsicFwS2/src/calibclasses.cpp ****                                             Matrix3x3f({0.9999940192706713,-0.002709484380127736,0.
 535:/home/tienluong/workspace/atlantis_fw/AsicFwS2/src/calibclasses.cpp ****                                             Vec3f({41.85717528861697,0.2158910298621528,2.183266791
 536:/home/tienluong/workspace/atlantis_fw/AsicFwS2/src/calibclasses.cpp ****     _cam_params[ModuleName::B4].reset( new(Heap::DDR) CalibData(Matrix3x3f({8229.99722654244,0,2097
 537:/home/tienluong/workspace/atlantis_fw/AsicFwS2/src/calibclasses.cpp ****                                             Matrix3x3f({0.9992941887172542,-0.018254458054663124,-0
 538:/home/tienluong/workspace/atlantis_fw/AsicFwS2/src/calibclasses.cpp ****                                             Vec3f({5.352479176132089,-13.739072564681024,30.3228800
 539:/home/tienluong/workspace/atlantis_fw/AsicFwS2/src/calibclasses.cpp **** 
 540:/home/tienluong/workspace/atlantis_fw/AsicFwS2/src/calibclasses.cpp **** 
 541:/home/tienluong/workspace/atlantis_fw/AsicFwS2/src/calibclasses.cpp **** 
 542:/home/tienluong/workspace/atlantis_fw/AsicFwS2/src/calibclasses.cpp **** //B1
 543:/home/tienluong/workspace/atlantis_fw/AsicFwS2/src/calibclasses.cpp ****     _cam_params[ModuleName::B1].reset( new(Heap::DDR) CalibDataWMirror( 
 544:/home/tienluong/workspace/atlantis_fw/AsicFwS2/src/calibclasses.cpp ****                 Matrix3x3f({8233.328052633833,0,2062.741580692975,0,8248.065503178703,1544.62379322
 545:/home/tienluong/workspace/atlantis_fw/AsicFwS2/src/calibclasses.cpp ****                 MirrorSysParam
 546:/home/tienluong/workspace/atlantis_fw/AsicFwS2/src/calibclasses.cpp ****                     { Matrix3x3f{-0.3688936756980066,0.4945288505113377,0.786993438372868,-0.470559
 547:/home/tienluong/workspace/atlantis_fw/AsicFwS2/src/calibclasses.cpp ****                     Vec3f{28.987623602443575,1.2869741681953482,-35.41913479007127},
 548:/home/tienluong/workspace/atlantis_fw/AsicFwS2/src/calibclasses.cpp ****                     Vec3f{31.357247031268316,-0.7630235707077014,-35.382114904849398},
 549:/home/tienluong/workspace/atlantis_fw/AsicFwS2/src/calibclasses.cpp ****                     Vec3f{0.653409298041993,0.7540864973647855,-0.0664066542176256},
 550:/home/tienluong/workspace/atlantis_fw/AsicFwS2/src/calibclasses.cpp ****                     Vec3f{0.8074732002435436,-0.5898978715137748,0.0027444620544127414},
 551:/home/tienluong/workspace/atlantis_fw/AsicFwS2/src/calibclasses.cpp ****                      -5.349743366241455,
 552:/home/tienluong/workspace/atlantis_fw/AsicFwS2/src/calibclasses.cpp ****                      false, 
 553:/home/tienluong/workspace/atlantis_fw/AsicFwS2/src/calibclasses.cpp ****                      Vec2f{38.77520896474247,46.875686776908789}
 554:/home/tienluong/workspace/atlantis_fw/AsicFwS2/src/calibclasses.cpp ****                  }, // mirror sys param
 555:/home/tienluong/workspace/atlantis_fw/AsicFwS2/src/calibclasses.cpp ****                 MirrorActuatorMapping({  361.5,           241.15900701957345,           42.84717525
 556:/home/tienluong/workspace/atlantis_fw/AsicFwS2/src/calibclasses.cpp ****                 ) );
 3138              		.loc 4 556 0
 3139 0042 DFF838A3 		ldr	r10, .L144+284
 521:/home/tienluong/workspace/atlantis_fw/AsicFwS2/src/calibclasses.cpp **** 
 3140              		.loc 4 521 0
 3141 0046 0546     		mov	r5, r0
 3142 0048 A047     		blx	r4
 3143              	.LVL369:
 3144 004a 4046     		mov	r0, r8
 3145 004c 2946     		mov	r1, r5
 3146 004e B847     		blx	r7
 3147              	.LVL370:
 3148              	.LBB1517:
 3149              	.LBB1518:
 596:/home/tienluong/workspace/atlantis_fw/AsicFwS2/include/matrix.h **** 
 3150              		.loc 2 596 0
 3151 0050 0AA8     		add	r0, sp, #40
 3152              	.LVL371:
 3153 0052 8849     		ldr	r1, .L144+20
 3154 0054 B047     		blx	r6
 3155              	.LVL372:
 3156              	.LBE1518:
 3157              	.LBE1517:
 3158              	.LBB1519:
 3159              	.LBB1520:
 3160 0056 13A8     		add	r0, sp, #76
 3161              	.LVL373:
 3162 0058 8749     		ldr	r1, .L144+24
 3163 005a B047     		blx	r6
 3164              	.LVL374:
 3165              	.LBE1520:
 3166              	.LBE1519:
 3167              	.LBB1521:
 3168              	.LBB1522:
 229:/home/tienluong/workspace/atlantis_fw/AsicFwS2/include/matrix.h ****     Vec3( const Vec3 & t ) : _x( t._x ), _y( t._y ), _z( t._z ) {}
 3169              		.loc 2 229 0
 3170 005c 874B     		ldr	r3, .L144+28
 3171 005e 0293     		str	r3, [sp, #8]	@ float
 3172              	.LBE1522:
 3173              	.LBE1521:
 525:/home/tienluong/workspace/atlantis_fw/AsicFwS2/src/calibclasses.cpp **** 
 3174              		.loc 4 525 0
 3175 0060 0121     		movs	r1, #1
 3176              	.LBB1525:
 3177              	.LBB1523:
 229:/home/tienluong/workspace/atlantis_fw/AsicFwS2/include/matrix.h ****     Vec3( const Vec3 & t ) : _x( t._x ), _y( t._y ), _z( t._z ) {}
 3178              		.loc 2 229 0
 3179 0062 874B     		ldr	r3, .L144+32
 3180              	.LBE1523:
 3181              	.LBE1525:
 525:/home/tienluong/workspace/atlantis_fw/AsicFwS2/src/calibclasses.cpp **** 
 3182              		.loc 4 525 0
 3183 0064 5820     		movs	r0, #88
 3184              	.LBB1526:
 3185              	.LBB1524:
 229:/home/tienluong/workspace/atlantis_fw/AsicFwS2/include/matrix.h ****     Vec3( const Vec3 & t ) : _x( t._x ), _y( t._y ), _z( t._z ) {}
 3186              		.loc 2 229 0
 3187 0066 0393     		str	r3, [sp, #12]	@ float
 3188 0068 864B     		ldr	r3, .L144+36
 3189 006a 0493     		str	r3, [sp, #16]	@ float
 3190              	.LBE1524:
 3191              	.LBE1526:
 525:/home/tienluong/workspace/atlantis_fw/AsicFwS2/src/calibclasses.cpp **** 
 3192              		.loc 4 525 0
 3193 006c C847     		blx	r9
 3194              	.LVL375:
 3195 006e 13AA     		add	r2, sp, #76
 3196              	.LVL376:
 3197 0070 02AB     		add	r3, sp, #8
 3198              	.LVL377:
 3199 0072 0AA9     		add	r1, sp, #40
 3200              	.LVL378:
 3201 0074 0546     		mov	r5, r0
 3202 0076 A047     		blx	r4
 3203              	.LVL379:
 3204 0078 08F10400 		add	r0, r8, #4
 3205 007c 2946     		mov	r1, r5
 3206 007e B847     		blx	r7
 3207              	.LVL380:
 3208              	.LBB1527:
 3209              	.LBB1528:
 596:/home/tienluong/workspace/atlantis_fw/AsicFwS2/include/matrix.h **** 
 3210              		.loc 2 596 0
 3211 0080 0AA8     		add	r0, sp, #40
 3212              	.LVL381:
 3213 0082 8149     		ldr	r1, .L144+40
 3214 0084 B047     		blx	r6
 3215              	.LVL382:
 3216              	.LBE1528:
 3217              	.LBE1527:
 3218              	.LBB1529:
 3219              	.LBB1530:
 3220 0086 13A8     		add	r0, sp, #76
 3221              	.LVL383:
 3222 0088 8049     		ldr	r1, .L144+44
 3223 008a B047     		blx	r6
 3224              	.LVL384:
 3225              	.LBE1530:
 3226              	.LBE1529:
 3227              	.LBB1531:
 3228              	.LBB1532:
 229:/home/tienluong/workspace/atlantis_fw/AsicFwS2/include/matrix.h ****     Vec3( const Vec3 & t ) : _x( t._x ), _y( t._y ), _z( t._z ) {}
 3229              		.loc 2 229 0
 3230 008c 804B     		ldr	r3, .L144+48
 3231 008e 0293     		str	r3, [sp, #8]	@ float
 3232              	.LBE1532:
 3233              	.LBE1531:
 529:/home/tienluong/workspace/atlantis_fw/AsicFwS2/src/calibclasses.cpp ****     _cam_params[ModuleName::A4].reset( new(Heap::DDR) CalibData(Matrix3x3f({3272.9707507103954,0,20
 3234              		.loc 4 529 0
 3235 0090 0121     		movs	r1, #1
 3236              	.LBB1535:
 3237              	.LBB1533:
 229:/home/tienluong/workspace/atlantis_fw/AsicFwS2/include/matrix.h ****     Vec3( const Vec3 & t ) : _x( t._x ), _y( t._y ), _z( t._z ) {}
 3238              		.loc 2 229 0
 3239 0092 804B     		ldr	r3, .L144+52
 3240              	.LBE1533:
 3241              	.LBE1535:
 529:/home/tienluong/workspace/atlantis_fw/AsicFwS2/src/calibclasses.cpp ****     _cam_params[ModuleName::A4].reset( new(Heap::DDR) CalibData(Matrix3x3f({3272.9707507103954,0,20
 3242              		.loc 4 529 0
 3243 0094 5820     		movs	r0, #88
 3244              	.LBB1536:
 3245              	.LBB1534:
 229:/home/tienluong/workspace/atlantis_fw/AsicFwS2/include/matrix.h ****     Vec3( const Vec3 & t ) : _x( t._x ), _y( t._y ), _z( t._z ) {}
 3246              		.loc 2 229 0
 3247 0096 0393     		str	r3, [sp, #12]	@ float
 3248 0098 7F4B     		ldr	r3, .L144+56
 3249 009a 0493     		str	r3, [sp, #16]	@ float
 3250              	.LBE1534:
 3251              	.LBE1536:
 529:/home/tienluong/workspace/atlantis_fw/AsicFwS2/src/calibclasses.cpp ****     _cam_params[ModuleName::A4].reset( new(Heap::DDR) CalibData(Matrix3x3f({3272.9707507103954,0,20
 3252              		.loc 4 529 0
 3253 009c C847     		blx	r9
 3254              	.LVL385:
 3255 009e 13AA     		add	r2, sp, #76
 3256              	.LVL386:
 3257 00a0 02AB     		add	r3, sp, #8
 3258              	.LVL387:
 3259 00a2 0AA9     		add	r1, sp, #40
 3260              	.LVL388:
 3261 00a4 0546     		mov	r5, r0
 3262 00a6 A047     		blx	r4
 3263              	.LVL389:
 3264 00a8 08F10800 		add	r0, r8, #8
 3265 00ac 2946     		mov	r1, r5
 3266 00ae B847     		blx	r7
 3267              	.LVL390:
 3268              	.LBB1537:
 3269              	.LBB1538:
 596:/home/tienluong/workspace/atlantis_fw/AsicFwS2/include/matrix.h **** 
 3270              		.loc 2 596 0
 3271 00b0 0AA8     		add	r0, sp, #40
 3272              	.LVL391:
 3273 00b2 7A49     		ldr	r1, .L144+60
 3274 00b4 B047     		blx	r6
 3275              	.LVL392:
 3276              	.LBE1538:
 3277              	.LBE1537:
 3278              	.LBB1539:
 3279              	.LBB1540:
 3280 00b6 13A8     		add	r0, sp, #76
 3281              	.LVL393:
 3282 00b8 7949     		ldr	r1, .L144+64
 3283 00ba B047     		blx	r6
 3284              	.LVL394:
 3285              	.LBE1540:
 3286              	.LBE1539:
 3287              	.LBB1541:
 3288              	.LBB1542:
 229:/home/tienluong/workspace/atlantis_fw/AsicFwS2/include/matrix.h ****     Vec3( const Vec3 & t ) : _x( t._x ), _y( t._y ), _z( t._z ) {}
 3289              		.loc 2 229 0
 3290 00bc 794B     		ldr	r3, .L144+68
 3291 00be 0293     		str	r3, [sp, #8]	@ float
 3292              	.LBE1542:
 3293              	.LBE1541:
 532:/home/tienluong/workspace/atlantis_fw/AsicFwS2/src/calibclasses.cpp ****     _cam_params[ModuleName::A5].reset( new(Heap::DDR) CalibData(Matrix3x3f({3303.334581027952,0,205
 3294              		.loc 4 532 0
 3295 00c0 0121     		movs	r1, #1
 3296              	.LBB1545:
 3297              	.LBB1543:
 229:/home/tienluong/workspace/atlantis_fw/AsicFwS2/include/matrix.h ****     Vec3( const Vec3 & t ) : _x( t._x ), _y( t._y ), _z( t._z ) {}
 3298              		.loc 2 229 0
 3299 00c2 794B     		ldr	r3, .L144+72
 3300              	.LBE1543:
 3301              	.LBE1545:
 532:/home/tienluong/workspace/atlantis_fw/AsicFwS2/src/calibclasses.cpp ****     _cam_params[ModuleName::A5].reset( new(Heap::DDR) CalibData(Matrix3x3f({3303.334581027952,0,205
 3302              		.loc 4 532 0
 3303 00c4 5820     		movs	r0, #88
 3304              	.LBB1546:
 3305              	.LBB1544:
 229:/home/tienluong/workspace/atlantis_fw/AsicFwS2/include/matrix.h ****     Vec3( const Vec3 & t ) : _x( t._x ), _y( t._y ), _z( t._z ) {}
 3306              		.loc 2 229 0
 3307 00c6 0393     		str	r3, [sp, #12]	@ float
 3308 00c8 784B     		ldr	r3, .L144+76
 3309 00ca 0493     		str	r3, [sp, #16]	@ float
 3310              	.LBE1544:
 3311              	.LBE1546:
 532:/home/tienluong/workspace/atlantis_fw/AsicFwS2/src/calibclasses.cpp ****     _cam_params[ModuleName::A5].reset( new(Heap::DDR) CalibData(Matrix3x3f({3303.334581027952,0,205
 3312              		.loc 4 532 0
 3313 00cc C847     		blx	r9
 3314              	.LVL395:
 3315 00ce 13AA     		add	r2, sp, #76
 3316              	.LVL396:
 3317 00d0 02AB     		add	r3, sp, #8
 3318              	.LVL397:
 3319 00d2 0AA9     		add	r1, sp, #40
 3320              	.LVL398:
 3321 00d4 0546     		mov	r5, r0
 3322 00d6 A047     		blx	r4
 3323              	.LVL399:
 3324 00d8 08F10C00 		add	r0, r8, #12
 3325 00dc 2946     		mov	r1, r5
 3326 00de B847     		blx	r7
 3327              	.LVL400:
 3328              	.LBB1547:
 3329              	.LBB1548:
 596:/home/tienluong/workspace/atlantis_fw/AsicFwS2/include/matrix.h **** 
 3330              		.loc 2 596 0
 3331 00e0 0AA8     		add	r0, sp, #40
 3332              	.LVL401:
 3333 00e2 7349     		ldr	r1, .L144+80
 3334 00e4 B047     		blx	r6
 3335              	.LVL402:
 3336              	.LBE1548:
 3337              	.LBE1547:
 3338              	.LBB1549:
 3339              	.LBB1550:
 3340 00e6 13A8     		add	r0, sp, #76
 3341              	.LVL403:
 3342 00e8 7249     		ldr	r1, .L144+84
 3343 00ea B047     		blx	r6
 3344              	.LVL404:
 3345              	.LBE1550:
 3346              	.LBE1549:
 3347              	.LBB1551:
 3348              	.LBB1552:
 229:/home/tienluong/workspace/atlantis_fw/AsicFwS2/include/matrix.h ****     Vec3( const Vec3 & t ) : _x( t._x ), _y( t._y ), _z( t._z ) {}
 3349              		.loc 2 229 0
 3350 00ec 724B     		ldr	r3, .L144+88
 3351 00ee 0293     		str	r3, [sp, #8]	@ float
 3352              	.LBE1552:
 3353              	.LBE1551:
 535:/home/tienluong/workspace/atlantis_fw/AsicFwS2/src/calibclasses.cpp ****     _cam_params[ModuleName::B4].reset( new(Heap::DDR) CalibData(Matrix3x3f({8229.99722654244,0,2097
 3354              		.loc 4 535 0
 3355 00f0 0121     		movs	r1, #1
 3356              	.LBB1555:
 3357              	.LBB1553:
 229:/home/tienluong/workspace/atlantis_fw/AsicFwS2/include/matrix.h ****     Vec3( const Vec3 & t ) : _x( t._x ), _y( t._y ), _z( t._z ) {}
 3358              		.loc 2 229 0
 3359 00f2 724B     		ldr	r3, .L144+92
 3360              	.LBE1553:
 3361              	.LBE1555:
 535:/home/tienluong/workspace/atlantis_fw/AsicFwS2/src/calibclasses.cpp ****     _cam_params[ModuleName::B4].reset( new(Heap::DDR) CalibData(Matrix3x3f({8229.99722654244,0,2097
 3362              		.loc 4 535 0
 3363 00f4 5820     		movs	r0, #88
 3364              	.LBB1556:
 3365              	.LBB1554:
 229:/home/tienluong/workspace/atlantis_fw/AsicFwS2/include/matrix.h ****     Vec3( const Vec3 & t ) : _x( t._x ), _y( t._y ), _z( t._z ) {}
 3366              		.loc 2 229 0
 3367 00f6 0393     		str	r3, [sp, #12]	@ float
 3368 00f8 714B     		ldr	r3, .L144+96
 3369 00fa 0493     		str	r3, [sp, #16]	@ float
 3370              	.LBE1554:
 3371              	.LBE1556:
 535:/home/tienluong/workspace/atlantis_fw/AsicFwS2/src/calibclasses.cpp ****     _cam_params[ModuleName::B4].reset( new(Heap::DDR) CalibData(Matrix3x3f({8229.99722654244,0,2097
 3372              		.loc 4 535 0
 3373 00fc C847     		blx	r9
 3374              	.LVL405:
 3375 00fe 13AA     		add	r2, sp, #76
 3376              	.LVL406:
 3377 0100 02AB     		add	r3, sp, #8
 3378              	.LVL407:
 3379 0102 0AA9     		add	r1, sp, #40
 3380              	.LVL408:
 3381 0104 0546     		mov	r5, r0
 3382 0106 A047     		blx	r4
 3383              	.LVL409:
 3384 0108 08F11000 		add	r0, r8, #16
 3385 010c 2946     		mov	r1, r5
 3386 010e B847     		blx	r7
 3387              	.LVL410:
 3388              	.LBB1557:
 3389              	.LBB1558:
 596:/home/tienluong/workspace/atlantis_fw/AsicFwS2/include/matrix.h **** 
 3390              		.loc 2 596 0
 3391 0110 0AA8     		add	r0, sp, #40
 3392              	.LVL411:
 3393 0112 6C49     		ldr	r1, .L144+100
 3394 0114 B047     		blx	r6
 3395              	.LVL412:
 3396              	.LBE1558:
 3397              	.LBE1557:
 3398              	.LBB1559:
 3399              	.LBB1560:
 3400 0116 13A8     		add	r0, sp, #76
 3401              	.LVL413:
 3402 0118 6B49     		ldr	r1, .L144+104
 3403 011a B047     		blx	r6
 3404              	.LVL414:
 3405              	.LBE1560:
 3406              	.LBE1559:
 3407              	.LBB1561:
 3408              	.LBB1562:
 229:/home/tienluong/workspace/atlantis_fw/AsicFwS2/include/matrix.h ****     Vec3( const Vec3 & t ) : _x( t._x ), _y( t._y ), _z( t._z ) {}
 3409              		.loc 2 229 0
 3410 011c 6B4B     		ldr	r3, .L144+108
 3411 011e 0293     		str	r3, [sp, #8]	@ float
 3412              	.LBE1562:
 3413              	.LBE1561:
 538:/home/tienluong/workspace/atlantis_fw/AsicFwS2/src/calibclasses.cpp **** 
 3414              		.loc 4 538 0
 3415 0120 0121     		movs	r1, #1
 3416              	.LBB1565:
 3417              	.LBB1563:
 229:/home/tienluong/workspace/atlantis_fw/AsicFwS2/include/matrix.h ****     Vec3( const Vec3 & t ) : _x( t._x ), _y( t._y ), _z( t._z ) {}
 3418              		.loc 2 229 0
 3419 0122 6B4B     		ldr	r3, .L144+112
 3420              	.LBE1563:
 3421              	.LBE1565:
 538:/home/tienluong/workspace/atlantis_fw/AsicFwS2/src/calibclasses.cpp **** 
 3422              		.loc 4 538 0
 3423 0124 5820     		movs	r0, #88
 3424              	.LBB1566:
 3425              	.LBB1564:
 229:/home/tienluong/workspace/atlantis_fw/AsicFwS2/include/matrix.h ****     Vec3( const Vec3 & t ) : _x( t._x ), _y( t._y ), _z( t._z ) {}
 3426              		.loc 2 229 0
 3427 0126 0393     		str	r3, [sp, #12]	@ float
 3428 0128 6A4B     		ldr	r3, .L144+116
 3429 012a 0493     		str	r3, [sp, #16]	@ float
 3430              	.LBE1564:
 3431              	.LBE1566:
 538:/home/tienluong/workspace/atlantis_fw/AsicFwS2/src/calibclasses.cpp **** 
 3432              		.loc 4 538 0
 3433 012c C847     		blx	r9
 3434              	.LVL415:
 3435 012e 13AA     		add	r2, sp, #76
 3436              	.LVL416:
 3437 0130 02AB     		add	r3, sp, #8
 3438              	.LVL417:
 3439 0132 0AA9     		add	r1, sp, #40
 3440              	.LVL418:
 3441 0134 0546     		mov	r5, r0
 3442 0136 A047     		blx	r4
 3443              	.LVL419:
 3444 0138 08F12000 		add	r0, r8, #32
 3445 013c 2946     		mov	r1, r5
 3446              		.loc 4 556 0
 3447 013e 02AD     		add	r5, sp, #8
 3448              	.LVL420:
 538:/home/tienluong/workspace/atlantis_fw/AsicFwS2/src/calibclasses.cpp **** 
 3449              		.loc 4 538 0
 3450 0140 B847     		blx	r7
 3451              	.LVL421:
 3452              	.LBB1567:
 3453              	.LBB1568:
 596:/home/tienluong/workspace/atlantis_fw/AsicFwS2/include/matrix.h **** 
 3454              		.loc 2 596 0
 3455 0142 0AA8     		add	r0, sp, #40
 3456              	.LVL422:
 3457 0144 6449     		ldr	r1, .L144+120
 3458 0146 B047     		blx	r6
 3459              	.LVL423:
 3460              	.LBE1568:
 3461              	.LBE1567:
 3462              	.LBB1569:
 3463              	.LBB1570:
 3464 0148 13A8     		add	r0, sp, #76
 3465              	.LVL424:
 3466 014a 6449     		ldr	r1, .L144+124
 3467 014c B047     		blx	r6
 3468              	.LVL425:
 3469              	.LBE1570:
 3470              	.LBE1569:
 3471              	.LBB1571:
 3472              	.LBB1572:
 229:/home/tienluong/workspace/atlantis_fw/AsicFwS2/include/matrix.h ****     Vec3( const Vec3 & t ) : _x( t._x ), _y( t._y ), _z( t._z ) {}
 3473              		.loc 2 229 0
 3474 014e 644B     		ldr	r3, .L144+128
 3475 0150 1C93     		str	r3, [sp, #112]	@ float
 3476 0152 644B     		ldr	r3, .L144+132
 3477 0154 1D93     		str	r3, [sp, #116]	@ float
 3478 0156 644B     		ldr	r3, .L144+136
 3479 0158 1E93     		str	r3, [sp, #120]	@ float
 3480              	.LVL426:
 3481              	.LBE1572:
 3482              	.LBE1571:
 3483              	.LBB1573:
 3484              	.LBB1574:
 3485 015a 644B     		ldr	r3, .L144+140
 3486 015c 1F93     		str	r3, [sp, #124]	@ float
 3487 015e 644B     		ldr	r3, .L144+144
 3488 0160 2093     		str	r3, [sp, #128]	@ float
 3489 0162 644B     		ldr	r3, .L144+148
 3490 0164 2193     		str	r3, [sp, #132]	@ float
 3491              	.LVL427:
 3492              	.LBE1574:
 3493              	.LBE1573:
 3494              	.LBB1575:
 3495              	.LBB1576:
 3496 0166 644B     		ldr	r3, .L144+152
 3497 0168 2293     		str	r3, [sp, #136]	@ float
 3498 016a 644B     		ldr	r3, .L144+156
 3499 016c 2393     		str	r3, [sp, #140]	@ float
 3500 016e 644B     		ldr	r3, .L144+160
 3501 0170 2493     		str	r3, [sp, #144]	@ float
 3502              	.LVL428:
 3503              	.LBE1576:
 3504              	.LBE1575:
 3505              	.LBB1577:
 3506              	.LBB1578:
 3507 0172 644B     		ldr	r3, .L144+164
 3508 0174 2593     		str	r3, [sp, #148]	@ float
 3509 0176 644B     		ldr	r3, .L144+168
 3510 0178 2693     		str	r3, [sp, #152]	@ float
 3511 017a 644B     		ldr	r3, .L144+172
 3512 017c 2793     		str	r3, [sp, #156]	@ float
 3513              	.LBE1578:
 3514              	.LBE1577:
 3515              		.loc 4 556 0
 3516 017e 644B     		ldr	r3, .L144+176
 3517 0180 2893     		str	r3, [sp, #160]	@ float
 3518 0182 0023     		movs	r3, #0
 3519 0184 634C     		ldr	r4, .L144+180
 3520 0186 8DF8A430 		strb	r3, [sp, #164]
 3521              	.LVL429:
 3522              	.LBB1579:
 3523              	.LBB1580:
  25:/home/tienluong/workspace/atlantis_fw/AsicFwS2/include/matrix.h ****     Vec2( const Vec2 & t ) : _x( t._x ), _y( t._y ) {}
 3524              		.loc 2 25 0
 3525 018a 634B     		ldr	r3, .L144+184
 3526 018c 2A93     		str	r3, [sp, #168]	@ float
 3527 018e 634B     		ldr	r3, .L144+188
 3528 0190 2B93     		str	r3, [sp, #172]	@ float
 3529              	.LBE1580:
 3530              	.LBE1579:
 3531              		.loc 4 556 0
 3532 0192 0FCC     		ldmia	r4!, {r0, r1, r2, r3}
 3533 0194 0FC5     		stmia	r5!, {r0, r1, r2, r3}
 3534              	.LVL430:
 3535 0196 94E80F00 		ldmia	r4, {r0, r1, r2, r3}
 3536 019a 85E80F00 		stmia	r5, {r0, r1, r2, r3}
 3537 019e 0121     		movs	r1, #1
 3538 01a0 AC20     		movs	r0, #172
 3539 01a2 C847     		blx	r9
 3540              	.LVL431:
 3541 01a4 13AA     		add	r2, sp, #76
 3542              	.LVL432:
 3543 01a6 02AB     		add	r3, sp, #8
 3544              	.LVL433:
 3545 01a8 0AA9     		add	r1, sp, #40
 3546              	.LVL434:
 3547 01aa 8346     		mov	fp, r0
 3548 01ac D047     		blx	r10
 3549              	.LVL435:
 3550 01ae 08F11400 		add	r0, r8, #20
 3551 01b2 5946     		mov	r1, fp
 557:/home/tienluong/workspace/atlantis_fw/AsicFwS2/src/calibclasses.cpp **** 
 558:/home/tienluong/workspace/atlantis_fw/AsicFwS2/src/calibclasses.cpp **** //B2
 559:/home/tienluong/workspace/atlantis_fw/AsicFwS2/src/calibclasses.cpp ****     _cam_params[ModuleName::B2].reset( new(Heap::DDR) CalibDataWMirror( 
 560:/home/tienluong/workspace/atlantis_fw/AsicFwS2/src/calibclasses.cpp ****                 Matrix3x3f({8255.864827236077,0,2087.7933649082383,0,8275.915353839093,1634.7781053
 561:/home/tienluong/workspace/atlantis_fw/AsicFwS2/src/calibclasses.cpp ****                 MirrorSysParam
 562:/home/tienluong/workspace/atlantis_fw/AsicFwS2/src/calibclasses.cpp ****                     { Matrix3x3f{0.3519829681230551,0.470711642611313,-0.8090355614319087,-0.484495
 563:/home/tienluong/workspace/atlantis_fw/AsicFwS2/src/calibclasses.cpp ****                     Vec3f{-20.414422130822229,-29.675654742051479,-44.8759373695172},
 564:/home/tienluong/workspace/atlantis_fw/AsicFwS2/src/calibclasses.cpp ****                     Vec3f{-26.395636362517366,-34.039450167059069,-43.409020961403957},
 565:/home/tienluong/workspace/atlantis_fw/AsicFwS2/src/calibclasses.cpp ****                     Vec3f{0.5859198142165962,-0.8101004895671928,-0.020860683387272526},
 566:/home/tienluong/workspace/atlantis_fw/AsicFwS2/src/calibclasses.cpp ****                     Vec3f{-0.8026178139285465,-0.5964936083058808,-0.00014147364300031237},
 567:/home/tienluong/workspace/atlantis_fw/AsicFwS2/src/calibclasses.cpp ****                      -11.046143531799317, 
 568:/home/tienluong/workspace/atlantis_fw/AsicFwS2/src/calibclasses.cpp ****                      true, 
 569:/home/tienluong/workspace/atlantis_fw/AsicFwS2/src/calibclasses.cpp ****                      Vec2f{41.913424441962167,46.21338640816947}
 570:/home/tienluong/workspace/atlantis_fw/AsicFwS2/src/calibclasses.cpp ****                  }, // mirror sys param
 571:/home/tienluong/workspace/atlantis_fw/AsicFwS2/src/calibclasses.cpp ****                 MirrorActuatorMapping({247,
 572:/home/tienluong/workspace/atlantis_fw/AsicFwS2/src/calibclasses.cpp ****                                         142.0164309742597,
 573:/home/tienluong/workspace/atlantis_fw/AsicFwS2/src/calibclasses.cpp ****                                         44.08546011731278,
 574:/home/tienluong/workspace/atlantis_fw/AsicFwS2/src/calibclasses.cpp ****                                          1.843485861369375,
 575:/home/tienluong/workspace/atlantis_fw/AsicFwS2/src/calibclasses.cpp ****                                         0.013910244270054343,1.0003551653357648,-0.0104326832025447
 576:/home/tienluong/workspace/atlantis_fw/AsicFwS2/src/calibclasses.cpp ****                 ) );
 3552              		.loc 4 576 0
 3553 01b4 4FF0010B 		mov	fp, #1
 556:/home/tienluong/workspace/atlantis_fw/AsicFwS2/src/calibclasses.cpp **** 
 3554              		.loc 4 556 0
 3555 01b8 B847     		blx	r7
 3556              	.LVL436:
 3557              	.LBB1581:
 3558              	.LBB1582:
 596:/home/tienluong/workspace/atlantis_fw/AsicFwS2/include/matrix.h **** 
 3559              		.loc 2 596 0
 3560 01ba 0AA8     		add	r0, sp, #40
 3561              	.LVL437:
 3562 01bc 5849     		ldr	r1, .L144+192
 3563 01be B047     		blx	r6
 3564              	.LVL438:
 3565              	.LBE1582:
 3566              	.LBE1581:
 3567              	.LBB1583:
 3568              	.LBB1584:
 3569 01c0 13A8     		add	r0, sp, #76
 3570              	.LVL439:
 3571 01c2 5849     		ldr	r1, .L144+196
 3572 01c4 B047     		blx	r6
 3573              	.LVL440:
 3574              	.LBE1584:
 3575              	.LBE1583:
 3576              	.LBB1585:
 3577              	.LBB1586:
 229:/home/tienluong/workspace/atlantis_fw/AsicFwS2/include/matrix.h ****     Vec3( const Vec3 & t ) : _x( t._x ), _y( t._y ), _z( t._z ) {}
 3578              		.loc 2 229 0
 3579 01c6 584B     		ldr	r3, .L144+200
 3580 01c8 1C93     		str	r3, [sp, #112]	@ float
 3581              	.LBE1586:
 3582              	.LBE1585:
 3583              		.loc 4 576 0
 3584 01ca 04F1100E 		add	lr, r4, #16
 3585              	.LBB1589:
 3586              	.LBB1587:
 229:/home/tienluong/workspace/atlantis_fw/AsicFwS2/include/matrix.h ****     Vec3( const Vec3 & t ) : _x( t._x ), _y( t._y ), _z( t._z ) {}
 3587              		.loc 2 229 0
 3588 01ce 574B     		ldr	r3, .L144+204
 3589              	.LBE1587:
 3590              	.LBE1589:
 3591              		.loc 4 576 0
 3592 01d0 0DF1080C 		add	ip, sp, #8
 3593              	.LVL441:
 3594              	.LBB1590:
 3595              	.LBB1588:
 229:/home/tienluong/workspace/atlantis_fw/AsicFwS2/include/matrix.h ****     Vec3( const Vec3 & t ) : _x( t._x ), _y( t._y ), _z( t._z ) {}
 3596              		.loc 2 229 0
 3597 01d4 1D93     		str	r3, [sp, #116]	@ float
 3598 01d6 564B     		ldr	r3, .L144+208
 3599 01d8 1E93     		str	r3, [sp, #120]	@ float
 3600              	.LVL442:
 3601              	.LBE1588:
 3602              	.LBE1590:
 3603              	.LBB1591:
 3604              	.LBB1592:
 3605 01da 564B     		ldr	r3, .L144+212
 3606 01dc 1F93     		str	r3, [sp, #124]	@ float
 3607 01de 564B     		ldr	r3, .L144+216
 3608 01e0 2093     		str	r3, [sp, #128]	@ float
 3609 01e2 564B     		ldr	r3, .L144+220
 3610 01e4 2193     		str	r3, [sp, #132]	@ float
 3611              	.LVL443:
 3612              	.LBE1592:
 3613              	.LBE1591:
 3614              	.LBB1593:
 3615              	.LBB1594:
 3616 01e6 564B     		ldr	r3, .L144+224
 3617 01e8 2293     		str	r3, [sp, #136]	@ float
 3618 01ea 564B     		ldr	r3, .L144+228
 3619 01ec 2393     		str	r3, [sp, #140]	@ float
 3620 01ee 564B     		ldr	r3, .L144+232
 3621 01f0 2493     		str	r3, [sp, #144]	@ float
 3622              	.LVL444:
 3623              	.LBE1594:
 3624              	.LBE1593:
 3625              	.LBB1595:
 3626              	.LBB1596:
 3627 01f2 564B     		ldr	r3, .L144+236
 3628 01f4 2593     		str	r3, [sp, #148]	@ float
 3629 01f6 564B     		ldr	r3, .L144+240
 3630 01f8 2693     		str	r3, [sp, #152]	@ float
 3631 01fa 564B     		ldr	r3, .L144+244
 3632 01fc 2793     		str	r3, [sp, #156]	@ float
 3633              	.LBE1596:
 3634              	.LBE1595:
 3635              		.loc 4 576 0
 3636 01fe 564B     		ldr	r3, .L144+248
 3637 0200 2893     		str	r3, [sp, #160]	@ float
 3638              	.LBB1597:
 3639              	.LBB1598:
  25:/home/tienluong/workspace/atlantis_fw/AsicFwS2/include/matrix.h ****     Vec2( const Vec2 & t ) : _x( t._x ), _y( t._y ) {}
 3640              		.loc 2 25 0
 3641 0202 564B     		ldr	r3, .L144+252
 3642 0204 2A93     		str	r3, [sp, #168]	@ float
 3643 0206 564B     		ldr	r3, .L144+256
 3644 0208 2B93     		str	r3, [sp, #172]	@ float
 3645              	.LBE1598:
 3646              	.LBE1597:
 3647              		.loc 4 576 0
 3648 020a BEE80F00 		ldmia	lr!, {r0, r1, r2, r3}
 3649 020e ACE80F00 		stmia	ip!, {r0, r1, r2, r3}
 3650              	.LVL445:
 3651 0212 9EE80F00 		ldmia	lr, {r0, r1, r2, r3}
 3652 0216 85E80F00 		stmia	r5, {r0, r1, r2, r3}
 3653 021a 5946     		mov	r1, fp
 3654 021c AC20     		movs	r0, #172
 3655 021e 8DF8A4B0 		strb	fp, [sp, #164]
 3656              	.LVL446:
 3657 0222 C847     		blx	r9
 3658              	.LVL447:
 3659 0224 13AA     		add	r2, sp, #76
 3660              	.LVL448:
 3661 0226 02AB     		add	r3, sp, #8
 3662              	.LVL449:
 3663 0228 0AA9     		add	r1, sp, #40
 3664              	.LVL450:
 3665 022a 0190     		str	r0, [sp, #4]
 3666 022c D047     		blx	r10
 3667              	.LVL451:
 3668 022e DDF804C0 		ldr	ip, [sp, #4]
 3669 0232 08F11800 		add	r0, r8, #24
 3670 0236 6146     		mov	r1, ip
 3671 0238 B847     		blx	r7
 3672              	.LVL452:
 3673              	.LBB1599:
 3674              	.LBB1600:
 596:/home/tienluong/workspace/atlantis_fw/AsicFwS2/include/matrix.h **** 
 3675              		.loc 2 596 0
 3676 023a 0AA8     		add	r0, sp, #40
 3677              	.LVL453:
 3678 023c 4949     		ldr	r1, .L144+260
 3679 023e B047     		blx	r6
 3680              	.LVL454:
 3681              	.LBE1600:
 3682              	.LBE1599:
 3683              	.LBB1601:
 3684              	.LBB1602:
 3685 0240 13A8     		add	r0, sp, #76
 3686              	.LVL455:
 3687 0242 4949     		ldr	r1, .L144+264
 3688 0244 B047     		blx	r6
 3689              	.LVL456:
 3690              	.LBE1602:
 3691              	.LBE1601:
 3692              	.LBB1603:
 3693              	.LBB1604:
 229:/home/tienluong/workspace/atlantis_fw/AsicFwS2/include/matrix.h ****     Vec3( const Vec3 & t ) : _x( t._x ), _y( t._y ), _z( t._z ) {}
 3694              		.loc 2 229 0
 3695 0246 494B     		ldr	r3, .L144+268
 3696 0248 1C93     		str	r3, [sp, #112]	@ float
 3697              	.LBE1604:
 3698              	.LBE1603:
 577:/home/tienluong/workspace/atlantis_fw/AsicFwS2/src/calibclasses.cpp **** 
 578:/home/tienluong/workspace/atlantis_fw/AsicFwS2/src/calibclasses.cpp ****     //B3
 579:/home/tienluong/workspace/atlantis_fw/AsicFwS2/src/calibclasses.cpp ****     _cam_params[ModuleName::B3].reset( new(Heap::DDR) CalibDataWMirror( 
 580:/home/tienluong/workspace/atlantis_fw/AsicFwS2/src/calibclasses.cpp ****                 Matrix3x3f({8227.866292893945,0,2084.8329215911294,0,8263.551005728017,1603.3046462
 581:/home/tienluong/workspace/atlantis_fw/AsicFwS2/src/calibclasses.cpp ****                 MirrorSysParam
 582:/home/tienluong/workspace/atlantis_fw/AsicFwS2/src/calibclasses.cpp ****                     { Matrix3x3f{0.36335896286791016,-0.49586982263260728,-0.7887226274843795,0.466
 583:/home/tienluong/workspace/atlantis_fw/AsicFwS2/src/calibclasses.cpp ****                         Vec3f{-0.4510901323566069,40.968872924158507,-37.83220251280587},
 584:/home/tienluong/workspace/atlantis_fw/AsicFwS2/src/calibclasses.cpp ****                         Vec3f{-6.05891086158244,45.02289518248879,-42.54633066221509},
 585:/home/tienluong/workspace/atlantis_fw/AsicFwS2/src/calibclasses.cpp ****                         Vec3f{-0.5885503092606687,-0.8084458379917265,0.004884721386753081},
 586:/home/tienluong/workspace/atlantis_fw/AsicFwS2/src/calibclasses.cpp ****                         Vec3f{-0.7939891385281993,0.6079310186605894,-0.0010604006536922015},
 587:/home/tienluong/workspace/atlantis_fw/AsicFwS2/src/calibclasses.cpp ****                      -12.821348190307618, 
 588:/home/tienluong/workspace/atlantis_fw/AsicFwS2/src/calibclasses.cpp ****                      true, 
 589:/home/tienluong/workspace/atlantis_fw/AsicFwS2/src/calibclasses.cpp ****                      Vec2f{35.87328227854804,46.7039845304485}
 590:/home/tienluong/workspace/atlantis_fw/AsicFwS2/src/calibclasses.cpp ****                  }, // mirror sys param
 591:/home/tienluong/workspace/atlantis_fw/AsicFwS2/src/calibclasses.cpp ****                 MirrorActuatorMapping({511.75,
 592:/home/tienluong/workspace/atlantis_fw/AsicFwS2/src/calibclasses.cpp ****                                         287.76538476103527,
 593:/home/tienluong/workspace/atlantis_fw/AsicFwS2/src/calibclasses.cpp ****                                          41.27573733120064,
 594:/home/tienluong/workspace/atlantis_fw/AsicFwS2/src/calibclasses.cpp ****                                          4.664458190585415,
 595:/home/tienluong/workspace/atlantis_fw/AsicFwS2/src/calibclasses.cpp ****                                        -0.000270684163047764,1.0000014482089433,0.00020301312228465
 596:/home/tienluong/workspace/atlantis_fw/AsicFwS2/src/calibclasses.cpp ****                 ) );
 3699              		.loc 4 596 0
 3700 024a 04F1300E 		add	lr, r4, #48
 3701              	.LBB1608:
 3702              	.LBB1605:
 229:/home/tienluong/workspace/atlantis_fw/AsicFwS2/include/matrix.h ****     Vec3( const Vec3 & t ) : _x( t._x ), _y( t._y ), _z( t._z ) {}
 3703              		.loc 2 229 0
 3704 024e 484B     		ldr	r3, .L144+272
 3705              	.LBE1605:
 3706              	.LBE1608:
 3707              		.loc 4 596 0
 3708 0250 0DF1080C 		add	ip, sp, #8
 3709              	.LVL457:
 3710              	.LBB1609:
 3711              	.LBB1606:
 229:/home/tienluong/workspace/atlantis_fw/AsicFwS2/include/matrix.h ****     Vec3( const Vec3 & t ) : _x( t._x ), _y( t._y ), _z( t._z ) {}
 3712              		.loc 2 229 0
 3713 0254 1D93     		str	r3, [sp, #116]	@ float
 3714              	.LBE1606:
 3715              	.LBE1609:
 597:/home/tienluong/workspace/atlantis_fw/AsicFwS2/src/calibclasses.cpp **** 
 598:/home/tienluong/workspace/atlantis_fw/AsicFwS2/src/calibclasses.cpp ****     //B5
 599:/home/tienluong/workspace/atlantis_fw/AsicFwS2/src/calibclasses.cpp ****     _cam_params[ModuleName::B5].reset( new(Heap::DDR) CalibDataWMirror( 
 600:/home/tienluong/workspace/atlantis_fw/AsicFwS2/src/calibclasses.cpp ****                 Matrix3x3f({8217.001114110119,0,2054.2803749933714,0,8240.529974811792,1593.1266770
 601:/home/tienluong/workspace/atlantis_fw/AsicFwS2/src/calibclasses.cpp ****                 MirrorSysParam
 602:/home/tienluong/workspace/atlantis_fw/AsicFwS2/src/calibclasses.cpp ****                     { Matrix3x3f{-0.3620438861429338,-0.469809664483511,0.8051106157941362,0.491438
 603:/home/tienluong/workspace/atlantis_fw/AsicFwS2/src/calibclasses.cpp ****                     Vec3f{-37.39919579487915,27.383233657023433,-17.678970593780507},
 604:/home/tienluong/workspace/atlantis_fw/AsicFwS2/src/calibclasses.cpp ****                     Vec3f{-33.08957864344309,31.89067236278645,-15.517347468015109},
 605:/home/tienluong/workspace/atlantis_fw/AsicFwS2/src/calibclasses.cpp ****                     Vec3f{-0.7533559356303505,0.6302220078527002,0.1878165463121676},
 606:/home/tienluong/workspace/atlantis_fw/AsicFwS2/src/calibclasses.cpp ****                     Vec3f{0.8411200762912576,0.538886352460283,-0.04602734395813901},   
 607:/home/tienluong/workspace/atlantis_fw/AsicFwS2/src/calibclasses.cpp ****                      5.301071643829346,
 608:/home/tienluong/workspace/atlantis_fw/AsicFwS2/src/calibclasses.cpp ****                      false, 
 609:/home/tienluong/workspace/atlantis_fw/AsicFwS2/src/calibclasses.cpp ****                      Vec2f{34.54689139359751,45.0624898287135}
 610:/home/tienluong/workspace/atlantis_fw/AsicFwS2/src/calibclasses.cpp ****                  }, // mirror sys param
 611:/home/tienluong/workspace/atlantis_fw/AsicFwS2/src/calibclasses.cpp ****                 MirrorActuatorMapping({437.25,
 612:/home/tienluong/workspace/atlantis_fw/AsicFwS2/src/calibclasses.cpp ****                                         296.2716940017501,
 613:/home/tienluong/workspace/atlantis_fw/AsicFwS2/src/calibclasses.cpp ****                                         39.8335124041213,
 614:/home/tienluong/workspace/atlantis_fw/AsicFwS2/src/calibclasses.cpp ****                                         4.656318775903197,
 615:/home/tienluong/workspace/atlantis_fw/AsicFwS2/src/calibclasses.cpp ****                                         0.13760928411207508,0.9972452251306706,-0.10320696308405718
 616:/home/tienluong/workspace/atlantis_fw/AsicFwS2/src/calibclasses.cpp ****                 ) );
 3716              		.loc 4 616 0
 3717 0256 5034     		adds	r4, r4, #80
 3718              	.LBB1610:
 3719              	.LBB1607:
 229:/home/tienluong/workspace/atlantis_fw/AsicFwS2/include/matrix.h ****     Vec3( const Vec3 & t ) : _x( t._x ), _y( t._y ), _z( t._z ) {}
 3720              		.loc 2 229 0
 3721 0258 464B     		ldr	r3, .L144+276
 3722 025a 1E93     		str	r3, [sp, #120]	@ float
 3723 025c 90E0     		b	.L145
 3724              	.L146:
 3725 025e 00BF     		.align	2
 3726              	.L144:
 3727 0260 00000000 		.word	_ZNSt10unique_ptrIN4ltaf13CalibDataBaseESt14default_deleteIS1_EE5resetEPS1_
 3728 0264 00000000 		.word	_ZN4ltaf6MatrixIfLi3ELi3ELb1EEaSESt16initializer_listIfE.isra.6
 3729 0268 00000000 		.word	.LANCHOR1
 3730 026c 00000000 		.word	.LANCHOR2
 3731 0270 00000000 		.word	_ZN4ltaf9CalibDataC1ERKNS_6MatrixIfLi3ELi3ELb1EEES4_RKNS_4Vec3IfEE
 3732 0274 00000000 		.word	.LANCHOR3
 3733 0278 00000000 		.word	.LANCHOR4
 3734 027c 7F5BDC41 		.word	1104960383
 3735 0280 366FC041 		.word	1103130422
 3736 0284 B2608940 		.word	1082745010
 3737 0288 00000000 		.word	.LANCHOR5
 3738 028c 00000000 		.word	.LANCHOR6
 3739 0290 B1B406C1 		.word	-1056525135
 3740 0294 5D20B541 		.word	1102389341
 3741 0298 0514EE3F 		.word	1072567301
 3742 029c 00000000 		.word	.LANCHOR7
 3743 02a0 00000000 		.word	.LANCHOR8
 3744 02a4 1246C6C1 		.word	-1043970542
 3745 02a8 F10BB7C1 		.word	-1044968463
 3746 02ac 619261C0 		.word	-1067347359
 3747 02b0 00000000 		.word	.LANCHOR9
 3748 02b4 00000000 		.word	.LANCHOR10
 3749 02b8 BF6D2742 		.word	1109880255
 3750 02bc 8A125D3E 		.word	1046286986
 3751 02c0 A5BA0B40 		.word	1074510501
 3752 02c4 00000000 		.word	.LANCHOR11
 3753 02c8 00000000 		.word	.LANCHOR12
 3754 02cc 8247AB40 		.word	1084966786
 3755 02d0 3ED35BC1 		.word	-1050946754
 3756 02d4 4295F241 		.word	1106416962
 3757 02d8 00000000 		.word	.LANCHOR13
 3758 02dc 00000000 		.word	.LANCHOR14
 3759 02e0 A7E6E741 		.word	1105716903
 3760 02e4 92BBA43F 		.word	1067760530
 3761 02e8 32AD0DC2 		.word	-1039291086
 3762 02ec A4DBFA41 		.word	1106959268
 3763 02f0 835543BF 		.word	-1086106237
 3764 02f4 49870DC2 		.word	-1039300791
 3765 02f8 D545273F 		.word	1059538389
 3766 02fc D00B413F 		.word	1061227472
 3767 0300 360088BD 		.word	-1115160522
 3768 0304 90B64E3F 		.word	1062123152
 3769 0308 8C0317BF 		.word	-1089010804
 3770 030c 6FDC333B 		.word	993254511
 3771 0310 1931ABC0 		.word	-1062522599
 3772 0314 00000000 		.word	.LANCHOR15
 3773 0318 D0191B42 		.word	1109072336
 3774 031c B4803B42 		.word	1111195828
 3775 0320 00000000 		.word	.LANCHOR16
 3776 0324 00000000 		.word	.LANCHOR17
 3777 0328 BD50A3C1 		.word	-1046261571
 3778 032c BE67EDC1 		.word	-1041406018
 3779 0330 F68033C2 		.word	-1036812042
 3780 0334 432AD3C1 		.word	-1043125693
 3781 0338 662808C2 		.word	-1039652762
 3782 033c D6A22DC2 		.word	-1037196586
 3783 0340 D7FE153F 		.word	1058406103
 3784 0344 BF624FBF 		.word	-1085316417
 3785 0348 06E4AABC 		.word	-1129651194
 3786 034c 5C784DBF 		.word	-1085441956
 3787 0350 CEB318BF 		.word	-1088900146
 3788 0354 8B5814B9 		.word	-1189848949
 3789 0358 01BD30C1 		.word	-1053770495
 3790 035c 59A72742 		.word	1109895001
 3791 0360 82DA3842 		.word	1111022210
 3792 0364 00000000 		.word	.LANCHOR18
 3793 0368 00000000 		.word	.LANCHOR19
 3794 036c 49F5E6BE 		.word	-1092160183
 3795 0370 20E02342 		.word	1109647392
 3796 0374 2D5417C2 		.word	-1038658515
 3797 0378 00000000 		.word	_Znwj4Heap
 3798 037c 00000000 		.word	_ZN4ltaf16CalibDataWMirrorC1ERKNS_6MatrixIfLi3ELi3ELb1EEERKNS_14MirrorSysParamERKNS_21Mirror
 3799              	.L145:
 3800              	.LVL458:
 3801              	.LBE1607:
 3802              	.LBE1610:
 3803              	.LBB1611:
 3804              	.LBB1612:
 3805 0380 364B     		ldr	r3, .L147
 3806 0382 1F93     		str	r3, [sp, #124]	@ float
 3807 0384 364B     		ldr	r3, .L147+4
 3808 0386 2093     		str	r3, [sp, #128]	@ float
 3809 0388 364B     		ldr	r3, .L147+8
 3810 038a 2193     		str	r3, [sp, #132]	@ float
 3811              	.LVL459:
 3812              	.LBE1612:
 3813              	.LBE1611:
 3814              	.LBB1613:
 3815              	.LBB1614:
 3816 038c 364B     		ldr	r3, .L147+12
 3817 038e 2293     		str	r3, [sp, #136]	@ float
 3818 0390 364B     		ldr	r3, .L147+16
 3819 0392 2393     		str	r3, [sp, #140]	@ float
 3820 0394 364B     		ldr	r3, .L147+20
 3821 0396 2493     		str	r3, [sp, #144]	@ float
 3822              	.LVL460:
 3823              	.LBE1614:
 3824              	.LBE1613:
 3825              	.LBB1615:
 3826              	.LBB1616:
 3827 0398 364B     		ldr	r3, .L147+24
 3828 039a 2593     		str	r3, [sp, #148]	@ float
 3829 039c 364B     		ldr	r3, .L147+28
 3830 039e 2693     		str	r3, [sp, #152]	@ float
 3831 03a0 364B     		ldr	r3, .L147+32
 3832 03a2 2793     		str	r3, [sp, #156]	@ float
 3833              	.LBE1616:
 3834              	.LBE1615:
 596:/home/tienluong/workspace/atlantis_fw/AsicFwS2/src/calibclasses.cpp **** 
 3835              		.loc 4 596 0
 3836 03a4 364B     		ldr	r3, .L147+36
 3837 03a6 2893     		str	r3, [sp, #160]	@ float
 3838              	.LBB1617:
 3839              	.LBB1618:
  25:/home/tienluong/workspace/atlantis_fw/AsicFwS2/include/matrix.h ****     Vec2( const Vec2 & t ) : _x( t._x ), _y( t._y ) {}
 3840              		.loc 2 25 0
 3841 03a8 364B     		ldr	r3, .L147+40
 3842 03aa 2A93     		str	r3, [sp, #168]	@ float
 3843 03ac 364B     		ldr	r3, .L147+44
 3844 03ae 2B93     		str	r3, [sp, #172]	@ float
 3845              	.LBE1618:
 3846              	.LBE1617:
 596:/home/tienluong/workspace/atlantis_fw/AsicFwS2/src/calibclasses.cpp **** 
 3847              		.loc 4 596 0
 3848 03b0 BEE80F00 		ldmia	lr!, {r0, r1, r2, r3}
 3849 03b4 ACE80F00 		stmia	ip!, {r0, r1, r2, r3}
 3850              	.LVL461:
 3851 03b8 9EE80F00 		ldmia	lr, {r0, r1, r2, r3}
 3852 03bc 85E80F00 		stmia	r5, {r0, r1, r2, r3}
 3853 03c0 5946     		mov	r1, fp
 3854 03c2 AC20     		movs	r0, #172
 3855 03c4 8DF8A4B0 		strb	fp, [sp, #164]
 3856              	.LVL462:
 3857 03c8 C847     		blx	r9
 3858              	.LVL463:
 3859 03ca 13AA     		add	r2, sp, #76
 3860              	.LVL464:
 3861 03cc 02AB     		add	r3, sp, #8
 3862              	.LVL465:
 3863 03ce 0AA9     		add	r1, sp, #40
 3864              	.LVL466:
 3865 03d0 0190     		str	r0, [sp, #4]
 3866 03d2 D047     		blx	r10
 3867              	.LVL467:
 3868 03d4 DDF804C0 		ldr	ip, [sp, #4]
 3869 03d8 08F11C00 		add	r0, r8, #28
 3870 03dc 6146     		mov	r1, ip
 3871 03de B847     		blx	r7
 3872              	.LVL468:
 3873              	.LBB1619:
 3874              	.LBB1620:
 596:/home/tienluong/workspace/atlantis_fw/AsicFwS2/include/matrix.h **** 
 3875              		.loc 2 596 0
 3876 03e0 0AA8     		add	r0, sp, #40
 3877              	.LVL469:
 3878 03e2 2A49     		ldr	r1, .L147+48
 3879 03e4 B047     		blx	r6
 3880              	.LVL470:
 3881              	.LBE1620:
 3882              	.LBE1619:
 3883              	.LBB1621:
 3884              	.LBB1622:
 3885 03e6 13A8     		add	r0, sp, #76
 3886              	.LVL471:
 3887 03e8 2949     		ldr	r1, .L147+52
 3888 03ea B047     		blx	r6
 3889              	.LVL472:
 3890              	.LBE1622:
 3891              	.LBE1621:
 3892              	.LBB1623:
 3893              	.LBB1624:
 229:/home/tienluong/workspace/atlantis_fw/AsicFwS2/include/matrix.h ****     Vec3( const Vec3 & t ) : _x( t._x ), _y( t._y ), _z( t._z ) {}
 3894              		.loc 2 229 0
 3895 03ec 294B     		ldr	r3, .L147+56
 3896 03ee 1C93     		str	r3, [sp, #112]	@ float
 3897              	.LBE1624:
 3898              	.LBE1623:
 3899              		.loc 4 616 0
 3900 03f0 02AE     		add	r6, sp, #8
 3901              	.LVL473:
 3902              	.LBB1626:
 3903              	.LBB1625:
 229:/home/tienluong/workspace/atlantis_fw/AsicFwS2/include/matrix.h ****     Vec3( const Vec3 & t ) : _x( t._x ), _y( t._y ), _z( t._z ) {}
 3904              		.loc 2 229 0
 3905 03f2 294B     		ldr	r3, .L147+60
 3906 03f4 1D93     		str	r3, [sp, #116]	@ float
 3907 03f6 294B     		ldr	r3, .L147+64
 3908 03f8 1E93     		str	r3, [sp, #120]	@ float
 3909              	.LVL474:
 3910              	.LBE1625:
 3911              	.LBE1626:
 3912              	.LBB1627:
 3913              	.LBB1628:
 3914 03fa 294B     		ldr	r3, .L147+68
 3915 03fc 1F93     		str	r3, [sp, #124]	@ float
 3916 03fe 294B     		ldr	r3, .L147+72
 3917 0400 2093     		str	r3, [sp, #128]	@ float
 3918 0402 294B     		ldr	r3, .L147+76
 3919 0404 2193     		str	r3, [sp, #132]	@ float
 3920              	.LVL475:
 3921              	.LBE1628:
 3922              	.LBE1627:
 3923              	.LBB1629:
 3924              	.LBB1630:
 3925 0406 294B     		ldr	r3, .L147+80
 3926 0408 2293     		str	r3, [sp, #136]	@ float
 3927 040a 294B     		ldr	r3, .L147+84
 3928 040c 2393     		str	r3, [sp, #140]	@ float
 3929 040e 294B     		ldr	r3, .L147+88
 3930 0410 2493     		str	r3, [sp, #144]	@ float
 3931              	.LVL476:
 3932              	.LBE1630:
 3933              	.LBE1629:
 3934              	.LBB1631:
 3935              	.LBB1632:
 3936 0412 294B     		ldr	r3, .L147+92
 3937 0414 2593     		str	r3, [sp, #148]	@ float
 3938 0416 294B     		ldr	r3, .L147+96
 3939 0418 2693     		str	r3, [sp, #152]	@ float
 3940 041a 294B     		ldr	r3, .L147+100
 3941 041c 2793     		str	r3, [sp, #156]	@ float
 3942              	.LBE1632:
 3943              	.LBE1631:
 3944              		.loc 4 616 0
 3945 041e 294B     		ldr	r3, .L147+104
 3946 0420 2893     		str	r3, [sp, #160]	@ float
 3947 0422 0023     		movs	r3, #0
 3948 0424 8DF8A430 		strb	r3, [sp, #164]
 3949              	.LVL477:
 3950              	.LBB1633:
 3951              	.LBB1634:
  25:/home/tienluong/workspace/atlantis_fw/AsicFwS2/include/matrix.h ****     Vec2( const Vec2 & t ) : _x( t._x ), _y( t._y ) {}
 3952              		.loc 2 25 0
 3953 0428 274B     		ldr	r3, .L147+108
 3954 042a 2A93     		str	r3, [sp, #168]	@ float
 3955 042c 274B     		ldr	r3, .L147+112
 3956 042e 2B93     		str	r3, [sp, #172]	@ float
 3957              	.LBE1634:
 3958              	.LBE1633:
 3959              		.loc 4 616 0
 3960 0430 0FCC     		ldmia	r4!, {r0, r1, r2, r3}
 3961 0432 0FC6     		stmia	r6!, {r0, r1, r2, r3}
 3962              	.LVL478:
 3963 0434 94E80F00 		ldmia	r4, {r0, r1, r2, r3}
 3964 0438 85E80F00 		stmia	r5, {r0, r1, r2, r3}
 3965 043c 5946     		mov	r1, fp
 3966 043e AC20     		movs	r0, #172
 3967 0440 C847     		blx	r9
 3968              	.LVL479:
 3969 0442 0AA9     		add	r1, sp, #40
 3970              	.LVL480:
 3971 0444 13AA     		add	r2, sp, #76
 3972              	.LVL481:
 3973 0446 02AB     		add	r3, sp, #8
 3974              	.LVL482:
 3975 0448 0446     		mov	r4, r0
 3976 044a D047     		blx	r10
 3977              	.LVL483:
 3978 044c 08F12400 		add	r0, r8, #36
 3979 0450 2146     		mov	r1, r4
 3980 0452 B847     		blx	r7
 3981              	.LVL484:
 3982              	.LBE1507:
 617:/home/tienluong/workspace/atlantis_fw/AsicFwS2/src/calibclasses.cpp **** }
 3983              		.loc 4 617 0
 3984 0454 2DB0     		add	sp, sp, #180
 3985              	.LCFI38:
 3986              		.cfi_def_cfa_offset 36
 3987              		@ sp needed
 3988 0456 BDE8F08F 		pop	{r4, r5, r6, r7, r8, r9, r10, fp, pc}
 3989              	.LVL485:
 3990              	.L148:
 3991 045a 00BF     		.align	2
 3992              	.L147:
 3993 045c 99E2C1C0 		.word	-1061035367
 3994 0460 72173442 		.word	1110710130
 3995 0464 712F2AC2 		.word	-1037422735
 3996 0468 3CAB16BF 		.word	-1089033412
 3997 046c 4EF64EBF 		.word	-1085344178
 3998 0470 0310A03B 		.word	1000345603
 3999 0474 DF424BBF 		.word	-1085586721
 4000 0478 5EA11B3F 		.word	1058775390
 4001 047c 24FD8ABA 		.word	-1165296348
 4002 0480 3E244DC1 		.word	-1051909058
 4003 0484 3E7E0F42 		.word	1108311614
 4004 0488 E1D03A42 		.word	1111150817
 4005 048c 00000000 		.word	.LANCHOR20
 4006 0490 00000000 		.word	.LANCHOR21
 4007 0494 C79815C2 		.word	-1038772025
 4008 0498 DD10DB41 		.word	1104875741
 4009 049c 886E8DC1 		.word	-1047695736
 4010 04a0 BB5B04C2 		.word	-1039901765
 4011 04a4 1920FF41 		.word	1107238937
 4012 04a8 0E4778C1 		.word	-1049082098
 4013 04ac EFDB40BF 		.word	-1086268433
 4014 04b0 3B56213F 		.word	1059149371
 4015 04b4 FB52403E 		.word	1044402939
 4016 04b8 A553573F 		.word	1062687653
 4017 04bc 75F4093F 		.word	1057617013
 4018 04c0 2B873CBD 		.word	-1120106709
 4019 04c4 61A2A940 		.word	1084858977
 4020 04c8 04300A42 		.word	1107963908
 4021 04cc FD3F3442 		.word	1110720509
 4022              		.cfi_endproc
 4023              	.LFE3352:
 4025              		.section	.text._ZNK4ltaf20SquareMatrixInverterIfLi3EE3runEPf,"axG",%progbits,_ZNK4ltaf20SquareMatr
 4026              		.align	1
 4027              		.weak	_ZNK4ltaf20SquareMatrixInverterIfLi3EE3runEPf
 4028              		.thumb
 4029              		.thumb_func
 4031              	_ZNK4ltaf20SquareMatrixInverterIfLi3EE3runEPf:
 4032              	.LFB3535:
1140:/home/tienluong/workspace/atlantis_fw/AsicFwS2/include/matrix.h ****     {
 4033              		.loc 2 1140 0
 4034              		.cfi_startproc
 4035              		@ args = 0, pretend = 0, frame = 72
 4036              		@ frame_needed = 0, uses_anonymous_args = 0
 4037              	.LVL486:
 4038 0000 2DE9F04F 		push	{r4, r5, r6, r7, r8, r9, r10, fp, lr}
 4039              	.LCFI39:
 4040              		.cfi_def_cfa_offset 36
 4041              		.cfi_offset 4, -36
 4042              		.cfi_offset 5, -32
 4043              		.cfi_offset 6, -28
 4044              		.cfi_offset 7, -24
 4045              		.cfi_offset 8, -20
 4046              		.cfi_offset 9, -16
 4047              		.cfi_offset 10, -12
 4048              		.cfi_offset 11, -8
 4049              		.cfi_offset 14, -4
 4050 0004 93B0     		sub	sp, sp, #76
 4051              	.LCFI40:
 4052              		.cfi_def_cfa_offset 112
 4053              	.LBB1635:
1142:/home/tienluong/workspace/atlantis_fw/AsicFwS2/include/matrix.h ****                       - mat[1] * ( mat[3] * mat[8] - mat[5] * mat[6] )
 4054              		.loc 2 1142 0
 4055 0006 0B69     		ldr	r3, [r1, #16]	@ float
 4056              	.LBE1635:
1140:/home/tienluong/workspace/atlantis_fw/AsicFwS2/include/matrix.h ****     {
 4057              		.loc 2 1140 0
 4058 0008 8946     		mov	r9, r1
 4059              	.LBB1638:
1142:/home/tienluong/workspace/atlantis_fw/AsicFwS2/include/matrix.h ****                       - mat[1] * ( mat[3] * mat[8] - mat[5] * mat[6] )
 4060              		.loc 2 1142 0
 4061 000a D1F820A0 		ldr	r10, [r1, #32]	@ float
 4062 000e 0093     		str	r3, [sp]	@ float
 4063 0010 CB69     		ldr	r3, [r1, #28]	@ float
1144:/home/tienluong/workspace/atlantis_fw/AsicFwS2/include/matrix.h **** 
 4064              		.loc 2 1144 0
 4065 0012 554C     		ldr	r4, .L152
1142:/home/tienluong/workspace/atlantis_fw/AsicFwS2/include/matrix.h ****                       - mat[1] * ( mat[3] * mat[8] - mat[5] * mat[6] )
 4066              		.loc 2 1142 0
 4067 0014 0F68     		ldr	r7, [r1]	@ float
 4068 0016 0193     		str	r3, [sp, #4]	@ float
1144:/home/tienluong/workspace/atlantis_fw/AsicFwS2/include/matrix.h **** 
 4069              		.loc 2 1144 0
 4070 0018 0098     		ldr	r0, [sp]	@ float
 4071              	.LVL487:
1142:/home/tienluong/workspace/atlantis_fw/AsicFwS2/include/matrix.h ****                       - mat[1] * ( mat[3] * mat[8] - mat[5] * mat[6] )
 4072              		.loc 2 1142 0
 4073 001a 4B69     		ldr	r3, [r1, #20]	@ float
1144:/home/tienluong/workspace/atlantis_fw/AsicFwS2/include/matrix.h **** 
 4074              		.loc 2 1144 0
 4075 001c 5146     		mov	r1, r10
 4076              	.LVL488:
1142:/home/tienluong/workspace/atlantis_fw/AsicFwS2/include/matrix.h ****                       - mat[1] * ( mat[3] * mat[8] - mat[5] * mat[6] )
 4077              		.loc 2 1142 0
 4078 001e 0293     		str	r3, [sp, #8]	@ float
1144:/home/tienluong/workspace/atlantis_fw/AsicFwS2/include/matrix.h **** 
 4079              		.loc 2 1144 0
 4080 0020 A047     		blx	r4
 4081              	.LVL489:
 4082 0022 0299     		ldr	r1, [sp, #8]	@ float
 4083 0024 514D     		ldr	r5, .L152+4
 4084 0026 0646     		mov	r6, r0
 4085 0028 0198     		ldr	r0, [sp, #4]	@ float
 4086 002a A047     		blx	r4
 4087              	.LVL490:
 4088 002c 0146     		mov	r1, r0
 4089 002e 3046     		mov	r0, r6
 4090 0030 A847     		blx	r5
 4091              	.LVL491:
1143:/home/tienluong/workspace/atlantis_fw/AsicFwS2/include/matrix.h ****                       + mat[2] * ( mat[3] * mat[7] - mat[4] * mat[6] );
 4092              		.loc 2 1143 0
 4093 0032 D9F80C30 		ldr	r3, [r9, #12]	@ float
 4094 0036 0393     		str	r3, [sp, #12]	@ float
1144:/home/tienluong/workspace/atlantis_fw/AsicFwS2/include/matrix.h **** 
 4095              		.loc 2 1144 0
 4096 0038 5146     		mov	r1, r10
1143:/home/tienluong/workspace/atlantis_fw/AsicFwS2/include/matrix.h ****                       + mat[2] * ( mat[3] * mat[7] - mat[4] * mat[6] );
 4097              		.loc 2 1143 0
 4098 003a D9F81830 		ldr	r3, [r9, #24]	@ float
 4099 003e 0493     		str	r3, [sp, #16]	@ float
 4100 0040 D9F80460 		ldr	r6, [r9, #4]	@ float
1144:/home/tienluong/workspace/atlantis_fw/AsicFwS2/include/matrix.h **** 
 4101              		.loc 2 1144 0
 4102 0044 8346     		mov	fp, r0
 4103 0046 0398     		ldr	r0, [sp, #12]	@ float
 4104 0048 A047     		blx	r4
 4105              	.LVL492:
 4106 004a 0499     		ldr	r1, [sp, #16]	@ float
 4107 004c 8046     		mov	r8, r0
 4108 004e 0298     		ldr	r0, [sp, #8]	@ float
 4109 0050 A047     		blx	r4
 4110              	.LVL493:
 4111 0052 0146     		mov	r1, r0
 4112 0054 4046     		mov	r0, r8
 4113 0056 A847     		blx	r5
 4114              	.LVL494:
 4115 0058 0199     		ldr	r1, [sp, #4]	@ float
 4116 005a D9F80880 		ldr	r8, [r9, #8]	@ float
 4117 005e 0590     		str	r0, [sp, #20]	@ float
 4118 0060 0398     		ldr	r0, [sp, #12]	@ float
 4119 0062 A047     		blx	r4
 4120              	.LVL495:
 4121 0064 0499     		ldr	r1, [sp, #16]	@ float
 4122 0066 0690     		str	r0, [sp, #24]
 4123 0068 0098     		ldr	r0, [sp]	@ float
 4124 006a A047     		blx	r4
 4125              	.LVL496:
 4126 006c 069A     		ldr	r2, [sp, #24]
 4127 006e 0146     		mov	r1, r0
 4128 0070 1046     		mov	r0, r2
 4129 0072 A847     		blx	r5
 4130              	.LVL497:
 4131 0074 5946     		mov	r1, fp
 4132 0076 0690     		str	r0, [sp, #24]	@ float
 4133              	.LVL498:
 4134 0078 3846     		mov	r0, r7
 4135              	.LVL499:
 4136 007a A047     		blx	r4
 4137              	.LVL500:
 4138 007c 0599     		ldr	r1, [sp, #20]	@ float
 4139 007e 0790     		str	r0, [sp, #28]
 4140 0080 3046     		mov	r0, r6
 4141 0082 A047     		blx	r4
 4142              	.LVL501:
 4143 0084 079A     		ldr	r2, [sp, #28]
 4144 0086 0146     		mov	r1, r0
 4145 0088 1046     		mov	r0, r2
 4146 008a A847     		blx	r5
 4147              	.LVL502:
 4148 008c 0699     		ldr	r1, [sp, #24]	@ float
 4149 008e 0790     		str	r0, [sp, #28]
 4150 0090 4046     		mov	r0, r8
 4151 0092 A047     		blx	r4
 4152              	.LVL503:
 4153 0094 079A     		ldr	r2, [sp, #28]
 4154 0096 0146     		mov	r1, r0
 4155 0098 1046     		mov	r0, r2
 4156 009a 354A     		ldr	r2, .L152+8
 4157 009c 9047     		blx	r2
 4158              	.LVL504:
1146:/home/tienluong/workspace/atlantis_fw/AsicFwS2/include/matrix.h **** 
 4159              		.loc 2 1146 0
 4160 009e 354A     		ldr	r2, .L152+12
1144:/home/tienluong/workspace/atlantis_fw/AsicFwS2/include/matrix.h **** 
 4161              		.loc 2 1144 0
 4162 00a0 0146     		mov	r1, r0
1146:/home/tienluong/workspace/atlantis_fw/AsicFwS2/include/matrix.h **** 
 4163              		.loc 2 1146 0
 4164 00a2 4FF07E50 		mov	r0, #1065353216
 4165 00a6 9047     		blx	r2
 4166              	.LVL505:
1150:/home/tienluong/workspace/atlantis_fw/AsicFwS2/include/matrix.h ****         tmp[2] =  mat[1] * mat[5] - mat[2] * mat[4];
 4167              		.loc 2 1150 0
 4168 00a8 5146     		mov	r1, r10
1149:/home/tienluong/workspace/atlantis_fw/AsicFwS2/include/matrix.h ****         tmp[1] = -( mat[1] * mat[8] - mat[2] * mat[7] );
 4169              		.loc 2 1149 0
 4170 00aa CDF824B0 		str	fp, [sp, #36]	@ float
1146:/home/tienluong/workspace/atlantis_fw/AsicFwS2/include/matrix.h **** 
 4171              		.loc 2 1146 0
 4172 00ae 0790     		str	r0, [sp, #28]	@ float
 4173              	.LVL506:
1150:/home/tienluong/workspace/atlantis_fw/AsicFwS2/include/matrix.h ****         tmp[2] =  mat[1] * mat[5] - mat[2] * mat[4];
 4174              		.loc 2 1150 0
 4175 00b0 3046     		mov	r0, r6
 4176              	.LVL507:
 4177 00b2 A047     		blx	r4
 4178              	.LVL508:
 4179 00b4 0199     		ldr	r1, [sp, #4]	@ float
 4180 00b6 8346     		mov	fp, r0
 4181              	.LVL509:
 4182 00b8 4046     		mov	r0, r8
 4183 00ba A047     		blx	r4
 4184              	.LVL510:
 4185 00bc 0146     		mov	r1, r0
 4186 00be 5846     		mov	r0, fp
 4187 00c0 A847     		blx	r5
 4188              	.LVL511:
1151:/home/tienluong/workspace/atlantis_fw/AsicFwS2/include/matrix.h ****         tmp[3] = -( mat[3] * mat[8] - mat[5] * mat[6] );
 4189              		.loc 2 1151 0
 4190 00c2 0299     		ldr	r1, [sp, #8]	@ float
1150:/home/tienluong/workspace/atlantis_fw/AsicFwS2/include/matrix.h ****         tmp[2] =  mat[1] * mat[5] - mat[2] * mat[4];
 4191              		.loc 2 1150 0
 4192 00c4 00F10040 		add	r0, r0, #-2147483648
 4193 00c8 0A90     		str	r0, [sp, #40]	@ float
1151:/home/tienluong/workspace/atlantis_fw/AsicFwS2/include/matrix.h ****         tmp[3] = -( mat[3] * mat[8] - mat[5] * mat[6] );
 4194              		.loc 2 1151 0
 4195 00ca 3046     		mov	r0, r6
 4196 00cc A047     		blx	r4
 4197              	.LVL512:
 4198 00ce 0099     		ldr	r1, [sp]	@ float
 4199 00d0 8346     		mov	fp, r0
 4200 00d2 4046     		mov	r0, r8
 4201 00d4 A047     		blx	r4
 4202              	.LVL513:
 4203 00d6 0146     		mov	r1, r0
 4204 00d8 5846     		mov	r0, fp
 4205 00da A847     		blx	r5
 4206              	.LVL514:
1152:/home/tienluong/workspace/atlantis_fw/AsicFwS2/include/matrix.h ****         tmp[4] =  mat[0] * mat[8] - mat[2] * mat[6];
 4207              		.loc 2 1152 0
 4208 00dc 059B     		ldr	r3, [sp, #20]
1153:/home/tienluong/workspace/atlantis_fw/AsicFwS2/include/matrix.h ****         tmp[5] = -( mat[0] * mat[5] - mat[3] * mat[2] );
 4209              		.loc 2 1153 0
 4210 00de 5146     		mov	r1, r10
1152:/home/tienluong/workspace/atlantis_fw/AsicFwS2/include/matrix.h ****         tmp[4] =  mat[0] * mat[8] - mat[2] * mat[6];
 4211              		.loc 2 1152 0
 4212 00e0 03F10042 		add	r2, r3, #-2147483648
 4213 00e4 0C92     		str	r2, [sp, #48]	@ float
1151:/home/tienluong/workspace/atlantis_fw/AsicFwS2/include/matrix.h ****         tmp[3] = -( mat[3] * mat[8] - mat[5] * mat[6] );
 4214              		.loc 2 1151 0
 4215 00e6 0B90     		str	r0, [sp, #44]	@ float
1153:/home/tienluong/workspace/atlantis_fw/AsicFwS2/include/matrix.h ****         tmp[5] = -( mat[0] * mat[5] - mat[3] * mat[2] );
 4216              		.loc 2 1153 0
 4217 00e8 3846     		mov	r0, r7
 4218 00ea A047     		blx	r4
 4219              	.LVL515:
 4220 00ec 0499     		ldr	r1, [sp, #16]	@ float
 4221 00ee 8246     		mov	r10, r0
 4222 00f0 4046     		mov	r0, r8
 4223 00f2 A047     		blx	r4
 4224              	.LVL516:
 4225 00f4 0146     		mov	r1, r0
 4226 00f6 5046     		mov	r0, r10
 4227 00f8 A847     		blx	r5
 4228              	.LVL517:
1154:/home/tienluong/workspace/atlantis_fw/AsicFwS2/include/matrix.h ****         tmp[6] =  mat[3] * mat[7] - mat[6] * mat[ 4];
 4229              		.loc 2 1154 0
 4230 00fa 0299     		ldr	r1, [sp, #8]	@ float
1153:/home/tienluong/workspace/atlantis_fw/AsicFwS2/include/matrix.h ****         tmp[5] = -( mat[0] * mat[5] - mat[3] * mat[2] );
 4231              		.loc 2 1153 0
 4232 00fc 0D90     		str	r0, [sp, #52]	@ float
1154:/home/tienluong/workspace/atlantis_fw/AsicFwS2/include/matrix.h ****         tmp[6] =  mat[3] * mat[7] - mat[6] * mat[ 4];
 4233              		.loc 2 1154 0
 4234 00fe 3846     		mov	r0, r7
 4235 0100 A047     		blx	r4
 4236              	.LVL518:
 4237 0102 4146     		mov	r1, r8
 4238 0104 8246     		mov	r10, r0
 4239 0106 0398     		ldr	r0, [sp, #12]	@ float
 4240 0108 A047     		blx	r4
 4241              	.LVL519:
 4242 010a 0146     		mov	r1, r0
 4243 010c 5046     		mov	r0, r10
 4244 010e A847     		blx	r5
 4245              	.LVL520:
1155:/home/tienluong/workspace/atlantis_fw/AsicFwS2/include/matrix.h ****         tmp[7] = -( mat[0] * mat[7] - mat[6] * mat[1] );
 4246              		.loc 2 1155 0
 4247 0110 069B     		ldr	r3, [sp, #24]	@ float
1156:/home/tienluong/workspace/atlantis_fw/AsicFwS2/include/matrix.h ****         tmp[8] =  mat[0] * mat[4] - mat[3] * mat[1];
 4248              		.loc 2 1156 0
 4249 0112 0199     		ldr	r1, [sp, #4]	@ float
1155:/home/tienluong/workspace/atlantis_fw/AsicFwS2/include/matrix.h ****         tmp[7] = -( mat[0] * mat[7] - mat[6] * mat[1] );
 4250              		.loc 2 1155 0
 4251 0114 0F93     		str	r3, [sp, #60]	@ float
1154:/home/tienluong/workspace/atlantis_fw/AsicFwS2/include/matrix.h ****         tmp[6] =  mat[3] * mat[7] - mat[6] * mat[ 4];
 4252              		.loc 2 1154 0
 4253 0116 00F10040 		add	r0, r0, #-2147483648
 4254 011a 0E90     		str	r0, [sp, #56]	@ float
1156:/home/tienluong/workspace/atlantis_fw/AsicFwS2/include/matrix.h ****         tmp[8] =  mat[0] * mat[4] - mat[3] * mat[1];
 4255              		.loc 2 1156 0
 4256 011c 3846     		mov	r0, r7
 4257 011e A047     		blx	r4
 4258              	.LVL521:
 4259 0120 3146     		mov	r1, r6
 4260 0122 8046     		mov	r8, r0
 4261 0124 0498     		ldr	r0, [sp, #16]	@ float
 4262 0126 A047     		blx	r4
 4263              	.LVL522:
 4264 0128 0146     		mov	r1, r0
 4265 012a 4046     		mov	r0, r8
 4266 012c A847     		blx	r5
 4267              	.LVL523:
1157:/home/tienluong/workspace/atlantis_fw/AsicFwS2/include/matrix.h **** 
 4268              		.loc 2 1157 0
 4269 012e 0099     		ldr	r1, [sp]	@ float
1156:/home/tienluong/workspace/atlantis_fw/AsicFwS2/include/matrix.h ****         tmp[8] =  mat[0] * mat[4] - mat[3] * mat[1];
 4270              		.loc 2 1156 0
 4271 0130 00F10040 		add	r0, r0, #-2147483648
 4272 0134 1090     		str	r0, [sp, #64]	@ float
1157:/home/tienluong/workspace/atlantis_fw/AsicFwS2/include/matrix.h **** 
 4273              		.loc 2 1157 0
 4274 0136 3846     		mov	r0, r7
 4275 0138 A047     		blx	r4
 4276              	.LVL524:
 4277 013a 3146     		mov	r1, r6
 4278 013c 0746     		mov	r7, r0
 4279 013e 0398     		ldr	r0, [sp, #12]	@ float
 4280 0140 A047     		blx	r4
 4281              	.LVL525:
 4282 0142 0146     		mov	r1, r0
 4283 0144 3846     		mov	r0, r7
 4284 0146 A847     		blx	r5
 4285              	.LVL526:
 4286              	.LBB1636:
1159:/home/tienluong/workspace/atlantis_fw/AsicFwS2/include/matrix.h ****     }
 4287              		.loc 2 1159 0
 4288 0148 0025     		movs	r5, #0
 4289              	.LBE1636:
1157:/home/tienluong/workspace/atlantis_fw/AsicFwS2/include/matrix.h **** 
 4290              		.loc 2 1157 0
 4291 014a 1190     		str	r0, [sp, #68]	@ float
 4292              	.LVL527:
 4293              	.L150:
 4294              	.LBB1637:
1159:/home/tienluong/workspace/atlantis_fw/AsicFwS2/include/matrix.h ****     }
 4295              		.loc 2 1159 0 discriminator 3
 4296 014c 09AA     		add	r2, sp, #36
 4297 014e 0799     		ldr	r1, [sp, #28]	@ float
 4298 0150 52F82500 		ldr	r0, [r2, r5, lsl #2]	@ float
 4299 0154 A047     		blx	r4
 4300              	.LVL528:
 4301 0156 49F82500 		str	r0, [r9, r5, lsl #2]	@ float
 4302 015a 0135     		adds	r5, r5, #1
 4303              	.LVL529:
 4304 015c 092D     		cmp	r5, #9
 4305 015e F5D1     		bne	.L150
 4306              	.LBE1637:
 4307              	.LBE1638:
1160:/home/tienluong/workspace/atlantis_fw/AsicFwS2/include/matrix.h **** };
 4308              		.loc 2 1160 0
 4309 0160 13B0     		add	sp, sp, #76
 4310              	.LCFI41:
 4311              		.cfi_def_cfa_offset 36
 4312              		@ sp needed
 4313 0162 BDE8F08F 		pop	{r4, r5, r6, r7, r8, r9, r10, fp, pc}
 4314              	.LVL530:
 4315              	.L153:
 4316 0166 00BF     		.align	2
 4317              	.L152:
 4318 0168 00000000 		.word	__aeabi_fmul
 4319 016c 00000000 		.word	__aeabi_fsub
 4320 0170 00000000 		.word	__aeabi_fadd
 4321 0174 00000000 		.word	__aeabi_fdiv
 4322              		.cfi_endproc
 4323              	.LFE3535:
 4325              		.section	.text._ZN4ltaf7inverseIfLi3ELb1EEENS_6MatrixIT_XT0_EXT0_EXT1_EEERKS3_,"axG",%progbits,_ZN
 4326              		.align	1
 4327              		.weak	_ZN4ltaf7inverseIfLi3ELb1EEENS_6MatrixIT_XT0_EXT0_EXT1_EEERKS3_
 4328              		.thumb
 4329              		.thumb_func
 4331              	_ZN4ltaf7inverseIfLi3ELb1EEENS_6MatrixIT_XT0_EXT0_EXT1_EEERKS3_:
 4332              	.LFB3381:
1247:/home/tienluong/workspace/atlantis_fw/AsicFwS2/include/matrix.h **** {
 4333              		.loc 2 1247 0
 4334              		.cfi_startproc
 4335              		@ args = 0, pretend = 0, frame = 8
 4336              		@ frame_needed = 0, uses_anonymous_args = 0
 4337              	.LVL531:
 4338 0000 73B5     		push	{r0, r1, r4, r5, r6, lr}
 4339              	.LCFI42:
 4340              		.cfi_def_cfa_offset 24
 4341              		.cfi_offset 4, -16
 4342              		.cfi_offset 5, -12
 4343              		.cfi_offset 6, -8
 4344              		.cfi_offset 14, -4
 4345              	.LBB1645:
 4346              	.LBB1646:
 4347              	.LBB1647:
 591:/home/tienluong/workspace/atlantis_fw/AsicFwS2/include/matrix.h **** 
 4348              		.loc 2 591 0
 4349 0002 0D46     		mov	r5, r1
 4350              	.LBE1647:
 4351              	.LBE1646:
 4352              	.LBE1645:
1247:/home/tienluong/workspace/atlantis_fw/AsicFwS2/include/matrix.h **** {
 4353              		.loc 2 1247 0
 4354 0004 0646     		mov	r6, r0
 4355              	.LBB1652:
 4356              	.LBB1650:
 4357              	.LBB1648:
 591:/home/tienluong/workspace/atlantis_fw/AsicFwS2/include/matrix.h **** 
 4358              		.loc 2 591 0
 4359 0006 0446     		mov	r4, r0
 4360 0008 0FCD     		ldmia	r5!, {r0, r1, r2, r3}
 4361              	.LVL532:
 4362 000a 0FC4     		stmia	r4!, {r0, r1, r2, r3}
 4363              	.LVL533:
 4364 000c 0FCD     		ldmia	r5!, {r0, r1, r2, r3}
 4365              	.LVL534:
 4366 000e 0FC4     		stmia	r4!, {r0, r1, r2, r3}
 4367 0010 2B68     		ldr	r3, [r5]
 4368              	.LBE1648:
 4369              	.LBE1650:
1251:/home/tienluong/workspace/atlantis_fw/AsicFwS2/include/matrix.h ****     return rval;
 4370              		.loc 2 1251 0
 4371 0012 01A8     		add	r0, sp, #4
 4372              	.LBB1651:
 4373              	.LBB1649:
 591:/home/tienluong/workspace/atlantis_fw/AsicFwS2/include/matrix.h **** 
 4374              		.loc 2 591 0
 4375 0014 2360     		str	r3, [r4]
 4376              	.LVL535:
 4377              	.LBE1649:
 4378              	.LBE1651:
1251:/home/tienluong/workspace/atlantis_fw/AsicFwS2/include/matrix.h ****     return rval;
 4379              		.loc 2 1251 0
 4380 0016 3146     		mov	r1, r6
 4381 0018 024B     		ldr	r3, .L155
 4382 001a 9847     		blx	r3
 4383              	.LVL536:
 4384              	.LBE1652:
1253:/home/tienluong/workspace/atlantis_fw/AsicFwS2/include/matrix.h **** 
 4385              		.loc 2 1253 0
 4386 001c 3046     		mov	r0, r6
 4387 001e 02B0     		add	sp, sp, #8
 4388              	.LCFI43:
 4389              		.cfi_def_cfa_offset 16
 4390              		@ sp needed
 4391 0020 70BD     		pop	{r4, r5, r6, pc}
 4392              	.LVL537:
 4393              	.L156:
 4394 0022 00BF     		.align	2
 4395              	.L155:
 4396 0024 00000000 		.word	_ZNK4ltaf20SquareMatrixInverterIfLi3EE3runEPf
 4397              		.cfi_endproc
 4398              	.LFE3381:
 4400              		.section	.text._ZN4ltaf7inverseIfLi3ELb0EEENS_6MatrixIT_XT0_EXT0_EXT1_EEERKS3_,"axG",%progbits,_ZN
 4401              		.align	1
 4402              		.weak	_ZN4ltaf7inverseIfLi3ELb0EEENS_6MatrixIT_XT0_EXT0_EXT1_EEERKS3_
 4403              		.thumb
 4404              		.thumb_func
 4406              	_ZN4ltaf7inverseIfLi3ELb0EEENS_6MatrixIT_XT0_EXT0_EXT1_EEERKS3_:
 4407              	.LFB3384:
1247:/home/tienluong/workspace/atlantis_fw/AsicFwS2/include/matrix.h **** {
 4408              		.loc 2 1247 0
 4409              		.cfi_startproc
 4410              		@ args = 0, pretend = 0, frame = 8
 4411              		@ frame_needed = 0, uses_anonymous_args = 0
 4412              	.LVL538:
 4413 0000 73B5     		push	{r0, r1, r4, r5, r6, lr}
 4414              	.LCFI44:
 4415              		.cfi_def_cfa_offset 24
 4416              		.cfi_offset 4, -16
 4417              		.cfi_offset 5, -12
 4418              		.cfi_offset 6, -8
 4419              		.cfi_offset 14, -4
 4420              	.LBB1659:
 4421              	.LBB1660:
 4422              	.LBB1661:
 593:/home/tienluong/workspace/atlantis_fw/AsicFwS2/include/matrix.h **** 
 4423              		.loc 2 593 0
 4424 0002 0D46     		mov	r5, r1
 4425              	.LBE1661:
 4426              	.LBE1660:
 4427              	.LBE1659:
1247:/home/tienluong/workspace/atlantis_fw/AsicFwS2/include/matrix.h **** {
 4428              		.loc 2 1247 0
 4429 0004 0646     		mov	r6, r0
 4430              	.LBB1666:
 4431              	.LBB1664:
 4432              	.LBB1662:
 593:/home/tienluong/workspace/atlantis_fw/AsicFwS2/include/matrix.h **** 
 4433              		.loc 2 593 0
 4434 0006 0446     		mov	r4, r0
 4435 0008 0FCD     		ldmia	r5!, {r0, r1, r2, r3}
 4436              	.LVL539:
 4437 000a 0FC4     		stmia	r4!, {r0, r1, r2, r3}
 4438              	.LVL540:
 4439 000c 0FCD     		ldmia	r5!, {r0, r1, r2, r3}
 4440              	.LVL541:
 4441 000e 0FC4     		stmia	r4!, {r0, r1, r2, r3}
 4442 0010 2B68     		ldr	r3, [r5]
 4443              	.LBE1662:
 4444              	.LBE1664:
1251:/home/tienluong/workspace/atlantis_fw/AsicFwS2/include/matrix.h ****     return rval;
 4445              		.loc 2 1251 0
 4446 0012 01A8     		add	r0, sp, #4
 4447              	.LBB1665:
 4448              	.LBB1663:
 593:/home/tienluong/workspace/atlantis_fw/AsicFwS2/include/matrix.h **** 
 4449              		.loc 2 593 0
 4450 0014 2360     		str	r3, [r4]
 4451              	.LVL542:
 4452              	.LBE1663:
 4453              	.LBE1665:
1251:/home/tienluong/workspace/atlantis_fw/AsicFwS2/include/matrix.h ****     return rval;
 4454              		.loc 2 1251 0
 4455 0016 3146     		mov	r1, r6
 4456 0018 024B     		ldr	r3, .L158
 4457 001a 9847     		blx	r3
 4458              	.LVL543:
 4459              	.LBE1666:
1253:/home/tienluong/workspace/atlantis_fw/AsicFwS2/include/matrix.h **** 
 4460              		.loc 2 1253 0
 4461 001c 3046     		mov	r0, r6
 4462 001e 02B0     		add	sp, sp, #8
 4463              	.LCFI45:
 4464              		.cfi_def_cfa_offset 16
 4465              		@ sp needed
 4466 0020 70BD     		pop	{r4, r5, r6, pc}
 4467              	.LVL544:
 4468              	.L159:
 4469 0022 00BF     		.align	2
 4470              	.L158:
 4471 0024 00000000 		.word	_ZNK4ltaf20SquareMatrixInverterIfLi3EE3runEPf
 4472              		.cfi_endproc
 4473              	.LFE3384:
 4475              		.section	.text._ZN4ltaf8EpiField5setupERKNS_9CalibDataES3_,"ax",%progbits
 4476              		.align	1
 4477              		.global	_ZN4ltaf8EpiField5setupERKNS_9CalibDataES3_
 4478              		.thumb
 4479              		.thumb_func
 4481              	_ZN4ltaf8EpiField5setupERKNS_9CalibDataES3_:
 4482              	.LFB3326:
  45:/home/tienluong/workspace/atlantis_fw/AsicFwS2/src/calibclasses.cpp ****     /// Skwe matrix for cross product
 4483              		.loc 4 45 0
 4484              		.cfi_startproc
 4485              		@ args = 0, pretend = 0, frame = 336
 4486              		@ frame_needed = 0, uses_anonymous_args = 0
 4487              	.LVL545:
 4488 0000 2DE9F04F 		push	{r4, r5, r6, r7, r8, r9, r10, fp, lr}
 4489              	.LCFI46:
 4490              		.cfi_def_cfa_offset 36
 4491              		.cfi_offset 4, -36
 4492              		.cfi_offset 5, -32
 4493              		.cfi_offset 6, -28
 4494              		.cfi_offset 7, -24
 4495              		.cfi_offset 8, -20
 4496              		.cfi_offset 9, -16
 4497              		.cfi_offset 10, -12
 4498              		.cfi_offset 11, -8
 4499              		.cfi_offset 14, -4
 4500 0004 D5B0     		sub	sp, sp, #340
 4501              	.LCFI47:
 4502              		.cfi_def_cfa_offset 376
  45:/home/tienluong/workspace/atlantis_fw/AsicFwS2/src/calibclasses.cpp ****     /// Skwe matrix for cross product
 4503              		.loc 4 45 0
 4504 0006 9046     		mov	r8, r2
 4505 0008 0C46     		mov	r4, r1
 4506              	.LBB1734:
  52:/home/tienluong/workspace/atlantis_fw/AsicFwS2/src/calibclasses.cpp ****     Vec3f T_rel = R_rel *  ref.translation() - src.translation();
 4507              		.loc 4 52 0
 4508 000a 834F     		ldr	r7, .L185
 4509 000c 0CAD     		add	r5, sp, #48
 4510              	.LBE1734:
  45:/home/tienluong/workspace/atlantis_fw/AsicFwS2/src/calibclasses.cpp ****     /// Skwe matrix for cross product
 4511              		.loc 4 45 0
 4512 000e 0190     		str	r0, [sp, #4]
 4513              	.LVL546:
 4514              	.LBB1773:
  52:/home/tienluong/workspace/atlantis_fw/AsicFwS2/src/calibclasses.cpp ****     Vec3f T_rel = R_rel *  ref.translation() - src.translation();
 4515              		.loc 4 52 0
 4516 0010 3431     		adds	r1, r1, #52
 4517              	.LVL547:
 4518 0012 4BA8     		add	r0, sp, #300
 4519              	.LVL548:
 4520 0014 B847     		blx	r7
 4521              	.LVL549:
 4522 0016 814E     		ldr	r6, .L185+4
 4523 0018 08F13401 		add	r1, r8, #52
 4524 001c 2846     		mov	r0, r5
 4525 001e 4BAA     		add	r2, sp, #300
 4526 0020 B047     		blx	r6
 4527              	.LVL550:
  53:/home/tienluong/workspace/atlantis_fw/AsicFwS2/src/calibclasses.cpp ****     Vec3f epipole = ref.K() * transpose( R_rel ) * T_rel;
 4528              		.loc 4 53 0
 4529 0022 DFF80CA2 		ldr	r10, .L185+24
 4530 0026 04F12802 		add	r2, r4, #40
 4531 002a 4BA8     		add	r0, sp, #300
 4532 002c 2946     		mov	r1, r5
 4533              	.LBB1735:
 4534              	.LBB1736:
  81:/home/tienluong/workspace/atlantis_fw/AsicFwS2/include/calibclasses.h **** protected:
 4535              		.loc 1 81 0
 4536 002e 0434     		adds	r4, r4, #4
 4537              	.LVL551:
 4538              	.LBE1736:
 4539              	.LBE1735:
  53:/home/tienluong/workspace/atlantis_fw/AsicFwS2/src/calibclasses.cpp ****     Vec3f epipole = ref.K() * transpose( R_rel ) * T_rel;
 4540              		.loc 4 53 0
 4541 0030 D047     		blx	r10
 4542              	.LVL552:
 4543              	.LBB1737:
 4544              	.LBB1738:
 275:/home/tienluong/workspace/atlantis_fw/AsicFwS2/include/matrix.h **** 
 4545              		.loc 2 275 0
 4546 0032 DFF80092 		ldr	r9, .L185+28
 4547 0036 D8F82C10 		ldr	r1, [r8, #44]	@ float
 4548 003a 4C98     		ldr	r0, [sp, #304]	@ float
 4549 003c C847     		blx	r9
 4550              	.LVL553:
 4551 003e D8F83010 		ldr	r1, [r8, #48]	@ float
 4552 0042 0290     		str	r0, [sp, #8]
 4553              	.LVL554:
 4554 0044 4D98     		ldr	r0, [sp, #308]	@ float
 4555 0046 C847     		blx	r9
 4556              	.LVL555:
 4557 0048 D8F82810 		ldr	r1, [r8, #40]	@ float
 4558 004c 8346     		mov	fp, r0
 4559              	.LVL556:
 4560 004e 4B98     		ldr	r0, [sp, #300]	@ float
 4561              	.LVL557:
 4562 0050 C847     		blx	r9
 4563              	.LVL558:
 4564              	.LBB1739:
 4565              	.LBB1740:
 229:/home/tienluong/workspace/atlantis_fw/AsicFwS2/include/matrix.h ****     Vec3( const Vec3 & t ) : _x( t._x ), _y( t._y ), _z( t._z ) {}
 4566              		.loc 2 229 0
 4567 0052 029B     		ldr	r3, [sp, #8]
 4568              	.LBE1740:
 4569              	.LBE1739:
 4570              	.LBE1738:
 4571              	.LBE1737:
  54:/home/tienluong/workspace/atlantis_fw/AsicFwS2/src/calibclasses.cpp ****     _F = transpose( inverse( src.K() ) ) * R_rel * transpose( ref.K() ) * skew( epipole );
 4572              		.loc 4 54 0
 4573 0054 2946     		mov	r1, r5
 4574 0056 0DF19C09 		add	r9, sp, #156
 4575              	.LBB1744:
 4576              	.LBB1743:
 4577              	.LBB1742:
 4578              	.LBB1741:
 229:/home/tienluong/workspace/atlantis_fw/AsicFwS2/include/matrix.h ****     Vec3( const Vec3 & t ) : _x( t._x ), _y( t._y ), _z( t._z ) {}
 4579              		.loc 2 229 0
 4580 005a 0793     		str	r3, [sp, #28]	@ float
 4581 005c CDF820B0 		str	fp, [sp, #32]	@ float
 4582              	.LVL559:
 4583 0060 0690     		str	r0, [sp, #24]	@ float
 4584              	.LBE1741:
 4585              	.LBE1742:
 4586              	.LBE1743:
 4587              	.LBE1744:
  54:/home/tienluong/workspace/atlantis_fw/AsicFwS2/src/calibclasses.cpp ****     _F = transpose( inverse( src.K() ) ) * R_rel * transpose( ref.K() ) * skew( epipole );
 4588              		.loc 4 54 0
 4589 0062 42A8     		add	r0, sp, #264
 4590 0064 B847     		blx	r7
 4591              	.LVL560:
 4592 0066 4BA8     		add	r0, sp, #300
 4593              	.LVL561:
 4594 0068 2146     		mov	r1, r4
 4595 006a 42AA     		add	r2, sp, #264
 4596 006c B047     		blx	r6
 4597              	.LVL562:
 4598 006e 09A8     		add	r0, sp, #36
 4599 0070 4BA9     		add	r1, sp, #300
 4600              	.LVL563:
 4601 0072 06AA     		add	r2, sp, #24
 4602              	.LVL564:
 4603 0074 D047     		blx	r10
 4604              	.LVL565:
 4605              	.LBB1745:
 4606              	.LBB1746:
 4607              	.LBB1747:
 4608              	.LBB1748:
 591:/home/tienluong/workspace/atlantis_fw/AsicFwS2/include/matrix.h **** 
 4609              		.loc 2 591 0
 4610 0076 08F1040E 		add	lr, r8, #4
 4611              	.LVL566:
 4612 007a 0DF1540C 		add	ip, sp, #84
 4613              	.LVL567:
 4614 007e 0DF17408 		add	r8, sp, #116
 4615              	.LVL568:
 4616 0082 BEE80F00 		ldmia	lr!, {r0, r1, r2, r3}
 4617              	.LVL569:
 4618 0086 ACE80F00 		stmia	ip!, {r0, r1, r2, r3}
 4619              	.LVL570:
 4620 008a BEE80F00 		ldmia	lr!, {r0, r1, r2, r3}
 4621              	.LVL571:
 4622 008e ACE80F00 		stmia	ip!, {r0, r1, r2, r3}
 4623              	.LVL572:
 4624 0092 DEF80030 		ldr	r3, [lr]
 4625              	.LBE1748:
 4626              	.LBE1747:
1251:/home/tienluong/workspace/atlantis_fw/AsicFwS2/include/matrix.h ****     return rval;
 4627              		.loc 2 1251 0
 4628 0096 4BA8     		add	r0, sp, #300
 4629              	.LVL573:
 4630              	.LBB1750:
 4631              	.LBB1749:
 591:/home/tienluong/workspace/atlantis_fw/AsicFwS2/include/matrix.h **** 
 4632              		.loc 2 591 0
 4633 0098 CCF80030 		str	r3, [ip]
 4634              	.LVL574:
 4635              	.LBE1749:
 4636              	.LBE1750:
1251:/home/tienluong/workspace/atlantis_fw/AsicFwS2/include/matrix.h ****     return rval;
 4637              		.loc 2 1251 0
 4638 009c 15A9     		add	r1, sp, #84
 4639              	.LVL575:
 4640 009e 604B     		ldr	r3, .L185+8
 4641 00a0 9847     		blx	r3
 4642              	.LVL576:
 4643              	.LBE1746:
 4644              	.LBE1745:
  55:/home/tienluong/workspace/atlantis_fw/AsicFwS2/src/calibclasses.cpp **** }
 4645              		.loc 4 55 0
 4646 00a2 1EA8     		add	r0, sp, #120
 4647 00a4 15A9     		add	r1, sp, #84
 4648              	.LVL577:
 4649 00a6 B847     		blx	r7
 4650              	.LVL578:
 4651 00a8 0297     		str	r7, [sp, #8]
 4652              	.LVL579:
 4653 00aa 0396     		str	r6, [sp, #12]
 4654              	.LVL580:
 4655              	.L161:
 4656              	.LBB1751:
 4657              	.LBB1752:
 4658              	.LBB1753:
 4659              	.LBB1754:
 725:/home/tienluong/workspace/atlantis_fw/AsicFwS2/include/matrix.h ****             // accum n-th row
 4660              		.loc 2 725 0
 4661 00ac 58F8047F 		ldr	r7, [r8, #4]!	@ float
 4662 00b0 0026     		movs	r6, #0
 4663              	.LVL581:
 4664              	.L162:
 4665 00b2 55F82610 		ldr	r1, [r5, r6, lsl #2]	@ float
 4666 00b6 3846     		mov	r0, r7
 4667 00b8 5A4B     		ldr	r3, .L185+12
 4668 00ba 9847     		blx	r3
 4669              	.LVL582:
 4670 00bc 49F82600 		str	r0, [r9, r6, lsl #2]	@ float
 724:/home/tienluong/workspace/atlantis_fw/AsicFwS2/include/matrix.h ****             { rval( i, j ) = this->_data[Idx( i, 0 )] * mat( 0, j ); }
 4671              		.loc 2 724 0
 4672 00c0 0136     		adds	r6, r6, #1
 4673              	.LVL583:
 4674 00c2 032E     		cmp	r6, #3
 4675 00c4 F5D1     		bne	.L162
 4676              	.LVL584:
 4677              	.LBE1754:
 4678              	.LBB1755:
 4679              	.LBB1756:
 730:/home/tienluong/workspace/atlantis_fw/AsicFwS2/include/matrix.h ****             }
 4680              		.loc 2 730 0
 4681 00c6 D8F80C30 		ldr	r3, [r8, #12]	@ float
 4682 00ca CB46     		mov	fp, r9
 4683 00cc 4FF0000A 		mov	r10, #0
 4684              	.LVL585:
 4685              	.L163:
 4686 00d0 05EB0A02 		add	r2, r5, r10
 4687 00d4 1846     		mov	r0, r3
 4688 00d6 0AF1040A 		add	r10, r10, #4
 4689 00da 0493     		str	r3, [sp, #16]
 4690 00dc D168     		ldr	r1, [r2, #12]	@ float
 4691 00de 514E     		ldr	r6, .L185+12
 4692 00e0 B047     		blx	r6
 4693              	.LVL586:
 4694 00e2 514F     		ldr	r7, .L185+16
 4695 00e4 0146     		mov	r1, r0
 4696 00e6 DBF80000 		ldr	r0, [fp]	@ float
 4697 00ea B847     		blx	r7
 4698              	.LVL587:
 729:/home/tienluong/workspace/atlantis_fw/AsicFwS2/include/matrix.h ****                 { rval( i, j ) += this->_data[Idx( i, k )] * mat( k, j ); }
 4699              		.loc 2 729 0
 4700 00ec BAF10C0F 		cmp	r10, #12
 4701 00f0 049B     		ldr	r3, [sp, #16]
 730:/home/tienluong/workspace/atlantis_fw/AsicFwS2/include/matrix.h ****             }
 4702              		.loc 2 730 0
 4703 00f2 4BF8040B 		str	r0, [fp], #4	@ float
 729:/home/tienluong/workspace/atlantis_fw/AsicFwS2/include/matrix.h ****                 { rval( i, j ) += this->_data[Idx( i, k )] * mat( k, j ); }
 4704              		.loc 2 729 0
 4705 00f6 EBD1     		bne	.L163
 4706              	.LVL588:
 730:/home/tienluong/workspace/atlantis_fw/AsicFwS2/include/matrix.h ****             }
 4707              		.loc 2 730 0
 4708 00f8 D8F818C0 		ldr	ip, [r8, #24]	@ float
 4709 00fc CA46     		mov	r10, r9
 4710 00fe 4FF0000B 		mov	fp, #0
 4711              	.LVL589:
 4712              	.L165:
 4713 0102 05EB0B01 		add	r1, r5, fp
 4714 0106 474B     		ldr	r3, .L185+12
 4715 0108 6046     		mov	r0, ip
 4716 010a CDF814C0 		str	ip, [sp, #20]
 4717 010e 0BF1040B 		add	fp, fp, #4
 4718 0112 8969     		ldr	r1, [r1, #24]	@ float
 4719 0114 0493     		str	r3, [sp, #16]
 4720 0116 9847     		blx	r3
 4721              	.LVL590:
 4722 0118 434A     		ldr	r2, .L185+16
 4723 011a 0146     		mov	r1, r0
 4724 011c DAF80000 		ldr	r0, [r10]	@ float
 4725 0120 9047     		blx	r2
 4726              	.LVL591:
 729:/home/tienluong/workspace/atlantis_fw/AsicFwS2/include/matrix.h ****                 { rval( i, j ) += this->_data[Idx( i, k )] * mat( k, j ); }
 4727              		.loc 2 729 0
 4728 0122 BBF10C0F 		cmp	fp, #12
 4729 0126 DDF814C0 		ldr	ip, [sp, #20]
 730:/home/tienluong/workspace/atlantis_fw/AsicFwS2/include/matrix.h ****             }
 4730              		.loc 2 730 0
 4731 012a 4AF8040B 		str	r0, [r10], #4	@ float
 729:/home/tienluong/workspace/atlantis_fw/AsicFwS2/include/matrix.h ****                 { rval( i, j ) += this->_data[Idx( i, k )] * mat( k, j ); }
 4732              		.loc 2 729 0
 4733 012e E8D1     		bne	.L165
 4734              	.LVL592:
 4735              	.LBE1756:
 4736              	.LBE1755:
 721:/home/tienluong/workspace/atlantis_fw/AsicFwS2/include/matrix.h ****         {
 4737              		.loc 2 721 0
 4738 0130 20AB     		add	r3, sp, #128
 4739 0132 9845     		cmp	r8, r3
 4740 0134 09F10C09 		add	r9, r9, #12
 4741 0138 B8D1     		bne	.L161
 4742              	.LVL593:
 4743              	.LBE1753:
 4744              	.LBE1752:
 4745              	.LBE1751:
  55:/home/tienluong/workspace/atlantis_fw/AsicFwS2/src/calibclasses.cpp **** }
 4746              		.loc 4 55 0
 4747 013a 30A8     		add	r0, sp, #192
 4748 013c 2146     		mov	r1, r4
 4749              	.LBB1757:
 4750              	.LBB1758:
  49:/home/tienluong/workspace/atlantis_fw/AsicFwS2/src/calibclasses.cpp ****     };
 4751              		.loc 4 49 0
 4752 013e 0025     		movs	r5, #0
 4753              	.LVL594:
 4754              	.LBE1758:
 4755              	.LBE1757:
  55:/home/tienluong/workspace/atlantis_fw/AsicFwS2/src/calibclasses.cpp **** }
 4756              		.loc 4 55 0
 4757 0140 029B     		ldr	r3, [sp, #8]
 4758 0142 9847     		blx	r3
 4759              	.LVL595:
 4760 0144 39A8     		add	r0, sp, #228
 4761 0146 27A9     		add	r1, sp, #156
 4762              	.LVL596:
 4763 0148 30AA     		add	r2, sp, #192
 4764 014a 039B     		ldr	r3, [sp, #12]
 4765 014c 9847     		blx	r3
 4766              	.LVL597:
 4767              	.LBB1766:
 4768              	.LBB1765:
  49:/home/tienluong/workspace/atlantis_fw/AsicFwS2/src/calibclasses.cpp ****     };
 4769              		.loc 4 49 0
 4770 014e 0B99     		ldr	r1, [sp, #44]	@ float
 4771 0150 4E91     		str	r1, [sp, #312]	@ float
 4772 0152 0022     		movs	r2, #0
 4773 0154 01F10043 		add	r3, r1, #-2147483648
 4774 0158 0999     		ldr	r1, [sp, #36]	@ float
 4775 015a 4C93     		str	r3, [sp, #304]	@ float
 4776 015c 0A9B     		ldr	r3, [sp, #40]	@ float
 4777 015e 01F10040 		add	r0, r1, #-2147483648
 4778 0162 4D93     		str	r3, [sp, #308]	@ float
 4779 0164 03F10043 		add	r3, r3, #-2147483648
 4780 0168 5090     		str	r0, [sp, #320]	@ float
 4781              	.LBB1759:
 4782              	.LBB1760:
 596:/home/tienluong/workspace/atlantis_fw/AsicFwS2/include/matrix.h **** 
 4783              		.loc 2 596 0
 4784 016a 42A8     		add	r0, sp, #264
 4785              	.LBE1760:
 4786              	.LBE1759:
  49:/home/tienluong/workspace/atlantis_fw/AsicFwS2/src/calibclasses.cpp ****     };
 4787              		.loc 4 49 0
 4788 016c 5193     		str	r3, [sp, #324]	@ float
 4789 016e 5291     		str	r1, [sp, #328]	@ float
 4790              	.LBB1763:
 4791              	.LBB1761:
 596:/home/tienluong/workspace/atlantis_fw/AsicFwS2/include/matrix.h **** 
 4792              		.loc 2 596 0
 4793 0170 4BA9     		add	r1, sp, #300
 4794              	.LVL598:
 4795 0172 2E4B     		ldr	r3, .L185+20
 4796              	.LBE1761:
 4797              	.LBE1763:
  49:/home/tienluong/workspace/atlantis_fw/AsicFwS2/src/calibclasses.cpp ****     };
 4798              		.loc 4 49 0
 4799 0174 4B92     		str	r2, [sp, #300]	@ float
 4800              	.LVL599:
 4801 0176 4F92     		str	r2, [sp, #316]	@ float
 4802              	.LVL600:
 4803 0178 5392     		str	r2, [sp, #332]	@ float
 4804              	.LVL601:
 4805              	.LBB1764:
 4806              	.LBB1762:
 596:/home/tienluong/workspace/atlantis_fw/AsicFwS2/include/matrix.h **** 
 4807              		.loc 2 596 0
 4808 017a 9847     		blx	r3
 4809              	.LVL602:
 4810              	.L168:
 4811              	.LBE1762:
 4812              	.LBE1764:
 4813              	.LBE1765:
 4814              	.LBE1766:
 4815              	.LBB1767:
 4816              	.LBB1768:
 4817              	.LBB1769:
 4818              	.LBB1770:
 725:/home/tienluong/workspace/atlantis_fw/AsicFwS2/include/matrix.h ****             // accum n-th row
 4819              		.loc 2 725 0
 4820 017c 0DF1E409 		add	r9, sp, #228
 4821              	.LVL603:
 4822 0180 4FF00008 		mov	r8, #0
 4823 0184 55F809B0 		ldr	fp, [r5, r9]	@ float
 4824              	.LVL604:
 4825              	.L169:
 4826 0188 4BAB     		add	r3, sp, #300
 4827              	.LVL605:
 4828 018a 5C19     		adds	r4, r3, r5
 4829 018c 42AB     		add	r3, sp, #264
 4830              	.LVL606:
 4831 018e 5846     		mov	r0, fp
 4832 0190 53F82810 		ldr	r1, [r3, r8, lsl #2]	@ float
 4833 0194 049B     		ldr	r3, [sp, #16]
 4834              	.LVL607:
 4835 0196 9847     		blx	r3
 4836              	.LVL608:
 4837 0198 44F82800 		str	r0, [r4, r8, lsl #2]	@ float
 724:/home/tienluong/workspace/atlantis_fw/AsicFwS2/include/matrix.h ****             { rval( i, j ) = this->_data[Idx( i, 0 )] * mat( 0, j ); }
 4838              		.loc 2 724 0
 4839 019c 08F10108 		add	r8, r8, #1
 4840              	.LVL609:
 4841 01a0 B8F1030F 		cmp	r8, #3
 4842 01a4 F0D1     		bne	.L169
 4843              	.LVL610:
 4844 01a6 A944     		add	r9, r9, r5
 4845              	.LVL611:
 4846 01a8 A346     		mov	fp, r4
 4847              	.LBE1770:
 4848              	.LBB1771:
 4849              	.LBB1772:
 730:/home/tienluong/workspace/atlantis_fw/AsicFwS2/include/matrix.h ****             }
 4850              		.loc 2 730 0
 4851 01aa 4FF00008 		mov	r8, #0
 4852              	.LVL612:
 4853 01ae D9F804A0 		ldr	r10, [r9, #4]	@ float
 4854              	.LVL613:
 4855              	.L170:
 4856 01b2 54AB     		add	r3, sp, #336
 4857 01b4 03EB0802 		add	r2, r3, r8
 4858 01b8 5046     		mov	r0, r10
 4859 01ba 08F10408 		add	r8, r8, #4
 4860 01be 52F83C1C 		ldr	r1, [r2, #-60]	@ float
 4861 01c2 B047     		blx	r6
 4862              	.LVL614:
 4863 01c4 0146     		mov	r1, r0
 4864 01c6 DBF80000 		ldr	r0, [fp]	@ float
 4865 01ca B847     		blx	r7
 4866              	.LVL615:
 729:/home/tienluong/workspace/atlantis_fw/AsicFwS2/include/matrix.h ****                 { rval( i, j ) += this->_data[Idx( i, k )] * mat( k, j ); }
 4867              		.loc 2 729 0
 4868 01cc B8F10C0F 		cmp	r8, #12
 730:/home/tienluong/workspace/atlantis_fw/AsicFwS2/include/matrix.h ****             }
 4869              		.loc 2 730 0
 4870 01d0 4BF8040B 		str	r0, [fp], #4	@ float
 729:/home/tienluong/workspace/atlantis_fw/AsicFwS2/include/matrix.h ****                 { rval( i, j ) += this->_data[Idx( i, k )] * mat( k, j ); }
 4871              		.loc 2 729 0
 4872 01d4 EDD1     		bne	.L170
 4873              	.LVL616:
 730:/home/tienluong/workspace/atlantis_fw/AsicFwS2/include/matrix.h ****             }
 4874              		.loc 2 730 0
 4875 01d6 D9F80890 		ldr	r9, [r9, #8]	@ float
 4876 01da 4FF00008 		mov	r8, #0
 4877              	.LVL617:
 4878              	.L172:
 4879 01de 42AB     		add	r3, sp, #264
 4880              	.LVL618:
 4881 01e0 4344     		add	r3, r3, r8
 4882              	.LVL619:
 4883 01e2 4846     		mov	r0, r9
 4884 01e4 08F10408 		add	r8, r8, #4
 4885 01e8 9969     		ldr	r1, [r3, #24]	@ float
 4886 01ea B047     		blx	r6
 4887              	.LVL620:
 4888 01ec 0146     		mov	r1, r0
 4889 01ee 2068     		ldr	r0, [r4]	@ float
 4890 01f0 B847     		blx	r7
 4891              	.LVL621:
 729:/home/tienluong/workspace/atlantis_fw/AsicFwS2/include/matrix.h ****                 { rval( i, j ) += this->_data[Idx( i, k )] * mat( k, j ); }
 4892              		.loc 2 729 0
 4893 01f2 B8F10C0F 		cmp	r8, #12
 730:/home/tienluong/workspace/atlantis_fw/AsicFwS2/include/matrix.h ****             }
 4894              		.loc 2 730 0
 4895 01f6 44F8040B 		str	r0, [r4], #4	@ float
 729:/home/tienluong/workspace/atlantis_fw/AsicFwS2/include/matrix.h ****                 { rval( i, j ) += this->_data[Idx( i, k )] * mat( k, j ); }
 4896              		.loc 2 729 0
 4897 01fa F0D1     		bne	.L172
 4898              	.LVL622:
 4899 01fc 0C35     		adds	r5, r5, #12
 4900              	.LBE1772:
 4901              	.LBE1771:
 721:/home/tienluong/workspace/atlantis_fw/AsicFwS2/include/matrix.h ****         {
 4902              		.loc 2 721 0
 4903 01fe 242D     		cmp	r5, #36
 4904 0200 BCD1     		bne	.L168
 4905              	.LBE1769:
 4906              	.LBE1768:
 4907              	.LBE1767:
  55:/home/tienluong/workspace/atlantis_fw/AsicFwS2/src/calibclasses.cpp **** }
 4908              		.loc 4 55 0
 4909 0202 4BAC     		add	r4, sp, #300
 4910              	.LVL623:
 4911 0204 019D     		ldr	r5, [sp, #4]
 4912 0206 0FCC     		ldmia	r4!, {r0, r1, r2, r3}
 4913              	.LVL624:
 4914 0208 0FC5     		stmia	r5!, {r0, r1, r2, r3}
 4915 020a 0FCC     		ldmia	r4!, {r0, r1, r2, r3}
 4916              	.LVL625:
 4917 020c 0FC5     		stmia	r5!, {r0, r1, r2, r3}
 4918 020e 2368     		ldr	r3, [r4]
 4919 0210 2B60     		str	r3, [r5]
 4920              	.LBE1773:
  56:/home/tienluong/workspace/atlantis_fw/AsicFwS2/src/calibclasses.cpp **** 
 4921              		.loc 4 56 0
 4922 0212 55B0     		add	sp, sp, #340
 4923              	.LCFI48:
 4924              		.cfi_def_cfa_offset 36
 4925              		@ sp needed
 4926 0214 BDE8F08F 		pop	{r4, r5, r6, r7, r8, r9, r10, fp, pc}
 4927              	.LVL626:
 4928              	.L186:
 4929              		.align	2
 4930              	.L185:
 4931 0218 00000000 		.word	_ZN4ltaf9transposeIfLi3ELi3ELb1EEENS_6MatrixIT_XT1_EXT0_EXntT2_EEERKNS1_IS2_XT0_EXT1_EXT2_EE
 4932 021c 00000000 		.word	_ZNK4ltaf6MatrixIfLi3ELi3ELb1EEmlILi3ELi3ELb0EEENS0_IfLi3EXT0_ELb1EEERKNS0_IfXT_EXT0_EXT1_EE
 4933 0220 00000000 		.word	_ZNK4ltaf20SquareMatrixInverterIfLi3EE3runEPf
 4934 0224 00000000 		.word	__aeabi_fmul
 4935 0228 00000000 		.word	__aeabi_fadd
 4936 022c 00000000 		.word	_ZN4ltaf6MatrixIfLi3ELi3ELb1EEaSESt16initializer_listIfE.isra.6
 4937 0230 00000000 		.word	_ZN4ltafmlIffLb1EEENS_4Vec3INSt11common_typeIIT_T0_EE4typeEEERKNS_6MatrixIS3_Li3ELi3EXT1_EEE
 4938 0234 00000000 		.word	__aeabi_fsub
 4939              		.cfi_endproc
 4940              	.LFE3326:
 4942              		.section	.text._ZN4ltaf8EpiFieldC2ERKNS_9CalibDataES3_,"ax",%progbits
 4943              		.align	1
 4944              		.global	_ZN4ltaf8EpiFieldC2ERKNS_9CalibDataES3_
 4945              		.thumb
 4946              		.thumb_func
 4948              	_ZN4ltaf8EpiFieldC2ERKNS_9CalibDataES3_:
 4949              	.LFB3324:
  39:/home/tienluong/workspace/atlantis_fw/AsicFwS2/src/calibclasses.cpp **** {
 4950              		.loc 4 39 0
 4951              		.cfi_startproc
 4952              		@ args = 0, pretend = 0, frame = 0
 4953              		@ frame_needed = 0, uses_anonymous_args = 0
 4954              	.LVL627:
 4955 0000 10B5     		push	{r4, lr}
 4956              	.LCFI49:
 4957              		.cfi_def_cfa_offset 8
 4958              		.cfi_offset 4, -8
 4959              		.cfi_offset 14, -4
 4960              	.LBB1774:
  41:/home/tienluong/workspace/atlantis_fw/AsicFwS2/src/calibclasses.cpp **** }
 4961              		.loc 4 41 0
 4962 0002 024B     		ldr	r3, .L188
 4963              	.LBE1774:
  39:/home/tienluong/workspace/atlantis_fw/AsicFwS2/src/calibclasses.cpp **** {
 4964              		.loc 4 39 0
 4965 0004 0446     		mov	r4, r0
 4966              	.LVL628:
 4967              	.LBB1775:
  41:/home/tienluong/workspace/atlantis_fw/AsicFwS2/src/calibclasses.cpp **** }
 4968              		.loc 4 41 0
 4969 0006 9847     		blx	r3
 4970              	.LVL629:
 4971              	.LBE1775:
  42:/home/tienluong/workspace/atlantis_fw/AsicFwS2/src/calibclasses.cpp **** 
 4972              		.loc 4 42 0
 4973 0008 2046     		mov	r0, r4
 4974 000a 10BD     		pop	{r4, pc}
 4975              	.LVL630:
 4976              	.L189:
 4977              		.align	2
 4978              	.L188:
 4979 000c 00000000 		.word	_ZN4ltaf8EpiField5setupERKNS_9CalibDataES3_
 4980              		.cfi_endproc
 4981              	.LFE3324:
 4983              		.global	_ZN4ltaf8EpiFieldC1ERKNS_9CalibDataES3_
 4984              		.thumb_set _ZN4ltaf8EpiFieldC1ERKNS_9CalibDataES3_,_ZN4ltaf8EpiFieldC2ERKNS_9CalibDataES3_
 4985              		.section	.text._ZN4ltaf10CalibUtils24depthGivenCorrespondenceERKNS_8EpiFieldERKNS_9CalibDataES6_ff
 4986              		.align	1
 4987              		.global	_ZN4ltaf10CalibUtils24depthGivenCorrespondenceERKNS_8EpiFieldERKNS_9CalibDataES6_ffff
 4988              		.thumb
 4989              		.thumb_func
 4991              	_ZN4ltaf10CalibUtils24depthGivenCorrespondenceERKNS_8EpiFieldERKNS_9CalibDataES6_ffff:
 4992              	.LFB3335:
  92:/home/tienluong/workspace/atlantis_fw/AsicFwS2/src/calibclasses.cpp ****     SLOGF(SLOG_DEBUG, "depthGivenCorrespondence. x: %f, y: %f, x_src: %f, y_src: %f", x, y, x_src, 
 4993              		.loc 4 92 0
 4994              		.cfi_startproc
 4995              		@ args = 12, pretend = 0, frame = 136
 4996              		@ frame_needed = 0, uses_anonymous_args = 0
 4997              	.LVL631:
 4998 0000 2DE9F04F 		push	{r4, r5, r6, r7, r8, r9, r10, fp, lr}
 4999              	.LCFI50:
 5000              		.cfi_def_cfa_offset 36
 5001              		.cfi_offset 4, -36
 5002              		.cfi_offset 5, -32
 5003              		.cfi_offset 6, -28
 5004              		.cfi_offset 7, -24
 5005              		.cfi_offset 8, -20
 5006              		.cfi_offset 9, -16
 5007              		.cfi_offset 10, -12
 5008              		.cfi_offset 11, -8
 5009              		.cfi_offset 14, -4
 5010              	.LBB1888:
  93:/home/tienluong/workspace/atlantis_fw/AsicFwS2/src/calibclasses.cpp **** 
 5011              		.loc 4 93 0
 5012 0004 904C     		ldr	r4, .L201
 5013              	.LBE1888:
  92:/home/tienluong/workspace/atlantis_fw/AsicFwS2/src/calibclasses.cpp ****     SLOGF(SLOG_DEBUG, "depthGivenCorrespondence. x: %f, y: %f, x_src: %f, y_src: %f", x, y, x_src, 
 5014              		.loc 4 92 0
 5015 0006 ABB0     		sub	sp, sp, #172
 5016              	.LCFI51:
 5017              		.cfi_def_cfa_offset 208
  92:/home/tienluong/workspace/atlantis_fw/AsicFwS2/src/calibclasses.cpp ****     SLOGF(SLOG_DEBUG, "depthGivenCorrespondence. x: %f, y: %f, x_src: %f, y_src: %f", x, y, x_src, 
 5018              		.loc 4 92 0
 5019 0008 0546     		mov	r5, r0
 5020              	.LBB2091:
  93:/home/tienluong/workspace/atlantis_fw/AsicFwS2/src/calibclasses.cpp **** 
 5021              		.loc 4 93 0
 5022 000a 1846     		mov	r0, r3
 5023              	.LVL632:
 5024              	.LBE2091:
  92:/home/tienluong/workspace/atlantis_fw/AsicFwS2/src/calibclasses.cpp ****     SLOGF(SLOG_DEBUG, "depthGivenCorrespondence. x: %f, y: %f, x_src: %f, y_src: %f", x, y, x_src, 
 5025              		.loc 4 92 0
 5026 000c 1E46     		mov	r6, r3
 5027 000e 9246     		mov	r10, r2
 5028 0010 8946     		mov	r9, r1
 5029              	.LBB2092:
  93:/home/tienluong/workspace/atlantis_fw/AsicFwS2/src/calibclasses.cpp **** 
 5030              		.loc 4 93 0
 5031 0012 A047     		blx	r4
 5032              	.LVL633:
 5033              	.LBB1889:
 5034              	.LBB1890:
 5035              	.LBB1891:
 5036              	.LBB1892:
 229:/home/tienluong/workspace/atlantis_fw/AsicFwS2/include/matrix.h ****     Vec3( const Vec3 & t ) : _x( t._x ), _y( t._y ), _z( t._z ) {}
 5037              		.loc 2 229 0
 5038 0014 4FF07E57 		mov	r7, #1065353216
 5039              	.LBE1892:
 5040              	.LBE1891:
 5041              	.LBE1890:
 5042              	.LBE1889:
  93:/home/tienluong/workspace/atlantis_fw/AsicFwS2/src/calibclasses.cpp **** 
 5043              		.loc 4 93 0
 5044 0018 CDE90001 		strd	r0, [sp]
 5045 001c 3498     		ldr	r0, [sp, #208]	@ float
 5046 001e A047     		blx	r4
 5047              	.LVL634:
 5048 0020 CDE90201 		strd	r0, [sp, #8]
 5049 0024 3598     		ldr	r0, [sp, #212]	@ float
 5050 0026 A047     		blx	r4
 5051              	.LVL635:
 5052 0028 CDE90401 		strd	r0, [sp, #16]
 5053 002c 3698     		ldr	r0, [sp, #216]	@ float
 5054 002e A047     		blx	r4
 5055              	.LVL636:
 5056 0030 864A     		ldr	r2, .L201+4
 5057 0032 874B     		ldr	r3, .L201+8
 5058              	.LBB1944:
 5059              	.LBB1940:
 5060              	.LBB1896:
 5061              	.LBB1897:
 5062              	.LBB1898:
 5063              	.LBB1899:
 5064              		.file 8 "/home/tienluong/workspace/atlantis_fw/AsicFwS2/include/line2.h"
   1:/home/tienluong/workspace/atlantis_fw/AsicFwS2/include/line2.h **** #ifndef __LINE2_H__
   2:/home/tienluong/workspace/atlantis_fw/AsicFwS2/include/line2.h **** #define __LINE2_H__
   3:/home/tienluong/workspace/atlantis_fw/AsicFwS2/include/line2.h **** 
   4:/home/tienluong/workspace/atlantis_fw/AsicFwS2/include/line2.h **** 
   5:/home/tienluong/workspace/atlantis_fw/AsicFwS2/include/line2.h **** #ifdef __cplusplus
   6:/home/tienluong/workspace/atlantis_fw/AsicFwS2/include/line2.h **** 
   7:/home/tienluong/workspace/atlantis_fw/AsicFwS2/include/line2.h **** #include <limits>
   8:/home/tienluong/workspace/atlantis_fw/AsicFwS2/include/line2.h **** #include <cassert>
   9:/home/tienluong/workspace/atlantis_fw/AsicFwS2/include/line2.h **** #include "matrix.h"
  10:/home/tienluong/workspace/atlantis_fw/AsicFwS2/include/line2.h **** 
  11:/home/tienluong/workspace/atlantis_fw/AsicFwS2/include/line2.h **** 
  12:/home/tienluong/workspace/atlantis_fw/AsicFwS2/include/line2.h **** namespace ltaf {
  13:/home/tienluong/workspace/atlantis_fw/AsicFwS2/include/line2.h **** 
  14:/home/tienluong/workspace/atlantis_fw/AsicFwS2/include/line2.h **** /// Restrict the input to be floating type.
  15:/home/tienluong/workspace/atlantis_fw/AsicFwS2/include/line2.h **** template<typename T>
  16:/home/tienluong/workspace/atlantis_fw/AsicFwS2/include/line2.h **** class Line2
  17:/home/tienluong/workspace/atlantis_fw/AsicFwS2/include/line2.h **** {
  18:/home/tienluong/workspace/atlantis_fw/AsicFwS2/include/line2.h ****     static_assert( std::is_floating_point<T>::value, "only floating-point line types supported!" );
  19:/home/tienluong/workspace/atlantis_fw/AsicFwS2/include/line2.h **** public:
  20:/home/tienluong/workspace/atlantis_fw/AsicFwS2/include/line2.h ****     Line2(): _line( T{1}, 0, 0 ) {}
  21:/home/tienluong/workspace/atlantis_fw/AsicFwS2/include/line2.h **** 
  22:/home/tienluong/workspace/atlantis_fw/AsicFwS2/include/line2.h ****     /// The line is represented by ax + by + c = 0;
  23:/home/tienluong/workspace/atlantis_fw/AsicFwS2/include/line2.h ****     Line2( T a, T b, T c ): _line( a, b, c )
  24:/home/tienluong/workspace/atlantis_fw/AsicFwS2/include/line2.h ****     {
  25:/home/tienluong/workspace/atlantis_fw/AsicFwS2/include/line2.h ****         assert( isValidLine() ); //, "Not a valid line!" );
  26:/home/tienluong/workspace/atlantis_fw/AsicFwS2/include/line2.h ****         normalize();
  27:/home/tienluong/workspace/atlantis_fw/AsicFwS2/include/line2.h ****     }
  28:/home/tienluong/workspace/atlantis_fw/AsicFwS2/include/line2.h **** 
  29:/home/tienluong/workspace/atlantis_fw/AsicFwS2/include/line2.h ****     Line2( const Vec3<T> & line ) : _line( line )
  30:/home/tienluong/workspace/atlantis_fw/AsicFwS2/include/line2.h ****     {
  31:/home/tienluong/workspace/atlantis_fw/AsicFwS2/include/line2.h ****         assert( isValidLine() );//, "Not a valid line!" );
  32:/home/tienluong/workspace/atlantis_fw/AsicFwS2/include/line2.h ****         normalize();
  33:/home/tienluong/workspace/atlantis_fw/AsicFwS2/include/line2.h ****     }
  34:/home/tienluong/workspace/atlantis_fw/AsicFwS2/include/line2.h **** 
  35:/home/tienluong/workspace/atlantis_fw/AsicFwS2/include/line2.h ****     /// Project a point to the line.
  36:/home/tienluong/workspace/atlantis_fw/AsicFwS2/include/line2.h ****     /// we are looking for a point pl such that pl = point + t * normal
  37:/home/tienluong/workspace/atlantis_fw/AsicFwS2/include/line2.h ****     /// and it needs to satisfy line equation a * x + b * y + c = 0
  38:/home/tienluong/workspace/atlantis_fw/AsicFwS2/include/line2.h ****     /// solve for t
  39:/home/tienluong/workspace/atlantis_fw/AsicFwS2/include/line2.h ****     /// a * (x + t * a) + b * (y + t * b) + c = 0
  40:/home/tienluong/workspace/atlantis_fw/AsicFwS2/include/line2.h ****     /// t * (a*a + b*b) = -c -by -ax
  41:/home/tienluong/workspace/atlantis_fw/AsicFwS2/include/line2.h ****     /// also, assume that this line is normalized -> 1 == a * a + b * b
  42:/home/tienluong/workspace/atlantis_fw/AsicFwS2/include/line2.h ****     Vec2<T> closest( const Vec2<T> & pt ) const
  43:/home/tienluong/workspace/atlantis_fw/AsicFwS2/include/line2.h ****     {
  44:/home/tienluong/workspace/atlantis_fw/AsicFwS2/include/line2.h ****         Vec2<T> dir( _line.x(), _line.y() );
  45:/home/tienluong/workspace/atlantis_fw/AsicFwS2/include/line2.h ****         T t = _line.z() + dot( dir, pt );
  46:/home/tienluong/workspace/atlantis_fw/AsicFwS2/include/line2.h ****         return pt - t * dir;
  47:/home/tienluong/workspace/atlantis_fw/AsicFwS2/include/line2.h ****     }
  48:/home/tienluong/workspace/atlantis_fw/AsicFwS2/include/line2.h **** 
  49:/home/tienluong/workspace/atlantis_fw/AsicFwS2/include/line2.h ****     /// Find the x coordinate given y coordinate.
  50:/home/tienluong/workspace/atlantis_fw/AsicFwS2/include/line2.h ****     T xGivenY( T y ) const
  51:/home/tienluong/workspace/atlantis_fw/AsicFwS2/include/line2.h ****     {
  52:/home/tienluong/workspace/atlantis_fw/AsicFwS2/include/line2.h ****         //LT_ASSERT( abs( _line.x() ) > kEps10x, "Can't solve x coordinate for a horiontal line" );
  53:/home/tienluong/workspace/atlantis_fw/AsicFwS2/include/line2.h ****         assert(std::abs( _line.x() ) > kEps10x);
  54:/home/tienluong/workspace/atlantis_fw/AsicFwS2/include/line2.h ****         return -( _line.y() * y + _line.z() ) / _line.x();
  55:/home/tienluong/workspace/atlantis_fw/AsicFwS2/include/line2.h ****     }
  56:/home/tienluong/workspace/atlantis_fw/AsicFwS2/include/line2.h **** 
  57:/home/tienluong/workspace/atlantis_fw/AsicFwS2/include/line2.h ****     /// Find the y coordinate given x coordinate.
  58:/home/tienluong/workspace/atlantis_fw/AsicFwS2/include/line2.h ****     T yGivenX( T x ) const
  59:/home/tienluong/workspace/atlantis_fw/AsicFwS2/include/line2.h ****     {
  60:/home/tienluong/workspace/atlantis_fw/AsicFwS2/include/line2.h ****         //LT_ASSERT( abs( _line.y() ) > kEps10x, "Can't solve y coordinate for a vertical line" );
  61:/home/tienluong/workspace/atlantis_fw/AsicFwS2/include/line2.h ****         assert(std::abs( _line.y() ) > kEps10x);
  62:/home/tienluong/workspace/atlantis_fw/AsicFwS2/include/line2.h ****         return -( _line.x() * x + _line.z() ) / _line.y();
  63:/home/tienluong/workspace/atlantis_fw/AsicFwS2/include/line2.h ****     }
  64:/home/tienluong/workspace/atlantis_fw/AsicFwS2/include/line2.h **** 
  65:/home/tienluong/workspace/atlantis_fw/AsicFwS2/include/line2.h **** 
  66:/home/tienluong/workspace/atlantis_fw/AsicFwS2/include/line2.h ****     /// Distance. Assume (a,b) is normalized.
  67:/home/tienluong/workspace/atlantis_fw/AsicFwS2/include/line2.h ****     T dist( const Vec2<T> & p )       const { return std::abs( dot( _line, Vec3<T>( p.x(), p.y(), T
  68:/home/tienluong/workspace/atlantis_fw/AsicFwS2/include/line2.h **** 
  69:/home/tienluong/workspace/atlantis_fw/AsicFwS2/include/line2.h ****     T x() const {return _line.x();}
  70:/home/tienluong/workspace/atlantis_fw/AsicFwS2/include/line2.h ****     T y() const {return _line.y();}
  71:/home/tienluong/workspace/atlantis_fw/AsicFwS2/include/line2.h ****     T z() const {return _line.z();}
  72:/home/tienluong/workspace/atlantis_fw/AsicFwS2/include/line2.h **** 
  73:/home/tienluong/workspace/atlantis_fw/AsicFwS2/include/line2.h ****     static constexpr T kEps10x = 10 * std::numeric_limits<T>::epsilon();
  74:/home/tienluong/workspace/atlantis_fw/AsicFwS2/include/line2.h **** 
  75:/home/tienluong/workspace/atlantis_fw/AsicFwS2/include/line2.h **** private:
  76:/home/tienluong/workspace/atlantis_fw/AsicFwS2/include/line2.h **** 
  77:/home/tienluong/workspace/atlantis_fw/AsicFwS2/include/line2.h ****     bool isValidLine() const { return std::abs( _line.x() ) > kEps10x || std::abs( _line.y() ) > kE
 5065              		.loc 8 77 0
 5066 0034 874C     		ldr	r4, .L201+12
 5067              	.LBE1899:
 5068              	.LBE1898:
 5069              	.LBE1897:
 5070              	.LBE1896:
 5071              	.LBE1940:
 5072              	.LBE1944:
  93:/home/tienluong/workspace/atlantis_fw/AsicFwS2/src/calibclasses.cpp **** 
 5073              		.loc 4 93 0
 5074 0036 CDE90601 		strd	r0, [sp, #24]
 5075 003a 2B20     		movs	r0, #43
 5076 003c 1021     		movs	r1, #16
 5077 003e 9847     		blx	r3
 5078              	.LVL637:
 5079              	.LBB1945:
 5080              	.LBB1941:
 5081              	.LBB1934:
 5082              	.LBB1893:
 229:/home/tienluong/workspace/atlantis_fw/AsicFwS2/include/matrix.h ****     Vec3( const Vec3 & t ) : _x( t._x ), _y( t._y ), _z( t._z ) {}
 5083              		.loc 2 229 0
 5084 0040 349B     		ldr	r3, [sp, #208]	@ float
 5085              	.LBE1893:
 5086              	.LBE1934:
 137:/home/tienluong/workspace/atlantis_fw/AsicFwS2/include/calibclasses.h **** 
 138:/home/tienluong/workspace/atlantis_fw/AsicFwS2/include/calibclasses.h ****     const MirrorSysParam & mirror_sys_param() const             {return _mirror_sys_param;}
 139:/home/tienluong/workspace/atlantis_fw/AsicFwS2/include/calibclasses.h ****     const MirrorActuatorMapping & mirror_act_mapping() const    {return _mirror_act_mapping;}
 140:/home/tienluong/workspace/atlantis_fw/AsicFwS2/include/calibclasses.h **** 
 141:/home/tienluong/workspace/atlantis_fw/AsicFwS2/include/calibclasses.h **** private:
 142:/home/tienluong/workspace/atlantis_fw/AsicFwS2/include/calibclasses.h ****     MirrorSysParam _mirror_sys_param;
 143:/home/tienluong/workspace/atlantis_fw/AsicFwS2/include/calibclasses.h ****     MirrorActuatorMapping _mirror_act_mapping;
 144:/home/tienluong/workspace/atlantis_fw/AsicFwS2/include/calibclasses.h **** };
 145:/home/tienluong/workspace/atlantis_fw/AsicFwS2/include/calibclasses.h **** 
 146:/home/tienluong/workspace/atlantis_fw/AsicFwS2/include/calibclasses.h **** 
 147:/home/tienluong/workspace/atlantis_fw/AsicFwS2/include/calibclasses.h **** // ----------------------------------------------
 148:/home/tienluong/workspace/atlantis_fw/AsicFwS2/include/calibclasses.h **** // epifield
 149:/home/tienluong/workspace/atlantis_fw/AsicFwS2/include/calibclasses.h **** // ----------------------------------------------
 150:/home/tienluong/workspace/atlantis_fw/AsicFwS2/include/calibclasses.h **** class EpiField
 151:/home/tienluong/workspace/atlantis_fw/AsicFwS2/include/calibclasses.h **** {
 152:/home/tienluong/workspace/atlantis_fw/AsicFwS2/include/calibclasses.h **** public:
 153:/home/tienluong/workspace/atlantis_fw/AsicFwS2/include/calibclasses.h ****     EpiField(): _F( Matrix3x3f::Identity() ) {}
 154:/home/tienluong/workspace/atlantis_fw/AsicFwS2/include/calibclasses.h **** 
 155:/home/tienluong/workspace/atlantis_fw/AsicFwS2/include/calibclasses.h ****     EpiField( const CalibData & ref, const CalibData & src );
 156:/home/tienluong/workspace/atlantis_fw/AsicFwS2/include/calibclasses.h **** 
 157:/home/tienluong/workspace/atlantis_fw/AsicFwS2/include/calibclasses.h ****     void setup( const CalibData & ref, const CalibData & src );
 158:/home/tienluong/workspace/atlantis_fw/AsicFwS2/include/calibclasses.h **** 
 159:/home/tienluong/workspace/atlantis_fw/AsicFwS2/include/calibclasses.h ****     inline Line2f operator()( float x, float y ) const { return Line2f( _F * Vec3f( x, y, 1.0f ) );
 5087              		.loc 1 159 0
 5088 0042 2946     		mov	r1, r5
 5089 0044 21A8     		add	r0, sp, #132
 5090              	.LBB1935:
 5091              	.LBB1894:
 229:/home/tienluong/workspace/atlantis_fw/AsicFwS2/include/matrix.h ****     Vec3( const Vec3 & t ) : _x( t._x ), _y( t._y ), _z( t._z ) {}
 5092              		.loc 2 229 0
 5093 0046 1993     		str	r3, [sp, #100]	@ float
 5094              	.LBE1894:
 5095              	.LBE1935:
 5096              		.loc 1 159 0
 5097 0048 18AA     		add	r2, sp, #96
 5098              	.LVL638:
 5099 004a 834B     		ldr	r3, .L201+16
 5100              	.LBB1936:
 5101              	.LBB1895:
 229:/home/tienluong/workspace/atlantis_fw/AsicFwS2/include/matrix.h ****     Vec3( const Vec3 & t ) : _x( t._x ), _y( t._y ), _z( t._z ) {}
 5102              		.loc 2 229 0
 5103 004c 1896     		str	r6, [sp, #96]	@ float
 5104 004e 1A97     		str	r7, [sp, #104]	@ float
 5105              	.LBE1895:
 5106              	.LBE1936:
 5107              		.loc 1 159 0
 5108 0050 9847     		blx	r3
 5109              	.LVL639:
 5110              	.LBB1937:
 5111              	.LBB1931:
 5112              	.LBB1908:
 5113              	.LBB1909:
 230:/home/tienluong/workspace/atlantis_fw/AsicFwS2/include/matrix.h **** 
 5114              		.loc 2 230 0
 5115 0052 DDF88480 		ldr	r8, [sp, #132]	@ float
 5116 0056 239B     		ldr	r3, [sp, #140]	@ float
 5117 0058 0893     		str	r3, [sp, #32]	@ float
 5118              	.LVL640:
 5119              	.LBE1909:
 5120              	.LBE1908:
 5121              	.LBB1911:
 5122              	.LBB1906:
 5123              	.LBB1900:
 5124              	.LBB1901:
 5125              		.file 9 "/opt/toolchains/gcc-arm-none-eabi-4_9-2015q1/arm-none-eabi/include/c++/4.9.3/cmath"
   1:/opt/toolchains/gcc-arm-none-eabi-4_9-2015q1/arm-none-eabi/include/c++/4.9.3/cmath **** // -*- C++ -*- C forwarding header.
   2:/opt/toolchains/gcc-arm-none-eabi-4_9-2015q1/arm-none-eabi/include/c++/4.9.3/cmath **** 
   3:/opt/toolchains/gcc-arm-none-eabi-4_9-2015q1/arm-none-eabi/include/c++/4.9.3/cmath **** // Copyright (C) 1997-2014 Free Software Foundation, Inc.
   4:/opt/toolchains/gcc-arm-none-eabi-4_9-2015q1/arm-none-eabi/include/c++/4.9.3/cmath **** //
   5:/opt/toolchains/gcc-arm-none-eabi-4_9-2015q1/arm-none-eabi/include/c++/4.9.3/cmath **** // This file is part of the GNU ISO C++ Library.  This library is free
   6:/opt/toolchains/gcc-arm-none-eabi-4_9-2015q1/arm-none-eabi/include/c++/4.9.3/cmath **** // software; you can redistribute it and/or modify it under the
   7:/opt/toolchains/gcc-arm-none-eabi-4_9-2015q1/arm-none-eabi/include/c++/4.9.3/cmath **** // terms of the GNU General Public License as published by the
   8:/opt/toolchains/gcc-arm-none-eabi-4_9-2015q1/arm-none-eabi/include/c++/4.9.3/cmath **** // Free Software Foundation; either version 3, or (at your option)
   9:/opt/toolchains/gcc-arm-none-eabi-4_9-2015q1/arm-none-eabi/include/c++/4.9.3/cmath **** // any later version.
  10:/opt/toolchains/gcc-arm-none-eabi-4_9-2015q1/arm-none-eabi/include/c++/4.9.3/cmath **** 
  11:/opt/toolchains/gcc-arm-none-eabi-4_9-2015q1/arm-none-eabi/include/c++/4.9.3/cmath **** // This library is distributed in the hope that it will be useful,
  12:/opt/toolchains/gcc-arm-none-eabi-4_9-2015q1/arm-none-eabi/include/c++/4.9.3/cmath **** // but WITHOUT ANY WARRANTY; without even the implied warranty of
  13:/opt/toolchains/gcc-arm-none-eabi-4_9-2015q1/arm-none-eabi/include/c++/4.9.3/cmath **** // MERCHANTABILITY or FITNESS FOR A PARTICULAR PURPOSE.  See the
  14:/opt/toolchains/gcc-arm-none-eabi-4_9-2015q1/arm-none-eabi/include/c++/4.9.3/cmath **** // GNU General Public License for more details.
  15:/opt/toolchains/gcc-arm-none-eabi-4_9-2015q1/arm-none-eabi/include/c++/4.9.3/cmath **** 
  16:/opt/toolchains/gcc-arm-none-eabi-4_9-2015q1/arm-none-eabi/include/c++/4.9.3/cmath **** // Under Section 7 of GPL version 3, you are granted additional
  17:/opt/toolchains/gcc-arm-none-eabi-4_9-2015q1/arm-none-eabi/include/c++/4.9.3/cmath **** // permissions described in the GCC Runtime Library Exception, version
  18:/opt/toolchains/gcc-arm-none-eabi-4_9-2015q1/arm-none-eabi/include/c++/4.9.3/cmath **** // 3.1, as published by the Free Software Foundation.
  19:/opt/toolchains/gcc-arm-none-eabi-4_9-2015q1/arm-none-eabi/include/c++/4.9.3/cmath **** 
  20:/opt/toolchains/gcc-arm-none-eabi-4_9-2015q1/arm-none-eabi/include/c++/4.9.3/cmath **** // You should have received a copy of the GNU General Public License and
  21:/opt/toolchains/gcc-arm-none-eabi-4_9-2015q1/arm-none-eabi/include/c++/4.9.3/cmath **** // a copy of the GCC Runtime Library Exception along with this program;
  22:/opt/toolchains/gcc-arm-none-eabi-4_9-2015q1/arm-none-eabi/include/c++/4.9.3/cmath **** // see the files COPYING3 and COPYING.RUNTIME respectively.  If not, see
  23:/opt/toolchains/gcc-arm-none-eabi-4_9-2015q1/arm-none-eabi/include/c++/4.9.3/cmath **** // <http://www.gnu.org/licenses/>.
  24:/opt/toolchains/gcc-arm-none-eabi-4_9-2015q1/arm-none-eabi/include/c++/4.9.3/cmath **** 
  25:/opt/toolchains/gcc-arm-none-eabi-4_9-2015q1/arm-none-eabi/include/c++/4.9.3/cmath **** /** @file include/cmath
  26:/opt/toolchains/gcc-arm-none-eabi-4_9-2015q1/arm-none-eabi/include/c++/4.9.3/cmath ****  *  This is a Standard C++ Library file.  You should @c \#include this file
  27:/opt/toolchains/gcc-arm-none-eabi-4_9-2015q1/arm-none-eabi/include/c++/4.9.3/cmath ****  *  in your programs, rather than any of the @a *.h implementation files.
  28:/opt/toolchains/gcc-arm-none-eabi-4_9-2015q1/arm-none-eabi/include/c++/4.9.3/cmath ****  *
  29:/opt/toolchains/gcc-arm-none-eabi-4_9-2015q1/arm-none-eabi/include/c++/4.9.3/cmath ****  *  This is the C++ version of the Standard C Library header @c math.h,
  30:/opt/toolchains/gcc-arm-none-eabi-4_9-2015q1/arm-none-eabi/include/c++/4.9.3/cmath ****  *  and its contents are (mostly) the same as that header, but are all
  31:/opt/toolchains/gcc-arm-none-eabi-4_9-2015q1/arm-none-eabi/include/c++/4.9.3/cmath ****  *  contained in the namespace @c std (except for names which are defined
  32:/opt/toolchains/gcc-arm-none-eabi-4_9-2015q1/arm-none-eabi/include/c++/4.9.3/cmath ****  *  as macros in C).
  33:/opt/toolchains/gcc-arm-none-eabi-4_9-2015q1/arm-none-eabi/include/c++/4.9.3/cmath ****  */
  34:/opt/toolchains/gcc-arm-none-eabi-4_9-2015q1/arm-none-eabi/include/c++/4.9.3/cmath **** 
  35:/opt/toolchains/gcc-arm-none-eabi-4_9-2015q1/arm-none-eabi/include/c++/4.9.3/cmath **** //
  36:/opt/toolchains/gcc-arm-none-eabi-4_9-2015q1/arm-none-eabi/include/c++/4.9.3/cmath **** // ISO C++ 14882: 26.5  C library
  37:/opt/toolchains/gcc-arm-none-eabi-4_9-2015q1/arm-none-eabi/include/c++/4.9.3/cmath **** //
  38:/opt/toolchains/gcc-arm-none-eabi-4_9-2015q1/arm-none-eabi/include/c++/4.9.3/cmath **** 
  39:/opt/toolchains/gcc-arm-none-eabi-4_9-2015q1/arm-none-eabi/include/c++/4.9.3/cmath **** #pragma GCC system_header
  40:/opt/toolchains/gcc-arm-none-eabi-4_9-2015q1/arm-none-eabi/include/c++/4.9.3/cmath **** 
  41:/opt/toolchains/gcc-arm-none-eabi-4_9-2015q1/arm-none-eabi/include/c++/4.9.3/cmath **** #include <bits/c++config.h>
  42:/opt/toolchains/gcc-arm-none-eabi-4_9-2015q1/arm-none-eabi/include/c++/4.9.3/cmath **** #include <bits/cpp_type_traits.h>
  43:/opt/toolchains/gcc-arm-none-eabi-4_9-2015q1/arm-none-eabi/include/c++/4.9.3/cmath **** #include <ext/type_traits.h>
  44:/opt/toolchains/gcc-arm-none-eabi-4_9-2015q1/arm-none-eabi/include/c++/4.9.3/cmath **** #include <math.h>
  45:/opt/toolchains/gcc-arm-none-eabi-4_9-2015q1/arm-none-eabi/include/c++/4.9.3/cmath **** 
  46:/opt/toolchains/gcc-arm-none-eabi-4_9-2015q1/arm-none-eabi/include/c++/4.9.3/cmath **** #ifndef _GLIBCXX_CMATH
  47:/opt/toolchains/gcc-arm-none-eabi-4_9-2015q1/arm-none-eabi/include/c++/4.9.3/cmath **** #define _GLIBCXX_CMATH 1
  48:/opt/toolchains/gcc-arm-none-eabi-4_9-2015q1/arm-none-eabi/include/c++/4.9.3/cmath **** 
  49:/opt/toolchains/gcc-arm-none-eabi-4_9-2015q1/arm-none-eabi/include/c++/4.9.3/cmath **** // Get rid of those macros defined in <math.h> in lieu of real functions.
  50:/opt/toolchains/gcc-arm-none-eabi-4_9-2015q1/arm-none-eabi/include/c++/4.9.3/cmath **** #undef abs
  51:/opt/toolchains/gcc-arm-none-eabi-4_9-2015q1/arm-none-eabi/include/c++/4.9.3/cmath **** #undef div
  52:/opt/toolchains/gcc-arm-none-eabi-4_9-2015q1/arm-none-eabi/include/c++/4.9.3/cmath **** #undef acos
  53:/opt/toolchains/gcc-arm-none-eabi-4_9-2015q1/arm-none-eabi/include/c++/4.9.3/cmath **** #undef asin
  54:/opt/toolchains/gcc-arm-none-eabi-4_9-2015q1/arm-none-eabi/include/c++/4.9.3/cmath **** #undef atan
  55:/opt/toolchains/gcc-arm-none-eabi-4_9-2015q1/arm-none-eabi/include/c++/4.9.3/cmath **** #undef atan2
  56:/opt/toolchains/gcc-arm-none-eabi-4_9-2015q1/arm-none-eabi/include/c++/4.9.3/cmath **** #undef ceil
  57:/opt/toolchains/gcc-arm-none-eabi-4_9-2015q1/arm-none-eabi/include/c++/4.9.3/cmath **** #undef cos
  58:/opt/toolchains/gcc-arm-none-eabi-4_9-2015q1/arm-none-eabi/include/c++/4.9.3/cmath **** #undef cosh
  59:/opt/toolchains/gcc-arm-none-eabi-4_9-2015q1/arm-none-eabi/include/c++/4.9.3/cmath **** #undef exp
  60:/opt/toolchains/gcc-arm-none-eabi-4_9-2015q1/arm-none-eabi/include/c++/4.9.3/cmath **** #undef fabs
  61:/opt/toolchains/gcc-arm-none-eabi-4_9-2015q1/arm-none-eabi/include/c++/4.9.3/cmath **** #undef floor
  62:/opt/toolchains/gcc-arm-none-eabi-4_9-2015q1/arm-none-eabi/include/c++/4.9.3/cmath **** #undef fmod
  63:/opt/toolchains/gcc-arm-none-eabi-4_9-2015q1/arm-none-eabi/include/c++/4.9.3/cmath **** #undef frexp
  64:/opt/toolchains/gcc-arm-none-eabi-4_9-2015q1/arm-none-eabi/include/c++/4.9.3/cmath **** #undef ldexp
  65:/opt/toolchains/gcc-arm-none-eabi-4_9-2015q1/arm-none-eabi/include/c++/4.9.3/cmath **** #undef log
  66:/opt/toolchains/gcc-arm-none-eabi-4_9-2015q1/arm-none-eabi/include/c++/4.9.3/cmath **** #undef log10
  67:/opt/toolchains/gcc-arm-none-eabi-4_9-2015q1/arm-none-eabi/include/c++/4.9.3/cmath **** #undef modf
  68:/opt/toolchains/gcc-arm-none-eabi-4_9-2015q1/arm-none-eabi/include/c++/4.9.3/cmath **** #undef pow
  69:/opt/toolchains/gcc-arm-none-eabi-4_9-2015q1/arm-none-eabi/include/c++/4.9.3/cmath **** #undef sin
  70:/opt/toolchains/gcc-arm-none-eabi-4_9-2015q1/arm-none-eabi/include/c++/4.9.3/cmath **** #undef sinh
  71:/opt/toolchains/gcc-arm-none-eabi-4_9-2015q1/arm-none-eabi/include/c++/4.9.3/cmath **** #undef sqrt
  72:/opt/toolchains/gcc-arm-none-eabi-4_9-2015q1/arm-none-eabi/include/c++/4.9.3/cmath **** #undef tan
  73:/opt/toolchains/gcc-arm-none-eabi-4_9-2015q1/arm-none-eabi/include/c++/4.9.3/cmath **** #undef tanh
  74:/opt/toolchains/gcc-arm-none-eabi-4_9-2015q1/arm-none-eabi/include/c++/4.9.3/cmath **** 
  75:/opt/toolchains/gcc-arm-none-eabi-4_9-2015q1/arm-none-eabi/include/c++/4.9.3/cmath **** namespace std _GLIBCXX_VISIBILITY(default)
  76:/opt/toolchains/gcc-arm-none-eabi-4_9-2015q1/arm-none-eabi/include/c++/4.9.3/cmath **** {
  77:/opt/toolchains/gcc-arm-none-eabi-4_9-2015q1/arm-none-eabi/include/c++/4.9.3/cmath **** _GLIBCXX_BEGIN_NAMESPACE_VERSION
  78:/opt/toolchains/gcc-arm-none-eabi-4_9-2015q1/arm-none-eabi/include/c++/4.9.3/cmath **** 
  79:/opt/toolchains/gcc-arm-none-eabi-4_9-2015q1/arm-none-eabi/include/c++/4.9.3/cmath **** #ifndef __CORRECT_ISO_CPP_MATH_H_PROTO
  80:/opt/toolchains/gcc-arm-none-eabi-4_9-2015q1/arm-none-eabi/include/c++/4.9.3/cmath ****   inline _GLIBCXX_CONSTEXPR double
  81:/opt/toolchains/gcc-arm-none-eabi-4_9-2015q1/arm-none-eabi/include/c++/4.9.3/cmath ****   abs(double __x)
  82:/opt/toolchains/gcc-arm-none-eabi-4_9-2015q1/arm-none-eabi/include/c++/4.9.3/cmath ****   { return __builtin_fabs(__x); }
  83:/opt/toolchains/gcc-arm-none-eabi-4_9-2015q1/arm-none-eabi/include/c++/4.9.3/cmath **** #endif
  84:/opt/toolchains/gcc-arm-none-eabi-4_9-2015q1/arm-none-eabi/include/c++/4.9.3/cmath **** 
  85:/opt/toolchains/gcc-arm-none-eabi-4_9-2015q1/arm-none-eabi/include/c++/4.9.3/cmath **** #ifndef __CORRECT_ISO_CPP_MATH_H_PROTO
  86:/opt/toolchains/gcc-arm-none-eabi-4_9-2015q1/arm-none-eabi/include/c++/4.9.3/cmath ****   inline _GLIBCXX_CONSTEXPR float
  87:/opt/toolchains/gcc-arm-none-eabi-4_9-2015q1/arm-none-eabi/include/c++/4.9.3/cmath ****   abs(float __x)
  88:/opt/toolchains/gcc-arm-none-eabi-4_9-2015q1/arm-none-eabi/include/c++/4.9.3/cmath ****   { return __builtin_fabsf(__x); }
 5126              		.loc 9 88 0
 5127 005a 28F00040 		bic	r0, r8, #-2147483648
 5128              	.LBE1901:
 5129              	.LBE1900:
 5130              		.loc 8 77 0
 5131 005e 7F49     		ldr	r1, .L201+20
 5132 0060 A047     		blx	r4
 5133              	.LVL641:
 5134              	.LBE1906:
 5135              	.LBE1911:
 5136              	.LBB1912:
 5137              	.LBB1910:
 230:/home/tienluong/workspace/atlantis_fw/AsicFwS2/include/matrix.h **** 
 5138              		.loc 2 230 0
 5139 0062 229D     		ldr	r5, [sp, #136]	@ float
 5140              	.LVL642:
 5141 0064 0A97     		str	r7, [sp, #40]	@ float
 5142              	.LBE1910:
 5143              	.LBE1912:
 5144              	.LBB1913:
 5145              	.LBB1907:
 5146              		.loc 8 77 0
 5147 0066 30B9     		cbnz	r0, .L191
 5148              	.LVL643:
 5149              	.LBB1902:
 5150              	.LBB1903:
 5151              	.LBB1904:
 5152              	.LBB1905:
 5153              		.loc 9 88 0
 5154 0068 25F00040 		bic	r0, r5, #-2147483648
 5155              	.LBE1905:
 5156              	.LBE1904:
 5157              		.loc 8 77 0
 5158 006c 7B49     		ldr	r1, .L201+20
 5159 006e A047     		blx	r4
 5160              	.LVL644:
 5161 0070 0028     		cmp	r0, #0
 5162 0072 00F08C81 		beq	.L198
 5163              	.LVL645:
 5164              	.L191:
 5165              	.LBE1903:
 5166              	.LBE1902:
 5167              	.LBE1907:
 5168              	.LBE1913:
 5169              	.LBB1914:
 5170              	.LBB1915:
 5171              	.LBB1916:
 5172              	.LBB1917:
 5173              	.LBB1918:
 5174              	.LBB1919:
 110:/home/tienluong/workspace/atlantis_fw/AsicFwS2/include/matrix.h **** 
 5175              		.loc 2 110 0
 5176 0076 7A4C     		ldr	r4, .L201+24
 5177 0078 4146     		mov	r1, r8
 5178 007a 4046     		mov	r0, r8
 5179 007c A047     		blx	r4
 5180              	.LVL646:
 5181 007e 2946     		mov	r1, r5
 5182 0080 784F     		ldr	r7, .L201+28
 5183 0082 8346     		mov	fp, r0
 5184 0084 2846     		mov	r0, r5
 5185 0086 A047     		blx	r4
 5186              	.LVL647:
 5187 0088 0146     		mov	r1, r0
 5188 008a 5846     		mov	r0, fp
 5189 008c B847     		blx	r7
 5190              	.LVL648:
 5191              	.LBE1919:
 5192              	.LBE1918:
 5193              	.LBE1917:
 5194              	.LBB1920:
 5195              	.LBB1921:
  89:/opt/toolchains/gcc-arm-none-eabi-4_9-2015q1/arm-none-eabi/include/c++/4.9.3/cmath **** 
  90:/opt/toolchains/gcc-arm-none-eabi-4_9-2015q1/arm-none-eabi/include/c++/4.9.3/cmath ****   inline _GLIBCXX_CONSTEXPR long double
  91:/opt/toolchains/gcc-arm-none-eabi-4_9-2015q1/arm-none-eabi/include/c++/4.9.3/cmath ****   abs(long double __x)
  92:/opt/toolchains/gcc-arm-none-eabi-4_9-2015q1/arm-none-eabi/include/c++/4.9.3/cmath ****   { return __builtin_fabsl(__x); }
  93:/opt/toolchains/gcc-arm-none-eabi-4_9-2015q1/arm-none-eabi/include/c++/4.9.3/cmath **** #endif
  94:/opt/toolchains/gcc-arm-none-eabi-4_9-2015q1/arm-none-eabi/include/c++/4.9.3/cmath **** 
  95:/opt/toolchains/gcc-arm-none-eabi-4_9-2015q1/arm-none-eabi/include/c++/4.9.3/cmath ****   template<typename _Tp>
  96:/opt/toolchains/gcc-arm-none-eabi-4_9-2015q1/arm-none-eabi/include/c++/4.9.3/cmath ****     inline _GLIBCXX_CONSTEXPR
  97:/opt/toolchains/gcc-arm-none-eabi-4_9-2015q1/arm-none-eabi/include/c++/4.9.3/cmath ****     typename __gnu_cxx::__enable_if<__is_integer<_Tp>::__value,
  98:/opt/toolchains/gcc-arm-none-eabi-4_9-2015q1/arm-none-eabi/include/c++/4.9.3/cmath ****                                     double>::__type
  99:/opt/toolchains/gcc-arm-none-eabi-4_9-2015q1/arm-none-eabi/include/c++/4.9.3/cmath ****     abs(_Tp __x)
 100:/opt/toolchains/gcc-arm-none-eabi-4_9-2015q1/arm-none-eabi/include/c++/4.9.3/cmath ****     { return __builtin_fabs(__x); }
 101:/opt/toolchains/gcc-arm-none-eabi-4_9-2015q1/arm-none-eabi/include/c++/4.9.3/cmath **** 
 102:/opt/toolchains/gcc-arm-none-eabi-4_9-2015q1/arm-none-eabi/include/c++/4.9.3/cmath ****   using ::acos;
 103:/opt/toolchains/gcc-arm-none-eabi-4_9-2015q1/arm-none-eabi/include/c++/4.9.3/cmath **** 
 104:/opt/toolchains/gcc-arm-none-eabi-4_9-2015q1/arm-none-eabi/include/c++/4.9.3/cmath **** #ifndef __CORRECT_ISO_CPP_MATH_H_PROTO
 105:/opt/toolchains/gcc-arm-none-eabi-4_9-2015q1/arm-none-eabi/include/c++/4.9.3/cmath ****   inline _GLIBCXX_CONSTEXPR float
 106:/opt/toolchains/gcc-arm-none-eabi-4_9-2015q1/arm-none-eabi/include/c++/4.9.3/cmath ****   acos(float __x)
 107:/opt/toolchains/gcc-arm-none-eabi-4_9-2015q1/arm-none-eabi/include/c++/4.9.3/cmath ****   { return __builtin_acosf(__x); }
 108:/opt/toolchains/gcc-arm-none-eabi-4_9-2015q1/arm-none-eabi/include/c++/4.9.3/cmath **** 
 109:/opt/toolchains/gcc-arm-none-eabi-4_9-2015q1/arm-none-eabi/include/c++/4.9.3/cmath ****   inline _GLIBCXX_CONSTEXPR long double
 110:/opt/toolchains/gcc-arm-none-eabi-4_9-2015q1/arm-none-eabi/include/c++/4.9.3/cmath ****   acos(long double __x)
 111:/opt/toolchains/gcc-arm-none-eabi-4_9-2015q1/arm-none-eabi/include/c++/4.9.3/cmath ****   { return __builtin_acosl(__x); }
 112:/opt/toolchains/gcc-arm-none-eabi-4_9-2015q1/arm-none-eabi/include/c++/4.9.3/cmath **** #endif
 113:/opt/toolchains/gcc-arm-none-eabi-4_9-2015q1/arm-none-eabi/include/c++/4.9.3/cmath **** 
 114:/opt/toolchains/gcc-arm-none-eabi-4_9-2015q1/arm-none-eabi/include/c++/4.9.3/cmath ****   template<typename _Tp>
 115:/opt/toolchains/gcc-arm-none-eabi-4_9-2015q1/arm-none-eabi/include/c++/4.9.3/cmath ****     inline _GLIBCXX_CONSTEXPR
 116:/opt/toolchains/gcc-arm-none-eabi-4_9-2015q1/arm-none-eabi/include/c++/4.9.3/cmath ****     typename __gnu_cxx::__enable_if<__is_integer<_Tp>::__value, 
 117:/opt/toolchains/gcc-arm-none-eabi-4_9-2015q1/arm-none-eabi/include/c++/4.9.3/cmath ****                                     double>::__type
 118:/opt/toolchains/gcc-arm-none-eabi-4_9-2015q1/arm-none-eabi/include/c++/4.9.3/cmath ****     acos(_Tp __x)
 119:/opt/toolchains/gcc-arm-none-eabi-4_9-2015q1/arm-none-eabi/include/c++/4.9.3/cmath ****     { return __builtin_acos(__x); }
 120:/opt/toolchains/gcc-arm-none-eabi-4_9-2015q1/arm-none-eabi/include/c++/4.9.3/cmath **** 
 121:/opt/toolchains/gcc-arm-none-eabi-4_9-2015q1/arm-none-eabi/include/c++/4.9.3/cmath ****   using ::asin;
 122:/opt/toolchains/gcc-arm-none-eabi-4_9-2015q1/arm-none-eabi/include/c++/4.9.3/cmath **** 
 123:/opt/toolchains/gcc-arm-none-eabi-4_9-2015q1/arm-none-eabi/include/c++/4.9.3/cmath **** #ifndef __CORRECT_ISO_CPP_MATH_H_PROTO
 124:/opt/toolchains/gcc-arm-none-eabi-4_9-2015q1/arm-none-eabi/include/c++/4.9.3/cmath ****   inline _GLIBCXX_CONSTEXPR float
 125:/opt/toolchains/gcc-arm-none-eabi-4_9-2015q1/arm-none-eabi/include/c++/4.9.3/cmath ****   asin(float __x)
 126:/opt/toolchains/gcc-arm-none-eabi-4_9-2015q1/arm-none-eabi/include/c++/4.9.3/cmath ****   { return __builtin_asinf(__x); }
 127:/opt/toolchains/gcc-arm-none-eabi-4_9-2015q1/arm-none-eabi/include/c++/4.9.3/cmath **** 
 128:/opt/toolchains/gcc-arm-none-eabi-4_9-2015q1/arm-none-eabi/include/c++/4.9.3/cmath ****   inline _GLIBCXX_CONSTEXPR long double
 129:/opt/toolchains/gcc-arm-none-eabi-4_9-2015q1/arm-none-eabi/include/c++/4.9.3/cmath ****   asin(long double __x)
 130:/opt/toolchains/gcc-arm-none-eabi-4_9-2015q1/arm-none-eabi/include/c++/4.9.3/cmath ****   { return __builtin_asinl(__x); }
 131:/opt/toolchains/gcc-arm-none-eabi-4_9-2015q1/arm-none-eabi/include/c++/4.9.3/cmath **** #endif
 132:/opt/toolchains/gcc-arm-none-eabi-4_9-2015q1/arm-none-eabi/include/c++/4.9.3/cmath **** 
 133:/opt/toolchains/gcc-arm-none-eabi-4_9-2015q1/arm-none-eabi/include/c++/4.9.3/cmath ****   template<typename _Tp>
 134:/opt/toolchains/gcc-arm-none-eabi-4_9-2015q1/arm-none-eabi/include/c++/4.9.3/cmath ****     inline _GLIBCXX_CONSTEXPR
 135:/opt/toolchains/gcc-arm-none-eabi-4_9-2015q1/arm-none-eabi/include/c++/4.9.3/cmath ****     typename __gnu_cxx::__enable_if<__is_integer<_Tp>::__value,
 136:/opt/toolchains/gcc-arm-none-eabi-4_9-2015q1/arm-none-eabi/include/c++/4.9.3/cmath ****                                     double>::__type
 137:/opt/toolchains/gcc-arm-none-eabi-4_9-2015q1/arm-none-eabi/include/c++/4.9.3/cmath ****     asin(_Tp __x)
 138:/opt/toolchains/gcc-arm-none-eabi-4_9-2015q1/arm-none-eabi/include/c++/4.9.3/cmath ****     { return __builtin_asin(__x); }
 139:/opt/toolchains/gcc-arm-none-eabi-4_9-2015q1/arm-none-eabi/include/c++/4.9.3/cmath **** 
 140:/opt/toolchains/gcc-arm-none-eabi-4_9-2015q1/arm-none-eabi/include/c++/4.9.3/cmath ****   using ::atan;
 141:/opt/toolchains/gcc-arm-none-eabi-4_9-2015q1/arm-none-eabi/include/c++/4.9.3/cmath **** 
 142:/opt/toolchains/gcc-arm-none-eabi-4_9-2015q1/arm-none-eabi/include/c++/4.9.3/cmath **** #ifndef __CORRECT_ISO_CPP_MATH_H_PROTO
 143:/opt/toolchains/gcc-arm-none-eabi-4_9-2015q1/arm-none-eabi/include/c++/4.9.3/cmath ****   inline _GLIBCXX_CONSTEXPR float
 144:/opt/toolchains/gcc-arm-none-eabi-4_9-2015q1/arm-none-eabi/include/c++/4.9.3/cmath ****   atan(float __x)
 145:/opt/toolchains/gcc-arm-none-eabi-4_9-2015q1/arm-none-eabi/include/c++/4.9.3/cmath ****   { return __builtin_atanf(__x); }
 146:/opt/toolchains/gcc-arm-none-eabi-4_9-2015q1/arm-none-eabi/include/c++/4.9.3/cmath **** 
 147:/opt/toolchains/gcc-arm-none-eabi-4_9-2015q1/arm-none-eabi/include/c++/4.9.3/cmath ****   inline _GLIBCXX_CONSTEXPR long double
 148:/opt/toolchains/gcc-arm-none-eabi-4_9-2015q1/arm-none-eabi/include/c++/4.9.3/cmath ****   atan(long double __x)
 149:/opt/toolchains/gcc-arm-none-eabi-4_9-2015q1/arm-none-eabi/include/c++/4.9.3/cmath ****   { return __builtin_atanl(__x); }
 150:/opt/toolchains/gcc-arm-none-eabi-4_9-2015q1/arm-none-eabi/include/c++/4.9.3/cmath **** #endif
 151:/opt/toolchains/gcc-arm-none-eabi-4_9-2015q1/arm-none-eabi/include/c++/4.9.3/cmath **** 
 152:/opt/toolchains/gcc-arm-none-eabi-4_9-2015q1/arm-none-eabi/include/c++/4.9.3/cmath ****   template<typename _Tp>
 153:/opt/toolchains/gcc-arm-none-eabi-4_9-2015q1/arm-none-eabi/include/c++/4.9.3/cmath ****     inline _GLIBCXX_CONSTEXPR
 154:/opt/toolchains/gcc-arm-none-eabi-4_9-2015q1/arm-none-eabi/include/c++/4.9.3/cmath ****     typename __gnu_cxx::__enable_if<__is_integer<_Tp>::__value,
 155:/opt/toolchains/gcc-arm-none-eabi-4_9-2015q1/arm-none-eabi/include/c++/4.9.3/cmath ****                                     double>::__type
 156:/opt/toolchains/gcc-arm-none-eabi-4_9-2015q1/arm-none-eabi/include/c++/4.9.3/cmath ****     atan(_Tp __x)
 157:/opt/toolchains/gcc-arm-none-eabi-4_9-2015q1/arm-none-eabi/include/c++/4.9.3/cmath ****     { return __builtin_atan(__x); }
 158:/opt/toolchains/gcc-arm-none-eabi-4_9-2015q1/arm-none-eabi/include/c++/4.9.3/cmath **** 
 159:/opt/toolchains/gcc-arm-none-eabi-4_9-2015q1/arm-none-eabi/include/c++/4.9.3/cmath ****   using ::atan2;
 160:/opt/toolchains/gcc-arm-none-eabi-4_9-2015q1/arm-none-eabi/include/c++/4.9.3/cmath **** 
 161:/opt/toolchains/gcc-arm-none-eabi-4_9-2015q1/arm-none-eabi/include/c++/4.9.3/cmath **** #ifndef __CORRECT_ISO_CPP_MATH_H_PROTO
 162:/opt/toolchains/gcc-arm-none-eabi-4_9-2015q1/arm-none-eabi/include/c++/4.9.3/cmath ****   inline _GLIBCXX_CONSTEXPR float
 163:/opt/toolchains/gcc-arm-none-eabi-4_9-2015q1/arm-none-eabi/include/c++/4.9.3/cmath ****   atan2(float __y, float __x)
 164:/opt/toolchains/gcc-arm-none-eabi-4_9-2015q1/arm-none-eabi/include/c++/4.9.3/cmath ****   { return __builtin_atan2f(__y, __x); }
 165:/opt/toolchains/gcc-arm-none-eabi-4_9-2015q1/arm-none-eabi/include/c++/4.9.3/cmath **** 
 166:/opt/toolchains/gcc-arm-none-eabi-4_9-2015q1/arm-none-eabi/include/c++/4.9.3/cmath ****   inline _GLIBCXX_CONSTEXPR long double
 167:/opt/toolchains/gcc-arm-none-eabi-4_9-2015q1/arm-none-eabi/include/c++/4.9.3/cmath ****   atan2(long double __y, long double __x)
 168:/opt/toolchains/gcc-arm-none-eabi-4_9-2015q1/arm-none-eabi/include/c++/4.9.3/cmath ****   { return __builtin_atan2l(__y, __x); }
 169:/opt/toolchains/gcc-arm-none-eabi-4_9-2015q1/arm-none-eabi/include/c++/4.9.3/cmath **** #endif
 170:/opt/toolchains/gcc-arm-none-eabi-4_9-2015q1/arm-none-eabi/include/c++/4.9.3/cmath **** 
 171:/opt/toolchains/gcc-arm-none-eabi-4_9-2015q1/arm-none-eabi/include/c++/4.9.3/cmath ****   template<typename _Tp, typename _Up>
 172:/opt/toolchains/gcc-arm-none-eabi-4_9-2015q1/arm-none-eabi/include/c++/4.9.3/cmath ****     inline _GLIBCXX_CONSTEXPR
 173:/opt/toolchains/gcc-arm-none-eabi-4_9-2015q1/arm-none-eabi/include/c++/4.9.3/cmath ****     typename __gnu_cxx::__promote_2<_Tp, _Up>::__type
 174:/opt/toolchains/gcc-arm-none-eabi-4_9-2015q1/arm-none-eabi/include/c++/4.9.3/cmath ****     atan2(_Tp __y, _Up __x)
 175:/opt/toolchains/gcc-arm-none-eabi-4_9-2015q1/arm-none-eabi/include/c++/4.9.3/cmath ****     {
 176:/opt/toolchains/gcc-arm-none-eabi-4_9-2015q1/arm-none-eabi/include/c++/4.9.3/cmath ****       typedef typename __gnu_cxx::__promote_2<_Tp, _Up>::__type __type;
 177:/opt/toolchains/gcc-arm-none-eabi-4_9-2015q1/arm-none-eabi/include/c++/4.9.3/cmath ****       return atan2(__type(__y), __type(__x));
 178:/opt/toolchains/gcc-arm-none-eabi-4_9-2015q1/arm-none-eabi/include/c++/4.9.3/cmath ****     }
 179:/opt/toolchains/gcc-arm-none-eabi-4_9-2015q1/arm-none-eabi/include/c++/4.9.3/cmath **** 
 180:/opt/toolchains/gcc-arm-none-eabi-4_9-2015q1/arm-none-eabi/include/c++/4.9.3/cmath ****   using ::ceil;
 181:/opt/toolchains/gcc-arm-none-eabi-4_9-2015q1/arm-none-eabi/include/c++/4.9.3/cmath **** 
 182:/opt/toolchains/gcc-arm-none-eabi-4_9-2015q1/arm-none-eabi/include/c++/4.9.3/cmath **** #ifndef __CORRECT_ISO_CPP_MATH_H_PROTO
 183:/opt/toolchains/gcc-arm-none-eabi-4_9-2015q1/arm-none-eabi/include/c++/4.9.3/cmath ****   inline _GLIBCXX_CONSTEXPR float
 184:/opt/toolchains/gcc-arm-none-eabi-4_9-2015q1/arm-none-eabi/include/c++/4.9.3/cmath ****   ceil(float __x)
 185:/opt/toolchains/gcc-arm-none-eabi-4_9-2015q1/arm-none-eabi/include/c++/4.9.3/cmath ****   { return __builtin_ceilf(__x); }
 186:/opt/toolchains/gcc-arm-none-eabi-4_9-2015q1/arm-none-eabi/include/c++/4.9.3/cmath **** 
 187:/opt/toolchains/gcc-arm-none-eabi-4_9-2015q1/arm-none-eabi/include/c++/4.9.3/cmath ****   inline _GLIBCXX_CONSTEXPR long double
 188:/opt/toolchains/gcc-arm-none-eabi-4_9-2015q1/arm-none-eabi/include/c++/4.9.3/cmath ****   ceil(long double __x)
 189:/opt/toolchains/gcc-arm-none-eabi-4_9-2015q1/arm-none-eabi/include/c++/4.9.3/cmath ****   { return __builtin_ceill(__x); }
 190:/opt/toolchains/gcc-arm-none-eabi-4_9-2015q1/arm-none-eabi/include/c++/4.9.3/cmath **** #endif
 191:/opt/toolchains/gcc-arm-none-eabi-4_9-2015q1/arm-none-eabi/include/c++/4.9.3/cmath **** 
 192:/opt/toolchains/gcc-arm-none-eabi-4_9-2015q1/arm-none-eabi/include/c++/4.9.3/cmath ****   template<typename _Tp>
 193:/opt/toolchains/gcc-arm-none-eabi-4_9-2015q1/arm-none-eabi/include/c++/4.9.3/cmath ****     inline _GLIBCXX_CONSTEXPR
 194:/opt/toolchains/gcc-arm-none-eabi-4_9-2015q1/arm-none-eabi/include/c++/4.9.3/cmath ****     typename __gnu_cxx::__enable_if<__is_integer<_Tp>::__value, 
 195:/opt/toolchains/gcc-arm-none-eabi-4_9-2015q1/arm-none-eabi/include/c++/4.9.3/cmath ****                                     double>::__type
 196:/opt/toolchains/gcc-arm-none-eabi-4_9-2015q1/arm-none-eabi/include/c++/4.9.3/cmath ****     ceil(_Tp __x)
 197:/opt/toolchains/gcc-arm-none-eabi-4_9-2015q1/arm-none-eabi/include/c++/4.9.3/cmath ****     { return __builtin_ceil(__x); }
 198:/opt/toolchains/gcc-arm-none-eabi-4_9-2015q1/arm-none-eabi/include/c++/4.9.3/cmath **** 
 199:/opt/toolchains/gcc-arm-none-eabi-4_9-2015q1/arm-none-eabi/include/c++/4.9.3/cmath ****   using ::cos;
 200:/opt/toolchains/gcc-arm-none-eabi-4_9-2015q1/arm-none-eabi/include/c++/4.9.3/cmath **** 
 201:/opt/toolchains/gcc-arm-none-eabi-4_9-2015q1/arm-none-eabi/include/c++/4.9.3/cmath **** #ifndef __CORRECT_ISO_CPP_MATH_H_PROTO
 202:/opt/toolchains/gcc-arm-none-eabi-4_9-2015q1/arm-none-eabi/include/c++/4.9.3/cmath ****   inline _GLIBCXX_CONSTEXPR float
 203:/opt/toolchains/gcc-arm-none-eabi-4_9-2015q1/arm-none-eabi/include/c++/4.9.3/cmath ****   cos(float __x)
 204:/opt/toolchains/gcc-arm-none-eabi-4_9-2015q1/arm-none-eabi/include/c++/4.9.3/cmath ****   { return __builtin_cosf(__x); }
 205:/opt/toolchains/gcc-arm-none-eabi-4_9-2015q1/arm-none-eabi/include/c++/4.9.3/cmath **** 
 206:/opt/toolchains/gcc-arm-none-eabi-4_9-2015q1/arm-none-eabi/include/c++/4.9.3/cmath ****   inline _GLIBCXX_CONSTEXPR long double
 207:/opt/toolchains/gcc-arm-none-eabi-4_9-2015q1/arm-none-eabi/include/c++/4.9.3/cmath ****   cos(long double __x)
 208:/opt/toolchains/gcc-arm-none-eabi-4_9-2015q1/arm-none-eabi/include/c++/4.9.3/cmath ****   { return __builtin_cosl(__x); }
 209:/opt/toolchains/gcc-arm-none-eabi-4_9-2015q1/arm-none-eabi/include/c++/4.9.3/cmath **** #endif
 210:/opt/toolchains/gcc-arm-none-eabi-4_9-2015q1/arm-none-eabi/include/c++/4.9.3/cmath **** 
 211:/opt/toolchains/gcc-arm-none-eabi-4_9-2015q1/arm-none-eabi/include/c++/4.9.3/cmath ****   template<typename _Tp>
 212:/opt/toolchains/gcc-arm-none-eabi-4_9-2015q1/arm-none-eabi/include/c++/4.9.3/cmath ****     inline _GLIBCXX_CONSTEXPR
 213:/opt/toolchains/gcc-arm-none-eabi-4_9-2015q1/arm-none-eabi/include/c++/4.9.3/cmath ****     typename __gnu_cxx::__enable_if<__is_integer<_Tp>::__value,
 214:/opt/toolchains/gcc-arm-none-eabi-4_9-2015q1/arm-none-eabi/include/c++/4.9.3/cmath ****                                     double>::__type
 215:/opt/toolchains/gcc-arm-none-eabi-4_9-2015q1/arm-none-eabi/include/c++/4.9.3/cmath ****     cos(_Tp __x)
 216:/opt/toolchains/gcc-arm-none-eabi-4_9-2015q1/arm-none-eabi/include/c++/4.9.3/cmath ****     { return __builtin_cos(__x); }
 217:/opt/toolchains/gcc-arm-none-eabi-4_9-2015q1/arm-none-eabi/include/c++/4.9.3/cmath **** 
 218:/opt/toolchains/gcc-arm-none-eabi-4_9-2015q1/arm-none-eabi/include/c++/4.9.3/cmath ****   using ::cosh;
 219:/opt/toolchains/gcc-arm-none-eabi-4_9-2015q1/arm-none-eabi/include/c++/4.9.3/cmath **** 
 220:/opt/toolchains/gcc-arm-none-eabi-4_9-2015q1/arm-none-eabi/include/c++/4.9.3/cmath **** #ifndef __CORRECT_ISO_CPP_MATH_H_PROTO
 221:/opt/toolchains/gcc-arm-none-eabi-4_9-2015q1/arm-none-eabi/include/c++/4.9.3/cmath ****   inline _GLIBCXX_CONSTEXPR float
 222:/opt/toolchains/gcc-arm-none-eabi-4_9-2015q1/arm-none-eabi/include/c++/4.9.3/cmath ****   cosh(float __x)
 223:/opt/toolchains/gcc-arm-none-eabi-4_9-2015q1/arm-none-eabi/include/c++/4.9.3/cmath ****   { return __builtin_coshf(__x); }
 224:/opt/toolchains/gcc-arm-none-eabi-4_9-2015q1/arm-none-eabi/include/c++/4.9.3/cmath **** 
 225:/opt/toolchains/gcc-arm-none-eabi-4_9-2015q1/arm-none-eabi/include/c++/4.9.3/cmath ****   inline _GLIBCXX_CONSTEXPR long double
 226:/opt/toolchains/gcc-arm-none-eabi-4_9-2015q1/arm-none-eabi/include/c++/4.9.3/cmath ****   cosh(long double __x)
 227:/opt/toolchains/gcc-arm-none-eabi-4_9-2015q1/arm-none-eabi/include/c++/4.9.3/cmath ****   { return __builtin_coshl(__x); }
 228:/opt/toolchains/gcc-arm-none-eabi-4_9-2015q1/arm-none-eabi/include/c++/4.9.3/cmath **** #endif
 229:/opt/toolchains/gcc-arm-none-eabi-4_9-2015q1/arm-none-eabi/include/c++/4.9.3/cmath **** 
 230:/opt/toolchains/gcc-arm-none-eabi-4_9-2015q1/arm-none-eabi/include/c++/4.9.3/cmath ****   template<typename _Tp>
 231:/opt/toolchains/gcc-arm-none-eabi-4_9-2015q1/arm-none-eabi/include/c++/4.9.3/cmath ****     inline _GLIBCXX_CONSTEXPR
 232:/opt/toolchains/gcc-arm-none-eabi-4_9-2015q1/arm-none-eabi/include/c++/4.9.3/cmath ****     typename __gnu_cxx::__enable_if<__is_integer<_Tp>::__value,
 233:/opt/toolchains/gcc-arm-none-eabi-4_9-2015q1/arm-none-eabi/include/c++/4.9.3/cmath ****                                     double>::__type
 234:/opt/toolchains/gcc-arm-none-eabi-4_9-2015q1/arm-none-eabi/include/c++/4.9.3/cmath ****     cosh(_Tp __x)
 235:/opt/toolchains/gcc-arm-none-eabi-4_9-2015q1/arm-none-eabi/include/c++/4.9.3/cmath ****     { return __builtin_cosh(__x); }
 236:/opt/toolchains/gcc-arm-none-eabi-4_9-2015q1/arm-none-eabi/include/c++/4.9.3/cmath **** 
 237:/opt/toolchains/gcc-arm-none-eabi-4_9-2015q1/arm-none-eabi/include/c++/4.9.3/cmath ****   using ::exp;
 238:/opt/toolchains/gcc-arm-none-eabi-4_9-2015q1/arm-none-eabi/include/c++/4.9.3/cmath **** 
 239:/opt/toolchains/gcc-arm-none-eabi-4_9-2015q1/arm-none-eabi/include/c++/4.9.3/cmath **** #ifndef __CORRECT_ISO_CPP_MATH_H_PROTO
 240:/opt/toolchains/gcc-arm-none-eabi-4_9-2015q1/arm-none-eabi/include/c++/4.9.3/cmath ****   inline _GLIBCXX_CONSTEXPR float
 241:/opt/toolchains/gcc-arm-none-eabi-4_9-2015q1/arm-none-eabi/include/c++/4.9.3/cmath ****   exp(float __x)
 242:/opt/toolchains/gcc-arm-none-eabi-4_9-2015q1/arm-none-eabi/include/c++/4.9.3/cmath ****   { return __builtin_expf(__x); }
 243:/opt/toolchains/gcc-arm-none-eabi-4_9-2015q1/arm-none-eabi/include/c++/4.9.3/cmath **** 
 244:/opt/toolchains/gcc-arm-none-eabi-4_9-2015q1/arm-none-eabi/include/c++/4.9.3/cmath ****   inline _GLIBCXX_CONSTEXPR long double
 245:/opt/toolchains/gcc-arm-none-eabi-4_9-2015q1/arm-none-eabi/include/c++/4.9.3/cmath ****   exp(long double __x)
 246:/opt/toolchains/gcc-arm-none-eabi-4_9-2015q1/arm-none-eabi/include/c++/4.9.3/cmath ****   { return __builtin_expl(__x); }
 247:/opt/toolchains/gcc-arm-none-eabi-4_9-2015q1/arm-none-eabi/include/c++/4.9.3/cmath **** #endif
 248:/opt/toolchains/gcc-arm-none-eabi-4_9-2015q1/arm-none-eabi/include/c++/4.9.3/cmath **** 
 249:/opt/toolchains/gcc-arm-none-eabi-4_9-2015q1/arm-none-eabi/include/c++/4.9.3/cmath ****   template<typename _Tp>
 250:/opt/toolchains/gcc-arm-none-eabi-4_9-2015q1/arm-none-eabi/include/c++/4.9.3/cmath ****     inline _GLIBCXX_CONSTEXPR
 251:/opt/toolchains/gcc-arm-none-eabi-4_9-2015q1/arm-none-eabi/include/c++/4.9.3/cmath ****     typename __gnu_cxx::__enable_if<__is_integer<_Tp>::__value,
 252:/opt/toolchains/gcc-arm-none-eabi-4_9-2015q1/arm-none-eabi/include/c++/4.9.3/cmath ****                                     double>::__type
 253:/opt/toolchains/gcc-arm-none-eabi-4_9-2015q1/arm-none-eabi/include/c++/4.9.3/cmath ****     exp(_Tp __x)
 254:/opt/toolchains/gcc-arm-none-eabi-4_9-2015q1/arm-none-eabi/include/c++/4.9.3/cmath ****     { return __builtin_exp(__x); }
 255:/opt/toolchains/gcc-arm-none-eabi-4_9-2015q1/arm-none-eabi/include/c++/4.9.3/cmath **** 
 256:/opt/toolchains/gcc-arm-none-eabi-4_9-2015q1/arm-none-eabi/include/c++/4.9.3/cmath ****   using ::fabs;
 257:/opt/toolchains/gcc-arm-none-eabi-4_9-2015q1/arm-none-eabi/include/c++/4.9.3/cmath **** 
 258:/opt/toolchains/gcc-arm-none-eabi-4_9-2015q1/arm-none-eabi/include/c++/4.9.3/cmath **** #ifndef __CORRECT_ISO_CPP_MATH_H_PROTO
 259:/opt/toolchains/gcc-arm-none-eabi-4_9-2015q1/arm-none-eabi/include/c++/4.9.3/cmath ****   inline _GLIBCXX_CONSTEXPR float
 260:/opt/toolchains/gcc-arm-none-eabi-4_9-2015q1/arm-none-eabi/include/c++/4.9.3/cmath ****   fabs(float __x)
 261:/opt/toolchains/gcc-arm-none-eabi-4_9-2015q1/arm-none-eabi/include/c++/4.9.3/cmath ****   { return __builtin_fabsf(__x); }
 262:/opt/toolchains/gcc-arm-none-eabi-4_9-2015q1/arm-none-eabi/include/c++/4.9.3/cmath **** 
 263:/opt/toolchains/gcc-arm-none-eabi-4_9-2015q1/arm-none-eabi/include/c++/4.9.3/cmath ****   inline _GLIBCXX_CONSTEXPR long double
 264:/opt/toolchains/gcc-arm-none-eabi-4_9-2015q1/arm-none-eabi/include/c++/4.9.3/cmath ****   fabs(long double __x)
 265:/opt/toolchains/gcc-arm-none-eabi-4_9-2015q1/arm-none-eabi/include/c++/4.9.3/cmath ****   { return __builtin_fabsl(__x); }
 266:/opt/toolchains/gcc-arm-none-eabi-4_9-2015q1/arm-none-eabi/include/c++/4.9.3/cmath **** #endif
 267:/opt/toolchains/gcc-arm-none-eabi-4_9-2015q1/arm-none-eabi/include/c++/4.9.3/cmath **** 
 268:/opt/toolchains/gcc-arm-none-eabi-4_9-2015q1/arm-none-eabi/include/c++/4.9.3/cmath ****   template<typename _Tp>
 269:/opt/toolchains/gcc-arm-none-eabi-4_9-2015q1/arm-none-eabi/include/c++/4.9.3/cmath ****     inline _GLIBCXX_CONSTEXPR
 270:/opt/toolchains/gcc-arm-none-eabi-4_9-2015q1/arm-none-eabi/include/c++/4.9.3/cmath ****     typename __gnu_cxx::__enable_if<__is_integer<_Tp>::__value,
 271:/opt/toolchains/gcc-arm-none-eabi-4_9-2015q1/arm-none-eabi/include/c++/4.9.3/cmath ****                                     double>::__type
 272:/opt/toolchains/gcc-arm-none-eabi-4_9-2015q1/arm-none-eabi/include/c++/4.9.3/cmath ****     fabs(_Tp __x)
 273:/opt/toolchains/gcc-arm-none-eabi-4_9-2015q1/arm-none-eabi/include/c++/4.9.3/cmath ****     { return __builtin_fabs(__x); }
 274:/opt/toolchains/gcc-arm-none-eabi-4_9-2015q1/arm-none-eabi/include/c++/4.9.3/cmath **** 
 275:/opt/toolchains/gcc-arm-none-eabi-4_9-2015q1/arm-none-eabi/include/c++/4.9.3/cmath ****   using ::floor;
 276:/opt/toolchains/gcc-arm-none-eabi-4_9-2015q1/arm-none-eabi/include/c++/4.9.3/cmath **** 
 277:/opt/toolchains/gcc-arm-none-eabi-4_9-2015q1/arm-none-eabi/include/c++/4.9.3/cmath **** #ifndef __CORRECT_ISO_CPP_MATH_H_PROTO
 278:/opt/toolchains/gcc-arm-none-eabi-4_9-2015q1/arm-none-eabi/include/c++/4.9.3/cmath ****   inline _GLIBCXX_CONSTEXPR float
 279:/opt/toolchains/gcc-arm-none-eabi-4_9-2015q1/arm-none-eabi/include/c++/4.9.3/cmath ****   floor(float __x)
 280:/opt/toolchains/gcc-arm-none-eabi-4_9-2015q1/arm-none-eabi/include/c++/4.9.3/cmath ****   { return __builtin_floorf(__x); }
 281:/opt/toolchains/gcc-arm-none-eabi-4_9-2015q1/arm-none-eabi/include/c++/4.9.3/cmath **** 
 282:/opt/toolchains/gcc-arm-none-eabi-4_9-2015q1/arm-none-eabi/include/c++/4.9.3/cmath ****   inline _GLIBCXX_CONSTEXPR long double
 283:/opt/toolchains/gcc-arm-none-eabi-4_9-2015q1/arm-none-eabi/include/c++/4.9.3/cmath ****   floor(long double __x)
 284:/opt/toolchains/gcc-arm-none-eabi-4_9-2015q1/arm-none-eabi/include/c++/4.9.3/cmath ****   { return __builtin_floorl(__x); }
 285:/opt/toolchains/gcc-arm-none-eabi-4_9-2015q1/arm-none-eabi/include/c++/4.9.3/cmath **** #endif
 286:/opt/toolchains/gcc-arm-none-eabi-4_9-2015q1/arm-none-eabi/include/c++/4.9.3/cmath **** 
 287:/opt/toolchains/gcc-arm-none-eabi-4_9-2015q1/arm-none-eabi/include/c++/4.9.3/cmath ****   template<typename _Tp>
 288:/opt/toolchains/gcc-arm-none-eabi-4_9-2015q1/arm-none-eabi/include/c++/4.9.3/cmath ****     inline _GLIBCXX_CONSTEXPR
 289:/opt/toolchains/gcc-arm-none-eabi-4_9-2015q1/arm-none-eabi/include/c++/4.9.3/cmath ****     typename __gnu_cxx::__enable_if<__is_integer<_Tp>::__value,
 290:/opt/toolchains/gcc-arm-none-eabi-4_9-2015q1/arm-none-eabi/include/c++/4.9.3/cmath ****                                     double>::__type
 291:/opt/toolchains/gcc-arm-none-eabi-4_9-2015q1/arm-none-eabi/include/c++/4.9.3/cmath ****     floor(_Tp __x)
 292:/opt/toolchains/gcc-arm-none-eabi-4_9-2015q1/arm-none-eabi/include/c++/4.9.3/cmath ****     { return __builtin_floor(__x); }
 293:/opt/toolchains/gcc-arm-none-eabi-4_9-2015q1/arm-none-eabi/include/c++/4.9.3/cmath **** 
 294:/opt/toolchains/gcc-arm-none-eabi-4_9-2015q1/arm-none-eabi/include/c++/4.9.3/cmath ****   using ::fmod;
 295:/opt/toolchains/gcc-arm-none-eabi-4_9-2015q1/arm-none-eabi/include/c++/4.9.3/cmath **** 
 296:/opt/toolchains/gcc-arm-none-eabi-4_9-2015q1/arm-none-eabi/include/c++/4.9.3/cmath **** #ifndef __CORRECT_ISO_CPP_MATH_H_PROTO
 297:/opt/toolchains/gcc-arm-none-eabi-4_9-2015q1/arm-none-eabi/include/c++/4.9.3/cmath ****   inline _GLIBCXX_CONSTEXPR float
 298:/opt/toolchains/gcc-arm-none-eabi-4_9-2015q1/arm-none-eabi/include/c++/4.9.3/cmath ****   fmod(float __x, float __y)
 299:/opt/toolchains/gcc-arm-none-eabi-4_9-2015q1/arm-none-eabi/include/c++/4.9.3/cmath ****   { return __builtin_fmodf(__x, __y); }
 300:/opt/toolchains/gcc-arm-none-eabi-4_9-2015q1/arm-none-eabi/include/c++/4.9.3/cmath **** 
 301:/opt/toolchains/gcc-arm-none-eabi-4_9-2015q1/arm-none-eabi/include/c++/4.9.3/cmath ****   inline _GLIBCXX_CONSTEXPR long double
 302:/opt/toolchains/gcc-arm-none-eabi-4_9-2015q1/arm-none-eabi/include/c++/4.9.3/cmath ****   fmod(long double __x, long double __y)
 303:/opt/toolchains/gcc-arm-none-eabi-4_9-2015q1/arm-none-eabi/include/c++/4.9.3/cmath ****   { return __builtin_fmodl(__x, __y); }
 304:/opt/toolchains/gcc-arm-none-eabi-4_9-2015q1/arm-none-eabi/include/c++/4.9.3/cmath **** #endif
 305:/opt/toolchains/gcc-arm-none-eabi-4_9-2015q1/arm-none-eabi/include/c++/4.9.3/cmath **** 
 306:/opt/toolchains/gcc-arm-none-eabi-4_9-2015q1/arm-none-eabi/include/c++/4.9.3/cmath ****   template<typename _Tp, typename _Up>
 307:/opt/toolchains/gcc-arm-none-eabi-4_9-2015q1/arm-none-eabi/include/c++/4.9.3/cmath ****     inline _GLIBCXX_CONSTEXPR
 308:/opt/toolchains/gcc-arm-none-eabi-4_9-2015q1/arm-none-eabi/include/c++/4.9.3/cmath ****     typename __gnu_cxx::__promote_2<_Tp, _Up>::__type
 309:/opt/toolchains/gcc-arm-none-eabi-4_9-2015q1/arm-none-eabi/include/c++/4.9.3/cmath ****     fmod(_Tp __x, _Up __y)
 310:/opt/toolchains/gcc-arm-none-eabi-4_9-2015q1/arm-none-eabi/include/c++/4.9.3/cmath ****     {
 311:/opt/toolchains/gcc-arm-none-eabi-4_9-2015q1/arm-none-eabi/include/c++/4.9.3/cmath ****       typedef typename __gnu_cxx::__promote_2<_Tp, _Up>::__type __type;
 312:/opt/toolchains/gcc-arm-none-eabi-4_9-2015q1/arm-none-eabi/include/c++/4.9.3/cmath ****       return fmod(__type(__x), __type(__y));
 313:/opt/toolchains/gcc-arm-none-eabi-4_9-2015q1/arm-none-eabi/include/c++/4.9.3/cmath ****     }
 314:/opt/toolchains/gcc-arm-none-eabi-4_9-2015q1/arm-none-eabi/include/c++/4.9.3/cmath **** 
 315:/opt/toolchains/gcc-arm-none-eabi-4_9-2015q1/arm-none-eabi/include/c++/4.9.3/cmath ****   using ::frexp;
 316:/opt/toolchains/gcc-arm-none-eabi-4_9-2015q1/arm-none-eabi/include/c++/4.9.3/cmath **** 
 317:/opt/toolchains/gcc-arm-none-eabi-4_9-2015q1/arm-none-eabi/include/c++/4.9.3/cmath **** #ifndef __CORRECT_ISO_CPP_MATH_H_PROTO
 318:/opt/toolchains/gcc-arm-none-eabi-4_9-2015q1/arm-none-eabi/include/c++/4.9.3/cmath ****   inline float
 319:/opt/toolchains/gcc-arm-none-eabi-4_9-2015q1/arm-none-eabi/include/c++/4.9.3/cmath ****   frexp(float __x, int* __exp)
 320:/opt/toolchains/gcc-arm-none-eabi-4_9-2015q1/arm-none-eabi/include/c++/4.9.3/cmath ****   { return __builtin_frexpf(__x, __exp); }
 321:/opt/toolchains/gcc-arm-none-eabi-4_9-2015q1/arm-none-eabi/include/c++/4.9.3/cmath **** 
 322:/opt/toolchains/gcc-arm-none-eabi-4_9-2015q1/arm-none-eabi/include/c++/4.9.3/cmath ****   inline long double
 323:/opt/toolchains/gcc-arm-none-eabi-4_9-2015q1/arm-none-eabi/include/c++/4.9.3/cmath ****   frexp(long double __x, int* __exp)
 324:/opt/toolchains/gcc-arm-none-eabi-4_9-2015q1/arm-none-eabi/include/c++/4.9.3/cmath ****   { return __builtin_frexpl(__x, __exp); }
 325:/opt/toolchains/gcc-arm-none-eabi-4_9-2015q1/arm-none-eabi/include/c++/4.9.3/cmath **** #endif
 326:/opt/toolchains/gcc-arm-none-eabi-4_9-2015q1/arm-none-eabi/include/c++/4.9.3/cmath **** 
 327:/opt/toolchains/gcc-arm-none-eabi-4_9-2015q1/arm-none-eabi/include/c++/4.9.3/cmath ****   template<typename _Tp>
 328:/opt/toolchains/gcc-arm-none-eabi-4_9-2015q1/arm-none-eabi/include/c++/4.9.3/cmath ****     inline _GLIBCXX_CONSTEXPR
 329:/opt/toolchains/gcc-arm-none-eabi-4_9-2015q1/arm-none-eabi/include/c++/4.9.3/cmath ****     typename __gnu_cxx::__enable_if<__is_integer<_Tp>::__value, 
 330:/opt/toolchains/gcc-arm-none-eabi-4_9-2015q1/arm-none-eabi/include/c++/4.9.3/cmath ****                                     double>::__type
 331:/opt/toolchains/gcc-arm-none-eabi-4_9-2015q1/arm-none-eabi/include/c++/4.9.3/cmath ****     frexp(_Tp __x, int* __exp)
 332:/opt/toolchains/gcc-arm-none-eabi-4_9-2015q1/arm-none-eabi/include/c++/4.9.3/cmath ****     { return __builtin_frexp(__x, __exp); }
 333:/opt/toolchains/gcc-arm-none-eabi-4_9-2015q1/arm-none-eabi/include/c++/4.9.3/cmath **** 
 334:/opt/toolchains/gcc-arm-none-eabi-4_9-2015q1/arm-none-eabi/include/c++/4.9.3/cmath ****   using ::ldexp;
 335:/opt/toolchains/gcc-arm-none-eabi-4_9-2015q1/arm-none-eabi/include/c++/4.9.3/cmath **** 
 336:/opt/toolchains/gcc-arm-none-eabi-4_9-2015q1/arm-none-eabi/include/c++/4.9.3/cmath **** #ifndef __CORRECT_ISO_CPP_MATH_H_PROTO
 337:/opt/toolchains/gcc-arm-none-eabi-4_9-2015q1/arm-none-eabi/include/c++/4.9.3/cmath ****   inline _GLIBCXX_CONSTEXPR float
 338:/opt/toolchains/gcc-arm-none-eabi-4_9-2015q1/arm-none-eabi/include/c++/4.9.3/cmath ****   ldexp(float __x, int __exp)
 339:/opt/toolchains/gcc-arm-none-eabi-4_9-2015q1/arm-none-eabi/include/c++/4.9.3/cmath ****   { return __builtin_ldexpf(__x, __exp); }
 340:/opt/toolchains/gcc-arm-none-eabi-4_9-2015q1/arm-none-eabi/include/c++/4.9.3/cmath **** 
 341:/opt/toolchains/gcc-arm-none-eabi-4_9-2015q1/arm-none-eabi/include/c++/4.9.3/cmath ****   inline _GLIBCXX_CONSTEXPR long double
 342:/opt/toolchains/gcc-arm-none-eabi-4_9-2015q1/arm-none-eabi/include/c++/4.9.3/cmath ****   ldexp(long double __x, int __exp)
 343:/opt/toolchains/gcc-arm-none-eabi-4_9-2015q1/arm-none-eabi/include/c++/4.9.3/cmath ****   { return __builtin_ldexpl(__x, __exp); }
 344:/opt/toolchains/gcc-arm-none-eabi-4_9-2015q1/arm-none-eabi/include/c++/4.9.3/cmath **** #endif
 345:/opt/toolchains/gcc-arm-none-eabi-4_9-2015q1/arm-none-eabi/include/c++/4.9.3/cmath **** 
 346:/opt/toolchains/gcc-arm-none-eabi-4_9-2015q1/arm-none-eabi/include/c++/4.9.3/cmath ****   template<typename _Tp>
 347:/opt/toolchains/gcc-arm-none-eabi-4_9-2015q1/arm-none-eabi/include/c++/4.9.3/cmath ****     inline _GLIBCXX_CONSTEXPR
 348:/opt/toolchains/gcc-arm-none-eabi-4_9-2015q1/arm-none-eabi/include/c++/4.9.3/cmath ****     typename __gnu_cxx::__enable_if<__is_integer<_Tp>::__value, 
 349:/opt/toolchains/gcc-arm-none-eabi-4_9-2015q1/arm-none-eabi/include/c++/4.9.3/cmath ****                                     double>::__type
 350:/opt/toolchains/gcc-arm-none-eabi-4_9-2015q1/arm-none-eabi/include/c++/4.9.3/cmath ****     ldexp(_Tp __x, int __exp)
 351:/opt/toolchains/gcc-arm-none-eabi-4_9-2015q1/arm-none-eabi/include/c++/4.9.3/cmath ****     { return __builtin_ldexp(__x, __exp); }
 352:/opt/toolchains/gcc-arm-none-eabi-4_9-2015q1/arm-none-eabi/include/c++/4.9.3/cmath **** 
 353:/opt/toolchains/gcc-arm-none-eabi-4_9-2015q1/arm-none-eabi/include/c++/4.9.3/cmath ****   using ::log;
 354:/opt/toolchains/gcc-arm-none-eabi-4_9-2015q1/arm-none-eabi/include/c++/4.9.3/cmath **** 
 355:/opt/toolchains/gcc-arm-none-eabi-4_9-2015q1/arm-none-eabi/include/c++/4.9.3/cmath **** #ifndef __CORRECT_ISO_CPP_MATH_H_PROTO
 356:/opt/toolchains/gcc-arm-none-eabi-4_9-2015q1/arm-none-eabi/include/c++/4.9.3/cmath ****   inline _GLIBCXX_CONSTEXPR float
 357:/opt/toolchains/gcc-arm-none-eabi-4_9-2015q1/arm-none-eabi/include/c++/4.9.3/cmath ****   log(float __x)
 358:/opt/toolchains/gcc-arm-none-eabi-4_9-2015q1/arm-none-eabi/include/c++/4.9.3/cmath ****   { return __builtin_logf(__x); }
 359:/opt/toolchains/gcc-arm-none-eabi-4_9-2015q1/arm-none-eabi/include/c++/4.9.3/cmath **** 
 360:/opt/toolchains/gcc-arm-none-eabi-4_9-2015q1/arm-none-eabi/include/c++/4.9.3/cmath ****   inline _GLIBCXX_CONSTEXPR long double
 361:/opt/toolchains/gcc-arm-none-eabi-4_9-2015q1/arm-none-eabi/include/c++/4.9.3/cmath ****   log(long double __x)
 362:/opt/toolchains/gcc-arm-none-eabi-4_9-2015q1/arm-none-eabi/include/c++/4.9.3/cmath ****   { return __builtin_logl(__x); }
 363:/opt/toolchains/gcc-arm-none-eabi-4_9-2015q1/arm-none-eabi/include/c++/4.9.3/cmath **** #endif
 364:/opt/toolchains/gcc-arm-none-eabi-4_9-2015q1/arm-none-eabi/include/c++/4.9.3/cmath **** 
 365:/opt/toolchains/gcc-arm-none-eabi-4_9-2015q1/arm-none-eabi/include/c++/4.9.3/cmath ****   template<typename _Tp>
 366:/opt/toolchains/gcc-arm-none-eabi-4_9-2015q1/arm-none-eabi/include/c++/4.9.3/cmath ****     inline _GLIBCXX_CONSTEXPR
 367:/opt/toolchains/gcc-arm-none-eabi-4_9-2015q1/arm-none-eabi/include/c++/4.9.3/cmath ****     typename __gnu_cxx::__enable_if<__is_integer<_Tp>::__value, 
 368:/opt/toolchains/gcc-arm-none-eabi-4_9-2015q1/arm-none-eabi/include/c++/4.9.3/cmath ****                                     double>::__type
 369:/opt/toolchains/gcc-arm-none-eabi-4_9-2015q1/arm-none-eabi/include/c++/4.9.3/cmath ****     log(_Tp __x)
 370:/opt/toolchains/gcc-arm-none-eabi-4_9-2015q1/arm-none-eabi/include/c++/4.9.3/cmath ****     { return __builtin_log(__x); }
 371:/opt/toolchains/gcc-arm-none-eabi-4_9-2015q1/arm-none-eabi/include/c++/4.9.3/cmath **** 
 372:/opt/toolchains/gcc-arm-none-eabi-4_9-2015q1/arm-none-eabi/include/c++/4.9.3/cmath ****   using ::log10;
 373:/opt/toolchains/gcc-arm-none-eabi-4_9-2015q1/arm-none-eabi/include/c++/4.9.3/cmath **** 
 374:/opt/toolchains/gcc-arm-none-eabi-4_9-2015q1/arm-none-eabi/include/c++/4.9.3/cmath **** #ifndef __CORRECT_ISO_CPP_MATH_H_PROTO
 375:/opt/toolchains/gcc-arm-none-eabi-4_9-2015q1/arm-none-eabi/include/c++/4.9.3/cmath ****   inline _GLIBCXX_CONSTEXPR float
 376:/opt/toolchains/gcc-arm-none-eabi-4_9-2015q1/arm-none-eabi/include/c++/4.9.3/cmath ****   log10(float __x)
 377:/opt/toolchains/gcc-arm-none-eabi-4_9-2015q1/arm-none-eabi/include/c++/4.9.3/cmath ****   { return __builtin_log10f(__x); }
 378:/opt/toolchains/gcc-arm-none-eabi-4_9-2015q1/arm-none-eabi/include/c++/4.9.3/cmath **** 
 379:/opt/toolchains/gcc-arm-none-eabi-4_9-2015q1/arm-none-eabi/include/c++/4.9.3/cmath ****   inline _GLIBCXX_CONSTEXPR long double
 380:/opt/toolchains/gcc-arm-none-eabi-4_9-2015q1/arm-none-eabi/include/c++/4.9.3/cmath ****   log10(long double __x)
 381:/opt/toolchains/gcc-arm-none-eabi-4_9-2015q1/arm-none-eabi/include/c++/4.9.3/cmath ****   { return __builtin_log10l(__x); }
 382:/opt/toolchains/gcc-arm-none-eabi-4_9-2015q1/arm-none-eabi/include/c++/4.9.3/cmath **** #endif
 383:/opt/toolchains/gcc-arm-none-eabi-4_9-2015q1/arm-none-eabi/include/c++/4.9.3/cmath **** 
 384:/opt/toolchains/gcc-arm-none-eabi-4_9-2015q1/arm-none-eabi/include/c++/4.9.3/cmath ****   template<typename _Tp>
 385:/opt/toolchains/gcc-arm-none-eabi-4_9-2015q1/arm-none-eabi/include/c++/4.9.3/cmath ****     inline _GLIBCXX_CONSTEXPR
 386:/opt/toolchains/gcc-arm-none-eabi-4_9-2015q1/arm-none-eabi/include/c++/4.9.3/cmath ****     typename __gnu_cxx::__enable_if<__is_integer<_Tp>::__value,
 387:/opt/toolchains/gcc-arm-none-eabi-4_9-2015q1/arm-none-eabi/include/c++/4.9.3/cmath ****                                     double>::__type
 388:/opt/toolchains/gcc-arm-none-eabi-4_9-2015q1/arm-none-eabi/include/c++/4.9.3/cmath ****     log10(_Tp __x)
 389:/opt/toolchains/gcc-arm-none-eabi-4_9-2015q1/arm-none-eabi/include/c++/4.9.3/cmath ****     { return __builtin_log10(__x); }
 390:/opt/toolchains/gcc-arm-none-eabi-4_9-2015q1/arm-none-eabi/include/c++/4.9.3/cmath **** 
 391:/opt/toolchains/gcc-arm-none-eabi-4_9-2015q1/arm-none-eabi/include/c++/4.9.3/cmath ****   using ::modf;
 392:/opt/toolchains/gcc-arm-none-eabi-4_9-2015q1/arm-none-eabi/include/c++/4.9.3/cmath **** 
 393:/opt/toolchains/gcc-arm-none-eabi-4_9-2015q1/arm-none-eabi/include/c++/4.9.3/cmath **** #ifndef __CORRECT_ISO_CPP_MATH_H_PROTO
 394:/opt/toolchains/gcc-arm-none-eabi-4_9-2015q1/arm-none-eabi/include/c++/4.9.3/cmath ****   inline float
 395:/opt/toolchains/gcc-arm-none-eabi-4_9-2015q1/arm-none-eabi/include/c++/4.9.3/cmath ****   modf(float __x, float* __iptr)
 396:/opt/toolchains/gcc-arm-none-eabi-4_9-2015q1/arm-none-eabi/include/c++/4.9.3/cmath ****   { return __builtin_modff(__x, __iptr); }
 397:/opt/toolchains/gcc-arm-none-eabi-4_9-2015q1/arm-none-eabi/include/c++/4.9.3/cmath **** 
 398:/opt/toolchains/gcc-arm-none-eabi-4_9-2015q1/arm-none-eabi/include/c++/4.9.3/cmath ****   inline long double
 399:/opt/toolchains/gcc-arm-none-eabi-4_9-2015q1/arm-none-eabi/include/c++/4.9.3/cmath ****   modf(long double __x, long double* __iptr)
 400:/opt/toolchains/gcc-arm-none-eabi-4_9-2015q1/arm-none-eabi/include/c++/4.9.3/cmath ****   { return __builtin_modfl(__x, __iptr); }
 401:/opt/toolchains/gcc-arm-none-eabi-4_9-2015q1/arm-none-eabi/include/c++/4.9.3/cmath **** #endif
 402:/opt/toolchains/gcc-arm-none-eabi-4_9-2015q1/arm-none-eabi/include/c++/4.9.3/cmath **** 
 403:/opt/toolchains/gcc-arm-none-eabi-4_9-2015q1/arm-none-eabi/include/c++/4.9.3/cmath ****   using ::pow;
 404:/opt/toolchains/gcc-arm-none-eabi-4_9-2015q1/arm-none-eabi/include/c++/4.9.3/cmath **** 
 405:/opt/toolchains/gcc-arm-none-eabi-4_9-2015q1/arm-none-eabi/include/c++/4.9.3/cmath **** #ifndef __CORRECT_ISO_CPP_MATH_H_PROTO
 406:/opt/toolchains/gcc-arm-none-eabi-4_9-2015q1/arm-none-eabi/include/c++/4.9.3/cmath ****   inline _GLIBCXX_CONSTEXPR float
 407:/opt/toolchains/gcc-arm-none-eabi-4_9-2015q1/arm-none-eabi/include/c++/4.9.3/cmath ****   pow(float __x, float __y)
 408:/opt/toolchains/gcc-arm-none-eabi-4_9-2015q1/arm-none-eabi/include/c++/4.9.3/cmath ****   { return __builtin_powf(__x, __y); }
 409:/opt/toolchains/gcc-arm-none-eabi-4_9-2015q1/arm-none-eabi/include/c++/4.9.3/cmath **** 
 410:/opt/toolchains/gcc-arm-none-eabi-4_9-2015q1/arm-none-eabi/include/c++/4.9.3/cmath ****   inline _GLIBCXX_CONSTEXPR long double
 411:/opt/toolchains/gcc-arm-none-eabi-4_9-2015q1/arm-none-eabi/include/c++/4.9.3/cmath ****   pow(long double __x, long double __y)
 412:/opt/toolchains/gcc-arm-none-eabi-4_9-2015q1/arm-none-eabi/include/c++/4.9.3/cmath ****   { return __builtin_powl(__x, __y); }
 413:/opt/toolchains/gcc-arm-none-eabi-4_9-2015q1/arm-none-eabi/include/c++/4.9.3/cmath **** 
 414:/opt/toolchains/gcc-arm-none-eabi-4_9-2015q1/arm-none-eabi/include/c++/4.9.3/cmath **** #if __cplusplus < 201103L
 415:/opt/toolchains/gcc-arm-none-eabi-4_9-2015q1/arm-none-eabi/include/c++/4.9.3/cmath ****   // _GLIBCXX_RESOLVE_LIB_DEFECTS
 416:/opt/toolchains/gcc-arm-none-eabi-4_9-2015q1/arm-none-eabi/include/c++/4.9.3/cmath ****   // DR 550. What should the return type of pow(float,int) be?
 417:/opt/toolchains/gcc-arm-none-eabi-4_9-2015q1/arm-none-eabi/include/c++/4.9.3/cmath ****   inline double
 418:/opt/toolchains/gcc-arm-none-eabi-4_9-2015q1/arm-none-eabi/include/c++/4.9.3/cmath ****   pow(double __x, int __i)
 419:/opt/toolchains/gcc-arm-none-eabi-4_9-2015q1/arm-none-eabi/include/c++/4.9.3/cmath ****   { return __builtin_powi(__x, __i); }
 420:/opt/toolchains/gcc-arm-none-eabi-4_9-2015q1/arm-none-eabi/include/c++/4.9.3/cmath **** 
 421:/opt/toolchains/gcc-arm-none-eabi-4_9-2015q1/arm-none-eabi/include/c++/4.9.3/cmath ****   inline float
 422:/opt/toolchains/gcc-arm-none-eabi-4_9-2015q1/arm-none-eabi/include/c++/4.9.3/cmath ****   pow(float __x, int __n)
 423:/opt/toolchains/gcc-arm-none-eabi-4_9-2015q1/arm-none-eabi/include/c++/4.9.3/cmath ****   { return __builtin_powif(__x, __n); }
 424:/opt/toolchains/gcc-arm-none-eabi-4_9-2015q1/arm-none-eabi/include/c++/4.9.3/cmath **** 
 425:/opt/toolchains/gcc-arm-none-eabi-4_9-2015q1/arm-none-eabi/include/c++/4.9.3/cmath ****   inline long double
 426:/opt/toolchains/gcc-arm-none-eabi-4_9-2015q1/arm-none-eabi/include/c++/4.9.3/cmath ****   pow(long double __x, int __n)
 427:/opt/toolchains/gcc-arm-none-eabi-4_9-2015q1/arm-none-eabi/include/c++/4.9.3/cmath ****   { return __builtin_powil(__x, __n); }
 428:/opt/toolchains/gcc-arm-none-eabi-4_9-2015q1/arm-none-eabi/include/c++/4.9.3/cmath **** #endif
 429:/opt/toolchains/gcc-arm-none-eabi-4_9-2015q1/arm-none-eabi/include/c++/4.9.3/cmath **** #endif
 430:/opt/toolchains/gcc-arm-none-eabi-4_9-2015q1/arm-none-eabi/include/c++/4.9.3/cmath **** 
 431:/opt/toolchains/gcc-arm-none-eabi-4_9-2015q1/arm-none-eabi/include/c++/4.9.3/cmath ****   template<typename _Tp, typename _Up>
 432:/opt/toolchains/gcc-arm-none-eabi-4_9-2015q1/arm-none-eabi/include/c++/4.9.3/cmath ****     inline _GLIBCXX_CONSTEXPR
 433:/opt/toolchains/gcc-arm-none-eabi-4_9-2015q1/arm-none-eabi/include/c++/4.9.3/cmath ****     typename __gnu_cxx::__promote_2<_Tp, _Up>::__type
 434:/opt/toolchains/gcc-arm-none-eabi-4_9-2015q1/arm-none-eabi/include/c++/4.9.3/cmath ****     pow(_Tp __x, _Up __y)
 435:/opt/toolchains/gcc-arm-none-eabi-4_9-2015q1/arm-none-eabi/include/c++/4.9.3/cmath ****     {
 436:/opt/toolchains/gcc-arm-none-eabi-4_9-2015q1/arm-none-eabi/include/c++/4.9.3/cmath ****       typedef typename __gnu_cxx::__promote_2<_Tp, _Up>::__type __type;
 437:/opt/toolchains/gcc-arm-none-eabi-4_9-2015q1/arm-none-eabi/include/c++/4.9.3/cmath ****       return pow(__type(__x), __type(__y));
 438:/opt/toolchains/gcc-arm-none-eabi-4_9-2015q1/arm-none-eabi/include/c++/4.9.3/cmath ****     }
 439:/opt/toolchains/gcc-arm-none-eabi-4_9-2015q1/arm-none-eabi/include/c++/4.9.3/cmath **** 
 440:/opt/toolchains/gcc-arm-none-eabi-4_9-2015q1/arm-none-eabi/include/c++/4.9.3/cmath ****   using ::sin;
 441:/opt/toolchains/gcc-arm-none-eabi-4_9-2015q1/arm-none-eabi/include/c++/4.9.3/cmath **** 
 442:/opt/toolchains/gcc-arm-none-eabi-4_9-2015q1/arm-none-eabi/include/c++/4.9.3/cmath **** #ifndef __CORRECT_ISO_CPP_MATH_H_PROTO
 443:/opt/toolchains/gcc-arm-none-eabi-4_9-2015q1/arm-none-eabi/include/c++/4.9.3/cmath ****   inline _GLIBCXX_CONSTEXPR float
 444:/opt/toolchains/gcc-arm-none-eabi-4_9-2015q1/arm-none-eabi/include/c++/4.9.3/cmath ****   sin(float __x)
 445:/opt/toolchains/gcc-arm-none-eabi-4_9-2015q1/arm-none-eabi/include/c++/4.9.3/cmath ****   { return __builtin_sinf(__x); }
 446:/opt/toolchains/gcc-arm-none-eabi-4_9-2015q1/arm-none-eabi/include/c++/4.9.3/cmath **** 
 447:/opt/toolchains/gcc-arm-none-eabi-4_9-2015q1/arm-none-eabi/include/c++/4.9.3/cmath ****   inline _GLIBCXX_CONSTEXPR long double
 448:/opt/toolchains/gcc-arm-none-eabi-4_9-2015q1/arm-none-eabi/include/c++/4.9.3/cmath ****   sin(long double __x)
 449:/opt/toolchains/gcc-arm-none-eabi-4_9-2015q1/arm-none-eabi/include/c++/4.9.3/cmath ****   { return __builtin_sinl(__x); }
 450:/opt/toolchains/gcc-arm-none-eabi-4_9-2015q1/arm-none-eabi/include/c++/4.9.3/cmath **** #endif
 451:/opt/toolchains/gcc-arm-none-eabi-4_9-2015q1/arm-none-eabi/include/c++/4.9.3/cmath **** 
 452:/opt/toolchains/gcc-arm-none-eabi-4_9-2015q1/arm-none-eabi/include/c++/4.9.3/cmath ****   template<typename _Tp>
 453:/opt/toolchains/gcc-arm-none-eabi-4_9-2015q1/arm-none-eabi/include/c++/4.9.3/cmath ****     inline _GLIBCXX_CONSTEXPR
 454:/opt/toolchains/gcc-arm-none-eabi-4_9-2015q1/arm-none-eabi/include/c++/4.9.3/cmath ****     typename __gnu_cxx::__enable_if<__is_integer<_Tp>::__value, 
 455:/opt/toolchains/gcc-arm-none-eabi-4_9-2015q1/arm-none-eabi/include/c++/4.9.3/cmath ****                                     double>::__type
 456:/opt/toolchains/gcc-arm-none-eabi-4_9-2015q1/arm-none-eabi/include/c++/4.9.3/cmath ****     sin(_Tp __x)
 457:/opt/toolchains/gcc-arm-none-eabi-4_9-2015q1/arm-none-eabi/include/c++/4.9.3/cmath ****     { return __builtin_sin(__x); }
 458:/opt/toolchains/gcc-arm-none-eabi-4_9-2015q1/arm-none-eabi/include/c++/4.9.3/cmath **** 
 459:/opt/toolchains/gcc-arm-none-eabi-4_9-2015q1/arm-none-eabi/include/c++/4.9.3/cmath ****   using ::sinh;
 460:/opt/toolchains/gcc-arm-none-eabi-4_9-2015q1/arm-none-eabi/include/c++/4.9.3/cmath **** 
 461:/opt/toolchains/gcc-arm-none-eabi-4_9-2015q1/arm-none-eabi/include/c++/4.9.3/cmath **** #ifndef __CORRECT_ISO_CPP_MATH_H_PROTO
 462:/opt/toolchains/gcc-arm-none-eabi-4_9-2015q1/arm-none-eabi/include/c++/4.9.3/cmath ****   inline _GLIBCXX_CONSTEXPR float
 463:/opt/toolchains/gcc-arm-none-eabi-4_9-2015q1/arm-none-eabi/include/c++/4.9.3/cmath ****   sinh(float __x)
 464:/opt/toolchains/gcc-arm-none-eabi-4_9-2015q1/arm-none-eabi/include/c++/4.9.3/cmath ****   { return __builtin_sinhf(__x); }
 465:/opt/toolchains/gcc-arm-none-eabi-4_9-2015q1/arm-none-eabi/include/c++/4.9.3/cmath **** 
 466:/opt/toolchains/gcc-arm-none-eabi-4_9-2015q1/arm-none-eabi/include/c++/4.9.3/cmath ****   inline _GLIBCXX_CONSTEXPR long double
 467:/opt/toolchains/gcc-arm-none-eabi-4_9-2015q1/arm-none-eabi/include/c++/4.9.3/cmath ****   sinh(long double __x)
 468:/opt/toolchains/gcc-arm-none-eabi-4_9-2015q1/arm-none-eabi/include/c++/4.9.3/cmath ****   { return __builtin_sinhl(__x); }
 469:/opt/toolchains/gcc-arm-none-eabi-4_9-2015q1/arm-none-eabi/include/c++/4.9.3/cmath **** #endif
 470:/opt/toolchains/gcc-arm-none-eabi-4_9-2015q1/arm-none-eabi/include/c++/4.9.3/cmath **** 
 471:/opt/toolchains/gcc-arm-none-eabi-4_9-2015q1/arm-none-eabi/include/c++/4.9.3/cmath ****   template<typename _Tp>
 472:/opt/toolchains/gcc-arm-none-eabi-4_9-2015q1/arm-none-eabi/include/c++/4.9.3/cmath ****     inline _GLIBCXX_CONSTEXPR
 473:/opt/toolchains/gcc-arm-none-eabi-4_9-2015q1/arm-none-eabi/include/c++/4.9.3/cmath ****     typename __gnu_cxx::__enable_if<__is_integer<_Tp>::__value, 
 474:/opt/toolchains/gcc-arm-none-eabi-4_9-2015q1/arm-none-eabi/include/c++/4.9.3/cmath ****                                     double>::__type
 475:/opt/toolchains/gcc-arm-none-eabi-4_9-2015q1/arm-none-eabi/include/c++/4.9.3/cmath ****     sinh(_Tp __x)
 476:/opt/toolchains/gcc-arm-none-eabi-4_9-2015q1/arm-none-eabi/include/c++/4.9.3/cmath ****     { return __builtin_sinh(__x); }
 477:/opt/toolchains/gcc-arm-none-eabi-4_9-2015q1/arm-none-eabi/include/c++/4.9.3/cmath **** 
 478:/opt/toolchains/gcc-arm-none-eabi-4_9-2015q1/arm-none-eabi/include/c++/4.9.3/cmath ****   using ::sqrt;
 479:/opt/toolchains/gcc-arm-none-eabi-4_9-2015q1/arm-none-eabi/include/c++/4.9.3/cmath **** 
 480:/opt/toolchains/gcc-arm-none-eabi-4_9-2015q1/arm-none-eabi/include/c++/4.9.3/cmath **** #ifndef __CORRECT_ISO_CPP_MATH_H_PROTO
 481:/opt/toolchains/gcc-arm-none-eabi-4_9-2015q1/arm-none-eabi/include/c++/4.9.3/cmath ****   inline _GLIBCXX_CONSTEXPR float
 482:/opt/toolchains/gcc-arm-none-eabi-4_9-2015q1/arm-none-eabi/include/c++/4.9.3/cmath ****   sqrt(float __x)
 483:/opt/toolchains/gcc-arm-none-eabi-4_9-2015q1/arm-none-eabi/include/c++/4.9.3/cmath ****   { return __builtin_sqrtf(__x); }
 5196              		.loc 9 483 0
 5197 008e 764B     		ldr	r3, .L201+32
 5198 0090 9847     		blx	r3
 5199              	.LVL649:
 5200              	.LBE1921:
 5201              	.LBE1920:
 5202              	.LBE1916:
  78:/home/tienluong/workspace/atlantis_fw/AsicFwS2/include/line2.h **** 
  79:/home/tienluong/workspace/atlantis_fw/AsicFwS2/include/line2.h ****     void normalize() { _line *= T{1} / length( Vec2<T>( _line.x(), _line.y() ) );}
 5203              		.loc 8 79 0
 5204 0092 764B     		ldr	r3, .L201+36
 5205              	.LBB1924:
 5206              	.LBB1923:
 5207              	.LBB1922:
 5208              		.loc 9 483 0
 5209 0094 0146     		mov	r1, r0
 5210              	.LBE1922:
 5211              	.LBE1923:
 5212              	.LBE1924:
 5213              		.loc 8 79 0
 5214 0096 4FF07E50 		mov	r0, #1065353216
 5215 009a 9847     		blx	r3
 5216              	.LVL650:
 5217 009c 8346     		mov	fp, r0
 5218              	.LVL651:
 5219              	.LBB1925:
 5220              	.LBB1926:
 248:/home/tienluong/workspace/atlantis_fw/AsicFwS2/include/matrix.h **** 
 5221              		.loc 2 248 0
 5222 009e 4046     		mov	r0, r8
 5223              	.LVL652:
 5224 00a0 5946     		mov	r1, fp
 5225 00a2 A047     		blx	r4
 5226              	.LVL653:
 5227 00a4 5946     		mov	r1, fp
 5228 00a6 8046     		mov	r8, r0
 5229              	.LVL654:
 5230 00a8 2846     		mov	r0, r5
 5231 00aa A047     		blx	r4
 5232              	.LVL655:
 5233 00ac 5946     		mov	r1, fp
 5234 00ae 0546     		mov	r5, r0
 5235              	.LVL656:
 5236 00b0 0898     		ldr	r0, [sp, #32]	@ float
 5237              	.LVL657:
 5238 00b2 A047     		blx	r4
 5239              	.LVL658:
 5240              	.LBE1926:
 5241              	.LBE1925:
 5242              	.LBE1915:
 5243              	.LBE1914:
 5244              	.LBE1931:
 5245              	.LBE1937:
 5246              	.LBE1941:
 5247              	.LBE1945:
 5248              	.LBB1946:
 5249              	.LBB1947:
 5250              	.LBB1948:
 5251              	.LBB1949:
 5252              	.LBB1950:
 110:/home/tienluong/workspace/atlantis_fw/AsicFwS2/include/matrix.h **** 
 5253              		.loc 2 110 0
 5254 00b4 3599     		ldr	r1, [sp, #212]	@ float
 5255              	.LBE1950:
 5256              	.LBE1949:
 5257              	.LBE1948:
 5258              	.LBE1947:
 5259              	.LBE1946:
 5260              	.LBB1983:
 5261              	.LBB1942:
 5262              	.LBB1938:
 5263              	.LBB1932:
 5264              	.LBB1930:
 5265              	.LBB1929:
 5266              	.LBB1928:
 5267              	.LBB1927:
 248:/home/tienluong/workspace/atlantis_fw/AsicFwS2/include/matrix.h **** 
 5268              		.loc 2 248 0
 5269 00b6 8346     		mov	fp, r0
 5270              	.LVL659:
 5271              	.LBE1927:
 5272              	.LBE1928:
 5273              	.LBE1929:
 5274              	.LBE1930:
 5275              	.LBE1932:
 5276              	.LBE1938:
 5277              	.LBE1942:
 5278              	.LBE1983:
 5279              	.LBB1984:
 5280              	.LBB1979:
 5281              	.LBB1953:
 5282              	.LBB1952:
 5283              	.LBB1951:
 110:/home/tienluong/workspace/atlantis_fw/AsicFwS2/include/matrix.h **** 
 5284              		.loc 2 110 0
 5285 00b8 4046     		mov	r0, r8
 5286 00ba A047     		blx	r4
 5287              	.LVL660:
 5288 00bc 3699     		ldr	r1, [sp, #216]	@ float
 5289 00be 0890     		str	r0, [sp, #32]
 5290 00c0 2846     		mov	r0, r5
 5291 00c2 A047     		blx	r4
 5292              	.LVL661:
 5293 00c4 089B     		ldr	r3, [sp, #32]
 5294 00c6 0146     		mov	r1, r0
 5295 00c8 1846     		mov	r0, r3
 5296 00ca B847     		blx	r7
 5297              	.LVL662:
 5298 00cc 0146     		mov	r1, r0
 5299              	.LBE1951:
 5300              	.LBE1952:
 5301              	.LBE1953:
  45:/home/tienluong/workspace/atlantis_fw/AsicFwS2/include/line2.h ****         return pt - t * dir;
 5302              		.loc 8 45 0
 5303 00ce 5846     		mov	r0, fp
 5304 00d0 B847     		blx	r7
 5305              	.LVL663:
 5306 00d2 8346     		mov	fp, r0
 5307              	.LVL664:
 5308              	.LBB1954:
 5309              	.LBB1955:
 5310              	.LBB1956:
  95:/home/tienluong/workspace/atlantis_fw/AsicFwS2/include/matrix.h **** 
 5311              		.loc 2 95 0
 5312 00d4 4046     		mov	r0, r8
 5313              	.LVL665:
 5314 00d6 5946     		mov	r1, fp
 5315 00d8 A047     		blx	r4
 5316              	.LVL666:
 5317              	.LBE1956:
 5318              	.LBE1955:
 5319              	.LBE1954:
 5320              	.LBB1965:
 5321              	.LBB1966:
  69:/home/tienluong/workspace/atlantis_fw/AsicFwS2/include/matrix.h **** 
 5322              		.loc 2 69 0
 5323 00da DFF8A081 		ldr	r8, .L201+52
 5324              	.LVL667:
 5325              	.LBE1966:
 5326              	.LBE1965:
 5327              	.LBB1971:
 5328              	.LBB1961:
 5329              	.LBB1957:
  95:/home/tienluong/workspace/atlantis_fw/AsicFwS2/include/matrix.h **** 
 5330              		.loc 2 95 0
 5331 00de 0146     		mov	r1, r0
 5332              	.LBE1957:
 5333              	.LBE1961:
 5334              	.LBE1971:
 5335              	.LBB1972:
 5336              	.LBB1967:
  69:/home/tienluong/workspace/atlantis_fw/AsicFwS2/include/matrix.h **** 
 5337              		.loc 2 69 0
 5338 00e0 3598     		ldr	r0, [sp, #212]	@ float
 5339 00e2 C047     		blx	r8
 5340              	.LVL668:
 5341              	.LBE1967:
 5342              	.LBE1972:
 5343              	.LBB1973:
 5344              	.LBB1962:
 5345              	.LBB1958:
  95:/home/tienluong/workspace/atlantis_fw/AsicFwS2/include/matrix.h **** 
 5346              		.loc 2 95 0
 5347 00e4 5946     		mov	r1, fp
 5348              	.LBE1958:
 5349              	.LBE1962:
 5350              	.LBE1973:
 5351              	.LBE1979:
 5352              	.LBE1984:
 106:/home/tienluong/workspace/atlantis_fw/AsicFwS2/src/calibclasses.cpp ****     // a2 is the vector from src camera center to (x_src y_src 1) on the image plane
 5353              		.loc 4 106 0
 5354 00e6 DFF870B1 		ldr	fp, .L201+16
 5355              	.LVL669:
 5356              	.LBB1985:
 5357              	.LBB1980:
 5358              	.LBB1974:
 5359              	.LBB1968:
  69:/home/tienluong/workspace/atlantis_fw/AsicFwS2/include/matrix.h **** 
 5360              		.loc 2 69 0
 5361 00ea 0890     		str	r0, [sp, #32]	@ float
 5362              	.LBE1968:
 5363              	.LBE1974:
 5364              	.LBB1975:
 5365              	.LBB1963:
 5366              	.LBB1959:
  95:/home/tienluong/workspace/atlantis_fw/AsicFwS2/include/matrix.h **** 
 5367              		.loc 2 95 0
 5368 00ec 2846     		mov	r0, r5
 5369 00ee A047     		blx	r4
 5370              	.LVL670:
 5371              	.LBE1959:
 5372              	.LBE1963:
 5373              	.LBE1975:
 5374              	.LBE1980:
 5375              	.LBE1985:
 5376              	.LBB1986:
 5377              	.LBB1987:
 5378              	.LBB1988:
 5379              	.LBB1989:
 591:/home/tienluong/workspace/atlantis_fw/AsicFwS2/include/matrix.h **** 
 5380              		.loc 2 591 0
 5381 00f0 21AD     		add	r5, sp, #132
 5382              	.LVL671:
 5383              	.LBE1989:
 5384              	.LBE1988:
 5385              	.LBE1987:
 5386              	.LBE1986:
 5387              	.LBB1997:
 5388              	.LBB1981:
 5389              	.LBB1976:
 5390              	.LBB1964:
 5391              	.LBB1960:
  95:/home/tienluong/workspace/atlantis_fw/AsicFwS2/include/matrix.h **** 
 5392              		.loc 2 95 0
 5393 00f2 0146     		mov	r1, r0
 5394              	.LBE1960:
 5395              	.LBE1964:
 5396              	.LBE1976:
 5397              	.LBB1977:
 5398              	.LBB1969:
  69:/home/tienluong/workspace/atlantis_fw/AsicFwS2/include/matrix.h **** 
 5399              		.loc 2 69 0
 5400 00f4 3698     		ldr	r0, [sp, #216]	@ float
 5401 00f6 C047     		blx	r8
 5402              	.LVL672:
 5403              	.LBE1969:
 5404              	.LBE1977:
 5405              	.LBE1981:
 5406              	.LBE1997:
 103:/home/tienluong/workspace/atlantis_fw/AsicFwS2/src/calibclasses.cpp **** 
 5407              		.loc 4 103 0
 5408 00f8 534B     		ldr	r3, .L201
 5409              	.LBB1998:
 5410              	.LBB1982:
 5411              	.LBB1978:
 5412              	.LBB1970:
  69:/home/tienluong/workspace/atlantis_fw/AsicFwS2/include/matrix.h **** 
 5413              		.loc 2 69 0
 5414 00fa 0990     		str	r0, [sp, #36]	@ float
 5415              	.LVL673:
 5416              	.LBE1970:
 5417              	.LBE1978:
 5418              	.LBE1982:
 5419              	.LBE1998:
 103:/home/tienluong/workspace/atlantis_fw/AsicFwS2/src/calibclasses.cpp **** 
 5420              		.loc 4 103 0
 5421 00fc 0898     		ldr	r0, [sp, #32]	@ float
 5422              	.LVL674:
 5423 00fe 9847     		blx	r3
 5424              	.LVL675:
 5425 0100 514B     		ldr	r3, .L201
 5426 0102 CDE90001 		strd	r0, [sp]
 5427 0106 0998     		ldr	r0, [sp, #36]	@ float
 5428 0108 9847     		blx	r3
 5429              	.LVL676:
 5430 010a 594A     		ldr	r2, .L201+40
 5431 010c 504B     		ldr	r3, .L201+8
 5432 010e CDE90201 		strd	r0, [sp, #8]
 5433 0112 2B20     		movs	r0, #43
 5434 0114 1021     		movs	r1, #16
 5435 0116 9847     		blx	r3
 5436              	.LVL677:
 5437              	.LBB1999:
 5438              	.LBB1996:
 5439              	.LBB1993:
 5440              	.LBB1990:
 591:/home/tienluong/workspace/atlantis_fw/AsicFwS2/include/matrix.h **** 
 5441              		.loc 2 591 0
 5442 0118 09F1040E 		add	lr, r9, #4
 5443              	.LVL678:
 5444              	.LBE1990:
 5445              	.LBE1993:
1251:/home/tienluong/workspace/atlantis_fw/AsicFwS2/include/matrix.h ****     return rval;
 5446              		.loc 2 1251 0
 5447 011c DFF860C1 		ldr	ip, .L201+56
 5448 0120 CDF82CC0 		str	ip, [sp, #44]
 5449              	.LBB1994:
 5450              	.LBB1991:
 591:/home/tienluong/workspace/atlantis_fw/AsicFwS2/include/matrix.h **** 
 5451              		.loc 2 591 0
 5452 0124 BEE80F00 		ldmia	lr!, {r0, r1, r2, r3}
 5453              	.LVL679:
 5454 0128 0FC5     		stmia	r5!, {r0, r1, r2, r3}
 5455              	.LVL680:
 5456 012a BEE80F00 		ldmia	lr!, {r0, r1, r2, r3}
 5457              	.LVL681:
 5458 012e 0FC5     		stmia	r5!, {r0, r1, r2, r3}
 5459              	.LVL682:
 5460 0130 DEF80030 		ldr	r3, [lr]
 5461              	.LBE1991:
 5462              	.LBE1994:
1251:/home/tienluong/workspace/atlantis_fw/AsicFwS2/include/matrix.h ****     return rval;
 5463              		.loc 2 1251 0
 5464 0134 18A8     		add	r0, sp, #96
 5465              	.LVL683:
 5466 0136 21A9     		add	r1, sp, #132
 5467              	.LVL684:
 5468              	.LBB1995:
 5469              	.LBB1992:
 591:/home/tienluong/workspace/atlantis_fw/AsicFwS2/include/matrix.h **** 
 5470              		.loc 2 591 0
 5471 0138 2B60     		str	r3, [r5]
 5472              	.LVL685:
 5473              	.LBE1992:
 5474              	.LBE1995:
1251:/home/tienluong/workspace/atlantis_fw/AsicFwS2/include/matrix.h ****     return rval;
 5475              		.loc 2 1251 0
 5476 013a E047     		blx	ip
 5477              	.LVL686:
 5478              	.LBE1996:
 5479              	.LBE1999:
 5480              	.LBB2000:
 5481              	.LBB2001:
 229:/home/tienluong/workspace/atlantis_fw/AsicFwS2/include/matrix.h ****     Vec3( const Vec3 & t ) : _x( t._x ), _y( t._y ), _z( t._z ) {}
 5482              		.loc 2 229 0
 5483 013c 1896     		str	r6, [sp, #96]	@ float
 5484              	.LBE2001:
 5485              	.LBE2000:
 5486              	.LBB2006:
 5487              	.LBB2007:
 5488              	.LBB2008:
 5489              	.LBB2009:
 591:/home/tienluong/workspace/atlantis_fw/AsicFwS2/include/matrix.h **** 
 5490              		.loc 2 591 0
 5491 013e 0AF10406 		add	r6, r10, #4
 5492              	.LVL687:
 5493              	.LBE2009:
 5494              	.LBE2008:
 5495              	.LBE2007:
 5496              	.LBE2006:
 5497              	.LBB2017:
 5498              	.LBB2002:
 229:/home/tienluong/workspace/atlantis_fw/AsicFwS2/include/matrix.h ****     Vec3( const Vec3 & t ) : _x( t._x ), _y( t._y ), _z( t._z ) {}
 5499              		.loc 2 229 0
 5500 0142 349B     		ldr	r3, [sp, #208]	@ float
 5501              	.LBE2002:
 5502              	.LBE2017:
 106:/home/tienluong/workspace/atlantis_fw/AsicFwS2/src/calibclasses.cpp ****     // a2 is the vector from src camera center to (x_src y_src 1) on the image plane
 5503              		.loc 4 106 0
 5504 0144 0CA8     		add	r0, sp, #48
 5505              	.LBB2018:
 5506              	.LBB2003:
 229:/home/tienluong/workspace/atlantis_fw/AsicFwS2/include/matrix.h ****     Vec3( const Vec3 & t ) : _x( t._x ), _y( t._y ), _z( t._z ) {}
 5507              		.loc 2 229 0
 5508 0146 1993     		str	r3, [sp, #100]	@ float
 5509              	.LBE2003:
 5510              	.LBE2018:
 106:/home/tienluong/workspace/atlantis_fw/AsicFwS2/src/calibclasses.cpp ****     // a2 is the vector from src camera center to (x_src y_src 1) on the image plane
 5511              		.loc 4 106 0
 5512 0148 21A9     		add	r1, sp, #132
 5513              	.LVL688:
 5514              	.LBB2019:
 5515              	.LBB2004:
 229:/home/tienluong/workspace/atlantis_fw/AsicFwS2/include/matrix.h ****     Vec3( const Vec3 & t ) : _x( t._x ), _y( t._y ), _z( t._z ) {}
 5516              		.loc 2 229 0
 5517 014a 0A9B     		ldr	r3, [sp, #40]	@ float
 5518              	.LBE2004:
 5519              	.LBE2019:
 106:/home/tienluong/workspace/atlantis_fw/AsicFwS2/src/calibclasses.cpp ****     // a2 is the vector from src camera center to (x_src y_src 1) on the image plane
 5520              		.loc 4 106 0
 5521 014c 18AA     		add	r2, sp, #96
 5522              	.LVL689:
 5523              	.LBB2020:
 5524              	.LBB2005:
 229:/home/tienluong/workspace/atlantis_fw/AsicFwS2/include/matrix.h ****     Vec3( const Vec3 & t ) : _x( t._x ), _y( t._y ), _z( t._z ) {}
 5525              		.loc 2 229 0
 5526 014e 1A93     		str	r3, [sp, #104]	@ float
 5527              	.LBE2005:
 5528              	.LBE2020:
 106:/home/tienluong/workspace/atlantis_fw/AsicFwS2/src/calibclasses.cpp ****     // a2 is the vector from src camera center to (x_src y_src 1) on the image plane
 5529              		.loc 4 106 0
 5530 0150 D847     		blx	fp
 5531              	.LVL690:
 5532              	.LBB2021:
 5533              	.LBB2016:
 5534              	.LBB2013:
 5535              	.LBB2010:
 591:/home/tienluong/workspace/atlantis_fw/AsicFwS2/include/matrix.h **** 
 5536              		.loc 2 591 0
 5537 0152 0FCE     		ldmia	r6!, {r0, r1, r2, r3}
 5538              	.LVL691:
 5539 0154 0DF1840E 		add	lr, sp, #132
 5540              	.LVL692:
 5541              	.LBE2010:
 5542              	.LBE2013:
1251:/home/tienluong/workspace/atlantis_fw/AsicFwS2/include/matrix.h ****     return rval;
 5543              		.loc 2 1251 0
 5544 0158 DDF82CC0 		ldr	ip, [sp, #44]
 5545              	.LBB2014:
 5546              	.LBB2011:
 591:/home/tienluong/workspace/atlantis_fw/AsicFwS2/include/matrix.h **** 
 5547              		.loc 2 591 0
 5548 015c AEE80F00 		stmia	lr!, {r0, r1, r2, r3}
 5549              	.LVL693:
 5550 0160 0FCE     		ldmia	r6!, {r0, r1, r2, r3}
 5551              	.LVL694:
 5552 0162 AEE80F00 		stmia	lr!, {r0, r1, r2, r3}
 5553              	.LVL695:
 5554 0166 3368     		ldr	r3, [r6]
 5555              	.LBE2011:
 5556              	.LBE2014:
1251:/home/tienluong/workspace/atlantis_fw/AsicFwS2/include/matrix.h ****     return rval;
 5557              		.loc 2 1251 0
 5558 0168 18A8     		add	r0, sp, #96
 5559              	.LVL696:
 5560 016a 21A9     		add	r1, sp, #132
 5561              	.LVL697:
 5562              	.LBB2015:
 5563              	.LBB2012:
 591:/home/tienluong/workspace/atlantis_fw/AsicFwS2/include/matrix.h **** 
 5564              		.loc 2 591 0
 5565 016c 2B60     		str	r3, [r5]
 5566              	.LVL698:
 5567              	.LBE2012:
 5568              	.LBE2015:
1251:/home/tienluong/workspace/atlantis_fw/AsicFwS2/include/matrix.h ****     return rval;
 5569              		.loc 2 1251 0
 5570 016e E047     		blx	ip
 5571              	.LVL699:
 5572              	.LBE2016:
 5573              	.LBE2021:
 5574              	.LBB2022:
 5575              	.LBB2023:
 229:/home/tienluong/workspace/atlantis_fw/AsicFwS2/include/matrix.h ****     Vec3( const Vec3 & t ) : _x( t._x ), _y( t._y ), _z( t._z ) {}
 5576              		.loc 2 229 0
 5577 0170 089B     		ldr	r3, [sp, #32]	@ float
 5578              	.LBE2023:
 5579              	.LBE2022:
 108:/home/tienluong/workspace/atlantis_fw/AsicFwS2/src/calibclasses.cpp **** 
 5580              		.loc 4 108 0
 5581 0172 18AA     		add	r2, sp, #96
 5582              	.LVL700:
 5583              	.LBB2027:
 5584              	.LBB2024:
 229:/home/tienluong/workspace/atlantis_fw/AsicFwS2/include/matrix.h ****     Vec3( const Vec3 & t ) : _x( t._x ), _y( t._y ), _z( t._z ) {}
 5585              		.loc 2 229 0
 5586 0174 1893     		str	r3, [sp, #96]	@ float
 5587              	.LBE2024:
 5588              	.LBE2027:
 108:/home/tienluong/workspace/atlantis_fw/AsicFwS2/src/calibclasses.cpp **** 
 5589              		.loc 4 108 0
 5590 0176 0FA8     		add	r0, sp, #60
 5591              	.LBB2028:
 5592              	.LBB2025:
 229:/home/tienluong/workspace/atlantis_fw/AsicFwS2/include/matrix.h ****     Vec3( const Vec3 & t ) : _x( t._x ), _y( t._y ), _z( t._z ) {}
 5593              		.loc 2 229 0
 5594 0178 099B     		ldr	r3, [sp, #36]	@ float
 5595              	.LBE2025:
 5596              	.LBE2028:
 108:/home/tienluong/workspace/atlantis_fw/AsicFwS2/src/calibclasses.cpp **** 
 5597              		.loc 4 108 0
 5598 017a 21A9     		add	r1, sp, #132
 5599              	.LVL701:
 5600              	.LBB2029:
 5601              	.LBB2026:
 229:/home/tienluong/workspace/atlantis_fw/AsicFwS2/include/matrix.h ****     Vec3( const Vec3 & t ) : _x( t._x ), _y( t._y ), _z( t._z ) {}
 5602              		.loc 2 229 0
 5603 017c 1993     		str	r3, [sp, #100]	@ float
 5604 017e 0A9B     		ldr	r3, [sp, #40]	@ float
 5605 0180 1A93     		str	r3, [sp, #104]	@ float
 5606              	.LBE2026:
 5607              	.LBE2029:
 108:/home/tienluong/workspace/atlantis_fw/AsicFwS2/src/calibclasses.cpp **** 
 5608              		.loc 4 108 0
 5609 0182 D847     		blx	fp
 5610              	.LVL702:
 111:/home/tienluong/workspace/atlantis_fw/AsicFwS2/src/calibclasses.cpp ****     Vec3f b1 =  ref.translation() - refR_srcR_T * src.translation();
 5611              		.loc 4 111 0
 5612 0184 3B4D     		ldr	r5, .L201+44
 5613              	.LVL703:
 5614 0186 0AF13401 		add	r1, r10, #52
 5615 018a 21A8     		add	r0, sp, #132
 5616              	.LVL704:
 5617 018c A847     		blx	r5
 5618              	.LVL705:
 5619 018e 3A4B     		ldr	r3, .L201+48
 5620 0190 09F13401 		add	r1, r9, #52
 5621 0194 18A8     		add	r0, sp, #96
 5622              	.LVL706:
 5623 0196 21AA     		add	r2, sp, #132
 5624              	.LVL707:
 5625 0198 9847     		blx	r3
 5626              	.LVL708:
 112:/home/tienluong/workspace/atlantis_fw/AsicFwS2/src/calibclasses.cpp ****     Vec3f b2 =  src.translation() - transpose( refR_srcR_T ) * ref.translation();
 5627              		.loc 4 112 0
 5628 019a 0AF12802 		add	r2, r10, #40
 5629 019e 21A8     		add	r0, sp, #132
 5630              	.LVL709:
 5631 01a0 18A9     		add	r1, sp, #96
 5632              	.LVL710:
 5633 01a2 D847     		blx	fp
 5634              	.LVL711:
 5635              	.LBB2030:
 5636              	.LBB2031:
 275:/home/tienluong/workspace/atlantis_fw/AsicFwS2/include/matrix.h **** 
 5637              		.loc 2 275 0
 5638 01a4 D9F82C00 		ldr	r0, [r9, #44]	@ float
 5639 01a8 2299     		ldr	r1, [sp, #136]	@ float
 5640 01aa C047     		blx	r8
 5641              	.LVL712:
 5642 01ac 2399     		ldr	r1, [sp, #140]	@ float
 5643 01ae 8346     		mov	fp, r0
 5644              	.LVL713:
 5645 01b0 D9F83000 		ldr	r0, [r9, #48]	@ float
 5646 01b4 C047     		blx	r8
 5647              	.LVL714:
 5648 01b6 2199     		ldr	r1, [sp, #132]	@ float
 5649 01b8 0646     		mov	r6, r0
 5650              	.LVL715:
 5651 01ba D9F82800 		ldr	r0, [r9, #40]	@ float
 5652              	.LVL716:
 5653 01be C047     		blx	r8
 5654              	.LVL717:
 5655              	.LBE2031:
 5656              	.LBE2030:
 113:/home/tienluong/workspace/atlantis_fw/AsicFwS2/src/calibclasses.cpp **** 
 5657              		.loc 4 113 0
 5658 01c0 18A9     		add	r1, sp, #96
 5659              	.LVL718:
 5660              	.LBB2035:
 5661              	.LBB2034:
 5662              	.LBB2032:
 5663              	.LBB2033:
 229:/home/tienluong/workspace/atlantis_fw/AsicFwS2/include/matrix.h ****     Vec3( const Vec3 & t ) : _x( t._x ), _y( t._y ), _z( t._z ) {}
 5664              		.loc 2 229 0
 5665 01c2 CDF84CB0 		str	fp, [sp, #76]	@ float
 5666 01c6 1496     		str	r6, [sp, #80]	@ float
 5667              	.LVL719:
 5668 01c8 1290     		str	r0, [sp, #72]	@ float
 5669              	.LBE2033:
 5670              	.LBE2032:
 5671              	.LBE2034:
 5672              	.LBE2035:
 113:/home/tienluong/workspace/atlantis_fw/AsicFwS2/src/calibclasses.cpp **** 
 5673              		.loc 4 113 0
 5674 01ca 21A8     		add	r0, sp, #132
 5675              	.LVL720:
 5676 01cc A847     		blx	r5
 5677              	.LVL721:
 5678              	.LBB2036:
 5679              	.LBB2037:
 966:/home/tienluong/workspace/atlantis_fw/AsicFwS2/include/matrix.h **** }
 5680              		.loc 2 966 0
 5681 01ce D9F828B0 		ldr	fp, [r9, #40]	@ float
 5682              	.LVL722:
 5683 01d2 2299     		ldr	r1, [sp, #136]	@ float
 5684 01d4 5846     		mov	r0, fp
 5685 01d6 A047     		blx	r4
 5686              	.LVL723:
 5687 01d8 D9F82C50 		ldr	r5, [r9, #44]	@ float
 5688              	.LVL724:
 5689 01dc D9F83060 		ldr	r6, [r9, #48]	@ float
 5690              	.LVL725:
 5691 01e0 2599     		ldr	r1, [sp, #148]	@ float
 5692 01e2 8146     		mov	r9, r0
 5693              	.LVL726:
 5694 01e4 2846     		mov	r0, r5
 5695 01e6 A047     		blx	r4
 5696              	.LVL727:
 5697 01e8 0146     		mov	r1, r0
 5698 01ea 4846     		mov	r0, r9
 5699 01ec B847     		blx	r7
 5700              	.LVL728:
 5701 01ee 2899     		ldr	r1, [sp, #160]	@ float
 5702 01f0 8146     		mov	r9, r0
 5703 01f2 3046     		mov	r0, r6
 5704 01f4 A047     		blx	r4
 5705              	.LVL729:
 5706 01f6 0146     		mov	r1, r0
 5707 01f8 4846     		mov	r0, r9
 5708 01fa B847     		blx	r7
 5709              	.LVL730:
 5710 01fc 0146     		mov	r1, r0
 5711              	.LBE2037:
 5712              	.LBE2036:
 5713              	.LBB2043:
 5714              	.LBB2044:
 275:/home/tienluong/workspace/atlantis_fw/AsicFwS2/include/matrix.h **** 
 5715              		.loc 2 275 0
 5716 01fe DAF82C00 		ldr	r0, [r10, #44]	@ float
 5717 0202 C047     		blx	r8
 5718              	.LVL731:
 5719              	.LBE2044:
 5720              	.LBE2043:
 5721              	.LBB2057:
 5722              	.LBB2038:
 966:/home/tienluong/workspace/atlantis_fw/AsicFwS2/include/matrix.h **** }
 5723              		.loc 2 966 0
 5724 0204 2399     		ldr	r1, [sp, #140]	@ float
 5725              	.LBE2038:
 5726              	.LBE2057:
 5727              	.LBB2058:
 5728              	.LBB2051:
 275:/home/tienluong/workspace/atlantis_fw/AsicFwS2/include/matrix.h **** 
 5729              		.loc 2 275 0
 5730 0206 0890     		str	r0, [sp, #32]
 5731              	.LVL732:
 5732              	.LBE2051:
 5733              	.LBE2058:
 5734              	.LBB2059:
 5735              	.LBB2039:
 966:/home/tienluong/workspace/atlantis_fw/AsicFwS2/include/matrix.h **** }
 5736              		.loc 2 966 0
 5737 0208 5846     		mov	r0, fp
 5738 020a A047     		blx	r4
 5739              	.LVL733:
 5740 020c 2699     		ldr	r1, [sp, #152]	@ float
 5741 020e 8146     		mov	r9, r0
 5742 0210 2846     		mov	r0, r5
 5743 0212 A047     		blx	r4
 5744              	.LVL734:
 5745 0214 0146     		mov	r1, r0
 5746 0216 4846     		mov	r0, r9
 5747 0218 B847     		blx	r7
 5748              	.LVL735:
 5749 021a 2999     		ldr	r1, [sp, #164]	@ float
 5750 021c 8146     		mov	r9, r0
 5751 021e 3046     		mov	r0, r6
 5752 0220 A047     		blx	r4
 5753              	.LVL736:
 5754 0222 0146     		mov	r1, r0
 5755 0224 4846     		mov	r0, r9
 5756 0226 B847     		blx	r7
 5757              	.LVL737:
 5758 0228 0146     		mov	r1, r0
 5759              	.LBE2039:
 5760              	.LBE2059:
 5761              	.LBB2060:
 5762              	.LBB2052:
 275:/home/tienluong/workspace/atlantis_fw/AsicFwS2/include/matrix.h **** 
 5763              		.loc 2 275 0
 5764 022a DAF83000 		ldr	r0, [r10, #48]	@ float
 5765 022e C047     		blx	r8
 5766              	.LVL738:
 5767              	.LBE2052:
 5768              	.LBE2060:
 5769              	.LBB2061:
 5770              	.LBB2040:
 966:/home/tienluong/workspace/atlantis_fw/AsicFwS2/include/matrix.h **** }
 5771              		.loc 2 966 0
 5772 0230 2199     		ldr	r1, [sp, #132]	@ float
 5773              	.LBE2040:
 5774              	.LBE2061:
 5775              	.LBB2062:
 5776              	.LBB2053:
 275:/home/tienluong/workspace/atlantis_fw/AsicFwS2/include/matrix.h **** 
 5777              		.loc 2 275 0
 5778 0232 8146     		mov	r9, r0
 5779              	.LVL739:
 5780              	.LBE2053:
 5781              	.LBE2062:
 5782              	.LBB2063:
 5783              	.LBB2041:
 966:/home/tienluong/workspace/atlantis_fw/AsicFwS2/include/matrix.h **** }
 5784              		.loc 2 966 0
 5785 0234 5846     		mov	r0, fp
 5786              	.LVL740:
 5787 0236 A047     		blx	r4
 5788              	.LVL741:
 5789 0238 2499     		ldr	r1, [sp, #144]	@ float
 5790 023a 8346     		mov	fp, r0
 5791 023c 2846     		mov	r0, r5
 5792 023e A047     		blx	r4
 5793              	.LVL742:
 5794 0240 0146     		mov	r1, r0
 5795 0242 5846     		mov	r0, fp
 5796 0244 1EE0     		b	.L202
 5797              	.L203:
 5798 0246 00BF     		.align	2
 5799              	.L201:
 5800 0248 00000000 		.word	__aeabi_f2d
 5801 024c 12010000 		.word	.LC32
 5802 0250 00000000 		.word	slogf
 5803 0254 00000000 		.word	__aeabi_fcmpgt
 5804 0258 00000000 		.word	_ZN4ltafmlIffLb1EEENS_4Vec3INSt11common_typeIIT_T0_EE4typeEEERKNS_6MatrixIS3_Li3ELi3EXT1_EEE
 5805 025c 0000A035 		.word	899678208
 5806 0260 00000000 		.word	__aeabi_fmul
 5807 0264 00000000 		.word	__aeabi_fadd
 5808 0268 00000000 		.word	sqrtf
 5809 026c 00000000 		.word	__aeabi_fdiv
 5810 0270 4F010000 		.word	.LC33
 5811 0274 00000000 		.word	_ZN4ltaf9transposeIfLi3ELi3ELb1EEENS_6MatrixIT_XT1_EXT0_EXntT2_EEERKNS1_IS2_XT0_EXT1_EXT2_EE
 5812 0278 00000000 		.word	_ZNK4ltaf6MatrixIfLi3ELi3ELb1EEmlILi3ELi3ELb0EEENS0_IfLi3EXT0_ELb1EEERKNS0_IfXT_EXT0_EXT1_EE
 5813 027c 00000000 		.word	__aeabi_fsub
 5814 0280 00000000 		.word	_ZNK4ltaf20SquareMatrixInverterIfLi3EE3runEPf
 5815              	.L202:
 5816 0284 B847     		blx	r7
 5817              	.LVL743:
 5818 0286 2799     		ldr	r1, [sp, #156]	@ float
 5819 0288 0546     		mov	r5, r0
 5820 028a 3046     		mov	r0, r6
 5821 028c A047     		blx	r4
 5822              	.LVL744:
 5823 028e 0146     		mov	r1, r0
 5824 0290 2846     		mov	r0, r5
 5825 0292 B847     		blx	r7
 5826              	.LVL745:
 5827              	.LBE2041:
 5828              	.LBE2063:
 115:/home/tienluong/workspace/atlantis_fw/AsicFwS2/src/calibclasses.cpp ****     float b1b1 = b1.dot( b1 );
 5829              		.loc 4 115 0
 5830 0294 424D     		ldr	r5, .L204
 5831              	.LBB2064:
 5832              	.LBB2042:
 966:/home/tienluong/workspace/atlantis_fw/AsicFwS2/include/matrix.h **** }
 5833              		.loc 2 966 0
 5834 0296 0146     		mov	r1, r0
 5835              	.LBE2042:
 5836              	.LBE2064:
 5837              	.LBB2065:
 5838              	.LBB2054:
 275:/home/tienluong/workspace/atlantis_fw/AsicFwS2/include/matrix.h **** 
 5839              		.loc 2 275 0
 5840 0298 DAF82800 		ldr	r0, [r10, #40]	@ float
 5841 029c C047     		blx	r8
 5842              	.LVL746:
 5843              	.LBB2045:
 5844              	.LBB2046:
 229:/home/tienluong/workspace/atlantis_fw/AsicFwS2/include/matrix.h ****     Vec3( const Vec3 & t ) : _x( t._x ), _y( t._y ), _z( t._z ) {}
 5845              		.loc 2 229 0
 5846 029e 1590     		str	r0, [sp, #84]	@ float
 5847              	.LBE2046:
 5848              	.LBE2045:
 5849              	.LBE2054:
 5850              	.LBE2065:
 115:/home/tienluong/workspace/atlantis_fw/AsicFwS2/src/calibclasses.cpp ****     float b1b1 = b1.dot( b1 );
 5851              		.loc 4 115 0
 5852 02a0 0CA8     		add	r0, sp, #48
 5853              	.LBB2066:
 5854              	.LBB2055:
 5855              	.LBB2049:
 5856              	.LBB2047:
 229:/home/tienluong/workspace/atlantis_fw/AsicFwS2/include/matrix.h ****     Vec3( const Vec3 & t ) : _x( t._x ), _y( t._y ), _z( t._z ) {}
 5857              		.loc 2 229 0
 5858 02a2 089B     		ldr	r3, [sp, #32]
 5859              	.LBE2047:
 5860              	.LBE2049:
 5861              	.LBE2055:
 5862              	.LBE2066:
 115:/home/tienluong/workspace/atlantis_fw/AsicFwS2/src/calibclasses.cpp ****     float b1b1 = b1.dot( b1 );
 5863              		.loc 4 115 0
 5864 02a4 0146     		mov	r1, r0
 5865              	.LBB2067:
 5866              	.LBB2056:
 5867              	.LBB2050:
 5868              	.LBB2048:
 229:/home/tienluong/workspace/atlantis_fw/AsicFwS2/include/matrix.h ****     Vec3( const Vec3 & t ) : _x( t._x ), _y( t._y ), _z( t._z ) {}
 5869              		.loc 2 229 0
 5870 02a6 1693     		str	r3, [sp, #88]	@ float
 5871 02a8 CDF85C90 		str	r9, [sp, #92]	@ float
 5872              	.LBE2048:
 5873              	.LBE2050:
 5874              	.LBE2056:
 5875              	.LBE2067:
 115:/home/tienluong/workspace/atlantis_fw/AsicFwS2/src/calibclasses.cpp ****     float b1b1 = b1.dot( b1 );
 5876              		.loc 4 115 0
 5877 02ac A847     		blx	r5
 5878              	.LVL747:
 5879 02ae 0646     		mov	r6, r0
 5880              	.LVL748:
 116:/home/tienluong/workspace/atlantis_fw/AsicFwS2/src/calibclasses.cpp **** 
 5881              		.loc 4 116 0
 5882 02b0 12A8     		add	r0, sp, #72
 5883              	.LVL749:
 5884 02b2 0146     		mov	r1, r0
 5885 02b4 A847     		blx	r5
 5886              	.LVL750:
 119:/home/tienluong/workspace/atlantis_fw/AsicFwS2/src/calibclasses.cpp ****     float cos_theta_2 = a2.dot( b2 ) / std::sqrt( a2.dot( a2 ) * b2.dot( b2 ) );
 5887              		.loc 4 119 0
 5888 02b6 12A9     		add	r1, sp, #72
 5889              	.LVL751:
 116:/home/tienluong/workspace/atlantis_fw/AsicFwS2/src/calibclasses.cpp **** 
 5890              		.loc 4 116 0
 5891 02b8 8146     		mov	r9, r0
 5892              	.LVL752:
 119:/home/tienluong/workspace/atlantis_fw/AsicFwS2/src/calibclasses.cpp ****     float cos_theta_2 = a2.dot( b2 ) / std::sqrt( a2.dot( a2 ) * b2.dot( b2 ) );
 5893              		.loc 4 119 0
 5894 02ba 0CA8     		add	r0, sp, #48
 5895              	.LVL753:
 5896 02bc A847     		blx	r5
 5897              	.LVL754:
 5898 02be 4946     		mov	r1, r9
 5899 02c0 8246     		mov	r10, r0
 5900              	.LVL755:
 5901 02c2 3046     		mov	r0, r6
 5902 02c4 A047     		blx	r4
 5903              	.LVL756:
 5904              	.LBB2068:
 5905              	.LBB2069:
 5906              		.loc 9 483 0
 5907 02c6 374B     		ldr	r3, .L204+4
 5908 02c8 9847     		blx	r3
 5909              	.LVL757:
 5910              	.LBE2069:
 5911              	.LBE2068:
 119:/home/tienluong/workspace/atlantis_fw/AsicFwS2/src/calibclasses.cpp ****     float cos_theta_2 = a2.dot( b2 ) / std::sqrt( a2.dot( a2 ) * b2.dot( b2 ) );
 5912              		.loc 4 119 0
 5913 02ca 374B     		ldr	r3, .L204+8
 5914              	.LBB2071:
 5915              	.LBB2070:
 5916              		.loc 9 483 0
 5917 02cc 0146     		mov	r1, r0
 5918              	.LBE2070:
 5919              	.LBE2071:
 119:/home/tienluong/workspace/atlantis_fw/AsicFwS2/src/calibclasses.cpp ****     float cos_theta_2 = a2.dot( b2 ) / std::sqrt( a2.dot( a2 ) * b2.dot( b2 ) );
 5920              		.loc 4 119 0
 5921 02ce 5046     		mov	r0, r10
 5922 02d0 9847     		blx	r3
 5923              	.LVL758:
 120:/home/tienluong/workspace/atlantis_fw/AsicFwS2/src/calibclasses.cpp ****     float sin_theta_1 = std::sqrt( 1 - cos_theta_1 * cos_theta_1 );
 5924              		.loc 4 120 0
 5925 02d2 15A9     		add	r1, sp, #84
 5926              	.LVL759:
 119:/home/tienluong/workspace/atlantis_fw/AsicFwS2/src/calibclasses.cpp ****     float cos_theta_2 = a2.dot( b2 ) / std::sqrt( a2.dot( a2 ) * b2.dot( b2 ) );
 5927              		.loc 4 119 0
 5928 02d4 8246     		mov	r10, r0
 5929              	.LVL760:
 120:/home/tienluong/workspace/atlantis_fw/AsicFwS2/src/calibclasses.cpp ****     float sin_theta_1 = std::sqrt( 1 - cos_theta_1 * cos_theta_1 );
 5930              		.loc 4 120 0
 5931 02d6 0FA8     		add	r0, sp, #60
 5932              	.LVL761:
 5933 02d8 A847     		blx	r5
 5934              	.LVL762:
 5935 02da 8346     		mov	fp, r0
 5936 02dc 0FA8     		add	r0, sp, #60
 5937 02de 0146     		mov	r1, r0
 5938 02e0 A847     		blx	r5
 5939              	.LVL763:
 5940 02e2 0890     		str	r0, [sp, #32]
 5941              	.LVL764:
 5942 02e4 15A8     		add	r0, sp, #84
 5943              	.LVL765:
 5944 02e6 0146     		mov	r1, r0
 5945 02e8 A847     		blx	r5
 5946              	.LVL766:
 5947 02ea 089B     		ldr	r3, [sp, #32]
 5948 02ec 0146     		mov	r1, r0
 5949              	.LVL767:
 5950 02ee 1846     		mov	r0, r3
 5951              	.LVL768:
 5952 02f0 A047     		blx	r4
 5953              	.LVL769:
 5954              	.LBB2072:
 5955              	.LBB2073:
 5956              		.loc 9 483 0
 5957 02f2 2C4B     		ldr	r3, .L204+4
 5958 02f4 9847     		blx	r3
 5959              	.LVL770:
 5960              	.LBE2073:
 5961              	.LBE2072:
 120:/home/tienluong/workspace/atlantis_fw/AsicFwS2/src/calibclasses.cpp ****     float sin_theta_1 = std::sqrt( 1 - cos_theta_1 * cos_theta_1 );
 5962              		.loc 4 120 0
 5963 02f6 2C4B     		ldr	r3, .L204+8
 5964              	.LBB2075:
 5965              	.LBB2074:
 5966              		.loc 9 483 0
 5967 02f8 0146     		mov	r1, r0
 5968              	.LBE2074:
 5969              	.LBE2075:
 120:/home/tienluong/workspace/atlantis_fw/AsicFwS2/src/calibclasses.cpp ****     float sin_theta_1 = std::sqrt( 1 - cos_theta_1 * cos_theta_1 );
 5970              		.loc 4 120 0
 5971 02fa 5846     		mov	r0, fp
 5972 02fc 9847     		blx	r3
 5973              	.LVL771:
 121:/home/tienluong/workspace/atlantis_fw/AsicFwS2/src/calibclasses.cpp ****     float sin_theta_2 = std::sqrt( 1 - cos_theta_2 * cos_theta_2 );
 5974              		.loc 4 121 0
 5975 02fe 5146     		mov	r1, r10
 120:/home/tienluong/workspace/atlantis_fw/AsicFwS2/src/calibclasses.cpp ****     float sin_theta_1 = std::sqrt( 1 - cos_theta_1 * cos_theta_1 );
 5976              		.loc 4 120 0
 5977 0300 8346     		mov	fp, r0
 5978              	.LVL772:
 121:/home/tienluong/workspace/atlantis_fw/AsicFwS2/src/calibclasses.cpp ****     float sin_theta_2 = std::sqrt( 1 - cos_theta_2 * cos_theta_2 );
 5979              		.loc 4 121 0
 5980 0302 5046     		mov	r0, r10
 5981              	.LVL773:
 5982 0304 A047     		blx	r4
 5983              	.LVL774:
 5984 0306 0146     		mov	r1, r0
 5985 0308 4FF07E50 		mov	r0, #1065353216
 5986 030c C047     		blx	r8
 5987              	.LVL775:
 5988              	.LBB2076:
 5989              	.LBB2077:
 5990              		.loc 9 483 0
 5991 030e 254B     		ldr	r3, .L204+4
 5992 0310 9847     		blx	r3
 5993              	.LVL776:
 5994              	.LBE2077:
 5995              	.LBE2076:
 122:/home/tienluong/workspace/atlantis_fw/AsicFwS2/src/calibclasses.cpp **** 
 5996              		.loc 4 122 0
 5997 0312 5946     		mov	r1, fp
 5998              	.LBB2079:
 5999              	.LBB2078:
 6000              		.loc 9 483 0
 6001 0314 0890     		str	r0, [sp, #32]
 6002              	.LVL777:
 6003              	.LBE2078:
 6004              	.LBE2079:
 122:/home/tienluong/workspace/atlantis_fw/AsicFwS2/src/calibclasses.cpp **** 
 6005              		.loc 4 122 0
 6006 0316 5846     		mov	r0, fp
 6007 0318 A047     		blx	r4
 6008              	.LVL778:
 6009 031a 0146     		mov	r1, r0
 6010 031c 4FF07E50 		mov	r0, #1065353216
 6011 0320 C047     		blx	r8
 6012              	.LVL779:
 6013              	.LBB2080:
 6014              	.LBB2081:
 6015              		.loc 9 483 0
 6016 0322 204B     		ldr	r3, .L204+4
 6017 0324 9847     		blx	r3
 6018              	.LVL780:
 6019              	.LBE2081:
 6020              	.LBE2080:
 125:/home/tienluong/workspace/atlantis_fw/AsicFwS2/src/calibclasses.cpp ****     float s_theta2_phi = std::abs(sin_theta_2 / sin_phi);
 6021              		.loc 4 125 0
 6022 0326 089B     		ldr	r3, [sp, #32]
 6023 0328 5946     		mov	r1, fp
 6024              	.LBB2083:
 6025              	.LBB2082:
 6026              		.loc 9 483 0
 6027 032a 0546     		mov	r5, r0
 6028              	.LBE2082:
 6029              	.LBE2083:
 125:/home/tienluong/workspace/atlantis_fw/AsicFwS2/src/calibclasses.cpp ****     float s_theta2_phi = std::abs(sin_theta_2 / sin_phi);
 6030              		.loc 4 125 0
 6031 032c 1846     		mov	r0, r3
 6032 032e A047     		blx	r4
 6033              	.LVL781:
 6034 0330 5146     		mov	r1, r10
 6035 0332 8046     		mov	r8, r0
 6036 0334 2846     		mov	r0, r5
 6037 0336 A047     		blx	r4
 6038              	.LVL782:
 6039 0338 0146     		mov	r1, r0
 6040 033a 4046     		mov	r0, r8
 6041 033c B847     		blx	r7
 6042              	.LVL783:
 132:/home/tienluong/workspace/atlantis_fw/AsicFwS2/src/calibclasses.cpp **** 
 6043              		.loc 4 132 0
 6044 033e 3146     		mov	r1, r6
 6045 0340 194B     		ldr	r3, .L204+8
 125:/home/tienluong/workspace/atlantis_fw/AsicFwS2/src/calibclasses.cpp ****     float s_theta2_phi = std::abs(sin_theta_2 / sin_phi);
 6046              		.loc 4 125 0
 6047 0342 0746     		mov	r7, r0
 6048              	.LVL784:
 132:/home/tienluong/workspace/atlantis_fw/AsicFwS2/src/calibclasses.cpp **** 
 6049              		.loc 4 132 0
 6050 0344 4846     		mov	r0, r9
 6051              	.LVL785:
 6052 0346 9847     		blx	r3
 6053              	.LVL786:
 6054              	.LBB2084:
 6055              	.LBB2085:
 6056              		.loc 9 483 0
 6057 0348 164B     		ldr	r3, .L204+4
 6058 034a 9847     		blx	r3
 6059              	.LVL787:
 6060              	.LBE2085:
 6061              	.LBE2084:
 126:/home/tienluong/workspace/atlantis_fw/AsicFwS2/src/calibclasses.cpp ****     // world point to ref camera center dist / a1 length is equal to
 6062              		.loc 4 126 0
 6063 034c 164B     		ldr	r3, .L204+8
 6064 034e 3946     		mov	r1, r7
 6065              	.LBB2087:
 6066              	.LBB2086:
 6067              		.loc 9 483 0
 6068 0350 0646     		mov	r6, r0
 6069              	.LVL788:
 6070              	.LBE2086:
 6071              	.LBE2087:
 126:/home/tienluong/workspace/atlantis_fw/AsicFwS2/src/calibclasses.cpp ****     // world point to ref camera center dist / a1 length is equal to
 6072              		.loc 4 126 0
 6073 0352 2846     		mov	r0, r5
 6074 0354 9847     		blx	r3
 6075              	.LVL789:
 132:/home/tienluong/workspace/atlantis_fw/AsicFwS2/src/calibclasses.cpp **** 
 6076              		.loc 4 132 0
 6077 0356 3146     		mov	r1, r6
 6078              	.LBB2088:
 6079              	.LBB2089:
  88:/opt/toolchains/gcc-arm-none-eabi-4_9-2015q1/arm-none-eabi/include/c++/4.9.3/cmath **** 
 6080              		.loc 9 88 0
 6081 0358 20F00040 		bic	r0, r0, #-2147483648
 6082              	.LBE2089:
 6083              	.LBE2088:
 132:/home/tienluong/workspace/atlantis_fw/AsicFwS2/src/calibclasses.cpp **** 
 6084              		.loc 4 132 0
 6085 035c A047     		blx	r4
 6086              	.LVL790:
 134:/home/tienluong/workspace/atlantis_fw/AsicFwS2/src/calibclasses.cpp **** 
 6087              		.loc 4 134 0
 6088 035e 134B     		ldr	r3, .L204+12
 132:/home/tienluong/workspace/atlantis_fw/AsicFwS2/src/calibclasses.cpp **** 
 6089              		.loc 4 132 0
 6090 0360 0446     		mov	r4, r0
 6091              	.LVL791:
 134:/home/tienluong/workspace/atlantis_fw/AsicFwS2/src/calibclasses.cpp **** 
 6092              		.loc 4 134 0
 6093 0362 9847     		blx	r3
 6094              	.LVL792:
 6095 0364 114B     		ldr	r3, .L204+12
 6096 0366 CDE90001 		strd	r0, [sp]
 6097 036a 3846     		mov	r0, r7
 6098 036c 9847     		blx	r3
 6099              	.LVL793:
 6100 036e 104B     		ldr	r3, .L204+16
 6101 0370 104A     		ldr	r2, .L204+20
 6102 0372 CDE90201 		strd	r0, [sp, #8]
 6103 0376 2B20     		movs	r0, #43
 6104 0378 1021     		movs	r1, #16
 6105 037a 9847     		blx	r3
 6106              	.LVL794:
 136:/home/tienluong/workspace/atlantis_fw/AsicFwS2/src/calibclasses.cpp **** }
 6107              		.loc 4 136 0
 6108 037c 3846     		mov	r0, r7
 6109 037e 0021     		movs	r1, #0
 6110 0380 0D4B     		ldr	r3, .L204+24
 6111 0382 9847     		blx	r3
 6112              	.LVL795:
 6113 0384 08B1     		cbz	r0, .L199
 6114 0386 2046     		mov	r0, r4
 6115 0388 06E0     		b	.L200
 6116              	.L199:
 6117 038a 0020     		movs	r0, #0
 6118 038c 04E0     		b	.L200
 6119              	.LVL796:
 6120              	.L198:
 6121              	.LBB2090:
 6122              	.LBB1943:
 6123              	.LBB1939:
 6124              	.LBB1933:
  31:/home/tienluong/workspace/atlantis_fw/AsicFwS2/include/line2.h ****         normalize();
 6125              		.loc 8 31 0
 6126 038e 0B48     		ldr	r0, .L204+28
 6127 0390 1F21     		movs	r1, #31
 6128 0392 0B4B     		ldr	r3, .L204+32
 6129 0394 9847     		blx	r3
 6130              	.LVL797:
 6131 0396 6EE6     		b	.L191
 6132              	.LVL798:
 6133              	.L200:
 6134              	.LBE1933:
 6135              	.LBE1939:
 6136              	.LBE1943:
 6137              	.LBE2090:
 6138              	.LBE2092:
 137:/home/tienluong/workspace/atlantis_fw/AsicFwS2/src/calibclasses.cpp **** 
 6139              		.loc 4 137 0
 6140 0398 2BB0     		add	sp, sp, #172
 6141              	.LCFI52:
 6142              		.cfi_def_cfa_offset 36
 6143              		@ sp needed
 6144 039a BDE8F08F 		pop	{r4, r5, r6, r7, r8, r9, r10, fp, pc}
 6145              	.LVL799:
 6146              	.L205:
 6147 039e 00BF     		.align	2
 6148              	.L204:
 6149 03a0 00000000 		.word	_ZNK4ltaf4Vec3IfE3dotERKS1_
 6150 03a4 00000000 		.word	sqrtf
 6151 03a8 00000000 		.word	__aeabi_fdiv
 6152 03ac 00000000 		.word	__aeabi_f2d
 6153 03b0 00000000 		.word	slogf
 6154 03b4 88010000 		.word	.LC34
 6155 03b8 00000000 		.word	__aeabi_fcmpgt
 6156 03bc 00000000 		.word	.LANCHOR22
 6157 03c0 00000000 		.word	assert_failed
 6158              		.cfi_endproc
 6159              	.LFE3335:
 6161              		.section	.text._ZN4ltaf10CalibUtils24depthGivenCorrespondenceERKNS_9CalibDataES3_ffff,"ax",%progbi
 6162              		.align	1
 6163              		.global	_ZN4ltaf10CalibUtils24depthGivenCorrespondenceERKNS_9CalibDataES3_ffff
 6164              		.thumb
 6165              		.thumb_func
 6167              	_ZN4ltaf10CalibUtils24depthGivenCorrespondenceERKNS_9CalibDataES3_ffff:
 6168              	.LFB3336:
 144:/home/tienluong/workspace/atlantis_fw/AsicFwS2/src/calibclasses.cpp ****     // We first project the source point to the epipolar line
 6169              		.loc 4 144 0
 6170              		.cfi_startproc
 6171              		@ args = 8, pretend = 0, frame = 40
 6172              		@ frame_needed = 0, uses_anonymous_args = 0
 6173              	.LVL800:
 6174 0000 F0B5     		push	{r4, r5, r6, r7, lr}
 6175              	.LCFI53:
 6176              		.cfi_def_cfa_offset 20
 6177              		.cfi_offset 4, -20
 6178              		.cfi_offset 5, -16
 6179              		.cfi_offset 6, -12
 6180              		.cfi_offset 7, -8
 6181              		.cfi_offset 14, -4
 6182 0002 8FB0     		sub	sp, sp, #60
 6183              	.LCFI54:
 6184              		.cfi_def_cfa_offset 80
 6185              	.LVL801:
 144:/home/tienluong/workspace/atlantis_fw/AsicFwS2/src/calibclasses.cpp ****     // We first project the source point to the epipolar line
 6186              		.loc 4 144 0
 6187 0004 0546     		mov	r5, r0
 6188              	.LVL802:
 6189 0006 0C46     		mov	r4, r1
 6190              	.LVL803:
 6191 0008 1646     		mov	r6, r2
 6192 000a 1F46     		mov	r7, r3
 6193              	.LBB2093:
 6194              	.LBB2094:
 6195              	.LBB2095:
  41:/home/tienluong/workspace/atlantis_fw/AsicFwS2/src/calibclasses.cpp **** }
 6196              		.loc 4 41 0
 6197 000c 05A8     		add	r0, sp, #20
 6198              	.LVL804:
 6199 000e 2946     		mov	r1, r5
 6200              	.LVL805:
 6201 0010 2246     		mov	r2, r4
 6202              	.LVL806:
 6203 0012 074B     		ldr	r3, .L207
 6204              	.LVL807:
 6205 0014 9847     		blx	r3
 6206              	.LVL808:
 6207              	.LBE2095:
 6208              	.LBE2094:
 151:/home/tienluong/workspace/atlantis_fw/AsicFwS2/src/calibclasses.cpp **** }
 6209              		.loc 4 151 0
 6210 0016 149B     		ldr	r3, [sp, #80]	@ float
 6211 0018 0193     		str	r3, [sp, #4]	@ float
 6212 001a 2246     		mov	r2, r4
 6213 001c 159B     		ldr	r3, [sp, #84]	@ float
 6214 001e 05A8     		add	r0, sp, #20
 6215              	.LVL809:
 6216 0020 0293     		str	r3, [sp, #8]	@ float
 6217 0022 2946     		mov	r1, r5
 6218 0024 0097     		str	r7, [sp]	@ float
 6219 0026 3346     		mov	r3, r6
 6220 0028 024C     		ldr	r4, .L207+4
 6221              	.LVL810:
 6222 002a A047     		blx	r4
 6223              	.LVL811:
 6224              	.LBE2093:
 152:/home/tienluong/workspace/atlantis_fw/AsicFwS2/src/calibclasses.cpp **** 
 6225              		.loc 4 152 0
 6226 002c 0FB0     		add	sp, sp, #60
 6227              	.LCFI55:
 6228              		.cfi_def_cfa_offset 20
 6229              		@ sp needed
 6230 002e F0BD     		pop	{r4, r5, r6, r7, pc}
 6231              	.LVL812:
 6232              	.L208:
 6233              		.align	2
 6234              	.L207:
 6235 0030 00000000 		.word	_ZN4ltaf8EpiField5setupERKNS_9CalibDataES3_
 6236 0034 00000000 		.word	_ZN4ltaf10CalibUtils24depthGivenCorrespondenceERKNS_8EpiFieldERKNS_9CalibDataES6_ffff
 6237              		.cfi_endproc
 6238              	.LFE3336:
 6240              		.section	.text._ZNK4ltaf20SquareMatrixInverterIfLi4EE3runEPf,"axG",%progbits,_ZNK4ltaf20SquareMatr
 6241              		.align	1
 6242              		.weak	_ZNK4ltaf20SquareMatrixInverterIfLi4EE3runEPf
 6243              		.thumb
 6244              		.thumb_func
 6246              	_ZNK4ltaf20SquareMatrixInverterIfLi4EE3runEPf:
 6247              	.LFB3537:
1166:/home/tienluong/workspace/atlantis_fw/AsicFwS2/include/matrix.h ****     {
 6248              		.loc 2 1166 0
 6249              		.cfi_startproc
 6250              		@ args = 0, pretend = 0, frame = 176
 6251              		@ frame_needed = 0, uses_anonymous_args = 0
 6252              	.LVL813:
 6253 0000 2DE9F04F 		push	{r4, r5, r6, r7, r8, r9, r10, fp, lr}
 6254              	.LCFI56:
 6255              		.cfi_def_cfa_offset 36
 6256              		.cfi_offset 4, -36
 6257              		.cfi_offset 5, -32
 6258              		.cfi_offset 6, -28
 6259              		.cfi_offset 7, -24
 6260              		.cfi_offset 8, -20
 6261              		.cfi_offset 9, -16
 6262              		.cfi_offset 10, -12
 6263              		.cfi_offset 11, -8
 6264              		.cfi_offset 14, -4
 6265 0004 ADB0     		sub	sp, sp, #180
 6266              	.LCFI57:
 6267              		.cfi_def_cfa_offset 216
 6268              	.LBB2096:
1172:/home/tienluong/workspace/atlantis_fw/AsicFwS2/include/matrix.h ****         tmp[1] = mat[11] * mat[14];
 6269              		.loc 2 1172 0
 6270 0006 8B6A     		ldr	r3, [r1, #40]	@ float
 6271 0008 0293     		str	r3, [sp, #8]	@ float
 6272 000a CB6B     		ldr	r3, [r1, #60]	@ float
 6273 000c 804C     		ldr	r4, .L212
 6274              	.LBE2096:
1166:/home/tienluong/workspace/atlantis_fw/AsicFwS2/include/matrix.h ****     {
 6275              		.loc 2 1166 0
 6276 000e 0191     		str	r1, [sp, #4]
 6277              	.LBB2099:
1172:/home/tienluong/workspace/atlantis_fw/AsicFwS2/include/matrix.h ****         tmp[1] = mat[11] * mat[14];
 6278              		.loc 2 1172 0
 6279 0010 1946     		mov	r1, r3
 6280              	.LVL814:
 6281 0012 0298     		ldr	r0, [sp, #8]	@ float
 6282              	.LVL815:
 6283 0014 0393     		str	r3, [sp, #12]	@ float
 6284 0016 A047     		blx	r4
 6285              	.LVL816:
1173:/home/tienluong/workspace/atlantis_fw/AsicFwS2/include/matrix.h ****         tmp[2] = mat[9] * mat[15];
 6286              		.loc 2 1173 0
 6287 0018 019B     		ldr	r3, [sp, #4]
1186:/home/tienluong/workspace/atlantis_fw/AsicFwS2/include/matrix.h ****         dst[0]  -= tmp[1] * mat[5] + tmp[2] * mat[6] + tmp[5]  * mat[7];
 6288              		.loc 2 1186 0
 6289 001a 7E4D     		ldr	r5, .L212+4
1173:/home/tienluong/workspace/atlantis_fw/AsicFwS2/include/matrix.h ****         tmp[2] = mat[9] * mat[15];
 6290              		.loc 2 1173 0
 6291 001c DB6A     		ldr	r3, [r3, #44]	@ float
 6292 001e 0493     		str	r3, [sp, #16]	@ float
 6293 0020 019B     		ldr	r3, [sp, #4]
 6294 0022 9B6B     		ldr	r3, [r3, #56]	@ float
 6295 0024 1946     		mov	r1, r3
 6296 0026 0593     		str	r3, [sp, #20]	@ float
1172:/home/tienluong/workspace/atlantis_fw/AsicFwS2/include/matrix.h ****         tmp[1] = mat[11] * mat[14];
 6297              		.loc 2 1172 0
 6298 0028 0E90     		str	r0, [sp, #56]	@ float
 6299              	.LVL817:
1173:/home/tienluong/workspace/atlantis_fw/AsicFwS2/include/matrix.h ****         tmp[2] = mat[9] * mat[15];
 6300              		.loc 2 1173 0
 6301 002a 0498     		ldr	r0, [sp, #16]	@ float
 6302              	.LVL818:
 6303 002c A047     		blx	r4
 6304              	.LVL819:
1174:/home/tienluong/workspace/atlantis_fw/AsicFwS2/include/matrix.h ****         tmp[3] = mat[11] * mat[13];
 6305              		.loc 2 1174 0
 6306 002e 019B     		ldr	r3, [sp, #4]
 6307 0030 0399     		ldr	r1, [sp, #12]	@ float
 6308 0032 5B6A     		ldr	r3, [r3, #36]	@ float
 6309 0034 0693     		str	r3, [sp, #24]	@ float
1173:/home/tienluong/workspace/atlantis_fw/AsicFwS2/include/matrix.h ****         tmp[2] = mat[9] * mat[15];
 6310              		.loc 2 1173 0
 6311 0036 0F90     		str	r0, [sp, #60]	@ float
 6312              	.LVL820:
1174:/home/tienluong/workspace/atlantis_fw/AsicFwS2/include/matrix.h ****         tmp[3] = mat[11] * mat[13];
 6313              		.loc 2 1174 0
 6314 0038 1846     		mov	r0, r3
 6315              	.LVL821:
 6316 003a A047     		blx	r4
 6317              	.LVL822:
1175:/home/tienluong/workspace/atlantis_fw/AsicFwS2/include/matrix.h ****         tmp[4] = mat[9] * mat[14];
 6318              		.loc 2 1175 0
 6319 003c 019B     		ldr	r3, [sp, #4]
 6320 003e 5B6B     		ldr	r3, [r3, #52]	@ float
 6321 0040 1946     		mov	r1, r3
 6322 0042 0793     		str	r3, [sp, #28]	@ float
1174:/home/tienluong/workspace/atlantis_fw/AsicFwS2/include/matrix.h ****         tmp[3] = mat[11] * mat[13];
 6323              		.loc 2 1174 0
 6324 0044 1090     		str	r0, [sp, #64]	@ float
 6325              	.LVL823:
1175:/home/tienluong/workspace/atlantis_fw/AsicFwS2/include/matrix.h ****         tmp[4] = mat[9] * mat[14];
 6326              		.loc 2 1175 0
 6327 0046 0498     		ldr	r0, [sp, #16]	@ float
 6328              	.LVL824:
 6329 0048 A047     		blx	r4
 6330              	.LVL825:
1176:/home/tienluong/workspace/atlantis_fw/AsicFwS2/include/matrix.h ****         tmp[5] = mat[10] * mat[13];
 6331              		.loc 2 1176 0
 6332 004a 0599     		ldr	r1, [sp, #20]	@ float
1175:/home/tienluong/workspace/atlantis_fw/AsicFwS2/include/matrix.h ****         tmp[4] = mat[9] * mat[14];
 6333              		.loc 2 1175 0
 6334 004c 1190     		str	r0, [sp, #68]	@ float
 6335              	.LVL826:
1176:/home/tienluong/workspace/atlantis_fw/AsicFwS2/include/matrix.h ****         tmp[5] = mat[10] * mat[13];
 6336              		.loc 2 1176 0
 6337 004e 0698     		ldr	r0, [sp, #24]	@ float
 6338              	.LVL827:
 6339 0050 A047     		blx	r4
 6340              	.LVL828:
1177:/home/tienluong/workspace/atlantis_fw/AsicFwS2/include/matrix.h ****         tmp[6] = mat[8] * mat[15];
 6341              		.loc 2 1177 0
 6342 0052 0799     		ldr	r1, [sp, #28]	@ float
1176:/home/tienluong/workspace/atlantis_fw/AsicFwS2/include/matrix.h ****         tmp[5] = mat[10] * mat[13];
 6343              		.loc 2 1176 0
 6344 0054 1290     		str	r0, [sp, #72]	@ float
 6345              	.LVL829:
1177:/home/tienluong/workspace/atlantis_fw/AsicFwS2/include/matrix.h ****         tmp[6] = mat[8] * mat[15];
 6346              		.loc 2 1177 0
 6347 0056 0298     		ldr	r0, [sp, #8]	@ float
 6348              	.LVL830:
 6349 0058 A047     		blx	r4
 6350              	.LVL831:
1178:/home/tienluong/workspace/atlantis_fw/AsicFwS2/include/matrix.h ****         tmp[7] = mat[11] * mat[12];
 6351              		.loc 2 1178 0
 6352 005a 019B     		ldr	r3, [sp, #4]
 6353 005c 0399     		ldr	r1, [sp, #12]	@ float
 6354 005e 1B6A     		ldr	r3, [r3, #32]	@ float
 6355 0060 0893     		str	r3, [sp, #32]	@ float
1177:/home/tienluong/workspace/atlantis_fw/AsicFwS2/include/matrix.h ****         tmp[6] = mat[8] * mat[15];
 6356              		.loc 2 1177 0
 6357 0062 1390     		str	r0, [sp, #76]	@ float
 6358              	.LVL832:
1178:/home/tienluong/workspace/atlantis_fw/AsicFwS2/include/matrix.h ****         tmp[7] = mat[11] * mat[12];
 6359              		.loc 2 1178 0
 6360 0064 1846     		mov	r0, r3
 6361              	.LVL833:
 6362 0066 A047     		blx	r4
 6363              	.LVL834:
1179:/home/tienluong/workspace/atlantis_fw/AsicFwS2/include/matrix.h ****         tmp[8] = mat[8] * mat[14];
 6364              		.loc 2 1179 0
 6365 0068 019B     		ldr	r3, [sp, #4]
 6366 006a 1B6B     		ldr	r3, [r3, #48]	@ float
 6367 006c 1946     		mov	r1, r3
 6368 006e 0993     		str	r3, [sp, #36]	@ float
1178:/home/tienluong/workspace/atlantis_fw/AsicFwS2/include/matrix.h ****         tmp[7] = mat[11] * mat[12];
 6369              		.loc 2 1178 0
 6370 0070 1490     		str	r0, [sp, #80]	@ float
 6371              	.LVL835:
1179:/home/tienluong/workspace/atlantis_fw/AsicFwS2/include/matrix.h ****         tmp[8] = mat[8] * mat[14];
 6372              		.loc 2 1179 0
 6373 0072 0498     		ldr	r0, [sp, #16]	@ float
 6374              	.LVL836:
 6375 0074 A047     		blx	r4
 6376              	.LVL837:
1180:/home/tienluong/workspace/atlantis_fw/AsicFwS2/include/matrix.h ****         tmp[9] = mat[10] * mat[12];
 6377              		.loc 2 1180 0
 6378 0076 0599     		ldr	r1, [sp, #20]	@ float
1179:/home/tienluong/workspace/atlantis_fw/AsicFwS2/include/matrix.h ****         tmp[8] = mat[8] * mat[14];
 6379              		.loc 2 1179 0
 6380 0078 1590     		str	r0, [sp, #84]	@ float
 6381              	.LVL838:
1180:/home/tienluong/workspace/atlantis_fw/AsicFwS2/include/matrix.h ****         tmp[9] = mat[10] * mat[12];
 6382              		.loc 2 1180 0
 6383 007a 0898     		ldr	r0, [sp, #32]	@ float
 6384              	.LVL839:
 6385 007c A047     		blx	r4
 6386              	.LVL840:
1181:/home/tienluong/workspace/atlantis_fw/AsicFwS2/include/matrix.h ****         tmp[10] = mat[8] * mat[13];
 6387              		.loc 2 1181 0
 6388 007e 0999     		ldr	r1, [sp, #36]	@ float
1180:/home/tienluong/workspace/atlantis_fw/AsicFwS2/include/matrix.h ****         tmp[9] = mat[10] * mat[12];
 6389              		.loc 2 1180 0
 6390 0080 1690     		str	r0, [sp, #88]	@ float
1181:/home/tienluong/workspace/atlantis_fw/AsicFwS2/include/matrix.h ****         tmp[10] = mat[8] * mat[13];
 6391              		.loc 2 1181 0
 6392 0082 0298     		ldr	r0, [sp, #8]	@ float
 6393 0084 A047     		blx	r4
 6394              	.LVL841:
1182:/home/tienluong/workspace/atlantis_fw/AsicFwS2/include/matrix.h ****         tmp[11] = mat[9] * mat[12];
 6395              		.loc 2 1182 0
 6396 0086 0799     		ldr	r1, [sp, #28]	@ float
1181:/home/tienluong/workspace/atlantis_fw/AsicFwS2/include/matrix.h ****         tmp[10] = mat[8] * mat[13];
 6397              		.loc 2 1181 0
 6398 0088 1790     		str	r0, [sp, #92]	@ float
1182:/home/tienluong/workspace/atlantis_fw/AsicFwS2/include/matrix.h ****         tmp[11] = mat[9] * mat[12];
 6399              		.loc 2 1182 0
 6400 008a 0898     		ldr	r0, [sp, #32]	@ float
 6401 008c A047     		blx	r4
 6402              	.LVL842:
1183:/home/tienluong/workspace/atlantis_fw/AsicFwS2/include/matrix.h **** 
 6403              		.loc 2 1183 0
 6404 008e 0999     		ldr	r1, [sp, #36]	@ float
1182:/home/tienluong/workspace/atlantis_fw/AsicFwS2/include/matrix.h ****         tmp[11] = mat[9] * mat[12];
 6405              		.loc 2 1182 0
 6406 0090 1890     		str	r0, [sp, #96]	@ float
1183:/home/tienluong/workspace/atlantis_fw/AsicFwS2/include/matrix.h **** 
 6407              		.loc 2 1183 0
 6408 0092 0698     		ldr	r0, [sp, #24]	@ float
 6409 0094 A047     		blx	r4
 6410              	.LVL843:
1186:/home/tienluong/workspace/atlantis_fw/AsicFwS2/include/matrix.h ****         dst[0]  -= tmp[1] * mat[5] + tmp[2] * mat[6] + tmp[5]  * mat[7];
 6411              		.loc 2 1186 0
 6412 0096 019B     		ldr	r3, [sp, #4]
 6413 0098 5B69     		ldr	r3, [r3, #20]	@ float
 6414 009a 0A93     		str	r3, [sp, #40]	@ float
 6415 009c 019B     		ldr	r3, [sp, #4]
 6416 009e 0A99     		ldr	r1, [sp, #40]	@ float
 6417 00a0 9B69     		ldr	r3, [r3, #24]	@ float
 6418 00a2 0B93     		str	r3, [sp, #44]	@ float
 6419 00a4 019B     		ldr	r3, [sp, #4]
 6420 00a6 DB69     		ldr	r3, [r3, #28]	@ float
 6421 00a8 0C93     		str	r3, [sp, #48]	@ float
1183:/home/tienluong/workspace/atlantis_fw/AsicFwS2/include/matrix.h **** 
 6422              		.loc 2 1183 0
 6423 00aa 1990     		str	r0, [sp, #100]	@ float
1186:/home/tienluong/workspace/atlantis_fw/AsicFwS2/include/matrix.h ****         dst[0]  -= tmp[1] * mat[5] + tmp[2] * mat[6] + tmp[5]  * mat[7];
 6424              		.loc 2 1186 0
 6425 00ac 0E98     		ldr	r0, [sp, #56]	@ float
 6426 00ae A047     		blx	r4
 6427              	.LVL844:
 6428 00b0 0B99     		ldr	r1, [sp, #44]	@ float
 6429 00b2 0646     		mov	r6, r0
 6430 00b4 1198     		ldr	r0, [sp, #68]	@ float
 6431 00b6 A047     		blx	r4
 6432              	.LVL845:
 6433 00b8 0146     		mov	r1, r0
 6434 00ba 3046     		mov	r0, r6
 6435 00bc A847     		blx	r5
 6436              	.LVL846:
 6437 00be 0C99     		ldr	r1, [sp, #48]	@ float
 6438 00c0 0646     		mov	r6, r0
 6439 00c2 1298     		ldr	r0, [sp, #72]	@ float
 6440 00c4 A047     		blx	r4
 6441              	.LVL847:
 6442 00c6 0146     		mov	r1, r0
 6443 00c8 3046     		mov	r0, r6
 6444 00ca A847     		blx	r5
 6445              	.LVL848:
1187:/home/tienluong/workspace/atlantis_fw/AsicFwS2/include/matrix.h ****         dst[4]   = tmp[1] * mat[4] + tmp[6] * mat[6] + tmp[9]  * mat[7];
 6446              		.loc 2 1187 0
 6447 00cc 0A99     		ldr	r1, [sp, #40]	@ float
1186:/home/tienluong/workspace/atlantis_fw/AsicFwS2/include/matrix.h ****         dst[0]  -= tmp[1] * mat[5] + tmp[2] * mat[6] + tmp[5]  * mat[7];
 6448              		.loc 2 1186 0
 6449 00ce 0646     		mov	r6, r0
1187:/home/tienluong/workspace/atlantis_fw/AsicFwS2/include/matrix.h ****         dst[4]   = tmp[1] * mat[4] + tmp[6] * mat[6] + tmp[9]  * mat[7];
 6450              		.loc 2 1187 0
 6451 00d0 0F98     		ldr	r0, [sp, #60]	@ float
 6452 00d2 A047     		blx	r4
 6453              	.LVL849:
 6454 00d4 0746     		mov	r7, r0
 6455 00d6 1098     		ldr	r0, [sp, #64]	@ float
 6456 00d8 0B99     		ldr	r1, [sp, #44]	@ float
 6457 00da A047     		blx	r4
 6458              	.LVL850:
 6459 00dc 0146     		mov	r1, r0
 6460 00de 3846     		mov	r0, r7
 6461 00e0 A847     		blx	r5
 6462              	.LVL851:
 6463 00e2 0C99     		ldr	r1, [sp, #48]	@ float
 6464 00e4 0746     		mov	r7, r0
 6465 00e6 1398     		ldr	r0, [sp, #76]	@ float
 6466 00e8 A047     		blx	r4
 6467              	.LVL852:
 6468 00ea 0146     		mov	r1, r0
 6469 00ec 3846     		mov	r0, r7
 6470 00ee A847     		blx	r5
 6471              	.LVL853:
 6472 00f0 494B     		ldr	r3, .L212+8
 6473 00f2 0146     		mov	r1, r0
 6474 00f4 3046     		mov	r0, r6
 6475 00f6 9847     		blx	r3
 6476              	.LVL854:
1188:/home/tienluong/workspace/atlantis_fw/AsicFwS2/include/matrix.h ****         dst[4]  -= tmp[0] * mat[4] + tmp[7] * mat[6] + tmp[8]  * mat[7];
 6477              		.loc 2 1188 0
 6478 00f8 019B     		ldr	r3, [sp, #4]
 6479 00fa 1B69     		ldr	r3, [r3, #16]	@ float
 6480 00fc 1946     		mov	r1, r3
 6481 00fe 0D93     		str	r3, [sp, #52]	@ float
1187:/home/tienluong/workspace/atlantis_fw/AsicFwS2/include/matrix.h ****         dst[4]   = tmp[1] * mat[4] + tmp[6] * mat[6] + tmp[9]  * mat[7];
 6482              		.loc 2 1187 0
 6483 0100 1C90     		str	r0, [sp, #112]	@ float
 6484 0102 1A90     		str	r0, [sp, #104]
1188:/home/tienluong/workspace/atlantis_fw/AsicFwS2/include/matrix.h ****         dst[4]  -= tmp[0] * mat[4] + tmp[7] * mat[6] + tmp[8]  * mat[7];
 6485              		.loc 2 1188 0
 6486 0104 0F98     		ldr	r0, [sp, #60]	@ float
 6487 0106 A047     		blx	r4
 6488              	.LVL855:
 6489 0108 0B99     		ldr	r1, [sp, #44]	@ float
 6490 010a 0646     		mov	r6, r0
 6491 010c 1498     		ldr	r0, [sp, #80]	@ float
 6492 010e A047     		blx	r4
 6493              	.LVL856:
 6494 0110 0146     		mov	r1, r0
 6495 0112 3046     		mov	r0, r6
 6496 0114 A847     		blx	r5
 6497              	.LVL857:
 6498 0116 0C99     		ldr	r1, [sp, #48]	@ float
 6499 0118 0646     		mov	r6, r0
 6500 011a 1798     		ldr	r0, [sp, #92]	@ float
 6501 011c A047     		blx	r4
 6502              	.LVL858:
 6503 011e 0146     		mov	r1, r0
 6504 0120 3046     		mov	r0, r6
 6505 0122 A847     		blx	r5
 6506              	.LVL859:
1189:/home/tienluong/workspace/atlantis_fw/AsicFwS2/include/matrix.h ****         dst[8]   = tmp[2] * mat[4] + tmp[7] * mat[5] + tmp[10] * mat[7];
 6507              		.loc 2 1189 0
 6508 0124 0D99     		ldr	r1, [sp, #52]	@ float
1188:/home/tienluong/workspace/atlantis_fw/AsicFwS2/include/matrix.h ****         dst[4]  -= tmp[0] * mat[4] + tmp[7] * mat[6] + tmp[8]  * mat[7];
 6509              		.loc 2 1188 0
 6510 0126 0646     		mov	r6, r0
1189:/home/tienluong/workspace/atlantis_fw/AsicFwS2/include/matrix.h ****         dst[8]   = tmp[2] * mat[4] + tmp[7] * mat[5] + tmp[10] * mat[7];
 6511              		.loc 2 1189 0
 6512 0128 0E98     		ldr	r0, [sp, #56]	@ float
 6513 012a A047     		blx	r4
 6514              	.LVL860:
 6515 012c 0B99     		ldr	r1, [sp, #44]	@ float
 6516 012e 0746     		mov	r7, r0
 6517 0130 1598     		ldr	r0, [sp, #84]	@ float
 6518 0132 A047     		blx	r4
 6519              	.LVL861:
 6520 0134 0146     		mov	r1, r0
 6521 0136 3846     		mov	r0, r7
 6522 0138 A847     		blx	r5
 6523              	.LVL862:
 6524 013a 0C99     		ldr	r1, [sp, #48]	@ float
 6525 013c 0746     		mov	r7, r0
 6526 013e 1698     		ldr	r0, [sp, #88]	@ float
 6527 0140 A047     		blx	r4
 6528              	.LVL863:
 6529 0142 0146     		mov	r1, r0
 6530 0144 3846     		mov	r0, r7
 6531 0146 A847     		blx	r5
 6532              	.LVL864:
 6533 0148 334B     		ldr	r3, .L212+8
 6534 014a 0146     		mov	r1, r0
 6535 014c 3046     		mov	r0, r6
 6536 014e 9847     		blx	r3
 6537              	.LVL865:
 6538 0150 2090     		str	r0, [sp, #128]	@ float
1190:/home/tienluong/workspace/atlantis_fw/AsicFwS2/include/matrix.h ****         dst[8]  -= tmp[3] * mat[4] + tmp[6] * mat[5] + tmp[11] * mat[7];
 6539              		.loc 2 1190 0
 6540 0152 0D99     		ldr	r1, [sp, #52]	@ float
1189:/home/tienluong/workspace/atlantis_fw/AsicFwS2/include/matrix.h ****         dst[8]   = tmp[2] * mat[4] + tmp[7] * mat[5] + tmp[10] * mat[7];
 6541              		.loc 2 1189 0
 6542 0154 1B90     		str	r0, [sp, #108]
1190:/home/tienluong/workspace/atlantis_fw/AsicFwS2/include/matrix.h ****         dst[8]  -= tmp[3] * mat[4] + tmp[6] * mat[5] + tmp[11] * mat[7];
 6543              		.loc 2 1190 0
 6544 0156 1098     		ldr	r0, [sp, #64]	@ float
 6545 0158 A047     		blx	r4
 6546              	.LVL866:
 6547 015a 0A99     		ldr	r1, [sp, #40]	@ float
 6548 015c 0646     		mov	r6, r0
 6549 015e 1598     		ldr	r0, [sp, #84]	@ float
 6550 0160 A047     		blx	r4
 6551              	.LVL867:
 6552 0162 0146     		mov	r1, r0
 6553 0164 3046     		mov	r0, r6
 6554 0166 A847     		blx	r5
 6555              	.LVL868:
 6556 0168 0C99     		ldr	r1, [sp, #48]	@ float
 6557 016a 0646     		mov	r6, r0
 6558 016c 1898     		ldr	r0, [sp, #96]	@ float
 6559 016e A047     		blx	r4
 6560              	.LVL869:
 6561 0170 0146     		mov	r1, r0
 6562 0172 3046     		mov	r0, r6
 6563 0174 A847     		blx	r5
 6564              	.LVL870:
1191:/home/tienluong/workspace/atlantis_fw/AsicFwS2/include/matrix.h ****         dst[12]  = tmp[5] * mat[4] + tmp[8] * mat[5] + tmp[11] * mat[6];
 6565              		.loc 2 1191 0
 6566 0176 0D99     		ldr	r1, [sp, #52]	@ float
1190:/home/tienluong/workspace/atlantis_fw/AsicFwS2/include/matrix.h ****         dst[8]  -= tmp[3] * mat[4] + tmp[6] * mat[5] + tmp[11] * mat[7];
 6567              		.loc 2 1190 0
 6568 0178 0646     		mov	r6, r0
1191:/home/tienluong/workspace/atlantis_fw/AsicFwS2/include/matrix.h ****         dst[12]  = tmp[5] * mat[4] + tmp[8] * mat[5] + tmp[11] * mat[6];
 6569              		.loc 2 1191 0
 6570 017a 1198     		ldr	r0, [sp, #68]	@ float
 6571 017c A047     		blx	r4
 6572              	.LVL871:
 6573 017e 0A99     		ldr	r1, [sp, #40]	@ float
 6574 0180 0746     		mov	r7, r0
 6575 0182 1498     		ldr	r0, [sp, #80]	@ float
 6576 0184 A047     		blx	r4
 6577              	.LVL872:
 6578 0186 0146     		mov	r1, r0
 6579 0188 3846     		mov	r0, r7
 6580 018a A847     		blx	r5
 6581              	.LVL873:
 6582 018c 0C99     		ldr	r1, [sp, #48]	@ float
 6583 018e 0746     		mov	r7, r0
 6584 0190 1998     		ldr	r0, [sp, #100]	@ float
 6585 0192 A047     		blx	r4
 6586              	.LVL874:
 6587 0194 0146     		mov	r1, r0
 6588 0196 3846     		mov	r0, r7
 6589 0198 A847     		blx	r5
 6590              	.LVL875:
 6591 019a 1F4B     		ldr	r3, .L212+8
 6592 019c 0146     		mov	r1, r0
 6593 019e 3046     		mov	r0, r6
 6594 01a0 9847     		blx	r3
 6595              	.LVL876:
1192:/home/tienluong/workspace/atlantis_fw/AsicFwS2/include/matrix.h ****         dst[12] -= tmp[4] * mat[4] + tmp[9] * mat[5] + tmp[10] * mat[6];
 6596              		.loc 2 1192 0
 6597 01a2 0D99     		ldr	r1, [sp, #52]	@ float
1191:/home/tienluong/workspace/atlantis_fw/AsicFwS2/include/matrix.h ****         dst[12]  = tmp[5] * mat[4] + tmp[8] * mat[5] + tmp[11] * mat[6];
 6598              		.loc 2 1191 0
 6599 01a4 8346     		mov	fp, r0
 6600 01a6 2490     		str	r0, [sp, #144]	@ float
1192:/home/tienluong/workspace/atlantis_fw/AsicFwS2/include/matrix.h ****         dst[12] -= tmp[4] * mat[4] + tmp[9] * mat[5] + tmp[10] * mat[6];
 6601              		.loc 2 1192 0
 6602 01a8 1398     		ldr	r0, [sp, #76]	@ float
 6603 01aa A047     		blx	r4
 6604              	.LVL877:
 6605 01ac 0A99     		ldr	r1, [sp, #40]	@ float
 6606 01ae 0646     		mov	r6, r0
 6607 01b0 1698     		ldr	r0, [sp, #88]	@ float
 6608 01b2 A047     		blx	r4
 6609              	.LVL878:
 6610 01b4 0146     		mov	r1, r0
 6611 01b6 3046     		mov	r0, r6
 6612 01b8 A847     		blx	r5
 6613              	.LVL879:
 6614 01ba 0B99     		ldr	r1, [sp, #44]	@ float
 6615 01bc 0646     		mov	r6, r0
 6616 01be 1998     		ldr	r0, [sp, #100]	@ float
 6617 01c0 A047     		blx	r4
 6618              	.LVL880:
 6619 01c2 0146     		mov	r1, r0
 6620 01c4 3046     		mov	r0, r6
 6621 01c6 A847     		blx	r5
 6622              	.LVL881:
1193:/home/tienluong/workspace/atlantis_fw/AsicFwS2/include/matrix.h **** 
 6623              		.loc 2 1193 0
 6624 01c8 0D99     		ldr	r1, [sp, #52]	@ float
1192:/home/tienluong/workspace/atlantis_fw/AsicFwS2/include/matrix.h ****         dst[12] -= tmp[4] * mat[4] + tmp[9] * mat[5] + tmp[10] * mat[6];
 6625              		.loc 2 1192 0
 6626 01ca 0646     		mov	r6, r0
1193:/home/tienluong/workspace/atlantis_fw/AsicFwS2/include/matrix.h **** 
 6627              		.loc 2 1193 0
 6628 01cc 1298     		ldr	r0, [sp, #72]	@ float
 6629 01ce A047     		blx	r4
 6630              	.LVL882:
 6631 01d0 0A99     		ldr	r1, [sp, #40]	@ float
 6632 01d2 0746     		mov	r7, r0
 6633 01d4 1798     		ldr	r0, [sp, #92]	@ float
 6634 01d6 A047     		blx	r4
 6635              	.LVL883:
 6636 01d8 0146     		mov	r1, r0
 6637 01da 3846     		mov	r0, r7
 6638 01dc A847     		blx	r5
 6639              	.LVL884:
 6640 01de 0B99     		ldr	r1, [sp, #44]	@ float
 6641 01e0 0746     		mov	r7, r0
 6642 01e2 1898     		ldr	r0, [sp, #96]	@ float
 6643 01e4 A047     		blx	r4
 6644              	.LVL885:
 6645 01e6 0146     		mov	r1, r0
 6646 01e8 3846     		mov	r0, r7
 6647 01ea A847     		blx	r5
 6648              	.LVL886:
 6649 01ec 0A4B     		ldr	r3, .L212+8
 6650 01ee 0146     		mov	r1, r0
 6651 01f0 3046     		mov	r0, r6
 6652 01f2 9847     		blx	r3
 6653              	.LVL887:
1196:/home/tienluong/workspace/atlantis_fw/AsicFwS2/include/matrix.h **** 
 6654              		.loc 2 1196 0
 6655 01f4 019B     		ldr	r3, [sp, #4]
 6656 01f6 1A9A     		ldr	r2, [sp, #104]
 6657 01f8 1146     		mov	r1, r2
 6658 01fa 1F68     		ldr	r7, [r3]	@ float
 6659 01fc 5E68     		ldr	r6, [r3, #4]	@ float
 6660 01fe D3F80880 		ldr	r8, [r3, #8]	@ float
 6661 0202 D3F80C90 		ldr	r9, [r3, #12]	@ float
1193:/home/tienluong/workspace/atlantis_fw/AsicFwS2/include/matrix.h **** 
 6662              		.loc 2 1193 0
 6663 0206 8246     		mov	r10, r0
 6664              	.LVL888:
 6665 0208 2890     		str	r0, [sp, #160]	@ float
1196:/home/tienluong/workspace/atlantis_fw/AsicFwS2/include/matrix.h **** 
 6666              		.loc 2 1196 0
 6667 020a 3846     		mov	r0, r7
 6668 020c 06E0     		b	.L213
 6669              	.L214:
 6670 020e 00BF     		.align	2
 6671              	.L212:
 6672 0210 00000000 		.word	__aeabi_fmul
 6673 0214 00000000 		.word	__aeabi_fadd
 6674 0218 00000000 		.word	__aeabi_fsub
 6675              	.L213:
 6676              	.LVL889:
 6677 021c A047     		blx	r4
 6678              	.LVL890:
 6679 021e 1B9B     		ldr	r3, [sp, #108]
 6680 0220 1946     		mov	r1, r3
 6681 0222 1A90     		str	r0, [sp, #104]
 6682              	.LVL891:
 6683 0224 3046     		mov	r0, r6
 6684 0226 A047     		blx	r4
 6685              	.LVL892:
 6686 0228 1A9A     		ldr	r2, [sp, #104]
 6687 022a 0146     		mov	r1, r0
 6688 022c 1046     		mov	r0, r2
 6689 022e A847     		blx	r5
 6690              	.LVL893:
 6691 0230 5946     		mov	r1, fp
 6692 0232 1A90     		str	r0, [sp, #104]
 6693 0234 4046     		mov	r0, r8
 6694 0236 A047     		blx	r4
 6695              	.LVL894:
 6696 0238 1A9B     		ldr	r3, [sp, #104]
 6697 023a 0146     		mov	r1, r0
 6698 023c 1846     		mov	r0, r3
 6699 023e A847     		blx	r5
 6700              	.LVL895:
 6701 0240 5146     		mov	r1, r10
 6702 0242 8346     		mov	fp, r0
 6703 0244 4846     		mov	r0, r9
 6704 0246 A047     		blx	r4
 6705              	.LVL896:
 6706 0248 0146     		mov	r1, r0
 6707 024a 5846     		mov	r0, fp
 6708 024c A847     		blx	r5
 6709              	.LVL897:
1198:/home/tienluong/workspace/atlantis_fw/AsicFwS2/include/matrix.h **** 
 6710              		.loc 2 1198 0
 6711 024e 804B     		ldr	r3, .L215
1196:/home/tienluong/workspace/atlantis_fw/AsicFwS2/include/matrix.h **** 
 6712              		.loc 2 1196 0
 6713 0250 0146     		mov	r1, r0
1198:/home/tienluong/workspace/atlantis_fw/AsicFwS2/include/matrix.h **** 
 6714              		.loc 2 1198 0
 6715 0252 4FF07E50 		mov	r0, #1065353216
 6716 0256 9847     		blx	r3
 6717              	.LVL898:
1200:/home/tienluong/workspace/atlantis_fw/AsicFwS2/include/matrix.h ****         dst[1]  -= tmp[0] * mat[1] + tmp[3] * mat[2] + tmp[4]  * mat[3];
 6718              		.loc 2 1200 0
 6719 0258 3146     		mov	r1, r6
1198:/home/tienluong/workspace/atlantis_fw/AsicFwS2/include/matrix.h **** 
 6720              		.loc 2 1198 0
 6721 025a 1A90     		str	r0, [sp, #104]	@ float
 6722              	.LVL899:
1200:/home/tienluong/workspace/atlantis_fw/AsicFwS2/include/matrix.h ****         dst[1]  -= tmp[0] * mat[1] + tmp[3] * mat[2] + tmp[4]  * mat[3];
 6723              		.loc 2 1200 0
 6724 025c 0F98     		ldr	r0, [sp, #60]	@ float
 6725              	.LVL900:
 6726 025e A047     		blx	r4
 6727              	.LVL901:
 6728 0260 4146     		mov	r1, r8
 6729 0262 8246     		mov	r10, r0
 6730 0264 1098     		ldr	r0, [sp, #64]	@ float
 6731 0266 A047     		blx	r4
 6732              	.LVL902:
 6733 0268 0146     		mov	r1, r0
 6734 026a 5046     		mov	r0, r10
 6735 026c A847     		blx	r5
 6736              	.LVL903:
 6737 026e 4946     		mov	r1, r9
 6738 0270 8246     		mov	r10, r0
 6739 0272 1398     		ldr	r0, [sp, #76]	@ float
 6740 0274 A047     		blx	r4
 6741              	.LVL904:
 6742 0276 0146     		mov	r1, r0
 6743 0278 5046     		mov	r0, r10
 6744 027a A847     		blx	r5
 6745              	.LVL905:
1201:/home/tienluong/workspace/atlantis_fw/AsicFwS2/include/matrix.h ****         dst[5]   = tmp[0] * mat[0] + tmp[7] * mat[2] + tmp[8]  * mat[3];
 6746              		.loc 2 1201 0
 6747 027c 3146     		mov	r1, r6
1200:/home/tienluong/workspace/atlantis_fw/AsicFwS2/include/matrix.h ****         dst[1]  -= tmp[0] * mat[1] + tmp[3] * mat[2] + tmp[4]  * mat[3];
 6748              		.loc 2 1200 0
 6749 027e 8246     		mov	r10, r0
1201:/home/tienluong/workspace/atlantis_fw/AsicFwS2/include/matrix.h ****         dst[5]   = tmp[0] * mat[0] + tmp[7] * mat[2] + tmp[8]  * mat[3];
 6750              		.loc 2 1201 0
 6751 0280 0E98     		ldr	r0, [sp, #56]	@ float
 6752 0282 A047     		blx	r4
 6753              	.LVL906:
 6754 0284 4146     		mov	r1, r8
 6755 0286 8346     		mov	fp, r0
 6756 0288 1198     		ldr	r0, [sp, #68]	@ float
 6757 028a A047     		blx	r4
 6758              	.LVL907:
 6759 028c 0146     		mov	r1, r0
 6760 028e 5846     		mov	r0, fp
 6761 0290 A847     		blx	r5
 6762              	.LVL908:
 6763 0292 4946     		mov	r1, r9
 6764 0294 8346     		mov	fp, r0
 6765 0296 1298     		ldr	r0, [sp, #72]	@ float
 6766 0298 A047     		blx	r4
 6767              	.LVL909:
 6768 029a 0146     		mov	r1, r0
 6769 029c 5846     		mov	r0, fp
 6770 029e A847     		blx	r5
 6771              	.LVL910:
 6772 02a0 6C4B     		ldr	r3, .L215+4
 6773 02a2 0146     		mov	r1, r0
 6774 02a4 5046     		mov	r0, r10
 6775 02a6 9847     		blx	r3
 6776              	.LVL911:
1202:/home/tienluong/workspace/atlantis_fw/AsicFwS2/include/matrix.h ****         dst[5]  -= tmp[1] * mat[0] + tmp[6] * mat[2] + tmp[9]  * mat[3];
 6777              		.loc 2 1202 0
 6778 02a8 3946     		mov	r1, r7
1201:/home/tienluong/workspace/atlantis_fw/AsicFwS2/include/matrix.h ****         dst[5]   = tmp[0] * mat[0] + tmp[7] * mat[2] + tmp[8]  * mat[3];
 6779              		.loc 2 1201 0
 6780 02aa 1D90     		str	r0, [sp, #116]	@ float
1202:/home/tienluong/workspace/atlantis_fw/AsicFwS2/include/matrix.h ****         dst[5]  -= tmp[1] * mat[0] + tmp[6] * mat[2] + tmp[9]  * mat[3];
 6781              		.loc 2 1202 0
 6782 02ac 0E98     		ldr	r0, [sp, #56]	@ float
 6783 02ae A047     		blx	r4
 6784              	.LVL912:
 6785 02b0 4146     		mov	r1, r8
 6786 02b2 8246     		mov	r10, r0
 6787 02b4 1598     		ldr	r0, [sp, #84]	@ float
 6788 02b6 A047     		blx	r4
 6789              	.LVL913:
 6790 02b8 0146     		mov	r1, r0
 6791 02ba 5046     		mov	r0, r10
 6792 02bc A847     		blx	r5
 6793              	.LVL914:
 6794 02be 4946     		mov	r1, r9
 6795 02c0 8246     		mov	r10, r0
 6796 02c2 1698     		ldr	r0, [sp, #88]	@ float
 6797 02c4 A047     		blx	r4
 6798              	.LVL915:
 6799 02c6 0146     		mov	r1, r0
 6800 02c8 5046     		mov	r0, r10
 6801 02ca A847     		blx	r5
 6802              	.LVL916:
1203:/home/tienluong/workspace/atlantis_fw/AsicFwS2/include/matrix.h ****         dst[9]   = tmp[3] * mat[0] + tmp[6] * mat[1] + tmp[11] * mat[3];
 6803              		.loc 2 1203 0
 6804 02cc 3946     		mov	r1, r7
1202:/home/tienluong/workspace/atlantis_fw/AsicFwS2/include/matrix.h ****         dst[5]  -= tmp[1] * mat[0] + tmp[6] * mat[2] + tmp[9]  * mat[3];
 6805              		.loc 2 1202 0
 6806 02ce 8246     		mov	r10, r0
1203:/home/tienluong/workspace/atlantis_fw/AsicFwS2/include/matrix.h ****         dst[9]   = tmp[3] * mat[0] + tmp[6] * mat[1] + tmp[11] * mat[3];
 6807              		.loc 2 1203 0
 6808 02d0 0F98     		ldr	r0, [sp, #60]	@ float
 6809 02d2 A047     		blx	r4
 6810              	.LVL917:
 6811 02d4 4146     		mov	r1, r8
 6812 02d6 8346     		mov	fp, r0
 6813 02d8 1498     		ldr	r0, [sp, #80]	@ float
 6814 02da A047     		blx	r4
 6815              	.LVL918:
 6816 02dc 0146     		mov	r1, r0
 6817 02de 5846     		mov	r0, fp
 6818 02e0 A847     		blx	r5
 6819              	.LVL919:
 6820 02e2 4946     		mov	r1, r9
 6821 02e4 8346     		mov	fp, r0
 6822 02e6 1798     		ldr	r0, [sp, #92]	@ float
 6823 02e8 A047     		blx	r4
 6824              	.LVL920:
 6825 02ea 0146     		mov	r1, r0
 6826 02ec 5846     		mov	r0, fp
 6827 02ee A847     		blx	r5
 6828              	.LVL921:
 6829 02f0 584B     		ldr	r3, .L215+4
 6830 02f2 0146     		mov	r1, r0
 6831 02f4 5046     		mov	r0, r10
 6832 02f6 9847     		blx	r3
 6833              	.LVL922:
1204:/home/tienluong/workspace/atlantis_fw/AsicFwS2/include/matrix.h ****         dst[9]  -= tmp[2] * mat[0] + tmp[7] * mat[1] + tmp[10] * mat[3];
 6834              		.loc 2 1204 0
 6835 02f8 3946     		mov	r1, r7
1203:/home/tienluong/workspace/atlantis_fw/AsicFwS2/include/matrix.h ****         dst[9]   = tmp[3] * mat[0] + tmp[6] * mat[1] + tmp[11] * mat[3];
 6836              		.loc 2 1203 0
 6837 02fa 2190     		str	r0, [sp, #132]	@ float
1204:/home/tienluong/workspace/atlantis_fw/AsicFwS2/include/matrix.h ****         dst[9]  -= tmp[2] * mat[0] + tmp[7] * mat[1] + tmp[10] * mat[3];
 6838              		.loc 2 1204 0
 6839 02fc 1198     		ldr	r0, [sp, #68]	@ float
 6840 02fe A047     		blx	r4
 6841              	.LVL923:
 6842 0300 3146     		mov	r1, r6
 6843 0302 8246     		mov	r10, r0
 6844 0304 1498     		ldr	r0, [sp, #80]	@ float
 6845 0306 A047     		blx	r4
 6846              	.LVL924:
 6847 0308 0146     		mov	r1, r0
 6848 030a 5046     		mov	r0, r10
 6849 030c A847     		blx	r5
 6850              	.LVL925:
 6851 030e 4946     		mov	r1, r9
 6852 0310 8246     		mov	r10, r0
 6853 0312 1998     		ldr	r0, [sp, #100]	@ float
 6854 0314 A047     		blx	r4
 6855              	.LVL926:
 6856 0316 0146     		mov	r1, r0
 6857 0318 5046     		mov	r0, r10
 6858 031a A847     		blx	r5
 6859              	.LVL927:
1205:/home/tienluong/workspace/atlantis_fw/AsicFwS2/include/matrix.h ****         dst[13]  = tmp[4] * mat[0] + tmp[9] * mat[1] + tmp[10] * mat[2];
 6860              		.loc 2 1205 0
 6861 031c 3946     		mov	r1, r7
1204:/home/tienluong/workspace/atlantis_fw/AsicFwS2/include/matrix.h ****         dst[9]  -= tmp[2] * mat[0] + tmp[7] * mat[1] + tmp[10] * mat[3];
 6862              		.loc 2 1204 0
 6863 031e 8246     		mov	r10, r0
1205:/home/tienluong/workspace/atlantis_fw/AsicFwS2/include/matrix.h ****         dst[13]  = tmp[4] * mat[0] + tmp[9] * mat[1] + tmp[10] * mat[2];
 6864              		.loc 2 1205 0
 6865 0320 1098     		ldr	r0, [sp, #64]	@ float
 6866 0322 A047     		blx	r4
 6867              	.LVL928:
 6868 0324 3146     		mov	r1, r6
 6869 0326 8346     		mov	fp, r0
 6870 0328 1598     		ldr	r0, [sp, #84]	@ float
 6871 032a A047     		blx	r4
 6872              	.LVL929:
 6873 032c 0146     		mov	r1, r0
 6874 032e 5846     		mov	r0, fp
 6875 0330 A847     		blx	r5
 6876              	.LVL930:
 6877 0332 4946     		mov	r1, r9
 6878 0334 8346     		mov	fp, r0
 6879 0336 1898     		ldr	r0, [sp, #96]	@ float
 6880 0338 A047     		blx	r4
 6881              	.LVL931:
 6882 033a 0146     		mov	r1, r0
 6883 033c 5846     		mov	r0, fp
 6884 033e A847     		blx	r5
 6885              	.LVL932:
 6886 0340 444B     		ldr	r3, .L215+4
 6887 0342 0146     		mov	r1, r0
 6888 0344 5046     		mov	r0, r10
 6889 0346 9847     		blx	r3
 6890              	.LVL933:
1206:/home/tienluong/workspace/atlantis_fw/AsicFwS2/include/matrix.h ****         dst[13] -= tmp[5] * mat[0] + tmp[8] * mat[1] + tmp[11] * mat[2];
 6891              		.loc 2 1206 0
 6892 0348 3946     		mov	r1, r7
1205:/home/tienluong/workspace/atlantis_fw/AsicFwS2/include/matrix.h ****         dst[13]  = tmp[4] * mat[0] + tmp[9] * mat[1] + tmp[10] * mat[2];
 6893              		.loc 2 1205 0
 6894 034a 2590     		str	r0, [sp, #148]	@ float
1206:/home/tienluong/workspace/atlantis_fw/AsicFwS2/include/matrix.h ****         dst[13] -= tmp[5] * mat[0] + tmp[8] * mat[1] + tmp[11] * mat[2];
 6895              		.loc 2 1206 0
 6896 034c 1298     		ldr	r0, [sp, #72]	@ float
 6897 034e A047     		blx	r4
 6898              	.LVL934:
 6899 0350 3146     		mov	r1, r6
 6900 0352 8246     		mov	r10, r0
 6901 0354 1798     		ldr	r0, [sp, #92]	@ float
 6902 0356 A047     		blx	r4
 6903              	.LVL935:
 6904 0358 0146     		mov	r1, r0
 6905 035a 5046     		mov	r0, r10
 6906 035c A847     		blx	r5
 6907              	.LVL936:
 6908 035e 4146     		mov	r1, r8
 6909 0360 8246     		mov	r10, r0
 6910 0362 1898     		ldr	r0, [sp, #96]	@ float
 6911 0364 A047     		blx	r4
 6912              	.LVL937:
 6913 0366 0146     		mov	r1, r0
 6914 0368 5046     		mov	r0, r10
 6915 036a A847     		blx	r5
 6916              	.LVL938:
1207:/home/tienluong/workspace/atlantis_fw/AsicFwS2/include/matrix.h **** 
 6917              		.loc 2 1207 0
 6918 036c 3946     		mov	r1, r7
1206:/home/tienluong/workspace/atlantis_fw/AsicFwS2/include/matrix.h ****         dst[13] -= tmp[5] * mat[0] + tmp[8] * mat[1] + tmp[11] * mat[2];
 6919              		.loc 2 1206 0
 6920 036e 8246     		mov	r10, r0
1207:/home/tienluong/workspace/atlantis_fw/AsicFwS2/include/matrix.h **** 
 6921              		.loc 2 1207 0
 6922 0370 1398     		ldr	r0, [sp, #76]	@ float
 6923 0372 A047     		blx	r4
 6924              	.LVL939:
 6925 0374 3146     		mov	r1, r6
 6926 0376 8346     		mov	fp, r0
 6927 0378 1698     		ldr	r0, [sp, #88]	@ float
 6928 037a A047     		blx	r4
 6929              	.LVL940:
 6930 037c 0146     		mov	r1, r0
 6931 037e 5846     		mov	r0, fp
 6932 0380 A847     		blx	r5
 6933              	.LVL941:
 6934 0382 4146     		mov	r1, r8
 6935 0384 8346     		mov	fp, r0
 6936 0386 1998     		ldr	r0, [sp, #100]	@ float
 6937 0388 A047     		blx	r4
 6938              	.LVL942:
 6939 038a 0146     		mov	r1, r0
 6940 038c 5846     		mov	r0, fp
 6941 038e A847     		blx	r5
 6942              	.LVL943:
 6943 0390 304B     		ldr	r3, .L215+4
 6944 0392 0146     		mov	r1, r0
 6945 0394 5046     		mov	r0, r10
 6946 0396 9847     		blx	r3
 6947              	.LVL944:
 6948 0398 2990     		str	r0, [sp, #164]	@ float
1210:/home/tienluong/workspace/atlantis_fw/AsicFwS2/include/matrix.h ****         tmp[1] = mat[3] * mat[6];
 6949              		.loc 2 1210 0
 6950 039a 4046     		mov	r0, r8
 6951 039c 0C99     		ldr	r1, [sp, #48]	@ float
 6952 039e A047     		blx	r4
 6953              	.LVL945:
1211:/home/tienluong/workspace/atlantis_fw/AsicFwS2/include/matrix.h ****         tmp[2] = mat[1] * mat[7];
 6954              		.loc 2 1211 0
 6955 03a0 0B99     		ldr	r1, [sp, #44]	@ float
1210:/home/tienluong/workspace/atlantis_fw/AsicFwS2/include/matrix.h ****         tmp[1] = mat[3] * mat[6];
 6956              		.loc 2 1210 0
 6957 03a2 8346     		mov	fp, r0
 6958              	.LVL946:
1211:/home/tienluong/workspace/atlantis_fw/AsicFwS2/include/matrix.h ****         tmp[2] = mat[1] * mat[7];
 6959              		.loc 2 1211 0
 6960 03a4 4846     		mov	r0, r9
 6961              	.LVL947:
 6962 03a6 A047     		blx	r4
 6963              	.LVL948:
1212:/home/tienluong/workspace/atlantis_fw/AsicFwS2/include/matrix.h ****         tmp[3] = mat[3] * mat[5];
 6964              		.loc 2 1212 0
 6965 03a8 0C99     		ldr	r1, [sp, #48]	@ float
1211:/home/tienluong/workspace/atlantis_fw/AsicFwS2/include/matrix.h ****         tmp[2] = mat[1] * mat[7];
 6966              		.loc 2 1211 0
 6967 03aa 8246     		mov	r10, r0
 6968              	.LVL949:
1212:/home/tienluong/workspace/atlantis_fw/AsicFwS2/include/matrix.h ****         tmp[3] = mat[3] * mat[5];
 6969              		.loc 2 1212 0
 6970 03ac 3046     		mov	r0, r6
 6971              	.LVL950:
 6972 03ae A047     		blx	r4
 6973              	.LVL951:
1213:/home/tienluong/workspace/atlantis_fw/AsicFwS2/include/matrix.h ****         tmp[4] = mat[1] * mat[6];
 6974              		.loc 2 1213 0
 6975 03b0 0A99     		ldr	r1, [sp, #40]	@ float
1212:/home/tienluong/workspace/atlantis_fw/AsicFwS2/include/matrix.h ****         tmp[3] = mat[3] * mat[5];
 6976              		.loc 2 1212 0
 6977 03b2 0E90     		str	r0, [sp, #56]	@ float
 6978              	.LVL952:
1213:/home/tienluong/workspace/atlantis_fw/AsicFwS2/include/matrix.h ****         tmp[4] = mat[1] * mat[6];
 6979              		.loc 2 1213 0
 6980 03b4 4846     		mov	r0, r9
 6981              	.LVL953:
 6982 03b6 A047     		blx	r4
 6983              	.LVL954:
1214:/home/tienluong/workspace/atlantis_fw/AsicFwS2/include/matrix.h ****         tmp[5] = mat[2] * mat[5];
 6984              		.loc 2 1214 0
 6985 03b8 0B99     		ldr	r1, [sp, #44]	@ float
1213:/home/tienluong/workspace/atlantis_fw/AsicFwS2/include/matrix.h ****         tmp[4] = mat[1] * mat[6];
 6986              		.loc 2 1213 0
 6987 03ba 0F90     		str	r0, [sp, #60]	@ float
 6988              	.LVL955:
1214:/home/tienluong/workspace/atlantis_fw/AsicFwS2/include/matrix.h ****         tmp[5] = mat[2] * mat[5];
 6989              		.loc 2 1214 0
 6990 03bc 3046     		mov	r0, r6
 6991              	.LVL956:
 6992 03be A047     		blx	r4
 6993              	.LVL957:
1215:/home/tienluong/workspace/atlantis_fw/AsicFwS2/include/matrix.h ****         tmp[6] = mat[0] * mat[7];
 6994              		.loc 2 1215 0
 6995 03c0 0A99     		ldr	r1, [sp, #40]	@ float
1214:/home/tienluong/workspace/atlantis_fw/AsicFwS2/include/matrix.h ****         tmp[5] = mat[2] * mat[5];
 6996              		.loc 2 1214 0
 6997 03c2 1090     		str	r0, [sp, #64]	@ float
 6998              	.LVL958:
1215:/home/tienluong/workspace/atlantis_fw/AsicFwS2/include/matrix.h ****         tmp[6] = mat[0] * mat[7];
 6999              		.loc 2 1215 0
 7000 03c4 4046     		mov	r0, r8
 7001              	.LVL959:
 7002 03c6 A047     		blx	r4
 7003              	.LVL960:
1216:/home/tienluong/workspace/atlantis_fw/AsicFwS2/include/matrix.h ****         tmp[7] = mat[3] * mat[4];
 7004              		.loc 2 1216 0
 7005 03c8 0C99     		ldr	r1, [sp, #48]	@ float
1215:/home/tienluong/workspace/atlantis_fw/AsicFwS2/include/matrix.h ****         tmp[6] = mat[0] * mat[7];
 7006              		.loc 2 1215 0
 7007 03ca 1190     		str	r0, [sp, #68]	@ float
 7008              	.LVL961:
1216:/home/tienluong/workspace/atlantis_fw/AsicFwS2/include/matrix.h ****         tmp[7] = mat[3] * mat[4];
 7009              		.loc 2 1216 0
 7010 03cc 3846     		mov	r0, r7
 7011              	.LVL962:
 7012 03ce A047     		blx	r4
 7013              	.LVL963:
1217:/home/tienluong/workspace/atlantis_fw/AsicFwS2/include/matrix.h ****         tmp[8] = mat[0] * mat[6];
 7014              		.loc 2 1217 0
 7015 03d0 0D99     		ldr	r1, [sp, #52]	@ float
1216:/home/tienluong/workspace/atlantis_fw/AsicFwS2/include/matrix.h ****         tmp[7] = mat[3] * mat[4];
 7016              		.loc 2 1216 0
 7017 03d2 0C90     		str	r0, [sp, #48]	@ float
 7018              	.LVL964:
1217:/home/tienluong/workspace/atlantis_fw/AsicFwS2/include/matrix.h ****         tmp[8] = mat[0] * mat[6];
 7019              		.loc 2 1217 0
 7020 03d4 4846     		mov	r0, r9
 7021              	.LVL965:
 7022 03d6 A047     		blx	r4
 7023              	.LVL966:
1218:/home/tienluong/workspace/atlantis_fw/AsicFwS2/include/matrix.h ****         tmp[9] = mat[2] * mat[4];
 7024              		.loc 2 1218 0
 7025 03d8 0B99     		ldr	r1, [sp, #44]	@ float
1217:/home/tienluong/workspace/atlantis_fw/AsicFwS2/include/matrix.h ****         tmp[8] = mat[0] * mat[6];
 7026              		.loc 2 1217 0
 7027 03da 8146     		mov	r9, r0
 7028              	.LVL967:
1218:/home/tienluong/workspace/atlantis_fw/AsicFwS2/include/matrix.h ****         tmp[9] = mat[2] * mat[4];
 7029              		.loc 2 1218 0
 7030 03dc 3846     		mov	r0, r7
 7031              	.LVL968:
 7032 03de A047     		blx	r4
 7033              	.LVL969:
1219:/home/tienluong/workspace/atlantis_fw/AsicFwS2/include/matrix.h ****         tmp[10] = mat[0] * mat[5];
 7034              		.loc 2 1219 0
 7035 03e0 0D99     		ldr	r1, [sp, #52]	@ float
1218:/home/tienluong/workspace/atlantis_fw/AsicFwS2/include/matrix.h ****         tmp[9] = mat[2] * mat[4];
 7036              		.loc 2 1218 0
 7037 03e2 0B90     		str	r0, [sp, #44]	@ float
1219:/home/tienluong/workspace/atlantis_fw/AsicFwS2/include/matrix.h ****         tmp[10] = mat[0] * mat[5];
 7038              		.loc 2 1219 0
 7039 03e4 4046     		mov	r0, r8
 7040 03e6 A047     		blx	r4
 7041              	.LVL970:
1220:/home/tienluong/workspace/atlantis_fw/AsicFwS2/include/matrix.h ****         tmp[11] = mat[1] * mat[4];
 7042              		.loc 2 1220 0
 7043 03e8 0A99     		ldr	r1, [sp, #40]	@ float
1219:/home/tienluong/workspace/atlantis_fw/AsicFwS2/include/matrix.h ****         tmp[10] = mat[0] * mat[5];
 7044              		.loc 2 1219 0
 7045 03ea 8046     		mov	r8, r0
1220:/home/tienluong/workspace/atlantis_fw/AsicFwS2/include/matrix.h ****         tmp[11] = mat[1] * mat[4];
 7046              		.loc 2 1220 0
 7047 03ec 3846     		mov	r0, r7
 7048 03ee A047     		blx	r4
 7049              	.LVL971:
1221:/home/tienluong/workspace/atlantis_fw/AsicFwS2/include/matrix.h **** 
 7050              		.loc 2 1221 0
 7051 03f0 0D99     		ldr	r1, [sp, #52]	@ float
1220:/home/tienluong/workspace/atlantis_fw/AsicFwS2/include/matrix.h ****         tmp[11] = mat[1] * mat[4];
 7052              		.loc 2 1220 0
 7053 03f2 0746     		mov	r7, r0
1221:/home/tienluong/workspace/atlantis_fw/AsicFwS2/include/matrix.h **** 
 7054              		.loc 2 1221 0
 7055 03f4 3046     		mov	r0, r6
 7056 03f6 A047     		blx	r4
 7057              	.LVL972:
1224:/home/tienluong/workspace/atlantis_fw/AsicFwS2/include/matrix.h ****         dst[2]  -= tmp[1]  * mat[13] + tmp[2]  * mat[14] + tmp[5]  * mat[15];
 7058              		.loc 2 1224 0
 7059 03f8 0799     		ldr	r1, [sp, #28]	@ float
1221:/home/tienluong/workspace/atlantis_fw/AsicFwS2/include/matrix.h **** 
 7060              		.loc 2 1221 0
 7061 03fa 0646     		mov	r6, r0
1224:/home/tienluong/workspace/atlantis_fw/AsicFwS2/include/matrix.h ****         dst[2]  -= tmp[1]  * mat[13] + tmp[2]  * mat[14] + tmp[5]  * mat[15];
 7062              		.loc 2 1224 0
 7063 03fc 5846     		mov	r0, fp
 7064 03fe A047     		blx	r4
 7065              	.LVL973:
 7066 0400 0599     		ldr	r1, [sp, #20]	@ float
 7067 0402 0A90     		str	r0, [sp, #40]
 7068 0404 0F98     		ldr	r0, [sp, #60]	@ float
 7069 0406 A047     		blx	r4
 7070              	.LVL974:
 7071 0408 0A9B     		ldr	r3, [sp, #40]
 7072 040a 0146     		mov	r1, r0
 7073 040c 1846     		mov	r0, r3
 7074 040e A847     		blx	r5
 7075              	.LVL975:
 7076 0410 0A90     		str	r0, [sp, #40]
 7077 0412 1098     		ldr	r0, [sp, #64]	@ float
 7078 0414 0399     		ldr	r1, [sp, #12]	@ float
 7079 0416 A047     		blx	r4
 7080              	.LVL976:
 7081 0418 0A9B     		ldr	r3, [sp, #40]
 7082 041a 0146     		mov	r1, r0
 7083 041c 1846     		mov	r0, r3
 7084 041e A847     		blx	r5
 7085              	.LVL977:
1225:/home/tienluong/workspace/atlantis_fw/AsicFwS2/include/matrix.h ****         dst[3]   = tmp[2]  * mat[10] + tmp[5]  * mat[11] + tmp[1]  * mat[9];
 7086              		.loc 2 1225 0
 7087 0420 0799     		ldr	r1, [sp, #28]	@ float
1224:/home/tienluong/workspace/atlantis_fw/AsicFwS2/include/matrix.h ****         dst[2]  -= tmp[1]  * mat[13] + tmp[2]  * mat[14] + tmp[5]  * mat[15];
 7088              		.loc 2 1224 0
 7089 0422 0D90     		str	r0, [sp, #52]
1225:/home/tienluong/workspace/atlantis_fw/AsicFwS2/include/matrix.h ****         dst[3]   = tmp[2]  * mat[10] + tmp[5]  * mat[11] + tmp[1]  * mat[9];
 7090              		.loc 2 1225 0
 7091 0424 5046     		mov	r0, r10
 7092 0426 A047     		blx	r4
 7093              	.LVL978:
 7094 0428 0599     		ldr	r1, [sp, #20]	@ float
 7095 042a 0A90     		str	r0, [sp, #40]
 7096 042c 0E98     		ldr	r0, [sp, #56]	@ float
 7097 042e A047     		blx	r4
 7098              	.LVL979:
 7099 0430 0A9A     		ldr	r2, [sp, #40]
 7100 0432 0146     		mov	r1, r0
 7101 0434 1046     		mov	r0, r2
 7102 0436 A847     		blx	r5
 7103              	.LVL980:
 7104 0438 0399     		ldr	r1, [sp, #12]	@ float
 7105 043a 0A90     		str	r0, [sp, #40]
 7106 043c 1198     		ldr	r0, [sp, #68]	@ float
 7107 043e A047     		blx	r4
 7108              	.LVL981:
 7109 0440 0A9A     		ldr	r2, [sp, #40]
 7110 0442 0146     		mov	r1, r0
 7111 0444 1046     		mov	r0, r2
 7112 0446 A847     		blx	r5
 7113              	.LVL982:
 7114 0448 0D9B     		ldr	r3, [sp, #52]
 7115 044a 0146     		mov	r1, r0
 7116 044c 04E0     		b	.L216
 7117              	.L217:
 7118 044e 00BF     		.align	2
 7119              	.L215:
 7120 0450 00000000 		.word	__aeabi_fdiv
 7121 0454 00000000 		.word	__aeabi_fsub
 7122              	.L216:
 7123 0458 1846     		mov	r0, r3
 7124 045a 7F4B     		ldr	r3, .L218
 7125 045c 9847     		blx	r3
 7126              	.LVL983:
1226:/home/tienluong/workspace/atlantis_fw/AsicFwS2/include/matrix.h ****         dst[3]  -= tmp[4]  * mat[11] + tmp[0]  * mat[9]  + tmp[3]  * mat[10];
 7127              		.loc 2 1226 0
 7128 045e 0299     		ldr	r1, [sp, #8]	@ float
1225:/home/tienluong/workspace/atlantis_fw/AsicFwS2/include/matrix.h ****         dst[3]   = tmp[2]  * mat[10] + tmp[5]  * mat[11] + tmp[1]  * mat[9];
 7129              		.loc 2 1225 0
 7130 0460 1E90     		str	r0, [sp, #120]	@ float
1226:/home/tienluong/workspace/atlantis_fw/AsicFwS2/include/matrix.h ****         dst[3]  -= tmp[4]  * mat[11] + tmp[0]  * mat[9]  + tmp[3]  * mat[10];
 7131              		.loc 2 1226 0
 7132 0462 0E98     		ldr	r0, [sp, #56]	@ float
 7133 0464 A047     		blx	r4
 7134              	.LVL984:
 7135 0466 0499     		ldr	r1, [sp, #16]	@ float
 7136 0468 0A90     		str	r0, [sp, #40]
 7137 046a 1198     		ldr	r0, [sp, #68]	@ float
 7138 046c A047     		blx	r4
 7139              	.LVL985:
 7140 046e 0A9B     		ldr	r3, [sp, #40]
 7141 0470 0146     		mov	r1, r0
 7142 0472 1846     		mov	r0, r3
 7143 0474 A847     		blx	r5
 7144              	.LVL986:
 7145 0476 0699     		ldr	r1, [sp, #24]	@ float
 7146 0478 0A90     		str	r0, [sp, #40]
 7147 047a 5046     		mov	r0, r10
 7148 047c A047     		blx	r4
 7149              	.LVL987:
 7150 047e 0A9B     		ldr	r3, [sp, #40]
 7151 0480 0146     		mov	r1, r0
 7152 0482 1846     		mov	r0, r3
 7153 0484 A847     		blx	r5
 7154              	.LVL988:
1227:/home/tienluong/workspace/atlantis_fw/AsicFwS2/include/matrix.h ****         dst[6]   = tmp[1]  * mat[12] + tmp[6]  * mat[14] + tmp[9]  * mat[15];
 7155              		.loc 2 1227 0
 7156 0486 0499     		ldr	r1, [sp, #16]	@ float
1226:/home/tienluong/workspace/atlantis_fw/AsicFwS2/include/matrix.h ****         dst[3]  -= tmp[4]  * mat[11] + tmp[0]  * mat[9]  + tmp[3]  * mat[10];
 7157              		.loc 2 1226 0
 7158 0488 0D90     		str	r0, [sp, #52]
1227:/home/tienluong/workspace/atlantis_fw/AsicFwS2/include/matrix.h ****         dst[6]   = tmp[1]  * mat[12] + tmp[6]  * mat[14] + tmp[9]  * mat[15];
 7159              		.loc 2 1227 0
 7160 048a 1098     		ldr	r0, [sp, #64]	@ float
 7161 048c A047     		blx	r4
 7162              	.LVL989:
 7163 048e 0699     		ldr	r1, [sp, #24]	@ float
 7164 0490 0A90     		str	r0, [sp, #40]
 7165 0492 5846     		mov	r0, fp
 7166 0494 A047     		blx	r4
 7167              	.LVL990:
 7168 0496 0A9A     		ldr	r2, [sp, #40]
 7169 0498 0146     		mov	r1, r0
 7170 049a 1046     		mov	r0, r2
 7171 049c A847     		blx	r5
 7172              	.LVL991:
 7173 049e 0299     		ldr	r1, [sp, #8]	@ float
 7174 04a0 0A90     		str	r0, [sp, #40]
 7175 04a2 0F98     		ldr	r0, [sp, #60]	@ float
 7176 04a4 A047     		blx	r4
 7177              	.LVL992:
 7178 04a6 0A9A     		ldr	r2, [sp, #40]
 7179 04a8 0146     		mov	r1, r0
 7180 04aa 1046     		mov	r0, r2
 7181 04ac A847     		blx	r5
 7182              	.LVL993:
 7183 04ae 0D9B     		ldr	r3, [sp, #52]
 7184 04b0 0146     		mov	r1, r0
 7185 04b2 1846     		mov	r0, r3
 7186 04b4 684B     		ldr	r3, .L218
 7187 04b6 9847     		blx	r3
 7188              	.LVL994:
1228:/home/tienluong/workspace/atlantis_fw/AsicFwS2/include/matrix.h ****         dst[6]  -= tmp[0]  * mat[12] + tmp[7]  * mat[14] + tmp[8]  * mat[15];
 7189              		.loc 2 1228 0
 7190 04b8 0999     		ldr	r1, [sp, #36]	@ float
1227:/home/tienluong/workspace/atlantis_fw/AsicFwS2/include/matrix.h ****         dst[6]   = tmp[1]  * mat[12] + tmp[6]  * mat[14] + tmp[9]  * mat[15];
 7191              		.loc 2 1227 0
 7192 04ba 1F90     		str	r0, [sp, #124]	@ float
1228:/home/tienluong/workspace/atlantis_fw/AsicFwS2/include/matrix.h ****         dst[6]  -= tmp[0]  * mat[12] + tmp[7]  * mat[14] + tmp[8]  * mat[15];
 7193              		.loc 2 1228 0
 7194 04bc 5046     		mov	r0, r10
 7195 04be A047     		blx	r4
 7196              	.LVL995:
 7197 04c0 0599     		ldr	r1, [sp, #20]	@ float
 7198 04c2 0A90     		str	r0, [sp, #40]
 7199 04c4 0C98     		ldr	r0, [sp, #48]	@ float
 7200 04c6 A047     		blx	r4
 7201              	.LVL996:
 7202 04c8 0A9B     		ldr	r3, [sp, #40]
 7203 04ca 0146     		mov	r1, r0
 7204 04cc 1846     		mov	r0, r3
 7205 04ce A847     		blx	r5
 7206              	.LVL997:
 7207 04d0 0399     		ldr	r1, [sp, #12]	@ float
 7208 04d2 0A90     		str	r0, [sp, #40]
 7209 04d4 4046     		mov	r0, r8
 7210 04d6 A047     		blx	r4
 7211              	.LVL998:
 7212 04d8 0A9B     		ldr	r3, [sp, #40]
 7213 04da 0146     		mov	r1, r0
 7214 04dc 1846     		mov	r0, r3
 7215 04de A847     		blx	r5
 7216              	.LVL999:
1229:/home/tienluong/workspace/atlantis_fw/AsicFwS2/include/matrix.h ****         dst[7]   = tmp[8]  * mat[11] + tmp[0]  * mat[8]  + tmp[7]  * mat[10];
 7217              		.loc 2 1229 0
 7218 04e0 0999     		ldr	r1, [sp, #36]	@ float
1228:/home/tienluong/workspace/atlantis_fw/AsicFwS2/include/matrix.h ****         dst[6]  -= tmp[0]  * mat[12] + tmp[7]  * mat[14] + tmp[8]  * mat[15];
 7219              		.loc 2 1228 0
 7220 04e2 0D90     		str	r0, [sp, #52]
1229:/home/tienluong/workspace/atlantis_fw/AsicFwS2/include/matrix.h ****         dst[7]   = tmp[8]  * mat[11] + tmp[0]  * mat[8]  + tmp[7]  * mat[10];
 7221              		.loc 2 1229 0
 7222 04e4 5846     		mov	r0, fp
 7223 04e6 A047     		blx	r4
 7224              	.LVL1000:
 7225 04e8 0599     		ldr	r1, [sp, #20]	@ float
 7226 04ea 0A90     		str	r0, [sp, #40]
 7227 04ec 4846     		mov	r0, r9
 7228 04ee A047     		blx	r4
 7229              	.LVL1001:
 7230 04f0 0A9A     		ldr	r2, [sp, #40]
 7231 04f2 0146     		mov	r1, r0
 7232 04f4 1046     		mov	r0, r2
 7233 04f6 A847     		blx	r5
 7234              	.LVL1002:
 7235 04f8 0399     		ldr	r1, [sp, #12]	@ float
 7236 04fa 0A90     		str	r0, [sp, #40]
 7237 04fc 0B98     		ldr	r0, [sp, #44]	@ float
 7238 04fe A047     		blx	r4
 7239              	.LVL1003:
 7240 0500 0A9A     		ldr	r2, [sp, #40]
 7241 0502 0146     		mov	r1, r0
 7242 0504 1046     		mov	r0, r2
 7243 0506 A847     		blx	r5
 7244              	.LVL1004:
 7245 0508 0D9B     		ldr	r3, [sp, #52]
 7246 050a 0146     		mov	r1, r0
 7247 050c 1846     		mov	r0, r3
 7248 050e 524B     		ldr	r3, .L218
 7249 0510 9847     		blx	r3
 7250              	.LVL1005:
1230:/home/tienluong/workspace/atlantis_fw/AsicFwS2/include/matrix.h ****         dst[7]  -= tmp[6]  * mat[10] + tmp[9]  * mat[11] + tmp[1]  * mat[8];
 7251              		.loc 2 1230 0
 7252 0512 0499     		ldr	r1, [sp, #16]	@ float
1229:/home/tienluong/workspace/atlantis_fw/AsicFwS2/include/matrix.h ****         dst[7]   = tmp[8]  * mat[11] + tmp[0]  * mat[8]  + tmp[7]  * mat[10];
 7253              		.loc 2 1229 0
 7254 0514 2290     		str	r0, [sp, #136]	@ float
1230:/home/tienluong/workspace/atlantis_fw/AsicFwS2/include/matrix.h ****         dst[7]  -= tmp[6]  * mat[10] + tmp[9]  * mat[11] + tmp[1]  * mat[8];
 7255              		.loc 2 1230 0
 7256 0516 0B98     		ldr	r0, [sp, #44]	@ float
 7257 0518 A047     		blx	r4
 7258              	.LVL1006:
 7259 051a 0899     		ldr	r1, [sp, #32]	@ float
 7260 051c 0A90     		str	r0, [sp, #40]
 7261 051e 5846     		mov	r0, fp
 7262 0520 A047     		blx	r4
 7263              	.LVL1007:
 7264 0522 0A9B     		ldr	r3, [sp, #40]
 7265 0524 0146     		mov	r1, r0
 7266 0526 1846     		mov	r0, r3
 7267 0528 A847     		blx	r5
 7268              	.LVL1008:
 7269 052a 0299     		ldr	r1, [sp, #8]	@ float
 7270 052c 8346     		mov	fp, r0
 7271              	.LVL1009:
 7272 052e 4846     		mov	r0, r9
 7273 0530 A047     		blx	r4
 7274              	.LVL1010:
 7275 0532 0146     		mov	r1, r0
 7276 0534 5846     		mov	r0, fp
 7277 0536 A847     		blx	r5
 7278              	.LVL1011:
1231:/home/tienluong/workspace/atlantis_fw/AsicFwS2/include/matrix.h ****         dst[10]  = tmp[2]  * mat[12] + tmp[7]  * mat[13] + tmp[10] * mat[15];
 7279              		.loc 2 1231 0
 7280 0538 0299     		ldr	r1, [sp, #8]	@ float
1230:/home/tienluong/workspace/atlantis_fw/AsicFwS2/include/matrix.h ****         dst[7]  -= tmp[6]  * mat[10] + tmp[9]  * mat[11] + tmp[1]  * mat[8];
 7281              		.loc 2 1230 0
 7282 053a 8346     		mov	fp, r0
1231:/home/tienluong/workspace/atlantis_fw/AsicFwS2/include/matrix.h ****         dst[10]  = tmp[2]  * mat[12] + tmp[7]  * mat[13] + tmp[10] * mat[15];
 7283              		.loc 2 1231 0
 7284 053c 0C98     		ldr	r0, [sp, #48]	@ float
 7285 053e A047     		blx	r4
 7286              	.LVL1012:
 7287 0540 0499     		ldr	r1, [sp, #16]	@ float
 7288 0542 0A90     		str	r0, [sp, #40]
 7289 0544 4046     		mov	r0, r8
 7290 0546 A047     		blx	r4
 7291              	.LVL1013:
 7292 0548 0A9B     		ldr	r3, [sp, #40]
 7293 054a 0146     		mov	r1, r0
 7294 054c 1846     		mov	r0, r3
 7295 054e A847     		blx	r5
 7296              	.LVL1014:
 7297 0550 0899     		ldr	r1, [sp, #32]	@ float
 7298 0552 0A90     		str	r0, [sp, #40]
 7299 0554 5046     		mov	r0, r10
 7300 0556 A047     		blx	r4
 7301              	.LVL1015:
 7302 0558 0A9B     		ldr	r3, [sp, #40]
 7303 055a 0146     		mov	r1, r0
 7304 055c 1846     		mov	r0, r3
 7305 055e A847     		blx	r5
 7306              	.LVL1016:
 7307 0560 3D4B     		ldr	r3, .L218
 7308 0562 0146     		mov	r1, r0
 7309 0564 5846     		mov	r0, fp
 7310 0566 9847     		blx	r3
 7311              	.LVL1017:
1232:/home/tienluong/workspace/atlantis_fw/AsicFwS2/include/matrix.h ****         dst[10] -= tmp[3]  * mat[12] + tmp[6]  * mat[13] + tmp[11] * mat[15];
 7312              		.loc 2 1232 0
 7313 0568 0999     		ldr	r1, [sp, #36]	@ float
1231:/home/tienluong/workspace/atlantis_fw/AsicFwS2/include/matrix.h ****         dst[10]  = tmp[2]  * mat[12] + tmp[7]  * mat[13] + tmp[10] * mat[15];
 7314              		.loc 2 1231 0
 7315 056a 2390     		str	r0, [sp, #140]	@ float
1232:/home/tienluong/workspace/atlantis_fw/AsicFwS2/include/matrix.h ****         dst[10] -= tmp[3]  * mat[12] + tmp[6]  * mat[13] + tmp[11] * mat[15];
 7316              		.loc 2 1232 0
 7317 056c 0E98     		ldr	r0, [sp, #56]	@ float
 7318 056e A047     		blx	r4
 7319              	.LVL1018:
 7320 0570 0799     		ldr	r1, [sp, #28]	@ float
 7321 0572 8246     		mov	r10, r0
 7322              	.LVL1019:
 7323 0574 4846     		mov	r0, r9
 7324 0576 A047     		blx	r4
 7325              	.LVL1020:
 7326 0578 0146     		mov	r1, r0
 7327 057a 5046     		mov	r0, r10
 7328 057c A847     		blx	r5
 7329              	.LVL1021:
 7330 057e 0399     		ldr	r1, [sp, #12]	@ float
 7331 0580 8246     		mov	r10, r0
 7332 0582 3846     		mov	r0, r7
 7333 0584 A047     		blx	r4
 7334              	.LVL1022:
 7335 0586 0146     		mov	r1, r0
 7336 0588 5046     		mov	r0, r10
 7337 058a A847     		blx	r5
 7338              	.LVL1023:
1233:/home/tienluong/workspace/atlantis_fw/AsicFwS2/include/matrix.h ****         dst[11]  = tmp[6]  * mat[9]  + tmp[11] * mat[11] + tmp[3]  * mat[8];
 7339              		.loc 2 1233 0
 7340 058c 0999     		ldr	r1, [sp, #36]	@ float
1232:/home/tienluong/workspace/atlantis_fw/AsicFwS2/include/matrix.h ****         dst[10] -= tmp[3]  * mat[12] + tmp[6]  * mat[13] + tmp[11] * mat[15];
 7341              		.loc 2 1232 0
 7342 058e 8246     		mov	r10, r0
1233:/home/tienluong/workspace/atlantis_fw/AsicFwS2/include/matrix.h ****         dst[11]  = tmp[6]  * mat[9]  + tmp[11] * mat[11] + tmp[3]  * mat[8];
 7343              		.loc 2 1233 0
 7344 0590 0F98     		ldr	r0, [sp, #60]	@ float
 7345 0592 A047     		blx	r4
 7346              	.LVL1024:
 7347 0594 0799     		ldr	r1, [sp, #28]	@ float
 7348 0596 8346     		mov	fp, r0
 7349 0598 0C98     		ldr	r0, [sp, #48]	@ float
 7350 059a A047     		blx	r4
 7351              	.LVL1025:
 7352 059c 0146     		mov	r1, r0
 7353 059e 5846     		mov	r0, fp
 7354 05a0 A847     		blx	r5
 7355              	.LVL1026:
 7356 05a2 0399     		ldr	r1, [sp, #12]	@ float
 7357 05a4 8346     		mov	fp, r0
 7358 05a6 3046     		mov	r0, r6
 7359 05a8 A047     		blx	r4
 7360              	.LVL1027:
 7361 05aa 0146     		mov	r1, r0
 7362 05ac 5846     		mov	r0, fp
 7363 05ae A847     		blx	r5
 7364              	.LVL1028:
 7365 05b0 294B     		ldr	r3, .L218
 7366 05b2 0146     		mov	r1, r0
 7367 05b4 5046     		mov	r0, r10
 7368 05b6 9847     		blx	r3
 7369              	.LVL1029:
1234:/home/tienluong/workspace/atlantis_fw/AsicFwS2/include/matrix.h ****         dst[11] -= tmp[10] * mat[11] + tmp[2]  * mat[8]  + tmp[7]  * mat[9];
 7370              		.loc 2 1234 0
 7371 05b8 0699     		ldr	r1, [sp, #24]	@ float
1233:/home/tienluong/workspace/atlantis_fw/AsicFwS2/include/matrix.h ****         dst[11]  = tmp[6]  * mat[9]  + tmp[11] * mat[11] + tmp[3]  * mat[8];
 7372              		.loc 2 1233 0
 7373 05ba 2690     		str	r0, [sp, #152]	@ float
1234:/home/tienluong/workspace/atlantis_fw/AsicFwS2/include/matrix.h ****         dst[11] -= tmp[10] * mat[11] + tmp[2]  * mat[8]  + tmp[7]  * mat[9];
 7374              		.loc 2 1234 0
 7375 05bc 0C98     		ldr	r0, [sp, #48]	@ float
 7376 05be A047     		blx	r4
 7377              	.LVL1030:
 7378 05c0 0499     		ldr	r1, [sp, #16]	@ float
 7379 05c2 8246     		mov	r10, r0
 7380 05c4 3046     		mov	r0, r6
 7381 05c6 A047     		blx	r4
 7382              	.LVL1031:
 7383 05c8 0146     		mov	r1, r0
 7384 05ca 5046     		mov	r0, r10
 7385 05cc A847     		blx	r5
 7386              	.LVL1032:
 7387 05ce 0899     		ldr	r1, [sp, #32]	@ float
 7388 05d0 8246     		mov	r10, r0
 7389 05d2 0F98     		ldr	r0, [sp, #60]	@ float
 7390 05d4 A047     		blx	r4
 7391              	.LVL1033:
 7392 05d6 0146     		mov	r1, r0
 7393 05d8 5046     		mov	r0, r10
 7394 05da A847     		blx	r5
 7395              	.LVL1034:
1235:/home/tienluong/workspace/atlantis_fw/AsicFwS2/include/matrix.h ****         dst[14]  = tmp[5]  * mat[12] + tmp[8]  * mat[13] + tmp[11] * mat[14];
 7396              		.loc 2 1235 0
 7397 05dc 0499     		ldr	r1, [sp, #16]	@ float
1234:/home/tienluong/workspace/atlantis_fw/AsicFwS2/include/matrix.h ****         dst[11] -= tmp[10] * mat[11] + tmp[2]  * mat[8]  + tmp[7]  * mat[9];
 7398              		.loc 2 1234 0
 7399 05de 8246     		mov	r10, r0
1235:/home/tienluong/workspace/atlantis_fw/AsicFwS2/include/matrix.h ****         dst[14]  = tmp[5]  * mat[12] + tmp[8]  * mat[13] + tmp[11] * mat[14];
 7400              		.loc 2 1235 0
 7401 05e0 3846     		mov	r0, r7
 7402 05e2 A047     		blx	r4
 7403              	.LVL1035:
 7404 05e4 0899     		ldr	r1, [sp, #32]	@ float
 7405 05e6 8346     		mov	fp, r0
 7406 05e8 0E98     		ldr	r0, [sp, #56]	@ float
 7407 05ea A047     		blx	r4
 7408              	.LVL1036:
 7409 05ec 0146     		mov	r1, r0
 7410 05ee 5846     		mov	r0, fp
 7411 05f0 A847     		blx	r5
 7412              	.LVL1037:
 7413 05f2 0699     		ldr	r1, [sp, #24]	@ float
 7414 05f4 8346     		mov	fp, r0
 7415 05f6 4846     		mov	r0, r9
 7416 05f8 A047     		blx	r4
 7417              	.LVL1038:
 7418 05fa 0146     		mov	r1, r0
 7419 05fc 5846     		mov	r0, fp
 7420 05fe A847     		blx	r5
 7421              	.LVL1039:
 7422 0600 154B     		ldr	r3, .L218
 7423 0602 0146     		mov	r1, r0
 7424 0604 5046     		mov	r0, r10
 7425 0606 9847     		blx	r3
 7426              	.LVL1040:
 7427 0608 2790     		str	r0, [sp, #156]	@ float
1236:/home/tienluong/workspace/atlantis_fw/AsicFwS2/include/matrix.h ****         dst[14] -= tmp[4]  * mat[12] + tmp[9]  * mat[13] + tmp[10] * mat[14];
 7428              		.loc 2 1236 0
 7429 060a 1198     		ldr	r0, [sp, #68]	@ float
 7430 060c 0999     		ldr	r1, [sp, #36]	@ float
 7431 060e A047     		blx	r4
 7432              	.LVL1041:
 7433 0610 0799     		ldr	r1, [sp, #28]	@ float
 7434 0612 8146     		mov	r9, r0
 7435              	.LVL1042:
 7436 0614 0B98     		ldr	r0, [sp, #44]	@ float
 7437 0616 A047     		blx	r4
 7438              	.LVL1043:
 7439 0618 0146     		mov	r1, r0
 7440 061a 4846     		mov	r0, r9
 7441 061c A847     		blx	r5
 7442              	.LVL1044:
 7443 061e 0599     		ldr	r1, [sp, #20]	@ float
 7444 0620 8146     		mov	r9, r0
 7445 0622 3046     		mov	r0, r6
 7446 0624 A047     		blx	r4
 7447              	.LVL1045:
 7448 0626 0146     		mov	r1, r0
 7449 0628 4846     		mov	r0, r9
 7450 062a A847     		blx	r5
 7451              	.LVL1046:
1237:/home/tienluong/workspace/atlantis_fw/AsicFwS2/include/matrix.h ****         dst[15]  = tmp[10] * mat[10] + tmp[4]  * mat[8]  + tmp[9]  * mat[9];
 7452              		.loc 2 1237 0
 7453 062c 0999     		ldr	r1, [sp, #36]	@ float
1236:/home/tienluong/workspace/atlantis_fw/AsicFwS2/include/matrix.h ****         dst[14] -= tmp[4]  * mat[12] + tmp[9]  * mat[13] + tmp[10] * mat[14];
 7454              		.loc 2 1236 0
 7455 062e 8146     		mov	r9, r0
1237:/home/tienluong/workspace/atlantis_fw/AsicFwS2/include/matrix.h ****         dst[15]  = tmp[10] * mat[10] + tmp[4]  * mat[8]  + tmp[9]  * mat[9];
 7456              		.loc 2 1237 0
 7457 0630 1098     		ldr	r0, [sp, #64]	@ float
 7458 0632 A047     		blx	r4
 7459              	.LVL1047:
 7460 0634 0799     		ldr	r1, [sp, #28]	@ float
 7461 0636 8246     		mov	r10, r0
 7462 0638 4046     		mov	r0, r8
 7463 063a A047     		blx	r4
 7464              	.LVL1048:
 7465 063c 0146     		mov	r1, r0
 7466 063e 5046     		mov	r0, r10
 7467 0640 A847     		blx	r5
 7468              	.LVL1049:
 7469 0642 0599     		ldr	r1, [sp, #20]	@ float
 7470 0644 8246     		mov	r10, r0
 7471 0646 3846     		mov	r0, r7
 7472 0648 A047     		blx	r4
 7473              	.LVL1050:
 7474 064a 0146     		mov	r1, r0
 7475 064c 5046     		mov	r0, r10
 7476 064e A847     		blx	r5
 7477              	.LVL1051:
 7478 0650 014B     		ldr	r3, .L218
 7479 0652 0146     		mov	r1, r0
 7480 0654 4846     		mov	r0, r9
 7481 0656 01E0     		b	.L219
 7482              	.L220:
 7483              		.align	2
 7484              	.L218:
 7485 0658 00000000 		.word	__aeabi_fsub
 7486              	.L219:
 7487 065c 9847     		blx	r3
 7488              	.LVL1052:
1238:/home/tienluong/workspace/atlantis_fw/AsicFwS2/include/matrix.h ****         dst[15] -= tmp[8]  * mat[9]  + tmp[11] * mat[10] + tmp[5]  * mat[8];
 7489              		.loc 2 1238 0
 7490 065e 0299     		ldr	r1, [sp, #8]	@ float
1237:/home/tienluong/workspace/atlantis_fw/AsicFwS2/include/matrix.h ****         dst[15]  = tmp[10] * mat[10] + tmp[4]  * mat[8]  + tmp[9]  * mat[9];
 7491              		.loc 2 1237 0
 7492 0660 2A90     		str	r0, [sp, #168]	@ float
1238:/home/tienluong/workspace/atlantis_fw/AsicFwS2/include/matrix.h ****         dst[15] -= tmp[8]  * mat[9]  + tmp[11] * mat[10] + tmp[5]  * mat[8];
 7493              		.loc 2 1238 0
 7494 0662 3846     		mov	r0, r7
 7495 0664 A047     		blx	r4
 7496              	.LVL1053:
 7497 0666 0899     		ldr	r1, [sp, #32]	@ float
 7498 0668 0746     		mov	r7, r0
 7499 066a 1098     		ldr	r0, [sp, #64]	@ float
 7500 066c A047     		blx	r4
 7501              	.LVL1054:
 7502 066e 0146     		mov	r1, r0
 7503 0670 3846     		mov	r0, r7
 7504 0672 A847     		blx	r5
 7505              	.LVL1055:
 7506 0674 0699     		ldr	r1, [sp, #24]	@ float
 7507 0676 0746     		mov	r7, r0
 7508 0678 4046     		mov	r0, r8
 7509 067a A047     		blx	r4
 7510              	.LVL1056:
 7511 067c 0146     		mov	r1, r0
 7512 067e 3846     		mov	r0, r7
 7513 0680 A847     		blx	r5
 7514              	.LVL1057:
1239:/home/tienluong/workspace/atlantis_fw/AsicFwS2/include/matrix.h **** 
 7515              		.loc 2 1239 0
 7516 0682 0699     		ldr	r1, [sp, #24]	@ float
1238:/home/tienluong/workspace/atlantis_fw/AsicFwS2/include/matrix.h ****         dst[15] -= tmp[8]  * mat[9]  + tmp[11] * mat[10] + tmp[5]  * mat[8];
 7517              		.loc 2 1238 0
 7518 0684 0746     		mov	r7, r0
1239:/home/tienluong/workspace/atlantis_fw/AsicFwS2/include/matrix.h **** 
 7519              		.loc 2 1239 0
 7520 0686 0B98     		ldr	r0, [sp, #44]	@ float
 7521 0688 A047     		blx	r4
 7522              	.LVL1058:
 7523 068a 0299     		ldr	r1, [sp, #8]	@ float
 7524 068c 8046     		mov	r8, r0
 7525 068e 3046     		mov	r0, r6
 7526 0690 A047     		blx	r4
 7527              	.LVL1059:
 7528 0692 0146     		mov	r1, r0
 7529 0694 4046     		mov	r0, r8
 7530 0696 A847     		blx	r5
 7531              	.LVL1060:
 7532 0698 0899     		ldr	r1, [sp, #32]	@ float
 7533 069a 0646     		mov	r6, r0
 7534 069c 1198     		ldr	r0, [sp, #68]	@ float
 7535 069e A047     		blx	r4
 7536              	.LVL1061:
 7537 06a0 0146     		mov	r1, r0
 7538 06a2 3046     		mov	r0, r6
 7539 06a4 A847     		blx	r5
 7540              	.LVL1062:
 7541 06a6 0A4B     		ldr	r3, .L221
 7542              	.LBB2097:
1242:/home/tienluong/workspace/atlantis_fw/AsicFwS2/include/matrix.h ****     }
 7543              		.loc 2 1242 0
 7544 06a8 0025     		movs	r5, #0
 7545              	.LBE2097:
1239:/home/tienluong/workspace/atlantis_fw/AsicFwS2/include/matrix.h **** 
 7546              		.loc 2 1239 0
 7547 06aa 0146     		mov	r1, r0
 7548 06ac 3846     		mov	r0, r7
 7549 06ae 9847     		blx	r3
 7550              	.LVL1063:
 7551 06b0 2B90     		str	r0, [sp, #172]	@ float
 7552              	.LVL1064:
 7553              	.L210:
 7554              	.LBB2098:
1242:/home/tienluong/workspace/atlantis_fw/AsicFwS2/include/matrix.h ****     }
 7555              		.loc 2 1242 0 discriminator 3
 7556 06b2 1CAB     		add	r3, sp, #112
 7557 06b4 1A99     		ldr	r1, [sp, #104]	@ float
 7558 06b6 53F82500 		ldr	r0, [r3, r5, lsl #2]	@ float
 7559 06ba A047     		blx	r4
 7560              	.LVL1065:
 7561 06bc 019B     		ldr	r3, [sp, #4]
 7562 06be 43F82500 		str	r0, [r3, r5, lsl #2]	@ float
 7563 06c2 0135     		adds	r5, r5, #1
 7564              	.LVL1066:
 7565 06c4 102D     		cmp	r5, #16
 7566 06c6 F4D1     		bne	.L210
 7567              	.LBE2098:
 7568              	.LBE2099:
1243:/home/tienluong/workspace/atlantis_fw/AsicFwS2/include/matrix.h **** };
 7569              		.loc 2 1243 0
 7570 06c8 2DB0     		add	sp, sp, #180
 7571              	.LCFI58:
 7572              		.cfi_def_cfa_offset 36
 7573              		@ sp needed
 7574 06ca BDE8F08F 		pop	{r4, r5, r6, r7, r8, r9, r10, fp, pc}
 7575              	.LVL1067:
 7576              	.L222:
 7577 06ce 00BF     		.align	2
 7578              	.L221:
 7579 06d0 00000000 		.word	__aeabi_fsub
 7580              		.cfi_endproc
 7581              	.LFE3537:
 7583              		.section	.text._ZN4ltaf7inverseIfLi4ELb1EEENS_6MatrixIT_XT0_EXT0_EXT1_EEERKS3_,"axG",%progbits,_ZN
 7584              		.align	1
 7585              		.weak	_ZN4ltaf7inverseIfLi4ELb1EEENS_6MatrixIT_XT0_EXT0_EXT1_EEERKS3_
 7586              		.thumb
 7587              		.thumb_func
 7589              	_ZN4ltaf7inverseIfLi4ELb1EEENS_6MatrixIT_XT0_EXT0_EXT1_EEERKS3_:
 7590              	.LFB3382:
1247:/home/tienluong/workspace/atlantis_fw/AsicFwS2/include/matrix.h **** {
 7591              		.loc 2 1247 0
 7592              		.cfi_startproc
 7593              		@ args = 0, pretend = 0, frame = 8
 7594              		@ frame_needed = 0, uses_anonymous_args = 0
 7595              	.LVL1068:
 7596 0000 73B5     		push	{r0, r1, r4, r5, r6, lr}
 7597              	.LCFI59:
 7598              		.cfi_def_cfa_offset 24
 7599              		.cfi_offset 4, -16
 7600              		.cfi_offset 5, -12
 7601              		.cfi_offset 6, -8
 7602              		.cfi_offset 14, -4
 7603              	.LBB2106:
 7604              	.LBB2107:
 7605              	.LBB2108:
 591:/home/tienluong/workspace/atlantis_fw/AsicFwS2/include/matrix.h **** 
 7606              		.loc 2 591 0
 7607 0002 0D46     		mov	r5, r1
 7608              	.LBE2108:
 7609              	.LBE2107:
 7610              	.LBE2106:
1247:/home/tienluong/workspace/atlantis_fw/AsicFwS2/include/matrix.h **** {
 7611              		.loc 2 1247 0
 7612 0004 0646     		mov	r6, r0
 7613              	.LBB2111:
 7614              	.LBB2110:
 7615              	.LBB2109:
 591:/home/tienluong/workspace/atlantis_fw/AsicFwS2/include/matrix.h **** 
 7616              		.loc 2 591 0
 7617 0006 0446     		mov	r4, r0
 7618 0008 0FCD     		ldmia	r5!, {r0, r1, r2, r3}
 7619              	.LVL1069:
 7620 000a 0FC4     		stmia	r4!, {r0, r1, r2, r3}
 7621              	.LVL1070:
 7622 000c 0FCD     		ldmia	r5!, {r0, r1, r2, r3}
 7623              	.LVL1071:
 7624 000e 0FC4     		stmia	r4!, {r0, r1, r2, r3}
 7625 0010 0FCD     		ldmia	r5!, {r0, r1, r2, r3}
 7626              	.LVL1072:
 7627 0012 0FC4     		stmia	r4!, {r0, r1, r2, r3}
 7628 0014 95E80F00 		ldmia	r5, {r0, r1, r2, r3}
 7629 0018 84E80F00 		stmia	r4, {r0, r1, r2, r3}
 7630              	.LVL1073:
 7631              	.LBE2109:
 7632              	.LBE2110:
1251:/home/tienluong/workspace/atlantis_fw/AsicFwS2/include/matrix.h ****     return rval;
 7633              		.loc 2 1251 0
 7634 001c 01A8     		add	r0, sp, #4
 7635 001e 3146     		mov	r1, r6
 7636 0020 024B     		ldr	r3, .L224
 7637 0022 9847     		blx	r3
 7638              	.LVL1074:
 7639              	.LBE2111:
1253:/home/tienluong/workspace/atlantis_fw/AsicFwS2/include/matrix.h **** 
 7640              		.loc 2 1253 0
 7641 0024 3046     		mov	r0, r6
 7642 0026 02B0     		add	sp, sp, #8
 7643              	.LCFI60:
 7644              		.cfi_def_cfa_offset 16
 7645              		@ sp needed
 7646 0028 70BD     		pop	{r4, r5, r6, pc}
 7647              	.LVL1075:
 7648              	.L225:
 7649 002a 00BF     		.align	2
 7650              	.L224:
 7651 002c 00000000 		.word	_ZNK4ltaf20SquareMatrixInverterIfLi4EE3runEPf
 7652              		.cfi_endproc
 7653              	.LFE3382:
 7655              		.section	.text._ZN4ltaf7inverseIfLi4ELb0EEENS_6MatrixIT_XT0_EXT0_EXT1_EEERKS3_,"axG",%progbits,_ZN
 7656              		.align	1
 7657              		.weak	_ZN4ltaf7inverseIfLi4ELb0EEENS_6MatrixIT_XT0_EXT0_EXT1_EEERKS3_
 7658              		.thumb
 7659              		.thumb_func
 7661              	_ZN4ltaf7inverseIfLi4ELb0EEENS_6MatrixIT_XT0_EXT0_EXT1_EEERKS3_:
 7662              	.LFB3385:
1247:/home/tienluong/workspace/atlantis_fw/AsicFwS2/include/matrix.h **** {
 7663              		.loc 2 1247 0
 7664              		.cfi_startproc
 7665              		@ args = 0, pretend = 0, frame = 8
 7666              		@ frame_needed = 0, uses_anonymous_args = 0
 7667              	.LVL1076:
 7668 0000 73B5     		push	{r0, r1, r4, r5, r6, lr}
 7669              	.LCFI61:
 7670              		.cfi_def_cfa_offset 24
 7671              		.cfi_offset 4, -16
 7672              		.cfi_offset 5, -12
 7673              		.cfi_offset 6, -8
 7674              		.cfi_offset 14, -4
 7675              	.LBB2118:
 7676              	.LBB2119:
 7677              	.LBB2120:
 593:/home/tienluong/workspace/atlantis_fw/AsicFwS2/include/matrix.h **** 
 7678              		.loc 2 593 0
 7679 0002 0D46     		mov	r5, r1
 7680              	.LBE2120:
 7681              	.LBE2119:
 7682              	.LBE2118:
1247:/home/tienluong/workspace/atlantis_fw/AsicFwS2/include/matrix.h **** {
 7683              		.loc 2 1247 0
 7684 0004 0646     		mov	r6, r0
 7685              	.LBB2123:
 7686              	.LBB2122:
 7687              	.LBB2121:
 593:/home/tienluong/workspace/atlantis_fw/AsicFwS2/include/matrix.h **** 
 7688              		.loc 2 593 0
 7689 0006 0446     		mov	r4, r0
 7690 0008 0FCD     		ldmia	r5!, {r0, r1, r2, r3}
 7691              	.LVL1077:
 7692 000a 0FC4     		stmia	r4!, {r0, r1, r2, r3}
 7693              	.LVL1078:
 7694 000c 0FCD     		ldmia	r5!, {r0, r1, r2, r3}
 7695              	.LVL1079:
 7696 000e 0FC4     		stmia	r4!, {r0, r1, r2, r3}
 7697 0010 0FCD     		ldmia	r5!, {r0, r1, r2, r3}
 7698              	.LVL1080:
 7699 0012 0FC4     		stmia	r4!, {r0, r1, r2, r3}
 7700 0014 95E80F00 		ldmia	r5, {r0, r1, r2, r3}
 7701 0018 84E80F00 		stmia	r4, {r0, r1, r2, r3}
 7702              	.LVL1081:
 7703              	.LBE2121:
 7704              	.LBE2122:
1251:/home/tienluong/workspace/atlantis_fw/AsicFwS2/include/matrix.h ****     return rval;
 7705              		.loc 2 1251 0
 7706 001c 01A8     		add	r0, sp, #4
 7707 001e 3146     		mov	r1, r6
 7708 0020 024B     		ldr	r3, .L227
 7709 0022 9847     		blx	r3
 7710              	.LVL1082:
 7711              	.LBE2123:
1253:/home/tienluong/workspace/atlantis_fw/AsicFwS2/include/matrix.h **** 
 7712              		.loc 2 1253 0
 7713 0024 3046     		mov	r0, r6
 7714 0026 02B0     		add	sp, sp, #8
 7715              	.LCFI62:
 7716              		.cfi_def_cfa_offset 16
 7717              		@ sp needed
 7718 0028 70BD     		pop	{r4, r5, r6, pc}
 7719              	.LVL1083:
 7720              	.L228:
 7721 002a 00BF     		.align	2
 7722              	.L227:
 7723 002c 00000000 		.word	_ZNK4ltaf20SquareMatrixInverterIfLi4EE3runEPf
 7724              		.cfi_endproc
 7725              	.LFE3385:
 7727              		.global	__aeabi_ddiv
 7728              		.section	.text._ZNK4ltaf20SquareMatrixInverterIdLi2EE3runEPd,"axG",%progbits,_ZNK4ltaf20SquareMatr
 7729              		.align	1
 7730              		.weak	_ZNK4ltaf20SquareMatrixInverterIdLi2EE3runEPd
 7731              		.thumb
 7732              		.thumb_func
 7734              	_ZNK4ltaf20SquareMatrixInverterIdLi2EE3runEPd:
 7735              	.LFB3554:
1121:/home/tienluong/workspace/atlantis_fw/AsicFwS2/include/matrix.h ****     {
 7736              		.loc 2 1121 0
 7737              		.cfi_startproc
 7738              		@ args = 0, pretend = 0, frame = 48
 7739              		@ frame_needed = 0, uses_anonymous_args = 0
 7740              	.LVL1084:
 7741 0000 2DE9F04F 		push	{r4, r5, r6, r7, r8, r9, r10, fp, lr}
 7742              	.LCFI63:
 7743              		.cfi_def_cfa_offset 36
 7744              		.cfi_offset 4, -36
 7745              		.cfi_offset 5, -32
 7746              		.cfi_offset 6, -28
 7747              		.cfi_offset 7, -24
 7748              		.cfi_offset 8, -20
 7749              		.cfi_offset 9, -16
 7750              		.cfi_offset 10, -12
 7751              		.cfi_offset 11, -8
 7752              		.cfi_offset 14, -4
 7753 0004 8DB0     		sub	sp, sp, #52
 7754              	.LCFI64:
 7755              		.cfi_def_cfa_offset 88
 7756              	.LBB2124:
1123:/home/tienluong/workspace/atlantis_fw/AsicFwS2/include/matrix.h **** 
 7757              		.loc 2 1123 0
 7758 0006 D1E90023 		ldrd	r2, [r1]
 7759              	.LBE2124:
1121:/home/tienluong/workspace/atlantis_fw/AsicFwS2/include/matrix.h ****     {
 7760              		.loc 2 1121 0
 7761 000a 0C46     		mov	r4, r1
 7762              	.LBB2126:
1123:/home/tienluong/workspace/atlantis_fw/AsicFwS2/include/matrix.h **** 
 7763              		.loc 2 1123 0
 7764 000c CDE90023 		strd	r2, [sp]
 7765 0010 D1F808B0 		ldr	fp, [r1, #8]
 7766 0014 D1E90623 		ldrd	r2, [r1, #24]
 7767 0018 CF68     		ldr	r7, [r1, #12]
 7768 001a D1F810A0 		ldr	r10, [r1, #16]
 7769 001e 4E69     		ldr	r6, [r1, #20]
 7770              	.LVL1085:
 7771 0020 1F4D     		ldr	r5, .L232
 7772 0022 DDE90001 		ldrd	r0, [sp]
 7773              	.LVL1086:
 7774 0026 CDE90223 		strd	r2, [sp, #8]
 7775              	.LVL1087:
 7776 002a A847     		blx	r5
 7777              	.LVL1088:
 7778 002c 3346     		mov	r3, r6
 7779 002e 5246     		mov	r2, r10
1130:/home/tienluong/workspace/atlantis_fw/AsicFwS2/include/matrix.h ****         tmp[3] = mat[0];
 7780              		.loc 2 1130 0
 7781 0030 06F10046 		add	r6, r6, #-2147483648
1123:/home/tienluong/workspace/atlantis_fw/AsicFwS2/include/matrix.h **** 
 7782              		.loc 2 1123 0
 7783 0034 8046     		mov	r8, r0
 7784 0036 8946     		mov	r9, r1
 7785 0038 5846     		mov	r0, fp
 7786 003a 3946     		mov	r1, r7
 7787 003c A847     		blx	r5
 7788              	.LVL1089:
 7789 003e DFF868C0 		ldr	ip, .L232+8
1129:/home/tienluong/workspace/atlantis_fw/AsicFwS2/include/matrix.h ****         tmp[2] = -mat[2];
 7790              		.loc 2 1129 0
 7791 0042 07F10047 		add	r7, r7, #-2147483648
1123:/home/tienluong/workspace/atlantis_fw/AsicFwS2/include/matrix.h **** 
 7792              		.loc 2 1123 0
 7793 0046 0246     		mov	r2, r0
 7794 0048 0B46     		mov	r3, r1
 7795 004a 4046     		mov	r0, r8
 7796 004c 4946     		mov	r1, r9
 7797 004e E047     		blx	ip
 7798              	.LVL1090:
1125:/home/tienluong/workspace/atlantis_fw/AsicFwS2/include/matrix.h **** 
 7799              		.loc 2 1125 0
 7800 0050 DFF858C0 		ldr	ip, .L232+12
1123:/home/tienluong/workspace/atlantis_fw/AsicFwS2/include/matrix.h **** 
 7801              		.loc 2 1123 0
 7802 0054 0246     		mov	r2, r0
 7803 0056 0B46     		mov	r3, r1
1125:/home/tienluong/workspace/atlantis_fw/AsicFwS2/include/matrix.h **** 
 7804              		.loc 2 1125 0
 7805 0058 0020     		movs	r0, #0
 7806 005a 1249     		ldr	r1, .L232+4
 7807 005c E047     		blx	ip
 7808              	.LVL1091:
1128:/home/tienluong/workspace/atlantis_fw/AsicFwS2/include/matrix.h ****         tmp[1] = -mat[1];
 7809              		.loc 2 1128 0
 7810 005e DDE90223 		ldrd	r2, [sp, #8]
1129:/home/tienluong/workspace/atlantis_fw/AsicFwS2/include/matrix.h ****         tmp[2] = -mat[2];
 7811              		.loc 2 1129 0
 7812 0062 0797     		str	r7, [sp, #28]
 7813 0064 02AF     		add	r7, sp, #8
1130:/home/tienluong/workspace/atlantis_fw/AsicFwS2/include/matrix.h ****         tmp[3] = mat[0];
 7814              		.loc 2 1130 0
 7815 0066 0996     		str	r6, [sp, #36]
 7816 0068 A4F10806 		sub	r6, r4, #8
 7817 006c 1834     		adds	r4, r4, #24
 7818              	.LVL1092:
1128:/home/tienluong/workspace/atlantis_fw/AsicFwS2/include/matrix.h ****         tmp[1] = -mat[1];
 7819              		.loc 2 1128 0
 7820 006e CDE90423 		strd	r2, [sp, #16]
1131:/home/tienluong/workspace/atlantis_fw/AsicFwS2/include/matrix.h **** 
 7821              		.loc 2 1131 0
 7822 0072 DDE90023 		ldrd	r2, [sp]
1129:/home/tienluong/workspace/atlantis_fw/AsicFwS2/include/matrix.h ****         tmp[2] = -mat[2];
 7823              		.loc 2 1129 0
 7824 0076 CDF818B0 		str	fp, [sp, #24]
1130:/home/tienluong/workspace/atlantis_fw/AsicFwS2/include/matrix.h ****         tmp[3] = mat[0];
 7825              		.loc 2 1130 0
 7826 007a CDF820A0 		str	r10, [sp, #32]
1131:/home/tienluong/workspace/atlantis_fw/AsicFwS2/include/matrix.h **** 
 7827              		.loc 2 1131 0
 7828 007e CDE90A23 		strd	r2, [sp, #40]
1125:/home/tienluong/workspace/atlantis_fw/AsicFwS2/include/matrix.h **** 
 7829              		.loc 2 1125 0
 7830 0082 8046     		mov	r8, r0
 7831 0084 8946     		mov	r9, r1
 7832              	.LVL1093:
 7833              	.L230:
 7834              	.LBB2125:
1133:/home/tienluong/workspace/atlantis_fw/AsicFwS2/include/matrix.h ****     }
 7835              		.loc 2 1133 0 discriminator 3
 7836 0086 F7E90201 		ldrd	r0, [r7, #8]!
 7837 008a 4246     		mov	r2, r8
 7838 008c 4B46     		mov	r3, r9
 7839 008e A847     		blx	r5
 7840              	.LVL1094:
 7841 0090 E6E90201 		strd	r0, [r6, #8]!
 7842 0094 A642     		cmp	r6, r4
 7843 0096 F6D1     		bne	.L230
 7844              	.LBE2125:
 7845              	.LBE2126:
1134:/home/tienluong/workspace/atlantis_fw/AsicFwS2/include/matrix.h **** };
 7846              		.loc 2 1134 0
 7847 0098 0DB0     		add	sp, sp, #52
 7848              	.LCFI65:
 7849              		.cfi_def_cfa_offset 36
 7850              		@ sp needed
 7851 009a BDE8F08F 		pop	{r4, r5, r6, r7, r8, r9, r10, fp, pc}
 7852              	.LVL1095:
 7853              	.L233:
 7854 009e 00BF     		.align	2
 7855              	.L232:
 7856 00a0 00000000 		.word	__aeabi_dmul
 7857 00a4 0000F03F 		.word	1072693248
 7858 00a8 00000000 		.word	__aeabi_dsub
 7859 00ac 00000000 		.word	__aeabi_ddiv
 7860              		.cfi_endproc
 7861              	.LFE3554:
 7863              		.section	.text._ZN4ltaf7inverseIdLi2ELb1EEENS_6MatrixIT_XT0_EXT0_EXT1_EEERKS3_,"axG",%progbits,_ZN
 7864              		.align	1
 7865              		.weak	_ZN4ltaf7inverseIdLi2ELb1EEENS_6MatrixIT_XT0_EXT0_EXT1_EEERKS3_
 7866              		.thumb
 7867              		.thumb_func
 7869              	_ZN4ltaf7inverseIdLi2ELb1EEENS_6MatrixIT_XT0_EXT0_EXT1_EEERKS3_:
 7870              	.LFB3386:
1247:/home/tienluong/workspace/atlantis_fw/AsicFwS2/include/matrix.h **** {
 7871              		.loc 2 1247 0
 7872              		.cfi_startproc
 7873              		@ args = 0, pretend = 0, frame = 8
 7874              		@ frame_needed = 0, uses_anonymous_args = 0
 7875              	.LVL1096:
 7876 0000 73B5     		push	{r0, r1, r4, r5, r6, lr}
 7877              	.LCFI66:
 7878              		.cfi_def_cfa_offset 24
 7879              		.cfi_offset 4, -16
 7880              		.cfi_offset 5, -12
 7881              		.cfi_offset 6, -8
 7882              		.cfi_offset 14, -4
 7883              	.LBB2133:
 7884              	.LBB2134:
 7885              	.LBB2135:
 591:/home/tienluong/workspace/atlantis_fw/AsicFwS2/include/matrix.h **** 
 7886              		.loc 2 591 0
 7887 0002 0D46     		mov	r5, r1
 7888              	.LBE2135:
 7889              	.LBE2134:
 7890              	.LBE2133:
1247:/home/tienluong/workspace/atlantis_fw/AsicFwS2/include/matrix.h **** {
 7891              		.loc 2 1247 0
 7892 0004 0646     		mov	r6, r0
 7893              	.LBB2138:
 7894              	.LBB2137:
 7895              	.LBB2136:
 591:/home/tienluong/workspace/atlantis_fw/AsicFwS2/include/matrix.h **** 
 7896              		.loc 2 591 0
 7897 0006 0446     		mov	r4, r0
 7898 0008 0FCD     		ldmia	r5!, {r0, r1, r2, r3}
 7899              	.LVL1097:
 7900 000a 0FC4     		stmia	r4!, {r0, r1, r2, r3}
 7901              	.LVL1098:
 7902 000c 95E80F00 		ldmia	r5, {r0, r1, r2, r3}
 7903 0010 84E80F00 		stmia	r4, {r0, r1, r2, r3}
 7904              	.LVL1099:
 7905              	.LBE2136:
 7906              	.LBE2137:
1251:/home/tienluong/workspace/atlantis_fw/AsicFwS2/include/matrix.h ****     return rval;
 7907              		.loc 2 1251 0
 7908 0014 01A8     		add	r0, sp, #4
 7909 0016 3146     		mov	r1, r6
 7910 0018 024B     		ldr	r3, .L235
 7911 001a 9847     		blx	r3
 7912              	.LVL1100:
 7913              	.LBE2138:
1253:/home/tienluong/workspace/atlantis_fw/AsicFwS2/include/matrix.h **** 
 7914              		.loc 2 1253 0
 7915 001c 3046     		mov	r0, r6
 7916 001e 02B0     		add	sp, sp, #8
 7917              	.LCFI67:
 7918              		.cfi_def_cfa_offset 16
 7919              		@ sp needed
 7920 0020 70BD     		pop	{r4, r5, r6, pc}
 7921              	.LVL1101:
 7922              	.L236:
 7923 0022 00BF     		.align	2
 7924              	.L235:
 7925 0024 00000000 		.word	_ZNK4ltaf20SquareMatrixInverterIdLi2EE3runEPd
 7926              		.cfi_endproc
 7927              	.LFE3386:
 7929              		.section	.text._ZN4ltaf7inverseIdLi2ELb0EEENS_6MatrixIT_XT0_EXT0_EXT1_EEERKS3_,"axG",%progbits,_ZN
 7930              		.align	1
 7931              		.weak	_ZN4ltaf7inverseIdLi2ELb0EEENS_6MatrixIT_XT0_EXT0_EXT1_EEERKS3_
 7932              		.thumb
 7933              		.thumb_func
 7935              	_ZN4ltaf7inverseIdLi2ELb0EEENS_6MatrixIT_XT0_EXT0_EXT1_EEERKS3_:
 7936              	.LFB3389:
1247:/home/tienluong/workspace/atlantis_fw/AsicFwS2/include/matrix.h **** {
 7937              		.loc 2 1247 0
 7938              		.cfi_startproc
 7939              		@ args = 0, pretend = 0, frame = 8
 7940              		@ frame_needed = 0, uses_anonymous_args = 0
 7941              	.LVL1102:
 7942 0000 73B5     		push	{r0, r1, r4, r5, r6, lr}
 7943              	.LCFI68:
 7944              		.cfi_def_cfa_offset 24
 7945              		.cfi_offset 4, -16
 7946              		.cfi_offset 5, -12
 7947              		.cfi_offset 6, -8
 7948              		.cfi_offset 14, -4
 7949              	.LBB2145:
 7950              	.LBB2146:
 7951              	.LBB2147:
 593:/home/tienluong/workspace/atlantis_fw/AsicFwS2/include/matrix.h **** 
 7952              		.loc 2 593 0
 7953 0002 0D46     		mov	r5, r1
 7954              	.LBE2147:
 7955              	.LBE2146:
 7956              	.LBE2145:
1247:/home/tienluong/workspace/atlantis_fw/AsicFwS2/include/matrix.h **** {
 7957              		.loc 2 1247 0
 7958 0004 0646     		mov	r6, r0
 7959              	.LBB2150:
 7960              	.LBB2149:
 7961              	.LBB2148:
 593:/home/tienluong/workspace/atlantis_fw/AsicFwS2/include/matrix.h **** 
 7962              		.loc 2 593 0
 7963 0006 0446     		mov	r4, r0
 7964 0008 0FCD     		ldmia	r5!, {r0, r1, r2, r3}
 7965              	.LVL1103:
 7966 000a 0FC4     		stmia	r4!, {r0, r1, r2, r3}
 7967              	.LVL1104:
 7968 000c 95E80F00 		ldmia	r5, {r0, r1, r2, r3}
 7969 0010 84E80F00 		stmia	r4, {r0, r1, r2, r3}
 7970              	.LVL1105:
 7971              	.LBE2148:
 7972              	.LBE2149:
1251:/home/tienluong/workspace/atlantis_fw/AsicFwS2/include/matrix.h ****     return rval;
 7973              		.loc 2 1251 0
 7974 0014 01A8     		add	r0, sp, #4
 7975 0016 3146     		mov	r1, r6
 7976 0018 024B     		ldr	r3, .L238
 7977 001a 9847     		blx	r3
 7978              	.LVL1106:
 7979              	.LBE2150:
1253:/home/tienluong/workspace/atlantis_fw/AsicFwS2/include/matrix.h **** 
 7980              		.loc 2 1253 0
 7981 001c 3046     		mov	r0, r6
 7982 001e 02B0     		add	sp, sp, #8
 7983              	.LCFI69:
 7984              		.cfi_def_cfa_offset 16
 7985              		@ sp needed
 7986 0020 70BD     		pop	{r4, r5, r6, pc}
 7987              	.LVL1107:
 7988              	.L239:
 7989 0022 00BF     		.align	2
 7990              	.L238:
 7991 0024 00000000 		.word	_ZNK4ltaf20SquareMatrixInverterIdLi2EE3runEPd
 7992              		.cfi_endproc
 7993              	.LFE3389:
 7995              		.section	.text._ZNK4ltaf20SquareMatrixInverterIdLi3EE3runEPd,"axG",%progbits,_ZNK4ltaf20SquareMatr
 7996              		.align	1
 7997              		.weak	_ZNK4ltaf20SquareMatrixInverterIdLi3EE3runEPd
 7998              		.thumb
 7999              		.thumb_func
 8001              	_ZNK4ltaf20SquareMatrixInverterIdLi3EE3runEPd:
 8002              	.LFB3559:
1140:/home/tienluong/workspace/atlantis_fw/AsicFwS2/include/matrix.h ****     {
 8003              		.loc 2 1140 0
 8004              		.cfi_startproc
 8005              		@ args = 0, pretend = 0, frame = 168
 8006              		@ frame_needed = 0, uses_anonymous_args = 0
 8007              	.LVL1108:
 8008 0000 2DE9F04F 		push	{r4, r5, r6, r7, r8, r9, r10, fp, lr}
 8009              	.LCFI70:
 8010              		.cfi_def_cfa_offset 36
 8011              		.cfi_offset 4, -36
 8012              		.cfi_offset 5, -32
 8013              		.cfi_offset 6, -28
 8014              		.cfi_offset 7, -24
 8015              		.cfi_offset 8, -20
 8016              		.cfi_offset 9, -16
 8017              		.cfi_offset 10, -12
 8018              		.cfi_offset 11, -8
 8019              		.cfi_offset 14, -4
 8020 0004 ABB0     		sub	sp, sp, #172
 8021              	.LCFI71:
 8022              		.cfi_def_cfa_offset 208
 8023              	.LBB2151:
1142:/home/tienluong/workspace/atlantis_fw/AsicFwS2/include/matrix.h ****                       - mat[1] * ( mat[3] * mat[8] - mat[5] * mat[6] )
 8024              		.loc 2 1142 0
 8025 0006 D1E90023 		ldrd	r2, [r1]
 8026              	.LBE2151:
1140:/home/tienluong/workspace/atlantis_fw/AsicFwS2/include/matrix.h ****     {
 8027              		.loc 2 1140 0
 8028 000a 0D46     		mov	r5, r1
 8029              	.LBB2153:
1142:/home/tienluong/workspace/atlantis_fw/AsicFwS2/include/matrix.h ****                       - mat[1] * ( mat[3] * mat[8] - mat[5] * mat[6] )
 8030              		.loc 2 1142 0
 8031 000c CDE90023 		strd	r2, [sp]
 8032 0010 D1E90823 		ldrd	r2, [r1, #32]
 8033 0014 CDE90423 		strd	r2, [sp, #16]
 8034 0018 D1E91023 		ldrd	r2, [r1, #64]
 8035 001c CDE90623 		strd	r2, [sp, #24]
 8036 0020 D1E90E23 		ldrd	r2, [r1, #56]
 8037 0024 CDE90823 		strd	r2, [sp, #32]
 8038 0028 D1E90A23 		ldrd	r2, [r1, #40]
1144:/home/tienluong/workspace/atlantis_fw/AsicFwS2/include/matrix.h **** 
 8039              		.loc 2 1144 0
 8040 002c 834C     		ldr	r4, .L243
1142:/home/tienluong/workspace/atlantis_fw/AsicFwS2/include/matrix.h ****                       - mat[1] * ( mat[3] * mat[8] - mat[5] * mat[6] )
 8041              		.loc 2 1142 0
 8042 002e CDE90A23 		strd	r2, [sp, #40]
1144:/home/tienluong/workspace/atlantis_fw/AsicFwS2/include/matrix.h **** 
 8043              		.loc 2 1144 0
 8044 0032 DDE90401 		ldrd	r0, [sp, #16]
 8045              	.LVL1109:
 8046 0036 DDE90623 		ldrd	r2, [sp, #24]
 8047 003a A047     		blx	r4
 8048              	.LVL1110:
 8049 003c DDE90A23 		ldrd	r2, [sp, #40]
 8050 0040 7F4E     		ldr	r6, .L243+4
 8051 0042 8046     		mov	r8, r0
 8052 0044 8946     		mov	r9, r1
 8053 0046 DDE90801 		ldrd	r0, [sp, #32]
 8054 004a A047     		blx	r4
 8055              	.LVL1111:
 8056 004c 0246     		mov	r2, r0
 8057 004e 0B46     		mov	r3, r1
 8058 0050 4046     		mov	r0, r8
 8059 0052 4946     		mov	r1, r9
 8060 0054 B047     		blx	r6
 8061              	.LVL1112:
1143:/home/tienluong/workspace/atlantis_fw/AsicFwS2/include/matrix.h ****                       + mat[2] * ( mat[3] * mat[7] - mat[4] * mat[6] );
 8062              		.loc 2 1143 0
 8063 0056 D5E90623 		ldrd	r2, [r5, #24]
 8064 005a CDE90C23 		strd	r2, [sp, #48]
 8065 005e D5E90C23 		ldrd	r2, [r5, #48]
 8066 0062 CDE90E23 		strd	r2, [sp, #56]
1144:/home/tienluong/workspace/atlantis_fw/AsicFwS2/include/matrix.h **** 
 8067              		.loc 2 1144 0
 8068 0066 DDE90623 		ldrd	r2, [sp, #24]
1143:/home/tienluong/workspace/atlantis_fw/AsicFwS2/include/matrix.h ****                       + mat[2] * ( mat[3] * mat[7] - mat[4] * mat[6] );
 8069              		.loc 2 1143 0
 8070 006a D5E902AB 		ldrd	r10, [r5, #8]
1144:/home/tienluong/workspace/atlantis_fw/AsicFwS2/include/matrix.h **** 
 8071              		.loc 2 1144 0
 8072 006e CDE91001 		strd	r0, [sp, #64]
 8073 0072 DDE90C01 		ldrd	r0, [sp, #48]
 8074 0076 A047     		blx	r4
 8075              	.LVL1113:
 8076 0078 DDE90E23 		ldrd	r2, [sp, #56]
 8077 007c 8046     		mov	r8, r0
 8078 007e 8946     		mov	r9, r1
 8079 0080 DDE90A01 		ldrd	r0, [sp, #40]
 8080 0084 A047     		blx	r4
 8081              	.LVL1114:
 8082 0086 0246     		mov	r2, r0
 8083 0088 0B46     		mov	r3, r1
 8084 008a 4046     		mov	r0, r8
 8085 008c 4946     		mov	r1, r9
 8086 008e B047     		blx	r6
 8087              	.LVL1115:
 8088 0090 D5E90423 		ldrd	r2, [r5, #16]
 8089 0094 CDE90223 		strd	r2, [sp, #8]
 8090 0098 DDE90823 		ldrd	r2, [sp, #32]
 8091 009c 0746     		mov	r7, r0
 8092 009e 1591     		str	r1, [sp, #84]
 8093 00a0 DDE90C01 		ldrd	r0, [sp, #48]
 8094 00a4 A047     		blx	r4
 8095              	.LVL1116:
 8096 00a6 DDE90E23 		ldrd	r2, [sp, #56]
 8097 00aa 8046     		mov	r8, r0
 8098 00ac 8946     		mov	r9, r1
 8099 00ae DDE90401 		ldrd	r0, [sp, #16]
 8100 00b2 A047     		blx	r4
 8101              	.LVL1117:
 8102 00b4 0246     		mov	r2, r0
 8103 00b6 0B46     		mov	r3, r1
 8104 00b8 4046     		mov	r0, r8
 8105 00ba 4946     		mov	r1, r9
 8106 00bc B047     		blx	r6
 8107              	.LVL1118:
 8108 00be DDE91023 		ldrd	r2, [sp, #64]
 8109 00c2 CDE91201 		strd	r0, [sp, #72]
 8110              	.LVL1119:
 8111 00c6 DDE90001 		ldrd	r0, [sp]
 8112              	.LVL1120:
 8113 00ca A047     		blx	r4
 8114              	.LVL1121:
 8115 00cc 3A46     		mov	r2, r7
 8116 00ce 159B     		ldr	r3, [sp, #84]
 8117 00d0 8046     		mov	r8, r0
 8118 00d2 8946     		mov	r9, r1
 8119 00d4 5046     		mov	r0, r10
 8120 00d6 5946     		mov	r1, fp
 8121 00d8 A047     		blx	r4
 8122              	.LVL1122:
 8123 00da 0246     		mov	r2, r0
 8124 00dc 0B46     		mov	r3, r1
 8125 00de 4046     		mov	r0, r8
 8126 00e0 4946     		mov	r1, r9
 8127 00e2 B047     		blx	r6
 8128              	.LVL1123:
 8129 00e4 DDE91223 		ldrd	r2, [sp, #72]
 8130 00e8 8046     		mov	r8, r0
 8131 00ea 8946     		mov	r9, r1
 8132 00ec DDE90201 		ldrd	r0, [sp, #8]
 8133 00f0 A047     		blx	r4
 8134              	.LVL1124:
 8135 00f2 DFF854C1 		ldr	ip, .L243+12
 8136 00f6 0246     		mov	r2, r0
 8137 00f8 0B46     		mov	r3, r1
 8138 00fa 4046     		mov	r0, r8
 8139 00fc 4946     		mov	r1, r9
 8140 00fe E047     		blx	ip
 8141              	.LVL1125:
1146:/home/tienluong/workspace/atlantis_fw/AsicFwS2/include/matrix.h **** 
 8142              		.loc 2 1146 0
 8143 0100 DFF848C1 		ldr	ip, .L243+16
1144:/home/tienluong/workspace/atlantis_fw/AsicFwS2/include/matrix.h **** 
 8144              		.loc 2 1144 0
 8145 0104 0246     		mov	r2, r0
 8146 0106 0B46     		mov	r3, r1
1146:/home/tienluong/workspace/atlantis_fw/AsicFwS2/include/matrix.h **** 
 8147              		.loc 2 1146 0
 8148 0108 0020     		movs	r0, #0
 8149 010a 4E49     		ldr	r1, .L243+8
 8150 010c E047     		blx	ip
 8151              	.LVL1126:
1149:/home/tienluong/workspace/atlantis_fw/AsicFwS2/include/matrix.h ****         tmp[1] = -( mat[1] * mat[8] - mat[2] * mat[7] );
 8152              		.loc 2 1149 0
 8153 010e DDE91023 		ldrd	r2, [sp, #64]
 8154 0112 CDE91823 		strd	r2, [sp, #96]
1150:/home/tienluong/workspace/atlantis_fw/AsicFwS2/include/matrix.h ****         tmp[2] =  mat[1] * mat[5] - mat[2] * mat[4];
 8155              		.loc 2 1150 0
 8156 0116 DDE90623 		ldrd	r2, [sp, #24]
1146:/home/tienluong/workspace/atlantis_fw/AsicFwS2/include/matrix.h **** 
 8157              		.loc 2 1146 0
 8158 011a CDE91601 		strd	r0, [sp, #88]
 8159              	.LVL1127:
1150:/home/tienluong/workspace/atlantis_fw/AsicFwS2/include/matrix.h ****         tmp[2] =  mat[1] * mat[5] - mat[2] * mat[4];
 8160              		.loc 2 1150 0
 8161 011e 5046     		mov	r0, r10
 8162              	.LVL1128:
 8163 0120 5946     		mov	r1, fp
 8164 0122 A047     		blx	r4
 8165              	.LVL1129:
 8166 0124 DDE90823 		ldrd	r2, [sp, #32]
 8167 0128 8046     		mov	r8, r0
 8168 012a 8946     		mov	r9, r1
 8169 012c DDE90201 		ldrd	r0, [sp, #8]
 8170 0130 A047     		blx	r4
 8171              	.LVL1130:
 8172 0132 0246     		mov	r2, r0
 8173 0134 0B46     		mov	r3, r1
 8174 0136 4046     		mov	r0, r8
 8175 0138 4946     		mov	r1, r9
 8176 013a B047     		blx	r6
 8177              	.LVL1131:
1151:/home/tienluong/workspace/atlantis_fw/AsicFwS2/include/matrix.h ****         tmp[3] = -( mat[3] * mat[8] - mat[5] * mat[6] );
 8178              		.loc 2 1151 0
 8179 013c DDE90A23 		ldrd	r2, [sp, #40]
1150:/home/tienluong/workspace/atlantis_fw/AsicFwS2/include/matrix.h ****         tmp[2] =  mat[1] * mat[5] - mat[2] * mat[4];
 8180              		.loc 2 1150 0
 8181 0140 01F10041 		add	r1, r1, #-2147483648
 8182 0144 1A90     		str	r0, [sp, #104]
1151:/home/tienluong/workspace/atlantis_fw/AsicFwS2/include/matrix.h ****         tmp[3] = -( mat[3] * mat[8] - mat[5] * mat[6] );
 8183              		.loc 2 1151 0
 8184 0146 5046     		mov	r0, r10
1150:/home/tienluong/workspace/atlantis_fw/AsicFwS2/include/matrix.h ****         tmp[2] =  mat[1] * mat[5] - mat[2] * mat[4];
 8185              		.loc 2 1150 0
 8186 0148 1B91     		str	r1, [sp, #108]
1151:/home/tienluong/workspace/atlantis_fw/AsicFwS2/include/matrix.h ****         tmp[3] = -( mat[3] * mat[8] - mat[5] * mat[6] );
 8187              		.loc 2 1151 0
 8188 014a 5946     		mov	r1, fp
 8189 014c A047     		blx	r4
 8190              	.LVL1132:
 8191 014e DDE90423 		ldrd	r2, [sp, #16]
 8192 0152 8046     		mov	r8, r0
 8193 0154 8946     		mov	r9, r1
 8194 0156 DDE90201 		ldrd	r0, [sp, #8]
 8195 015a A047     		blx	r4
 8196              	.LVL1133:
 8197 015c 0246     		mov	r2, r0
 8198 015e 0B46     		mov	r3, r1
 8199 0160 4046     		mov	r0, r8
 8200 0162 4946     		mov	r1, r9
 8201 0164 B047     		blx	r6
 8202              	.LVL1134:
1152:/home/tienluong/workspace/atlantis_fw/AsicFwS2/include/matrix.h ****         tmp[4] =  mat[0] * mat[8] - mat[2] * mat[6];
 8203              		.loc 2 1152 0
 8204 0166 159B     		ldr	r3, [sp, #84]
 8205 0168 1E97     		str	r7, [sp, #120]
 8206 016a 16AF     		add	r7, sp, #88
 8207              	.LVL1135:
1151:/home/tienluong/workspace/atlantis_fw/AsicFwS2/include/matrix.h ****         tmp[3] = -( mat[3] * mat[8] - mat[5] * mat[6] );
 8208              		.loc 2 1151 0
 8209 016c CDE91C01 		strd	r0, [sp, #112]
1152:/home/tienluong/workspace/atlantis_fw/AsicFwS2/include/matrix.h ****         tmp[4] =  mat[0] * mat[8] - mat[2] * mat[6];
 8210              		.loc 2 1152 0
 8211 0170 03F10041 		add	r1, r3, #-2147483648
1153:/home/tienluong/workspace/atlantis_fw/AsicFwS2/include/matrix.h ****         tmp[5] = -( mat[0] * mat[5] - mat[3] * mat[2] );
 8212              		.loc 2 1153 0
 8213 0174 DDE90623 		ldrd	r2, [sp, #24]
1152:/home/tienluong/workspace/atlantis_fw/AsicFwS2/include/matrix.h ****         tmp[4] =  mat[0] * mat[8] - mat[2] * mat[6];
 8214              		.loc 2 1152 0
 8215 0178 1F91     		str	r1, [sp, #124]
1153:/home/tienluong/workspace/atlantis_fw/AsicFwS2/include/matrix.h ****         tmp[5] = -( mat[0] * mat[5] - mat[3] * mat[2] );
 8216              		.loc 2 1153 0
 8217 017a DDE90001 		ldrd	r0, [sp]
 8218 017e A047     		blx	r4
 8219              	.LVL1136:
 8220 0180 DDE90E23 		ldrd	r2, [sp, #56]
 8221 0184 8046     		mov	r8, r0
 8222 0186 8946     		mov	r9, r1
 8223 0188 DDE90201 		ldrd	r0, [sp, #8]
 8224 018c A047     		blx	r4
 8225              	.LVL1137:
 8226 018e 0246     		mov	r2, r0
 8227 0190 0B46     		mov	r3, r1
 8228 0192 4046     		mov	r0, r8
 8229 0194 4946     		mov	r1, r9
 8230 0196 B047     		blx	r6
 8231              	.LVL1138:
1154:/home/tienluong/workspace/atlantis_fw/AsicFwS2/include/matrix.h ****         tmp[6] =  mat[3] * mat[7] - mat[6] * mat[ 4];
 8232              		.loc 2 1154 0
 8233 0198 DDE90A23 		ldrd	r2, [sp, #40]
1153:/home/tienluong/workspace/atlantis_fw/AsicFwS2/include/matrix.h ****         tmp[5] = -( mat[0] * mat[5] - mat[3] * mat[2] );
 8234              		.loc 2 1153 0
 8235 019c CDE92001 		strd	r0, [sp, #128]
1154:/home/tienluong/workspace/atlantis_fw/AsicFwS2/include/matrix.h ****         tmp[6] =  mat[3] * mat[7] - mat[6] * mat[ 4];
 8236              		.loc 2 1154 0
 8237 01a0 DDE90001 		ldrd	r0, [sp]
 8238 01a4 A047     		blx	r4
 8239              	.LVL1139:
 8240 01a6 DDE90223 		ldrd	r2, [sp, #8]
 8241 01aa 8046     		mov	r8, r0
 8242 01ac 8946     		mov	r9, r1
 8243 01ae DDE90C01 		ldrd	r0, [sp, #48]
 8244 01b2 A047     		blx	r4
 8245              	.LVL1140:
 8246 01b4 0246     		mov	r2, r0
 8247 01b6 0B46     		mov	r3, r1
 8248 01b8 4046     		mov	r0, r8
 8249 01ba 4946     		mov	r1, r9
 8250 01bc B047     		blx	r6
 8251              	.LVL1141:
1155:/home/tienluong/workspace/atlantis_fw/AsicFwS2/include/matrix.h ****         tmp[7] = -( mat[0] * mat[7] - mat[6] * mat[1] );
 8252              		.loc 2 1155 0
 8253 01be DDE91223 		ldrd	r2, [sp, #72]
 8254 01c2 CDE92423 		strd	r2, [sp, #144]
1156:/home/tienluong/workspace/atlantis_fw/AsicFwS2/include/matrix.h ****         tmp[8] =  mat[0] * mat[4] - mat[3] * mat[1];
 8255              		.loc 2 1156 0
 8256 01c6 DDE90823 		ldrd	r2, [sp, #32]
1154:/home/tienluong/workspace/atlantis_fw/AsicFwS2/include/matrix.h ****         tmp[6] =  mat[3] * mat[7] - mat[6] * mat[ 4];
 8257              		.loc 2 1154 0
 8258 01ca 01F10041 		add	r1, r1, #-2147483648
 8259 01ce 2290     		str	r0, [sp, #136]
 8260 01d0 2391     		str	r1, [sp, #140]
1156:/home/tienluong/workspace/atlantis_fw/AsicFwS2/include/matrix.h ****         tmp[8] =  mat[0] * mat[4] - mat[3] * mat[1];
 8261              		.loc 2 1156 0
 8262 01d2 DDE90001 		ldrd	r0, [sp]
 8263 01d6 A047     		blx	r4
 8264              	.LVL1142:
 8265 01d8 5246     		mov	r2, r10
 8266 01da 5B46     		mov	r3, fp
 8267 01dc 8046     		mov	r8, r0
 8268 01de 8946     		mov	r9, r1
 8269 01e0 DDE90E01 		ldrd	r0, [sp, #56]
 8270 01e4 A047     		blx	r4
 8271              	.LVL1143:
 8272 01e6 0246     		mov	r2, r0
 8273 01e8 0B46     		mov	r3, r1
 8274 01ea 4046     		mov	r0, r8
 8275 01ec 4946     		mov	r1, r9
 8276 01ee B047     		blx	r6
 8277              	.LVL1144:
1157:/home/tienluong/workspace/atlantis_fw/AsicFwS2/include/matrix.h **** 
 8278              		.loc 2 1157 0
 8279 01f0 DDE90423 		ldrd	r2, [sp, #16]
1156:/home/tienluong/workspace/atlantis_fw/AsicFwS2/include/matrix.h ****         tmp[8] =  mat[0] * mat[4] - mat[3] * mat[1];
 8280              		.loc 2 1156 0
 8281 01f4 01F10041 		add	r1, r1, #-2147483648
 8282 01f8 2690     		str	r0, [sp, #152]
 8283 01fa 2791     		str	r1, [sp, #156]
1157:/home/tienluong/workspace/atlantis_fw/AsicFwS2/include/matrix.h **** 
 8284              		.loc 2 1157 0
 8285 01fc DDE90001 		ldrd	r0, [sp]
 8286 0200 A047     		blx	r4
 8287              	.LVL1145:
 8288 0202 5246     		mov	r2, r10
 8289 0204 5B46     		mov	r3, fp
 8290 0206 8046     		mov	r8, r0
 8291 0208 8946     		mov	r9, r1
 8292 020a DDE90C01 		ldrd	r0, [sp, #48]
 8293 020e A047     		blx	r4
 8294              	.LVL1146:
 8295 0210 0246     		mov	r2, r0
 8296 0212 0B46     		mov	r3, r1
 8297 0214 4046     		mov	r0, r8
 8298 0216 4946     		mov	r1, r9
 8299 0218 B047     		blx	r6
 8300              	.LVL1147:
 8301 021a A5F10806 		sub	r6, r5, #8
 8302 021e 4035     		adds	r5, r5, #64
 8303              	.LVL1148:
 8304 0220 CDE92801 		strd	r0, [sp, #160]
 8305              	.LVL1149:
 8306              	.L241:
 8307              	.LBB2152:
1159:/home/tienluong/workspace/atlantis_fw/AsicFwS2/include/matrix.h ****     }
 8308              		.loc 2 1159 0 discriminator 3
 8309 0224 F7E90201 		ldrd	r0, [r7, #8]!
 8310 0228 DDE91623 		ldrd	r2, [sp, #88]
 8311 022c A047     		blx	r4
 8312              	.LVL1150:
 8313 022e E6E90201 		strd	r0, [r6, #8]!
 8314 0232 AE42     		cmp	r6, r5
 8315 0234 F6D1     		bne	.L241
 8316              	.LBE2152:
 8317              	.LBE2153:
1160:/home/tienluong/workspace/atlantis_fw/AsicFwS2/include/matrix.h **** };
 8318              		.loc 2 1160 0
 8319 0236 2BB0     		add	sp, sp, #172
 8320              	.LCFI72:
 8321              		.cfi_def_cfa_offset 36
 8322              		@ sp needed
 8323 0238 BDE8F08F 		pop	{r4, r5, r6, r7, r8, r9, r10, fp, pc}
 8324              	.LVL1151:
 8325              	.L244:
 8326              		.align	2
 8327              	.L243:
 8328 023c 00000000 		.word	__aeabi_dmul
 8329 0240 00000000 		.word	__aeabi_dsub
 8330 0244 0000F03F 		.word	1072693248
 8331 0248 00000000 		.word	__aeabi_dadd
 8332 024c 00000000 		.word	__aeabi_ddiv
 8333              		.cfi_endproc
 8334              	.LFE3559:
 8336              		.section	.text._ZN4ltaf7inverseIdLi3ELb1EEENS_6MatrixIT_XT0_EXT0_EXT1_EEERKS3_,"axG",%progbits,_ZN
 8337              		.align	1
 8338              		.weak	_ZN4ltaf7inverseIdLi3ELb1EEENS_6MatrixIT_XT0_EXT0_EXT1_EEERKS3_
 8339              		.thumb
 8340              		.thumb_func
 8342              	_ZN4ltaf7inverseIdLi3ELb1EEENS_6MatrixIT_XT0_EXT0_EXT1_EEERKS3_:
 8343              	.LFB3387:
1247:/home/tienluong/workspace/atlantis_fw/AsicFwS2/include/matrix.h **** {
 8344              		.loc 2 1247 0
 8345              		.cfi_startproc
 8346              		@ args = 0, pretend = 0, frame = 8
 8347              		@ frame_needed = 0, uses_anonymous_args = 0
 8348              	.LVL1152:
 8349 0000 13B5     		push	{r0, r1, r4, lr}
 8350              	.LCFI73:
 8351              		.cfi_def_cfa_offset 16
 8352              		.cfi_offset 4, -8
 8353              		.cfi_offset 14, -4
 8354              	.LBB2160:
 8355              	.LBB2161:
 8356              	.LBB2162:
 591:/home/tienluong/workspace/atlantis_fw/AsicFwS2/include/matrix.h **** 
 8357              		.loc 2 591 0
 8358 0002 4822     		movs	r2, #72
 8359              	.LBE2162:
 8360              	.LBE2161:
 8361              	.LBE2160:
1247:/home/tienluong/workspace/atlantis_fw/AsicFwS2/include/matrix.h **** {
 8362              		.loc 2 1247 0
 8363 0004 0446     		mov	r4, r0
 8364              	.LVL1153:
 8365              	.LBB2165:
 8366              	.LBB2164:
 8367              	.LBB2163:
 591:/home/tienluong/workspace/atlantis_fw/AsicFwS2/include/matrix.h **** 
 8368              		.loc 2 591 0
 8369 0006 044B     		ldr	r3, .L246
 8370 0008 9847     		blx	r3
 8371              	.LVL1154:
 8372              	.LBE2163:
 8373              	.LBE2164:
1251:/home/tienluong/workspace/atlantis_fw/AsicFwS2/include/matrix.h ****     return rval;
 8374              		.loc 2 1251 0
 8375 000a 01A8     		add	r0, sp, #4
 8376 000c 2146     		mov	r1, r4
 8377 000e 034B     		ldr	r3, .L246+4
 8378 0010 9847     		blx	r3
 8379              	.LVL1155:
 8380              	.LBE2165:
1253:/home/tienluong/workspace/atlantis_fw/AsicFwS2/include/matrix.h **** 
 8381              		.loc 2 1253 0
 8382 0012 2046     		mov	r0, r4
 8383 0014 02B0     		add	sp, sp, #8
 8384              	.LCFI74:
 8385              		.cfi_def_cfa_offset 8
 8386              		@ sp needed
 8387 0016 10BD     		pop	{r4, pc}
 8388              	.LVL1156:
 8389              	.L247:
 8390              		.align	2
 8391              	.L246:
 8392 0018 00000000 		.word	memcpy
 8393 001c 00000000 		.word	_ZNK4ltaf20SquareMatrixInverterIdLi3EE3runEPd
 8394              		.cfi_endproc
 8395              	.LFE3387:
 8397              		.section	.text._ZN4ltaf7inverseIdLi3ELb0EEENS_6MatrixIT_XT0_EXT0_EXT1_EEERKS3_,"axG",%progbits,_ZN
 8398              		.align	1
 8399              		.weak	_ZN4ltaf7inverseIdLi3ELb0EEENS_6MatrixIT_XT0_EXT0_EXT1_EEERKS3_
 8400              		.thumb
 8401              		.thumb_func
 8403              	_ZN4ltaf7inverseIdLi3ELb0EEENS_6MatrixIT_XT0_EXT0_EXT1_EEERKS3_:
 8404              	.LFB3390:
1247:/home/tienluong/workspace/atlantis_fw/AsicFwS2/include/matrix.h **** {
 8405              		.loc 2 1247 0
 8406              		.cfi_startproc
 8407              		@ args = 0, pretend = 0, frame = 8
 8408              		@ frame_needed = 0, uses_anonymous_args = 0
 8409              	.LVL1157:
 8410 0000 13B5     		push	{r0, r1, r4, lr}
 8411              	.LCFI75:
 8412              		.cfi_def_cfa_offset 16
 8413              		.cfi_offset 4, -8
 8414              		.cfi_offset 14, -4
 8415              	.LBB2172:
 8416              	.LBB2173:
 8417              	.LBB2174:
 593:/home/tienluong/workspace/atlantis_fw/AsicFwS2/include/matrix.h **** 
 8418              		.loc 2 593 0
 8419 0002 4822     		movs	r2, #72
 8420              	.LBE2174:
 8421              	.LBE2173:
 8422              	.LBE2172:
1247:/home/tienluong/workspace/atlantis_fw/AsicFwS2/include/matrix.h **** {
 8423              		.loc 2 1247 0
 8424 0004 0446     		mov	r4, r0
 8425              	.LVL1158:
 8426              	.LBB2177:
 8427              	.LBB2176:
 8428              	.LBB2175:
 593:/home/tienluong/workspace/atlantis_fw/AsicFwS2/include/matrix.h **** 
 8429              		.loc 2 593 0
 8430 0006 044B     		ldr	r3, .L249
 8431 0008 9847     		blx	r3
 8432              	.LVL1159:
 8433              	.LBE2175:
 8434              	.LBE2176:
1251:/home/tienluong/workspace/atlantis_fw/AsicFwS2/include/matrix.h ****     return rval;
 8435              		.loc 2 1251 0
 8436 000a 01A8     		add	r0, sp, #4
 8437 000c 2146     		mov	r1, r4
 8438 000e 034B     		ldr	r3, .L249+4
 8439 0010 9847     		blx	r3
 8440              	.LVL1160:
 8441              	.LBE2177:
1253:/home/tienluong/workspace/atlantis_fw/AsicFwS2/include/matrix.h **** 
 8442              		.loc 2 1253 0
 8443 0012 2046     		mov	r0, r4
 8444 0014 02B0     		add	sp, sp, #8
 8445              	.LCFI76:
 8446              		.cfi_def_cfa_offset 8
 8447              		@ sp needed
 8448 0016 10BD     		pop	{r4, pc}
 8449              	.LVL1161:
 8450              	.L250:
 8451              		.align	2
 8452              	.L249:
 8453 0018 00000000 		.word	memcpy
 8454 001c 00000000 		.word	_ZNK4ltaf20SquareMatrixInverterIdLi3EE3runEPd
 8455              		.cfi_endproc
 8456              	.LFE3390:
 8458              		.section	.text._ZNK4ltaf20SquareMatrixInverterIdLi4EE3runEPd,"axG",%progbits,_ZNK4ltaf20SquareMatr
 8459              		.align	1
 8460              		.weak	_ZNK4ltaf20SquareMatrixInverterIdLi4EE3runEPd
 8461              		.thumb
 8462              		.thumb_func
 8464              	_ZNK4ltaf20SquareMatrixInverterIdLi4EE3runEPd:
 8465              	.LFB3561:
1166:/home/tienluong/workspace/atlantis_fw/AsicFwS2/include/matrix.h ****     {
 8466              		.loc 2 1166 0
 8467              		.cfi_startproc
 8468              		@ args = 0, pretend = 0, frame = 376
 8469              		@ frame_needed = 0, uses_anonymous_args = 0
 8470              	.LVL1162:
 8471 0000 2DE9F04F 		push	{r4, r5, r6, r7, r8, r9, r10, fp, lr}
 8472              	.LCFI77:
 8473              		.cfi_def_cfa_offset 36
 8474              		.cfi_offset 4, -36
 8475              		.cfi_offset 5, -32
 8476              		.cfi_offset 6, -28
 8477              		.cfi_offset 7, -24
 8478              		.cfi_offset 8, -20
 8479              		.cfi_offset 9, -16
 8480              		.cfi_offset 10, -12
 8481              		.cfi_offset 11, -8
 8482              		.cfi_offset 14, -4
 8483 0004 DFB0     		sub	sp, sp, #380
 8484              	.LCFI78:
 8485              		.cfi_def_cfa_offset 416
 8486              	.LBB2178:
1172:/home/tienluong/workspace/atlantis_fw/AsicFwS2/include/matrix.h ****         tmp[1] = mat[11] * mat[14];
 8487              		.loc 2 1172 0
 8488 0006 D1E91423 		ldrd	r2, [r1, #80]
 8489              	.LBE2178:
1166:/home/tienluong/workspace/atlantis_fw/AsicFwS2/include/matrix.h ****     {
 8490              		.loc 2 1166 0
 8491 000a 8A46     		mov	r10, r1
 8492              	.LBB2180:
1172:/home/tienluong/workspace/atlantis_fw/AsicFwS2/include/matrix.h ****         tmp[1] = mat[11] * mat[14];
 8493              		.loc 2 1172 0
 8494 000c CDE90823 		strd	r2, [sp, #32]
 8495 0010 934C     		ldr	r4, .L254
 8496 0012 D1E91E23 		ldrd	r2, [r1, #120]
 8497 0016 DDE90801 		ldrd	r0, [sp, #32]
 8498              	.LVL1163:
 8499 001a CDE90A23 		strd	r2, [sp, #40]
 8500 001e A047     		blx	r4
 8501              	.LVL1164:
1173:/home/tienluong/workspace/atlantis_fw/AsicFwS2/include/matrix.h ****         tmp[2] = mat[9] * mat[15];
 8502              		.loc 2 1173 0
 8503 0020 DAE91623 		ldrd	r2, [r10, #88]
 8504 0024 CDE90C23 		strd	r2, [sp, #48]
 8505 0028 DAE91C23 		ldrd	r2, [r10, #112]
 8506 002c CDE90E23 		strd	r2, [sp, #56]
1186:/home/tienluong/workspace/atlantis_fw/AsicFwS2/include/matrix.h ****         dst[0]  -= tmp[1] * mat[5] + tmp[2] * mat[6] + tmp[5]  * mat[7];
 8507              		.loc 2 1186 0
 8508 0030 8C4D     		ldr	r5, .L254+4
1187:/home/tienluong/workspace/atlantis_fw/AsicFwS2/include/matrix.h ****         dst[4]   = tmp[1] * mat[4] + tmp[6] * mat[6] + tmp[9]  * mat[7];
 8509              		.loc 2 1187 0
 8510 0032 DFF834B2 		ldr	fp, .L254+8
1172:/home/tienluong/workspace/atlantis_fw/AsicFwS2/include/matrix.h ****         tmp[1] = mat[11] * mat[14];
 8511              		.loc 2 1172 0
 8512 0036 CDE92001 		strd	r0, [sp, #128]
 8513              	.LVL1165:
1173:/home/tienluong/workspace/atlantis_fw/AsicFwS2/include/matrix.h ****         tmp[2] = mat[9] * mat[15];
 8514              		.loc 2 1173 0
 8515 003a DDE90C01 		ldrd	r0, [sp, #48]
 8516              	.LVL1166:
 8517 003e A047     		blx	r4
 8518              	.LVL1167:
1174:/home/tienluong/workspace/atlantis_fw/AsicFwS2/include/matrix.h ****         tmp[3] = mat[11] * mat[13];
 8519              		.loc 2 1174 0
 8520 0040 DAE91223 		ldrd	r2, [r10, #72]
 8521 0044 CDE91023 		strd	r2, [sp, #64]
1173:/home/tienluong/workspace/atlantis_fw/AsicFwS2/include/matrix.h ****         tmp[2] = mat[9] * mat[15];
 8522              		.loc 2 1173 0
 8523 0048 CDE92201 		strd	r0, [sp, #136]
 8524              	.LVL1168:
1174:/home/tienluong/workspace/atlantis_fw/AsicFwS2/include/matrix.h ****         tmp[3] = mat[11] * mat[13];
 8525              		.loc 2 1174 0
 8526 004c 1046     		mov	r0, r2
 8527              	.LVL1169:
 8528 004e 1946     		mov	r1, r3
 8529 0050 DDE90A23 		ldrd	r2, [sp, #40]
 8530 0054 A047     		blx	r4
 8531              	.LVL1170:
1175:/home/tienluong/workspace/atlantis_fw/AsicFwS2/include/matrix.h ****         tmp[4] = mat[9] * mat[14];
 8532              		.loc 2 1175 0
 8533 0056 DAE91A23 		ldrd	r2, [r10, #104]
 8534 005a CDE91223 		strd	r2, [sp, #72]
1174:/home/tienluong/workspace/atlantis_fw/AsicFwS2/include/matrix.h ****         tmp[3] = mat[11] * mat[13];
 8535              		.loc 2 1174 0
 8536 005e CDE92401 		strd	r0, [sp, #144]
 8537              	.LVL1171:
1175:/home/tienluong/workspace/atlantis_fw/AsicFwS2/include/matrix.h ****         tmp[4] = mat[9] * mat[14];
 8538              		.loc 2 1175 0
 8539 0062 DDE90C01 		ldrd	r0, [sp, #48]
 8540              	.LVL1172:
 8541 0066 A047     		blx	r4
 8542              	.LVL1173:
1176:/home/tienluong/workspace/atlantis_fw/AsicFwS2/include/matrix.h ****         tmp[5] = mat[10] * mat[13];
 8543              		.loc 2 1176 0
 8544 0068 DDE90E23 		ldrd	r2, [sp, #56]
1175:/home/tienluong/workspace/atlantis_fw/AsicFwS2/include/matrix.h ****         tmp[4] = mat[9] * mat[14];
 8545              		.loc 2 1175 0
 8546 006c CDE92601 		strd	r0, [sp, #152]
 8547              	.LVL1174:
1176:/home/tienluong/workspace/atlantis_fw/AsicFwS2/include/matrix.h ****         tmp[5] = mat[10] * mat[13];
 8548              		.loc 2 1176 0
 8549 0070 DDE91001 		ldrd	r0, [sp, #64]
 8550              	.LVL1175:
 8551 0074 A047     		blx	r4
 8552              	.LVL1176:
1177:/home/tienluong/workspace/atlantis_fw/AsicFwS2/include/matrix.h ****         tmp[6] = mat[8] * mat[15];
 8553              		.loc 2 1177 0
 8554 0076 DDE91223 		ldrd	r2, [sp, #72]
1176:/home/tienluong/workspace/atlantis_fw/AsicFwS2/include/matrix.h ****         tmp[5] = mat[10] * mat[13];
 8555              		.loc 2 1176 0
 8556 007a CDE92801 		strd	r0, [sp, #160]
1177:/home/tienluong/workspace/atlantis_fw/AsicFwS2/include/matrix.h ****         tmp[6] = mat[8] * mat[15];
 8557              		.loc 2 1177 0
 8558 007e DDE90801 		ldrd	r0, [sp, #32]
 8559 0082 A047     		blx	r4
 8560              	.LVL1177:
1178:/home/tienluong/workspace/atlantis_fw/AsicFwS2/include/matrix.h ****         tmp[7] = mat[11] * mat[12];
 8561              		.loc 2 1178 0
 8562 0084 DAE91023 		ldrd	r2, [r10, #64]
 8563 0088 CDE91423 		strd	r2, [sp, #80]
1177:/home/tienluong/workspace/atlantis_fw/AsicFwS2/include/matrix.h ****         tmp[6] = mat[8] * mat[15];
 8564              		.loc 2 1177 0
 8565 008c CDE92A01 		strd	r0, [sp, #168]
1178:/home/tienluong/workspace/atlantis_fw/AsicFwS2/include/matrix.h ****         tmp[7] = mat[11] * mat[12];
 8566              		.loc 2 1178 0
 8567 0090 1046     		mov	r0, r2
 8568 0092 1946     		mov	r1, r3
 8569 0094 DDE90A23 		ldrd	r2, [sp, #40]
 8570 0098 A047     		blx	r4
 8571              	.LVL1178:
1179:/home/tienluong/workspace/atlantis_fw/AsicFwS2/include/matrix.h ****         tmp[8] = mat[8] * mat[14];
 8572              		.loc 2 1179 0
 8573 009a DAE91823 		ldrd	r2, [r10, #96]
 8574 009e CDE91623 		strd	r2, [sp, #88]
1178:/home/tienluong/workspace/atlantis_fw/AsicFwS2/include/matrix.h ****         tmp[7] = mat[11] * mat[12];
 8575              		.loc 2 1178 0
 8576 00a2 CDE92C01 		strd	r0, [sp, #176]
1179:/home/tienluong/workspace/atlantis_fw/AsicFwS2/include/matrix.h ****         tmp[8] = mat[8] * mat[14];
 8577              		.loc 2 1179 0
 8578 00a6 DDE90C01 		ldrd	r0, [sp, #48]
 8579 00aa A047     		blx	r4
 8580              	.LVL1179:
1180:/home/tienluong/workspace/atlantis_fw/AsicFwS2/include/matrix.h ****         tmp[9] = mat[10] * mat[12];
 8581              		.loc 2 1180 0
 8582 00ac DDE90E23 		ldrd	r2, [sp, #56]
1179:/home/tienluong/workspace/atlantis_fw/AsicFwS2/include/matrix.h ****         tmp[8] = mat[8] * mat[14];
 8583              		.loc 2 1179 0
 8584 00b0 CDE92E01 		strd	r0, [sp, #184]
1180:/home/tienluong/workspace/atlantis_fw/AsicFwS2/include/matrix.h ****         tmp[9] = mat[10] * mat[12];
 8585              		.loc 2 1180 0
 8586 00b4 DDE91401 		ldrd	r0, [sp, #80]
 8587 00b8 A047     		blx	r4
 8588              	.LVL1180:
1181:/home/tienluong/workspace/atlantis_fw/AsicFwS2/include/matrix.h ****         tmp[10] = mat[8] * mat[13];
 8589              		.loc 2 1181 0
 8590 00ba DDE91623 		ldrd	r2, [sp, #88]
1180:/home/tienluong/workspace/atlantis_fw/AsicFwS2/include/matrix.h ****         tmp[9] = mat[10] * mat[12];
 8591              		.loc 2 1180 0
 8592 00be CDE93001 		strd	r0, [sp, #192]
1181:/home/tienluong/workspace/atlantis_fw/AsicFwS2/include/matrix.h ****         tmp[10] = mat[8] * mat[13];
 8593              		.loc 2 1181 0
 8594 00c2 DDE90801 		ldrd	r0, [sp, #32]
 8595 00c6 A047     		blx	r4
 8596              	.LVL1181:
 8597 00c8 CDE93201 		strd	r0, [sp, #200]
1182:/home/tienluong/workspace/atlantis_fw/AsicFwS2/include/matrix.h ****         tmp[11] = mat[9] * mat[12];
 8598              		.loc 2 1182 0
 8599 00cc DDE91401 		ldrd	r0, [sp, #80]
 8600 00d0 DDE91223 		ldrd	r2, [sp, #72]
 8601 00d4 A047     		blx	r4
 8602              	.LVL1182:
1183:/home/tienluong/workspace/atlantis_fw/AsicFwS2/include/matrix.h **** 
 8603              		.loc 2 1183 0
 8604 00d6 DDE91623 		ldrd	r2, [sp, #88]
1182:/home/tienluong/workspace/atlantis_fw/AsicFwS2/include/matrix.h ****         tmp[11] = mat[9] * mat[12];
 8605              		.loc 2 1182 0
 8606 00da CDE93401 		strd	r0, [sp, #208]
1183:/home/tienluong/workspace/atlantis_fw/AsicFwS2/include/matrix.h **** 
 8607              		.loc 2 1183 0
 8608 00de DDE91001 		ldrd	r0, [sp, #64]
 8609 00e2 A047     		blx	r4
 8610              	.LVL1183:
1186:/home/tienluong/workspace/atlantis_fw/AsicFwS2/include/matrix.h ****         dst[0]  -= tmp[1] * mat[5] + tmp[2] * mat[6] + tmp[5]  * mat[7];
 8611              		.loc 2 1186 0
 8612 00e4 DAE90A23 		ldrd	r2, [r10, #40]
 8613 00e8 CDE91823 		strd	r2, [sp, #96]
 8614 00ec DAE90C23 		ldrd	r2, [r10, #48]
 8615 00f0 CDE91A23 		strd	r2, [sp, #104]
 8616 00f4 DAE90E23 		ldrd	r2, [r10, #56]
 8617 00f8 CDE91C23 		strd	r2, [sp, #112]
 8618 00fc DDE91823 		ldrd	r2, [sp, #96]
1183:/home/tienluong/workspace/atlantis_fw/AsicFwS2/include/matrix.h **** 
 8619              		.loc 2 1183 0
 8620 0100 CDE93601 		strd	r0, [sp, #216]
1186:/home/tienluong/workspace/atlantis_fw/AsicFwS2/include/matrix.h ****         dst[0]  -= tmp[1] * mat[5] + tmp[2] * mat[6] + tmp[5]  * mat[7];
 8621              		.loc 2 1186 0
 8622 0104 DDE92001 		ldrd	r0, [sp, #128]
 8623 0108 A047     		blx	r4
 8624              	.LVL1184:
 8625 010a DDE91A23 		ldrd	r2, [sp, #104]
 8626 010e 0646     		mov	r6, r0
 8627 0110 0F46     		mov	r7, r1
 8628 0112 DDE92601 		ldrd	r0, [sp, #152]
 8629 0116 A047     		blx	r4
 8630              	.LVL1185:
 8631 0118 0246     		mov	r2, r0
 8632 011a 0B46     		mov	r3, r1
 8633 011c 3046     		mov	r0, r6
 8634 011e 3946     		mov	r1, r7
 8635 0120 A847     		blx	r5
 8636              	.LVL1186:
 8637 0122 DDE91C23 		ldrd	r2, [sp, #112]
 8638 0126 0646     		mov	r6, r0
 8639 0128 0F46     		mov	r7, r1
 8640 012a DDE92801 		ldrd	r0, [sp, #160]
 8641 012e A047     		blx	r4
 8642              	.LVL1187:
 8643 0130 0246     		mov	r2, r0
 8644 0132 0B46     		mov	r3, r1
 8645 0134 3046     		mov	r0, r6
 8646 0136 3946     		mov	r1, r7
 8647 0138 A847     		blx	r5
 8648              	.LVL1188:
1187:/home/tienluong/workspace/atlantis_fw/AsicFwS2/include/matrix.h ****         dst[4]   = tmp[1] * mat[4] + tmp[6] * mat[6] + tmp[9]  * mat[7];
 8649              		.loc 2 1187 0
 8650 013a DDE91823 		ldrd	r2, [sp, #96]
1186:/home/tienluong/workspace/atlantis_fw/AsicFwS2/include/matrix.h ****         dst[0]  -= tmp[1] * mat[5] + tmp[2] * mat[6] + tmp[5]  * mat[7];
 8651              		.loc 2 1186 0
 8652 013e 8046     		mov	r8, r0
 8653 0140 8946     		mov	r9, r1
1187:/home/tienluong/workspace/atlantis_fw/AsicFwS2/include/matrix.h ****         dst[4]   = tmp[1] * mat[4] + tmp[6] * mat[6] + tmp[9]  * mat[7];
 8654              		.loc 2 1187 0
 8655 0142 DDE92201 		ldrd	r0, [sp, #136]
 8656 0146 A047     		blx	r4
 8657              	.LVL1189:
 8658 0148 DDE91A23 		ldrd	r2, [sp, #104]
 8659 014c 0646     		mov	r6, r0
 8660 014e 0F46     		mov	r7, r1
 8661 0150 DDE92401 		ldrd	r0, [sp, #144]
 8662 0154 A047     		blx	r4
 8663              	.LVL1190:
 8664 0156 0246     		mov	r2, r0
 8665 0158 0B46     		mov	r3, r1
 8666 015a 3046     		mov	r0, r6
 8667 015c 3946     		mov	r1, r7
 8668 015e A847     		blx	r5
 8669              	.LVL1191:
 8670 0160 DDE91C23 		ldrd	r2, [sp, #112]
 8671 0164 0646     		mov	r6, r0
 8672 0166 0F46     		mov	r7, r1
 8673 0168 DDE92A01 		ldrd	r0, [sp, #168]
 8674 016c A047     		blx	r4
 8675              	.LVL1192:
 8676 016e 0246     		mov	r2, r0
 8677 0170 0B46     		mov	r3, r1
 8678 0172 3046     		mov	r0, r6
 8679 0174 3946     		mov	r1, r7
 8680 0176 A847     		blx	r5
 8681              	.LVL1193:
 8682 0178 0246     		mov	r2, r0
 8683 017a 0B46     		mov	r3, r1
 8684 017c 4046     		mov	r0, r8
 8685 017e 4946     		mov	r1, r9
 8686 0180 D847     		blx	fp
 8687              	.LVL1194:
 8688 0182 0246     		mov	r2, r0
 8689 0184 0B46     		mov	r3, r1
 8690 0186 CDE93801 		strd	r0, [sp, #224]
 8691 018a CDE93E23 		strd	r2, [sp, #248]
1188:/home/tienluong/workspace/atlantis_fw/AsicFwS2/include/matrix.h ****         dst[4]  -= tmp[0] * mat[4] + tmp[7] * mat[6] + tmp[8]  * mat[7];
 8692              		.loc 2 1188 0
 8693 018e DAE90823 		ldrd	r2, [r10, #32]
 8694 0192 DDE92201 		ldrd	r0, [sp, #136]
 8695 0196 CDE91E23 		strd	r2, [sp, #120]
 8696 019a A047     		blx	r4
 8697              	.LVL1195:
 8698 019c DDE91A23 		ldrd	r2, [sp, #104]
 8699 01a0 0646     		mov	r6, r0
 8700 01a2 0F46     		mov	r7, r1
 8701 01a4 DDE92C01 		ldrd	r0, [sp, #176]
 8702 01a8 A047     		blx	r4
 8703              	.LVL1196:
 8704 01aa 0246     		mov	r2, r0
 8705 01ac 0B46     		mov	r3, r1
 8706 01ae 3046     		mov	r0, r6
 8707 01b0 3946     		mov	r1, r7
 8708 01b2 A847     		blx	r5
 8709              	.LVL1197:
 8710 01b4 DDE91C23 		ldrd	r2, [sp, #112]
 8711 01b8 0646     		mov	r6, r0
 8712 01ba 0F46     		mov	r7, r1
 8713 01bc DDE93201 		ldrd	r0, [sp, #200]
 8714 01c0 A047     		blx	r4
 8715              	.LVL1198:
 8716 01c2 0246     		mov	r2, r0
 8717 01c4 0B46     		mov	r3, r1
 8718 01c6 3046     		mov	r0, r6
 8719 01c8 3946     		mov	r1, r7
 8720 01ca A847     		blx	r5
 8721              	.LVL1199:
1189:/home/tienluong/workspace/atlantis_fw/AsicFwS2/include/matrix.h ****         dst[8]   = tmp[2] * mat[4] + tmp[7] * mat[5] + tmp[10] * mat[7];
 8722              		.loc 2 1189 0
 8723 01cc DDE91E23 		ldrd	r2, [sp, #120]
1188:/home/tienluong/workspace/atlantis_fw/AsicFwS2/include/matrix.h ****         dst[4]  -= tmp[0] * mat[4] + tmp[7] * mat[6] + tmp[8]  * mat[7];
 8724              		.loc 2 1188 0
 8725 01d0 8046     		mov	r8, r0
 8726 01d2 8946     		mov	r9, r1
1189:/home/tienluong/workspace/atlantis_fw/AsicFwS2/include/matrix.h ****         dst[8]   = tmp[2] * mat[4] + tmp[7] * mat[5] + tmp[10] * mat[7];
 8727              		.loc 2 1189 0
 8728 01d4 DDE92001 		ldrd	r0, [sp, #128]
 8729 01d8 A047     		blx	r4
 8730              	.LVL1200:
 8731 01da DDE91A23 		ldrd	r2, [sp, #104]
 8732 01de 0646     		mov	r6, r0
 8733 01e0 0F46     		mov	r7, r1
 8734 01e2 DDE92E01 		ldrd	r0, [sp, #184]
 8735 01e6 A047     		blx	r4
 8736              	.LVL1201:
 8737 01e8 0246     		mov	r2, r0
 8738 01ea 0B46     		mov	r3, r1
 8739 01ec 3046     		mov	r0, r6
 8740 01ee 3946     		mov	r1, r7
 8741 01f0 A847     		blx	r5
 8742              	.LVL1202:
 8743 01f2 DDE91C23 		ldrd	r2, [sp, #112]
 8744 01f6 0646     		mov	r6, r0
 8745 01f8 0F46     		mov	r7, r1
 8746 01fa DDE93001 		ldrd	r0, [sp, #192]
 8747 01fe A047     		blx	r4
 8748              	.LVL1203:
 8749 0200 0246     		mov	r2, r0
 8750 0202 0B46     		mov	r3, r1
 8751 0204 3046     		mov	r0, r6
 8752 0206 3946     		mov	r1, r7
 8753 0208 A847     		blx	r5
 8754              	.LVL1204:
 8755 020a 0246     		mov	r2, r0
 8756 020c 0B46     		mov	r3, r1
 8757 020e 4046     		mov	r0, r8
 8758 0210 4946     		mov	r1, r9
 8759 0212 D847     		blx	fp
 8760              	.LVL1205:
 8761 0214 CDE93A01 		strd	r0, [sp, #232]
 8762 0218 0246     		mov	r2, r0
 8763 021a 0B46     		mov	r3, r1
 8764 021c 46A9     		add	r1, sp, #280
 8765 021e C1E90023 		strd	r2, [r1]
1190:/home/tienluong/workspace/atlantis_fw/AsicFwS2/include/matrix.h ****         dst[8]  -= tmp[3] * mat[4] + tmp[6] * mat[5] + tmp[11] * mat[7];
 8766              		.loc 2 1190 0
 8767 0222 DDE91E23 		ldrd	r2, [sp, #120]
 8768 0226 DDE92401 		ldrd	r0, [sp, #144]
 8769 022a A047     		blx	r4
 8770              	.LVL1206:
 8771 022c DDE91823 		ldrd	r2, [sp, #96]
 8772 0230 0646     		mov	r6, r0
 8773 0232 0F46     		mov	r7, r1
 8774 0234 DDE92E01 		ldrd	r0, [sp, #184]
 8775 0238 A047     		blx	r4
 8776              	.LVL1207:
 8777 023a 0246     		mov	r2, r0
 8778 023c 0B46     		mov	r3, r1
 8779 023e 3046     		mov	r0, r6
 8780 0240 3946     		mov	r1, r7
 8781 0242 A847     		blx	r5
 8782              	.LVL1208:
 8783 0244 DDE91C23 		ldrd	r2, [sp, #112]
 8784 0248 0646     		mov	r6, r0
 8785 024a 0F46     		mov	r7, r1
 8786 024c DDE93401 		ldrd	r0, [sp, #208]
 8787 0250 A047     		blx	r4
 8788              	.LVL1209:
 8789 0252 0246     		mov	r2, r0
 8790 0254 0B46     		mov	r3, r1
 8791 0256 3046     		mov	r0, r6
 8792 0258 3946     		mov	r1, r7
 8793 025a A847     		blx	r5
 8794              	.LVL1210:
 8795 025c 06E0     		b	.L255
 8796              	.L256:
 8797 025e 00BF     		.align	2
 8798              	.L254:
 8799 0260 00000000 		.word	__aeabi_dmul
 8800 0264 00000000 		.word	__aeabi_dadd
 8801 0268 00000000 		.word	__aeabi_dsub
 8802              	.L255:
1191:/home/tienluong/workspace/atlantis_fw/AsicFwS2/include/matrix.h ****         dst[12]  = tmp[5] * mat[4] + tmp[8] * mat[5] + tmp[11] * mat[6];
 8803              		.loc 2 1191 0
 8804 026c DDE91E23 		ldrd	r2, [sp, #120]
1190:/home/tienluong/workspace/atlantis_fw/AsicFwS2/include/matrix.h ****         dst[8]  -= tmp[3] * mat[4] + tmp[6] * mat[5] + tmp[11] * mat[7];
 8805              		.loc 2 1190 0
 8806 0270 8046     		mov	r8, r0
 8807 0272 8946     		mov	r9, r1
1191:/home/tienluong/workspace/atlantis_fw/AsicFwS2/include/matrix.h ****         dst[12]  = tmp[5] * mat[4] + tmp[8] * mat[5] + tmp[11] * mat[6];
 8808              		.loc 2 1191 0
 8809 0274 DDE92601 		ldrd	r0, [sp, #152]
 8810 0278 A047     		blx	r4
 8811              	.LVL1211:
 8812 027a DDE91823 		ldrd	r2, [sp, #96]
 8813 027e 0646     		mov	r6, r0
 8814 0280 0F46     		mov	r7, r1
 8815 0282 DDE92C01 		ldrd	r0, [sp, #176]
 8816 0286 A047     		blx	r4
 8817              	.LVL1212:
 8818 0288 0246     		mov	r2, r0
 8819 028a 0B46     		mov	r3, r1
 8820 028c 3046     		mov	r0, r6
 8821 028e 3946     		mov	r1, r7
 8822 0290 A847     		blx	r5
 8823              	.LVL1213:
 8824 0292 DDE91C23 		ldrd	r2, [sp, #112]
 8825 0296 0646     		mov	r6, r0
 8826 0298 0F46     		mov	r7, r1
 8827 029a DDE93601 		ldrd	r0, [sp, #216]
 8828 029e A047     		blx	r4
 8829              	.LVL1214:
 8830 02a0 0246     		mov	r2, r0
 8831 02a2 0B46     		mov	r3, r1
 8832 02a4 3046     		mov	r0, r6
 8833 02a6 3946     		mov	r1, r7
 8834 02a8 A847     		blx	r5
 8835              	.LVL1215:
 8836 02aa 0246     		mov	r2, r0
 8837 02ac 0B46     		mov	r3, r1
 8838 02ae 4046     		mov	r0, r8
 8839 02b0 4946     		mov	r1, r9
 8840 02b2 D847     		blx	fp
 8841              	.LVL1216:
 8842 02b4 CDE93C01 		strd	r0, [sp, #240]
 8843 02b8 0246     		mov	r2, r0
 8844 02ba 0B46     		mov	r3, r1
 8845 02bc 4EA9     		add	r1, sp, #312
 8846 02be C1E90023 		strd	r2, [r1]
1192:/home/tienluong/workspace/atlantis_fw/AsicFwS2/include/matrix.h ****         dst[12] -= tmp[4] * mat[4] + tmp[9] * mat[5] + tmp[10] * mat[6];
 8847              		.loc 2 1192 0
 8848 02c2 DDE91E23 		ldrd	r2, [sp, #120]
 8849 02c6 DDE92A01 		ldrd	r0, [sp, #168]
 8850 02ca A047     		blx	r4
 8851              	.LVL1217:
 8852 02cc DDE91823 		ldrd	r2, [sp, #96]
 8853 02d0 0646     		mov	r6, r0
 8854 02d2 0F46     		mov	r7, r1
 8855 02d4 DDE93001 		ldrd	r0, [sp, #192]
 8856 02d8 A047     		blx	r4
 8857              	.LVL1218:
 8858 02da 0246     		mov	r2, r0
 8859 02dc 0B46     		mov	r3, r1
 8860 02de 3046     		mov	r0, r6
 8861 02e0 3946     		mov	r1, r7
 8862 02e2 A847     		blx	r5
 8863              	.LVL1219:
 8864 02e4 DDE91A23 		ldrd	r2, [sp, #104]
 8865 02e8 0646     		mov	r6, r0
 8866 02ea 0F46     		mov	r7, r1
 8867 02ec DDE93601 		ldrd	r0, [sp, #216]
 8868 02f0 A047     		blx	r4
 8869              	.LVL1220:
 8870 02f2 0246     		mov	r2, r0
 8871 02f4 0B46     		mov	r3, r1
 8872 02f6 3046     		mov	r0, r6
 8873 02f8 3946     		mov	r1, r7
 8874 02fa A847     		blx	r5
 8875              	.LVL1221:
1193:/home/tienluong/workspace/atlantis_fw/AsicFwS2/include/matrix.h **** 
 8876              		.loc 2 1193 0
 8877 02fc DDE91E23 		ldrd	r2, [sp, #120]
1192:/home/tienluong/workspace/atlantis_fw/AsicFwS2/include/matrix.h ****         dst[12] -= tmp[4] * mat[4] + tmp[9] * mat[5] + tmp[10] * mat[6];
 8878              		.loc 2 1192 0
 8879 0300 8046     		mov	r8, r0
 8880 0302 8946     		mov	r9, r1
1193:/home/tienluong/workspace/atlantis_fw/AsicFwS2/include/matrix.h **** 
 8881              		.loc 2 1193 0
 8882 0304 DDE92801 		ldrd	r0, [sp, #160]
 8883 0308 A047     		blx	r4
 8884              	.LVL1222:
 8885 030a DDE91823 		ldrd	r2, [sp, #96]
 8886 030e 0646     		mov	r6, r0
 8887 0310 0F46     		mov	r7, r1
 8888 0312 DDE93201 		ldrd	r0, [sp, #200]
 8889 0316 A047     		blx	r4
 8890              	.LVL1223:
 8891 0318 0246     		mov	r2, r0
 8892 031a 0B46     		mov	r3, r1
 8893 031c 3046     		mov	r0, r6
 8894 031e 3946     		mov	r1, r7
 8895 0320 A847     		blx	r5
 8896              	.LVL1224:
 8897 0322 DDE91A23 		ldrd	r2, [sp, #104]
 8898 0326 0646     		mov	r6, r0
 8899 0328 0F46     		mov	r7, r1
 8900 032a DDE93401 		ldrd	r0, [sp, #208]
 8901 032e A047     		blx	r4
 8902              	.LVL1225:
 8903 0330 0246     		mov	r2, r0
 8904 0332 0B46     		mov	r3, r1
 8905 0334 3046     		mov	r0, r6
 8906 0336 3946     		mov	r1, r7
 8907 0338 A847     		blx	r5
 8908              	.LVL1226:
 8909 033a 0246     		mov	r2, r0
 8910 033c 0B46     		mov	r3, r1
 8911 033e 4046     		mov	r0, r8
 8912 0340 4946     		mov	r1, r9
 8913 0342 D847     		blx	fp
 8914              	.LVL1227:
 8915 0344 56AB     		add	r3, sp, #344
 8916 0346 8046     		mov	r8, r0
 8917 0348 8946     		mov	r9, r1
 8918 034a C3E90089 		strd	r8, [r3]
1196:/home/tienluong/workspace/atlantis_fw/AsicFwS2/include/matrix.h **** 
 8919              		.loc 2 1196 0
 8920 034e DAE90023 		ldrd	r2, [r10]
 8921 0352 CDE90023 		strd	r2, [sp]
 8922 0356 DAE90223 		ldrd	r2, [r10, #8]
 8923 035a CDE90223 		strd	r2, [sp, #8]
 8924 035e DAE90423 		ldrd	r2, [r10, #16]
 8925 0362 CDE90423 		strd	r2, [sp, #16]
 8926 0366 DAE90623 		ldrd	r2, [r10, #24]
 8927 036a CDE90623 		strd	r2, [sp, #24]
 8928              	.LVL1228:
 8929 036e DDE90001 		ldrd	r0, [sp]
 8930 0372 DDE93823 		ldrd	r2, [sp, #224]
 8931              	.LVL1229:
 8932 0376 A047     		blx	r4
 8933              	.LVL1230:
 8934 0378 DDE93A23 		ldrd	r2, [sp, #232]
 8935 037c 0646     		mov	r6, r0
 8936 037e 0F46     		mov	r7, r1
 8937 0380 DDE90201 		ldrd	r0, [sp, #8]
 8938 0384 A047     		blx	r4
 8939              	.LVL1231:
 8940 0386 0246     		mov	r2, r0
 8941 0388 0B46     		mov	r3, r1
 8942 038a 3046     		mov	r0, r6
 8943 038c 3946     		mov	r1, r7
 8944 038e A847     		blx	r5
 8945              	.LVL1232:
 8946 0390 DDE93C23 		ldrd	r2, [sp, #240]
 8947 0394 0646     		mov	r6, r0
 8948 0396 0F46     		mov	r7, r1
 8949 0398 DDE90401 		ldrd	r0, [sp, #16]
 8950 039c A047     		blx	r4
 8951              	.LVL1233:
 8952 039e 0246     		mov	r2, r0
 8953 03a0 0B46     		mov	r3, r1
 8954 03a2 3046     		mov	r0, r6
 8955 03a4 3946     		mov	r1, r7
 8956 03a6 A847     		blx	r5
 8957              	.LVL1234:
 8958 03a8 4246     		mov	r2, r8
 8959 03aa 4B46     		mov	r3, r9
 8960 03ac 0646     		mov	r6, r0
 8961 03ae 0F46     		mov	r7, r1
 8962 03b0 DDE90601 		ldrd	r0, [sp, #24]
 8963 03b4 A047     		blx	r4
 8964              	.LVL1235:
 8965 03b6 0246     		mov	r2, r0
 8966 03b8 0B46     		mov	r3, r1
 8967 03ba 3046     		mov	r0, r6
 8968 03bc 3946     		mov	r1, r7
 8969 03be A847     		blx	r5
 8970              	.LVL1236:
1198:/home/tienluong/workspace/atlantis_fw/AsicFwS2/include/matrix.h **** 
 8971              		.loc 2 1198 0
 8972 03c0 9D4E     		ldr	r6, .L257
1196:/home/tienluong/workspace/atlantis_fw/AsicFwS2/include/matrix.h **** 
 8973              		.loc 2 1196 0
 8974 03c2 0246     		mov	r2, r0
 8975 03c4 0B46     		mov	r3, r1
1198:/home/tienluong/workspace/atlantis_fw/AsicFwS2/include/matrix.h **** 
 8976              		.loc 2 1198 0
 8977 03c6 0020     		movs	r0, #0
 8978 03c8 9C49     		ldr	r1, .L257+4
 8979 03ca B047     		blx	r6
 8980              	.LVL1237:
1200:/home/tienluong/workspace/atlantis_fw/AsicFwS2/include/matrix.h ****         dst[1]  -= tmp[0] * mat[1] + tmp[3] * mat[2] + tmp[4]  * mat[3];
 8981              		.loc 2 1200 0
 8982 03cc DDE90223 		ldrd	r2, [sp, #8]
1198:/home/tienluong/workspace/atlantis_fw/AsicFwS2/include/matrix.h **** 
 8983              		.loc 2 1198 0
 8984 03d0 CDE93801 		strd	r0, [sp, #224]
 8985              	.LVL1238:
1200:/home/tienluong/workspace/atlantis_fw/AsicFwS2/include/matrix.h ****         dst[1]  -= tmp[0] * mat[1] + tmp[3] * mat[2] + tmp[4]  * mat[3];
 8986              		.loc 2 1200 0
 8987 03d4 DDE92201 		ldrd	r0, [sp, #136]
 8988              	.LVL1239:
 8989 03d8 A047     		blx	r4
 8990              	.LVL1240:
 8991 03da DDE90423 		ldrd	r2, [sp, #16]
 8992 03de 0646     		mov	r6, r0
 8993 03e0 0F46     		mov	r7, r1
 8994 03e2 DDE92401 		ldrd	r0, [sp, #144]
 8995 03e6 A047     		blx	r4
 8996              	.LVL1241:
 8997 03e8 0246     		mov	r2, r0
 8998 03ea 0B46     		mov	r3, r1
 8999 03ec 3046     		mov	r0, r6
 9000 03ee 3946     		mov	r1, r7
 9001 03f0 A847     		blx	r5
 9002              	.LVL1242:
 9003 03f2 DDE90623 		ldrd	r2, [sp, #24]
 9004 03f6 0646     		mov	r6, r0
 9005 03f8 0F46     		mov	r7, r1
 9006 03fa DDE92A01 		ldrd	r0, [sp, #168]
 9007 03fe A047     		blx	r4
 9008              	.LVL1243:
 9009 0400 0246     		mov	r2, r0
 9010 0402 0B46     		mov	r3, r1
 9011 0404 3046     		mov	r0, r6
 9012 0406 3946     		mov	r1, r7
 9013 0408 A847     		blx	r5
 9014              	.LVL1244:
 9015 040a 8046     		mov	r8, r0
 9016 040c 8946     		mov	r9, r1
1201:/home/tienluong/workspace/atlantis_fw/AsicFwS2/include/matrix.h ****         dst[5]   = tmp[0] * mat[0] + tmp[7] * mat[2] + tmp[8]  * mat[3];
 9017              		.loc 2 1201 0
 9018 040e DDE92001 		ldrd	r0, [sp, #128]
 9019 0412 DDE90223 		ldrd	r2, [sp, #8]
 9020 0416 A047     		blx	r4
 9021              	.LVL1245:
 9022 0418 DDE90423 		ldrd	r2, [sp, #16]
 9023 041c 0646     		mov	r6, r0
 9024 041e 0F46     		mov	r7, r1
 9025 0420 DDE92601 		ldrd	r0, [sp, #152]
 9026 0424 A047     		blx	r4
 9027              	.LVL1246:
 9028 0426 0246     		mov	r2, r0
 9029 0428 0B46     		mov	r3, r1
 9030 042a 3046     		mov	r0, r6
 9031 042c 3946     		mov	r1, r7
 9032 042e A847     		blx	r5
 9033              	.LVL1247:
 9034 0430 DDE90623 		ldrd	r2, [sp, #24]
 9035 0434 0646     		mov	r6, r0
 9036 0436 0F46     		mov	r7, r1
 9037 0438 DDE92801 		ldrd	r0, [sp, #160]
 9038 043c A047     		blx	r4
 9039              	.LVL1248:
 9040 043e 0246     		mov	r2, r0
 9041 0440 0B46     		mov	r3, r1
 9042 0442 3046     		mov	r0, r6
 9043 0444 3946     		mov	r1, r7
 9044 0446 A847     		blx	r5
 9045              	.LVL1249:
 9046 0448 0246     		mov	r2, r0
 9047 044a 0B46     		mov	r3, r1
 9048 044c 4046     		mov	r0, r8
 9049 044e 4946     		mov	r1, r9
 9050 0450 D847     		blx	fp
 9051              	.LVL1250:
 9052 0452 40AB     		add	r3, sp, #256
 9053 0454 C3E90001 		strd	r0, [r3]
1202:/home/tienluong/workspace/atlantis_fw/AsicFwS2/include/matrix.h ****         dst[5]  -= tmp[1] * mat[0] + tmp[6] * mat[2] + tmp[9]  * mat[3];
 9054              		.loc 2 1202 0
 9055 0458 DDE90023 		ldrd	r2, [sp]
 9056 045c DDE92001 		ldrd	r0, [sp, #128]
 9057 0460 A047     		blx	r4
 9058              	.LVL1251:
 9059 0462 DDE90423 		ldrd	r2, [sp, #16]
 9060 0466 0646     		mov	r6, r0
 9061 0468 0F46     		mov	r7, r1
 9062 046a DDE92E01 		ldrd	r0, [sp, #184]
 9063 046e A047     		blx	r4
 9064              	.LVL1252:
 9065 0470 0246     		mov	r2, r0
 9066 0472 0B46     		mov	r3, r1
 9067 0474 3046     		mov	r0, r6
 9068 0476 3946     		mov	r1, r7
 9069 0478 A847     		blx	r5
 9070              	.LVL1253:
 9071 047a DDE90623 		ldrd	r2, [sp, #24]
 9072 047e 0646     		mov	r6, r0
 9073 0480 0F46     		mov	r7, r1
 9074 0482 DDE93001 		ldrd	r0, [sp, #192]
 9075 0486 A047     		blx	r4
 9076              	.LVL1254:
 9077 0488 0246     		mov	r2, r0
 9078 048a 0B46     		mov	r3, r1
 9079 048c 3046     		mov	r0, r6
 9080 048e 3946     		mov	r1, r7
 9081 0490 A847     		blx	r5
 9082              	.LVL1255:
1203:/home/tienluong/workspace/atlantis_fw/AsicFwS2/include/matrix.h ****         dst[9]   = tmp[3] * mat[0] + tmp[6] * mat[1] + tmp[11] * mat[3];
 9083              		.loc 2 1203 0
 9084 0492 DDE90023 		ldrd	r2, [sp]
1202:/home/tienluong/workspace/atlantis_fw/AsicFwS2/include/matrix.h ****         dst[5]  -= tmp[1] * mat[0] + tmp[6] * mat[2] + tmp[9]  * mat[3];
 9085              		.loc 2 1202 0
 9086 0496 8046     		mov	r8, r0
 9087 0498 8946     		mov	r9, r1
1203:/home/tienluong/workspace/atlantis_fw/AsicFwS2/include/matrix.h ****         dst[9]   = tmp[3] * mat[0] + tmp[6] * mat[1] + tmp[11] * mat[3];
 9088              		.loc 2 1203 0
 9089 049a DDE92201 		ldrd	r0, [sp, #136]
 9090 049e A047     		blx	r4
 9091              	.LVL1256:
 9092 04a0 DDE90423 		ldrd	r2, [sp, #16]
 9093 04a4 0646     		mov	r6, r0
 9094 04a6 0F46     		mov	r7, r1
 9095 04a8 DDE92C01 		ldrd	r0, [sp, #176]
 9096 04ac A047     		blx	r4
 9097              	.LVL1257:
 9098 04ae 0246     		mov	r2, r0
 9099 04b0 0B46     		mov	r3, r1
 9100 04b2 3046     		mov	r0, r6
 9101 04b4 3946     		mov	r1, r7
 9102 04b6 A847     		blx	r5
 9103              	.LVL1258:
 9104 04b8 DDE90623 		ldrd	r2, [sp, #24]
 9105 04bc 0646     		mov	r6, r0
 9106 04be 0F46     		mov	r7, r1
 9107 04c0 DDE93201 		ldrd	r0, [sp, #200]
 9108 04c4 A047     		blx	r4
 9109              	.LVL1259:
 9110 04c6 0246     		mov	r2, r0
 9111 04c8 0B46     		mov	r3, r1
 9112 04ca 3046     		mov	r0, r6
 9113 04cc 3946     		mov	r1, r7
 9114 04ce A847     		blx	r5
 9115              	.LVL1260:
 9116 04d0 0246     		mov	r2, r0
 9117 04d2 0B46     		mov	r3, r1
 9118 04d4 4046     		mov	r0, r8
 9119 04d6 4946     		mov	r1, r9
 9120 04d8 D847     		blx	fp
 9121              	.LVL1261:
 9122 04da 48AB     		add	r3, sp, #288
 9123 04dc C3E90001 		strd	r0, [r3]
1204:/home/tienluong/workspace/atlantis_fw/AsicFwS2/include/matrix.h ****         dst[9]  -= tmp[2] * mat[0] + tmp[7] * mat[1] + tmp[10] * mat[3];
 9124              		.loc 2 1204 0
 9125 04e0 DDE90023 		ldrd	r2, [sp]
 9126 04e4 DDE92601 		ldrd	r0, [sp, #152]
 9127 04e8 A047     		blx	r4
 9128              	.LVL1262:
 9129 04ea DDE90223 		ldrd	r2, [sp, #8]
 9130 04ee 0646     		mov	r6, r0
 9131 04f0 0F46     		mov	r7, r1
 9132 04f2 DDE92C01 		ldrd	r0, [sp, #176]
 9133 04f6 A047     		blx	r4
 9134              	.LVL1263:
 9135 04f8 0246     		mov	r2, r0
 9136 04fa 0B46     		mov	r3, r1
 9137 04fc 3046     		mov	r0, r6
 9138 04fe 3946     		mov	r1, r7
 9139 0500 A847     		blx	r5
 9140              	.LVL1264:
 9141 0502 DDE90623 		ldrd	r2, [sp, #24]
 9142 0506 0646     		mov	r6, r0
 9143 0508 0F46     		mov	r7, r1
 9144 050a DDE93601 		ldrd	r0, [sp, #216]
 9145 050e A047     		blx	r4
 9146              	.LVL1265:
 9147 0510 0246     		mov	r2, r0
 9148 0512 0B46     		mov	r3, r1
 9149 0514 3046     		mov	r0, r6
 9150 0516 3946     		mov	r1, r7
 9151 0518 A847     		blx	r5
 9152              	.LVL1266:
1205:/home/tienluong/workspace/atlantis_fw/AsicFwS2/include/matrix.h ****         dst[13]  = tmp[4] * mat[0] + tmp[9] * mat[1] + tmp[10] * mat[2];
 9153              		.loc 2 1205 0
 9154 051a DDE90023 		ldrd	r2, [sp]
1204:/home/tienluong/workspace/atlantis_fw/AsicFwS2/include/matrix.h ****         dst[9]  -= tmp[2] * mat[0] + tmp[7] * mat[1] + tmp[10] * mat[3];
 9155              		.loc 2 1204 0
 9156 051e 8046     		mov	r8, r0
 9157 0520 8946     		mov	r9, r1
1205:/home/tienluong/workspace/atlantis_fw/AsicFwS2/include/matrix.h ****         dst[13]  = tmp[4] * mat[0] + tmp[9] * mat[1] + tmp[10] * mat[2];
 9158              		.loc 2 1205 0
 9159 0522 DDE92401 		ldrd	r0, [sp, #144]
 9160 0526 A047     		blx	r4
 9161              	.LVL1267:
 9162 0528 DDE90223 		ldrd	r2, [sp, #8]
 9163 052c 0646     		mov	r6, r0
 9164 052e 0F46     		mov	r7, r1
 9165 0530 DDE92E01 		ldrd	r0, [sp, #184]
 9166 0534 A047     		blx	r4
 9167              	.LVL1268:
 9168 0536 0246     		mov	r2, r0
 9169 0538 0B46     		mov	r3, r1
 9170 053a 3046     		mov	r0, r6
 9171 053c 3946     		mov	r1, r7
 9172 053e A847     		blx	r5
 9173              	.LVL1269:
 9174 0540 DDE90623 		ldrd	r2, [sp, #24]
 9175 0544 0646     		mov	r6, r0
 9176 0546 0F46     		mov	r7, r1
 9177 0548 DDE93401 		ldrd	r0, [sp, #208]
 9178 054c A047     		blx	r4
 9179              	.LVL1270:
 9180 054e 0246     		mov	r2, r0
 9181 0550 0B46     		mov	r3, r1
 9182 0552 3046     		mov	r0, r6
 9183 0554 3946     		mov	r1, r7
 9184 0556 A847     		blx	r5
 9185              	.LVL1271:
 9186 0558 0246     		mov	r2, r0
 9187 055a 0B46     		mov	r3, r1
 9188 055c 4046     		mov	r0, r8
 9189 055e 4946     		mov	r1, r9
 9190 0560 D847     		blx	fp
 9191              	.LVL1272:
 9192 0562 50AB     		add	r3, sp, #320
 9193 0564 C3E90001 		strd	r0, [r3]
1206:/home/tienluong/workspace/atlantis_fw/AsicFwS2/include/matrix.h ****         dst[13] -= tmp[5] * mat[0] + tmp[8] * mat[1] + tmp[11] * mat[2];
 9194              		.loc 2 1206 0
 9195 0568 DDE90023 		ldrd	r2, [sp]
 9196 056c DDE92801 		ldrd	r0, [sp, #160]
 9197 0570 A047     		blx	r4
 9198              	.LVL1273:
 9199 0572 DDE90223 		ldrd	r2, [sp, #8]
 9200 0576 0646     		mov	r6, r0
 9201 0578 0F46     		mov	r7, r1
 9202 057a DDE93201 		ldrd	r0, [sp, #200]
 9203 057e A047     		blx	r4
 9204              	.LVL1274:
 9205 0580 0246     		mov	r2, r0
 9206 0582 0B46     		mov	r3, r1
 9207 0584 3046     		mov	r0, r6
 9208 0586 3946     		mov	r1, r7
 9209 0588 A847     		blx	r5
 9210              	.LVL1275:
 9211 058a 0646     		mov	r6, r0
 9212 058c 0F46     		mov	r7, r1
 9213 058e DDE93401 		ldrd	r0, [sp, #208]
 9214 0592 DDE90423 		ldrd	r2, [sp, #16]
 9215 0596 A047     		blx	r4
 9216              	.LVL1276:
 9217 0598 0246     		mov	r2, r0
 9218 059a 0B46     		mov	r3, r1
 9219 059c 3046     		mov	r0, r6
 9220 059e 3946     		mov	r1, r7
 9221 05a0 A847     		blx	r5
 9222              	.LVL1277:
1207:/home/tienluong/workspace/atlantis_fw/AsicFwS2/include/matrix.h **** 
 9223              		.loc 2 1207 0
 9224 05a2 DDE90023 		ldrd	r2, [sp]
1206:/home/tienluong/workspace/atlantis_fw/AsicFwS2/include/matrix.h ****         dst[13] -= tmp[5] * mat[0] + tmp[8] * mat[1] + tmp[11] * mat[2];
 9225              		.loc 2 1206 0
 9226 05a6 8046     		mov	r8, r0
 9227 05a8 8946     		mov	r9, r1
1207:/home/tienluong/workspace/atlantis_fw/AsicFwS2/include/matrix.h **** 
 9228              		.loc 2 1207 0
 9229 05aa DDE92A01 		ldrd	r0, [sp, #168]
 9230 05ae A047     		blx	r4
 9231              	.LVL1278:
 9232 05b0 DDE90223 		ldrd	r2, [sp, #8]
 9233 05b4 0646     		mov	r6, r0
 9234 05b6 0F46     		mov	r7, r1
 9235 05b8 DDE93001 		ldrd	r0, [sp, #192]
 9236 05bc A047     		blx	r4
 9237              	.LVL1279:
 9238 05be 0246     		mov	r2, r0
 9239 05c0 0B46     		mov	r3, r1
 9240 05c2 3046     		mov	r0, r6
 9241 05c4 3946     		mov	r1, r7
 9242 05c6 A847     		blx	r5
 9243              	.LVL1280:
 9244 05c8 DDE90423 		ldrd	r2, [sp, #16]
 9245 05cc 0646     		mov	r6, r0
 9246 05ce 0F46     		mov	r7, r1
 9247 05d0 DDE93601 		ldrd	r0, [sp, #216]
 9248 05d4 A047     		blx	r4
 9249              	.LVL1281:
 9250 05d6 0246     		mov	r2, r0
 9251 05d8 0B46     		mov	r3, r1
 9252 05da 3046     		mov	r0, r6
 9253 05dc 3946     		mov	r1, r7
 9254 05de A847     		blx	r5
 9255              	.LVL1282:
 9256 05e0 0246     		mov	r2, r0
 9257 05e2 0B46     		mov	r3, r1
 9258 05e4 4046     		mov	r0, r8
 9259 05e6 4946     		mov	r1, r9
 9260 05e8 D847     		blx	fp
 9261              	.LVL1283:
 9262 05ea 58AB     		add	r3, sp, #352
 9263 05ec C3E90001 		strd	r0, [r3]
1210:/home/tienluong/workspace/atlantis_fw/AsicFwS2/include/matrix.h ****         tmp[1] = mat[3] * mat[6];
 9264              		.loc 2 1210 0
 9265 05f0 DDE91C23 		ldrd	r2, [sp, #112]
 9266 05f4 DDE90401 		ldrd	r0, [sp, #16]
 9267 05f8 A047     		blx	r4
 9268              	.LVL1284:
1211:/home/tienluong/workspace/atlantis_fw/AsicFwS2/include/matrix.h ****         tmp[2] = mat[1] * mat[7];
 9269              		.loc 2 1211 0
 9270 05fa DDE91A23 		ldrd	r2, [sp, #104]
1210:/home/tienluong/workspace/atlantis_fw/AsicFwS2/include/matrix.h ****         tmp[1] = mat[3] * mat[6];
 9271              		.loc 2 1210 0
 9272 05fe CDE92001 		strd	r0, [sp, #128]
 9273              	.LVL1285:
1211:/home/tienluong/workspace/atlantis_fw/AsicFwS2/include/matrix.h ****         tmp[2] = mat[1] * mat[7];
 9274              		.loc 2 1211 0
 9275 0602 DDE90601 		ldrd	r0, [sp, #24]
 9276              	.LVL1286:
 9277 0606 A047     		blx	r4
 9278              	.LVL1287:
1212:/home/tienluong/workspace/atlantis_fw/AsicFwS2/include/matrix.h ****         tmp[3] = mat[3] * mat[5];
 9279              		.loc 2 1212 0
 9280 0608 DDE91C23 		ldrd	r2, [sp, #112]
1211:/home/tienluong/workspace/atlantis_fw/AsicFwS2/include/matrix.h ****         tmp[2] = mat[1] * mat[7];
 9281              		.loc 2 1211 0
 9282 060c CDE92201 		strd	r0, [sp, #136]
 9283              	.LVL1288:
1212:/home/tienluong/workspace/atlantis_fw/AsicFwS2/include/matrix.h ****         tmp[3] = mat[3] * mat[5];
 9284              		.loc 2 1212 0
 9285 0610 DDE90201 		ldrd	r0, [sp, #8]
 9286              	.LVL1289:
 9287 0614 A047     		blx	r4
 9288              	.LVL1290:
1213:/home/tienluong/workspace/atlantis_fw/AsicFwS2/include/matrix.h ****         tmp[4] = mat[1] * mat[6];
 9289              		.loc 2 1213 0
 9290 0616 DDE91823 		ldrd	r2, [sp, #96]
1212:/home/tienluong/workspace/atlantis_fw/AsicFwS2/include/matrix.h ****         tmp[3] = mat[3] * mat[5];
 9291              		.loc 2 1212 0
 9292 061a CDE92401 		strd	r0, [sp, #144]
 9293              	.LVL1291:
1213:/home/tienluong/workspace/atlantis_fw/AsicFwS2/include/matrix.h ****         tmp[4] = mat[1] * mat[6];
 9294              		.loc 2 1213 0
 9295 061e DDE90601 		ldrd	r0, [sp, #24]
 9296              	.LVL1292:
 9297 0622 A047     		blx	r4
 9298              	.LVL1293:
1214:/home/tienluong/workspace/atlantis_fw/AsicFwS2/include/matrix.h ****         tmp[5] = mat[2] * mat[5];
 9299              		.loc 2 1214 0
 9300 0624 DDE91A23 		ldrd	r2, [sp, #104]
1213:/home/tienluong/workspace/atlantis_fw/AsicFwS2/include/matrix.h ****         tmp[4] = mat[1] * mat[6];
 9301              		.loc 2 1213 0
 9302 0628 CDE92601 		strd	r0, [sp, #152]
 9303              	.LVL1294:
1214:/home/tienluong/workspace/atlantis_fw/AsicFwS2/include/matrix.h ****         tmp[5] = mat[2] * mat[5];
 9304              		.loc 2 1214 0
 9305 062c DDE90201 		ldrd	r0, [sp, #8]
 9306              	.LVL1295:
 9307 0630 A047     		blx	r4
 9308              	.LVL1296:
1215:/home/tienluong/workspace/atlantis_fw/AsicFwS2/include/matrix.h ****         tmp[6] = mat[0] * mat[7];
 9309              		.loc 2 1215 0
 9310 0632 DDE91823 		ldrd	r2, [sp, #96]
 9311 0636 03E0     		b	.L258
 9312              	.L259:
 9313              		.align	2
 9314              	.L257:
 9315 0638 00000000 		.word	__aeabi_ddiv
 9316 063c 0000F03F 		.word	1072693248
 9317              	.L258:
1214:/home/tienluong/workspace/atlantis_fw/AsicFwS2/include/matrix.h ****         tmp[5] = mat[2] * mat[5];
 9318              		.loc 2 1214 0
 9319 0640 CDE92801 		strd	r0, [sp, #160]
1215:/home/tienluong/workspace/atlantis_fw/AsicFwS2/include/matrix.h ****         tmp[6] = mat[0] * mat[7];
 9320              		.loc 2 1215 0
 9321 0644 DDE90401 		ldrd	r0, [sp, #16]
 9322 0648 A047     		blx	r4
 9323              	.LVL1297:
1216:/home/tienluong/workspace/atlantis_fw/AsicFwS2/include/matrix.h ****         tmp[7] = mat[3] * mat[4];
 9324              		.loc 2 1216 0
 9325 064a DDE91C23 		ldrd	r2, [sp, #112]
1215:/home/tienluong/workspace/atlantis_fw/AsicFwS2/include/matrix.h ****         tmp[6] = mat[0] * mat[7];
 9326              		.loc 2 1215 0
 9327 064e CDE92A01 		strd	r0, [sp, #168]
1216:/home/tienluong/workspace/atlantis_fw/AsicFwS2/include/matrix.h ****         tmp[7] = mat[3] * mat[4];
 9328              		.loc 2 1216 0
 9329 0652 DDE90001 		ldrd	r0, [sp]
 9330 0656 A047     		blx	r4
 9331              	.LVL1298:
1217:/home/tienluong/workspace/atlantis_fw/AsicFwS2/include/matrix.h ****         tmp[8] = mat[0] * mat[6];
 9332              		.loc 2 1217 0
 9333 0658 DDE91E23 		ldrd	r2, [sp, #120]
1216:/home/tienluong/workspace/atlantis_fw/AsicFwS2/include/matrix.h ****         tmp[7] = mat[3] * mat[4];
 9334              		.loc 2 1216 0
 9335 065c CDE91C01 		strd	r0, [sp, #112]
1217:/home/tienluong/workspace/atlantis_fw/AsicFwS2/include/matrix.h ****         tmp[8] = mat[0] * mat[6];
 9336              		.loc 2 1217 0
 9337 0660 DDE90601 		ldrd	r0, [sp, #24]
 9338 0664 A047     		blx	r4
 9339              	.LVL1299:
1218:/home/tienluong/workspace/atlantis_fw/AsicFwS2/include/matrix.h ****         tmp[9] = mat[2] * mat[4];
 9340              		.loc 2 1218 0
 9341 0666 DDE91A23 		ldrd	r2, [sp, #104]
1217:/home/tienluong/workspace/atlantis_fw/AsicFwS2/include/matrix.h ****         tmp[8] = mat[0] * mat[6];
 9342              		.loc 2 1217 0
 9343 066a CDE90601 		strd	r0, [sp, #24]
1218:/home/tienluong/workspace/atlantis_fw/AsicFwS2/include/matrix.h ****         tmp[9] = mat[2] * mat[4];
 9344              		.loc 2 1218 0
 9345 066e DDE90001 		ldrd	r0, [sp]
 9346 0672 A047     		blx	r4
 9347              	.LVL1300:
1219:/home/tienluong/workspace/atlantis_fw/AsicFwS2/include/matrix.h ****         tmp[10] = mat[0] * mat[5];
 9348              		.loc 2 1219 0
 9349 0674 DDE91E23 		ldrd	r2, [sp, #120]
1218:/home/tienluong/workspace/atlantis_fw/AsicFwS2/include/matrix.h ****         tmp[9] = mat[2] * mat[4];
 9350              		.loc 2 1218 0
 9351 0678 CDE91A01 		strd	r0, [sp, #104]
1219:/home/tienluong/workspace/atlantis_fw/AsicFwS2/include/matrix.h ****         tmp[10] = mat[0] * mat[5];
 9352              		.loc 2 1219 0
 9353 067c DDE90401 		ldrd	r0, [sp, #16]
 9354 0680 A047     		blx	r4
 9355              	.LVL1301:
1220:/home/tienluong/workspace/atlantis_fw/AsicFwS2/include/matrix.h ****         tmp[11] = mat[1] * mat[4];
 9356              		.loc 2 1220 0
 9357 0682 DDE91823 		ldrd	r2, [sp, #96]
1219:/home/tienluong/workspace/atlantis_fw/AsicFwS2/include/matrix.h ****         tmp[10] = mat[0] * mat[5];
 9358              		.loc 2 1219 0
 9359 0686 CDE90401 		strd	r0, [sp, #16]
1220:/home/tienluong/workspace/atlantis_fw/AsicFwS2/include/matrix.h ****         tmp[11] = mat[1] * mat[4];
 9360              		.loc 2 1220 0
 9361 068a DDE90001 		ldrd	r0, [sp]
 9362 068e A047     		blx	r4
 9363              	.LVL1302:
1221:/home/tienluong/workspace/atlantis_fw/AsicFwS2/include/matrix.h **** 
 9364              		.loc 2 1221 0
 9365 0690 DDE91E23 		ldrd	r2, [sp, #120]
1220:/home/tienluong/workspace/atlantis_fw/AsicFwS2/include/matrix.h ****         tmp[11] = mat[1] * mat[4];
 9366              		.loc 2 1220 0
 9367 0694 CDE90001 		strd	r0, [sp]
1221:/home/tienluong/workspace/atlantis_fw/AsicFwS2/include/matrix.h **** 
 9368              		.loc 2 1221 0
 9369 0698 DDE90201 		ldrd	r0, [sp, #8]
 9370 069c A047     		blx	r4
 9371              	.LVL1303:
1224:/home/tienluong/workspace/atlantis_fw/AsicFwS2/include/matrix.h ****         dst[2]  -= tmp[1]  * mat[13] + tmp[2]  * mat[14] + tmp[5]  * mat[15];
 9372              		.loc 2 1224 0
 9373 069e DDE91223 		ldrd	r2, [sp, #72]
1221:/home/tienluong/workspace/atlantis_fw/AsicFwS2/include/matrix.h **** 
 9374              		.loc 2 1221 0
 9375 06a2 CDE90201 		strd	r0, [sp, #8]
1224:/home/tienluong/workspace/atlantis_fw/AsicFwS2/include/matrix.h ****         dst[2]  -= tmp[1]  * mat[13] + tmp[2]  * mat[14] + tmp[5]  * mat[15];
 9376              		.loc 2 1224 0
 9377 06a6 DDE92001 		ldrd	r0, [sp, #128]
 9378 06aa A047     		blx	r4
 9379              	.LVL1304:
 9380 06ac DDE90E23 		ldrd	r2, [sp, #56]
 9381 06b0 0646     		mov	r6, r0
 9382 06b2 0F46     		mov	r7, r1
 9383 06b4 DDE92601 		ldrd	r0, [sp, #152]
 9384 06b8 A047     		blx	r4
 9385              	.LVL1305:
 9386 06ba 0246     		mov	r2, r0
 9387 06bc 0B46     		mov	r3, r1
 9388 06be 3046     		mov	r0, r6
 9389 06c0 3946     		mov	r1, r7
 9390 06c2 A847     		blx	r5
 9391              	.LVL1306:
 9392 06c4 DDE90A23 		ldrd	r2, [sp, #40]
 9393 06c8 0646     		mov	r6, r0
 9394 06ca 0F46     		mov	r7, r1
 9395 06cc DDE92801 		ldrd	r0, [sp, #160]
 9396 06d0 A047     		blx	r4
 9397              	.LVL1307:
 9398 06d2 0246     		mov	r2, r0
 9399 06d4 0B46     		mov	r3, r1
 9400 06d6 3046     		mov	r0, r6
 9401 06d8 3946     		mov	r1, r7
 9402 06da A847     		blx	r5
 9403              	.LVL1308:
1225:/home/tienluong/workspace/atlantis_fw/AsicFwS2/include/matrix.h ****         dst[3]   = tmp[2]  * mat[10] + tmp[5]  * mat[11] + tmp[1]  * mat[9];
 9404              		.loc 2 1225 0
 9405 06dc DDE91223 		ldrd	r2, [sp, #72]
1224:/home/tienluong/workspace/atlantis_fw/AsicFwS2/include/matrix.h ****         dst[2]  -= tmp[1]  * mat[13] + tmp[2]  * mat[14] + tmp[5]  * mat[15];
 9406              		.loc 2 1224 0
 9407 06e0 8046     		mov	r8, r0
 9408 06e2 8946     		mov	r9, r1
1225:/home/tienluong/workspace/atlantis_fw/AsicFwS2/include/matrix.h ****         dst[3]   = tmp[2]  * mat[10] + tmp[5]  * mat[11] + tmp[1]  * mat[9];
 9409              		.loc 2 1225 0
 9410 06e4 DDE92201 		ldrd	r0, [sp, #136]
 9411 06e8 A047     		blx	r4
 9412              	.LVL1309:
 9413 06ea 0646     		mov	r6, r0
 9414 06ec 0F46     		mov	r7, r1
 9415 06ee DDE92401 		ldrd	r0, [sp, #144]
 9416 06f2 DDE90E23 		ldrd	r2, [sp, #56]
 9417 06f6 A047     		blx	r4
 9418              	.LVL1310:
 9419 06f8 0246     		mov	r2, r0
 9420 06fa 0B46     		mov	r3, r1
 9421 06fc 3046     		mov	r0, r6
 9422 06fe 3946     		mov	r1, r7
 9423 0700 A847     		blx	r5
 9424              	.LVL1311:
 9425 0702 DDE90A23 		ldrd	r2, [sp, #40]
 9426 0706 0646     		mov	r6, r0
 9427 0708 0F46     		mov	r7, r1
 9428 070a DDE92A01 		ldrd	r0, [sp, #168]
 9429 070e A047     		blx	r4
 9430              	.LVL1312:
 9431 0710 0246     		mov	r2, r0
 9432 0712 0B46     		mov	r3, r1
 9433 0714 3046     		mov	r0, r6
 9434 0716 3946     		mov	r1, r7
 9435 0718 A847     		blx	r5
 9436              	.LVL1313:
 9437 071a 0246     		mov	r2, r0
 9438 071c 0B46     		mov	r3, r1
 9439 071e 4046     		mov	r0, r8
 9440 0720 4946     		mov	r1, r9
 9441 0722 D847     		blx	fp
 9442              	.LVL1314:
 9443 0724 42AB     		add	r3, sp, #264
 9444 0726 C3E90001 		strd	r0, [r3]
1226:/home/tienluong/workspace/atlantis_fw/AsicFwS2/include/matrix.h ****         dst[3]  -= tmp[4]  * mat[11] + tmp[0]  * mat[9]  + tmp[3]  * mat[10];
 9445              		.loc 2 1226 0
 9446 072a DDE90823 		ldrd	r2, [sp, #32]
 9447 072e DDE92401 		ldrd	r0, [sp, #144]
 9448 0732 A047     		blx	r4
 9449              	.LVL1315:
 9450 0734 DDE90C23 		ldrd	r2, [sp, #48]
 9451 0738 0646     		mov	r6, r0
 9452 073a 0F46     		mov	r7, r1
 9453 073c DDE92A01 		ldrd	r0, [sp, #168]
 9454 0740 A047     		blx	r4
 9455              	.LVL1316:
 9456 0742 0246     		mov	r2, r0
 9457 0744 0B46     		mov	r3, r1
 9458 0746 3046     		mov	r0, r6
 9459 0748 3946     		mov	r1, r7
 9460 074a A847     		blx	r5
 9461              	.LVL1317:
 9462 074c DDE91023 		ldrd	r2, [sp, #64]
 9463 0750 0646     		mov	r6, r0
 9464 0752 0F46     		mov	r7, r1
 9465 0754 DDE92201 		ldrd	r0, [sp, #136]
 9466 0758 A047     		blx	r4
 9467              	.LVL1318:
 9468 075a 0246     		mov	r2, r0
 9469 075c 0B46     		mov	r3, r1
 9470 075e 3046     		mov	r0, r6
 9471 0760 3946     		mov	r1, r7
 9472 0762 A847     		blx	r5
 9473              	.LVL1319:
1227:/home/tienluong/workspace/atlantis_fw/AsicFwS2/include/matrix.h ****         dst[6]   = tmp[1]  * mat[12] + tmp[6]  * mat[14] + tmp[9]  * mat[15];
 9474              		.loc 2 1227 0
 9475 0764 DDE90C23 		ldrd	r2, [sp, #48]
1226:/home/tienluong/workspace/atlantis_fw/AsicFwS2/include/matrix.h ****         dst[3]  -= tmp[4]  * mat[11] + tmp[0]  * mat[9]  + tmp[3]  * mat[10];
 9476              		.loc 2 1226 0
 9477 0768 8046     		mov	r8, r0
 9478 076a 8946     		mov	r9, r1
1227:/home/tienluong/workspace/atlantis_fw/AsicFwS2/include/matrix.h ****         dst[6]   = tmp[1]  * mat[12] + tmp[6]  * mat[14] + tmp[9]  * mat[15];
 9479              		.loc 2 1227 0
 9480 076c DDE92801 		ldrd	r0, [sp, #160]
 9481 0770 A047     		blx	r4
 9482              	.LVL1320:
 9483 0772 DDE91023 		ldrd	r2, [sp, #64]
 9484 0776 0646     		mov	r6, r0
 9485 0778 0F46     		mov	r7, r1
 9486 077a DDE92001 		ldrd	r0, [sp, #128]
 9487 077e A047     		blx	r4
 9488              	.LVL1321:
 9489 0780 0246     		mov	r2, r0
 9490 0782 0B46     		mov	r3, r1
 9491 0784 3046     		mov	r0, r6
 9492 0786 3946     		mov	r1, r7
 9493 0788 A847     		blx	r5
 9494              	.LVL1322:
 9495 078a DDE90823 		ldrd	r2, [sp, #32]
 9496 078e 0646     		mov	r6, r0
 9497 0790 0F46     		mov	r7, r1
 9498 0792 DDE92601 		ldrd	r0, [sp, #152]
 9499 0796 A047     		blx	r4
 9500              	.LVL1323:
 9501 0798 0246     		mov	r2, r0
 9502 079a 0B46     		mov	r3, r1
 9503 079c 3046     		mov	r0, r6
 9504 079e 3946     		mov	r1, r7
 9505 07a0 A847     		blx	r5
 9506              	.LVL1324:
 9507 07a2 0246     		mov	r2, r0
 9508 07a4 0B46     		mov	r3, r1
 9509 07a6 4046     		mov	r0, r8
 9510 07a8 4946     		mov	r1, r9
 9511 07aa D847     		blx	fp
 9512              	.LVL1325:
 9513 07ac 44AB     		add	r3, sp, #272
 9514 07ae C3E90001 		strd	r0, [r3]
1228:/home/tienluong/workspace/atlantis_fw/AsicFwS2/include/matrix.h ****         dst[6]  -= tmp[0]  * mat[12] + tmp[7]  * mat[14] + tmp[8]  * mat[15];
 9515              		.loc 2 1228 0
 9516 07b2 DDE92201 		ldrd	r0, [sp, #136]
 9517 07b6 DDE91623 		ldrd	r2, [sp, #88]
 9518 07ba A047     		blx	r4
 9519              	.LVL1326:
 9520 07bc DDE90E23 		ldrd	r2, [sp, #56]
 9521 07c0 0646     		mov	r6, r0
 9522 07c2 0F46     		mov	r7, r1
 9523 07c4 DDE91C01 		ldrd	r0, [sp, #112]
 9524 07c8 A047     		blx	r4
 9525              	.LVL1327:
 9526 07ca 0246     		mov	r2, r0
 9527 07cc 0B46     		mov	r3, r1
 9528 07ce 3046     		mov	r0, r6
 9529 07d0 3946     		mov	r1, r7
 9530 07d2 A847     		blx	r5
 9531              	.LVL1328:
 9532 07d4 DDE90A23 		ldrd	r2, [sp, #40]
 9533 07d8 0646     		mov	r6, r0
 9534 07da 0F46     		mov	r7, r1
 9535 07dc DDE90401 		ldrd	r0, [sp, #16]
 9536 07e0 A047     		blx	r4
 9537              	.LVL1329:
 9538 07e2 0246     		mov	r2, r0
 9539 07e4 0B46     		mov	r3, r1
 9540 07e6 3046     		mov	r0, r6
 9541 07e8 3946     		mov	r1, r7
 9542 07ea A847     		blx	r5
 9543              	.LVL1330:
1229:/home/tienluong/workspace/atlantis_fw/AsicFwS2/include/matrix.h ****         dst[7]   = tmp[8]  * mat[11] + tmp[0]  * mat[8]  + tmp[7]  * mat[10];
 9544              		.loc 2 1229 0
 9545 07ec DDE91623 		ldrd	r2, [sp, #88]
1228:/home/tienluong/workspace/atlantis_fw/AsicFwS2/include/matrix.h ****         dst[6]  -= tmp[0]  * mat[12] + tmp[7]  * mat[14] + tmp[8]  * mat[15];
 9546              		.loc 2 1228 0
 9547 07f0 8046     		mov	r8, r0
 9548 07f2 8946     		mov	r9, r1
1229:/home/tienluong/workspace/atlantis_fw/AsicFwS2/include/matrix.h ****         dst[7]   = tmp[8]  * mat[11] + tmp[0]  * mat[8]  + tmp[7]  * mat[10];
 9549              		.loc 2 1229 0
 9550 07f4 DDE92001 		ldrd	r0, [sp, #128]
 9551 07f8 A047     		blx	r4
 9552              	.LVL1331:
 9553 07fa DDE90E23 		ldrd	r2, [sp, #56]
 9554 07fe 0646     		mov	r6, r0
 9555 0800 0F46     		mov	r7, r1
 9556 0802 DDE90601 		ldrd	r0, [sp, #24]
 9557 0806 A047     		blx	r4
 9558              	.LVL1332:
 9559 0808 0246     		mov	r2, r0
 9560 080a 0B46     		mov	r3, r1
 9561 080c 3046     		mov	r0, r6
 9562 080e 3946     		mov	r1, r7
 9563 0810 A847     		blx	r5
 9564              	.LVL1333:
 9565 0812 DDE90A23 		ldrd	r2, [sp, #40]
 9566 0816 0646     		mov	r6, r0
 9567 0818 0F46     		mov	r7, r1
 9568 081a DDE91A01 		ldrd	r0, [sp, #104]
 9569 081e A047     		blx	r4
 9570              	.LVL1334:
 9571 0820 0246     		mov	r2, r0
 9572 0822 0B46     		mov	r3, r1
 9573 0824 3046     		mov	r0, r6
 9574 0826 3946     		mov	r1, r7
 9575 0828 A847     		blx	r5
 9576              	.LVL1335:
 9577 082a 0246     		mov	r2, r0
 9578 082c 0B46     		mov	r3, r1
 9579 082e 4046     		mov	r0, r8
 9580 0830 4946     		mov	r1, r9
 9581 0832 D847     		blx	fp
 9582              	.LVL1336:
 9583 0834 4AAB     		add	r3, sp, #296
 9584 0836 C3E90001 		strd	r0, [r3]
1230:/home/tienluong/workspace/atlantis_fw/AsicFwS2/include/matrix.h ****         dst[7]  -= tmp[6]  * mat[10] + tmp[9]  * mat[11] + tmp[1]  * mat[8];
 9585              		.loc 2 1230 0
 9586 083a DDE90C23 		ldrd	r2, [sp, #48]
 9587 083e DDE91A01 		ldrd	r0, [sp, #104]
 9588 0842 A047     		blx	r4
 9589              	.LVL1337:
 9590 0844 DDE91423 		ldrd	r2, [sp, #80]
 9591 0848 0646     		mov	r6, r0
 9592 084a 0F46     		mov	r7, r1
 9593 084c DDE92001 		ldrd	r0, [sp, #128]
 9594 0850 A047     		blx	r4
 9595              	.LVL1338:
 9596 0852 0246     		mov	r2, r0
 9597 0854 0B46     		mov	r3, r1
 9598 0856 3046     		mov	r0, r6
 9599 0858 3946     		mov	r1, r7
 9600 085a A847     		blx	r5
 9601              	.LVL1339:
 9602 085c DDE90823 		ldrd	r2, [sp, #32]
 9603 0860 0646     		mov	r6, r0
 9604 0862 0F46     		mov	r7, r1
 9605 0864 DDE90601 		ldrd	r0, [sp, #24]
 9606 0868 A047     		blx	r4
 9607              	.LVL1340:
 9608 086a 0246     		mov	r2, r0
 9609 086c 0B46     		mov	r3, r1
 9610 086e 3046     		mov	r0, r6
 9611 0870 3946     		mov	r1, r7
 9612 0872 A847     		blx	r5
 9613              	.LVL1341:
1231:/home/tienluong/workspace/atlantis_fw/AsicFwS2/include/matrix.h ****         dst[10]  = tmp[2]  * mat[12] + tmp[7]  * mat[13] + tmp[10] * mat[15];
 9614              		.loc 2 1231 0
 9615 0874 DDE90823 		ldrd	r2, [sp, #32]
1230:/home/tienluong/workspace/atlantis_fw/AsicFwS2/include/matrix.h ****         dst[7]  -= tmp[6]  * mat[10] + tmp[9]  * mat[11] + tmp[1]  * mat[8];
 9616              		.loc 2 1230 0
 9617 0878 8046     		mov	r8, r0
 9618 087a 8946     		mov	r9, r1
1231:/home/tienluong/workspace/atlantis_fw/AsicFwS2/include/matrix.h ****         dst[10]  = tmp[2]  * mat[12] + tmp[7]  * mat[13] + tmp[10] * mat[15];
 9619              		.loc 2 1231 0
 9620 087c DDE91C01 		ldrd	r0, [sp, #112]
 9621 0880 A047     		blx	r4
 9622              	.LVL1342:
 9623 0882 DDE90C23 		ldrd	r2, [sp, #48]
 9624 0886 0646     		mov	r6, r0
 9625 0888 0F46     		mov	r7, r1
 9626 088a DDE90401 		ldrd	r0, [sp, #16]
 9627 088e A047     		blx	r4
 9628              	.LVL1343:
 9629 0890 0246     		mov	r2, r0
 9630 0892 0B46     		mov	r3, r1
 9631 0894 3046     		mov	r0, r6
 9632 0896 3946     		mov	r1, r7
 9633 0898 A847     		blx	r5
 9634              	.LVL1344:
 9635 089a DDE91423 		ldrd	r2, [sp, #80]
 9636 089e 0646     		mov	r6, r0
 9637 08a0 0F46     		mov	r7, r1
 9638 08a2 DDE92201 		ldrd	r0, [sp, #136]
 9639 08a6 A047     		blx	r4
 9640              	.LVL1345:
 9641 08a8 0246     		mov	r2, r0
 9642 08aa 0B46     		mov	r3, r1
 9643 08ac 3046     		mov	r0, r6
 9644 08ae 3946     		mov	r1, r7
 9645 08b0 A847     		blx	r5
 9646              	.LVL1346:
 9647 08b2 0246     		mov	r2, r0
 9648 08b4 0B46     		mov	r3, r1
 9649 08b6 4046     		mov	r0, r8
 9650 08b8 4946     		mov	r1, r9
 9651 08ba D847     		blx	fp
 9652              	.LVL1347:
 9653 08bc 4CAB     		add	r3, sp, #304
 9654 08be C3E90001 		strd	r0, [r3]
1232:/home/tienluong/workspace/atlantis_fw/AsicFwS2/include/matrix.h ****         dst[10] -= tmp[3]  * mat[12] + tmp[6]  * mat[13] + tmp[11] * mat[15];
 9655              		.loc 2 1232 0
 9656 08c2 DDE91623 		ldrd	r2, [sp, #88]
 9657 08c6 DDE92401 		ldrd	r0, [sp, #144]
 9658 08ca A047     		blx	r4
 9659              	.LVL1348:
 9660 08cc DDE91223 		ldrd	r2, [sp, #72]
 9661 08d0 0646     		mov	r6, r0
 9662 08d2 0F46     		mov	r7, r1
 9663 08d4 DDE90601 		ldrd	r0, [sp, #24]
 9664 08d8 A047     		blx	r4
 9665              	.LVL1349:
 9666 08da 0246     		mov	r2, r0
 9667 08dc 0B46     		mov	r3, r1
 9668 08de 3046     		mov	r0, r6
 9669 08e0 3946     		mov	r1, r7
 9670 08e2 A847     		blx	r5
 9671              	.LVL1350:
 9672 08e4 DDE90A23 		ldrd	r2, [sp, #40]
 9673 08e8 0646     		mov	r6, r0
 9674 08ea 0F46     		mov	r7, r1
 9675 08ec DDE90001 		ldrd	r0, [sp]
 9676 08f0 A047     		blx	r4
 9677              	.LVL1351:
 9678 08f2 0246     		mov	r2, r0
 9679 08f4 0B46     		mov	r3, r1
 9680 08f6 3046     		mov	r0, r6
 9681 08f8 3946     		mov	r1, r7
 9682 08fa A847     		blx	r5
 9683              	.LVL1352:
1233:/home/tienluong/workspace/atlantis_fw/AsicFwS2/include/matrix.h ****         dst[11]  = tmp[6]  * mat[9]  + tmp[11] * mat[11] + tmp[3]  * mat[8];
 9684              		.loc 2 1233 0
 9685 08fc DDE91623 		ldrd	r2, [sp, #88]
1232:/home/tienluong/workspace/atlantis_fw/AsicFwS2/include/matrix.h ****         dst[10] -= tmp[3]  * mat[12] + tmp[6]  * mat[13] + tmp[11] * mat[15];
 9686              		.loc 2 1232 0
 9687 0900 8046     		mov	r8, r0
 9688 0902 8946     		mov	r9, r1
1233:/home/tienluong/workspace/atlantis_fw/AsicFwS2/include/matrix.h ****         dst[11]  = tmp[6]  * mat[9]  + tmp[11] * mat[11] + tmp[3]  * mat[8];
 9689              		.loc 2 1233 0
 9690 0904 DDE92601 		ldrd	r0, [sp, #152]
 9691 0908 A047     		blx	r4
 9692              	.LVL1353:
 9693 090a DDE91223 		ldrd	r2, [sp, #72]
 9694 090e 0646     		mov	r6, r0
 9695 0910 0F46     		mov	r7, r1
 9696 0912 DDE91C01 		ldrd	r0, [sp, #112]
 9697 0916 A047     		blx	r4
 9698              	.LVL1354:
 9699 0918 0246     		mov	r2, r0
 9700 091a 0B46     		mov	r3, r1
 9701 091c 3046     		mov	r0, r6
 9702 091e 3946     		mov	r1, r7
 9703 0920 A847     		blx	r5
 9704              	.LVL1355:
 9705 0922 DDE90A23 		ldrd	r2, [sp, #40]
 9706 0926 0646     		mov	r6, r0
 9707 0928 0F46     		mov	r7, r1
 9708 092a DDE90201 		ldrd	r0, [sp, #8]
 9709 092e A047     		blx	r4
 9710              	.LVL1356:
 9711 0930 0246     		mov	r2, r0
 9712 0932 0B46     		mov	r3, r1
 9713 0934 3046     		mov	r0, r6
 9714 0936 3946     		mov	r1, r7
 9715 0938 A847     		blx	r5
 9716              	.LVL1357:
 9717 093a 0246     		mov	r2, r0
 9718 093c 0B46     		mov	r3, r1
 9719 093e 4046     		mov	r0, r8
 9720 0940 4946     		mov	r1, r9
 9721 0942 D847     		blx	fp
 9722              	.LVL1358:
 9723 0944 52AB     		add	r3, sp, #328
 9724 0946 C3E90001 		strd	r0, [r3]
1234:/home/tienluong/workspace/atlantis_fw/AsicFwS2/include/matrix.h ****         dst[11] -= tmp[10] * mat[11] + tmp[2]  * mat[8]  + tmp[7]  * mat[9];
 9725              		.loc 2 1234 0
 9726 094a DDE91023 		ldrd	r2, [sp, #64]
 9727 094e DDE91C01 		ldrd	r0, [sp, #112]
 9728 0952 A047     		blx	r4
 9729              	.LVL1359:
 9730 0954 DDE90C23 		ldrd	r2, [sp, #48]
 9731 0958 0646     		mov	r6, r0
 9732 095a 0F46     		mov	r7, r1
 9733 095c DDE90201 		ldrd	r0, [sp, #8]
 9734 0960 A047     		blx	r4
 9735              	.LVL1360:
 9736 0962 0246     		mov	r2, r0
 9737 0964 0B46     		mov	r3, r1
 9738 0966 3046     		mov	r0, r6
 9739 0968 3946     		mov	r1, r7
 9740 096a A847     		blx	r5
 9741              	.LVL1361:
 9742 096c DDE91423 		ldrd	r2, [sp, #80]
 9743 0970 0646     		mov	r6, r0
 9744 0972 0F46     		mov	r7, r1
 9745 0974 DDE92601 		ldrd	r0, [sp, #152]
 9746 0978 A047     		blx	r4
 9747              	.LVL1362:
 9748 097a 0246     		mov	r2, r0
 9749 097c 0B46     		mov	r3, r1
 9750 097e 3046     		mov	r0, r6
 9751 0980 3946     		mov	r1, r7
 9752 0982 A847     		blx	r5
 9753              	.LVL1363:
1235:/home/tienluong/workspace/atlantis_fw/AsicFwS2/include/matrix.h ****         dst[14]  = tmp[5]  * mat[12] + tmp[8]  * mat[13] + tmp[11] * mat[14];
 9754              		.loc 2 1235 0
 9755 0984 DDE90C23 		ldrd	r2, [sp, #48]
1234:/home/tienluong/workspace/atlantis_fw/AsicFwS2/include/matrix.h ****         dst[11] -= tmp[10] * mat[11] + tmp[2]  * mat[8]  + tmp[7]  * mat[9];
 9756              		.loc 2 1234 0
 9757 0988 8046     		mov	r8, r0
 9758 098a 8946     		mov	r9, r1
1235:/home/tienluong/workspace/atlantis_fw/AsicFwS2/include/matrix.h ****         dst[14]  = tmp[5]  * mat[12] + tmp[8]  * mat[13] + tmp[11] * mat[14];
 9759              		.loc 2 1235 0
 9760 098c DDE90001 		ldrd	r0, [sp]
 9761 0990 A047     		blx	r4
 9762              	.LVL1364:
 9763 0992 DDE91423 		ldrd	r2, [sp, #80]
 9764 0996 0646     		mov	r6, r0
 9765 0998 0F46     		mov	r7, r1
 9766 099a DDE92401 		ldrd	r0, [sp, #144]
 9767 099e A047     		blx	r4
 9768              	.LVL1365:
 9769 09a0 0246     		mov	r2, r0
 9770 09a2 0B46     		mov	r3, r1
 9771 09a4 3046     		mov	r0, r6
 9772 09a6 3946     		mov	r1, r7
 9773 09a8 A847     		blx	r5
 9774              	.LVL1366:
 9775 09aa DDE91023 		ldrd	r2, [sp, #64]
 9776 09ae 0646     		mov	r6, r0
 9777 09b0 0F46     		mov	r7, r1
 9778 09b2 DDE90601 		ldrd	r0, [sp, #24]
 9779 09b6 A047     		blx	r4
 9780              	.LVL1367:
 9781 09b8 0246     		mov	r2, r0
 9782 09ba 0B46     		mov	r3, r1
 9783 09bc 3046     		mov	r0, r6
 9784 09be 3946     		mov	r1, r7
 9785 09c0 A847     		blx	r5
 9786              	.LVL1368:
 9787 09c2 0246     		mov	r2, r0
 9788 09c4 0B46     		mov	r3, r1
 9789 09c6 4046     		mov	r0, r8
 9790 09c8 4946     		mov	r1, r9
 9791 09ca D847     		blx	fp
 9792              	.LVL1369:
 9793 09cc 54AB     		add	r3, sp, #336
 9794 09ce C3E90001 		strd	r0, [r3]
1236:/home/tienluong/workspace/atlantis_fw/AsicFwS2/include/matrix.h ****         dst[14] -= tmp[4]  * mat[12] + tmp[9]  * mat[13] + tmp[10] * mat[14];
 9795              		.loc 2 1236 0
 9796 09d2 DDE91623 		ldrd	r2, [sp, #88]
 9797 09d6 DDE92A01 		ldrd	r0, [sp, #168]
 9798 09da A047     		blx	r4
 9799              	.LVL1370:
 9800 09dc DDE91223 		ldrd	r2, [sp, #72]
 9801 09e0 0646     		mov	r6, r0
 9802 09e2 0F46     		mov	r7, r1
 9803 09e4 DDE91A01 		ldrd	r0, [sp, #104]
 9804 09e8 A047     		blx	r4
 9805              	.LVL1371:
 9806 09ea 0246     		mov	r2, r0
 9807 09ec 0B46     		mov	r3, r1
 9808 09ee 3046     		mov	r0, r6
 9809 09f0 3946     		mov	r1, r7
 9810 09f2 A847     		blx	r5
 9811              	.LVL1372:
 9812 09f4 0646     		mov	r6, r0
 9813 09f6 0F46     		mov	r7, r1
 9814 09f8 DDE90201 		ldrd	r0, [sp, #8]
 9815 09fc DDE90E23 		ldrd	r2, [sp, #56]
 9816 0a00 A047     		blx	r4
 9817              	.LVL1373:
 9818 0a02 0246     		mov	r2, r0
 9819 0a04 0B46     		mov	r3, r1
 9820 0a06 3046     		mov	r0, r6
 9821 0a08 3946     		mov	r1, r7
 9822 0a0a A847     		blx	r5
 9823              	.LVL1374:
1237:/home/tienluong/workspace/atlantis_fw/AsicFwS2/include/matrix.h ****         dst[15]  = tmp[10] * mat[10] + tmp[4]  * mat[8]  + tmp[9]  * mat[9];
 9824              		.loc 2 1237 0
 9825 0a0c DDE91623 		ldrd	r2, [sp, #88]
1236:/home/tienluong/workspace/atlantis_fw/AsicFwS2/include/matrix.h ****         dst[14] -= tmp[4]  * mat[12] + tmp[9]  * mat[13] + tmp[10] * mat[14];
 9826              		.loc 2 1236 0
 9827 0a10 8046     		mov	r8, r0
 9828 0a12 8946     		mov	r9, r1
1237:/home/tienluong/workspace/atlantis_fw/AsicFwS2/include/matrix.h ****         dst[15]  = tmp[10] * mat[10] + tmp[4]  * mat[8]  + tmp[9]  * mat[9];
 9829              		.loc 2 1237 0
 9830 0a14 DDE92801 		ldrd	r0, [sp, #160]
 9831 0a18 A047     		blx	r4
 9832              	.LVL1375:
 9833 0a1a DDE91223 		ldrd	r2, [sp, #72]
 9834 0a1e 0646     		mov	r6, r0
 9835 0a20 0F46     		mov	r7, r1
 9836 0a22 DDE90401 		ldrd	r0, [sp, #16]
 9837 0a26 A047     		blx	r4
 9838              	.LVL1376:
 9839 0a28 0246     		mov	r2, r0
 9840 0a2a 0B46     		mov	r3, r1
 9841 0a2c 3046     		mov	r0, r6
 9842 0a2e 3946     		mov	r1, r7
 9843 0a30 A847     		blx	r5
 9844              	.LVL1377:
 9845 0a32 DDE90E23 		ldrd	r2, [sp, #56]
 9846 0a36 0646     		mov	r6, r0
 9847 0a38 0F46     		mov	r7, r1
 9848 0a3a DDE90001 		ldrd	r0, [sp]
 9849 0a3e A047     		blx	r4
 9850              	.LVL1378:
 9851 0a40 0246     		mov	r2, r0
 9852 0a42 0B46     		mov	r3, r1
 9853 0a44 3046     		mov	r0, r6
 9854 0a46 3946     		mov	r1, r7
 9855 0a48 A847     		blx	r5
 9856              	.LVL1379:
 9857 0a4a 0246     		mov	r2, r0
 9858 0a4c 0B46     		mov	r3, r1
 9859 0a4e 4046     		mov	r0, r8
 9860 0a50 4946     		mov	r1, r9
 9861 0a52 D847     		blx	fp
 9862              	.LVL1380:
 9863 0a54 5AAB     		add	r3, sp, #360
 9864 0a56 C3E90001 		strd	r0, [r3]
1238:/home/tienluong/workspace/atlantis_fw/AsicFwS2/include/matrix.h ****         dst[15] -= tmp[8]  * mat[9]  + tmp[11] * mat[10] + tmp[5]  * mat[8];
 9865              		.loc 2 1238 0
 9866 0a5a DDE90823 		ldrd	r2, [sp, #32]
 9867 0a5e DDE90001 		ldrd	r0, [sp]
 9868 0a62 A047     		blx	r4
 9869              	.LVL1381:
 9870 0a64 DDE91423 		ldrd	r2, [sp, #80]
 9871 0a68 0646     		mov	r6, r0
 9872 0a6a 0F46     		mov	r7, r1
 9873 0a6c DDE92801 		ldrd	r0, [sp, #160]
 9874 0a70 A047     		blx	r4
 9875              	.LVL1382:
 9876 0a72 0246     		mov	r2, r0
 9877 0a74 0B46     		mov	r3, r1
 9878 0a76 3046     		mov	r0, r6
 9879 0a78 3946     		mov	r1, r7
 9880 0a7a A847     		blx	r5
 9881              	.LVL1383:
 9882 0a7c DDE91023 		ldrd	r2, [sp, #64]
 9883 0a80 0646     		mov	r6, r0
 9884 0a82 0F46     		mov	r7, r1
 9885 0a84 DDE90401 		ldrd	r0, [sp, #16]
 9886 0a88 A047     		blx	r4
 9887              	.LVL1384:
 9888 0a8a 0246     		mov	r2, r0
 9889 0a8c 0B46     		mov	r3, r1
 9890 0a8e 3046     		mov	r0, r6
 9891 0a90 3946     		mov	r1, r7
 9892 0a92 A847     		blx	r5
 9893              	.LVL1385:
1239:/home/tienluong/workspace/atlantis_fw/AsicFwS2/include/matrix.h **** 
 9894              		.loc 2 1239 0
 9895 0a94 DDE91023 		ldrd	r2, [sp, #64]
1238:/home/tienluong/workspace/atlantis_fw/AsicFwS2/include/matrix.h ****         dst[15] -= tmp[8]  * mat[9]  + tmp[11] * mat[10] + tmp[5]  * mat[8];
 9896              		.loc 2 1238 0
 9897 0a98 0646     		mov	r6, r0
 9898 0a9a 0F46     		mov	r7, r1
1239:/home/tienluong/workspace/atlantis_fw/AsicFwS2/include/matrix.h **** 
 9899              		.loc 2 1239 0
 9900 0a9c DDE91A01 		ldrd	r0, [sp, #104]
 9901 0aa0 A047     		blx	r4
 9902              	.LVL1386:
 9903 0aa2 DDE90823 		ldrd	r2, [sp, #32]
 9904 0aa6 8046     		mov	r8, r0
 9905 0aa8 8946     		mov	r9, r1
 9906 0aaa DDE90201 		ldrd	r0, [sp, #8]
 9907 0aae A047     		blx	r4
 9908              	.LVL1387:
 9909 0ab0 0246     		mov	r2, r0
 9910 0ab2 0B46     		mov	r3, r1
 9911 0ab4 4046     		mov	r0, r8
 9912 0ab6 4946     		mov	r1, r9
 9913 0ab8 A847     		blx	r5
 9914              	.LVL1388:
 9915 0aba DDE91423 		ldrd	r2, [sp, #80]
 9916 0abe 8046     		mov	r8, r0
 9917 0ac0 8946     		mov	r9, r1
 9918 0ac2 DDE92A01 		ldrd	r0, [sp, #168]
 9919 0ac6 A047     		blx	r4
 9920              	.LVL1389:
 9921 0ac8 0246     		mov	r2, r0
 9922 0aca 0B46     		mov	r3, r1
 9923 0acc 4046     		mov	r0, r8
 9924 0ace 4946     		mov	r1, r9
 9925 0ad0 A847     		blx	r5
 9926              	.LVL1390:
 9927 0ad2 AAF10805 		sub	r5, r10, #8
 9928 0ad6 0AF1780A 		add	r10, r10, #120
 9929              	.LVL1391:
 9930 0ada 0B46     		mov	r3, r1
 9931 0adc 0246     		mov	r2, r0
 9932 0ade 3946     		mov	r1, r7
 9933 0ae0 3046     		mov	r0, r6
 9934 0ae2 D847     		blx	fp
 9935              	.LVL1392:
 9936 0ae4 3CAE     		add	r6, sp, #240
 9937 0ae6 5CAB     		add	r3, sp, #368
 9938 0ae8 C3E90001 		strd	r0, [r3]
 9939              	.LVL1393:
 9940              	.L252:
 9941              	.LBB2179:
1242:/home/tienluong/workspace/atlantis_fw/AsicFwS2/include/matrix.h ****     }
 9942              		.loc 2 1242 0 discriminator 3
 9943 0aec F6E90201 		ldrd	r0, [r6, #8]!
 9944 0af0 DDE93823 		ldrd	r2, [sp, #224]
 9945 0af4 A047     		blx	r4
 9946              	.LVL1394:
 9947 0af6 E5E90201 		strd	r0, [r5, #8]!
 9948 0afa 5545     		cmp	r5, r10
 9949 0afc F6D1     		bne	.L252
 9950              	.LBE2179:
 9951              	.LBE2180:
1243:/home/tienluong/workspace/atlantis_fw/AsicFwS2/include/matrix.h **** };
 9952              		.loc 2 1243 0
 9953 0afe 5FB0     		add	sp, sp, #380
 9954              	.LCFI79:
 9955              		.cfi_def_cfa_offset 36
 9956              		@ sp needed
 9957 0b00 BDE8F08F 		pop	{r4, r5, r6, r7, r8, r9, r10, fp, pc}
 9958              		.cfi_endproc
 9959              	.LFE3561:
 9961              		.section	.text._ZN4ltaf7inverseIdLi4ELb1EEENS_6MatrixIT_XT0_EXT0_EXT1_EEERKS3_,"axG",%progbits,_ZN
 9962              		.align	1
 9963              		.weak	_ZN4ltaf7inverseIdLi4ELb1EEENS_6MatrixIT_XT0_EXT0_EXT1_EEERKS3_
 9964              		.thumb
 9965              		.thumb_func
 9967              	_ZN4ltaf7inverseIdLi4ELb1EEENS_6MatrixIT_XT0_EXT0_EXT1_EEERKS3_:
 9968              	.LFB3388:
1247:/home/tienluong/workspace/atlantis_fw/AsicFwS2/include/matrix.h **** {
 9969              		.loc 2 1247 0
 9970              		.cfi_startproc
 9971              		@ args = 0, pretend = 0, frame = 8
 9972              		@ frame_needed = 0, uses_anonymous_args = 0
 9973              	.LVL1395:
 9974 0000 13B5     		push	{r0, r1, r4, lr}
 9975              	.LCFI80:
 9976              		.cfi_def_cfa_offset 16
 9977              		.cfi_offset 4, -8
 9978              		.cfi_offset 14, -4
 9979              	.LBB2187:
 9980              	.LBB2188:
 9981              	.LBB2189:
 591:/home/tienluong/workspace/atlantis_fw/AsicFwS2/include/matrix.h **** 
 9982              		.loc 2 591 0
 9983 0002 8022     		movs	r2, #128
 9984              	.LBE2189:
 9985              	.LBE2188:
 9986              	.LBE2187:
1247:/home/tienluong/workspace/atlantis_fw/AsicFwS2/include/matrix.h **** {
 9987              		.loc 2 1247 0
 9988 0004 0446     		mov	r4, r0
 9989              	.LVL1396:
 9990              	.LBB2192:
 9991              	.LBB2191:
 9992              	.LBB2190:
 591:/home/tienluong/workspace/atlantis_fw/AsicFwS2/include/matrix.h **** 
 9993              		.loc 2 591 0
 9994 0006 044B     		ldr	r3, .L261
 9995 0008 9847     		blx	r3
 9996              	.LVL1397:
 9997              	.LBE2190:
 9998              	.LBE2191:
1251:/home/tienluong/workspace/atlantis_fw/AsicFwS2/include/matrix.h ****     return rval;
 9999              		.loc 2 1251 0
 10000 000a 01A8     		add	r0, sp, #4
 10001 000c 2146     		mov	r1, r4
 10002 000e 034B     		ldr	r3, .L261+4
 10003 0010 9847     		blx	r3
 10004              	.LVL1398:
 10005              	.LBE2192:
1253:/home/tienluong/workspace/atlantis_fw/AsicFwS2/include/matrix.h **** 
 10006              		.loc 2 1253 0
 10007 0012 2046     		mov	r0, r4
 10008 0014 02B0     		add	sp, sp, #8
 10009              	.LCFI81:
 10010              		.cfi_def_cfa_offset 8
 10011              		@ sp needed
 10012 0016 10BD     		pop	{r4, pc}
 10013              	.LVL1399:
 10014              	.L262:
 10015              		.align	2
 10016              	.L261:
 10017 0018 00000000 		.word	memcpy
 10018 001c 00000000 		.word	_ZNK4ltaf20SquareMatrixInverterIdLi4EE3runEPd
 10019              		.cfi_endproc
 10020              	.LFE3388:
 10022              		.section	.text._ZN4ltaf7inverseIdLi4ELb0EEENS_6MatrixIT_XT0_EXT0_EXT1_EEERKS3_,"axG",%progbits,_ZN
 10023              		.align	1
 10024              		.weak	_ZN4ltaf7inverseIdLi4ELb0EEENS_6MatrixIT_XT0_EXT0_EXT1_EEERKS3_
 10025              		.thumb
 10026              		.thumb_func
 10028              	_ZN4ltaf7inverseIdLi4ELb0EEENS_6MatrixIT_XT0_EXT0_EXT1_EEERKS3_:
 10029              	.LFB3391:
1247:/home/tienluong/workspace/atlantis_fw/AsicFwS2/include/matrix.h **** {
 10030              		.loc 2 1247 0
 10031              		.cfi_startproc
 10032              		@ args = 0, pretend = 0, frame = 8
 10033              		@ frame_needed = 0, uses_anonymous_args = 0
 10034              	.LVL1400:
 10035 0000 13B5     		push	{r0, r1, r4, lr}
 10036              	.LCFI82:
 10037              		.cfi_def_cfa_offset 16
 10038              		.cfi_offset 4, -8
 10039              		.cfi_offset 14, -4
 10040              	.LBB2199:
 10041              	.LBB2200:
 10042              	.LBB2201:
 593:/home/tienluong/workspace/atlantis_fw/AsicFwS2/include/matrix.h **** 
 10043              		.loc 2 593 0
 10044 0002 8022     		movs	r2, #128
 10045              	.LBE2201:
 10046              	.LBE2200:
 10047              	.LBE2199:
1247:/home/tienluong/workspace/atlantis_fw/AsicFwS2/include/matrix.h **** {
 10048              		.loc 2 1247 0
 10049 0004 0446     		mov	r4, r0
 10050              	.LVL1401:
 10051              	.LBB2204:
 10052              	.LBB2203:
 10053              	.LBB2202:
 593:/home/tienluong/workspace/atlantis_fw/AsicFwS2/include/matrix.h **** 
 10054              		.loc 2 593 0
 10055 0006 044B     		ldr	r3, .L264
 10056 0008 9847     		blx	r3
 10057              	.LVL1402:
 10058              	.LBE2202:
 10059              	.LBE2203:
1251:/home/tienluong/workspace/atlantis_fw/AsicFwS2/include/matrix.h ****     return rval;
 10060              		.loc 2 1251 0
 10061 000a 01A8     		add	r0, sp, #4
 10062 000c 2146     		mov	r1, r4
 10063 000e 034B     		ldr	r3, .L264+4
 10064 0010 9847     		blx	r3
 10065              	.LVL1403:
 10066              	.LBE2204:
1253:/home/tienluong/workspace/atlantis_fw/AsicFwS2/include/matrix.h **** 
 10067              		.loc 2 1253 0
 10068 0012 2046     		mov	r0, r4
 10069 0014 02B0     		add	sp, sp, #8
 10070              	.LCFI83:
 10071              		.cfi_def_cfa_offset 8
 10072              		@ sp needed
 10073 0016 10BD     		pop	{r4, pc}
 10074              	.LVL1404:
 10075              	.L265:
 10076              		.align	2
 10077              	.L264:
 10078 0018 00000000 		.word	memcpy
 10079 001c 00000000 		.word	_ZNK4ltaf20SquareMatrixInverterIdLi4EE3runEPd
 10080              		.cfi_endproc
 10081              	.LFE3391:
 10083              		.global	__aeabi_d2f
 10084              		.section	.text._ZN4ltaf9WarpFieldC2ERKNS_9CalibDataES3_,"ax",%progbits
 10085              		.align	1
 10086              		.global	_ZN4ltaf9WarpFieldC2ERKNS_9CalibDataES3_
 10087              		.thumb
 10088              		.thumb_func
 10090              	_ZN4ltaf9WarpFieldC2ERKNS_9CalibDataES3_:
 10091              	.LFB3332:
  70:/home/tienluong/workspace/atlantis_fw/AsicFwS2/src/calibclasses.cpp ****                       const CalibData & src ){
 10092              		.loc 4 70 0
 10093              		.cfi_startproc
 10094              		@ args = 0, pretend = 0, frame = 1216
 10095              		@ frame_needed = 0, uses_anonymous_args = 0
 10096              	.LVL1405:
 10097 0000 2DE9F043 		push	{r4, r5, r6, r7, r8, r9, lr}
 10098              	.LCFI84:
 10099              		.cfi_def_cfa_offset 28
 10100              		.cfi_offset 4, -28
 10101              		.cfi_offset 5, -24
 10102              		.cfi_offset 6, -20
 10103              		.cfi_offset 7, -16
 10104              		.cfi_offset 8, -12
 10105              		.cfi_offset 9, -8
 10106              		.cfi_offset 14, -4
 10107 0004 8846     		mov	r8, r1
 10108 0006 ADF2C44D 		subw	sp, sp, #1220
 10109              	.LCFI85:
 10110              		.cfi_def_cfa_offset 1248
 10111              	.LBB2249:
 10112              	.LBB2250:
 10113              	.LBB2251:
  62:/home/tienluong/workspace/atlantis_fw/AsicFwS2/src/calibclasses.cpp ****     extrinsic( 0, 3 ) = translation.x();
 10114              		.loc 4 62 0
 10115 000a DFF8FC90 		ldr	r9, .L273+20
 10116 000e 3431     		adds	r1, r1, #52
 10117              	.LVL1406:
 10118              	.LBE2251:
 10119              	.LBE2250:
 10120              	.LBE2249:
  70:/home/tienluong/workspace/atlantis_fw/AsicFwS2/src/calibclasses.cpp ****                       const CalibData & src ){
 10121              		.loc 4 70 0
 10122 0010 0746     		mov	r7, r0
 10123              	.LVL1407:
 10124              	.LBB2275:
 10125              	.LBB2255:
 10126              	.LBB2252:
  62:/home/tienluong/workspace/atlantis_fw/AsicFwS2/src/calibclasses.cpp ****     extrinsic( 0, 3 ) = translation.x();
 10127              		.loc 4 62 0
 10128 0012 10A8     		add	r0, sp, #64
 10129              	.LVL1408:
 10130              	.LBE2252:
 10131              	.LBE2255:
 10132              	.LBE2275:
  70:/home/tienluong/workspace/atlantis_fw/AsicFwS2/src/calibclasses.cpp ****                       const CalibData & src ){
 10133              		.loc 4 70 0
 10134 0014 1646     		mov	r6, r2
 10135              	.LBB2276:
 10136              	.LBB2256:
 10137              	.LBB2253:
  62:/home/tienluong/workspace/atlantis_fw/AsicFwS2/src/calibclasses.cpp ****     extrinsic( 0, 3 ) = translation.x();
 10138              		.loc 4 62 0
 10139 0016 C847     		blx	r9
 10140              	.LVL1409:
  63:/home/tienluong/workspace/atlantis_fw/AsicFwS2/src/calibclasses.cpp ****     extrinsic( 1, 3 ) = translation.y();
 10141              		.loc 4 63 0
 10142 0018 364C     		ldr	r4, .L273
 10143              	.LBE2253:
 10144              	.LBE2256:
 10145              	.LBB2257:
 10146              	.LBB2258:
  62:/home/tienluong/workspace/atlantis_fw/AsicFwS2/src/calibclasses.cpp ****     extrinsic( 0, 3 ) = translation.x();
 10147              		.loc 4 62 0
 10148 001a 30AD     		add	r5, sp, #192
 10149              	.LBE2258:
 10150              	.LBE2257:
 10151              	.LBB2261:
 10152              	.LBB2254:
  63:/home/tienluong/workspace/atlantis_fw/AsicFwS2/src/calibclasses.cpp ****     extrinsic( 1, 3 ) = translation.y();
 10153              		.loc 4 63 0
 10154 001c D8F82800 		ldr	r0, [r8, #40]	@ float
 10155 0020 A047     		blx	r4
 10156              	.LVL1410:
 10157 0022 CDE91601 		strd	r0, [sp, #88]
 10158              	.LVL1411:
  64:/home/tienluong/workspace/atlantis_fw/AsicFwS2/src/calibclasses.cpp ****     extrinsic( 2, 3 ) = translation.z();
 10159              		.loc 4 64 0
 10160 0026 D8F82C00 		ldr	r0, [r8, #44]	@ float
 10161 002a A047     		blx	r4
 10162              	.LVL1412:
 10163 002c CDE91E01 		strd	r0, [sp, #120]
 10164              	.LVL1413:
  65:/home/tienluong/workspace/atlantis_fw/AsicFwS2/src/calibclasses.cpp ****     return extrinsic;
 10165              		.loc 4 65 0
 10166 0030 D8F83000 		ldr	r0, [r8, #48]	@ float
 10167 0034 A047     		blx	r4
 10168              	.LVL1414:
 10169 0036 CDE92601 		strd	r0, [sp, #152]
 10170              	.LVL1415:
 10171              	.LBE2254:
 10172              	.LBE2261:
 10173              	.LBB2262:
 10174              	.LBB2259:
  62:/home/tienluong/workspace/atlantis_fw/AsicFwS2/src/calibclasses.cpp ****     extrinsic( 0, 3 ) = translation.x();
 10175              		.loc 4 62 0
 10176 003a 06F13401 		add	r1, r6, #52
 10177              	.LVL1416:
 10178 003e 2846     		mov	r0, r5
 10179 0040 C847     		blx	r9
 10180              	.LVL1417:
  63:/home/tienluong/workspace/atlantis_fw/AsicFwS2/src/calibclasses.cpp ****     extrinsic( 1, 3 ) = translation.y();
 10181              		.loc 4 63 0
 10182 0042 B06A     		ldr	r0, [r6, #40]	@ float
 10183 0044 A047     		blx	r4
 10184              	.LVL1418:
 10185 0046 C5E90601 		strd	r0, [r5, #24]
 10186              	.LVL1419:
  64:/home/tienluong/workspace/atlantis_fw/AsicFwS2/src/calibclasses.cpp ****     extrinsic( 2, 3 ) = translation.z();
 10187              		.loc 4 64 0
 10188 004a F06A     		ldr	r0, [r6, #44]	@ float
 10189 004c A047     		blx	r4
 10190              	.LVL1420:
 10191 004e C5E90E01 		strd	r0, [r5, #56]
 10192              	.LVL1421:
  65:/home/tienluong/workspace/atlantis_fw/AsicFwS2/src/calibclasses.cpp ****     return extrinsic;
 10193              		.loc 4 65 0
 10194 0052 306B     		ldr	r0, [r6, #48]	@ float
 10195 0054 A047     		blx	r4
 10196              	.LVL1422:
 10197              	.LBE2259:
 10198              	.LBE2262:
  76:/home/tienluong/workspace/atlantis_fw/AsicFwS2/src/calibclasses.cpp **** }
 10199              		.loc 4 76 0
 10200 0056 284C     		ldr	r4, .L273+4
 10201              	.LBB2263:
 10202              	.LBB2260:
  65:/home/tienluong/workspace/atlantis_fw/AsicFwS2/src/calibclasses.cpp ****     return extrinsic;
 10203              		.loc 4 65 0
 10204 0058 C5E91601 		strd	r0, [r5, #88]
 10205              	.LVL1423:
 10206              	.LBE2260:
 10207              	.LBE2263:
  74:/home/tienluong/workspace/atlantis_fw/AsicFwS2/src/calibclasses.cpp ****         Matrix4x4d k_src( src.K() );
 10208              		.loc 4 74 0
 10209 005c 08F10401 		add	r1, r8, #4
 10210 0060 50A8     		add	r0, sp, #320
 10211 0062 C847     		blx	r9
 10212              	.LVL1424:
  75:/home/tienluong/workspace/atlantis_fw/AsicFwS2/src/calibclasses.cpp ****         _mat = Matrix4x4f( transpose( ( k_src * e_src ) * inverse( ( k_ref * e_ref ) ) ) );
 10213              		.loc 4 75 0
 10214 0064 311D     		adds	r1, r6, #4
 10215 0066 70A8     		add	r0, sp, #448
 10216 0068 C847     		blx	r9
 10217              	.LVL1425:
  76:/home/tienluong/workspace/atlantis_fw/AsicFwS2/src/calibclasses.cpp **** }
 10218              		.loc 4 76 0
 10219 006a D0A8     		add	r0, sp, #832
 10220 006c 70A9     		add	r1, sp, #448
 10221 006e 2A46     		mov	r2, r5
 10222 0070 A047     		blx	r4
 10223              	.LVL1426:
 10224 0072 0DF58860 		add	r0, sp, #1088
 10225 0076 50A9     		add	r1, sp, #320
 10226 0078 10AA     		add	r2, sp, #64
 10227 007a A047     		blx	r4
 10228              	.LVL1427:
 10229              	.LBB2264:
 10230              	.LBB2265:
 10231              	.LBB2266:
 10232              	.LBB2267:
 591:/home/tienluong/workspace/atlantis_fw/AsicFwS2/include/matrix.h **** 
 10233              		.loc 2 591 0
 10234 007c 8022     		movs	r2, #128
 10235 007e 0DF58861 		add	r1, sp, #1088
 10236              	.LVL1428:
 10237 0082 1E4B     		ldr	r3, .L273+8
 10238 0084 F0A8     		add	r0, sp, #960
 10239              	.LVL1429:
 10240 0086 9847     		blx	r3
 10241              	.LVL1430:
 10242              	.LBE2267:
 10243              	.LBE2266:
1251:/home/tienluong/workspace/atlantis_fw/AsicFwS2/include/matrix.h ****     return rval;
 10244              		.loc 2 1251 0
 10245 0088 1D4B     		ldr	r3, .L273+12
 10246 008a B0A8     		add	r0, sp, #704
 10247 008c F0A9     		add	r1, sp, #960
 10248              	.LVL1431:
 10249 008e 9847     		blx	r3
 10250              	.LVL1432:
 10251              	.LBE2265:
 10252              	.LBE2264:
  76:/home/tienluong/workspace/atlantis_fw/AsicFwS2/src/calibclasses.cpp **** }
 10253              		.loc 4 76 0
 10254 0090 D0A9     		add	r1, sp, #832
 10255 0092 F0AA     		add	r2, sp, #960
 10256              	.LVL1433:
 10257 0094 B0A8     		add	r0, sp, #704
 10258 0096 A047     		blx	r4
 10259              	.LVL1434:
 10260 0098 AEAB     		add	r3, sp, #696
 10261 009a 8EAA     		add	r2, sp, #568
 10262 009c CEA9     		add	r1, sp, #824
 10263              	.LVL1435:
 10264              	.L267:
 10265              	.LBB2268:
 10266              	.LBB2269:
 10267              	.LBB2270:
 893:/home/tienluong/workspace/atlantis_fw/AsicFwS2/include/matrix.h ****     return rval;
 10268              		.loc 2 893 0
 10269 009e F3E90245 		ldrd	r4, [r3, #8]!
 10270 00a2 E2E90245 		strd	r4, [r2, #8]!
 10271 00a6 8B42     		cmp	r3, r1
 10272 00a8 F9D1     		bne	.L267
 10273 00aa 0025     		movs	r5, #0
 10274              	.LVL1436:
 10275              	.L268:
 10276 00ac 0DEB4506 		add	r6, sp, r5, lsl #1
 10277              	.LBE2270:
 10278              	.LBE2269:
 10279              	.LBE2268:
 10280              	.LBE2276:
  70:/home/tienluong/workspace/atlantis_fw/AsicFwS2/src/calibclasses.cpp ****                       const CalibData & src ){
 10281              		.loc 4 70 0
 10282 00b0 0024     		movs	r4, #0
 10283              	.LVL1437:
 10284              	.L269:
 10285 00b2 05EB4413 		add	r3, r5, r4, lsl #5
 10286 00b6 90AA     		add	r2, sp, #576
 10287              	.LVL1438:
 10288 00b8 1344     		add	r3, r3, r2
 10289              	.LBB2277:
 10290              	.LBB2271:
 10291              	.LBB2272:
 10292              	.LBB2273:
 10293              	.LBB2274:
 621:/home/tienluong/workspace/atlantis_fw/AsicFwS2/include/matrix.h ****             for( int j = kMinCol; j < C; ++j )
 10294              		.loc 2 621 0
 10295 00ba D3E90001 		ldrd	r0, [r3]
 10296 00be 114B     		ldr	r3, .L273+16
 10297 00c0 9847     		blx	r3
 10298              	.LVL1439:
 10299 00c2 46F82400 		str	r0, [r6, r4, lsl #2]	@ float
 620:/home/tienluong/workspace/atlantis_fw/AsicFwS2/include/matrix.h ****             { this->_data[Idx( i, j )] = static_cast<T>( src( i, j ) ); }
 10300              		.loc 2 620 0
 10301 00c6 0134     		adds	r4, r4, #1
 10302              	.LVL1440:
 10303 00c8 042C     		cmp	r4, #4
 10304 00ca F2D1     		bne	.L269
 10305              	.LVL1441:
 10306 00cc 0835     		adds	r5, r5, #8
 10307              	.LBE2274:
 618:/home/tienluong/workspace/atlantis_fw/AsicFwS2/include/matrix.h ****         {
 10308              		.loc 2 618 0
 10309 00ce 202D     		cmp	r5, #32
 10310 00d0 ECD1     		bne	.L268
 10311              	.LVL1442:
 10312              	.LBE2273:
 10313              	.LBE2272:
 10314              	.LBE2271:
  76:/home/tienluong/workspace/atlantis_fw/AsicFwS2/src/calibclasses.cpp **** }
 10315              		.loc 4 76 0
 10316 00d2 6C46     		mov	r4, sp
 10317              	.LVL1443:
 10318 00d4 3D46     		mov	r5, r7
 10319 00d6 0FCC     		ldmia	r4!, {r0, r1, r2, r3}
 10320 00d8 0FC5     		stmia	r5!, {r0, r1, r2, r3}
 10321 00da 0FCC     		ldmia	r4!, {r0, r1, r2, r3}
 10322 00dc 0FC5     		stmia	r5!, {r0, r1, r2, r3}
 10323 00de 0FCC     		ldmia	r4!, {r0, r1, r2, r3}
 10324 00e0 0FC5     		stmia	r5!, {r0, r1, r2, r3}
 10325 00e2 94E80F00 		ldmia	r4, {r0, r1, r2, r3}
 10326 00e6 85E80F00 		stmia	r5, {r0, r1, r2, r3}
 10327              	.LBE2277:
  77:/home/tienluong/workspace/atlantis_fw/AsicFwS2/src/calibclasses.cpp **** 
 10328              		.loc 4 77 0
 10329 00ea 3846     		mov	r0, r7
 10330 00ec 0DF2C44D 		addw	sp, sp, #1220
 10331              	.LCFI86:
 10332              		.cfi_def_cfa_offset 28
 10333              		@ sp needed
 10334 00f0 BDE8F083 		pop	{r4, r5, r6, r7, r8, r9, pc}
 10335              	.LVL1444:
 10336              	.L274:
 10337              		.align	2
 10338              	.L273:
 10339 00f4 00000000 		.word	__aeabi_f2d
 10340 00f8 00000000 		.word	_ZNK4ltaf6MatrixIdLi4ELi4ELb1EEmlILi4ELi4ELb1EEENS0_IdLi4EXT0_ELb1EEERKNS0_IdXT_EXT0_EXT1_EE
 10341 00fc 00000000 		.word	memcpy
 10342 0100 00000000 		.word	_ZNK4ltaf20SquareMatrixInverterIdLi4EE3runEPd
 10343 0104 00000000 		.word	__aeabi_d2f
 10344 0108 00000000 		.word	_ZN4ltaf6MatrixIdLi4ELi4ELb1EEC1IfLi3ELi3ELb1EEERKNS0_IT_XT0_EXT1_EXT2_EEE
 10345              		.cfi_endproc
 10346              	.LFE3332:
 10348              		.global	_ZN4ltaf9WarpFieldC1ERKNS_9CalibDataES3_
 10349              		.thumb_set _ZN4ltaf9WarpFieldC1ERKNS_9CalibDataES3_,_ZN4ltaf9WarpFieldC2ERKNS_9CalibDataES3_
 10350              		.section	.text._ZNK4ltaf17MatrixDeterminantIfLi3EEclEPKf,"axG",%progbits,_ZNK4ltaf17MatrixDetermin
 10351              		.align	1
 10352              		.weak	_ZNK4ltaf17MatrixDeterminantIfLi3EEclEPKf
 10353              		.thumb
 10354              		.thumb_func
 10356              	_ZNK4ltaf17MatrixDeterminantIfLi3EEclEPKf:
 10357              	.LFB3577:
1069:/home/tienluong/workspace/atlantis_fw/AsicFwS2/include/matrix.h ****     {
 10358              		.loc 2 1069 0
 10359              		.cfi_startproc
 10360              		@ args = 0, pretend = 0, frame = 16
 10361              		@ frame_needed = 0, uses_anonymous_args = 0
 10362              	.LVL1445:
 10363 0000 2DE9F04F 		push	{r4, r5, r6, r7, r8, r9, r10, fp, lr}
 10364              	.LCFI87:
 10365              		.cfi_def_cfa_offset 36
 10366              		.cfi_offset 4, -36
 10367              		.cfi_offset 5, -32
 10368              		.cfi_offset 6, -28
 10369              		.cfi_offset 7, -24
 10370              		.cfi_offset 8, -20
 10371              		.cfi_offset 9, -16
 10372              		.cfi_offset 10, -12
 10373              		.cfi_offset 11, -8
 10374              		.cfi_offset 14, -4
1073:/home/tienluong/workspace/atlantis_fw/AsicFwS2/include/matrix.h ****     }
 10375              		.loc 2 1073 0
 10376 0004 0B6A     		ldr	r3, [r1, #32]	@ float
1069:/home/tienluong/workspace/atlantis_fw/AsicFwS2/include/matrix.h ****     {
 10377              		.loc 2 1069 0
 10378 0006 85B0     		sub	sp, sp, #20
 10379              	.LCFI88:
 10380              		.cfi_def_cfa_offset 56
1073:/home/tienluong/workspace/atlantis_fw/AsicFwS2/include/matrix.h ****     }
 10381              		.loc 2 1073 0
 10382 0008 D1F81080 		ldr	r8, [r1, #16]	@ float
1069:/home/tienluong/workspace/atlantis_fw/AsicFwS2/include/matrix.h ****     {
 10383              		.loc 2 1069 0
 10384 000c 0D46     		mov	r5, r1
1073:/home/tienluong/workspace/atlantis_fw/AsicFwS2/include/matrix.h ****     }
 10385              		.loc 2 1073 0
 10386 000e 1F4C     		ldr	r4, .L276
 10387 0010 4046     		mov	r0, r8
 10388              	.LVL1446:
 10389 0012 D1F81C90 		ldr	r9, [r1, #28]	@ float
 10390 0016 D1F814B0 		ldr	fp, [r1, #20]	@ float
 10391 001a D1F80CA0 		ldr	r10, [r1, #12]	@ float
 10392 001e 8F69     		ldr	r7, [r1, #24]	@ float
 10393 0020 1946     		mov	r1, r3
 10394              	.LVL1447:
 10395 0022 0393     		str	r3, [sp, #12]
 10396 0024 A047     		blx	r4
 10397              	.LVL1448:
 10398 0026 5946     		mov	r1, fp
 10399 0028 194E     		ldr	r6, .L276+4
 10400 002a 0190     		str	r0, [sp, #4]
 10401 002c 4846     		mov	r0, r9
 10402 002e A047     		blx	r4
 10403              	.LVL1449:
 10404 0030 019A     		ldr	r2, [sp, #4]
 10405 0032 0146     		mov	r1, r0
 10406 0034 1046     		mov	r0, r2
 10407 0036 B047     		blx	r6
 10408              	.LVL1450:
 10409 0038 2968     		ldr	r1, [r5]	@ float
 10410 003a A047     		blx	r4
 10411              	.LVL1451:
 10412 003c 039B     		ldr	r3, [sp, #12]
 10413 003e 1946     		mov	r1, r3
 10414 0040 0290     		str	r0, [sp, #8]
 10415 0042 5046     		mov	r0, r10
 10416 0044 A047     		blx	r4
 10417              	.LVL1452:
 10418 0046 3946     		mov	r1, r7
 10419 0048 0190     		str	r0, [sp, #4]
 10420 004a 5846     		mov	r0, fp
 10421 004c A047     		blx	r4
 10422              	.LVL1453:
 10423 004e 019B     		ldr	r3, [sp, #4]
 10424 0050 0146     		mov	r1, r0
 10425 0052 1846     		mov	r0, r3
 10426 0054 B047     		blx	r6
 10427              	.LVL1454:
 10428 0056 6968     		ldr	r1, [r5, #4]	@ float
 10429 0058 A047     		blx	r4
 10430              	.LVL1455:
 10431 005a 029A     		ldr	r2, [sp, #8]
 10432 005c 0146     		mov	r1, r0
 10433 005e 1046     		mov	r0, r2
 10434 0060 B047     		blx	r6
 10435              	.LVL1456:
 10436 0062 4946     		mov	r1, r9
 10437 0064 8346     		mov	fp, r0
 10438 0066 5046     		mov	r0, r10
 10439 0068 A047     		blx	r4
 10440              	.LVL1457:
 10441 006a 3946     		mov	r1, r7
 10442 006c 8146     		mov	r9, r0
 10443 006e 4046     		mov	r0, r8
 10444 0070 A047     		blx	r4
 10445              	.LVL1458:
 10446 0072 0146     		mov	r1, r0
 10447 0074 4846     		mov	r0, r9
 10448 0076 B047     		blx	r6
 10449              	.LVL1459:
 10450 0078 A968     		ldr	r1, [r5, #8]	@ float
 10451 007a A047     		blx	r4
 10452              	.LVL1460:
 10453 007c 054B     		ldr	r3, .L276+8
 10454 007e 0146     		mov	r1, r0
 10455 0080 5846     		mov	r0, fp
 10456 0082 9847     		blx	r3
 10457              	.LVL1461:
1074:/home/tienluong/workspace/atlantis_fw/AsicFwS2/include/matrix.h **** };
 10458              		.loc 2 1074 0
 10459 0084 05B0     		add	sp, sp, #20
 10460              	.LCFI89:
 10461              		.cfi_def_cfa_offset 36
 10462              		@ sp needed
 10463 0086 BDE8F08F 		pop	{r4, r5, r6, r7, r8, r9, r10, fp, pc}
 10464              	.LVL1462:
 10465              	.L277:
 10466 008a 00BF     		.align	2
 10467              	.L276:
 10468 008c 00000000 		.word	__aeabi_fmul
 10469 0090 00000000 		.word	__aeabi_fsub
 10470 0094 00000000 		.word	__aeabi_fadd
 10471              		.cfi_endproc
 10472              	.LFE3577:
 10474              		.section	.text._ZN4ltaf11determinantIfLi3ELb1EEET_RKNS_6MatrixIS1_XT0_EXT0_EXT1_EEE,"axG",%progbit
 10475              		.align	1
 10476              		.weak	_ZN4ltaf11determinantIfLi3ELb1EEET_RKNS_6MatrixIS1_XT0_EXT0_EXT1_EEE
 10477              		.thumb
 10478              		.thumb_func
 10480              	_ZN4ltaf11determinantIfLi3ELb1EEET_RKNS_6MatrixIS1_XT0_EXT0_EXT1_EEE:
 10481              	.LFB3393:
1256:/home/tienluong/workspace/atlantis_fw/AsicFwS2/include/matrix.h **** {
 10482              		.loc 2 1256 0
 10483              		.cfi_startproc
 10484              		@ args = 0, pretend = 0, frame = 8
 10485              		@ frame_needed = 0, uses_anonymous_args = 0
 10486              	.LVL1463:
 10487 0000 07B5     		push	{r0, r1, r2, lr}
 10488              	.LCFI90:
 10489              		.cfi_def_cfa_offset 16
 10490              		.cfi_offset 14, -4
 10491              	.LBB2278:
1259:/home/tienluong/workspace/atlantis_fw/AsicFwS2/include/matrix.h **** }
 10492              		.loc 2 1259 0
 10493 0002 034B     		ldr	r3, .L279
 10494              	.LBE2278:
1256:/home/tienluong/workspace/atlantis_fw/AsicFwS2/include/matrix.h **** {
 10495              		.loc 2 1256 0
 10496 0004 0146     		mov	r1, r0
 10497              	.LVL1464:
 10498              	.LBB2279:
1259:/home/tienluong/workspace/atlantis_fw/AsicFwS2/include/matrix.h **** }
 10499              		.loc 2 1259 0
 10500 0006 01A8     		add	r0, sp, #4
 10501              	.LVL1465:
 10502 0008 9847     		blx	r3
 10503              	.LVL1466:
 10504              	.LBE2279:
 10505              		.loc 2 1260 0
 10506 000a 03B0     		add	sp, sp, #12
 10507              	.LCFI91:
 10508              		.cfi_def_cfa_offset 4
 10509              		@ sp needed
 10510 000c 5DF804FB 		ldr	pc, [sp], #4
 10511              	.L280:
 10512              		.align	2
 10513              	.L279:
 10514 0010 00000000 		.word	_ZNK4ltaf17MatrixDeterminantIfLi3EEclEPKf
 10515              		.cfi_endproc
 10516              	.LFE3393:
 10518              		.section	.text._ZN4ltaf11determinantIfLi3ELb0EEET_RKNS_6MatrixIS1_XT0_EXT0_EXT1_EEE,"axG",%progbit
 10519              		.align	1
 10520              		.weak	_ZN4ltaf11determinantIfLi3ELb0EEET_RKNS_6MatrixIS1_XT0_EXT0_EXT1_EEE
 10521              		.thumb
 10522              		.thumb_func
 10524              	_ZN4ltaf11determinantIfLi3ELb0EEET_RKNS_6MatrixIS1_XT0_EXT0_EXT1_EEE:
 10525              	.LFB3396:
1256:/home/tienluong/workspace/atlantis_fw/AsicFwS2/include/matrix.h **** {
 10526              		.loc 2 1256 0
 10527              		.cfi_startproc
 10528              		@ args = 0, pretend = 0, frame = 8
 10529              		@ frame_needed = 0, uses_anonymous_args = 0
 10530              	.LVL1467:
 10531 0000 07B5     		push	{r0, r1, r2, lr}
 10532              	.LCFI92:
 10533              		.cfi_def_cfa_offset 16
 10534              		.cfi_offset 14, -4
 10535              	.LBB2280:
1259:/home/tienluong/workspace/atlantis_fw/AsicFwS2/include/matrix.h **** }
 10536              		.loc 2 1259 0
 10537 0002 034B     		ldr	r3, .L282
 10538              	.LBE2280:
1256:/home/tienluong/workspace/atlantis_fw/AsicFwS2/include/matrix.h **** {
 10539              		.loc 2 1256 0
 10540 0004 0146     		mov	r1, r0
 10541              	.LVL1468:
 10542              	.LBB2281:
1259:/home/tienluong/workspace/atlantis_fw/AsicFwS2/include/matrix.h **** }
 10543              		.loc 2 1259 0
 10544 0006 01A8     		add	r0, sp, #4
 10545              	.LVL1469:
 10546 0008 9847     		blx	r3
 10547              	.LVL1470:
 10548              	.LBE2281:
 10549              		.loc 2 1260 0
 10550 000a 03B0     		add	sp, sp, #12
 10551              	.LCFI93:
 10552              		.cfi_def_cfa_offset 4
 10553              		@ sp needed
 10554 000c 5DF804FB 		ldr	pc, [sp], #4
 10555              	.L283:
 10556              		.align	2
 10557              	.L282:
 10558 0010 00000000 		.word	_ZNK4ltaf17MatrixDeterminantIfLi3EEclEPKf
 10559              		.cfi_endproc
 10560              	.LFE3396:
 10562              		.section	.text._ZNK4ltaf17MatrixDeterminantIfLi4EEclEPKf,"axG",%progbits,_ZNK4ltaf17MatrixDetermin
 10563              		.align	1
 10564              		.weak	_ZNK4ltaf17MatrixDeterminantIfLi4EEclEPKf
 10565              		.thumb
 10566              		.thumb_func
 10568              	_ZNK4ltaf17MatrixDeterminantIfLi4EEclEPKf:
 10569              	.LFB3579:
1080:/home/tienluong/workspace/atlantis_fw/AsicFwS2/include/matrix.h ****     {
 10570              		.loc 2 1080 0
 10571              		.cfi_startproc
 10572              		@ args = 0, pretend = 0, frame = 56
 10573              		@ frame_needed = 0, uses_anonymous_args = 0
 10574              	.LVL1471:
 10575 0000 2DE9F04F 		push	{r4, r5, r6, r7, r8, r9, r10, fp, lr}
 10576              	.LCFI94:
 10577              		.cfi_def_cfa_offset 36
 10578              		.cfi_offset 4, -36
 10579              		.cfi_offset 5, -32
 10580              		.cfi_offset 6, -28
 10581              		.cfi_offset 7, -24
 10582              		.cfi_offset 8, -20
 10583              		.cfi_offset 9, -16
 10584              		.cfi_offset 10, -12
 10585              		.cfi_offset 11, -8
 10586              		.cfi_offset 14, -4
 10587              	.LBB2282:
1086:/home/tienluong/workspace/atlantis_fw/AsicFwS2/include/matrix.h ****         tmp[1] = mat[11] * mat[14];
 10588              		.loc 2 1086 0
 10589 0004 D1F828A0 		ldr	r10, [r1, #40]	@ float
 10590              	.LBE2282:
1080:/home/tienluong/workspace/atlantis_fw/AsicFwS2/include/matrix.h ****     {
 10591              		.loc 2 1080 0
 10592 0008 8FB0     		sub	sp, sp, #60
 10593              	.LCFI95:
 10594              		.cfi_def_cfa_offset 96
 10595              	.LBB2283:
1086:/home/tienluong/workspace/atlantis_fw/AsicFwS2/include/matrix.h ****         tmp[1] = mat[11] * mat[14];
 10596              		.loc 2 1086 0
 10597 000a CD6B     		ldr	r5, [r1, #60]	@ float
 10598              	.LBE2283:
1080:/home/tienluong/workspace/atlantis_fw/AsicFwS2/include/matrix.h ****     {
 10599              		.loc 2 1080 0
 10600 000c 0E46     		mov	r6, r1
 10601              	.LBB2284:
1086:/home/tienluong/workspace/atlantis_fw/AsicFwS2/include/matrix.h ****         tmp[1] = mat[11] * mat[14];
 10602              		.loc 2 1086 0
 10603 000e 824C     		ldr	r4, .L285
 10604 0010 2946     		mov	r1, r5
 10605              	.LVL1472:
 10606 0012 5046     		mov	r0, r10
 10607              	.LVL1473:
 10608 0014 A047     		blx	r4
 10609              	.LVL1474:
1087:/home/tienluong/workspace/atlantis_fw/AsicFwS2/include/matrix.h ****         tmp[2] = mat[9] * mat[15];
 10610              		.loc 2 1087 0
 10611 0016 F26A     		ldr	r2, [r6, #44]	@ float
 10612 0018 D6F838B0 		ldr	fp, [r6, #56]	@ float
 10613 001c 5946     		mov	r1, fp
 10614 001e 0392     		str	r2, [sp, #12]
1086:/home/tienluong/workspace/atlantis_fw/AsicFwS2/include/matrix.h ****         tmp[1] = mat[11] * mat[14];
 10615              		.loc 2 1086 0
 10616 0020 0090     		str	r0, [sp]	@ float
 10617              	.LVL1475:
1087:/home/tienluong/workspace/atlantis_fw/AsicFwS2/include/matrix.h ****         tmp[2] = mat[9] * mat[15];
 10618              		.loc 2 1087 0
 10619 0022 1046     		mov	r0, r2
 10620              	.LVL1476:
 10621 0024 A047     		blx	r4
 10622              	.LVL1477:
1088:/home/tienluong/workspace/atlantis_fw/AsicFwS2/include/matrix.h ****         tmp[3] = mat[11] * mat[13];
 10623              		.loc 2 1088 0
 10624 0026 776A     		ldr	r7, [r6, #36]	@ float
 10625 0028 2946     		mov	r1, r5
1087:/home/tienluong/workspace/atlantis_fw/AsicFwS2/include/matrix.h ****         tmp[2] = mat[9] * mat[15];
 10626              		.loc 2 1087 0
 10627 002a 0190     		str	r0, [sp, #4]	@ float
 10628              	.LVL1478:
1088:/home/tienluong/workspace/atlantis_fw/AsicFwS2/include/matrix.h ****         tmp[3] = mat[11] * mat[13];
 10629              		.loc 2 1088 0
 10630 002c 3846     		mov	r0, r7
 10631              	.LVL1479:
 10632 002e A047     		blx	r4
 10633              	.LVL1480:
1089:/home/tienluong/workspace/atlantis_fw/AsicFwS2/include/matrix.h ****         tmp[4] = mat[9] * mat[14];
 10634              		.loc 2 1089 0
 10635 0030 039A     		ldr	r2, [sp, #12]
 10636 0032 D6F83480 		ldr	r8, [r6, #52]	@ float
 10637 0036 4146     		mov	r1, r8
 10638 0038 0792     		str	r2, [sp, #28]
1088:/home/tienluong/workspace/atlantis_fw/AsicFwS2/include/matrix.h ****         tmp[3] = mat[11] * mat[13];
 10639              		.loc 2 1088 0
 10640 003a 0290     		str	r0, [sp, #8]	@ float
 10641              	.LVL1481:
1089:/home/tienluong/workspace/atlantis_fw/AsicFwS2/include/matrix.h ****         tmp[4] = mat[9] * mat[14];
 10642              		.loc 2 1089 0
 10643 003c 1046     		mov	r0, r2
 10644              	.LVL1482:
 10645 003e A047     		blx	r4
 10646              	.LVL1483:
1090:/home/tienluong/workspace/atlantis_fw/AsicFwS2/include/matrix.h ****         tmp[5] = mat[10] * mat[13];
 10647              		.loc 2 1090 0
 10648 0040 5946     		mov	r1, fp
1089:/home/tienluong/workspace/atlantis_fw/AsicFwS2/include/matrix.h ****         tmp[4] = mat[9] * mat[14];
 10649              		.loc 2 1089 0
 10650 0042 0390     		str	r0, [sp, #12]	@ float
 10651              	.LVL1484:
1090:/home/tienluong/workspace/atlantis_fw/AsicFwS2/include/matrix.h ****         tmp[5] = mat[10] * mat[13];
 10652              		.loc 2 1090 0
 10653 0044 3846     		mov	r0, r7
 10654              	.LVL1485:
 10655 0046 A047     		blx	r4
 10656              	.LVL1486:
1091:/home/tienluong/workspace/atlantis_fw/AsicFwS2/include/matrix.h ****         tmp[6] = mat[8] * mat[15];
 10657              		.loc 2 1091 0
 10658 0048 4146     		mov	r1, r8
1090:/home/tienluong/workspace/atlantis_fw/AsicFwS2/include/matrix.h ****         tmp[5] = mat[10] * mat[13];
 10659              		.loc 2 1090 0
 10660 004a 0490     		str	r0, [sp, #16]	@ float
 10661              	.LVL1487:
1091:/home/tienluong/workspace/atlantis_fw/AsicFwS2/include/matrix.h ****         tmp[6] = mat[8] * mat[15];
 10662              		.loc 2 1091 0
 10663 004c 5046     		mov	r0, r10
 10664              	.LVL1488:
 10665 004e A047     		blx	r4
 10666              	.LVL1489:
1092:/home/tienluong/workspace/atlantis_fw/AsicFwS2/include/matrix.h ****         tmp[7] = mat[11] * mat[12];
 10667              		.loc 2 1092 0
 10668 0050 D6F82090 		ldr	r9, [r6, #32]	@ float
 10669 0054 2946     		mov	r1, r5
1091:/home/tienluong/workspace/atlantis_fw/AsicFwS2/include/matrix.h ****         tmp[6] = mat[8] * mat[15];
 10670              		.loc 2 1091 0
 10671 0056 0590     		str	r0, [sp, #20]	@ float
 10672              	.LVL1490:
1092:/home/tienluong/workspace/atlantis_fw/AsicFwS2/include/matrix.h ****         tmp[7] = mat[11] * mat[12];
 10673              		.loc 2 1092 0
 10674 0058 4846     		mov	r0, r9
 10675              	.LVL1491:
 10676 005a A047     		blx	r4
 10677              	.LVL1492:
1093:/home/tienluong/workspace/atlantis_fw/AsicFwS2/include/matrix.h ****         tmp[8] = mat[8] * mat[14];
 10678              		.loc 2 1093 0
 10679 005c 079A     		ldr	r2, [sp, #28]
 10680 005e 356B     		ldr	r5, [r6, #48]	@ float
 10681 0060 2946     		mov	r1, r5
1092:/home/tienluong/workspace/atlantis_fw/AsicFwS2/include/matrix.h ****         tmp[7] = mat[11] * mat[12];
 10682              		.loc 2 1092 0
 10683 0062 0690     		str	r0, [sp, #24]	@ float
 10684              	.LVL1493:
1093:/home/tienluong/workspace/atlantis_fw/AsicFwS2/include/matrix.h ****         tmp[8] = mat[8] * mat[14];
 10685              		.loc 2 1093 0
 10686 0064 1046     		mov	r0, r2
 10687              	.LVL1494:
 10688 0066 A047     		blx	r4
 10689              	.LVL1495:
1094:/home/tienluong/workspace/atlantis_fw/AsicFwS2/include/matrix.h ****         tmp[9] = mat[10] * mat[12];
 10690              		.loc 2 1094 0
 10691 0068 5946     		mov	r1, fp
1093:/home/tienluong/workspace/atlantis_fw/AsicFwS2/include/matrix.h ****         tmp[8] = mat[8] * mat[14];
 10692              		.loc 2 1093 0
 10693 006a 0790     		str	r0, [sp, #28]	@ float
 10694              	.LVL1496:
1094:/home/tienluong/workspace/atlantis_fw/AsicFwS2/include/matrix.h ****         tmp[9] = mat[10] * mat[12];
 10695              		.loc 2 1094 0
 10696 006c 4846     		mov	r0, r9
 10697              	.LVL1497:
 10698 006e A047     		blx	r4
 10699              	.LVL1498:
1095:/home/tienluong/workspace/atlantis_fw/AsicFwS2/include/matrix.h ****         tmp[10] = mat[8] * mat[13];
 10700              		.loc 2 1095 0
 10701 0070 2946     		mov	r1, r5
1094:/home/tienluong/workspace/atlantis_fw/AsicFwS2/include/matrix.h ****         tmp[9] = mat[10] * mat[12];
 10702              		.loc 2 1094 0
 10703 0072 0890     		str	r0, [sp, #32]	@ float
1095:/home/tienluong/workspace/atlantis_fw/AsicFwS2/include/matrix.h ****         tmp[10] = mat[8] * mat[13];
 10704              		.loc 2 1095 0
 10705 0074 5046     		mov	r0, r10
 10706 0076 A047     		blx	r4
 10707              	.LVL1499:
1096:/home/tienluong/workspace/atlantis_fw/AsicFwS2/include/matrix.h ****         tmp[11] = mat[9] * mat[12];
 10708              		.loc 2 1096 0
 10709 0078 4146     		mov	r1, r8
1095:/home/tienluong/workspace/atlantis_fw/AsicFwS2/include/matrix.h ****         tmp[10] = mat[8] * mat[13];
 10710              		.loc 2 1095 0
 10711 007a 0990     		str	r0, [sp, #36]	@ float
1096:/home/tienluong/workspace/atlantis_fw/AsicFwS2/include/matrix.h ****         tmp[11] = mat[9] * mat[12];
 10712              		.loc 2 1096 0
 10713 007c 4846     		mov	r0, r9
 10714 007e A047     		blx	r4
 10715              	.LVL1500:
1097:/home/tienluong/workspace/atlantis_fw/AsicFwS2/include/matrix.h **** 
 10716              		.loc 2 1097 0
 10717 0080 2946     		mov	r1, r5
1100:/home/tienluong/workspace/atlantis_fw/AsicFwS2/include/matrix.h ****         dst[0] -= tmp[1] * mat[5] + tmp[2] * mat[6] + tmp[5]  * mat[7];
 10718              		.loc 2 1100 0
 10719 0082 664D     		ldr	r5, .L285+4
1096:/home/tienluong/workspace/atlantis_fw/AsicFwS2/include/matrix.h ****         tmp[11] = mat[9] * mat[12];
 10720              		.loc 2 1096 0
 10721 0084 0A90     		str	r0, [sp, #40]	@ float
1097:/home/tienluong/workspace/atlantis_fw/AsicFwS2/include/matrix.h **** 
 10722              		.loc 2 1097 0
 10723 0086 3846     		mov	r0, r7
 10724 0088 A047     		blx	r4
 10725              	.LVL1501:
1100:/home/tienluong/workspace/atlantis_fw/AsicFwS2/include/matrix.h ****         dst[0] -= tmp[1] * mat[5] + tmp[2] * mat[6] + tmp[5]  * mat[7];
 10726              		.loc 2 1100 0
 10727 008a D6F81480 		ldr	r8, [r6, #20]	@ float
 10728 008e 4146     		mov	r1, r8
 10729 0090 B769     		ldr	r7, [r6, #24]	@ float
 10730 0092 D6F81CA0 		ldr	r10, [r6, #28]	@ float
1102:/home/tienluong/workspace/atlantis_fw/AsicFwS2/include/matrix.h ****         dst[1] -= tmp[0] * mat[4] + tmp[7] * mat[6] + tmp[8]  * mat[7];
 10731              		.loc 2 1102 0
 10732 0096 D6F81090 		ldr	r9, [r6, #16]	@ float
1097:/home/tienluong/workspace/atlantis_fw/AsicFwS2/include/matrix.h **** 
 10733              		.loc 2 1097 0
 10734 009a 0B90     		str	r0, [sp, #44]	@ float
 10735              	.LVL1502:
1100:/home/tienluong/workspace/atlantis_fw/AsicFwS2/include/matrix.h ****         dst[0] -= tmp[1] * mat[5] + tmp[2] * mat[6] + tmp[5]  * mat[7];
 10736              		.loc 2 1100 0
 10737 009c 0098     		ldr	r0, [sp]	@ float
 10738              	.LVL1503:
 10739 009e A047     		blx	r4
 10740              	.LVL1504:
 10741 00a0 3946     		mov	r1, r7
 10742 00a2 0C90     		str	r0, [sp, #48]
 10743 00a4 0398     		ldr	r0, [sp, #12]	@ float
 10744 00a6 A047     		blx	r4
 10745              	.LVL1505:
 10746 00a8 0C9B     		ldr	r3, [sp, #48]
 10747 00aa 0146     		mov	r1, r0
 10748 00ac 1846     		mov	r0, r3
 10749 00ae A847     		blx	r5
 10750              	.LVL1506:
 10751 00b0 5146     		mov	r1, r10
 10752 00b2 0C90     		str	r0, [sp, #48]
 10753 00b4 0498     		ldr	r0, [sp, #16]	@ float
 10754 00b6 A047     		blx	r4
 10755              	.LVL1507:
 10756 00b8 0C9B     		ldr	r3, [sp, #48]
 10757 00ba 0146     		mov	r1, r0
 10758 00bc 1846     		mov	r0, r3
 10759 00be A847     		blx	r5
 10760              	.LVL1508:
1101:/home/tienluong/workspace/atlantis_fw/AsicFwS2/include/matrix.h ****         dst[1]  = tmp[1] * mat[4] + tmp[6] * mat[6] + tmp[9]  * mat[7];
 10761              		.loc 2 1101 0
 10762 00c0 4146     		mov	r1, r8
1100:/home/tienluong/workspace/atlantis_fw/AsicFwS2/include/matrix.h ****         dst[0] -= tmp[1] * mat[5] + tmp[2] * mat[6] + tmp[5]  * mat[7];
 10763              		.loc 2 1100 0
 10764 00c2 0D90     		str	r0, [sp, #52]
1101:/home/tienluong/workspace/atlantis_fw/AsicFwS2/include/matrix.h ****         dst[1]  = tmp[1] * mat[4] + tmp[6] * mat[6] + tmp[9]  * mat[7];
 10765              		.loc 2 1101 0
 10766 00c4 0198     		ldr	r0, [sp, #4]	@ float
 10767 00c6 A047     		blx	r4
 10768              	.LVL1509:
 10769 00c8 3946     		mov	r1, r7
 10770 00ca 0C90     		str	r0, [sp, #48]
 10771 00cc 0298     		ldr	r0, [sp, #8]	@ float
 10772 00ce A047     		blx	r4
 10773              	.LVL1510:
 10774 00d0 0C9A     		ldr	r2, [sp, #48]
 10775 00d2 0146     		mov	r1, r0
 10776 00d4 1046     		mov	r0, r2
 10777 00d6 A847     		blx	r5
 10778              	.LVL1511:
 10779 00d8 5146     		mov	r1, r10
 10780 00da 0C90     		str	r0, [sp, #48]
 10781 00dc 0598     		ldr	r0, [sp, #20]	@ float
 10782 00de A047     		blx	r4
 10783              	.LVL1512:
 10784 00e0 0C9A     		ldr	r2, [sp, #48]
 10785 00e2 0146     		mov	r1, r0
 10786 00e4 1046     		mov	r0, r2
 10787 00e6 A847     		blx	r5
 10788              	.LVL1513:
 10789 00e8 0D9B     		ldr	r3, [sp, #52]
 10790 00ea 0146     		mov	r1, r0
 10791 00ec 1846     		mov	r0, r3
 10792 00ee 4C4B     		ldr	r3, .L285+8
 10793 00f0 9847     		blx	r3
 10794              	.LVL1514:
1110:/home/tienluong/workspace/atlantis_fw/AsicFwS2/include/matrix.h ****     }
 10795              		.loc 2 1110 0
 10796 00f2 3168     		ldr	r1, [r6]	@ float
 10797 00f4 A047     		blx	r4
 10798              	.LVL1515:
1102:/home/tienluong/workspace/atlantis_fw/AsicFwS2/include/matrix.h ****         dst[1] -= tmp[0] * mat[4] + tmp[7] * mat[6] + tmp[8]  * mat[7];
 10799              		.loc 2 1102 0
 10800 00f6 4946     		mov	r1, r9
1110:/home/tienluong/workspace/atlantis_fw/AsicFwS2/include/matrix.h ****     }
 10801              		.loc 2 1110 0
 10802 00f8 0C90     		str	r0, [sp, #48]
1102:/home/tienluong/workspace/atlantis_fw/AsicFwS2/include/matrix.h ****         dst[1] -= tmp[0] * mat[4] + tmp[7] * mat[6] + tmp[8]  * mat[7];
 10803              		.loc 2 1102 0
 10804 00fa 0198     		ldr	r0, [sp, #4]	@ float
 10805 00fc A047     		blx	r4
 10806              	.LVL1516:
 10807 00fe 3946     		mov	r1, r7
 10808 0100 8346     		mov	fp, r0
 10809 0102 0698     		ldr	r0, [sp, #24]	@ float
 10810 0104 A047     		blx	r4
 10811              	.LVL1517:
 10812 0106 0146     		mov	r1, r0
 10813 0108 5846     		mov	r0, fp
 10814 010a A847     		blx	r5
 10815              	.LVL1518:
 10816 010c 5146     		mov	r1, r10
 10817 010e 8346     		mov	fp, r0
 10818 0110 0998     		ldr	r0, [sp, #36]	@ float
 10819 0112 A047     		blx	r4
 10820              	.LVL1519:
 10821 0114 0146     		mov	r1, r0
 10822 0116 5846     		mov	r0, fp
 10823 0118 A847     		blx	r5
 10824              	.LVL1520:
1103:/home/tienluong/workspace/atlantis_fw/AsicFwS2/include/matrix.h ****         dst[2]  = tmp[2] * mat[4] + tmp[7] * mat[5] + tmp[10] * mat[7];
 10825              		.loc 2 1103 0
 10826 011a 4946     		mov	r1, r9
1102:/home/tienluong/workspace/atlantis_fw/AsicFwS2/include/matrix.h ****         dst[1] -= tmp[0] * mat[4] + tmp[7] * mat[6] + tmp[8]  * mat[7];
 10827              		.loc 2 1102 0
 10828 011c 8346     		mov	fp, r0
1103:/home/tienluong/workspace/atlantis_fw/AsicFwS2/include/matrix.h ****         dst[2]  = tmp[2] * mat[4] + tmp[7] * mat[5] + tmp[10] * mat[7];
 10829              		.loc 2 1103 0
 10830 011e 0098     		ldr	r0, [sp]	@ float
 10831 0120 A047     		blx	r4
 10832              	.LVL1521:
 10833 0122 3946     		mov	r1, r7
 10834 0124 0090     		str	r0, [sp]
 10835              	.LVL1522:
 10836 0126 0798     		ldr	r0, [sp, #28]	@ float
 10837 0128 A047     		blx	r4
 10838              	.LVL1523:
 10839 012a 009A     		ldr	r2, [sp]
 10840 012c 0146     		mov	r1, r0
 10841 012e 1046     		mov	r0, r2
 10842 0130 A847     		blx	r5
 10843              	.LVL1524:
 10844 0132 5146     		mov	r1, r10
 10845 0134 0090     		str	r0, [sp]
 10846 0136 0898     		ldr	r0, [sp, #32]	@ float
 10847 0138 A047     		blx	r4
 10848              	.LVL1525:
 10849 013a 009A     		ldr	r2, [sp]
 10850 013c 0146     		mov	r1, r0
 10851 013e 1046     		mov	r0, r2
 10852 0140 A847     		blx	r5
 10853              	.LVL1526:
 10854 0142 374B     		ldr	r3, .L285+8
 10855 0144 0146     		mov	r1, r0
 10856 0146 5846     		mov	r0, fp
 10857 0148 9847     		blx	r3
 10858              	.LVL1527:
1110:/home/tienluong/workspace/atlantis_fw/AsicFwS2/include/matrix.h ****     }
 10859              		.loc 2 1110 0
 10860 014a 7168     		ldr	r1, [r6, #4]	@ float
 10861 014c A047     		blx	r4
 10862              	.LVL1528:
 10863 014e 0C9B     		ldr	r3, [sp, #48]
 10864 0150 0146     		mov	r1, r0
 10865 0152 1846     		mov	r0, r3
 10866 0154 A847     		blx	r5
 10867              	.LVL1529:
1104:/home/tienluong/workspace/atlantis_fw/AsicFwS2/include/matrix.h ****         dst[2] -= tmp[3] * mat[4] + tmp[6] * mat[5] + tmp[11] * mat[7];
 10868              		.loc 2 1104 0
 10869 0156 4946     		mov	r1, r9
1110:/home/tienluong/workspace/atlantis_fw/AsicFwS2/include/matrix.h ****     }
 10870              		.loc 2 1110 0
 10871 0158 8346     		mov	fp, r0
1104:/home/tienluong/workspace/atlantis_fw/AsicFwS2/include/matrix.h ****         dst[2] -= tmp[3] * mat[4] + tmp[6] * mat[5] + tmp[11] * mat[7];
 10872              		.loc 2 1104 0
 10873 015a 0298     		ldr	r0, [sp, #8]	@ float
 10874 015c A047     		blx	r4
 10875              	.LVL1530:
 10876 015e 4146     		mov	r1, r8
 10877 0160 0090     		str	r0, [sp]
 10878 0162 0798     		ldr	r0, [sp, #28]	@ float
 10879 0164 A047     		blx	r4
 10880              	.LVL1531:
 10881 0166 009B     		ldr	r3, [sp]
 10882 0168 0146     		mov	r1, r0
 10883 016a 1846     		mov	r0, r3
 10884 016c A847     		blx	r5
 10885              	.LVL1532:
 10886 016e 5146     		mov	r1, r10
 10887 0170 0090     		str	r0, [sp]
 10888 0172 0A98     		ldr	r0, [sp, #40]	@ float
 10889 0174 A047     		blx	r4
 10890              	.LVL1533:
 10891 0176 009B     		ldr	r3, [sp]
 10892 0178 0146     		mov	r1, r0
 10893 017a 1846     		mov	r0, r3
 10894 017c A847     		blx	r5
 10895              	.LVL1534:
1105:/home/tienluong/workspace/atlantis_fw/AsicFwS2/include/matrix.h ****         dst[3]  = tmp[5] * mat[4] + tmp[8] * mat[5] + tmp[11] * mat[6];
 10896              		.loc 2 1105 0
 10897 017e 4946     		mov	r1, r9
1104:/home/tienluong/workspace/atlantis_fw/AsicFwS2/include/matrix.h ****         dst[2] -= tmp[3] * mat[4] + tmp[6] * mat[5] + tmp[11] * mat[7];
 10898              		.loc 2 1104 0
 10899 0180 0190     		str	r0, [sp, #4]
 10900              	.LVL1535:
1105:/home/tienluong/workspace/atlantis_fw/AsicFwS2/include/matrix.h ****         dst[3]  = tmp[5] * mat[4] + tmp[8] * mat[5] + tmp[11] * mat[6];
 10901              		.loc 2 1105 0
 10902 0182 0398     		ldr	r0, [sp, #12]	@ float
 10903 0184 A047     		blx	r4
 10904              	.LVL1536:
 10905 0186 4146     		mov	r1, r8
 10906 0188 0090     		str	r0, [sp]
 10907 018a 0698     		ldr	r0, [sp, #24]	@ float
 10908 018c A047     		blx	r4
 10909              	.LVL1537:
 10910 018e 009A     		ldr	r2, [sp]
 10911 0190 0146     		mov	r1, r0
 10912 0192 1046     		mov	r0, r2
 10913 0194 A847     		blx	r5
 10914              	.LVL1538:
 10915 0196 5146     		mov	r1, r10
 10916 0198 0090     		str	r0, [sp]
 10917 019a 0B98     		ldr	r0, [sp, #44]	@ float
 10918 019c A047     		blx	r4
 10919              	.LVL1539:
 10920 019e 009A     		ldr	r2, [sp]
 10921 01a0 0146     		mov	r1, r0
 10922 01a2 1046     		mov	r0, r2
 10923 01a4 A847     		blx	r5
 10924              	.LVL1540:
 10925 01a6 019B     		ldr	r3, [sp, #4]
 10926 01a8 0146     		mov	r1, r0
 10927 01aa 1846     		mov	r0, r3
 10928 01ac 1C4B     		ldr	r3, .L285+8
 10929 01ae 9847     		blx	r3
 10930              	.LVL1541:
1110:/home/tienluong/workspace/atlantis_fw/AsicFwS2/include/matrix.h ****     }
 10931              		.loc 2 1110 0
 10932 01b0 B168     		ldr	r1, [r6, #8]	@ float
 10933 01b2 A047     		blx	r4
 10934              	.LVL1542:
 10935 01b4 0146     		mov	r1, r0
 10936 01b6 5846     		mov	r0, fp
 10937 01b8 A847     		blx	r5
 10938              	.LVL1543:
1106:/home/tienluong/workspace/atlantis_fw/AsicFwS2/include/matrix.h ****         dst[3] -= tmp[4] * mat[4] + tmp[9] * mat[5] + tmp[10] * mat[6];
 10939              		.loc 2 1106 0
 10940 01ba 4946     		mov	r1, r9
1110:/home/tienluong/workspace/atlantis_fw/AsicFwS2/include/matrix.h ****     }
 10941              		.loc 2 1110 0
 10942 01bc 8246     		mov	r10, r0
 10943              	.LVL1544:
1106:/home/tienluong/workspace/atlantis_fw/AsicFwS2/include/matrix.h ****         dst[3] -= tmp[4] * mat[4] + tmp[9] * mat[5] + tmp[10] * mat[6];
 10944              		.loc 2 1106 0
 10945 01be 0598     		ldr	r0, [sp, #20]	@ float
 10946 01c0 A047     		blx	r4
 10947              	.LVL1545:
 10948 01c2 4146     		mov	r1, r8
 10949 01c4 8346     		mov	fp, r0
 10950 01c6 0898     		ldr	r0, [sp, #32]	@ float
 10951 01c8 A047     		blx	r4
 10952              	.LVL1546:
 10953 01ca 0146     		mov	r1, r0
 10954 01cc 5846     		mov	r0, fp
 10955 01ce A847     		blx	r5
 10956              	.LVL1547:
 10957 01d0 3946     		mov	r1, r7
 10958 01d2 8346     		mov	fp, r0
 10959 01d4 0B98     		ldr	r0, [sp, #44]	@ float
 10960 01d6 A047     		blx	r4
 10961              	.LVL1548:
 10962 01d8 0146     		mov	r1, r0
 10963 01da 5846     		mov	r0, fp
 10964 01dc A847     		blx	r5
 10965              	.LVL1549:
1107:/home/tienluong/workspace/atlantis_fw/AsicFwS2/include/matrix.h **** 
 10966              		.loc 2 1107 0
 10967 01de 4946     		mov	r1, r9
1106:/home/tienluong/workspace/atlantis_fw/AsicFwS2/include/matrix.h ****         dst[3] -= tmp[4] * mat[4] + tmp[9] * mat[5] + tmp[10] * mat[6];
 10968              		.loc 2 1106 0
 10969 01e0 8346     		mov	fp, r0
1107:/home/tienluong/workspace/atlantis_fw/AsicFwS2/include/matrix.h **** 
 10970              		.loc 2 1107 0
 10971 01e2 0498     		ldr	r0, [sp, #16]	@ float
 10972 01e4 A047     		blx	r4
 10973              	.LVL1550:
 10974 01e6 4146     		mov	r1, r8
 10975 01e8 8146     		mov	r9, r0
 10976              	.LVL1551:
 10977 01ea 0998     		ldr	r0, [sp, #36]	@ float
 10978 01ec A047     		blx	r4
 10979              	.LVL1552:
 10980 01ee 0146     		mov	r1, r0
 10981 01f0 4846     		mov	r0, r9
 10982 01f2 A847     		blx	r5
 10983              	.LVL1553:
 10984 01f4 3946     		mov	r1, r7
 10985 01f6 8046     		mov	r8, r0
 10986 01f8 0A98     		ldr	r0, [sp, #40]	@ float
 10987 01fa A047     		blx	r4
 10988              	.LVL1554:
 10989 01fc 0146     		mov	r1, r0
 10990 01fe 4046     		mov	r0, r8
 10991 0200 A847     		blx	r5
 10992              	.LVL1555:
 10993 0202 074B     		ldr	r3, .L285+8
 10994 0204 0146     		mov	r1, r0
 10995 0206 5846     		mov	r0, fp
 10996 0208 9847     		blx	r3
 10997              	.LVL1556:
1110:/home/tienluong/workspace/atlantis_fw/AsicFwS2/include/matrix.h ****     }
 10998              		.loc 2 1110 0
 10999 020a F168     		ldr	r1, [r6, #12]	@ float
 11000 020c A047     		blx	r4
 11001              	.LVL1557:
 11002 020e 0146     		mov	r1, r0
 11003 0210 5046     		mov	r0, r10
 11004 0212 A847     		blx	r5
 11005              	.LVL1558:
 11006              	.LBE2284:
1111:/home/tienluong/workspace/atlantis_fw/AsicFwS2/include/matrix.h **** };
 11007              		.loc 2 1111 0
 11008 0214 0FB0     		add	sp, sp, #60
 11009              	.LCFI96:
 11010              		.cfi_def_cfa_offset 36
 11011              		@ sp needed
 11012 0216 05E0     		b	.L286
 11013              	.L287:
 11014              		.align	2
 11015              	.L285:
 11016 0218 00000000 		.word	__aeabi_fmul
 11017 021c 00000000 		.word	__aeabi_fadd
 11018 0220 00000000 		.word	__aeabi_fsub
 11019              	.L286:
 11020 0224 BDE8F08F 		pop	{r4, r5, r6, r7, r8, r9, r10, fp, pc}
 11021              		.cfi_endproc
 11022              	.LFE3579:
 11024              		.section	.text._ZN4ltaf11determinantIfLi4ELb1EEET_RKNS_6MatrixIS1_XT0_EXT0_EXT1_EEE,"axG",%progbit
 11025              		.align	1
 11026              		.weak	_ZN4ltaf11determinantIfLi4ELb1EEET_RKNS_6MatrixIS1_XT0_EXT0_EXT1_EEE
 11027              		.thumb
 11028              		.thumb_func
 11030              	_ZN4ltaf11determinantIfLi4ELb1EEET_RKNS_6MatrixIS1_XT0_EXT0_EXT1_EEE:
 11031              	.LFB3394:
1256:/home/tienluong/workspace/atlantis_fw/AsicFwS2/include/matrix.h **** {
 11032              		.loc 2 1256 0
 11033              		.cfi_startproc
 11034              		@ args = 0, pretend = 0, frame = 8
 11035              		@ frame_needed = 0, uses_anonymous_args = 0
 11036              	.LVL1559:
 11037 0000 07B5     		push	{r0, r1, r2, lr}
 11038              	.LCFI97:
 11039              		.cfi_def_cfa_offset 16
 11040              		.cfi_offset 14, -4
 11041              	.LBB2285:
1259:/home/tienluong/workspace/atlantis_fw/AsicFwS2/include/matrix.h **** }
 11042              		.loc 2 1259 0
 11043 0002 034B     		ldr	r3, .L289
 11044              	.LBE2285:
1256:/home/tienluong/workspace/atlantis_fw/AsicFwS2/include/matrix.h **** {
 11045              		.loc 2 1256 0
 11046 0004 0146     		mov	r1, r0
 11047              	.LVL1560:
 11048              	.LBB2286:
1259:/home/tienluong/workspace/atlantis_fw/AsicFwS2/include/matrix.h **** }
 11049              		.loc 2 1259 0
 11050 0006 01A8     		add	r0, sp, #4
 11051              	.LVL1561:
 11052 0008 9847     		blx	r3
 11053              	.LVL1562:
 11054              	.LBE2286:
 11055              		.loc 2 1260 0
 11056 000a 03B0     		add	sp, sp, #12
 11057              	.LCFI98:
 11058              		.cfi_def_cfa_offset 4
 11059              		@ sp needed
 11060 000c 5DF804FB 		ldr	pc, [sp], #4
 11061              	.L290:
 11062              		.align	2
 11063              	.L289:
 11064 0010 00000000 		.word	_ZNK4ltaf17MatrixDeterminantIfLi4EEclEPKf
 11065              		.cfi_endproc
 11066              	.LFE3394:
 11068              		.section	.text._ZN4ltaf11determinantIfLi4ELb0EEET_RKNS_6MatrixIS1_XT0_EXT0_EXT1_EEE,"axG",%progbit
 11069              		.align	1
 11070              		.weak	_ZN4ltaf11determinantIfLi4ELb0EEET_RKNS_6MatrixIS1_XT0_EXT0_EXT1_EEE
 11071              		.thumb
 11072              		.thumb_func
 11074              	_ZN4ltaf11determinantIfLi4ELb0EEET_RKNS_6MatrixIS1_XT0_EXT0_EXT1_EEE:
 11075              	.LFB3397:
1256:/home/tienluong/workspace/atlantis_fw/AsicFwS2/include/matrix.h **** {
 11076              		.loc 2 1256 0
 11077              		.cfi_startproc
 11078              		@ args = 0, pretend = 0, frame = 8
 11079              		@ frame_needed = 0, uses_anonymous_args = 0
 11080              	.LVL1563:
 11081 0000 07B5     		push	{r0, r1, r2, lr}
 11082              	.LCFI99:
 11083              		.cfi_def_cfa_offset 16
 11084              		.cfi_offset 14, -4
 11085              	.LBB2287:
1259:/home/tienluong/workspace/atlantis_fw/AsicFwS2/include/matrix.h **** }
 11086              		.loc 2 1259 0
 11087 0002 034B     		ldr	r3, .L292
 11088              	.LBE2287:
1256:/home/tienluong/workspace/atlantis_fw/AsicFwS2/include/matrix.h **** {
 11089              		.loc 2 1256 0
 11090 0004 0146     		mov	r1, r0
 11091              	.LVL1564:
 11092              	.LBB2288:
1259:/home/tienluong/workspace/atlantis_fw/AsicFwS2/include/matrix.h **** }
 11093              		.loc 2 1259 0
 11094 0006 01A8     		add	r0, sp, #4
 11095              	.LVL1565:
 11096 0008 9847     		blx	r3
 11097              	.LVL1566:
 11098              	.LBE2288:
 11099              		.loc 2 1260 0
 11100 000a 03B0     		add	sp, sp, #12
 11101              	.LCFI100:
 11102              		.cfi_def_cfa_offset 4
 11103              		@ sp needed
 11104 000c 5DF804FB 		ldr	pc, [sp], #4
 11105              	.L293:
 11106              		.align	2
 11107              	.L292:
 11108 0010 00000000 		.word	_ZNK4ltaf17MatrixDeterminantIfLi4EEclEPKf
 11109              		.cfi_endproc
 11110              	.LFE3397:
 11112              		.section	.text._ZNK4ltaf17MatrixDeterminantIdLi3EEclEPKd,"axG",%progbits,_ZNK4ltaf17MatrixDetermin
 11113              		.align	1
 11114              		.weak	_ZNK4ltaf17MatrixDeterminantIdLi3EEclEPKd
 11115              		.thumb
 11116              		.thumb_func
 11118              	_ZNK4ltaf17MatrixDeterminantIdLi3EEclEPKd:
 11119              	.LFB3586:
1069:/home/tienluong/workspace/atlantis_fw/AsicFwS2/include/matrix.h ****     {
 11120              		.loc 2 1069 0
 11121              		.cfi_startproc
 11122              		@ args = 0, pretend = 0, frame = 48
 11123              		@ frame_needed = 0, uses_anonymous_args = 0
 11124              	.LVL1567:
 11125 0000 2DE9F047 		push	{r4, r5, r6, r7, r8, r9, r10, lr}
 11126              	.LCFI101:
 11127              		.cfi_def_cfa_offset 32
 11128              		.cfi_offset 4, -32
 11129              		.cfi_offset 5, -28
 11130              		.cfi_offset 6, -24
 11131              		.cfi_offset 7, -20
 11132              		.cfi_offset 8, -16
 11133              		.cfi_offset 9, -12
 11134              		.cfi_offset 10, -8
 11135              		.cfi_offset 14, -4
 11136 0004 8CB0     		sub	sp, sp, #48
 11137              	.LCFI102:
 11138              		.cfi_def_cfa_offset 80
1073:/home/tienluong/workspace/atlantis_fw/AsicFwS2/include/matrix.h ****     }
 11139              		.loc 2 1073 0
 11140 0006 D1E90823 		ldrd	r2, [r1, #32]
1069:/home/tienluong/workspace/atlantis_fw/AsicFwS2/include/matrix.h ****     {
 11141              		.loc 2 1069 0
 11142 000a 0D46     		mov	r5, r1
1073:/home/tienluong/workspace/atlantis_fw/AsicFwS2/include/matrix.h ****     }
 11143              		.loc 2 1073 0
 11144 000c CDE90023 		strd	r2, [sp]
 11145 0010 D1E90E23 		ldrd	r2, [r1, #56]
 11146 0014 CDE90223 		strd	r2, [sp, #8]
 11147 0018 D1E90A23 		ldrd	r2, [r1, #40]
 11148 001c CDE90423 		strd	r2, [sp, #16]
 11149 0020 D1E90623 		ldrd	r2, [r1, #24]
 11150 0024 D1E91089 		ldrd	r8, [r1, #64]
 11151 0028 CDE90623 		strd	r2, [sp, #24]
 11152 002c D1E90C23 		ldrd	r2, [r1, #48]
 11153 0030 294C     		ldr	r4, .L295
 11154 0032 CDE90823 		strd	r2, [sp, #32]
 11155 0036 4246     		mov	r2, r8
 11156 0038 DDE90001 		ldrd	r0, [sp]
 11157              	.LVL1568:
 11158 003c 4B46     		mov	r3, r9
 11159 003e A047     		blx	r4
 11160              	.LVL1569:
 11161 0040 DDE90423 		ldrd	r2, [sp, #16]
 11162 0044 DFF898A0 		ldr	r10, .L295+8
 11163 0048 0646     		mov	r6, r0
 11164 004a 0F46     		mov	r7, r1
 11165 004c DDE90201 		ldrd	r0, [sp, #8]
 11166 0050 A047     		blx	r4
 11167              	.LVL1570:
 11168 0052 0246     		mov	r2, r0
 11169 0054 0B46     		mov	r3, r1
 11170 0056 3046     		mov	r0, r6
 11171 0058 3946     		mov	r1, r7
 11172 005a D047     		blx	r10
 11173              	.LVL1571:
 11174 005c D5E90023 		ldrd	r2, [r5]
 11175 0060 A047     		blx	r4
 11176              	.LVL1572:
 11177 0062 4246     		mov	r2, r8
 11178 0064 4B46     		mov	r3, r9
 11179 0066 CDE90A01 		strd	r0, [sp, #40]
 11180 006a DDE90601 		ldrd	r0, [sp, #24]
 11181 006e A047     		blx	r4
 11182              	.LVL1573:
 11183 0070 DDE90823 		ldrd	r2, [sp, #32]
 11184 0074 0646     		mov	r6, r0
 11185 0076 0F46     		mov	r7, r1
 11186 0078 DDE90401 		ldrd	r0, [sp, #16]
 11187 007c A047     		blx	r4
 11188              	.LVL1574:
 11189 007e 0246     		mov	r2, r0
 11190 0080 0B46     		mov	r3, r1
 11191 0082 3046     		mov	r0, r6
 11192 0084 3946     		mov	r1, r7
 11193 0086 D047     		blx	r10
 11194              	.LVL1575:
 11195 0088 D5E90223 		ldrd	r2, [r5, #8]
 11196 008c A047     		blx	r4
 11197              	.LVL1576:
 11198 008e 0246     		mov	r2, r0
 11199 0090 0B46     		mov	r3, r1
 11200 0092 DDE90A01 		ldrd	r0, [sp, #40]
 11201 0096 D047     		blx	r10
 11202              	.LVL1577:
 11203 0098 DDE90223 		ldrd	r2, [sp, #8]
 11204 009c 0646     		mov	r6, r0
 11205 009e 0F46     		mov	r7, r1
 11206 00a0 DDE90601 		ldrd	r0, [sp, #24]
 11207 00a4 A047     		blx	r4
 11208              	.LVL1578:
 11209 00a6 DDE90823 		ldrd	r2, [sp, #32]
 11210 00aa 8046     		mov	r8, r0
 11211 00ac 8946     		mov	r9, r1
 11212 00ae DDE90001 		ldrd	r0, [sp]
 11213 00b2 A047     		blx	r4
 11214              	.LVL1579:
 11215 00b4 0246     		mov	r2, r0
 11216 00b6 0B46     		mov	r3, r1
 11217 00b8 4046     		mov	r0, r8
 11218 00ba 4946     		mov	r1, r9
 11219 00bc D047     		blx	r10
 11220              	.LVL1580:
 11221 00be D5E90423 		ldrd	r2, [r5, #16]
 11222 00c2 A047     		blx	r4
 11223              	.LVL1581:
 11224 00c4 054C     		ldr	r4, .L295+4
 11225 00c6 0246     		mov	r2, r0
 11226 00c8 0B46     		mov	r3, r1
 11227 00ca 3046     		mov	r0, r6
 11228 00cc 3946     		mov	r1, r7
 11229 00ce A047     		blx	r4
 11230              	.LVL1582:
1074:/home/tienluong/workspace/atlantis_fw/AsicFwS2/include/matrix.h **** };
 11231              		.loc 2 1074 0
 11232 00d0 0CB0     		add	sp, sp, #48
 11233              	.LCFI103:
 11234              		.cfi_def_cfa_offset 32
 11235              		@ sp needed
 11236 00d2 BDE8F087 		pop	{r4, r5, r6, r7, r8, r9, r10, pc}
 11237              	.LVL1583:
 11238              	.L296:
 11239 00d6 00BF     		.align	2
 11240              	.L295:
 11241 00d8 00000000 		.word	__aeabi_dmul
 11242 00dc 00000000 		.word	__aeabi_dadd
 11243 00e0 00000000 		.word	__aeabi_dsub
 11244              		.cfi_endproc
 11245              	.LFE3586:
 11247              		.section	.text._ZN4ltaf11determinantIdLi3ELb1EEET_RKNS_6MatrixIS1_XT0_EXT0_EXT1_EEE,"axG",%progbit
 11248              		.align	1
 11249              		.weak	_ZN4ltaf11determinantIdLi3ELb1EEET_RKNS_6MatrixIS1_XT0_EXT0_EXT1_EEE
 11250              		.thumb
 11251              		.thumb_func
 11253              	_ZN4ltaf11determinantIdLi3ELb1EEET_RKNS_6MatrixIS1_XT0_EXT0_EXT1_EEE:
 11254              	.LFB3399:
1256:/home/tienluong/workspace/atlantis_fw/AsicFwS2/include/matrix.h **** {
 11255              		.loc 2 1256 0
 11256              		.cfi_startproc
 11257              		@ args = 0, pretend = 0, frame = 8
 11258              		@ frame_needed = 0, uses_anonymous_args = 0
 11259              	.LVL1584:
 11260 0000 07B5     		push	{r0, r1, r2, lr}
 11261              	.LCFI104:
 11262              		.cfi_def_cfa_offset 16
 11263              		.cfi_offset 14, -4
 11264              	.LBB2289:
1259:/home/tienluong/workspace/atlantis_fw/AsicFwS2/include/matrix.h **** }
 11265              		.loc 2 1259 0
 11266 0002 034B     		ldr	r3, .L298
 11267              	.LBE2289:
1256:/home/tienluong/workspace/atlantis_fw/AsicFwS2/include/matrix.h **** {
 11268              		.loc 2 1256 0
 11269 0004 0146     		mov	r1, r0
 11270              	.LVL1585:
 11271              	.LBB2290:
1259:/home/tienluong/workspace/atlantis_fw/AsicFwS2/include/matrix.h **** }
 11272              		.loc 2 1259 0
 11273 0006 01A8     		add	r0, sp, #4
 11274              	.LVL1586:
 11275 0008 9847     		blx	r3
 11276              	.LVL1587:
 11277              	.LBE2290:
 11278              		.loc 2 1260 0
 11279 000a 03B0     		add	sp, sp, #12
 11280              	.LCFI105:
 11281              		.cfi_def_cfa_offset 4
 11282              		@ sp needed
 11283 000c 5DF804FB 		ldr	pc, [sp], #4
 11284              	.L299:
 11285              		.align	2
 11286              	.L298:
 11287 0010 00000000 		.word	_ZNK4ltaf17MatrixDeterminantIdLi3EEclEPKd
 11288              		.cfi_endproc
 11289              	.LFE3399:
 11291              		.section	.text._ZN4ltaf11determinantIdLi3ELb0EEET_RKNS_6MatrixIS1_XT0_EXT0_EXT1_EEE,"axG",%progbit
 11292              		.align	1
 11293              		.weak	_ZN4ltaf11determinantIdLi3ELb0EEET_RKNS_6MatrixIS1_XT0_EXT0_EXT1_EEE
 11294              		.thumb
 11295              		.thumb_func
 11297              	_ZN4ltaf11determinantIdLi3ELb0EEET_RKNS_6MatrixIS1_XT0_EXT0_EXT1_EEE:
 11298              	.LFB3402:
1256:/home/tienluong/workspace/atlantis_fw/AsicFwS2/include/matrix.h **** {
 11299              		.loc 2 1256 0
 11300              		.cfi_startproc
 11301              		@ args = 0, pretend = 0, frame = 8
 11302              		@ frame_needed = 0, uses_anonymous_args = 0
 11303              	.LVL1588:
 11304 0000 07B5     		push	{r0, r1, r2, lr}
 11305              	.LCFI106:
 11306              		.cfi_def_cfa_offset 16
 11307              		.cfi_offset 14, -4
 11308              	.LBB2291:
1259:/home/tienluong/workspace/atlantis_fw/AsicFwS2/include/matrix.h **** }
 11309              		.loc 2 1259 0
 11310 0002 034B     		ldr	r3, .L301
 11311              	.LBE2291:
1256:/home/tienluong/workspace/atlantis_fw/AsicFwS2/include/matrix.h **** {
 11312              		.loc 2 1256 0
 11313 0004 0146     		mov	r1, r0
 11314              	.LVL1589:
 11315              	.LBB2292:
1259:/home/tienluong/workspace/atlantis_fw/AsicFwS2/include/matrix.h **** }
 11316              		.loc 2 1259 0
 11317 0006 01A8     		add	r0, sp, #4
 11318              	.LVL1590:
 11319 0008 9847     		blx	r3
 11320              	.LVL1591:
 11321              	.LBE2292:
 11322              		.loc 2 1260 0
 11323 000a 03B0     		add	sp, sp, #12
 11324              	.LCFI107:
 11325              		.cfi_def_cfa_offset 4
 11326              		@ sp needed
 11327 000c 5DF804FB 		ldr	pc, [sp], #4
 11328              	.L302:
 11329              		.align	2
 11330              	.L301:
 11331 0010 00000000 		.word	_ZNK4ltaf17MatrixDeterminantIdLi3EEclEPKd
 11332              		.cfi_endproc
 11333              	.LFE3402:
 11335              		.section	.text._ZNK4ltaf17MatrixDeterminantIdLi4EEclEPKd,"axG",%progbits,_ZNK4ltaf17MatrixDetermin
 11336              		.align	1
 11337              		.weak	_ZNK4ltaf17MatrixDeterminantIdLi4EEclEPKd
 11338              		.thumb
 11339              		.thumb_func
 11341              	_ZNK4ltaf17MatrixDeterminantIdLi4EEclEPKd:
 11342              	.LFB3588:
1080:/home/tienluong/workspace/atlantis_fw/AsicFwS2/include/matrix.h ****     {
 11343              		.loc 2 1080 0
 11344              		.cfi_startproc
 11345              		@ args = 0, pretend = 0, frame = 128
 11346              		@ frame_needed = 0, uses_anonymous_args = 0
 11347              	.LVL1592:
 11348 0000 2DE9F04F 		push	{r4, r5, r6, r7, r8, r9, r10, fp, lr}
 11349              	.LCFI108:
 11350              		.cfi_def_cfa_offset 36
 11351              		.cfi_offset 4, -36
 11352              		.cfi_offset 5, -32
 11353              		.cfi_offset 6, -28
 11354              		.cfi_offset 7, -24
 11355              		.cfi_offset 8, -20
 11356              		.cfi_offset 9, -16
 11357              		.cfi_offset 10, -12
 11358              		.cfi_offset 11, -8
 11359              		.cfi_offset 14, -4
 11360 0004 A1B0     		sub	sp, sp, #132
 11361              	.LCFI109:
 11362              		.cfi_def_cfa_offset 168
 11363              	.LBB2293:
1086:/home/tienluong/workspace/atlantis_fw/AsicFwS2/include/matrix.h ****         tmp[1] = mat[11] * mat[14];
 11364              		.loc 2 1086 0
 11365 0006 D1E91E67 		ldrd	r6, [r1, #120]
 11366              	.LBE2293:
1080:/home/tienluong/workspace/atlantis_fw/AsicFwS2/include/matrix.h ****     {
 11367              		.loc 2 1080 0
 11368 000a 8A46     		mov	r10, r1
 11369              	.LBB2294:
1086:/home/tienluong/workspace/atlantis_fw/AsicFwS2/include/matrix.h ****         tmp[1] = mat[11] * mat[14];
 11370              		.loc 2 1086 0
 11371 000c D1E91423 		ldrd	r2, [r1, #80]
 11372 0010 984C     		ldr	r4, .L304
 11373 0012 1046     		mov	r0, r2
 11374              	.LVL1593:
 11375 0014 CDE90023 		strd	r2, [sp]
 11376 0018 1946     		mov	r1, r3
 11377              	.LVL1594:
 11378 001a 3246     		mov	r2, r6
 11379 001c 3B46     		mov	r3, r7
 11380 001e A047     		blx	r4
 11381              	.LVL1595:
1087:/home/tienluong/workspace/atlantis_fw/AsicFwS2/include/matrix.h ****         tmp[2] = mat[9] * mat[15];
 11382              		.loc 2 1087 0
 11383 0020 DAE91623 		ldrd	r2, [r10, #88]
 11384 0024 CDE90223 		strd	r2, [sp, #8]
 11385 0028 DAE91C23 		ldrd	r2, [r10, #112]
 11386 002c CDE90423 		strd	r2, [sp, #16]
1100:/home/tienluong/workspace/atlantis_fw/AsicFwS2/include/matrix.h ****         dst[0] -= tmp[1] * mat[5] + tmp[2] * mat[6] + tmp[5]  * mat[7];
 11387              		.loc 2 1100 0
 11388 0030 914D     		ldr	r5, .L304+4
1101:/home/tienluong/workspace/atlantis_fw/AsicFwS2/include/matrix.h ****         dst[1]  = tmp[1] * mat[4] + tmp[6] * mat[6] + tmp[9]  * mat[7];
 11389              		.loc 2 1101 0
 11390 0032 DFF848B2 		ldr	fp, .L304+8
1086:/home/tienluong/workspace/atlantis_fw/AsicFwS2/include/matrix.h ****         tmp[1] = mat[11] * mat[14];
 11391              		.loc 2 1086 0
 11392 0036 CDE90A01 		strd	r0, [sp, #40]
 11393              	.LVL1596:
1087:/home/tienluong/workspace/atlantis_fw/AsicFwS2/include/matrix.h ****         tmp[2] = mat[9] * mat[15];
 11394              		.loc 2 1087 0
 11395 003a DDE90201 		ldrd	r0, [sp, #8]
 11396              	.LVL1597:
 11397 003e A047     		blx	r4
 11398              	.LVL1598:
1088:/home/tienluong/workspace/atlantis_fw/AsicFwS2/include/matrix.h ****         tmp[3] = mat[11] * mat[13];
 11399              		.loc 2 1088 0
 11400 0040 DAE91223 		ldrd	r2, [r10, #72]
 11401 0044 CDE90623 		strd	r2, [sp, #24]
1087:/home/tienluong/workspace/atlantis_fw/AsicFwS2/include/matrix.h ****         tmp[2] = mat[9] * mat[15];
 11402              		.loc 2 1087 0
 11403 0048 CDE90C01 		strd	r0, [sp, #48]
 11404              	.LVL1599:
1088:/home/tienluong/workspace/atlantis_fw/AsicFwS2/include/matrix.h ****         tmp[3] = mat[11] * mat[13];
 11405              		.loc 2 1088 0
 11406 004c 1046     		mov	r0, r2
 11407              	.LVL1600:
 11408 004e 1946     		mov	r1, r3
 11409 0050 3246     		mov	r2, r6
 11410 0052 3B46     		mov	r3, r7
 11411 0054 A047     		blx	r4
 11412              	.LVL1601:
1089:/home/tienluong/workspace/atlantis_fw/AsicFwS2/include/matrix.h ****         tmp[4] = mat[9] * mat[14];
 11413              		.loc 2 1089 0
 11414 0056 DAE91A23 		ldrd	r2, [r10, #104]
 11415 005a CDE90823 		strd	r2, [sp, #32]
1088:/home/tienluong/workspace/atlantis_fw/AsicFwS2/include/matrix.h ****         tmp[3] = mat[11] * mat[13];
 11416              		.loc 2 1088 0
 11417 005e CDE90E01 		strd	r0, [sp, #56]
 11418              	.LVL1602:
1089:/home/tienluong/workspace/atlantis_fw/AsicFwS2/include/matrix.h ****         tmp[4] = mat[9] * mat[14];
 11419              		.loc 2 1089 0
 11420 0062 DDE90201 		ldrd	r0, [sp, #8]
 11421              	.LVL1603:
 11422 0066 A047     		blx	r4
 11423              	.LVL1604:
1090:/home/tienluong/workspace/atlantis_fw/AsicFwS2/include/matrix.h ****         tmp[5] = mat[10] * mat[13];
 11424              		.loc 2 1090 0
 11425 0068 DDE90423 		ldrd	r2, [sp, #16]
1089:/home/tienluong/workspace/atlantis_fw/AsicFwS2/include/matrix.h ****         tmp[4] = mat[9] * mat[14];
 11426              		.loc 2 1089 0
 11427 006c CDE91001 		strd	r0, [sp, #64]
 11428              	.LVL1605:
1090:/home/tienluong/workspace/atlantis_fw/AsicFwS2/include/matrix.h ****         tmp[5] = mat[10] * mat[13];
 11429              		.loc 2 1090 0
 11430 0070 DDE90601 		ldrd	r0, [sp, #24]
 11431              	.LVL1606:
 11432 0074 A047     		blx	r4
 11433              	.LVL1607:
1091:/home/tienluong/workspace/atlantis_fw/AsicFwS2/include/matrix.h ****         tmp[6] = mat[8] * mat[15];
 11434              		.loc 2 1091 0
 11435 0076 DDE90823 		ldrd	r2, [sp, #32]
1090:/home/tienluong/workspace/atlantis_fw/AsicFwS2/include/matrix.h ****         tmp[5] = mat[10] * mat[13];
 11436              		.loc 2 1090 0
 11437 007a CDE91201 		strd	r0, [sp, #72]
1091:/home/tienluong/workspace/atlantis_fw/AsicFwS2/include/matrix.h ****         tmp[6] = mat[8] * mat[15];
 11438              		.loc 2 1091 0
 11439 007e DDE90001 		ldrd	r0, [sp]
 11440 0082 A047     		blx	r4
 11441              	.LVL1608:
1092:/home/tienluong/workspace/atlantis_fw/AsicFwS2/include/matrix.h ****         tmp[7] = mat[11] * mat[12];
 11442              		.loc 2 1092 0
 11443 0084 DAE91089 		ldrd	r8, [r10, #64]
 11444 0088 3246     		mov	r2, r6
 11445 008a 3B46     		mov	r3, r7
1091:/home/tienluong/workspace/atlantis_fw/AsicFwS2/include/matrix.h ****         tmp[6] = mat[8] * mat[15];
 11446              		.loc 2 1091 0
 11447 008c CDE91401 		strd	r0, [sp, #80]
1092:/home/tienluong/workspace/atlantis_fw/AsicFwS2/include/matrix.h ****         tmp[7] = mat[11] * mat[12];
 11448              		.loc 2 1092 0
 11449 0090 4046     		mov	r0, r8
 11450 0092 4946     		mov	r1, r9
 11451 0094 A047     		blx	r4
 11452              	.LVL1609:
1093:/home/tienluong/workspace/atlantis_fw/AsicFwS2/include/matrix.h ****         tmp[8] = mat[8] * mat[14];
 11453              		.loc 2 1093 0
 11454 0096 DAE91867 		ldrd	r6, [r10, #96]
 11455 009a 3246     		mov	r2, r6
 11456 009c 3B46     		mov	r3, r7
1092:/home/tienluong/workspace/atlantis_fw/AsicFwS2/include/matrix.h ****         tmp[7] = mat[11] * mat[12];
 11457              		.loc 2 1092 0
 11458 009e CDE91601 		strd	r0, [sp, #88]
1093:/home/tienluong/workspace/atlantis_fw/AsicFwS2/include/matrix.h ****         tmp[8] = mat[8] * mat[14];
 11459              		.loc 2 1093 0
 11460 00a2 DDE90201 		ldrd	r0, [sp, #8]
 11461 00a6 A047     		blx	r4
 11462              	.LVL1610:
1094:/home/tienluong/workspace/atlantis_fw/AsicFwS2/include/matrix.h ****         tmp[9] = mat[10] * mat[12];
 11463              		.loc 2 1094 0
 11464 00a8 DDE90423 		ldrd	r2, [sp, #16]
1093:/home/tienluong/workspace/atlantis_fw/AsicFwS2/include/matrix.h ****         tmp[8] = mat[8] * mat[14];
 11465              		.loc 2 1093 0
 11466 00ac CDE91801 		strd	r0, [sp, #96]
1094:/home/tienluong/workspace/atlantis_fw/AsicFwS2/include/matrix.h ****         tmp[9] = mat[10] * mat[12];
 11467              		.loc 2 1094 0
 11468 00b0 4046     		mov	r0, r8
 11469 00b2 4946     		mov	r1, r9
 11470 00b4 A047     		blx	r4
 11471              	.LVL1611:
1095:/home/tienluong/workspace/atlantis_fw/AsicFwS2/include/matrix.h ****         tmp[10] = mat[8] * mat[13];
 11472              		.loc 2 1095 0
 11473 00b6 3246     		mov	r2, r6
 11474 00b8 3B46     		mov	r3, r7
1094:/home/tienluong/workspace/atlantis_fw/AsicFwS2/include/matrix.h ****         tmp[9] = mat[10] * mat[12];
 11475              		.loc 2 1094 0
 11476 00ba CDE91A01 		strd	r0, [sp, #104]
1095:/home/tienluong/workspace/atlantis_fw/AsicFwS2/include/matrix.h ****         tmp[10] = mat[8] * mat[13];
 11477              		.loc 2 1095 0
 11478 00be DDE90001 		ldrd	r0, [sp]
 11479 00c2 A047     		blx	r4
 11480              	.LVL1612:
1096:/home/tienluong/workspace/atlantis_fw/AsicFwS2/include/matrix.h ****         tmp[11] = mat[9] * mat[12];
 11481              		.loc 2 1096 0
 11482 00c4 DDE90823 		ldrd	r2, [sp, #32]
1095:/home/tienluong/workspace/atlantis_fw/AsicFwS2/include/matrix.h ****         tmp[10] = mat[8] * mat[13];
 11483              		.loc 2 1095 0
 11484 00c8 CDE91C01 		strd	r0, [sp, #112]
1096:/home/tienluong/workspace/atlantis_fw/AsicFwS2/include/matrix.h ****         tmp[11] = mat[9] * mat[12];
 11485              		.loc 2 1096 0
 11486 00cc 4046     		mov	r0, r8
 11487 00ce 4946     		mov	r1, r9
 11488 00d0 A047     		blx	r4
 11489              	.LVL1613:
1097:/home/tienluong/workspace/atlantis_fw/AsicFwS2/include/matrix.h **** 
 11490              		.loc 2 1097 0
 11491 00d2 3246     		mov	r2, r6
 11492 00d4 3B46     		mov	r3, r7
1096:/home/tienluong/workspace/atlantis_fw/AsicFwS2/include/matrix.h ****         tmp[11] = mat[9] * mat[12];
 11493              		.loc 2 1096 0
 11494 00d6 CDE90801 		strd	r0, [sp, #32]
1097:/home/tienluong/workspace/atlantis_fw/AsicFwS2/include/matrix.h **** 
 11495              		.loc 2 1097 0
 11496 00da DDE90601 		ldrd	r0, [sp, #24]
 11497 00de A047     		blx	r4
 11498              	.LVL1614:
1100:/home/tienluong/workspace/atlantis_fw/AsicFwS2/include/matrix.h ****         dst[0] -= tmp[1] * mat[5] + tmp[2] * mat[6] + tmp[5]  * mat[7];
 11499              		.loc 2 1100 0
 11500 00e0 DAE90A23 		ldrd	r2, [r10, #40]
1097:/home/tienluong/workspace/atlantis_fw/AsicFwS2/include/matrix.h **** 
 11501              		.loc 2 1097 0
 11502 00e4 CDE90601 		strd	r0, [sp, #24]
1100:/home/tienluong/workspace/atlantis_fw/AsicFwS2/include/matrix.h ****         dst[0] -= tmp[1] * mat[5] + tmp[2] * mat[6] + tmp[5]  * mat[7];
 11503              		.loc 2 1100 0
 11504 00e8 CDE90023 		strd	r2, [sp]
 11505 00ec DAE90C23 		ldrd	r2, [r10, #48]
 11506 00f0 CDE90223 		strd	r2, [sp, #8]
1102:/home/tienluong/workspace/atlantis_fw/AsicFwS2/include/matrix.h ****         dst[1] -= tmp[0] * mat[4] + tmp[7] * mat[6] + tmp[8]  * mat[7];
 11507              		.loc 2 1102 0
 11508 00f4 DAE90823 		ldrd	r2, [r10, #32]
 11509 00f8 CDE90423 		strd	r2, [sp, #16]
1100:/home/tienluong/workspace/atlantis_fw/AsicFwS2/include/matrix.h ****         dst[0] -= tmp[1] * mat[5] + tmp[2] * mat[6] + tmp[5]  * mat[7];
 11510              		.loc 2 1100 0
 11511 00fc DDE90A01 		ldrd	r0, [sp, #40]
 11512 0100 DDE90023 		ldrd	r2, [sp]
 11513 0104 A047     		blx	r4
 11514              	.LVL1615:
 11515 0106 DDE90223 		ldrd	r2, [sp, #8]
 11516 010a DAE90E89 		ldrd	r8, [r10, #56]
 11517              	.LVL1616:
 11518 010e 0646     		mov	r6, r0
 11519 0110 0F46     		mov	r7, r1
 11520 0112 DDE91001 		ldrd	r0, [sp, #64]
 11521 0116 A047     		blx	r4
 11522              	.LVL1617:
 11523 0118 0246     		mov	r2, r0
 11524 011a 0B46     		mov	r3, r1
 11525 011c 3046     		mov	r0, r6
 11526 011e 3946     		mov	r1, r7
 11527 0120 A847     		blx	r5
 11528              	.LVL1618:
 11529 0122 4246     		mov	r2, r8
 11530 0124 4B46     		mov	r3, r9
 11531 0126 0646     		mov	r6, r0
 11532 0128 0F46     		mov	r7, r1
 11533 012a DDE91201 		ldrd	r0, [sp, #72]
 11534 012e A047     		blx	r4
 11535              	.LVL1619:
 11536 0130 0246     		mov	r2, r0
 11537 0132 0B46     		mov	r3, r1
 11538 0134 3046     		mov	r0, r6
 11539 0136 3946     		mov	r1, r7
 11540 0138 A847     		blx	r5
 11541              	.LVL1620:
1101:/home/tienluong/workspace/atlantis_fw/AsicFwS2/include/matrix.h ****         dst[1]  = tmp[1] * mat[4] + tmp[6] * mat[6] + tmp[9]  * mat[7];
 11542              		.loc 2 1101 0
 11543 013a DDE90023 		ldrd	r2, [sp]
1100:/home/tienluong/workspace/atlantis_fw/AsicFwS2/include/matrix.h ****         dst[0] -= tmp[1] * mat[5] + tmp[2] * mat[6] + tmp[5]  * mat[7];
 11544              		.loc 2 1100 0
 11545 013e CDE91E01 		strd	r0, [sp, #120]
1101:/home/tienluong/workspace/atlantis_fw/AsicFwS2/include/matrix.h ****         dst[1]  = tmp[1] * mat[4] + tmp[6] * mat[6] + tmp[9]  * mat[7];
 11546              		.loc 2 1101 0
 11547 0142 DDE90C01 		ldrd	r0, [sp, #48]
 11548 0146 A047     		blx	r4
 11549              	.LVL1621:
 11550 0148 DDE90223 		ldrd	r2, [sp, #8]
 11551 014c 0646     		mov	r6, r0
 11552 014e 0F46     		mov	r7, r1
 11553 0150 DDE90E01 		ldrd	r0, [sp, #56]
 11554 0154 A047     		blx	r4
 11555              	.LVL1622:
 11556 0156 0246     		mov	r2, r0
 11557 0158 0B46     		mov	r3, r1
 11558 015a 3046     		mov	r0, r6
 11559 015c 3946     		mov	r1, r7
 11560 015e A847     		blx	r5
 11561              	.LVL1623:
 11562 0160 4246     		mov	r2, r8
 11563 0162 4B46     		mov	r3, r9
 11564 0164 0646     		mov	r6, r0
 11565 0166 0F46     		mov	r7, r1
 11566 0168 DDE91401 		ldrd	r0, [sp, #80]
 11567 016c A047     		blx	r4
 11568              	.LVL1624:
 11569 016e 0246     		mov	r2, r0
 11570 0170 0B46     		mov	r3, r1
 11571 0172 3046     		mov	r0, r6
 11572 0174 3946     		mov	r1, r7
 11573 0176 A847     		blx	r5
 11574              	.LVL1625:
 11575 0178 0246     		mov	r2, r0
 11576 017a 0B46     		mov	r3, r1
 11577 017c DDE91E01 		ldrd	r0, [sp, #120]
 11578 0180 D847     		blx	fp
 11579              	.LVL1626:
1110:/home/tienluong/workspace/atlantis_fw/AsicFwS2/include/matrix.h ****     }
 11580              		.loc 2 1110 0
 11581 0182 DAE90023 		ldrd	r2, [r10]
 11582 0186 A047     		blx	r4
 11583              	.LVL1627:
1102:/home/tienluong/workspace/atlantis_fw/AsicFwS2/include/matrix.h ****         dst[1] -= tmp[0] * mat[4] + tmp[7] * mat[6] + tmp[8]  * mat[7];
 11584              		.loc 2 1102 0
 11585 0188 DDE90423 		ldrd	r2, [sp, #16]
1110:/home/tienluong/workspace/atlantis_fw/AsicFwS2/include/matrix.h ****     }
 11586              		.loc 2 1110 0
 11587 018c CDE91E01 		strd	r0, [sp, #120]
1102:/home/tienluong/workspace/atlantis_fw/AsicFwS2/include/matrix.h ****         dst[1] -= tmp[0] * mat[4] + tmp[7] * mat[6] + tmp[8]  * mat[7];
 11588              		.loc 2 1102 0
 11589 0190 DDE90C01 		ldrd	r0, [sp, #48]
 11590 0194 A047     		blx	r4
 11591              	.LVL1628:
 11592 0196 DDE90223 		ldrd	r2, [sp, #8]
 11593 019a 0646     		mov	r6, r0
 11594 019c 0F46     		mov	r7, r1
 11595 019e DDE91601 		ldrd	r0, [sp, #88]
 11596 01a2 A047     		blx	r4
 11597              	.LVL1629:
 11598 01a4 0246     		mov	r2, r0
 11599 01a6 0B46     		mov	r3, r1
 11600 01a8 3046     		mov	r0, r6
 11601 01aa 3946     		mov	r1, r7
 11602 01ac A847     		blx	r5
 11603              	.LVL1630:
 11604 01ae 4246     		mov	r2, r8
 11605 01b0 4B46     		mov	r3, r9
 11606 01b2 0646     		mov	r6, r0
 11607 01b4 0F46     		mov	r7, r1
 11608 01b6 DDE91C01 		ldrd	r0, [sp, #112]
 11609 01ba A047     		blx	r4
 11610              	.LVL1631:
 11611 01bc 0246     		mov	r2, r0
 11612 01be 0B46     		mov	r3, r1
 11613 01c0 3046     		mov	r0, r6
 11614 01c2 3946     		mov	r1, r7
 11615 01c4 A847     		blx	r5
 11616              	.LVL1632:
1103:/home/tienluong/workspace/atlantis_fw/AsicFwS2/include/matrix.h ****         dst[2]  = tmp[2] * mat[4] + tmp[7] * mat[5] + tmp[10] * mat[7];
 11617              		.loc 2 1103 0
 11618 01c6 DDE90423 		ldrd	r2, [sp, #16]
1102:/home/tienluong/workspace/atlantis_fw/AsicFwS2/include/matrix.h ****         dst[1] -= tmp[0] * mat[4] + tmp[7] * mat[6] + tmp[8]  * mat[7];
 11619              		.loc 2 1102 0
 11620 01ca CDE90C01 		strd	r0, [sp, #48]
 11621              	.LVL1633:
1103:/home/tienluong/workspace/atlantis_fw/AsicFwS2/include/matrix.h ****         dst[2]  = tmp[2] * mat[4] + tmp[7] * mat[5] + tmp[10] * mat[7];
 11622              		.loc 2 1103 0
 11623 01ce DDE90A01 		ldrd	r0, [sp, #40]
 11624 01d2 A047     		blx	r4
 11625              	.LVL1634:
 11626 01d4 DDE90223 		ldrd	r2, [sp, #8]
 11627 01d8 0646     		mov	r6, r0
 11628 01da 0F46     		mov	r7, r1
 11629 01dc DDE91801 		ldrd	r0, [sp, #96]
 11630 01e0 A047     		blx	r4
 11631              	.LVL1635:
 11632 01e2 0246     		mov	r2, r0
 11633 01e4 0B46     		mov	r3, r1
 11634 01e6 3046     		mov	r0, r6
 11635 01e8 3946     		mov	r1, r7
 11636 01ea A847     		blx	r5
 11637              	.LVL1636:
 11638 01ec 4246     		mov	r2, r8
 11639 01ee 4B46     		mov	r3, r9
 11640 01f0 0646     		mov	r6, r0
 11641 01f2 0F46     		mov	r7, r1
 11642 01f4 DDE91A01 		ldrd	r0, [sp, #104]
 11643 01f8 A047     		blx	r4
 11644              	.LVL1637:
 11645 01fa 0246     		mov	r2, r0
 11646 01fc 0B46     		mov	r3, r1
 11647 01fe 3046     		mov	r0, r6
 11648 0200 3946     		mov	r1, r7
 11649 0202 A847     		blx	r5
 11650              	.LVL1638:
 11651 0204 0246     		mov	r2, r0
 11652 0206 0B46     		mov	r3, r1
 11653 0208 DDE90C01 		ldrd	r0, [sp, #48]
 11654 020c D847     		blx	fp
 11655              	.LVL1639:
1110:/home/tienluong/workspace/atlantis_fw/AsicFwS2/include/matrix.h ****     }
 11656              		.loc 2 1110 0
 11657 020e DAE90223 		ldrd	r2, [r10, #8]
 11658 0212 A047     		blx	r4
 11659              	.LVL1640:
 11660 0214 0246     		mov	r2, r0
 11661 0216 0B46     		mov	r3, r1
 11662 0218 DDE91E01 		ldrd	r0, [sp, #120]
 11663 021c A847     		blx	r5
 11664              	.LVL1641:
1104:/home/tienluong/workspace/atlantis_fw/AsicFwS2/include/matrix.h ****         dst[2] -= tmp[3] * mat[4] + tmp[6] * mat[5] + tmp[11] * mat[7];
 11665              		.loc 2 1104 0
 11666 021e DDE90423 		ldrd	r2, [sp, #16]
1110:/home/tienluong/workspace/atlantis_fw/AsicFwS2/include/matrix.h ****     }
 11667              		.loc 2 1110 0
 11668 0222 CDE90A01 		strd	r0, [sp, #40]
 11669              	.LVL1642:
1104:/home/tienluong/workspace/atlantis_fw/AsicFwS2/include/matrix.h ****         dst[2] -= tmp[3] * mat[4] + tmp[6] * mat[5] + tmp[11] * mat[7];
 11670              		.loc 2 1104 0
 11671 0226 DDE90E01 		ldrd	r0, [sp, #56]
 11672 022a A047     		blx	r4
 11673              	.LVL1643:
 11674 022c DDE90023 		ldrd	r2, [sp]
 11675 0230 0646     		mov	r6, r0
 11676 0232 0F46     		mov	r7, r1
 11677 0234 DDE91801 		ldrd	r0, [sp, #96]
 11678 0238 A047     		blx	r4
 11679              	.LVL1644:
 11680 023a 0246     		mov	r2, r0
 11681 023c 0B46     		mov	r3, r1
 11682 023e 3046     		mov	r0, r6
 11683 0240 3946     		mov	r1, r7
 11684 0242 A847     		blx	r5
 11685              	.LVL1645:
 11686 0244 4246     		mov	r2, r8
 11687 0246 4B46     		mov	r3, r9
 11688 0248 0646     		mov	r6, r0
 11689 024a 0F46     		mov	r7, r1
 11690 024c DDE90801 		ldrd	r0, [sp, #32]
 11691 0250 A047     		blx	r4
 11692              	.LVL1646:
 11693 0252 0246     		mov	r2, r0
 11694 0254 0B46     		mov	r3, r1
 11695 0256 3046     		mov	r0, r6
 11696 0258 3946     		mov	r1, r7
 11697 025a A847     		blx	r5
 11698              	.LVL1647:
1105:/home/tienluong/workspace/atlantis_fw/AsicFwS2/include/matrix.h ****         dst[3]  = tmp[5] * mat[4] + tmp[8] * mat[5] + tmp[11] * mat[6];
 11699              		.loc 2 1105 0
 11700 025c DDE90423 		ldrd	r2, [sp, #16]
1104:/home/tienluong/workspace/atlantis_fw/AsicFwS2/include/matrix.h ****         dst[2] -= tmp[3] * mat[4] + tmp[6] * mat[5] + tmp[11] * mat[7];
 11701              		.loc 2 1104 0
 11702 0260 CDE90C01 		strd	r0, [sp, #48]
1105:/home/tienluong/workspace/atlantis_fw/AsicFwS2/include/matrix.h ****         dst[3]  = tmp[5] * mat[4] + tmp[8] * mat[5] + tmp[11] * mat[6];
 11703              		.loc 2 1105 0
 11704 0264 DDE91001 		ldrd	r0, [sp, #64]
 11705 0268 A047     		blx	r4
 11706              	.LVL1648:
 11707 026a DDE90023 		ldrd	r2, [sp]
 11708 026e 0646     		mov	r6, r0
 11709 0270 0F46     		mov	r7, r1
 11710 0272 05E0     		b	.L305
 11711              	.L306:
 11712              		.align	2
 11713              	.L304:
 11714 0274 00000000 		.word	__aeabi_dmul
 11715 0278 00000000 		.word	__aeabi_dadd
 11716 027c 00000000 		.word	__aeabi_dsub
 11717              	.L305:
 11718 0280 DDE91601 		ldrd	r0, [sp, #88]
 11719 0284 A047     		blx	r4
 11720              	.LVL1649:
 11721 0286 0246     		mov	r2, r0
 11722 0288 0B46     		mov	r3, r1
 11723 028a 3046     		mov	r0, r6
 11724 028c 3946     		mov	r1, r7
 11725 028e A847     		blx	r5
 11726              	.LVL1650:
 11727 0290 4246     		mov	r2, r8
 11728 0292 4B46     		mov	r3, r9
 11729 0294 0646     		mov	r6, r0
 11730 0296 0F46     		mov	r7, r1
 11731 0298 DDE90601 		ldrd	r0, [sp, #24]
 11732 029c A047     		blx	r4
 11733              	.LVL1651:
 11734 029e 0246     		mov	r2, r0
 11735 02a0 0B46     		mov	r3, r1
 11736 02a2 3046     		mov	r0, r6
 11737 02a4 3946     		mov	r1, r7
 11738 02a6 A847     		blx	r5
 11739              	.LVL1652:
 11740 02a8 0246     		mov	r2, r0
 11741 02aa 0B46     		mov	r3, r1
 11742 02ac DDE90C01 		ldrd	r0, [sp, #48]
 11743 02b0 D847     		blx	fp
 11744              	.LVL1653:
1110:/home/tienluong/workspace/atlantis_fw/AsicFwS2/include/matrix.h ****     }
 11745              		.loc 2 1110 0
 11746 02b2 DAE90423 		ldrd	r2, [r10, #16]
 11747 02b6 A047     		blx	r4
 11748              	.LVL1654:
 11749 02b8 0246     		mov	r2, r0
 11750 02ba 0B46     		mov	r3, r1
 11751 02bc DDE90A01 		ldrd	r0, [sp, #40]
 11752 02c0 A847     		blx	r5
 11753              	.LVL1655:
1106:/home/tienluong/workspace/atlantis_fw/AsicFwS2/include/matrix.h ****         dst[3] -= tmp[4] * mat[4] + tmp[9] * mat[5] + tmp[10] * mat[6];
 11754              		.loc 2 1106 0
 11755 02c2 DDE90423 		ldrd	r2, [sp, #16]
1110:/home/tienluong/workspace/atlantis_fw/AsicFwS2/include/matrix.h ****     }
 11756              		.loc 2 1110 0
 11757 02c6 CDE90A01 		strd	r0, [sp, #40]
1106:/home/tienluong/workspace/atlantis_fw/AsicFwS2/include/matrix.h ****         dst[3] -= tmp[4] * mat[4] + tmp[9] * mat[5] + tmp[10] * mat[6];
 11758              		.loc 2 1106 0
 11759 02ca DDE91401 		ldrd	r0, [sp, #80]
 11760 02ce A047     		blx	r4
 11761              	.LVL1656:
 11762 02d0 DDE90023 		ldrd	r2, [sp]
 11763 02d4 0646     		mov	r6, r0
 11764 02d6 0F46     		mov	r7, r1
 11765 02d8 DDE91A01 		ldrd	r0, [sp, #104]
 11766 02dc A047     		blx	r4
 11767              	.LVL1657:
 11768 02de 0246     		mov	r2, r0
 11769 02e0 0B46     		mov	r3, r1
 11770 02e2 3046     		mov	r0, r6
 11771 02e4 3946     		mov	r1, r7
 11772 02e6 A847     		blx	r5
 11773              	.LVL1658:
 11774 02e8 DDE90223 		ldrd	r2, [sp, #8]
 11775 02ec 0646     		mov	r6, r0
 11776 02ee 0F46     		mov	r7, r1
 11777 02f0 DDE90601 		ldrd	r0, [sp, #24]
 11778 02f4 A047     		blx	r4
 11779              	.LVL1659:
 11780 02f6 0246     		mov	r2, r0
 11781 02f8 0B46     		mov	r3, r1
 11782 02fa 3046     		mov	r0, r6
 11783 02fc 3946     		mov	r1, r7
 11784 02fe A847     		blx	r5
 11785              	.LVL1660:
1107:/home/tienluong/workspace/atlantis_fw/AsicFwS2/include/matrix.h **** 
 11786              		.loc 2 1107 0
 11787 0300 DDE90423 		ldrd	r2, [sp, #16]
1106:/home/tienluong/workspace/atlantis_fw/AsicFwS2/include/matrix.h ****         dst[3] -= tmp[4] * mat[4] + tmp[9] * mat[5] + tmp[10] * mat[6];
 11788              		.loc 2 1106 0
 11789 0304 8046     		mov	r8, r0
 11790              	.LVL1661:
 11791 0306 8946     		mov	r9, r1
1107:/home/tienluong/workspace/atlantis_fw/AsicFwS2/include/matrix.h **** 
 11792              		.loc 2 1107 0
 11793 0308 DDE91201 		ldrd	r0, [sp, #72]
 11794 030c A047     		blx	r4
 11795              	.LVL1662:
 11796 030e DDE90023 		ldrd	r2, [sp]
 11797 0312 0646     		mov	r6, r0
 11798 0314 0F46     		mov	r7, r1
 11799 0316 DDE91C01 		ldrd	r0, [sp, #112]
 11800 031a A047     		blx	r4
 11801              	.LVL1663:
 11802 031c 0246     		mov	r2, r0
 11803 031e 0B46     		mov	r3, r1
 11804 0320 3046     		mov	r0, r6
 11805 0322 3946     		mov	r1, r7
 11806 0324 A847     		blx	r5
 11807              	.LVL1664:
 11808 0326 0646     		mov	r6, r0
 11809 0328 0F46     		mov	r7, r1
 11810 032a DDE90801 		ldrd	r0, [sp, #32]
 11811 032e DDE90223 		ldrd	r2, [sp, #8]
 11812 0332 A047     		blx	r4
 11813              	.LVL1665:
 11814 0334 0246     		mov	r2, r0
 11815 0336 0B46     		mov	r3, r1
 11816 0338 3046     		mov	r0, r6
 11817 033a 3946     		mov	r1, r7
 11818 033c A847     		blx	r5
 11819              	.LVL1666:
 11820 033e 0246     		mov	r2, r0
 11821 0340 0B46     		mov	r3, r1
 11822 0342 4046     		mov	r0, r8
 11823 0344 4946     		mov	r1, r9
 11824 0346 D847     		blx	fp
 11825              	.LVL1667:
1110:/home/tienluong/workspace/atlantis_fw/AsicFwS2/include/matrix.h ****     }
 11826              		.loc 2 1110 0
 11827 0348 DAE90623 		ldrd	r2, [r10, #24]
 11828 034c A047     		blx	r4
 11829              	.LVL1668:
 11830 034e 0246     		mov	r2, r0
 11831 0350 0B46     		mov	r3, r1
 11832 0352 DDE90A01 		ldrd	r0, [sp, #40]
 11833 0356 A847     		blx	r5
 11834              	.LVL1669:
 11835              	.LBE2294:
1111:/home/tienluong/workspace/atlantis_fw/AsicFwS2/include/matrix.h **** };
 11836              		.loc 2 1111 0
 11837 0358 21B0     		add	sp, sp, #132
 11838              	.LCFI110:
 11839              		.cfi_def_cfa_offset 36
 11840              	.LVL1670:
 11841              		@ sp needed
 11842 035a BDE8F08F 		pop	{r4, r5, r6, r7, r8, r9, r10, fp, pc}
 11843              		.cfi_endproc
 11844              	.LFE3588:
 11846 035e 00BF     		.section	.text._ZN4ltaf11determinantIdLi4ELb1EEET_RKNS_6MatrixIS1_XT0_EXT0_EXT1_EEE,"axG",%progbit
 11847              		.align	1
 11848              		.weak	_ZN4ltaf11determinantIdLi4ELb1EEET_RKNS_6MatrixIS1_XT0_EXT0_EXT1_EEE
 11849              		.thumb
 11850              		.thumb_func
 11852              	_ZN4ltaf11determinantIdLi4ELb1EEET_RKNS_6MatrixIS1_XT0_EXT0_EXT1_EEE:
 11853              	.LFB3400:
1256:/home/tienluong/workspace/atlantis_fw/AsicFwS2/include/matrix.h **** {
 11854              		.loc 2 1256 0
 11855              		.cfi_startproc
 11856              		@ args = 0, pretend = 0, frame = 8
 11857              		@ frame_needed = 0, uses_anonymous_args = 0
 11858              	.LVL1671:
 11859 0000 07B5     		push	{r0, r1, r2, lr}
 11860              	.LCFI111:
 11861              		.cfi_def_cfa_offset 16
 11862              		.cfi_offset 14, -4
 11863              	.LBB2295:
1259:/home/tienluong/workspace/atlantis_fw/AsicFwS2/include/matrix.h **** }
 11864              		.loc 2 1259 0
 11865 0002 034B     		ldr	r3, .L308
 11866              	.LBE2295:
1256:/home/tienluong/workspace/atlantis_fw/AsicFwS2/include/matrix.h **** {
 11867              		.loc 2 1256 0
 11868 0004 0146     		mov	r1, r0
 11869              	.LVL1672:
 11870              	.LBB2296:
1259:/home/tienluong/workspace/atlantis_fw/AsicFwS2/include/matrix.h **** }
 11871              		.loc 2 1259 0
 11872 0006 01A8     		add	r0, sp, #4
 11873              	.LVL1673:
 11874 0008 9847     		blx	r3
 11875              	.LVL1674:
 11876              	.LBE2296:
 11877              		.loc 2 1260 0
 11878 000a 03B0     		add	sp, sp, #12
 11879              	.LCFI112:
 11880              		.cfi_def_cfa_offset 4
 11881              		@ sp needed
 11882 000c 5DF804FB 		ldr	pc, [sp], #4
 11883              	.L309:
 11884              		.align	2
 11885              	.L308:
 11886 0010 00000000 		.word	_ZNK4ltaf17MatrixDeterminantIdLi4EEclEPKd
 11887              		.cfi_endproc
 11888              	.LFE3400:
 11890              		.section	.text._ZN4ltaf11determinantIdLi4ELb0EEET_RKNS_6MatrixIS1_XT0_EXT0_EXT1_EEE,"axG",%progbit
 11891              		.align	1
 11892              		.weak	_ZN4ltaf11determinantIdLi4ELb0EEET_RKNS_6MatrixIS1_XT0_EXT0_EXT1_EEE
 11893              		.thumb
 11894              		.thumb_func
 11896              	_ZN4ltaf11determinantIdLi4ELb0EEET_RKNS_6MatrixIS1_XT0_EXT0_EXT1_EEE:
 11897              	.LFB3403:
1256:/home/tienluong/workspace/atlantis_fw/AsicFwS2/include/matrix.h **** {
 11898              		.loc 2 1256 0
 11899              		.cfi_startproc
 11900              		@ args = 0, pretend = 0, frame = 8
 11901              		@ frame_needed = 0, uses_anonymous_args = 0
 11902              	.LVL1675:
 11903 0000 07B5     		push	{r0, r1, r2, lr}
 11904              	.LCFI113:
 11905              		.cfi_def_cfa_offset 16
 11906              		.cfi_offset 14, -4
 11907              	.LBB2297:
1259:/home/tienluong/workspace/atlantis_fw/AsicFwS2/include/matrix.h **** }
 11908              		.loc 2 1259 0
 11909 0002 034B     		ldr	r3, .L311
 11910              	.LBE2297:
1256:/home/tienluong/workspace/atlantis_fw/AsicFwS2/include/matrix.h **** {
 11911              		.loc 2 1256 0
 11912 0004 0146     		mov	r1, r0
 11913              	.LVL1676:
 11914              	.LBB2298:
1259:/home/tienluong/workspace/atlantis_fw/AsicFwS2/include/matrix.h **** }
 11915              		.loc 2 1259 0
 11916 0006 01A8     		add	r0, sp, #4
 11917              	.LVL1677:
 11918 0008 9847     		blx	r3
 11919              	.LVL1678:
 11920              	.LBE2298:
 11921              		.loc 2 1260 0
 11922 000a 03B0     		add	sp, sp, #12
 11923              	.LCFI114:
 11924              		.cfi_def_cfa_offset 4
 11925              		@ sp needed
 11926 000c 5DF804FB 		ldr	pc, [sp], #4
 11927              	.L312:
 11928              		.align	2
 11929              	.L311:
 11930 0010 00000000 		.word	_ZNK4ltaf17MatrixDeterminantIdLi4EEclEPKd
 11931              		.cfi_endproc
 11932              	.LFE3403:
 11934              		.weak	_ZTVN4ltaf9CalibDataE
 11935              		.section	.rodata._ZTVN4ltaf9CalibDataE,"aG",%progbits,_ZTVN4ltaf9CalibDataE,comdat
 11936              		.align	3
 11939              	_ZTVN4ltaf9CalibDataE:
 11940 0000 00000000 		.word	0
 11941 0004 00000000 		.word	0
 11942 0008 00000000 		.word	_ZN4ltaf9CalibDataD1Ev
 11943 000c 00000000 		.word	_ZN4ltaf9CalibDataD0Ev
 11944              		.weak	_ZTVN4ltaf16CalibDataWMirrorE
 11945              		.section	.rodata._ZTVN4ltaf16CalibDataWMirrorE,"aG",%progbits,_ZTVN4ltaf16CalibDataWMirrorE,comdat
 11946              		.align	3
 11949              	_ZTVN4ltaf16CalibDataWMirrorE:
 11950 0000 00000000 		.word	0
 11951 0004 00000000 		.word	0
 11952 0008 00000000 		.word	_ZN4ltaf16CalibDataWMirrorD1Ev
 11953 000c 00000000 		.word	_ZN4ltaf16CalibDataWMirrorD0Ev
 11954              		.section	.rodata
 11955              		.align	2
 11956              		.set	.LANCHOR15,. + 0
 11957              	.LC14:
 11958 0000 00C0B443 		.word	1135919104
 11959 0004 B5287143 		.word	1131489461
 11960 0008 82632B42 		.word	1110139778
 11961 000c D3595F40 		.word	1079990739
 11962 0010 0054E33B 		.word	1004753920
 11963 0014 FB02803F 		.word	1065353979
 11964 0018 007FAABB 		.word	-1146454272
 11965 001c 01       		.byte	1
 11966 001d 000000   		.space	3
 11967              	.LC17:
 11968 0020 00007743 		.word	1131872256
 11969 0024 35040E43 		.word	1124992053
 11970 0028 83573042 		.word	1110464387
 11971 002c 58F7EB3F 		.word	1072428888
 11972 0030 CBE7633C 		.word	1013180363
 11973 0034 A30B803F 		.word	1065356195
 11974 0038 D8ED2ABC 		.word	-1138037288
 11975 003c 01       		.byte	1
 11976 003d 000000   		.space	3
 11977              	.LC20:
 11978 0040 00E0FF43 		.word	1140842496
 11979 0044 F8E18F43 		.word	1133502968
 11980 0048 5B1A2542 		.word	1109727835
 11981 004c 3E439540 		.word	1083523902
 11982 0050 9DEA8DB9 		.word	-1181881699
 11983 0054 0C00803F 		.word	1065353228
 11984 0058 ECDF5439 		.word	961863660
 11985 005c 01       		.byte	1
 11986 005d 000000   		.space	3
 11987              	.LC23:
 11988 0060 00A0DA43 		.word	1138401280
 11989 0064 C7229443 		.word	1133781703
 11990 0068 84551F42 		.word	1109349764
 11991 006c 90009540 		.word	1083506832
 11992 0070 73E90C3E 		.word	1041033587
 11993 0074 774B7F3F 		.word	1065306999
 11994 0078 2C5ED3BD 		.word	-1110221268
 11995 007c 01       		.byte	1
 11996 007d 000000   		.space	3
 11997              		.section	.rodata.._191,"a",%progbits
 11998              		.align	2
 11999              		.set	.LANCHOR7,. + 0
 12002              	._191:
 12003 0000 888F4C45 		.word	1162645384
 12004 0004 00000000 		.word	0
 12005 0008 CBA20045 		.word	1157669579
 12006 000c 00000000 		.word	0
 12007 0010 0E774C45 		.word	1162639118
 12008 0014 9C2FC444 		.word	1153707932
 12009 0018 00000000 		.word	0
 12010 001c 00000000 		.word	0
 12011 0020 0000803F 		.word	1065353216
 12012              		.section	.rodata._ZZN4ltaf5Line2IfEC4ERKNS_4Vec3IfEEE12__FUNCTION__,"a",%progbits
 12013              		.set	.LANCHOR22,. + 0
 12016              	_ZZN4ltaf5Line2IfEC4ERKNS_4Vec3IfEEE12__FUNCTION__:
 12017 0000 4C696E65 		.ascii	"Line2\000"
 12017      3200
 12018              		.section	.rodata.._192,"a",%progbits
 12019              		.align	2
 12020              		.set	.LANCHOR8,. + 0
 12023              	._192:
 12024 0000 0CFF7F3F 		.word	1065352972
 12025 0004 2B66A2BA 		.word	-1163762133
 12026 0008 7728ACBB 		.word	-1146345353
 12027 000c 2C39A03A 		.word	983578924
 12028 0010 A0FF7F3F 		.word	1065353120
 12029 0014 92324FBB 		.word	-1152437614
 12030 0018 1249AC3B 		.word	1001146642
 12031 001c 0DC64E3B 		.word	995018253
 12032 0020 C5FE7F3F 		.word	1065352901
 12033              		.section	.rodata.str1.1,"aMS",%progbits,1
 12034              	.LC24:
 12035 0000 466F756E 		.ascii	"Found %i factory module calibration\000"
 12035      64202569 
 12035      20666163 
 12035      746F7279 
 12035      206D6F64 
 12036              	.LC25:
 12037 0024 43757272 		.ascii	"Current camera id = %i\000"
 12037      656E7420 
 12037      63616D65 
 12037      72612069 
 12037      64203D20 
 12038              	.LC26:
 12039 003b 43757272 		.ascii	"Current module has no moveable mirror\000"
 12039      656E7420 
 12039      6D6F6475 
 12039      6C652068 
 12039      6173206E 
 12040              	.LC27:
 12041 0061 43757272 		.ascii	"Current module mirror is moveable\000"
 12041      656E7420 
 12041      6D6F6475 
 12041      6C65206D 
 12041      6972726F 
 12042              	.LC28:
 12043 0083 556E6B6E 		.ascii	"Unknown mirror type: %d\000"
 12043      6F776E20 
 12043      6D697272 
 12043      6F722074 
 12043      7970653A 
 12044              	.LC29:
 12045 009b 6E5F7065 		.ascii	"n_per_focus_calibration = %i\000"
 12045      725F666F 
 12045      6375735F 
 12045      63616C69 
 12045      62726174 
 12046              	.LC30:
 12047 00b8 43686F6F 		.ascii	"Choosing calibration data with focus distance = %f\000"
 12047      73696E67 
 12047      2063616C 
 12047      69627261 
 12047      74696F6E 
 12048              	.LC31:
 12049 00eb 50617273 		.ascii	"Parsing calibration protobuf failed...\000"
 12049      696E6720 
 12049      63616C69 
 12049      62726174 
 12049      696F6E20 
 12050              	.LC32:
 12051 0112 64657074 		.ascii	"depthGivenCorrespondence. x: %f, y: %f, x_src: %f, "
 12051      68476976 
 12051      656E436F 
 12051      72726573 
 12051      706F6E64 
 12052 0145 795F7372 		.ascii	"y_src: %f\000"
 12052      633A2025 
 12052      6600
 12053              	.LC33:
 12054 014f 64657074 		.ascii	"depthGivenCorrespondence. src_proj.x: %f, src_proj."
 12054      68476976 
 12054      656E436F 
 12054      72726573 
 12054      706F6E64 
 12055 0182 793A2025 		.ascii	"y: %f\000"
 12055      6600
 12056              	.LC34:
 12057 0188 64657074 		.ascii	"depthGivenCorrespondence. d: %f, sin_phi: %f\000"
 12057      68476976 
 12057      656E436F 
 12057      72726573 
 12057      706F6E64 
 12058              		.section	.rodata.._193,"a",%progbits
 12059              		.align	2
 12060              		.set	.LANCHOR9,. + 0
 12063              	._193:
 12064 0000 5A754E45 		.word	1162769754
 12065 0004 00000000 		.word	0
 12066 0008 8E920045 		.word	1157665422
 12067 000c 00000000 		.word	0
 12068 0010 FCA04E45 		.word	1162780924
 12069 0014 7785C644 		.word	1153860983
 12070 0018 00000000 		.word	0
 12071 001c 00000000 		.word	0
 12072 0020 0000803F 		.word	1065353216
 12073              		.section	.rodata.._194,"a",%progbits
 12074              		.align	2
 12075              		.set	.LANCHOR10,. + 0
 12078              	._194:
 12079 0000 9CFF7F3F 		.word	1065353116
 12080 0004 9B9131BB 		.word	-1154379365
 12081 0008 B7DD0C3B 		.word	990698935
 12082 000c BCAF323B 		.word	993177532
 12083 0010 ADFD7F3F 		.word	1065352621
 12084 0014 2E9B02BC 		.word	-1140679890
 12085 0018 11720BBB 		.word	-1156877807
 12086 001c 90B3023C 		.word	1006810000
 12087 0020 C4FD7F3F 		.word	1065352644
 12088              		.section	.rodata.._185,"a",%progbits
 12089              		.align	2
 12090              		.set	.LANCHOR1,. + 0
 12093              	._185:
 12094 0000 49304D45 		.word	1162686537
 12095 0004 00000000 		.word	0
 12096 0008 763A0145 		.word	1157708406
 12097 000c 00000000 		.word	0
 12098 0010 080B4D45 		.word	1162677000
 12099 0014 0246C544 		.word	1153779202
 12100 0018 00000000 		.word	0
 12101 001c 00000000 		.word	0
 12102 0020 0000803F 		.word	1065353216
 12103              		.section	.rodata.._186,"a",%progbits
 12104              		.align	2
 12105              		.set	.LANCHOR2,. + 0
 12108              	._186:
 12109 0000 0000803F 		.word	1065353216
 12110 0004 A48ED99D 		.word	-1646686556
 12111 0008 D8A4BBA0 		.word	-1598315304
 12112 000c A48ED99D 		.word	-1646686556
 12113 0010 0000803F 		.word	1065353216
 12114 0014 487117A0 		.word	-1609076408
 12115 0018 D8A4BBA0 		.word	-1598315304
 12116 001c 487117A0 		.word	-1609076408
 12117 0020 0000803F 		.word	1065353216
 12118              		.section	.rodata.._187,"a",%progbits
 12119              		.align	2
 12120              		.set	.LANCHOR3,. + 0
 12123              	._187:
 12124 0000 78864D45 		.word	1162708600
 12125 0004 00000000 		.word	0
 12126 0008 DCC50045 		.word	1157678556
 12127 000c 00000000 		.word	0
 12128 0010 33604D45 		.word	1162698803
 12129 0014 0C85C544 		.word	1153795340
 12130 0018 00000000 		.word	0
 12131 001c 00000000 		.word	0
 12132 0020 0000803F 		.word	1065353216
 12133              		.section	.rodata.._188,"a",%progbits
 12134              		.align	2
 12135              		.set	.LANCHOR4,. + 0
 12138              	._188:
 12139 0000 83FF7F3F 		.word	1065353091
 12140 0004 712E4CBB 		.word	-1152635279
 12141 0008 9ABF15BB 		.word	-1156202598
 12142 000c D3B64B3B 		.word	994817747
 12143 0010 5DFF7F3F 		.word	1065353053
 12144 0014 774A4CBB 		.word	-1152628105
 12145 0018 2B62163B 		.word	991322667
 12146 001c E9D24B3B 		.word	994824937
 12147 0020 83FF7F3F 		.word	1065353091
 12148              		.section	.rodata.._189,"a",%progbits
 12149              		.align	2
 12150              		.set	.LANCHOR5,. + 0
 12153              	._189:
 12154 0000 E23F4D45 		.word	1162690530
 12155 0004 00000000 		.word	0
 12156 0008 DC97FF44 		.word	1157601244
 12157 000c 00000000 		.word	0
 12158 0010 91124D45 		.word	1162678929
 12159 0014 A61DC544 		.word	1153768870
 12160 0018 00000000 		.word	0
 12161 001c 00000000 		.word	0
 12162 0020 0000803F 		.word	1065353216
 12163              		.section	.rodata.._195,"a",%progbits
 12164              		.align	2
 12165              		.set	.LANCHOR11,. + 0
 12168              	._195:
 12169 0000 FD970046 		.word	1174444029
 12170 0004 00000000 		.word	0
 12171 0008 16130345 		.word	1157829398
 12172 000c 00000000 		.word	0
 12173 0010 6A010146 		.word	1174471018
 12174 0014 1199C744 		.word	1153931537
 12175 0018 00000000 		.word	0
 12176 001c 00000000 		.word	0
 12177 0020 0000803F 		.word	1065353216
 12178              		.section	.rodata.._196,"a",%progbits
 12179              		.align	2
 12180              		.set	.LANCHOR12,. + 0
 12183              	._196:
 12184 0000 BED17F3F 		.word	1065341374
 12185 0004 608A95BC 		.word	-1131050400
 12186 0008 317A06BD 		.word	-1123648975
 12187 000c D653903C 		.word	1016091606
 12188 0010 47E97F3F 		.word	1065347399
 12189 0014 414EA0BC 		.word	-1130344895
 12190 0018 D2E4073D 		.word	1023927506
 12191 001c 3D749B3C 		.word	1016820797
 12192 0020 1DD07F3F 		.word	1065340957
 12193              		.section	.rodata.._197,"a",%progbits
 12194              		.align	2
 12195              		.set	.LANCHOR13,. + 0
 12198              	._197:
 12199 0000 50A50046 		.word	1174447440
 12200 0004 00000000 		.word	0
 12201 0008 DEEB0045 		.word	1157688286
 12202 000c 00000000 		.word	0
 12203 0010 43E00046 		.word	1174462531
 12204 0014 F613C144 		.word	1153504246
 12205 0018 00000000 		.word	0
 12206 001c 00000000 		.word	0
 12207 0020 0000803F 		.word	1065353216
 12208              		.section	.rodata.._198,"a",%progbits
 12209              		.align	2
 12210              		.set	.LANCHOR14,. + 0
 12213              	._198:
 12214 0000 A2DFBCBE 		.word	-1094918238
 12215 0004 E332FD3E 		.word	1056781027
 12216 0008 6778493F 		.word	1061779559
 12217 000c 26EDF0BE 		.word	-1091506906
 12218 0010 5B7D213F 		.word	1059159387
 12219 0014 2EF11DBF 		.word	-1088556754
 12220 0018 C0324DBF 		.word	-1085459776
 12221 001c 4D1119BF 		.word	-1088876211
 12222 0020 84639C30 		.word	815555460
 12223              		.section	.rodata.._199,"a",%progbits
 12224              		.align	2
 12225              		.set	.LANCHOR16,. + 0
 12228              	._199:
 12229 0000 76FF0046 		.word	1174470518
 12230 0004 00000000 		.word	0
 12231 0008 B27C0245 		.word	1157790898
 12232 000c 00000000 		.word	0
 12233 0010 A94F0146 		.word	1174491049
 12234 0014 E658CC44 		.word	1154242790
 12235 0018 00000000 		.word	0
 12236 001c 00000000 		.word	0
 12237 0020 0000803F 		.word	1065353216
 12238              		.section	.rodata._ZZN4ltaf9CalibData5scaleEfE12__FUNCTION__,"a",%progbits
 12239              		.set	.LANCHOR0,. + 0
 12242              	_ZZN4ltaf9CalibData5scaleEfE12__FUNCTION__:
 12243 0000 7363616C 		.ascii	"scale\000"
 12243      6500
 12244              		.section	.rodata.._200,"a",%progbits
 12245              		.align	2
 12246              		.set	.LANCHOR17,. + 0
 12249              	._200:
 12250 0000 1D37B43E 		.word	1051997981
 12251 0004 1E01F13E 		.word	1055981854
 12252 0008 F41C4FBF 		.word	-1085334284
 12253 000c C00FF8BE 		.word	-1091039296
 12254 0010 38DE25BF 		.word	-1088037320
 12255 0014 6B7716BF 		.word	-1089046677
 12256 0018 FC044DBF 		.word	-1085471492
 12257 001c 944E193F 		.word	1058623124
 12258 0020 C0F18F2F 		.word	797962688
 12259              		.section	.rodata.._201,"a",%progbits
 12260              		.align	2
 12261              		.set	.LANCHOR18,. + 0
 12264              	._201:
 12265 0000 778F0046 		.word	1174441847
 12266 0004 00000000 		.word	0
 12267 0008 544D0245 		.word	1157778772
 12268 000c 00000000 		.word	0
 12269 0010 341E0146 		.word	1174478388
 12270 0014 C069C844 		.word	1153984960
 12271 0018 00000000 		.word	0
 12272 001c 00000000 		.word	0
 12273 0020 0000803F 		.word	1065353216
 12274              		.section	.rodata.._202,"a",%progbits
 12275              		.align	2
 12276              		.set	.LANCHOR19,. + 0
 12279              	._202:
 12280 0000 300ABA3E 		.word	1052379696
 12281 0004 A6E2FDBE 		.word	-1090657626
 12282 0008 BAE949BF 		.word	-1085675078
 12283 000c 59B0EE3E 		.word	1055830105
 12284 0010 09DE22BF 		.word	-1088233975
 12285 0014 35601D3F 		.word	1058889781
 12286 0018 BC7E4EBF 		.word	-1085374788
 12287 001c 465017BF 		.word	-1088991162
 12288 0020 8A934731 		.word	826774410
 12289              		.section	.rodata.._203,"a",%progbits
 12290              		.align	2
 12291              		.set	.LANCHOR20,. + 0
 12294              	._203:
 12295 0000 01640046 		.word	1174430721
 12296 0004 00000000 		.word	0
 12297 0008 7C640045 		.word	1157653628
 12298 000c 00000000 		.word	0
 12299 0010 1FC20046 		.word	1174454815
 12300 0014 0E24C744 		.word	1153901582
 12301 0018 00000000 		.word	0
 12302 001c 00000000 		.word	0
 12303 0020 0000803F 		.word	1065353216
 12304              		.section	.rodata.._204,"a",%progbits
 12305              		.align	2
 12306              		.set	.LANCHOR21,. + 0
 12309              	._204:
 12310 0000 D15DB9BE 		.word	-1095148079
 12311 0004 E48AF0BE 		.word	-1091532060
 12312 0008 BB1B4E3F 		.word	1062083515
 12313 000c E09DFB3E 		.word	1056677344
 12314 0010 D541233F 		.word	1059275221
 12315 0014 05D7173F 		.word	1058526981
 12316 0018 A3C64ABF 		.word	-1085618525
 12317 001c 2A431C3F 		.word	1058816810
 12318 0020 66FE8EB5 		.word	-1248919962
 12319              		.section	.rodata.._190,"a",%progbits
 12320              		.align	2
 12321              		.set	.LANCHOR6,. + 0
 12324              	._190:
 12325 0000 33FF7F3F 		.word	1065353011
 12326 0004 BD24A23B 		.word	1000481981
 12327 0008 418E6C38 		.word	946638401
 12328 000c D41BA2BB 		.word	-1147003948
 12329 0010 48FA7F3F 		.word	1065351752
 12330 0014 AFB548BC 		.word	-1136085585
 12331 0018 4264F5B8 		.word	-1191877566
 12332 001c E2B3483C 		.word	1011397602
 12333 0020 15FB7F3F 		.word	1065351957
 12334              		.text
 12335              	.Letext0:
 12336              		.file 10 "/opt/toolchains/gcc-arm-none-eabi-4_9-2015q1/arm-none-eabi/include/machine/_default_type
 12337              		.file 11 "/opt/toolchains/gcc-arm-none-eabi-4_9-2015q1/arm-none-eabi/include/stdint.h"
 12338              		.file 12 "/opt/toolchains/gcc-arm-none-eabi-4_9-2015q1/lib/gcc/arm-none-eabi/4.9.3/include/stddef.
 12339              		.file 13 "/opt/toolchains/gcc-arm-none-eabi-4_9-2015q1/arm-none-eabi/include/sys/lock.h"
 12340              		.file 14 "/opt/toolchains/gcc-arm-none-eabi-4_9-2015q1/arm-none-eabi/include/sys/_types.h"
 12341              		.file 15 "/opt/toolchains/gcc-arm-none-eabi-4_9-2015q1/arm-none-eabi/include/sys/reent.h"
 12342              		.file 16 "/opt/toolchains/gcc-arm-none-eabi-4_9-2015q1/arm-none-eabi/include/stdlib.h"
 12343              		.file 17 "/opt/toolchains/gcc-arm-none-eabi-4_9-2015q1/lib/gcc/arm-none-eabi/4.9.3/include/stdarg.
 12344              		.file 18 "<built-in>"
 12345              		.file 19 "/opt/toolchains/gcc-arm-none-eabi-4_9-2015q1/arm-none-eabi/include/c++/4.9.3/type_traits
 12346              		.file 20 "/opt/toolchains/gcc-arm-none-eabi-4_9-2015q1/arm-none-eabi/include/c++/4.9.3/bits/except
 12347              		.file 21 "/opt/toolchains/gcc-arm-none-eabi-4_9-2015q1/arm-none-eabi/include/c++/4.9.3/arm-none-ea
 12348              		.file 22 "/opt/toolchains/gcc-arm-none-eabi-4_9-2015q1/arm-none-eabi/include/c++/4.9.3/bits/stl_pa
 12349              		.file 23 "/opt/toolchains/gcc-arm-none-eabi-4_9-2015q1/arm-none-eabi/include/c++/4.9.3/new"
 12350              		.file 24 "/opt/toolchains/gcc-arm-none-eabi-4_9-2015q1/arm-none-eabi/include/c++/4.9.3/cwchar"
 12351              		.file 25 "/opt/toolchains/gcc-arm-none-eabi-4_9-2015q1/arm-none-eabi/include/c++/4.9.3/bits/uses_a
 12352              		.file 26 "/opt/toolchains/gcc-arm-none-eabi-4_9-2015q1/arm-none-eabi/include/c++/4.9.3/cstdint"
 12353              		.file 27 "/opt/toolchains/gcc-arm-none-eabi-4_9-2015q1/arm-none-eabi/include/c++/4.9.3/clocale"
 12354              		.file 28 "/opt/toolchains/gcc-arm-none-eabi-4_9-2015q1/arm-none-eabi/include/c++/4.9.3/bits/shared
 12355              		.file 29 "/opt/toolchains/gcc-arm-none-eabi-4_9-2015q1/arm-none-eabi/include/c++/4.9.3/cstdlib"
 12356              		.file 30 "/opt/toolchains/gcc-arm-none-eabi-4_9-2015q1/arm-none-eabi/include/c++/4.9.3/bits/stl_bv
 12357              		.file 31 "/opt/toolchains/gcc-arm-none-eabi-4_9-2015q1/arm-none-eabi/include/c++/4.9.3/debug/debug
 12358              		.file 32 "/opt/toolchains/gcc-arm-none-eabi-4_9-2015q1/arm-none-eabi/include/c++/4.9.3/bits/random
 12359              		.file 33 "/opt/toolchains/gcc-arm-none-eabi-4_9-2015q1/arm-none-eabi/include/c++/4.9.3/bits/alloca
 12360              		.file 34 "/opt/toolchains/gcc-arm-none-eabi-4_9-2015q1/arm-none-eabi/include/c++/4.9.3/bits/ptr_tr
 12361              		.file 35 "/opt/toolchains/gcc-arm-none-eabi-4_9-2015q1/arm-none-eabi/include/c++/4.9.3/bits/alloc_
 12362              		.file 36 "/opt/toolchains/gcc-arm-none-eabi-4_9-2015q1/arm-none-eabi/include/c++/4.9.3/bits/stl_ve
 12363              		.file 37 "/opt/toolchains/gcc-arm-none-eabi-4_9-2015q1/arm-none-eabi/include/c++/4.9.3/bits/vector
 12364              		.file 38 "/opt/toolchains/gcc-arm-none-eabi-4_9-2015q1/arm-none-eabi/include/c++/4.9.3/initializer
 12365              		.file 39 "/opt/toolchains/gcc-arm-none-eabi-4_9-2015q1/arm-none-eabi/include/c++/4.9.3/bits/stl_it
 12366              		.file 40 "/opt/toolchains/gcc-arm-none-eabi-4_9-2015q1/arm-none-eabi/include/c++/4.9.3/bits/cpp_ty
 12367              		.file 41 "/opt/toolchains/gcc-arm-none-eabi-4_9-2015q1/arm-none-eabi/include/c++/4.9.3/bits/predef
 12368              		.file 42 "/opt/toolchains/gcc-arm-none-eabi-4_9-2015q1/arm-none-eabi/include/c++/4.9.3/ext/new_all
 12369              		.file 43 "/opt/toolchains/gcc-arm-none-eabi-4_9-2015q1/arm-none-eabi/include/c++/4.9.3/ext/numeric
 12370              		.file 44 "/opt/toolchains/gcc-arm-none-eabi-4_9-2015q1/arm-none-eabi/include/c++/4.9.3/ext/concurr
 12371              		.file 45 "/opt/toolchains/gcc-arm-none-eabi-4_9-2015q1/arm-none-eabi/include/c++/4.9.3/ext/alloc_t
 12372              		.file 46 "/opt/toolchains/gcc-arm-none-eabi-4_9-2015q1/arm-none-eabi/include/c++/4.9.3/bits/stl_it
 12373              		.file 47 "/opt/toolchains/gcc-arm-none-eabi-4_9-2015q1/arm-none-eabi/include/wchar.h"
 12374              		.file 48 "/opt/toolchains/gcc-arm-none-eabi-4_9-2015q1/arm-none-eabi/include/locale.h"
 12375              		.file 49 "/opt/toolchains/gcc-arm-none-eabi-4_9-2015q1/arm-none-eabi/include/math.h"
 12376              		.file 50 "/home/tienluong/workspace/atlantis_fw/platform/common/lightheader/include/protobuf-c/pro
 12377              		.file 51 "/home/tienluong/workspace/atlantis_fw/platform/common/lightheader/include/camera_id.pb-c
 12378              		.file 52 "/home/tienluong/workspace/atlantis_fw/platform/common/lightheader/include/point2i.pb-c.h
 12379              		.file 53 "/home/tienluong/workspace/atlantis_fw/platform/common/lightheader/include/point2f.pb-c.h
 12380              		.file 54 "/home/tienluong/workspace/atlantis_fw/platform/common/lightheader/include/camera_module.
 12381              		.file 55 "/home/tienluong/workspace/atlantis_fw/platform/common/lightheader/include/time_stamp.pb-
 12382              		.file 56 "/home/tienluong/workspace/atlantis_fw/platform/common/lightheader/include/matrix3x3f.pb-
 12383              		.file 57 "/home/tienluong/workspace/atlantis_fw/platform/common/lightheader/include/point3f.pb-c.h
 12384              		.file 58 "/home/tienluong/workspace/atlantis_fw/platform/common/lightheader/include/range2f.pb-c.h
 12385              		.file 59 "/home/tienluong/workspace/atlantis_fw/platform/common/lightheader/include/mirror_system.
 12386              		.file 60 "/home/tienluong/workspace/atlantis_fw/platform/common/lightheader/include/distortion.pb-
 12387              		.file 61 "/home/tienluong/workspace/atlantis_fw/platform/common/lightheader/include/device_temp.pb
 12388              		.file 62 "/home/tienluong/workspace/atlantis_fw/platform/common/lightheader/include/geometric_cali
 12389              		.file 63 "/home/tienluong/workspace/atlantis_fw/platform/common/lightheader/include/color_calibrat
 12390              		.file 64 "/home/tienluong/workspace/atlantis_fw/platform/common/lightheader/include/sensor_charact
 12391              		.file 65 "/home/tienluong/workspace/atlantis_fw/platform/common/lightheader/include/matrix4x4f.pb-
 12392              		.file 66 "/home/tienluong/workspace/atlantis_fw/platform/common/lightheader/include/vignetting_cha
 12393              		.file 67 "/home/tienluong/workspace/atlantis_fw/platform/common/lightheader/include/hot_pixel_map.
 12394              		.file 68 "/home/tienluong/workspace/atlantis_fw/platform/common/lightheader/include/dead_pixel_map
 12395              		.file 69 "/home/tienluong/workspace/atlantis_fw/platform/common/lightheader/include/tof_calibratio
 12396              		.file 70 "/home/tienluong/workspace/atlantis_fw/platform/common/lightheader/include/flash_calibrat
 12397              		.file 71 "/home/tienluong/workspace/atlantis_fw/platform/common/lightheader/include/sensor_type.pb
 12398              		.file 72 "/home/tienluong/workspace/atlantis_fw/platform/common/lightheader/include/hw_info.pb-c.h
 12399              		.file 73 "/home/tienluong/workspace/atlantis_fw/platform/common/lightheader/include/view_preferenc
 12400              		.file 74 "/home/tienluong/workspace/atlantis_fw/platform/common/lightheader/include/proximity_sens
 12401              		.file 75 "/home/tienluong/workspace/atlantis_fw/platform/common/lightheader/include/imu_data.pb-c.
 12402              		.file 76 "/home/tienluong/workspace/atlantis_fw/platform/common/lightheader/include/lightheader.pb
 12403              		.file 77 "/home/tienluong/workspace/atlantis_fw/AsicFwS2/include/operator_new.h"
DEFINED SYMBOLS
                            *ABS*:00000000 calibclasses.cpp
     /tmp/ccHaPwRs.s:19     .text._ZN4ltaf13CalibDataBaseD2Ev:00000000 $t
     /tmp/ccHaPwRs.s:24     .text._ZN4ltaf13CalibDataBaseD2Ev:00000000 _ZN4ltaf13CalibDataBaseD2Ev
     /tmp/ccHaPwRs.s:24     .text._ZN4ltaf13CalibDataBaseD2Ev:00000000 _ZN4ltaf13CalibDataBaseD1Ev
     /tmp/ccHaPwRs.s:41     .text._ZN4ltaf16CalibDataWMirrorD2Ev:00000000 $t
     /tmp/ccHaPwRs.s:46     .text._ZN4ltaf16CalibDataWMirrorD2Ev:00000000 _ZN4ltaf16CalibDataWMirrorD2Ev
     /tmp/ccHaPwRs.s:46     .text._ZN4ltaf16CalibDataWMirrorD2Ev:00000000 _ZN4ltaf16CalibDataWMirrorD1Ev
     /tmp/ccHaPwRs.s:62     .text._ZN4ltaf9CalibDataD2Ev:00000000 $t
     /tmp/ccHaPwRs.s:67     .text._ZN4ltaf9CalibDataD2Ev:00000000 _ZN4ltaf9CalibDataD2Ev
     /tmp/ccHaPwRs.s:67     .text._ZN4ltaf9CalibDataD2Ev:00000000 _ZN4ltaf9CalibDataD1Ev
     /tmp/ccHaPwRs.s:83     .text._ZN4ltaf16CalibDataWMirrorD0Ev:00000000 $t
     /tmp/ccHaPwRs.s:88     .text._ZN4ltaf16CalibDataWMirrorD0Ev:00000000 _ZN4ltaf16CalibDataWMirrorD0Ev
     /tmp/ccHaPwRs.s:112    .text._ZN4ltaf16CalibDataWMirrorD0Ev:0000000c $d
     /tmp/ccHaPwRs.s:117    .text._ZN4ltaf13CalibDataBaseD0Ev:00000000 $t
     /tmp/ccHaPwRs.s:122    .text._ZN4ltaf13CalibDataBaseD0Ev:00000000 _ZN4ltaf13CalibDataBaseD0Ev
     /tmp/ccHaPwRs.s:146    .text._ZN4ltaf13CalibDataBaseD0Ev:0000000c $d
     /tmp/ccHaPwRs.s:151    .text._ZN4ltaf9CalibDataD0Ev:00000000 $t
     /tmp/ccHaPwRs.s:156    .text._ZN4ltaf9CalibDataD0Ev:00000000 _ZN4ltaf9CalibDataD0Ev
     /tmp/ccHaPwRs.s:180    .text._ZN4ltaf9CalibDataD0Ev:0000000c $d
     /tmp/ccHaPwRs.s:188    .text._ZNK4ltaf20SquareMatrixInverterIfLi2EE3runEPf.isra.1:00000000 $t
     /tmp/ccHaPwRs.s:192    .text._ZNK4ltaf20SquareMatrixInverterIfLi2EE3runEPf.isra.1:00000000 _ZNK4ltaf20SquareMatrixInverterIfLi2EE3runEPf.isra.1
     /tmp/ccHaPwRs.s:293    .text._ZNK4ltaf20SquareMatrixInverterIfLi2EE3runEPf.isra.1:00000064 $d
     /tmp/ccHaPwRs.s:300    .text._ZN4ltaf6MatrixIfLi3ELi3ELb1EEaSESt16initializer_listIfE.isra.6:00000000 $t
     /tmp/ccHaPwRs.s:304    .text._ZN4ltaf6MatrixIfLi3ELi3ELb1EEaSESt16initializer_listIfE.isra.6:00000000 _ZN4ltaf6MatrixIfLi3ELi3ELb1EEaSESt16initializer_listIfE.isra.6
     /tmp/ccHaPwRs.s:353    .text._ZN4ltaf7inverseIfLi2ELb1EEENS_6MatrixIT_XT0_EXT0_EXT1_EEERKS3_:00000000 $t
     /tmp/ccHaPwRs.s:358    .text._ZN4ltaf7inverseIfLi2ELb1EEENS_6MatrixIT_XT0_EXT0_EXT1_EEERKS3_:00000000 _ZN4ltaf7inverseIfLi2ELb1EEENS_6MatrixIT_XT0_EXT0_EXT1_EEERKS3_
     /tmp/ccHaPwRs.s:396    .text._ZN4ltaf7inverseIfLi2ELb1EEENS_6MatrixIT_XT0_EXT0_EXT1_EEERKS3_:00000014 $d
     /tmp/ccHaPwRs.s:401    .text._ZN4ltaf7inverseIfLi2ELb0EEENS_6MatrixIT_XT0_EXT0_EXT1_EEERKS3_:00000000 $t
     /tmp/ccHaPwRs.s:406    .text._ZN4ltaf7inverseIfLi2ELb0EEENS_6MatrixIT_XT0_EXT0_EXT1_EEERKS3_:00000000 _ZN4ltaf7inverseIfLi2ELb0EEENS_6MatrixIT_XT0_EXT0_EXT1_EEERKS3_
     /tmp/ccHaPwRs.s:444    .text._ZN4ltaf7inverseIfLi2ELb0EEENS_6MatrixIT_XT0_EXT0_EXT1_EEERKS3_:00000014 $d
     /tmp/ccHaPwRs.s:449    .text._ZN4ltaf11determinantIfLi2ELb1EEET_RKNS_6MatrixIS1_XT0_EXT0_EXT1_EEE:00000000 $t
     /tmp/ccHaPwRs.s:454    .text._ZN4ltaf11determinantIfLi2ELb1EEET_RKNS_6MatrixIS1_XT0_EXT0_EXT1_EEE:00000000 _ZN4ltaf11determinantIfLi2ELb1EEET_RKNS_6MatrixIS1_XT0_EXT0_EXT1_EEE
     /tmp/ccHaPwRs.s:499    .text._ZN4ltaf11determinantIfLi2ELb1EEET_RKNS_6MatrixIS1_XT0_EXT0_EXT1_EEE:00000020 $d
     /tmp/ccHaPwRs.s:505    .text._ZN4ltaf11determinantIfLi2ELb0EEET_RKNS_6MatrixIS1_XT0_EXT0_EXT1_EEE:00000000 $t
     /tmp/ccHaPwRs.s:510    .text._ZN4ltaf11determinantIfLi2ELb0EEET_RKNS_6MatrixIS1_XT0_EXT0_EXT1_EEE:00000000 _ZN4ltaf11determinantIfLi2ELb0EEET_RKNS_6MatrixIS1_XT0_EXT0_EXT1_EEE
     /tmp/ccHaPwRs.s:555    .text._ZN4ltaf11determinantIfLi2ELb0EEET_RKNS_6MatrixIS1_XT0_EXT0_EXT1_EEE:00000020 $d
     /tmp/ccHaPwRs.s:563    .text._ZN4ltaf11determinantIdLi2ELb1EEET_RKNS_6MatrixIS1_XT0_EXT0_EXT1_EEE:00000000 $t
     /tmp/ccHaPwRs.s:568    .text._ZN4ltaf11determinantIdLi2ELb1EEET_RKNS_6MatrixIS1_XT0_EXT0_EXT1_EEE:00000000 _ZN4ltaf11determinantIdLi2ELb1EEET_RKNS_6MatrixIS1_XT0_EXT0_EXT1_EEE
     /tmp/ccHaPwRs.s:618    .text._ZN4ltaf11determinantIdLi2ELb1EEET_RKNS_6MatrixIS1_XT0_EXT0_EXT1_EEE:0000002c $d
     /tmp/ccHaPwRs.s:624    .text._ZN4ltaf11determinantIdLi2ELb0EEET_RKNS_6MatrixIS1_XT0_EXT0_EXT1_EEE:00000000 $t
     /tmp/ccHaPwRs.s:629    .text._ZN4ltaf11determinantIdLi2ELb0EEET_RKNS_6MatrixIS1_XT0_EXT0_EXT1_EEE:00000000 _ZN4ltaf11determinantIdLi2ELb0EEET_RKNS_6MatrixIS1_XT0_EXT0_EXT1_EEE
     /tmp/ccHaPwRs.s:679    .text._ZN4ltaf11determinantIdLi2ELb0EEET_RKNS_6MatrixIS1_XT0_EXT0_EXT1_EEE:0000002c $d
     /tmp/ccHaPwRs.s:685    .text._ZN4ltaf9CalibDataC2ERKNS_6MatrixIfLi3ELi3ELb1EEES4_RKNS_4Vec3IfEE:00000000 $t
     /tmp/ccHaPwRs.s:690    .text._ZN4ltaf9CalibDataC2ERKNS_6MatrixIfLi3ELi3ELb1EEES4_RKNS_4Vec3IfEE:00000000 _ZN4ltaf9CalibDataC2ERKNS_6MatrixIfLi3ELi3ELb1EEES4_RKNS_4Vec3IfEE
     /tmp/ccHaPwRs.s:792    .text._ZN4ltaf9CalibDataC2ERKNS_6MatrixIfLi3ELi3ELb1EEES4_RKNS_4Vec3IfEE:00000044 $d
     /tmp/ccHaPwRs.s:11939  .rodata._ZTVN4ltaf9CalibDataE:00000000 _ZTVN4ltaf9CalibDataE
     /tmp/ccHaPwRs.s:690    .text._ZN4ltaf9CalibDataC2ERKNS_6MatrixIfLi3ELi3ELb1EEES4_RKNS_4Vec3IfEE:00000000 _ZN4ltaf9CalibDataC1ERKNS_6MatrixIfLi3ELi3ELb1EEES4_RKNS_4Vec3IfEE
     /tmp/ccHaPwRs.s:799    .text._ZN4ltaf16CalibDataWMirrorC2ERKNS_6MatrixIfLi3ELi3ELb1EEERKNS_14MirrorSysParamERKNS_21MirrorActuatorMappingE:00000000 $t
     /tmp/ccHaPwRs.s:804    .text._ZN4ltaf16CalibDataWMirrorC2ERKNS_6MatrixIfLi3ELi3ELb1EEERKNS_14MirrorSysParamERKNS_21MirrorActuatorMappingE:00000000 _ZN4ltaf16CalibDataWMirrorC2ERKNS_6MatrixIfLi3ELi3ELb1EEERKNS_14MirrorSysParamERKNS_21MirrorActuatorMappingE
     /tmp/ccHaPwRs.s:985    .text._ZN4ltaf16CalibDataWMirrorC2ERKNS_6MatrixIfLi3ELi3ELb1EEERKNS_14MirrorSysParamERKNS_21MirrorActuatorMappingE:0000008c $d
     /tmp/ccHaPwRs.s:11949  .rodata._ZTVN4ltaf16CalibDataWMirrorE:00000000 _ZTVN4ltaf16CalibDataWMirrorE
     /tmp/ccHaPwRs.s:804    .text._ZN4ltaf16CalibDataWMirrorC2ERKNS_6MatrixIfLi3ELi3ELb1EEERKNS_14MirrorSysParamERKNS_21MirrorActuatorMappingE:00000000 _ZN4ltaf16CalibDataWMirrorC1ERKNS_6MatrixIfLi3ELi3ELb1EEERKNS_14MirrorSysParamERKNS_21MirrorActuatorMappingE
     /tmp/ccHaPwRs.s:992    .text._ZN4ltaf9CalibData19setCameraParametersERKNS_6MatrixIfLi3ELi3ELb1EEES4_RKNS_4Vec3IfEE:00000000 $t
     /tmp/ccHaPwRs.s:997    .text._ZN4ltaf9CalibData19setCameraParametersERKNS_6MatrixIfLi3ELi3ELb1EEES4_RKNS_4Vec3IfEE:00000000 _ZN4ltaf9CalibData19setCameraParametersERKNS_6MatrixIfLi3ELi3ELb1EEES4_RKNS_4Vec3IfEE
     /tmp/ccHaPwRs.s:1058   .text._ZN4ltaf9CalibData5scaleEf:00000000 $t
     /tmp/ccHaPwRs.s:1063   .text._ZN4ltaf9CalibData5scaleEf:00000000 _ZN4ltaf9CalibData5scaleEf
     /tmp/ccHaPwRs.s:1148   .text._ZN4ltaf9CalibData5scaleEf:00000048 $d
     /tmp/ccHaPwRs.s:1159   .text._ZN4ltaf9CalibData5shiftEii:00000000 $t
     /tmp/ccHaPwRs.s:1164   .text._ZN4ltaf9CalibData5shiftEii:00000000 _ZN4ltaf9CalibData5shiftEii
     /tmp/ccHaPwRs.s:1213   .text._ZN4ltaf9CalibData5shiftEii:00000024 $d
     /tmp/ccHaPwRs.s:1220   .text._ZNK4ltaf9WarpField9project3DEfff:00000000 $t
     /tmp/ccHaPwRs.s:1225   .text._ZNK4ltaf9WarpField9project3DEfff:00000000 _ZNK4ltaf9WarpField9project3DEfff
     /tmp/ccHaPwRs.s:1432   .text._ZNK4ltaf9WarpField9project3DEfff:000000c0 $d
     /tmp/ccHaPwRs.s:1439   .text._ZN4ltaf16CalibDataManager14setMirrorTypesENS_10ModuleNameENS_10MirrorTypeE:00000000 $t
     /tmp/ccHaPwRs.s:1444   .text._ZN4ltaf16CalibDataManager14setMirrorTypesENS_10ModuleNameENS_10MirrorTypeE:00000000 _ZN4ltaf16CalibDataManager14setMirrorTypesENS_10ModuleNameENS_10MirrorTypeE
     /tmp/ccHaPwRs.s:1461   .text._ZNK4ltaf16CalibDataManager18isModuleCalibratedENS_10ModuleNameE:00000000 $t
     /tmp/ccHaPwRs.s:1466   .text._ZNK4ltaf16CalibDataManager18isModuleCalibratedENS_10ModuleNameE:00000000 _ZNK4ltaf16CalibDataManager18isModuleCalibratedENS_10ModuleNameE
     /tmp/ccHaPwRs.s:1486   .text._ZNK4ltaf16CalibDataManager22isModuleMirrorMoveableENS_10ModuleNameE:00000000 $t
     /tmp/ccHaPwRs.s:1491   .text._ZNK4ltaf16CalibDataManager22isModuleMirrorMoveableENS_10ModuleNameE:00000000 _ZNK4ltaf16CalibDataManager22isModuleMirrorMoveableENS_10ModuleNameE
     /tmp/ccHaPwRs.s:1513   .text._ZNK4ltaf16CalibDataManager12getCamParamsENS_10ModuleNameE:00000000 $t
     /tmp/ccHaPwRs.s:1518   .text._ZNK4ltaf16CalibDataManager12getCamParamsENS_10ModuleNameE:00000000 _ZNK4ltaf16CalibDataManager12getCamParamsENS_10ModuleNameE
     /tmp/ccHaPwRs.s:1534   .text._ZN4ltaf16CalibDataManager17parseMirrorSystemEPK19_Ltpb__MirrorSystemRNS_14MirrorSysParamE:00000000 $t
     /tmp/ccHaPwRs.s:1539   .text._ZN4ltaf16CalibDataManager17parseMirrorSystemEPK19_Ltpb__MirrorSystemRNS_14MirrorSysParamE:00000000 _ZN4ltaf16CalibDataManager17parseMirrorSystemEPK19_Ltpb__MirrorSystemRNS_14MirrorSysParamE
     /tmp/ccHaPwRs.s:1770   .text._ZN4ltaf16CalibDataManager17parseMirrorSystemEPK19_Ltpb__MirrorSystemRNS_14MirrorSysParamE:000000e0 $d
     /tmp/ccHaPwRs.s:1775   .text._ZN4ltaf16CalibDataManager26parseMirrorActuatorMappingEPK28_Ltpb__MirrorActuatorMappingRNS_21MirrorActuatorMappingE:00000000 $t
     /tmp/ccHaPwRs.s:1780   .text._ZN4ltaf16CalibDataManager26parseMirrorActuatorMappingEPK28_Ltpb__MirrorActuatorMappingRNS_21MirrorActuatorMappingE:00000000 _ZN4ltaf16CalibDataManager26parseMirrorActuatorMappingEPK28_Ltpb__MirrorActuatorMappingRNS_21MirrorActuatorMappingE
     /tmp/ccHaPwRs.s:1833   .text._ZN4ltaf16CalibDataManager21setDefaultMirrorTypesEv:00000000 $t
     /tmp/ccHaPwRs.s:1838   .text._ZN4ltaf16CalibDataManager21setDefaultMirrorTypesEv:00000000 _ZN4ltaf16CalibDataManager21setDefaultMirrorTypesEv
     /tmp/ccHaPwRs.s:1887   .text._ZNK4ltaf4Vec3IfE3dotERKS1_:00000000 $t
     /tmp/ccHaPwRs.s:1892   .text._ZNK4ltaf4Vec3IfE3dotERKS1_:00000000 _ZNK4ltaf4Vec3IfE3dotERKS1_
     /tmp/ccHaPwRs.s:1942   .text._ZNK4ltaf4Vec3IfE3dotERKS1_:00000034 $d
     /tmp/ccHaPwRs.s:1948   .text._ZN4ltafmlIffLb1EEENS_4Vec3INSt11common_typeIIT_T0_EE4typeEEERKNS_6MatrixIS3_Li3ELi3EXT1_EEERKNS1_IS4_EE:00000000 $t
     /tmp/ccHaPwRs.s:1953   .text._ZN4ltafmlIffLb1EEENS_4Vec3INSt11common_typeIIT_T0_EE4typeEEERKNS_6MatrixIS3_Li3ELi3EXT1_EEERKNS1_IS4_EE:00000000 _ZN4ltafmlIffLb1EEENS_4Vec3INSt11common_typeIIT_T0_EE4typeEEERKNS_6MatrixIS3_Li3ELi3EXT1_EEERKNS1_IS4_EE
     /tmp/ccHaPwRs.s:2080   .text._ZN4ltafmlIffLb1EEENS_4Vec3INSt11common_typeIIT_T0_EE4typeEEERKNS_6MatrixIS3_Li3ELi3EXT1_EEERKNS1_IS4_EE:00000094 $d
     /tmp/ccHaPwRs.s:1953   .text._ZN4ltafmlIffLb1EEENS_4Vec3INSt11common_typeIIT_T0_EE4typeEEERKNS_6MatrixIS3_Li3ELi3EXT1_EEERKNS1_IS4_EE:00000000 _ZN4ltafmlIffLb1EEENS_4Vec3INSt11common_typeIJT_T0_EE4typeEEERKNS_6MatrixIS3_Li3ELi3EXT1_EEERKNS1_IS4_EE
     /tmp/ccHaPwRs.s:2088   .text._ZN4ltaf9transposeIfLi3ELi3ELb1EEENS_6MatrixIT_XT1_EXT0_EXntT2_EEERKNS1_IS2_XT0_EXT1_EXT2_EEE:00000000 $t
     /tmp/ccHaPwRs.s:2093   .text._ZN4ltaf9transposeIfLi3ELi3ELb1EEENS_6MatrixIT_XT1_EXT0_EXntT2_EEERKNS1_IS2_XT0_EXT1_EXT2_EEE:00000000 _ZN4ltaf9transposeIfLi3ELi3ELb1EEENS_6MatrixIT_XT1_EXT0_EXntT2_EEERKNS1_IS2_XT0_EXT1_EXT2_EEE
     /tmp/ccHaPwRs.s:2122   .text._ZNK4ltaf6MatrixIfLi3ELi3ELb1EEmlILi3ELi3ELb0EEENS0_IfLi3EXT0_ELb1EEERKNS0_IfXT_EXT0_EXT1_EEE:00000000 $t
     /tmp/ccHaPwRs.s:2127   .text._ZNK4ltaf6MatrixIfLi3ELi3ELb1EEmlILi3ELi3ELb0EEENS0_IfLi3EXT0_ELb1EEERKNS0_IfXT_EXT0_EXT1_EEE:00000000 _ZNK4ltaf6MatrixIfLi3ELi3ELb1EEmlILi3ELi3ELb0EEENS0_IfLi3EXT0_ELb1EEERKNS0_IfXT_EXT0_EXT1_EEE
     /tmp/ccHaPwRs.s:2247   .text._ZNK4ltaf6MatrixIfLi3ELi3ELb1EEmlILi3ELi3ELb0EEENS0_IfLi3EXT0_ELb1EEERKNS0_IfXT_EXT0_EXT1_EEE:00000074 $d
     /tmp/ccHaPwRs.s:2254   .text._ZN4ltaf6MatrixIdLi4ELi4ELb1EEC2IfLi3ELi3ELb1EEERKNS0_IT_XT0_EXT1_EXT2_EEE:00000000 $t
     /tmp/ccHaPwRs.s:2259   .text._ZN4ltaf6MatrixIdLi4ELi4ELb1EEC2IfLi3ELi3ELb1EEERKNS0_IT_XT0_EXT1_EXT2_EEE:00000000 _ZN4ltaf6MatrixIdLi4ELi4ELb1EEC2IfLi3ELi3ELb1EEERKNS0_IT_XT0_EXT1_EXT2_EEE
     /tmp/ccHaPwRs.s:2358   .text._ZN4ltaf6MatrixIdLi4ELi4ELb1EEC2IfLi3ELi3ELb1EEERKNS0_IT_XT0_EXT1_EXT2_EEE:00000054 $d
     /tmp/ccHaPwRs.s:2259   .text._ZN4ltaf6MatrixIdLi4ELi4ELb1EEC2IfLi3ELi3ELb1EEERKNS0_IT_XT0_EXT1_EXT2_EEE:00000000 _ZN4ltaf6MatrixIdLi4ELi4ELb1EEC1IfLi3ELi3ELb1EEERKNS0_IT_XT0_EXT1_EXT2_EEE
     /tmp/ccHaPwRs.s:2367   .text._ZNK4ltaf6MatrixIdLi4ELi4ELb1EEmlILi4ELi4ELb1EEENS0_IdLi4EXT0_ELb1EEERKNS0_IdXT_EXT0_EXT1_EEE:00000000 $t
     /tmp/ccHaPwRs.s:2372   .text._ZNK4ltaf6MatrixIdLi4ELi4ELb1EEmlILi4ELi4ELb1EEENS0_IdLi4EXT0_ELb1EEERKNS0_IdXT_EXT0_EXT1_EEE:00000000 _ZNK4ltaf6MatrixIdLi4ELi4ELb1EEmlILi4ELi4ELb1EEENS0_IdLi4EXT0_ELb1EEERKNS0_IdXT_EXT0_EXT1_EEE
     /tmp/ccHaPwRs.s:2490   .text._ZNK4ltaf6MatrixIdLi4ELi4ELb1EEmlILi4ELi4ELb1EEENS0_IdLi4EXT0_ELb1EEERKNS0_IdXT_EXT0_EXT1_EEE:0000008c $d
     /tmp/ccHaPwRs.s:2496   .text._ZNSt10unique_ptrIN4ltaf13CalibDataBaseESt14default_deleteIS1_EE5resetEPS1_:00000000 $t
     /tmp/ccHaPwRs.s:2501   .text._ZNSt10unique_ptrIN4ltaf13CalibDataBaseESt14default_deleteIS1_EE5resetEPS1_:00000000 _ZNSt10unique_ptrIN4ltaf13CalibDataBaseESt14default_deleteIS1_EE5resetEPS1_
     /tmp/ccHaPwRs.s:2543   .text._ZN4ltaf16CalibDataManager23parseGeometricCalibDataERK18_Ltpb__LightHeader:00000000 $t
     /tmp/ccHaPwRs.s:2548   .text._ZN4ltaf16CalibDataManager23parseGeometricCalibDataERK18_Ltpb__LightHeader:00000000 _ZN4ltaf16CalibDataManager23parseGeometricCalibDataERK18_Ltpb__LightHeader
     /tmp/ccHaPwRs.s:2940   .text._ZN4ltaf16CalibDataManager23parseGeometricCalibDataERK18_Ltpb__LightHeader:000001b0 $d
     /tmp/ccHaPwRs.s:2960   .text._ZN4ltaf16CalibDataManagerC2ERK18_Ltpb__LightHeader:00000000 $t
     /tmp/ccHaPwRs.s:2965   .text._ZN4ltaf16CalibDataManagerC2ERK18_Ltpb__LightHeader:00000000 _ZN4ltaf16CalibDataManagerC2ERK18_Ltpb__LightHeader
     /tmp/ccHaPwRs.s:3035   .text._ZN4ltaf16CalibDataManagerC2ERK18_Ltpb__LightHeader:0000002c $d
     /tmp/ccHaPwRs.s:2965   .text._ZN4ltaf16CalibDataManagerC2ERK18_Ltpb__LightHeader:00000000 _ZN4ltaf16CalibDataManagerC1ERK18_Ltpb__LightHeader
     /tmp/ccHaPwRs.s:3044   .text._ZN4ltaf16CalibDataManager13hardCodeCalibEv:00000000 $t
     /tmp/ccHaPwRs.s:3049   .text._ZN4ltaf16CalibDataManager13hardCodeCalibEv:00000000 _ZN4ltaf16CalibDataManager13hardCodeCalibEv
     /tmp/ccHaPwRs.s:3727   .text._ZN4ltaf16CalibDataManager13hardCodeCalibEv:00000260 $d
     /tmp/ccHaPwRs.s:3805   .text._ZN4ltaf16CalibDataManager13hardCodeCalibEv:00000380 $t
     /tmp/ccHaPwRs.s:3993   .text._ZN4ltaf16CalibDataManager13hardCodeCalibEv:0000045c $d
     /tmp/ccHaPwRs.s:4026   .text._ZNK4ltaf20SquareMatrixInverterIfLi3EE3runEPf:00000000 $t
     /tmp/ccHaPwRs.s:4031   .text._ZNK4ltaf20SquareMatrixInverterIfLi3EE3runEPf:00000000 _ZNK4ltaf20SquareMatrixInverterIfLi3EE3runEPf
     /tmp/ccHaPwRs.s:4318   .text._ZNK4ltaf20SquareMatrixInverterIfLi3EE3runEPf:00000168 $d
     /tmp/ccHaPwRs.s:4326   .text._ZN4ltaf7inverseIfLi3ELb1EEENS_6MatrixIT_XT0_EXT0_EXT1_EEERKS3_:00000000 $t
     /tmp/ccHaPwRs.s:4331   .text._ZN4ltaf7inverseIfLi3ELb1EEENS_6MatrixIT_XT0_EXT0_EXT1_EEERKS3_:00000000 _ZN4ltaf7inverseIfLi3ELb1EEENS_6MatrixIT_XT0_EXT0_EXT1_EEERKS3_
     /tmp/ccHaPwRs.s:4396   .text._ZN4ltaf7inverseIfLi3ELb1EEENS_6MatrixIT_XT0_EXT0_EXT1_EEERKS3_:00000024 $d
     /tmp/ccHaPwRs.s:4401   .text._ZN4ltaf7inverseIfLi3ELb0EEENS_6MatrixIT_XT0_EXT0_EXT1_EEERKS3_:00000000 $t
     /tmp/ccHaPwRs.s:4406   .text._ZN4ltaf7inverseIfLi3ELb0EEENS_6MatrixIT_XT0_EXT0_EXT1_EEERKS3_:00000000 _ZN4ltaf7inverseIfLi3ELb0EEENS_6MatrixIT_XT0_EXT0_EXT1_EEERKS3_
     /tmp/ccHaPwRs.s:4471   .text._ZN4ltaf7inverseIfLi3ELb0EEENS_6MatrixIT_XT0_EXT0_EXT1_EEERKS3_:00000024 $d
     /tmp/ccHaPwRs.s:4476   .text._ZN4ltaf8EpiField5setupERKNS_9CalibDataES3_:00000000 $t
     /tmp/ccHaPwRs.s:4481   .text._ZN4ltaf8EpiField5setupERKNS_9CalibDataES3_:00000000 _ZN4ltaf8EpiField5setupERKNS_9CalibDataES3_
     /tmp/ccHaPwRs.s:4931   .text._ZN4ltaf8EpiField5setupERKNS_9CalibDataES3_:00000218 $d
     /tmp/ccHaPwRs.s:4943   .text._ZN4ltaf8EpiFieldC2ERKNS_9CalibDataES3_:00000000 $t
     /tmp/ccHaPwRs.s:4948   .text._ZN4ltaf8EpiFieldC2ERKNS_9CalibDataES3_:00000000 _ZN4ltaf8EpiFieldC2ERKNS_9CalibDataES3_
     /tmp/ccHaPwRs.s:4979   .text._ZN4ltaf8EpiFieldC2ERKNS_9CalibDataES3_:0000000c $d
     /tmp/ccHaPwRs.s:4948   .text._ZN4ltaf8EpiFieldC2ERKNS_9CalibDataES3_:00000000 _ZN4ltaf8EpiFieldC1ERKNS_9CalibDataES3_
     /tmp/ccHaPwRs.s:4986   .text._ZN4ltaf10CalibUtils24depthGivenCorrespondenceERKNS_8EpiFieldERKNS_9CalibDataES6_ffff:00000000 $t
     /tmp/ccHaPwRs.s:4991   .text._ZN4ltaf10CalibUtils24depthGivenCorrespondenceERKNS_8EpiFieldERKNS_9CalibDataES6_ffff:00000000 _ZN4ltaf10CalibUtils24depthGivenCorrespondenceERKNS_8EpiFieldERKNS_9CalibDataES6_ffff
     /tmp/ccHaPwRs.s:5800   .text._ZN4ltaf10CalibUtils24depthGivenCorrespondenceERKNS_8EpiFieldERKNS_9CalibDataES6_ffff:00000248 $d
     /tmp/ccHaPwRs.s:5816   .text._ZN4ltaf10CalibUtils24depthGivenCorrespondenceERKNS_8EpiFieldERKNS_9CalibDataES6_ffff:00000284 $t
     /tmp/ccHaPwRs.s:6149   .text._ZN4ltaf10CalibUtils24depthGivenCorrespondenceERKNS_8EpiFieldERKNS_9CalibDataES6_ffff:000003a0 $d
     /tmp/ccHaPwRs.s:6162   .text._ZN4ltaf10CalibUtils24depthGivenCorrespondenceERKNS_9CalibDataES3_ffff:00000000 $t
     /tmp/ccHaPwRs.s:6167   .text._ZN4ltaf10CalibUtils24depthGivenCorrespondenceERKNS_9CalibDataES3_ffff:00000000 _ZN4ltaf10CalibUtils24depthGivenCorrespondenceERKNS_9CalibDataES3_ffff
     /tmp/ccHaPwRs.s:6235   .text._ZN4ltaf10CalibUtils24depthGivenCorrespondenceERKNS_9CalibDataES3_ffff:00000030 $d
     /tmp/ccHaPwRs.s:6241   .text._ZNK4ltaf20SquareMatrixInverterIfLi4EE3runEPf:00000000 $t
     /tmp/ccHaPwRs.s:6246   .text._ZNK4ltaf20SquareMatrixInverterIfLi4EE3runEPf:00000000 _ZNK4ltaf20SquareMatrixInverterIfLi4EE3runEPf
     /tmp/ccHaPwRs.s:6672   .text._ZNK4ltaf20SquareMatrixInverterIfLi4EE3runEPf:00000210 $d
     /tmp/ccHaPwRs.s:6677   .text._ZNK4ltaf20SquareMatrixInverterIfLi4EE3runEPf:0000021c $t
     /tmp/ccHaPwRs.s:7120   .text._ZNK4ltaf20SquareMatrixInverterIfLi4EE3runEPf:00000450 $d
     /tmp/ccHaPwRs.s:7123   .text._ZNK4ltaf20SquareMatrixInverterIfLi4EE3runEPf:00000458 $t
     /tmp/ccHaPwRs.s:7485   .text._ZNK4ltaf20SquareMatrixInverterIfLi4EE3runEPf:00000658 $d
     /tmp/ccHaPwRs.s:7487   .text._ZNK4ltaf20SquareMatrixInverterIfLi4EE3runEPf:0000065c $t
     /tmp/ccHaPwRs.s:7579   .text._ZNK4ltaf20SquareMatrixInverterIfLi4EE3runEPf:000006d0 $d
     /tmp/ccHaPwRs.s:7584   .text._ZN4ltaf7inverseIfLi4ELb1EEENS_6MatrixIT_XT0_EXT0_EXT1_EEERKS3_:00000000 $t
     /tmp/ccHaPwRs.s:7589   .text._ZN4ltaf7inverseIfLi4ELb1EEENS_6MatrixIT_XT0_EXT0_EXT1_EEERKS3_:00000000 _ZN4ltaf7inverseIfLi4ELb1EEENS_6MatrixIT_XT0_EXT0_EXT1_EEERKS3_
     /tmp/ccHaPwRs.s:7651   .text._ZN4ltaf7inverseIfLi4ELb1EEENS_6MatrixIT_XT0_EXT0_EXT1_EEERKS3_:0000002c $d
     /tmp/ccHaPwRs.s:7656   .text._ZN4ltaf7inverseIfLi4ELb0EEENS_6MatrixIT_XT0_EXT0_EXT1_EEERKS3_:00000000 $t
     /tmp/ccHaPwRs.s:7661   .text._ZN4ltaf7inverseIfLi4ELb0EEENS_6MatrixIT_XT0_EXT0_EXT1_EEERKS3_:00000000 _ZN4ltaf7inverseIfLi4ELb0EEENS_6MatrixIT_XT0_EXT0_EXT1_EEERKS3_
     /tmp/ccHaPwRs.s:7723   .text._ZN4ltaf7inverseIfLi4ELb0EEENS_6MatrixIT_XT0_EXT0_EXT1_EEERKS3_:0000002c $d
     /tmp/ccHaPwRs.s:7729   .text._ZNK4ltaf20SquareMatrixInverterIdLi2EE3runEPd:00000000 $t
     /tmp/ccHaPwRs.s:7734   .text._ZNK4ltaf20SquareMatrixInverterIdLi2EE3runEPd:00000000 _ZNK4ltaf20SquareMatrixInverterIdLi2EE3runEPd
     /tmp/ccHaPwRs.s:7856   .text._ZNK4ltaf20SquareMatrixInverterIdLi2EE3runEPd:000000a0 $d
     /tmp/ccHaPwRs.s:7864   .text._ZN4ltaf7inverseIdLi2ELb1EEENS_6MatrixIT_XT0_EXT0_EXT1_EEERKS3_:00000000 $t
     /tmp/ccHaPwRs.s:7869   .text._ZN4ltaf7inverseIdLi2ELb1EEENS_6MatrixIT_XT0_EXT0_EXT1_EEERKS3_:00000000 _ZN4ltaf7inverseIdLi2ELb1EEENS_6MatrixIT_XT0_EXT0_EXT1_EEERKS3_
     /tmp/ccHaPwRs.s:7925   .text._ZN4ltaf7inverseIdLi2ELb1EEENS_6MatrixIT_XT0_EXT0_EXT1_EEERKS3_:00000024 $d
     /tmp/ccHaPwRs.s:7930   .text._ZN4ltaf7inverseIdLi2ELb0EEENS_6MatrixIT_XT0_EXT0_EXT1_EEERKS3_:00000000 $t
     /tmp/ccHaPwRs.s:7935   .text._ZN4ltaf7inverseIdLi2ELb0EEENS_6MatrixIT_XT0_EXT0_EXT1_EEERKS3_:00000000 _ZN4ltaf7inverseIdLi2ELb0EEENS_6MatrixIT_XT0_EXT0_EXT1_EEERKS3_
     /tmp/ccHaPwRs.s:7991   .text._ZN4ltaf7inverseIdLi2ELb0EEENS_6MatrixIT_XT0_EXT0_EXT1_EEERKS3_:00000024 $d
     /tmp/ccHaPwRs.s:7996   .text._ZNK4ltaf20SquareMatrixInverterIdLi3EE3runEPd:00000000 $t
     /tmp/ccHaPwRs.s:8001   .text._ZNK4ltaf20SquareMatrixInverterIdLi3EE3runEPd:00000000 _ZNK4ltaf20SquareMatrixInverterIdLi3EE3runEPd
     /tmp/ccHaPwRs.s:8328   .text._ZNK4ltaf20SquareMatrixInverterIdLi3EE3runEPd:0000023c $d
     /tmp/ccHaPwRs.s:8337   .text._ZN4ltaf7inverseIdLi3ELb1EEENS_6MatrixIT_XT0_EXT0_EXT1_EEERKS3_:00000000 $t
     /tmp/ccHaPwRs.s:8342   .text._ZN4ltaf7inverseIdLi3ELb1EEENS_6MatrixIT_XT0_EXT0_EXT1_EEERKS3_:00000000 _ZN4ltaf7inverseIdLi3ELb1EEENS_6MatrixIT_XT0_EXT0_EXT1_EEERKS3_
     /tmp/ccHaPwRs.s:8392   .text._ZN4ltaf7inverseIdLi3ELb1EEENS_6MatrixIT_XT0_EXT0_EXT1_EEERKS3_:00000018 $d
     /tmp/ccHaPwRs.s:8398   .text._ZN4ltaf7inverseIdLi3ELb0EEENS_6MatrixIT_XT0_EXT0_EXT1_EEERKS3_:00000000 $t
     /tmp/ccHaPwRs.s:8403   .text._ZN4ltaf7inverseIdLi3ELb0EEENS_6MatrixIT_XT0_EXT0_EXT1_EEERKS3_:00000000 _ZN4ltaf7inverseIdLi3ELb0EEENS_6MatrixIT_XT0_EXT0_EXT1_EEERKS3_
     /tmp/ccHaPwRs.s:8453   .text._ZN4ltaf7inverseIdLi3ELb0EEENS_6MatrixIT_XT0_EXT0_EXT1_EEERKS3_:00000018 $d
     /tmp/ccHaPwRs.s:8459   .text._ZNK4ltaf20SquareMatrixInverterIdLi4EE3runEPd:00000000 $t
     /tmp/ccHaPwRs.s:8464   .text._ZNK4ltaf20SquareMatrixInverterIdLi4EE3runEPd:00000000 _ZNK4ltaf20SquareMatrixInverterIdLi4EE3runEPd
     /tmp/ccHaPwRs.s:8799   .text._ZNK4ltaf20SquareMatrixInverterIdLi4EE3runEPd:00000260 $d
     /tmp/ccHaPwRs.s:8804   .text._ZNK4ltaf20SquareMatrixInverterIdLi4EE3runEPd:0000026c $t
     /tmp/ccHaPwRs.s:9315   .text._ZNK4ltaf20SquareMatrixInverterIdLi4EE3runEPd:00000638 $d
     /tmp/ccHaPwRs.s:9319   .text._ZNK4ltaf20SquareMatrixInverterIdLi4EE3runEPd:00000640 $t
     /tmp/ccHaPwRs.s:9962   .text._ZN4ltaf7inverseIdLi4ELb1EEENS_6MatrixIT_XT0_EXT0_EXT1_EEERKS3_:00000000 $t
     /tmp/ccHaPwRs.s:9967   .text._ZN4ltaf7inverseIdLi4ELb1EEENS_6MatrixIT_XT0_EXT0_EXT1_EEERKS3_:00000000 _ZN4ltaf7inverseIdLi4ELb1EEENS_6MatrixIT_XT0_EXT0_EXT1_EEERKS3_
     /tmp/ccHaPwRs.s:10017  .text._ZN4ltaf7inverseIdLi4ELb1EEENS_6MatrixIT_XT0_EXT0_EXT1_EEERKS3_:00000018 $d
     /tmp/ccHaPwRs.s:10023  .text._ZN4ltaf7inverseIdLi4ELb0EEENS_6MatrixIT_XT0_EXT0_EXT1_EEERKS3_:00000000 $t
     /tmp/ccHaPwRs.s:10028  .text._ZN4ltaf7inverseIdLi4ELb0EEENS_6MatrixIT_XT0_EXT0_EXT1_EEERKS3_:00000000 _ZN4ltaf7inverseIdLi4ELb0EEENS_6MatrixIT_XT0_EXT0_EXT1_EEERKS3_
     /tmp/ccHaPwRs.s:10078  .text._ZN4ltaf7inverseIdLi4ELb0EEENS_6MatrixIT_XT0_EXT0_EXT1_EEERKS3_:00000018 $d
     /tmp/ccHaPwRs.s:10085  .text._ZN4ltaf9WarpFieldC2ERKNS_9CalibDataES3_:00000000 $t
     /tmp/ccHaPwRs.s:10090  .text._ZN4ltaf9WarpFieldC2ERKNS_9CalibDataES3_:00000000 _ZN4ltaf9WarpFieldC2ERKNS_9CalibDataES3_
     /tmp/ccHaPwRs.s:10339  .text._ZN4ltaf9WarpFieldC2ERKNS_9CalibDataES3_:000000f4 $d
     /tmp/ccHaPwRs.s:10090  .text._ZN4ltaf9WarpFieldC2ERKNS_9CalibDataES3_:00000000 _ZN4ltaf9WarpFieldC1ERKNS_9CalibDataES3_
     /tmp/ccHaPwRs.s:10351  .text._ZNK4ltaf17MatrixDeterminantIfLi3EEclEPKf:00000000 $t
     /tmp/ccHaPwRs.s:10356  .text._ZNK4ltaf17MatrixDeterminantIfLi3EEclEPKf:00000000 _ZNK4ltaf17MatrixDeterminantIfLi3EEclEPKf
     /tmp/ccHaPwRs.s:10468  .text._ZNK4ltaf17MatrixDeterminantIfLi3EEclEPKf:0000008c $d
     /tmp/ccHaPwRs.s:10475  .text._ZN4ltaf11determinantIfLi3ELb1EEET_RKNS_6MatrixIS1_XT0_EXT0_EXT1_EEE:00000000 $t
     /tmp/ccHaPwRs.s:10480  .text._ZN4ltaf11determinantIfLi3ELb1EEET_RKNS_6MatrixIS1_XT0_EXT0_EXT1_EEE:00000000 _ZN4ltaf11determinantIfLi3ELb1EEET_RKNS_6MatrixIS1_XT0_EXT0_EXT1_EEE
     /tmp/ccHaPwRs.s:10514  .text._ZN4ltaf11determinantIfLi3ELb1EEET_RKNS_6MatrixIS1_XT0_EXT0_EXT1_EEE:00000010 $d
     /tmp/ccHaPwRs.s:10519  .text._ZN4ltaf11determinantIfLi3ELb0EEET_RKNS_6MatrixIS1_XT0_EXT0_EXT1_EEE:00000000 $t
     /tmp/ccHaPwRs.s:10524  .text._ZN4ltaf11determinantIfLi3ELb0EEET_RKNS_6MatrixIS1_XT0_EXT0_EXT1_EEE:00000000 _ZN4ltaf11determinantIfLi3ELb0EEET_RKNS_6MatrixIS1_XT0_EXT0_EXT1_EEE
     /tmp/ccHaPwRs.s:10558  .text._ZN4ltaf11determinantIfLi3ELb0EEET_RKNS_6MatrixIS1_XT0_EXT0_EXT1_EEE:00000010 $d
     /tmp/ccHaPwRs.s:10563  .text._ZNK4ltaf17MatrixDeterminantIfLi4EEclEPKf:00000000 $t
     /tmp/ccHaPwRs.s:10568  .text._ZNK4ltaf17MatrixDeterminantIfLi4EEclEPKf:00000000 _ZNK4ltaf17MatrixDeterminantIfLi4EEclEPKf
     /tmp/ccHaPwRs.s:11016  .text._ZNK4ltaf17MatrixDeterminantIfLi4EEclEPKf:00000218 $d
     /tmp/ccHaPwRs.s:11020  .text._ZNK4ltaf17MatrixDeterminantIfLi4EEclEPKf:00000224 $t
     /tmp/ccHaPwRs.s:11025  .text._ZN4ltaf11determinantIfLi4ELb1EEET_RKNS_6MatrixIS1_XT0_EXT0_EXT1_EEE:00000000 $t
     /tmp/ccHaPwRs.s:11030  .text._ZN4ltaf11determinantIfLi4ELb1EEET_RKNS_6MatrixIS1_XT0_EXT0_EXT1_EEE:00000000 _ZN4ltaf11determinantIfLi4ELb1EEET_RKNS_6MatrixIS1_XT0_EXT0_EXT1_EEE
     /tmp/ccHaPwRs.s:11064  .text._ZN4ltaf11determinantIfLi4ELb1EEET_RKNS_6MatrixIS1_XT0_EXT0_EXT1_EEE:00000010 $d
     /tmp/ccHaPwRs.s:11069  .text._ZN4ltaf11determinantIfLi4ELb0EEET_RKNS_6MatrixIS1_XT0_EXT0_EXT1_EEE:00000000 $t
     /tmp/ccHaPwRs.s:11074  .text._ZN4ltaf11determinantIfLi4ELb0EEET_RKNS_6MatrixIS1_XT0_EXT0_EXT1_EEE:00000000 _ZN4ltaf11determinantIfLi4ELb0EEET_RKNS_6MatrixIS1_XT0_EXT0_EXT1_EEE
     /tmp/ccHaPwRs.s:11108  .text._ZN4ltaf11determinantIfLi4ELb0EEET_RKNS_6MatrixIS1_XT0_EXT0_EXT1_EEE:00000010 $d
     /tmp/ccHaPwRs.s:11113  .text._ZNK4ltaf17MatrixDeterminantIdLi3EEclEPKd:00000000 $t
     /tmp/ccHaPwRs.s:11118  .text._ZNK4ltaf17MatrixDeterminantIdLi3EEclEPKd:00000000 _ZNK4ltaf17MatrixDeterminantIdLi3EEclEPKd
     /tmp/ccHaPwRs.s:11241  .text._ZNK4ltaf17MatrixDeterminantIdLi3EEclEPKd:000000d8 $d
     /tmp/ccHaPwRs.s:11248  .text._ZN4ltaf11determinantIdLi3ELb1EEET_RKNS_6MatrixIS1_XT0_EXT0_EXT1_EEE:00000000 $t
     /tmp/ccHaPwRs.s:11253  .text._ZN4ltaf11determinantIdLi3ELb1EEET_RKNS_6MatrixIS1_XT0_EXT0_EXT1_EEE:00000000 _ZN4ltaf11determinantIdLi3ELb1EEET_RKNS_6MatrixIS1_XT0_EXT0_EXT1_EEE
     /tmp/ccHaPwRs.s:11287  .text._ZN4ltaf11determinantIdLi3ELb1EEET_RKNS_6MatrixIS1_XT0_EXT0_EXT1_EEE:00000010 $d
     /tmp/ccHaPwRs.s:11292  .text._ZN4ltaf11determinantIdLi3ELb0EEET_RKNS_6MatrixIS1_XT0_EXT0_EXT1_EEE:00000000 $t
     /tmp/ccHaPwRs.s:11297  .text._ZN4ltaf11determinantIdLi3ELb0EEET_RKNS_6MatrixIS1_XT0_EXT0_EXT1_EEE:00000000 _ZN4ltaf11determinantIdLi3ELb0EEET_RKNS_6MatrixIS1_XT0_EXT0_EXT1_EEE
     /tmp/ccHaPwRs.s:11331  .text._ZN4ltaf11determinantIdLi3ELb0EEET_RKNS_6MatrixIS1_XT0_EXT0_EXT1_EEE:00000010 $d
     /tmp/ccHaPwRs.s:11336  .text._ZNK4ltaf17MatrixDeterminantIdLi4EEclEPKd:00000000 $t
     /tmp/ccHaPwRs.s:11341  .text._ZNK4ltaf17MatrixDeterminantIdLi4EEclEPKd:00000000 _ZNK4ltaf17MatrixDeterminantIdLi4EEclEPKd
     /tmp/ccHaPwRs.s:11714  .text._ZNK4ltaf17MatrixDeterminantIdLi4EEclEPKd:00000274 $d
     /tmp/ccHaPwRs.s:11718  .text._ZNK4ltaf17MatrixDeterminantIdLi4EEclEPKd:00000280 $t
     /tmp/ccHaPwRs.s:11847  .text._ZN4ltaf11determinantIdLi4ELb1EEET_RKNS_6MatrixIS1_XT0_EXT0_EXT1_EEE:00000000 $t
     /tmp/ccHaPwRs.s:11852  .text._ZN4ltaf11determinantIdLi4ELb1EEET_RKNS_6MatrixIS1_XT0_EXT0_EXT1_EEE:00000000 _ZN4ltaf11determinantIdLi4ELb1EEET_RKNS_6MatrixIS1_XT0_EXT0_EXT1_EEE
     /tmp/ccHaPwRs.s:11886  .text._ZN4ltaf11determinantIdLi4ELb1EEET_RKNS_6MatrixIS1_XT0_EXT0_EXT1_EEE:00000010 $d
     /tmp/ccHaPwRs.s:11891  .text._ZN4ltaf11determinantIdLi4ELb0EEET_RKNS_6MatrixIS1_XT0_EXT0_EXT1_EEE:00000000 $t
     /tmp/ccHaPwRs.s:11896  .text._ZN4ltaf11determinantIdLi4ELb0EEET_RKNS_6MatrixIS1_XT0_EXT0_EXT1_EEE:00000000 _ZN4ltaf11determinantIdLi4ELb0EEET_RKNS_6MatrixIS1_XT0_EXT0_EXT1_EEE
     /tmp/ccHaPwRs.s:11930  .text._ZN4ltaf11determinantIdLi4ELb0EEET_RKNS_6MatrixIS1_XT0_EXT0_EXT1_EEE:00000010 $d
     /tmp/ccHaPwRs.s:11936  .rodata._ZTVN4ltaf9CalibDataE:00000000 $d
     /tmp/ccHaPwRs.s:11946  .rodata._ZTVN4ltaf16CalibDataWMirrorE:00000000 $d
     /tmp/ccHaPwRs.s:11955  .rodata:00000000 $d
     /tmp/ccHaPwRs.s:11998  .rodata.._191:00000000 $d
     /tmp/ccHaPwRs.s:12002  .rodata.._191:00000000 ._191
     /tmp/ccHaPwRs.s:12016  .rodata._ZZN4ltaf5Line2IfEC4ERKNS_4Vec3IfEEE12__FUNCTION__:00000000 _ZZN4ltaf5Line2IfEC4ERKNS_4Vec3IfEEE12__FUNCTION__
     /tmp/ccHaPwRs.s:12019  .rodata.._192:00000000 $d
     /tmp/ccHaPwRs.s:12023  .rodata.._192:00000000 ._192
     /tmp/ccHaPwRs.s:12059  .rodata.._193:00000000 $d
     /tmp/ccHaPwRs.s:12063  .rodata.._193:00000000 ._193
     /tmp/ccHaPwRs.s:12074  .rodata.._194:00000000 $d
     /tmp/ccHaPwRs.s:12078  .rodata.._194:00000000 ._194
     /tmp/ccHaPwRs.s:12089  .rodata.._185:00000000 $d
     /tmp/ccHaPwRs.s:12093  .rodata.._185:00000000 ._185
     /tmp/ccHaPwRs.s:12104  .rodata.._186:00000000 $d
     /tmp/ccHaPwRs.s:12108  .rodata.._186:00000000 ._186
     /tmp/ccHaPwRs.s:12119  .rodata.._187:00000000 $d
     /tmp/ccHaPwRs.s:12123  .rodata.._187:00000000 ._187
     /tmp/ccHaPwRs.s:12134  .rodata.._188:00000000 $d
     /tmp/ccHaPwRs.s:12138  .rodata.._188:00000000 ._188
     /tmp/ccHaPwRs.s:12149  .rodata.._189:00000000 $d
     /tmp/ccHaPwRs.s:12153  .rodata.._189:00000000 ._189
     /tmp/ccHaPwRs.s:12164  .rodata.._195:00000000 $d
     /tmp/ccHaPwRs.s:12168  .rodata.._195:00000000 ._195
     /tmp/ccHaPwRs.s:12179  .rodata.._196:00000000 $d
     /tmp/ccHaPwRs.s:12183  .rodata.._196:00000000 ._196
     /tmp/ccHaPwRs.s:12194  .rodata.._197:00000000 $d
     /tmp/ccHaPwRs.s:12198  .rodata.._197:00000000 ._197
     /tmp/ccHaPwRs.s:12209  .rodata.._198:00000000 $d
     /tmp/ccHaPwRs.s:12213  .rodata.._198:00000000 ._198
     /tmp/ccHaPwRs.s:12224  .rodata.._199:00000000 $d
     /tmp/ccHaPwRs.s:12228  .rodata.._199:00000000 ._199
     /tmp/ccHaPwRs.s:12242  .rodata._ZZN4ltaf9CalibData5scaleEfE12__FUNCTION__:00000000 _ZZN4ltaf9CalibData5scaleEfE12__FUNCTION__
     /tmp/ccHaPwRs.s:12245  .rodata.._200:00000000 $d
     /tmp/ccHaPwRs.s:12249  .rodata.._200:00000000 ._200
     /tmp/ccHaPwRs.s:12260  .rodata.._201:00000000 $d
     /tmp/ccHaPwRs.s:12264  .rodata.._201:00000000 ._201
     /tmp/ccHaPwRs.s:12275  .rodata.._202:00000000 $d
     /tmp/ccHaPwRs.s:12279  .rodata.._202:00000000 ._202
     /tmp/ccHaPwRs.s:12290  .rodata.._203:00000000 $d
     /tmp/ccHaPwRs.s:12294  .rodata.._203:00000000 ._203
     /tmp/ccHaPwRs.s:12305  .rodata.._204:00000000 $d
     /tmp/ccHaPwRs.s:12309  .rodata.._204:00000000 ._204
     /tmp/ccHaPwRs.s:12320  .rodata.._190:00000000 $d
     /tmp/ccHaPwRs.s:12324  .rodata.._190:00000000 ._190
                     .debug_frame:00000010 $d
                           .group:00000000 _ZN4ltaf13CalibDataBaseD5Ev
                           .group:00000000 _ZN4ltaf16CalibDataWMirrorD5Ev
                           .group:00000000 _ZN4ltaf9CalibDataD5Ev
                           .group:00000000 _ZN4ltaf9CalibDataC5ERKNS_6MatrixIfLi3ELi3ELb1EEES4_RKNS_4Vec3IfEE
                           .group:00000000 _ZN4ltaf16CalibDataWMirrorC5ERKNS_6MatrixIfLi3ELi3ELb1EEERKNS_14MirrorSysParamERKNS_21MirrorActuatorMappingE
                           .group:00000000 _ZN4ltaf6MatrixIdLi4ELi4ELb1EEC5IfLi3ELi3ELb1EEERKNS0_IT_XT0_EXT1_EXT2_EEE

UNDEFINED SYMBOLS
_ZdlPv
__aeabi_fmul
__aeabi_fsub
__aeabi_fdiv
__aeabi_dmul
__aeabi_dsub
__aeabi_fcmpeq
__aeabi_fcmpgt
assert_failed
__aeabi_i2f
__aeabi_fadd
__aeabi_f2d
__aeabi_dadd
slogf
_Znwj4Heap
sqrtf
__aeabi_ddiv
memcpy
__aeabi_d2f
