   1              		.syntax unified
   2              		.cpu cortex-r4
   3              		.fpu softvfp
   4              		.eabi_attribute 20, 1
   5              		.eabi_attribute 21, 1
   6              		.eabi_attribute 23, 3
   7              		.eabi_attribute 24, 1
   8              		.eabi_attribute 25, 1
   9              		.eabi_attribute 26, 1
  10              		.eabi_attribute 30, 4
  11              		.eabi_attribute 34, 1
  12              		.eabi_attribute 18, 4
  13              		.thumb
  14              		.file	"calibclasses.cpp"
  15              		.text
  16              	.Ltext0:
  17              		.cfi_sections	.debug_frame
  18              		.section	.text._ZN4ltaf13CalibDataBaseD2Ev,"axG",%progbits,_ZN4ltaf13CalibDataBaseD5Ev,comdat
  19              		.align	1
  20              		.weak	_ZN4ltaf13CalibDataBaseD2Ev
  21              		.thumb
  22              		.thumb_func
  24              	_ZN4ltaf13CalibDataBaseD2Ev:
  25              	.LFB3255:
  26              		.file 1 "/home/tienluong/workspace/atlantis_fw/AsicFwS2/include/calibclasses.h"
   1:/home/tienluong/workspace/atlantis_fw/AsicFwS2/include/calibclasses.h **** // this file contains CI side calibration related code
   2:/home/tienluong/workspace/atlantis_fw/AsicFwS2/include/calibclasses.h **** // that we require for disparity based focus to work
   3:/home/tienluong/workspace/atlantis_fw/AsicFwS2/include/calibclasses.h **** #ifndef __CALIBCLASSES_H__
   4:/home/tienluong/workspace/atlantis_fw/AsicFwS2/include/calibclasses.h **** #define __CALIBCLASSES_H__
   5:/home/tienluong/workspace/atlantis_fw/AsicFwS2/include/calibclasses.h **** 
   6:/home/tienluong/workspace/atlantis_fw/AsicFwS2/include/calibclasses.h **** #ifdef __cplusplus
   7:/home/tienluong/workspace/atlantis_fw/AsicFwS2/include/calibclasses.h **** #include <memory>
   8:/home/tienluong/workspace/atlantis_fw/AsicFwS2/include/calibclasses.h **** #include <cassert>
   9:/home/tienluong/workspace/atlantis_fw/AsicFwS2/include/calibclasses.h **** #include "matrix.h"
  10:/home/tienluong/workspace/atlantis_fw/AsicFwS2/include/calibclasses.h **** #include "line2.h"
  11:/home/tienluong/workspace/atlantis_fw/AsicFwS2/include/calibclasses.h **** #include "mirrorsystems.h"
  12:/home/tienluong/workspace/atlantis_fw/AsicFwS2/include/calibclasses.h **** #include "lightheader/include/lightheader.pb-c.h"
  13:/home/tienluong/workspace/atlantis_fw/AsicFwS2/include/calibclasses.h **** 
  14:/home/tienluong/workspace/atlantis_fw/AsicFwS2/include/calibclasses.h **** namespace ltaf {
  15:/home/tienluong/workspace/atlantis_fw/AsicFwS2/include/calibclasses.h **** 
  16:/home/tienluong/workspace/atlantis_fw/AsicFwS2/include/calibclasses.h **** constexpr short kNumModules = 16;
  17:/home/tienluong/workspace/atlantis_fw/AsicFwS2/include/calibclasses.h **** //constexpr short kNumAModules = 5;
  18:/home/tienluong/workspace/atlantis_fw/AsicFwS2/include/calibclasses.h **** //constexpr short kNonMoveableModules = 5 + 1 + 1; // B4, C5
  19:/home/tienluong/workspace/atlantis_fw/AsicFwS2/include/calibclasses.h **** //constexpr short kMoveableModules = 9;
  20:/home/tienluong/workspace/atlantis_fw/AsicFwS2/include/calibclasses.h **** 
  21:/home/tienluong/workspace/atlantis_fw/AsicFwS2/include/calibclasses.h **** enum ModuleName {
  22:/home/tienluong/workspace/atlantis_fw/AsicFwS2/include/calibclasses.h ****     A1 = 0,
  23:/home/tienluong/workspace/atlantis_fw/AsicFwS2/include/calibclasses.h ****     A2,
  24:/home/tienluong/workspace/atlantis_fw/AsicFwS2/include/calibclasses.h ****     A3,
  25:/home/tienluong/workspace/atlantis_fw/AsicFwS2/include/calibclasses.h ****     A4,
  26:/home/tienluong/workspace/atlantis_fw/AsicFwS2/include/calibclasses.h ****     A5,
  27:/home/tienluong/workspace/atlantis_fw/AsicFwS2/include/calibclasses.h ****     B1,
  28:/home/tienluong/workspace/atlantis_fw/AsicFwS2/include/calibclasses.h ****     B2,
  29:/home/tienluong/workspace/atlantis_fw/AsicFwS2/include/calibclasses.h ****     B3,
  30:/home/tienluong/workspace/atlantis_fw/AsicFwS2/include/calibclasses.h ****     B4,
  31:/home/tienluong/workspace/atlantis_fw/AsicFwS2/include/calibclasses.h ****     B5,
  32:/home/tienluong/workspace/atlantis_fw/AsicFwS2/include/calibclasses.h ****     C1,
  33:/home/tienluong/workspace/atlantis_fw/AsicFwS2/include/calibclasses.h ****     C2,
  34:/home/tienluong/workspace/atlantis_fw/AsicFwS2/include/calibclasses.h ****     C3,
  35:/home/tienluong/workspace/atlantis_fw/AsicFwS2/include/calibclasses.h ****     C4,
  36:/home/tienluong/workspace/atlantis_fw/AsicFwS2/include/calibclasses.h ****     C5,
  37:/home/tienluong/workspace/atlantis_fw/AsicFwS2/include/calibclasses.h ****     C6  // 15
  38:/home/tienluong/workspace/atlantis_fw/AsicFwS2/include/calibclasses.h **** };
  39:/home/tienluong/workspace/atlantis_fw/AsicFwS2/include/calibclasses.h **** 
  40:/home/tienluong/workspace/atlantis_fw/AsicFwS2/include/calibclasses.h **** enum MirrorType
  41:/home/tienluong/workspace/atlantis_fw/AsicFwS2/include/calibclasses.h **** {
  42:/home/tienluong/workspace/atlantis_fw/AsicFwS2/include/calibclasses.h ****     NotMoveable = 0,           ///< Not moveable
  43:/home/tienluong/workspace/atlantis_fw/AsicFwS2/include/calibclasses.h ****     Moveable        ///< Mirrors that can move. All B and C modules that are not glued.
  44:/home/tienluong/workspace/atlantis_fw/AsicFwS2/include/calibclasses.h **** };
  45:/home/tienluong/workspace/atlantis_fw/AsicFwS2/include/calibclasses.h **** 
  46:/home/tienluong/workspace/atlantis_fw/AsicFwS2/include/calibclasses.h **** struct MirrorActuatorMapping {
  47:/home/tienluong/workspace/atlantis_fw/AsicFwS2/include/calibclasses.h ****     float actuator_length_offset;
  48:/home/tienluong/workspace/atlantis_fw/AsicFwS2/include/calibclasses.h ****     float actuator_length_scale;
  49:/home/tienluong/workspace/atlantis_fw/AsicFwS2/include/calibclasses.h ****     float mirror_angle_offset;
  50:/home/tienluong/workspace/atlantis_fw/AsicFwS2/include/calibclasses.h ****     float mirror_angle_scale;
  51:/home/tienluong/workspace/atlantis_fw/AsicFwS2/include/calibclasses.h ****     float a; // param 3, discard first 3. ( 001)
  52:/home/tienluong/workspace/atlantis_fw/AsicFwS2/include/calibclasses.h ****     float b;
  53:/home/tienluong/workspace/atlantis_fw/AsicFwS2/include/calibclasses.h ****     float c;
  54:/home/tienluong/workspace/atlantis_fw/AsicFwS2/include/calibclasses.h ****     bool branch_left;
  55:/home/tienluong/workspace/atlantis_fw/AsicFwS2/include/calibclasses.h ****     // //default:
  56:/home/tienluong/workspace/atlantis_fw/AsicFwS2/include/calibclasses.h ****     // MirrorActuatorMapping():
  57:/home/tienluong/workspace/atlantis_fw/AsicFwS2/include/calibclasses.h ****     //     actuator_length_offset(0),
  58:/home/tienluong/workspace/atlantis_fw/AsicFwS2/include/calibclasses.h ****     //     actuator_length_scale(0),
  59:/home/tienluong/workspace/atlantis_fw/AsicFwS2/include/calibclasses.h ****     //     mirror_angle_offset(0),
  60:/home/tienluong/workspace/atlantis_fw/AsicFwS2/include/calibclasses.h ****     //     mirror_angle_scale(0),
  61:/home/tienluong/workspace/atlantis_fw/AsicFwS2/include/calibclasses.h ****     //     a(0),
  62:/home/tienluong/workspace/atlantis_fw/AsicFwS2/include/calibclasses.h ****     //     b(0),
  63:/home/tienluong/workspace/atlantis_fw/AsicFwS2/include/calibclasses.h ****     //     c(0),
  64:/home/tienluong/workspace/atlantis_fw/AsicFwS2/include/calibclasses.h ****     //     branch_left(true)
  65:/home/tienluong/workspace/atlantis_fw/AsicFwS2/include/calibclasses.h ****     // {}
  66:/home/tienluong/workspace/atlantis_fw/AsicFwS2/include/calibclasses.h **** };
  67:/home/tienluong/workspace/atlantis_fw/AsicFwS2/include/calibclasses.h **** 
  68:/home/tienluong/workspace/atlantis_fw/AsicFwS2/include/calibclasses.h **** // -------------------------------------------------------
  69:/home/tienluong/workspace/atlantis_fw/AsicFwS2/include/calibclasses.h **** //			calibdata
  70:/home/tienluong/workspace/atlantis_fw/AsicFwS2/include/calibclasses.h **** // -------------------------------------------------------
  71:/home/tienluong/workspace/atlantis_fw/AsicFwS2/include/calibclasses.h **** class CalibDataBase{
  72:/home/tienluong/workspace/atlantis_fw/AsicFwS2/include/calibclasses.h **** public:
  73:/home/tienluong/workspace/atlantis_fw/AsicFwS2/include/calibclasses.h ****     CalibDataBase():
  74:/home/tienluong/workspace/atlantis_fw/AsicFwS2/include/calibclasses.h ****         _K(Matrix3x3f::Identity()){}
  75:/home/tienluong/workspace/atlantis_fw/AsicFwS2/include/calibclasses.h **** 
  76:/home/tienluong/workspace/atlantis_fw/AsicFwS2/include/calibclasses.h ****     CalibDataBase(const Matrix3x3f & k):
  77:/home/tienluong/workspace/atlantis_fw/AsicFwS2/include/calibclasses.h ****         _K(k) {}
  78:/home/tienluong/workspace/atlantis_fw/AsicFwS2/include/calibclasses.h **** 
  79:/home/tienluong/workspace/atlantis_fw/AsicFwS2/include/calibclasses.h ****     virtual ~CalibDataBase() {}
  27              		.loc 1 79 0
  28              		.cfi_startproc
  29              		@ args = 0, pretend = 0, frame = 0
  30              		@ frame_needed = 0, uses_anonymous_args = 0
  31              		@ link register save eliminated.
  32              	.LVL0:
  33              		.loc 1 79 0
  34 0000 7047     		bx	lr
  35              		.cfi_endproc
  36              	.LFE3255:
  38              		.weak	_ZN4ltaf13CalibDataBaseD1Ev
  39              		.thumb_set _ZN4ltaf13CalibDataBaseD1Ev,_ZN4ltaf13CalibDataBaseD2Ev
  40              		.section	.text._ZN4ltaf16CalibDataWMirrorD2Ev,"axG",%progbits,_ZN4ltaf16CalibDataWMirrorD5Ev,comda
  41              		.align	1
  42              		.weak	_ZN4ltaf16CalibDataWMirrorD2Ev
  43              		.thumb
  44              		.thumb_func
  46              	_ZN4ltaf16CalibDataWMirrorD2Ev:
  47              	.LFB3668:
  80:/home/tienluong/workspace/atlantis_fw/AsicFwS2/include/calibclasses.h **** 
  81:/home/tienluong/workspace/atlantis_fw/AsicFwS2/include/calibclasses.h ****     const Matrix3x3f & K() const { return _K;}
  82:/home/tienluong/workspace/atlantis_fw/AsicFwS2/include/calibclasses.h **** protected:
  83:/home/tienluong/workspace/atlantis_fw/AsicFwS2/include/calibclasses.h ****     Matrix3x3f _K;
  84:/home/tienluong/workspace/atlantis_fw/AsicFwS2/include/calibclasses.h **** };
  85:/home/tienluong/workspace/atlantis_fw/AsicFwS2/include/calibclasses.h **** 
  86:/home/tienluong/workspace/atlantis_fw/AsicFwS2/include/calibclasses.h **** class CalibData : public CalibDataBase
  87:/home/tienluong/workspace/atlantis_fw/AsicFwS2/include/calibclasses.h **** {
  88:/home/tienluong/workspace/atlantis_fw/AsicFwS2/include/calibclasses.h **** public:
  89:/home/tienluong/workspace/atlantis_fw/AsicFwS2/include/calibclasses.h ****     CalibData()
  90:/home/tienluong/workspace/atlantis_fw/AsicFwS2/include/calibclasses.h ****         : CalibDataBase()
  91:/home/tienluong/workspace/atlantis_fw/AsicFwS2/include/calibclasses.h ****         , _T( {0.0, 0.0, 0.0} )
  92:/home/tienluong/workspace/atlantis_fw/AsicFwS2/include/calibclasses.h ****     	, _R( Matrix3x3f::Identity() ) {}
  93:/home/tienluong/workspace/atlantis_fw/AsicFwS2/include/calibclasses.h **** 
  94:/home/tienluong/workspace/atlantis_fw/AsicFwS2/include/calibclasses.h ****     CalibData(const Matrix3x3f & k,
  95:/home/tienluong/workspace/atlantis_fw/AsicFwS2/include/calibclasses.h ****     		  const Matrix3x3f & r,
  96:/home/tienluong/workspace/atlantis_fw/AsicFwS2/include/calibclasses.h ****     		  const Vec3f	   & t)
  97:/home/tienluong/workspace/atlantis_fw/AsicFwS2/include/calibclasses.h ****         : CalibDataBase( k )
  98:/home/tienluong/workspace/atlantis_fw/AsicFwS2/include/calibclasses.h ****         , _T( t )
  99:/home/tienluong/workspace/atlantis_fw/AsicFwS2/include/calibclasses.h ****     	, _R( r ) {}
 100:/home/tienluong/workspace/atlantis_fw/AsicFwS2/include/calibclasses.h **** 
 101:/home/tienluong/workspace/atlantis_fw/AsicFwS2/include/calibclasses.h **** //    const Matrix3x3f & K() const { return _K;}
 102:/home/tienluong/workspace/atlantis_fw/AsicFwS2/include/calibclasses.h **** 
 103:/home/tienluong/workspace/atlantis_fw/AsicFwS2/include/calibclasses.h ****     const Vec3f & translation() const {return _T;}
 104:/home/tienluong/workspace/atlantis_fw/AsicFwS2/include/calibclasses.h **** 
 105:/home/tienluong/workspace/atlantis_fw/AsicFwS2/include/calibclasses.h ****     const Matrix3x3f & R() const {return _R;}
 106:/home/tienluong/workspace/atlantis_fw/AsicFwS2/include/calibclasses.h **** 
 107:/home/tienluong/workspace/atlantis_fw/AsicFwS2/include/calibclasses.h ****     void setCameraParameters( const Matrix3x3f & K,
 108:/home/tienluong/workspace/atlantis_fw/AsicFwS2/include/calibclasses.h ****                               const Matrix3x3f & R,
 109:/home/tienluong/workspace/atlantis_fw/AsicFwS2/include/calibclasses.h ****                               const Vec3f    &   translation );
 110:/home/tienluong/workspace/atlantis_fw/AsicFwS2/include/calibclasses.h **** 
 111:/home/tienluong/workspace/atlantis_fw/AsicFwS2/include/calibclasses.h ****     /// Scale the camera (e.g. reduce the pixel size) by
 112:/home/tienluong/workspace/atlantis_fw/AsicFwS2/include/calibclasses.h ****     /// adjusting the corresponding intrinsic matrix
 113:/home/tienluong/workspace/atlantis_fw/AsicFwS2/include/calibclasses.h ****     void scale( float s );
 114:/home/tienluong/workspace/atlantis_fw/AsicFwS2/include/calibclasses.h **** 
 115:/home/tienluong/workspace/atlantis_fw/AsicFwS2/include/calibclasses.h ****     /// Shift the camera parallel to the sensor plane.
 116:/home/tienluong/workspace/atlantis_fw/AsicFwS2/include/calibclasses.h ****     void shift( int delta_x, int delta_y );
 117:/home/tienluong/workspace/atlantis_fw/AsicFwS2/include/calibclasses.h **** 
 118:/home/tienluong/workspace/atlantis_fw/AsicFwS2/include/calibclasses.h **** protected:
 119:/home/tienluong/workspace/atlantis_fw/AsicFwS2/include/calibclasses.h ****     //Matrix3x3f  _K;                  /// Intrinsic matrix and its precomputed inversion.
 120:/home/tienluong/workspace/atlantis_fw/AsicFwS2/include/calibclasses.h ****     Vec3f       _T;                  /// Translation
 121:/home/tienluong/workspace/atlantis_fw/AsicFwS2/include/calibclasses.h ****     Matrix3x3f  _R;                  /// Rotation matrix
 122:/home/tienluong/workspace/atlantis_fw/AsicFwS2/include/calibclasses.h **** };
 123:/home/tienluong/workspace/atlantis_fw/AsicFwS2/include/calibclasses.h **** 
 124:/home/tienluong/workspace/atlantis_fw/AsicFwS2/include/calibclasses.h **** class CalibDataWMirror : public CalibDataBase 
  48              		.loc 1 124 0
  49              		.cfi_startproc
  50              		@ args = 0, pretend = 0, frame = 0
  51              		@ frame_needed = 0, uses_anonymous_args = 0
  52              		@ link register save eliminated.
  53              	.LVL1:
  54              		.loc 1 124 0
  55 0000 7047     		bx	lr
  56              		.cfi_endproc
  57              	.LFE3668:
  59              		.weak	_ZN4ltaf16CalibDataWMirrorD1Ev
  60              		.thumb_set _ZN4ltaf16CalibDataWMirrorD1Ev,_ZN4ltaf16CalibDataWMirrorD2Ev
  61              		.section	.text._ZN4ltaf9CalibDataD2Ev,"axG",%progbits,_ZN4ltaf9CalibDataD5Ev,comdat
  62              		.align	1
  63              		.weak	_ZN4ltaf9CalibDataD2Ev
  64              		.thumb
  65              		.thumb_func
  67              	_ZN4ltaf9CalibDataD2Ev:
  68              	.LFB3672:
  86:/home/tienluong/workspace/atlantis_fw/AsicFwS2/include/calibclasses.h **** {
  69              		.loc 1 86 0
  70              		.cfi_startproc
  71              		@ args = 0, pretend = 0, frame = 0
  72              		@ frame_needed = 0, uses_anonymous_args = 0
  73              		@ link register save eliminated.
  74              	.LVL2:
  86:/home/tienluong/workspace/atlantis_fw/AsicFwS2/include/calibclasses.h **** {
  75              		.loc 1 86 0
  76 0000 7047     		bx	lr
  77              		.cfi_endproc
  78              	.LFE3672:
  80              		.weak	_ZN4ltaf9CalibDataD1Ev
  81              		.thumb_set _ZN4ltaf9CalibDataD1Ev,_ZN4ltaf9CalibDataD2Ev
  82              		.section	.text._ZN4ltaf16CalibDataWMirrorD0Ev,"axG",%progbits,_ZN4ltaf16CalibDataWMirrorD5Ev,comda
  83              		.align	1
  84              		.weak	_ZN4ltaf16CalibDataWMirrorD0Ev
  85              		.thumb
  86              		.thumb_func
  88              	_ZN4ltaf16CalibDataWMirrorD0Ev:
  89              	.LFB3670:
  90              		.loc 1 124 0
  91              		.cfi_startproc
  92              		@ args = 0, pretend = 0, frame = 0
  93              		@ frame_needed = 0, uses_anonymous_args = 0
  94              	.LVL3:
  95 0000 10B5     		push	{r4, lr}
  96              	.LCFI0:
  97              		.cfi_def_cfa_offset 8
  98              		.cfi_offset 4, -8
  99              		.cfi_offset 14, -4
 100              		.loc 1 124 0
 101 0002 024B     		ldr	r3, .L5
 102 0004 0446     		mov	r4, r0
 103              	.LVL4:
 104 0006 9847     		blx	r3
 105              	.LVL5:
 106 0008 2046     		mov	r0, r4
 107 000a 10BD     		pop	{r4, pc}
 108              	.LVL6:
 109              	.L6:
 110              		.align	2
 111              	.L5:
 112 000c 00000000 		.word	_ZdlPv
 113              		.cfi_endproc
 114              	.LFE3670:
 116              		.section	.text._ZN4ltaf13CalibDataBaseD0Ev,"axG",%progbits,_ZN4ltaf13CalibDataBaseD5Ev,comdat
 117              		.align	1
 118              		.weak	_ZN4ltaf13CalibDataBaseD0Ev
 119              		.thumb
 120              		.thumb_func
 122              	_ZN4ltaf13CalibDataBaseD0Ev:
 123              	.LFB3257:
  79:/home/tienluong/workspace/atlantis_fw/AsicFwS2/include/calibclasses.h **** 
 124              		.loc 1 79 0
 125              		.cfi_startproc
 126              		@ args = 0, pretend = 0, frame = 0
 127              		@ frame_needed = 0, uses_anonymous_args = 0
 128              	.LVL7:
 129 0000 10B5     		push	{r4, lr}
 130              	.LCFI1:
 131              		.cfi_def_cfa_offset 8
 132              		.cfi_offset 4, -8
 133              		.cfi_offset 14, -4
  79:/home/tienluong/workspace/atlantis_fw/AsicFwS2/include/calibclasses.h **** 
 134              		.loc 1 79 0
 135 0002 024B     		ldr	r3, .L8
 136 0004 0446     		mov	r4, r0
 137              	.LVL8:
 138 0006 9847     		blx	r3
 139              	.LVL9:
 140 0008 2046     		mov	r0, r4
 141 000a 10BD     		pop	{r4, pc}
 142              	.LVL10:
 143              	.L9:
 144              		.align	2
 145              	.L8:
 146 000c 00000000 		.word	_ZdlPv
 147              		.cfi_endproc
 148              	.LFE3257:
 150              		.section	.text._ZN4ltaf9CalibDataD0Ev,"axG",%progbits,_ZN4ltaf9CalibDataD5Ev,comdat
 151              		.align	1
 152              		.weak	_ZN4ltaf9CalibDataD0Ev
 153              		.thumb
 154              		.thumb_func
 156              	_ZN4ltaf9CalibDataD0Ev:
 157              	.LFB3674:
  86:/home/tienluong/workspace/atlantis_fw/AsicFwS2/include/calibclasses.h **** {
 158              		.loc 1 86 0
 159              		.cfi_startproc
 160              		@ args = 0, pretend = 0, frame = 0
 161              		@ frame_needed = 0, uses_anonymous_args = 0
 162              	.LVL11:
 163 0000 10B5     		push	{r4, lr}
 164              	.LCFI2:
 165              		.cfi_def_cfa_offset 8
 166              		.cfi_offset 4, -8
 167              		.cfi_offset 14, -4
  86:/home/tienluong/workspace/atlantis_fw/AsicFwS2/include/calibclasses.h **** {
 168              		.loc 1 86 0
 169 0002 024B     		ldr	r3, .L11
 170 0004 0446     		mov	r4, r0
 171              	.LVL12:
 172 0006 9847     		blx	r3
 173              	.LVL13:
 174 0008 2046     		mov	r0, r4
 175 000a 10BD     		pop	{r4, pc}
 176              	.LVL14:
 177              	.L12:
 178              		.align	2
 179              	.L11:
 180 000c 00000000 		.word	_ZdlPv
 181              		.cfi_endproc
 182              	.LFE3674:
 184              		.global	__aeabi_fmul
 185              		.global	__aeabi_fsub
 186              		.global	__aeabi_fdiv
 187              		.section	.text._ZNK4ltaf20SquareMatrixInverterIfLi2EE3runEPf.isra.1,"ax",%progbits
 188              		.align	1
 189              		.thumb
 190              		.thumb_func
 192              	_ZNK4ltaf20SquareMatrixInverterIfLi2EE3runEPf.isra.1:
 193              	.LFB3676:
 194              		.file 2 "/home/tienluong/workspace/atlantis_fw/AsicFwS2/include/matrix.h"
   1:/home/tienluong/workspace/atlantis_fw/AsicFwS2/include/matrix.h **** // we want to have support for the following:
   2:/home/tienluong/workspace/atlantis_fw/AsicFwS2/include/matrix.h **** // matrix3x3f, matrix4x4f, vec2f, vec3f, vec4f
   3:/home/tienluong/workspace/atlantis_fw/AsicFwS2/include/matrix.h **** // plus, minus, multiplication, inverse, transpose
   4:/home/tienluong/workspace/atlantis_fw/AsicFwS2/include/matrix.h **** 
   5:/home/tienluong/workspace/atlantis_fw/AsicFwS2/include/matrix.h **** #ifndef __MATRIX_H__
   6:/home/tienluong/workspace/atlantis_fw/AsicFwS2/include/matrix.h **** #define __MATRIX_H__
   7:/home/tienluong/workspace/atlantis_fw/AsicFwS2/include/matrix.h **** 
   8:/home/tienluong/workspace/atlantis_fw/AsicFwS2/include/matrix.h **** #ifdef __cplusplus
   9:/home/tienluong/workspace/atlantis_fw/AsicFwS2/include/matrix.h **** 
  10:/home/tienluong/workspace/atlantis_fw/AsicFwS2/include/matrix.h **** #include <cstdlib>
  11:/home/tienluong/workspace/atlantis_fw/AsicFwS2/include/matrix.h **** #include <algorithm> // has compile problem...
  12:/home/tienluong/workspace/atlantis_fw/AsicFwS2/include/matrix.h **** #include <cmath>
  13:/home/tienluong/workspace/atlantis_fw/AsicFwS2/include/matrix.h **** 
  14:/home/tienluong/workspace/atlantis_fw/AsicFwS2/include/matrix.h **** namespace ltaf { // lt auto focus
  15:/home/tienluong/workspace/atlantis_fw/AsicFwS2/include/matrix.h **** 
  16:/home/tienluong/workspace/atlantis_fw/AsicFwS2/include/matrix.h **** // -----------------------------------------------------------
  17:/home/tienluong/workspace/atlantis_fw/AsicFwS2/include/matrix.h **** // 			Vec2 class
  18:/home/tienluong/workspace/atlantis_fw/AsicFwS2/include/matrix.h **** // -----------------------------------------------------------
  19:/home/tienluong/workspace/atlantis_fw/AsicFwS2/include/matrix.h **** template<typename T>
  20:/home/tienluong/workspace/atlantis_fw/AsicFwS2/include/matrix.h **** class Vec2
  21:/home/tienluong/workspace/atlantis_fw/AsicFwS2/include/matrix.h **** {
  22:/home/tienluong/workspace/atlantis_fw/AsicFwS2/include/matrix.h **** public:
  23:/home/tienluong/workspace/atlantis_fw/AsicFwS2/include/matrix.h ****     Vec2() {}
  24:/home/tienluong/workspace/atlantis_fw/AsicFwS2/include/matrix.h ****     Vec2( T t ) : _x( t ), _y( t ) {}
  25:/home/tienluong/workspace/atlantis_fw/AsicFwS2/include/matrix.h ****     Vec2( T x, T y ) : _x( x ), _y( y ) {}
  26:/home/tienluong/workspace/atlantis_fw/AsicFwS2/include/matrix.h ****     Vec2( const Vec2 & t ) : _x( t._x ), _y( t._y ) {}
  27:/home/tienluong/workspace/atlantis_fw/AsicFwS2/include/matrix.h **** 
  28:/home/tienluong/workspace/atlantis_fw/AsicFwS2/include/matrix.h ****     template<typename U>
  29:/home/tienluong/workspace/atlantis_fw/AsicFwS2/include/matrix.h ****     explicit Vec2( const Vec2<U> & t )
  30:/home/tienluong/workspace/atlantis_fw/AsicFwS2/include/matrix.h ****         : _x( static_cast<T>( t.x() ) )
  31:/home/tienluong/workspace/atlantis_fw/AsicFwS2/include/matrix.h ****         , _y( static_cast<T>( t.y() ) ) {}
  32:/home/tienluong/workspace/atlantis_fw/AsicFwS2/include/matrix.h **** 
  33:/home/tienluong/workspace/atlantis_fw/AsicFwS2/include/matrix.h ****     Vec2 & operator=( const Vec2 & t )
  34:/home/tienluong/workspace/atlantis_fw/AsicFwS2/include/matrix.h ****     { _x = t._x; _y = t._y; return *this; }
  35:/home/tienluong/workspace/atlantis_fw/AsicFwS2/include/matrix.h **** 
  36:/home/tienluong/workspace/atlantis_fw/AsicFwS2/include/matrix.h ****     Vec2 & operator/=( const Vec2 & t )
  37:/home/tienluong/workspace/atlantis_fw/AsicFwS2/include/matrix.h ****     { _x /= t._x; _y /= t._y; return *this; }
  38:/home/tienluong/workspace/atlantis_fw/AsicFwS2/include/matrix.h **** 
  39:/home/tienluong/workspace/atlantis_fw/AsicFwS2/include/matrix.h ****     Vec2 & operator%=( const Vec2 & t )
  40:/home/tienluong/workspace/atlantis_fw/AsicFwS2/include/matrix.h ****     { _x %= t._x; _y %= t._y; return *this; }
  41:/home/tienluong/workspace/atlantis_fw/AsicFwS2/include/matrix.h **** 
  42:/home/tienluong/workspace/atlantis_fw/AsicFwS2/include/matrix.h ****     Vec2 & operator*=( const Vec2 & t )
  43:/home/tienluong/workspace/atlantis_fw/AsicFwS2/include/matrix.h ****     { _x *= t._x; _y *= t._y; return *this; }
  44:/home/tienluong/workspace/atlantis_fw/AsicFwS2/include/matrix.h **** 
  45:/home/tienluong/workspace/atlantis_fw/AsicFwS2/include/matrix.h ****     Vec2 & operator+=( const Vec2 & t )
  46:/home/tienluong/workspace/atlantis_fw/AsicFwS2/include/matrix.h ****     { _x += t._x; _y += t._y; return *this; }
  47:/home/tienluong/workspace/atlantis_fw/AsicFwS2/include/matrix.h **** 
  48:/home/tienluong/workspace/atlantis_fw/AsicFwS2/include/matrix.h ****     Vec2 & operator-=( const Vec2 & t )
  49:/home/tienluong/workspace/atlantis_fw/AsicFwS2/include/matrix.h ****     { _x -= t._x; _y -= t._y; return *this; }
  50:/home/tienluong/workspace/atlantis_fw/AsicFwS2/include/matrix.h **** 
  51:/home/tienluong/workspace/atlantis_fw/AsicFwS2/include/matrix.h ****     Vec2 & operator&=( const Vec2 & t )
  52:/home/tienluong/workspace/atlantis_fw/AsicFwS2/include/matrix.h ****     { _x &= t._x; _y &= t._y; return *this; }
  53:/home/tienluong/workspace/atlantis_fw/AsicFwS2/include/matrix.h **** 
  54:/home/tienluong/workspace/atlantis_fw/AsicFwS2/include/matrix.h ****     Vec2 & operator|=( const Vec2 & t )
  55:/home/tienluong/workspace/atlantis_fw/AsicFwS2/include/matrix.h ****     { _x |= t._x; _y |= t._y; return *this; }
  56:/home/tienluong/workspace/atlantis_fw/AsicFwS2/include/matrix.h **** 
  57:/home/tienluong/workspace/atlantis_fw/AsicFwS2/include/matrix.h ****     Vec2 & operator>>=( int t )
  58:/home/tienluong/workspace/atlantis_fw/AsicFwS2/include/matrix.h ****     { _x >>= t; _y >>= t; return *this; }
  59:/home/tienluong/workspace/atlantis_fw/AsicFwS2/include/matrix.h **** 
  60:/home/tienluong/workspace/atlantis_fw/AsicFwS2/include/matrix.h ****     Vec2 & operator<<=( int t )
  61:/home/tienluong/workspace/atlantis_fw/AsicFwS2/include/matrix.h ****     { _x <<= t; _y <<= t; return *this; }
  62:/home/tienluong/workspace/atlantis_fw/AsicFwS2/include/matrix.h **** 
  63:/home/tienluong/workspace/atlantis_fw/AsicFwS2/include/matrix.h ****     Vec2 operator-() const { return { -_x, -_y}; }
  64:/home/tienluong/workspace/atlantis_fw/AsicFwS2/include/matrix.h **** 
  65:/home/tienluong/workspace/atlantis_fw/AsicFwS2/include/matrix.h ****     template<typename U> Vec2<typename std::common_type<T, U>::type>
  66:/home/tienluong/workspace/atlantis_fw/AsicFwS2/include/matrix.h ****     operator+( const Vec2<U> & t ) const { return { _x + t.x(), _y + t.y() }; }
  67:/home/tienluong/workspace/atlantis_fw/AsicFwS2/include/matrix.h **** 
  68:/home/tienluong/workspace/atlantis_fw/AsicFwS2/include/matrix.h ****     template<typename U> Vec2<typename std::common_type<T, U>::type>
  69:/home/tienluong/workspace/atlantis_fw/AsicFwS2/include/matrix.h ****     operator-( const Vec2<U> & t ) const { return { _x - t.x(), _y - t.y() }; }
  70:/home/tienluong/workspace/atlantis_fw/AsicFwS2/include/matrix.h **** 
  71:/home/tienluong/workspace/atlantis_fw/AsicFwS2/include/matrix.h ****     template<typename U> Vec2<typename std::common_type<T, U>::type>
  72:/home/tienluong/workspace/atlantis_fw/AsicFwS2/include/matrix.h ****     operator*( const Vec2<U> & t ) const { return { _x * t.x(), _y * t.y() }; }
  73:/home/tienluong/workspace/atlantis_fw/AsicFwS2/include/matrix.h **** 
  74:/home/tienluong/workspace/atlantis_fw/AsicFwS2/include/matrix.h ****     template<typename U> Vec2<typename std::common_type<T, U>::type>
  75:/home/tienluong/workspace/atlantis_fw/AsicFwS2/include/matrix.h ****     operator/( const Vec2<U> & t ) const { return { _x / t.x(), _y / t.y() }; }
  76:/home/tienluong/workspace/atlantis_fw/AsicFwS2/include/matrix.h **** 
  77:/home/tienluong/workspace/atlantis_fw/AsicFwS2/include/matrix.h ****     template < typename U,
  78:/home/tienluong/workspace/atlantis_fw/AsicFwS2/include/matrix.h ****                typename = typename std::enable_if < std::is_integral<T>::value && std::is_integral<
  79:/home/tienluong/workspace/atlantis_fw/AsicFwS2/include/matrix.h ****     Vec2<typename std::common_type<T, U>::type>
  80:/home/tienluong/workspace/atlantis_fw/AsicFwS2/include/matrix.h ****     operator%( const Vec2<U> & t ) const { return { _x % t.x(), _y % t.y() }; }
  81:/home/tienluong/workspace/atlantis_fw/AsicFwS2/include/matrix.h **** 
  82:/home/tienluong/workspace/atlantis_fw/AsicFwS2/include/matrix.h ****     template < typename U,
  83:/home/tienluong/workspace/atlantis_fw/AsicFwS2/include/matrix.h ****                typename = typename std::enable_if < std::is_arithmetic<U>::value >::type >
  84:/home/tienluong/workspace/atlantis_fw/AsicFwS2/include/matrix.h ****     Vec2<typename std::common_type<T, U>::type>
  85:/home/tienluong/workspace/atlantis_fw/AsicFwS2/include/matrix.h ****     operator+( U t ) const { return { _x + t, _y + t }; }
  86:/home/tienluong/workspace/atlantis_fw/AsicFwS2/include/matrix.h **** 
  87:/home/tienluong/workspace/atlantis_fw/AsicFwS2/include/matrix.h ****     template < typename U,
  88:/home/tienluong/workspace/atlantis_fw/AsicFwS2/include/matrix.h ****                typename = typename std::enable_if < std::is_arithmetic<U>::value >::type >
  89:/home/tienluong/workspace/atlantis_fw/AsicFwS2/include/matrix.h ****     Vec2<typename std::common_type<T, U>::type>
  90:/home/tienluong/workspace/atlantis_fw/AsicFwS2/include/matrix.h ****     operator-( U t ) const { return { _x - t, _y - t }; }
  91:/home/tienluong/workspace/atlantis_fw/AsicFwS2/include/matrix.h **** 
  92:/home/tienluong/workspace/atlantis_fw/AsicFwS2/include/matrix.h ****     template < typename U,
  93:/home/tienluong/workspace/atlantis_fw/AsicFwS2/include/matrix.h ****                typename = typename std::enable_if < std::is_arithmetic<U>::value >::type >
  94:/home/tienluong/workspace/atlantis_fw/AsicFwS2/include/matrix.h ****     Vec2<typename std::common_type<T, U>::type>
  95:/home/tienluong/workspace/atlantis_fw/AsicFwS2/include/matrix.h ****     operator*( U t ) const { return { _x * t, _y * t }; }
  96:/home/tienluong/workspace/atlantis_fw/AsicFwS2/include/matrix.h **** 
  97:/home/tienluong/workspace/atlantis_fw/AsicFwS2/include/matrix.h ****     template < typename U,
  98:/home/tienluong/workspace/atlantis_fw/AsicFwS2/include/matrix.h ****                typename = typename std::enable_if < std::is_arithmetic<U>::value >::type >
  99:/home/tienluong/workspace/atlantis_fw/AsicFwS2/include/matrix.h ****     Vec2<typename std::common_type<T, U>::type>
 100:/home/tienluong/workspace/atlantis_fw/AsicFwS2/include/matrix.h ****     operator/( U t ) const { return { _x / t, _y / t }; }
 101:/home/tienluong/workspace/atlantis_fw/AsicFwS2/include/matrix.h **** 
 102:/home/tienluong/workspace/atlantis_fw/AsicFwS2/include/matrix.h ****     template < typename U,
 103:/home/tienluong/workspace/atlantis_fw/AsicFwS2/include/matrix.h ****                typename = typename std::enable_if < std::is_integral<T>::value && std::is_integral<
 104:/home/tienluong/workspace/atlantis_fw/AsicFwS2/include/matrix.h ****     Vec2<typename std::common_type<T, U>::type>
 105:/home/tienluong/workspace/atlantis_fw/AsicFwS2/include/matrix.h ****     operator%( U t ) const { return { _x % t, _y % t }; }
 106:/home/tienluong/workspace/atlantis_fw/AsicFwS2/include/matrix.h **** 
 107:/home/tienluong/workspace/atlantis_fw/AsicFwS2/include/matrix.h ****     T min() const { return std::min( _x, _y ); }
 108:/home/tienluong/workspace/atlantis_fw/AsicFwS2/include/matrix.h ****     T max() const { return std::max( _x, _y ); }
 109:/home/tienluong/workspace/atlantis_fw/AsicFwS2/include/matrix.h ****     T sum() const { return _x + _y; }
 110:/home/tienluong/workspace/atlantis_fw/AsicFwS2/include/matrix.h ****     T dot( const Vec2<T> & t ) const { return _x * t.x() + _y * t.y(); }
 111:/home/tienluong/workspace/atlantis_fw/AsicFwS2/include/matrix.h **** 
 112:/home/tienluong/workspace/atlantis_fw/AsicFwS2/include/matrix.h ****     Vec2 abs() const { return { std::abs( _x ), std::abs( _y ) }; }
 113:/home/tienluong/workspace/atlantis_fw/AsicFwS2/include/matrix.h ****     
 114:/home/tienluong/workspace/atlantis_fw/AsicFwS2/include/matrix.h ****     const T & x() const { return _x; }
 115:/home/tienluong/workspace/atlantis_fw/AsicFwS2/include/matrix.h ****     const T & y() const { return _y; }
 116:/home/tienluong/workspace/atlantis_fw/AsicFwS2/include/matrix.h **** 
 117:/home/tienluong/workspace/atlantis_fw/AsicFwS2/include/matrix.h ****     void setX( T x ) { _x = x; }
 118:/home/tienluong/workspace/atlantis_fw/AsicFwS2/include/matrix.h ****     void setY( T y ) { _y = y; }
 119:/home/tienluong/workspace/atlantis_fw/AsicFwS2/include/matrix.h **** 
 120:/home/tienluong/workspace/atlantis_fw/AsicFwS2/include/matrix.h **** private:
 121:/home/tienluong/workspace/atlantis_fw/AsicFwS2/include/matrix.h **** 	T _x, _y;
 122:/home/tienluong/workspace/atlantis_fw/AsicFwS2/include/matrix.h **** };
 123:/home/tienluong/workspace/atlantis_fw/AsicFwS2/include/matrix.h **** 
 124:/home/tienluong/workspace/atlantis_fw/AsicFwS2/include/matrix.h **** 
 125:/home/tienluong/workspace/atlantis_fw/AsicFwS2/include/matrix.h **** // basic add/sub/mul/div operators
 126:/home/tienluong/workspace/atlantis_fw/AsicFwS2/include/matrix.h **** template < typename T, typename U,
 127:/home/tienluong/workspace/atlantis_fw/AsicFwS2/include/matrix.h ****            typename = typename std::enable_if < std::is_arithmetic<T>::value >::type >
 128:/home/tienluong/workspace/atlantis_fw/AsicFwS2/include/matrix.h **** Vec2<typename std::common_type<T, U>::type>
 129:/home/tienluong/workspace/atlantis_fw/AsicFwS2/include/matrix.h **** operator+( T a, const Vec2<U> & b ) { return b + a; }
 130:/home/tienluong/workspace/atlantis_fw/AsicFwS2/include/matrix.h **** 
 131:/home/tienluong/workspace/atlantis_fw/AsicFwS2/include/matrix.h **** template < typename T, typename U,
 132:/home/tienluong/workspace/atlantis_fw/AsicFwS2/include/matrix.h ****            typename = typename std::enable_if < std::is_arithmetic<T>::value >::type >
 133:/home/tienluong/workspace/atlantis_fw/AsicFwS2/include/matrix.h **** Vec2<typename std::common_type<T, U>::type>
 134:/home/tienluong/workspace/atlantis_fw/AsicFwS2/include/matrix.h **** operator*( T a, const Vec2<U> & b ) { return b * a; }
 135:/home/tienluong/workspace/atlantis_fw/AsicFwS2/include/matrix.h **** 
 136:/home/tienluong/workspace/atlantis_fw/AsicFwS2/include/matrix.h **** template < typename T, typename U,
 137:/home/tienluong/workspace/atlantis_fw/AsicFwS2/include/matrix.h ****            typename = typename std::enable_if < std::is_arithmetic<T>::value >::type >
 138:/home/tienluong/workspace/atlantis_fw/AsicFwS2/include/matrix.h **** Vec2<typename std::common_type<T, U>::type>
 139:/home/tienluong/workspace/atlantis_fw/AsicFwS2/include/matrix.h **** operator-( T a, const Vec2<U> & b ) { return Vec2<T>( a ) - b; }
 140:/home/tienluong/workspace/atlantis_fw/AsicFwS2/include/matrix.h **** 
 141:/home/tienluong/workspace/atlantis_fw/AsicFwS2/include/matrix.h **** template < typename T, typename U,
 142:/home/tienluong/workspace/atlantis_fw/AsicFwS2/include/matrix.h ****            typename = typename std::enable_if < std::is_arithmetic<T>::value >::type >
 143:/home/tienluong/workspace/atlantis_fw/AsicFwS2/include/matrix.h **** Vec2<typename std::common_type<T, U>::type>
 144:/home/tienluong/workspace/atlantis_fw/AsicFwS2/include/matrix.h **** operator/( T a, const Vec2<U> & b ) { return Vec2<T>( a ) / b; }
 145:/home/tienluong/workspace/atlantis_fw/AsicFwS2/include/matrix.h **** 
 146:/home/tienluong/workspace/atlantis_fw/AsicFwS2/include/matrix.h **** // basic math functions
 147:/home/tienluong/workspace/atlantis_fw/AsicFwS2/include/matrix.h **** template<typename T>
 148:/home/tienluong/workspace/atlantis_fw/AsicFwS2/include/matrix.h **** T min( const Vec2<T> & t ) { return t.min(); }
 149:/home/tienluong/workspace/atlantis_fw/AsicFwS2/include/matrix.h **** 
 150:/home/tienluong/workspace/atlantis_fw/AsicFwS2/include/matrix.h **** template<typename T>
 151:/home/tienluong/workspace/atlantis_fw/AsicFwS2/include/matrix.h **** T max( const Vec2<T> & t ) { return t.max(); }
 152:/home/tienluong/workspace/atlantis_fw/AsicFwS2/include/matrix.h **** 
 153:/home/tienluong/workspace/atlantis_fw/AsicFwS2/include/matrix.h **** template<typename T>
 154:/home/tienluong/workspace/atlantis_fw/AsicFwS2/include/matrix.h **** T sum( const Vec2<T> & t ) { return t.sum(); }
 155:/home/tienluong/workspace/atlantis_fw/AsicFwS2/include/matrix.h **** 
 156:/home/tienluong/workspace/atlantis_fw/AsicFwS2/include/matrix.h **** template<typename T>
 157:/home/tienluong/workspace/atlantis_fw/AsicFwS2/include/matrix.h **** T dot( const Vec2<T> & a, const Vec2<T> & b ) { return a.dot( b ); }
 158:/home/tienluong/workspace/atlantis_fw/AsicFwS2/include/matrix.h **** 
 159:/home/tienluong/workspace/atlantis_fw/AsicFwS2/include/matrix.h **** template<typename T>
 160:/home/tienluong/workspace/atlantis_fw/AsicFwS2/include/matrix.h **** Vec2<T> min( const Vec2<T> & a, const Vec2<T> & b )
 161:/home/tienluong/workspace/atlantis_fw/AsicFwS2/include/matrix.h **** { return { std::min( a.x(), b.x() ), std::min( a.y(), b.y() ) }; }
 162:/home/tienluong/workspace/atlantis_fw/AsicFwS2/include/matrix.h **** 
 163:/home/tienluong/workspace/atlantis_fw/AsicFwS2/include/matrix.h **** template<typename T>
 164:/home/tienluong/workspace/atlantis_fw/AsicFwS2/include/matrix.h **** Vec2<T> abs( const Vec2<T> & t ) { return t.abs(); }
 165:/home/tienluong/workspace/atlantis_fw/AsicFwS2/include/matrix.h **** 
 166:/home/tienluong/workspace/atlantis_fw/AsicFwS2/include/matrix.h **** // template<typename T>
 167:/home/tienluong/workspace/atlantis_fw/AsicFwS2/include/matrix.h **** // Vec2<T> sign( const Vec2<T> & t ) { return t.sign(); }
 168:/home/tienluong/workspace/atlantis_fw/AsicFwS2/include/matrix.h **** 
 169:/home/tienluong/workspace/atlantis_fw/AsicFwS2/include/matrix.h **** template<typename T>
 170:/home/tienluong/workspace/atlantis_fw/AsicFwS2/include/matrix.h **** typename std::enable_if<std::is_floating_point<T>::value, T>::type
 171:/home/tienluong/workspace/atlantis_fw/AsicFwS2/include/matrix.h **** length( const Vec2<T> & a )
 172:/home/tienluong/workspace/atlantis_fw/AsicFwS2/include/matrix.h **** { return std::sqrt( dot( a, a ) ); }
 173:/home/tienluong/workspace/atlantis_fw/AsicFwS2/include/matrix.h **** 
 174:/home/tienluong/workspace/atlantis_fw/AsicFwS2/include/matrix.h **** template<typename T>
 175:/home/tienluong/workspace/atlantis_fw/AsicFwS2/include/matrix.h **** typename std::enable_if<std::is_floating_point<T>::value, Vec2<T> >::type
 176:/home/tienluong/workspace/atlantis_fw/AsicFwS2/include/matrix.h **** sqrt( const Vec2<T> & a )
 177:/home/tienluong/workspace/atlantis_fw/AsicFwS2/include/matrix.h **** { return { std::sqrt( a.x() ), std::sqrt( a.y() ) }; }
 178:/home/tienluong/workspace/atlantis_fw/AsicFwS2/include/matrix.h **** 
 179:/home/tienluong/workspace/atlantis_fw/AsicFwS2/include/matrix.h **** template<typename T>
 180:/home/tienluong/workspace/atlantis_fw/AsicFwS2/include/matrix.h **** typename std::enable_if<std::is_floating_point<T>::value, T>::type
 181:/home/tienluong/workspace/atlantis_fw/AsicFwS2/include/matrix.h **** squaredSum( const Vec2<T> & a )
 182:/home/tienluong/workspace/atlantis_fw/AsicFwS2/include/matrix.h **** { return dot( a, a ); }
 183:/home/tienluong/workspace/atlantis_fw/AsicFwS2/include/matrix.h **** 
 184:/home/tienluong/workspace/atlantis_fw/AsicFwS2/include/matrix.h **** template<typename T>
 185:/home/tienluong/workspace/atlantis_fw/AsicFwS2/include/matrix.h **** typename std::enable_if<std::is_floating_point<T>::value, Vec2<T> >::type
 186:/home/tienluong/workspace/atlantis_fw/AsicFwS2/include/matrix.h **** normalize( const Vec2<T> & a )
 187:/home/tienluong/workspace/atlantis_fw/AsicFwS2/include/matrix.h **** {
 188:/home/tienluong/workspace/atlantis_fw/AsicFwS2/include/matrix.h ****     return a / length( a );
 189:/home/tienluong/workspace/atlantis_fw/AsicFwS2/include/matrix.h **** }
 190:/home/tienluong/workspace/atlantis_fw/AsicFwS2/include/matrix.h **** 
 191:/home/tienluong/workspace/atlantis_fw/AsicFwS2/include/matrix.h **** // template<typename T>
 192:/home/tienluong/workspace/atlantis_fw/AsicFwS2/include/matrix.h **** // typename std::enable_if<std::is_floating_point<T>::value, Vec2<T> >::type
 193:/home/tienluong/workspace/atlantis_fw/AsicFwS2/include/matrix.h **** // pow( const Vec2<T> & a, const Vec2<T> & b )
 194:/home/tienluong/workspace/atlantis_fw/AsicFwS2/include/matrix.h **** // { return { std::pow( a.x(), b.x() ), std::pow( a.y(), b.y() ) }; }
 195:/home/tienluong/workspace/atlantis_fw/AsicFwS2/include/matrix.h **** 
 196:/home/tienluong/workspace/atlantis_fw/AsicFwS2/include/matrix.h **** // template<typename T>
 197:/home/tienluong/workspace/atlantis_fw/AsicFwS2/include/matrix.h **** // typename std::enable_if<std::is_floating_point<T>::value, Vec2<T> >::type
 198:/home/tienluong/workspace/atlantis_fw/AsicFwS2/include/matrix.h **** // pow( const Vec2<T> & a, T  b )
 199:/home/tienluong/workspace/atlantis_fw/AsicFwS2/include/matrix.h **** // { return { std::pow( a.x(), b ), std::pow( a.y(), b ) }; }
 200:/home/tienluong/workspace/atlantis_fw/AsicFwS2/include/matrix.h **** 
 201:/home/tienluong/workspace/atlantis_fw/AsicFwS2/include/matrix.h **** // template<typename T>
 202:/home/tienluong/workspace/atlantis_fw/AsicFwS2/include/matrix.h **** // typename std::enable_if<std::is_floating_point<T>::value, Vec2<T> >::type
 203:/home/tienluong/workspace/atlantis_fw/AsicFwS2/include/matrix.h **** // pow( T a, const Vec2<T> & b )
 204:/home/tienluong/workspace/atlantis_fw/AsicFwS2/include/matrix.h **** // { return { std::pow( a, b.x() ), std::pow( a, b.y() ) }; }
 205:/home/tienluong/workspace/atlantis_fw/AsicFwS2/include/matrix.h **** 
 206:/home/tienluong/workspace/atlantis_fw/AsicFwS2/include/matrix.h **** // template<typename T>
 207:/home/tienluong/workspace/atlantis_fw/AsicFwS2/include/matrix.h **** // typename std::enable_if<std::is_floating_point<T>::value, Vec2<T> >::type
 208:/home/tienluong/workspace/atlantis_fw/AsicFwS2/include/matrix.h **** // floor( const Vec2<T> & a )
 209:/home/tienluong/workspace/atlantis_fw/AsicFwS2/include/matrix.h **** // { return { std::floor( a.x() ), std::floor( a.y() ) }; }
 210:/home/tienluong/workspace/atlantis_fw/AsicFwS2/include/matrix.h **** 
 211:/home/tienluong/workspace/atlantis_fw/AsicFwS2/include/matrix.h **** // template<typename T>
 212:/home/tienluong/workspace/atlantis_fw/AsicFwS2/include/matrix.h **** // typename std::enable_if<std::is_floating_point<T>::value, Vec2<T> >::type
 213:/home/tienluong/workspace/atlantis_fw/AsicFwS2/include/matrix.h **** // ceil( const Vec2<T> & a )
 214:/home/tienluong/workspace/atlantis_fw/AsicFwS2/include/matrix.h **** // { return { std::ceil( a.x() ), std::ceil( a.y() ) }; }
 215:/home/tienluong/workspace/atlantis_fw/AsicFwS2/include/matrix.h **** 
 216:/home/tienluong/workspace/atlantis_fw/AsicFwS2/include/matrix.h **** 
 217:/home/tienluong/workspace/atlantis_fw/AsicFwS2/include/matrix.h **** 
 218:/home/tienluong/workspace/atlantis_fw/AsicFwS2/include/matrix.h **** 
 219:/home/tienluong/workspace/atlantis_fw/AsicFwS2/include/matrix.h **** 
 220:/home/tienluong/workspace/atlantis_fw/AsicFwS2/include/matrix.h **** // -----------------------------------------------------------
 221:/home/tienluong/workspace/atlantis_fw/AsicFwS2/include/matrix.h **** // 			Vec3 class
 222:/home/tienluong/workspace/atlantis_fw/AsicFwS2/include/matrix.h **** // -----------------------------------------------------------
 223:/home/tienluong/workspace/atlantis_fw/AsicFwS2/include/matrix.h **** template<typename T>
 224:/home/tienluong/workspace/atlantis_fw/AsicFwS2/include/matrix.h **** class Vec3
 225:/home/tienluong/workspace/atlantis_fw/AsicFwS2/include/matrix.h **** {
 226:/home/tienluong/workspace/atlantis_fw/AsicFwS2/include/matrix.h **** public:
 227:/home/tienluong/workspace/atlantis_fw/AsicFwS2/include/matrix.h ****     Vec3() {}
 228:/home/tienluong/workspace/atlantis_fw/AsicFwS2/include/matrix.h ****     Vec3( T t ) : _x( t ), _y( t ), _z( t ) {}
 229:/home/tienluong/workspace/atlantis_fw/AsicFwS2/include/matrix.h ****     Vec3( T x, T y, T z ) : _x( x ), _y( y ), _z( z ) {}
 230:/home/tienluong/workspace/atlantis_fw/AsicFwS2/include/matrix.h ****     Vec3( const Vec3 & t ) : _x( t._x ), _y( t._y ), _z( t._z ) {}
 231:/home/tienluong/workspace/atlantis_fw/AsicFwS2/include/matrix.h **** 
 232:/home/tienluong/workspace/atlantis_fw/AsicFwS2/include/matrix.h ****     template<typename U>
 233:/home/tienluong/workspace/atlantis_fw/AsicFwS2/include/matrix.h ****     explicit Vec3( const Vec3<U> & t )
 234:/home/tienluong/workspace/atlantis_fw/AsicFwS2/include/matrix.h ****         : _x( static_cast<T>( t.x() ) )
 235:/home/tienluong/workspace/atlantis_fw/AsicFwS2/include/matrix.h ****         , _y( static_cast<T>( t.y() ) )
 236:/home/tienluong/workspace/atlantis_fw/AsicFwS2/include/matrix.h ****         , _z( static_cast<T>( t.z() ) ) {}
 237:/home/tienluong/workspace/atlantis_fw/AsicFwS2/include/matrix.h **** 
 238:/home/tienluong/workspace/atlantis_fw/AsicFwS2/include/matrix.h ****     Vec3 & operator=( const Vec3 & t )
 239:/home/tienluong/workspace/atlantis_fw/AsicFwS2/include/matrix.h ****     { _x = t._x; _y = t._y; _z = t._z; return *this; }
 240:/home/tienluong/workspace/atlantis_fw/AsicFwS2/include/matrix.h **** 
 241:/home/tienluong/workspace/atlantis_fw/AsicFwS2/include/matrix.h ****     Vec3 & operator/=( const Vec3 & t )
 242:/home/tienluong/workspace/atlantis_fw/AsicFwS2/include/matrix.h ****     { _x /= t._x; _y /= t._y; _z /= t._z; return *this; }
 243:/home/tienluong/workspace/atlantis_fw/AsicFwS2/include/matrix.h **** 
 244:/home/tienluong/workspace/atlantis_fw/AsicFwS2/include/matrix.h ****     Vec3 & operator%=( const Vec3 & t )
 245:/home/tienluong/workspace/atlantis_fw/AsicFwS2/include/matrix.h ****     { _x %= t._x; _y %= t._y; _z %= t._z; return *this; }
 246:/home/tienluong/workspace/atlantis_fw/AsicFwS2/include/matrix.h **** 
 247:/home/tienluong/workspace/atlantis_fw/AsicFwS2/include/matrix.h ****     Vec3 & operator*=( const Vec3 & t )
 248:/home/tienluong/workspace/atlantis_fw/AsicFwS2/include/matrix.h ****     { _x *= t._x; _y *= t._y; _z *= t._z; return *this; }
 249:/home/tienluong/workspace/atlantis_fw/AsicFwS2/include/matrix.h **** 
 250:/home/tienluong/workspace/atlantis_fw/AsicFwS2/include/matrix.h ****     Vec3 & operator+=( const Vec3 & t )
 251:/home/tienluong/workspace/atlantis_fw/AsicFwS2/include/matrix.h ****     { _x += t._x; _y += t._y; _z += t._z; return *this; }
 252:/home/tienluong/workspace/atlantis_fw/AsicFwS2/include/matrix.h **** 
 253:/home/tienluong/workspace/atlantis_fw/AsicFwS2/include/matrix.h ****     Vec3 & operator-=( const Vec3 & t )
 254:/home/tienluong/workspace/atlantis_fw/AsicFwS2/include/matrix.h ****     { _x -= t._x; _y -= t._y; _z -= t._z; return *this; }
 255:/home/tienluong/workspace/atlantis_fw/AsicFwS2/include/matrix.h **** 
 256:/home/tienluong/workspace/atlantis_fw/AsicFwS2/include/matrix.h ****     Vec3 & operator&=( const Vec3 & t )
 257:/home/tienluong/workspace/atlantis_fw/AsicFwS2/include/matrix.h ****     { _x &= t._x; _y &= t._y; _z &= t._z; return *this; }
 258:/home/tienluong/workspace/atlantis_fw/AsicFwS2/include/matrix.h **** 
 259:/home/tienluong/workspace/atlantis_fw/AsicFwS2/include/matrix.h ****     Vec3 & operator|=( const Vec3 & t )
 260:/home/tienluong/workspace/atlantis_fw/AsicFwS2/include/matrix.h ****     { _x |= t._x; _y |= t._y; _z |= t._z; return *this; }
 261:/home/tienluong/workspace/atlantis_fw/AsicFwS2/include/matrix.h **** 
 262:/home/tienluong/workspace/atlantis_fw/AsicFwS2/include/matrix.h ****     Vec3 & operator>>=( int t )
 263:/home/tienluong/workspace/atlantis_fw/AsicFwS2/include/matrix.h ****     { _x >>= t; _y >>= t; _z >>= t; return *this; }
 264:/home/tienluong/workspace/atlantis_fw/AsicFwS2/include/matrix.h **** 
 265:/home/tienluong/workspace/atlantis_fw/AsicFwS2/include/matrix.h ****     Vec3 & operator<<=( int t )
 266:/home/tienluong/workspace/atlantis_fw/AsicFwS2/include/matrix.h ****     { _x <<= t; _y <<= t; _z <<= t; return *this; }
 267:/home/tienluong/workspace/atlantis_fw/AsicFwS2/include/matrix.h **** 
 268:/home/tienluong/workspace/atlantis_fw/AsicFwS2/include/matrix.h ****     Vec3 operator-() const { return { -_x, -_y, -_z }; }
 269:/home/tienluong/workspace/atlantis_fw/AsicFwS2/include/matrix.h **** 
 270:/home/tienluong/workspace/atlantis_fw/AsicFwS2/include/matrix.h ****     template<typename U > 
 271:/home/tienluong/workspace/atlantis_fw/AsicFwS2/include/matrix.h ****     Vec3<typename std::common_type<T, U>::type>
 272:/home/tienluong/workspace/atlantis_fw/AsicFwS2/include/matrix.h ****     operator+( const Vec3<U> & t ) const { return { _x + t.x(), _y + t.y(), _z + t.z() }; }
 273:/home/tienluong/workspace/atlantis_fw/AsicFwS2/include/matrix.h **** 
 274:/home/tienluong/workspace/atlantis_fw/AsicFwS2/include/matrix.h ****     template<typename U> Vec3<typename std::common_type<T, U>::type>
 275:/home/tienluong/workspace/atlantis_fw/AsicFwS2/include/matrix.h ****     operator-( const Vec3<U> & t ) const { return { _x - t.x(), _y - t.y(), _z - t.z() }; }
 276:/home/tienluong/workspace/atlantis_fw/AsicFwS2/include/matrix.h **** 
 277:/home/tienluong/workspace/atlantis_fw/AsicFwS2/include/matrix.h ****     template<typename U> Vec3<typename std::common_type<T, U>::type>
 278:/home/tienluong/workspace/atlantis_fw/AsicFwS2/include/matrix.h ****     operator*( const Vec3<U> & t ) const { return { _x * t.x(), _y * t.y(), _z * t.z() }; }
 279:/home/tienluong/workspace/atlantis_fw/AsicFwS2/include/matrix.h **** 
 280:/home/tienluong/workspace/atlantis_fw/AsicFwS2/include/matrix.h ****     template<typename U> Vec3<typename std::common_type<T, U>::type>
 281:/home/tienluong/workspace/atlantis_fw/AsicFwS2/include/matrix.h ****     operator/( const Vec3<U> & t ) const { return { _x / t.x(), _y / t.y(), _z / t.z() }; }
 282:/home/tienluong/workspace/atlantis_fw/AsicFwS2/include/matrix.h **** 
 283:/home/tienluong/workspace/atlantis_fw/AsicFwS2/include/matrix.h ****     template < typename U,
 284:/home/tienluong/workspace/atlantis_fw/AsicFwS2/include/matrix.h ****                typename = typename std::enable_if < std::is_integral<T>::value && std::is_integral<
 285:/home/tienluong/workspace/atlantis_fw/AsicFwS2/include/matrix.h ****     Vec3<typename std::common_type<T, U>::type>
 286:/home/tienluong/workspace/atlantis_fw/AsicFwS2/include/matrix.h ****     operator%( const Vec3<U> & t ) const { return { _x % t.x(), _y % t.y(), _z % t.z() }; }
 287:/home/tienluong/workspace/atlantis_fw/AsicFwS2/include/matrix.h **** 
 288:/home/tienluong/workspace/atlantis_fw/AsicFwS2/include/matrix.h ****     template < typename U,
 289:/home/tienluong/workspace/atlantis_fw/AsicFwS2/include/matrix.h ****                typename = typename std::enable_if < std::is_arithmetic<U>::value >::type >
 290:/home/tienluong/workspace/atlantis_fw/AsicFwS2/include/matrix.h ****     Vec3<typename std::common_type<T, U>::type>
 291:/home/tienluong/workspace/atlantis_fw/AsicFwS2/include/matrix.h ****     operator+( U t ) const { return { _x + t, _y + t, _z + t }; }
 292:/home/tienluong/workspace/atlantis_fw/AsicFwS2/include/matrix.h **** 
 293:/home/tienluong/workspace/atlantis_fw/AsicFwS2/include/matrix.h ****     template < typename U,
 294:/home/tienluong/workspace/atlantis_fw/AsicFwS2/include/matrix.h ****                typename = typename std::enable_if < std::is_arithmetic<U>::value >::type >
 295:/home/tienluong/workspace/atlantis_fw/AsicFwS2/include/matrix.h ****     Vec3<typename std::common_type<T, U>::type>
 296:/home/tienluong/workspace/atlantis_fw/AsicFwS2/include/matrix.h ****     operator-( U t ) const { return { _x - t, _y - t, _z - t }; }
 297:/home/tienluong/workspace/atlantis_fw/AsicFwS2/include/matrix.h **** 
 298:/home/tienluong/workspace/atlantis_fw/AsicFwS2/include/matrix.h ****     template < typename U,
 299:/home/tienluong/workspace/atlantis_fw/AsicFwS2/include/matrix.h ****                typename = typename std::enable_if < std::is_arithmetic<U>::value >::type >
 300:/home/tienluong/workspace/atlantis_fw/AsicFwS2/include/matrix.h ****     Vec3<typename std::common_type<T, U>::type>
 301:/home/tienluong/workspace/atlantis_fw/AsicFwS2/include/matrix.h ****     operator*( U t ) const { return { _x * t, _y * t, _z * t }; }
 302:/home/tienluong/workspace/atlantis_fw/AsicFwS2/include/matrix.h **** 
 303:/home/tienluong/workspace/atlantis_fw/AsicFwS2/include/matrix.h ****     template < typename U,
 304:/home/tienluong/workspace/atlantis_fw/AsicFwS2/include/matrix.h ****                typename = typename std::enable_if < std::is_arithmetic<U>::value >::type >
 305:/home/tienluong/workspace/atlantis_fw/AsicFwS2/include/matrix.h ****     Vec3<typename std::common_type<T, U>::type>
 306:/home/tienluong/workspace/atlantis_fw/AsicFwS2/include/matrix.h ****     operator/( U t ) const { return { _x / t, _y / t, _z / t }; }
 307:/home/tienluong/workspace/atlantis_fw/AsicFwS2/include/matrix.h **** 
 308:/home/tienluong/workspace/atlantis_fw/AsicFwS2/include/matrix.h ****     template < typename U,
 309:/home/tienluong/workspace/atlantis_fw/AsicFwS2/include/matrix.h ****                typename = typename std::enable_if < std::is_integral<T>::value && std::is_integral<
 310:/home/tienluong/workspace/atlantis_fw/AsicFwS2/include/matrix.h ****     Vec3<typename std::common_type<T, U>::type>
 311:/home/tienluong/workspace/atlantis_fw/AsicFwS2/include/matrix.h ****     operator%( U t ) const { return { _x % t, _y % t, _z % t }; }
 312:/home/tienluong/workspace/atlantis_fw/AsicFwS2/include/matrix.h ****     Vec3<bool> operator==( const Vec3 & t ) const { return { _x == t._x, _y == t._y, _z == t._z }; 
 313:/home/tienluong/workspace/atlantis_fw/AsicFwS2/include/matrix.h ****     Vec3<bool> operator!=( const Vec3 & t ) const { return { _x != t._x, _y != t._y, _z != t._z }; 
 314:/home/tienluong/workspace/atlantis_fw/AsicFwS2/include/matrix.h ****     Vec3<bool> operator>=( const Vec3 & t ) const { return { _x >= t._x, _y >= t._y, _z >= t._z }; 
 315:/home/tienluong/workspace/atlantis_fw/AsicFwS2/include/matrix.h ****     Vec3<bool> operator>( const Vec3 & t )  const { return { _x >  t._x, _y >  t._y, _z >  t._z }; 
 316:/home/tienluong/workspace/atlantis_fw/AsicFwS2/include/matrix.h ****     Vec3<bool> operator<=( const Vec3 & t ) const { return { _x <= t._x, _y <= t._y, _z <= t._z }; 
 317:/home/tienluong/workspace/atlantis_fw/AsicFwS2/include/matrix.h ****     Vec3<bool> operator<( const Vec3 & t )  const { return { _x <  t._x, _y <  t._y, _z <  t._z }; 
 318:/home/tienluong/workspace/atlantis_fw/AsicFwS2/include/matrix.h **** 
 319:/home/tienluong/workspace/atlantis_fw/AsicFwS2/include/matrix.h ****     T min() const { return std::min( std::min( _x, _y ), _z ); }
 320:/home/tienluong/workspace/atlantis_fw/AsicFwS2/include/matrix.h ****     T max() const { return std::max( std::max( _x, _y ), _z ); }
 321:/home/tienluong/workspace/atlantis_fw/AsicFwS2/include/matrix.h ****     T sum() const { return _x + _y + _z; }
 322:/home/tienluong/workspace/atlantis_fw/AsicFwS2/include/matrix.h ****     T dot( const Vec3<T> & t ) const { return _x * t.x() + _y * t.y() + _z * t.z(); }
 323:/home/tienluong/workspace/atlantis_fw/AsicFwS2/include/matrix.h **** 
 324:/home/tienluong/workspace/atlantis_fw/AsicFwS2/include/matrix.h ****     // cross product in right-hand side coordinate (i.e. if this=(1,0,0), t=(0,1,0), out=(0,0,1)).
 325:/home/tienluong/workspace/atlantis_fw/AsicFwS2/include/matrix.h ****     Vec3<T> cross( const Vec3<T> & t ) const
 326:/home/tienluong/workspace/atlantis_fw/AsicFwS2/include/matrix.h ****     { return Vec3<T> {_y * t.z() - _z * t.y(), _z * t.x() - _x * t.z(), _x * t.y() - _y * t.x()};}
 327:/home/tienluong/workspace/atlantis_fw/AsicFwS2/include/matrix.h **** 
 328:/home/tienluong/workspace/atlantis_fw/AsicFwS2/include/matrix.h ****     Vec3 abs() const { return { std::abs( _x ), std::abs( _y ), std::abs( _z ) }; }
 329:/home/tienluong/workspace/atlantis_fw/AsicFwS2/include/matrix.h **** 
 330:/home/tienluong/workspace/atlantis_fw/AsicFwS2/include/matrix.h ****     const T & x() const { return _x; }
 331:/home/tienluong/workspace/atlantis_fw/AsicFwS2/include/matrix.h ****     const T & y() const { return _y; }
 332:/home/tienluong/workspace/atlantis_fw/AsicFwS2/include/matrix.h ****     const T & z() const { return _z; }
 333:/home/tienluong/workspace/atlantis_fw/AsicFwS2/include/matrix.h **** 
 334:/home/tienluong/workspace/atlantis_fw/AsicFwS2/include/matrix.h ****     void setX( T x ) { _x = x; }
 335:/home/tienluong/workspace/atlantis_fw/AsicFwS2/include/matrix.h ****     void setY( T y ) { _y = y; }
 336:/home/tienluong/workspace/atlantis_fw/AsicFwS2/include/matrix.h ****     void setZ( T z ) { _z = z; }
 337:/home/tienluong/workspace/atlantis_fw/AsicFwS2/include/matrix.h **** 
 338:/home/tienluong/workspace/atlantis_fw/AsicFwS2/include/matrix.h ****     Vec3 & normalize()
 339:/home/tienluong/workspace/atlantis_fw/AsicFwS2/include/matrix.h ****     {
 340:/home/tienluong/workspace/atlantis_fw/AsicFwS2/include/matrix.h ****         T len = length(*this);
 341:/home/tienluong/workspace/atlantis_fw/AsicFwS2/include/matrix.h ****         _x /= len;
 342:/home/tienluong/workspace/atlantis_fw/AsicFwS2/include/matrix.h ****         _y /= len;
 343:/home/tienluong/workspace/atlantis_fw/AsicFwS2/include/matrix.h ****         _z /= len;
 344:/home/tienluong/workspace/atlantis_fw/AsicFwS2/include/matrix.h ****         return *this;
 345:/home/tienluong/workspace/atlantis_fw/AsicFwS2/include/matrix.h ****     }
 346:/home/tienluong/workspace/atlantis_fw/AsicFwS2/include/matrix.h **** 
 347:/home/tienluong/workspace/atlantis_fw/AsicFwS2/include/matrix.h **** private:
 348:/home/tienluong/workspace/atlantis_fw/AsicFwS2/include/matrix.h ****     T _x, _y, _z;
 349:/home/tienluong/workspace/atlantis_fw/AsicFwS2/include/matrix.h **** };
 350:/home/tienluong/workspace/atlantis_fw/AsicFwS2/include/matrix.h **** 
 351:/home/tienluong/workspace/atlantis_fw/AsicFwS2/include/matrix.h **** // basic math functions
 352:/home/tienluong/workspace/atlantis_fw/AsicFwS2/include/matrix.h **** template<typename T>
 353:/home/tienluong/workspace/atlantis_fw/AsicFwS2/include/matrix.h **** T min( const Vec3<T> & t ) { return t.min(); }
 354:/home/tienluong/workspace/atlantis_fw/AsicFwS2/include/matrix.h **** 
 355:/home/tienluong/workspace/atlantis_fw/AsicFwS2/include/matrix.h **** template<typename T>
 356:/home/tienluong/workspace/atlantis_fw/AsicFwS2/include/matrix.h **** T max( const Vec3<T> & t ) { return t.max(); }
 357:/home/tienluong/workspace/atlantis_fw/AsicFwS2/include/matrix.h **** 
 358:/home/tienluong/workspace/atlantis_fw/AsicFwS2/include/matrix.h **** template<typename T>
 359:/home/tienluong/workspace/atlantis_fw/AsicFwS2/include/matrix.h **** T sum( const Vec3<T> & t ) { return t.sum(); }
 360:/home/tienluong/workspace/atlantis_fw/AsicFwS2/include/matrix.h **** 
 361:/home/tienluong/workspace/atlantis_fw/AsicFwS2/include/matrix.h **** template<typename T>
 362:/home/tienluong/workspace/atlantis_fw/AsicFwS2/include/matrix.h **** T dot( const Vec3<T> & a, const Vec3<T> & b ) { return a.dot( b ); }
 363:/home/tienluong/workspace/atlantis_fw/AsicFwS2/include/matrix.h **** 
 364:/home/tienluong/workspace/atlantis_fw/AsicFwS2/include/matrix.h **** template<typename T>
 365:/home/tienluong/workspace/atlantis_fw/AsicFwS2/include/matrix.h **** Vec3<T> cross( const Vec3<T> & a, const Vec3<T> & b ) { return a.cross( b ); }
 366:/home/tienluong/workspace/atlantis_fw/AsicFwS2/include/matrix.h **** 
 367:/home/tienluong/workspace/atlantis_fw/AsicFwS2/include/matrix.h **** template<typename T>
 368:/home/tienluong/workspace/atlantis_fw/AsicFwS2/include/matrix.h **** Vec3<T> min( const Vec3<T> & a, const Vec3<T> & b )
 369:/home/tienluong/workspace/atlantis_fw/AsicFwS2/include/matrix.h **** { return { std::min( a.x(), b.x() ), std::min( a.y(), b.y() ), std::min( a.z(), b.z() ) }; }
 370:/home/tienluong/workspace/atlantis_fw/AsicFwS2/include/matrix.h **** 
 371:/home/tienluong/workspace/atlantis_fw/AsicFwS2/include/matrix.h **** // template<typename T, typename U>
 372:/home/tienluong/workspace/atlantis_fw/AsicFwS2/include/matrix.h **** // typename std::enable_if<std::is_arithmetic<U>::value, Vec3<T> >::type
 373:/home/tienluong/workspace/atlantis_fw/AsicFwS2/include/matrix.h **** // min( U a, const Vec3<T> & b )
 374:/home/tienluong/workspace/atlantis_fw/AsicFwS2/include/matrix.h **** // { return min( Vec3<T>( a ), b ); }
 375:/home/tienluong/workspace/atlantis_fw/AsicFwS2/include/matrix.h **** 
 376:/home/tienluong/workspace/atlantis_fw/AsicFwS2/include/matrix.h **** // template<typename T, typename U>
 377:/home/tienluong/workspace/atlantis_fw/AsicFwS2/include/matrix.h **** // typename std::enable_if<std::is_arithmetic<U>::value, Vec3<T> >::type
 378:/home/tienluong/workspace/atlantis_fw/AsicFwS2/include/matrix.h **** // min( const Vec3<T> & a, U b )
 379:/home/tienluong/workspace/atlantis_fw/AsicFwS2/include/matrix.h **** // { return min( a, Vec3<T>( b ) ); }
 380:/home/tienluong/workspace/atlantis_fw/AsicFwS2/include/matrix.h **** 
 381:/home/tienluong/workspace/atlantis_fw/AsicFwS2/include/matrix.h **** // template<typename T>
 382:/home/tienluong/workspace/atlantis_fw/AsicFwS2/include/matrix.h **** // Vec3<T> max( const Vec3<T> & a, const Vec3<T> & b )
 383:/home/tienluong/workspace/atlantis_fw/AsicFwS2/include/matrix.h **** // { return { max( a.x(), b.x() ), max( a.y(), b.y() ), max( a.z(), b.z() ) }; }
 384:/home/tienluong/workspace/atlantis_fw/AsicFwS2/include/matrix.h **** 
 385:/home/tienluong/workspace/atlantis_fw/AsicFwS2/include/matrix.h **** // template<typename T, typename U>
 386:/home/tienluong/workspace/atlantis_fw/AsicFwS2/include/matrix.h **** // typename std::enable_if<std::is_arithmetic<U>::value, Vec3<T> >::type
 387:/home/tienluong/workspace/atlantis_fw/AsicFwS2/include/matrix.h **** // max( U a, const Vec3<T> & b )
 388:/home/tienluong/workspace/atlantis_fw/AsicFwS2/include/matrix.h **** // { return max( Vec3<T>( a ), b ); }
 389:/home/tienluong/workspace/atlantis_fw/AsicFwS2/include/matrix.h **** 
 390:/home/tienluong/workspace/atlantis_fw/AsicFwS2/include/matrix.h **** // template<typename T, typename U>
 391:/home/tienluong/workspace/atlantis_fw/AsicFwS2/include/matrix.h **** // typename std::enable_if<std::is_arithmetic<U>::value, Vec3<T> >::type
 392:/home/tienluong/workspace/atlantis_fw/AsicFwS2/include/matrix.h **** // max( const Vec3<T> & a, U b )
 393:/home/tienluong/workspace/atlantis_fw/AsicFwS2/include/matrix.h **** // { return max( a, Vec3<T>( b ) ); }
 394:/home/tienluong/workspace/atlantis_fw/AsicFwS2/include/matrix.h **** 
 395:/home/tienluong/workspace/atlantis_fw/AsicFwS2/include/matrix.h **** // template<typename T>
 396:/home/tienluong/workspace/atlantis_fw/AsicFwS2/include/matrix.h **** // Vec3<T> clamp( const Vec3<T> & t, const Vec3<T> & min_t, const Vec3<T> & max_t )
 397:/home/tienluong/workspace/atlantis_fw/AsicFwS2/include/matrix.h **** // { return min( max( t, min_t ), max_t ); }
 398:/home/tienluong/workspace/atlantis_fw/AsicFwS2/include/matrix.h **** 
 399:/home/tienluong/workspace/atlantis_fw/AsicFwS2/include/matrix.h **** // template<typename T, typename U>
 400:/home/tienluong/workspace/atlantis_fw/AsicFwS2/include/matrix.h **** // typename std::enable_if<std::is_arithmetic<U>::value, Vec3<T> >::type
 401:/home/tienluong/workspace/atlantis_fw/AsicFwS2/include/matrix.h **** // clamp( const Vec3<T> & t, U min_t, const Vec3<T> & max_t )
 402:/home/tienluong/workspace/atlantis_fw/AsicFwS2/include/matrix.h **** // { return clamp( t, Vec3<T>( min_t ), max_t ); }
 403:/home/tienluong/workspace/atlantis_fw/AsicFwS2/include/matrix.h **** 
 404:/home/tienluong/workspace/atlantis_fw/AsicFwS2/include/matrix.h **** // template<typename T, typename U>
 405:/home/tienluong/workspace/atlantis_fw/AsicFwS2/include/matrix.h **** // typename std::enable_if<std::is_arithmetic<U>::value, Vec3<T> >::type
 406:/home/tienluong/workspace/atlantis_fw/AsicFwS2/include/matrix.h **** // clamp( const Vec3<T> & t, const Vec3<T> & min_t, U max_t )
 407:/home/tienluong/workspace/atlantis_fw/AsicFwS2/include/matrix.h **** // { return clamp( t, min_t, Vec3<T>( max_t ) ); }
 408:/home/tienluong/workspace/atlantis_fw/AsicFwS2/include/matrix.h **** 
 409:/home/tienluong/workspace/atlantis_fw/AsicFwS2/include/matrix.h **** // template<typename T, typename U, typename V>
 410:/home/tienluong/workspace/atlantis_fw/AsicFwS2/include/matrix.h **** // typename std::enable_if < std::is_arithmetic<U>::value && std::is_arithmetic<V>::value, Vec3<T> 
 411:/home/tienluong/workspace/atlantis_fw/AsicFwS2/include/matrix.h **** // clamp( const Vec3<T> & t, U min_t, V max_t )
 412:/home/tienluong/workspace/atlantis_fw/AsicFwS2/include/matrix.h **** // { return clamp( t, Vec3<T>( min_t ), Vec3<T>( max_t ) ); }
 413:/home/tienluong/workspace/atlantis_fw/AsicFwS2/include/matrix.h **** 
 414:/home/tienluong/workspace/atlantis_fw/AsicFwS2/include/matrix.h **** template<typename T>
 415:/home/tienluong/workspace/atlantis_fw/AsicFwS2/include/matrix.h **** Vec3<T> abs( const Vec3<T> & t ) { return t.abs(); }
 416:/home/tienluong/workspace/atlantis_fw/AsicFwS2/include/matrix.h **** 
 417:/home/tienluong/workspace/atlantis_fw/AsicFwS2/include/matrix.h **** // template<typename T>
 418:/home/tienluong/workspace/atlantis_fw/AsicFwS2/include/matrix.h **** // Vec3<T> sign( const Vec3<T> & t ) { return t.sign(); }
 419:/home/tienluong/workspace/atlantis_fw/AsicFwS2/include/matrix.h **** 
 420:/home/tienluong/workspace/atlantis_fw/AsicFwS2/include/matrix.h **** template<typename T>
 421:/home/tienluong/workspace/atlantis_fw/AsicFwS2/include/matrix.h **** typename std::enable_if<std::is_floating_point<T>::value, T>::type
 422:/home/tienluong/workspace/atlantis_fw/AsicFwS2/include/matrix.h **** length( const Vec3<T> & a )
 423:/home/tienluong/workspace/atlantis_fw/AsicFwS2/include/matrix.h **** { return std::sqrt( dot( a, a ) ); }
 424:/home/tienluong/workspace/atlantis_fw/AsicFwS2/include/matrix.h **** 
 425:/home/tienluong/workspace/atlantis_fw/AsicFwS2/include/matrix.h **** template<typename T>
 426:/home/tienluong/workspace/atlantis_fw/AsicFwS2/include/matrix.h **** typename std::enable_if<std::is_floating_point<T>::value, Vec3<T> >::type
 427:/home/tienluong/workspace/atlantis_fw/AsicFwS2/include/matrix.h **** sqrt( const Vec3<T> & a )
 428:/home/tienluong/workspace/atlantis_fw/AsicFwS2/include/matrix.h **** { return { std::sqrt( a.x() ), std::sqrt( a.y() ), std::sqrt( a.z() ) }; }
 429:/home/tienluong/workspace/atlantis_fw/AsicFwS2/include/matrix.h **** 
 430:/home/tienluong/workspace/atlantis_fw/AsicFwS2/include/matrix.h **** template<typename T>
 431:/home/tienluong/workspace/atlantis_fw/AsicFwS2/include/matrix.h **** typename std::enable_if<std::is_floating_point<T>::value, T>::type
 432:/home/tienluong/workspace/atlantis_fw/AsicFwS2/include/matrix.h **** squaredSum( const Vec3<T> & a )
 433:/home/tienluong/workspace/atlantis_fw/AsicFwS2/include/matrix.h **** { return dot( a, a ); }
 434:/home/tienluong/workspace/atlantis_fw/AsicFwS2/include/matrix.h **** 
 435:/home/tienluong/workspace/atlantis_fw/AsicFwS2/include/matrix.h **** template<typename T>
 436:/home/tienluong/workspace/atlantis_fw/AsicFwS2/include/matrix.h **** typename std::enable_if<std::is_floating_point<T>::value, Vec3<T> >::type
 437:/home/tienluong/workspace/atlantis_fw/AsicFwS2/include/matrix.h **** normalize( const Vec3<T> & a )
 438:/home/tienluong/workspace/atlantis_fw/AsicFwS2/include/matrix.h **** {
 439:/home/tienluong/workspace/atlantis_fw/AsicFwS2/include/matrix.h ****     return a / length( a );
 440:/home/tienluong/workspace/atlantis_fw/AsicFwS2/include/matrix.h **** }
 441:/home/tienluong/workspace/atlantis_fw/AsicFwS2/include/matrix.h **** 
 442:/home/tienluong/workspace/atlantis_fw/AsicFwS2/include/matrix.h **** // template<typename T>
 443:/home/tienluong/workspace/atlantis_fw/AsicFwS2/include/matrix.h **** // typename std::enable_if<std::is_floating_point<T>::value, Vec3<T> >::type
 444:/home/tienluong/workspace/atlantis_fw/AsicFwS2/include/matrix.h **** // pow( const Vec3<T> & a, const Vec3<T> & b )
 445:/home/tienluong/workspace/atlantis_fw/AsicFwS2/include/matrix.h **** // { return { std::pow( a.x(), b.x() ), std::pow( a.y(), b.y() ), std::pow( a.z(), b.z() ) }; }
 446:/home/tienluong/workspace/atlantis_fw/AsicFwS2/include/matrix.h **** 
 447:/home/tienluong/workspace/atlantis_fw/AsicFwS2/include/matrix.h **** // template<typename T>
 448:/home/tienluong/workspace/atlantis_fw/AsicFwS2/include/matrix.h **** // typename std::enable_if<std::is_floating_point<T>::value, Vec3<T> >::type
 449:/home/tienluong/workspace/atlantis_fw/AsicFwS2/include/matrix.h **** // pow( const Vec3<T> & a, T  b )
 450:/home/tienluong/workspace/atlantis_fw/AsicFwS2/include/matrix.h **** // { return { std::pow( a.x(), b ), std::pow( a.y(), b ), std::pow( a.z(), b ) }; }
 451:/home/tienluong/workspace/atlantis_fw/AsicFwS2/include/matrix.h **** 
 452:/home/tienluong/workspace/atlantis_fw/AsicFwS2/include/matrix.h **** // template<typename T>
 453:/home/tienluong/workspace/atlantis_fw/AsicFwS2/include/matrix.h **** // typename std::enable_if<std::is_floating_point<T>::value, Vec3<T> >::type
 454:/home/tienluong/workspace/atlantis_fw/AsicFwS2/include/matrix.h **** // pow( T a, const Vec3<T> & b )
 455:/home/tienluong/workspace/atlantis_fw/AsicFwS2/include/matrix.h **** // { return { std::pow( a, b.x() ), std::pow( a, b.y() ), std::pow( a, b.z() ) }; }
 456:/home/tienluong/workspace/atlantis_fw/AsicFwS2/include/matrix.h **** 
 457:/home/tienluong/workspace/atlantis_fw/AsicFwS2/include/matrix.h **** // template<typename T>
 458:/home/tienluong/workspace/atlantis_fw/AsicFwS2/include/matrix.h **** // typename std::enable_if<std::is_floating_point<T>::value, Vec3<T> >::type
 459:/home/tienluong/workspace/atlantis_fw/AsicFwS2/include/matrix.h **** // floor( const Vec3<T> & a )
 460:/home/tienluong/workspace/atlantis_fw/AsicFwS2/include/matrix.h **** // { return { std::floor( a.x() ), std::floor( a.y() ), std::floor( a.z() ) }; }
 461:/home/tienluong/workspace/atlantis_fw/AsicFwS2/include/matrix.h **** 
 462:/home/tienluong/workspace/atlantis_fw/AsicFwS2/include/matrix.h **** // template<typename T>
 463:/home/tienluong/workspace/atlantis_fw/AsicFwS2/include/matrix.h **** // typename std::enable_if<std::is_floating_point<T>::value, Vec3<T> >::type
 464:/home/tienluong/workspace/atlantis_fw/AsicFwS2/include/matrix.h **** // ceil( const Vec3<T> & a )
 465:/home/tienluong/workspace/atlantis_fw/AsicFwS2/include/matrix.h **** // { return { std::ceil( a.x() ), std::ceil( a.y() ), std::ceil( a.z() ) }; }
 466:/home/tienluong/workspace/atlantis_fw/AsicFwS2/include/matrix.h **** 
 467:/home/tienluong/workspace/atlantis_fw/AsicFwS2/include/matrix.h **** 
 468:/home/tienluong/workspace/atlantis_fw/AsicFwS2/include/matrix.h **** // -----------------------------------------------------------
 469:/home/tienluong/workspace/atlantis_fw/AsicFwS2/include/matrix.h **** // 			Vec4 class
 470:/home/tienluong/workspace/atlantis_fw/AsicFwS2/include/matrix.h **** // -----------------------------------------------------------
 471:/home/tienluong/workspace/atlantis_fw/AsicFwS2/include/matrix.h **** template<typename T>
 472:/home/tienluong/workspace/atlantis_fw/AsicFwS2/include/matrix.h **** class Vec4
 473:/home/tienluong/workspace/atlantis_fw/AsicFwS2/include/matrix.h **** {
 474:/home/tienluong/workspace/atlantis_fw/AsicFwS2/include/matrix.h **** public:
 475:/home/tienluong/workspace/atlantis_fw/AsicFwS2/include/matrix.h ****     Vec4() {}
 476:/home/tienluong/workspace/atlantis_fw/AsicFwS2/include/matrix.h ****     Vec4( T t ) : _x( t ), _y( t ), _z( t ), _a( t ) {}
 477:/home/tienluong/workspace/atlantis_fw/AsicFwS2/include/matrix.h ****     Vec4( T x, T y, T z, T a ) : _x( x ), _y( y ), _z( z ), _a ( a ){}
 478:/home/tienluong/workspace/atlantis_fw/AsicFwS2/include/matrix.h ****     Vec4( const Vec4 & t ) : _x( t._x ), _y( t._y ), _z( t._z ), _a( t._a ) {}
 479:/home/tienluong/workspace/atlantis_fw/AsicFwS2/include/matrix.h **** 
 480:/home/tienluong/workspace/atlantis_fw/AsicFwS2/include/matrix.h ****     template<typename U>
 481:/home/tienluong/workspace/atlantis_fw/AsicFwS2/include/matrix.h ****     explicit Vec4( const Vec4<U> & t )
 482:/home/tienluong/workspace/atlantis_fw/AsicFwS2/include/matrix.h ****         : _x( static_cast<T>( t.x() ) )
 483:/home/tienluong/workspace/atlantis_fw/AsicFwS2/include/matrix.h ****         , _y( static_cast<T>( t.y() ) )
 484:/home/tienluong/workspace/atlantis_fw/AsicFwS2/include/matrix.h ****         , _z( static_cast<T>( t.z() ) )
 485:/home/tienluong/workspace/atlantis_fw/AsicFwS2/include/matrix.h ****         , _a( static_cast<T>( t.a() ) ) {}
 486:/home/tienluong/workspace/atlantis_fw/AsicFwS2/include/matrix.h **** 
 487:/home/tienluong/workspace/atlantis_fw/AsicFwS2/include/matrix.h ****     Vec4 & operator=( const Vec4 & t )
 488:/home/tienluong/workspace/atlantis_fw/AsicFwS2/include/matrix.h ****     { _x = t._x; _y = t._y; _z = t._z; _a = t._a; return *this; }
 489:/home/tienluong/workspace/atlantis_fw/AsicFwS2/include/matrix.h **** 
 490:/home/tienluong/workspace/atlantis_fw/AsicFwS2/include/matrix.h ****     Vec4 & operator/=( const Vec4 & t )
 491:/home/tienluong/workspace/atlantis_fw/AsicFwS2/include/matrix.h ****     { _x /= t._x; _y /= t._y; _z /= t._z; _a /= t._a; return *this; }
 492:/home/tienluong/workspace/atlantis_fw/AsicFwS2/include/matrix.h **** 
 493:/home/tienluong/workspace/atlantis_fw/AsicFwS2/include/matrix.h ****     Vec4 & operator%=( const Vec4 & t )
 494:/home/tienluong/workspace/atlantis_fw/AsicFwS2/include/matrix.h ****     { _x %= t._x; _y %= t._y; _z %= t._z; _a %= t._a; return *this; }
 495:/home/tienluong/workspace/atlantis_fw/AsicFwS2/include/matrix.h **** 
 496:/home/tienluong/workspace/atlantis_fw/AsicFwS2/include/matrix.h ****     Vec4 & operator*=( const Vec4 & t )
 497:/home/tienluong/workspace/atlantis_fw/AsicFwS2/include/matrix.h ****     { _x *= t._x; _y *= t._y; _z *= t._z; _a *= t._a; return *this; }
 498:/home/tienluong/workspace/atlantis_fw/AsicFwS2/include/matrix.h **** 
 499:/home/tienluong/workspace/atlantis_fw/AsicFwS2/include/matrix.h ****     Vec4 & operator+=( const Vec4 & t )
 500:/home/tienluong/workspace/atlantis_fw/AsicFwS2/include/matrix.h ****     { _x += t._x; _y += t._y; _z += t._z; _a += t._a; return *this; }
 501:/home/tienluong/workspace/atlantis_fw/AsicFwS2/include/matrix.h **** 
 502:/home/tienluong/workspace/atlantis_fw/AsicFwS2/include/matrix.h ****     Vec4 & operator-=( const Vec4 & t )
 503:/home/tienluong/workspace/atlantis_fw/AsicFwS2/include/matrix.h ****     { _x -= t._x; _y -= t._y; _z -= t._z; _a -= t._a; return *this; }
 504:/home/tienluong/workspace/atlantis_fw/AsicFwS2/include/matrix.h **** 
 505:/home/tienluong/workspace/atlantis_fw/AsicFwS2/include/matrix.h ****     Vec4 operator-() const { return { -_x, -_y, _z, _a}; }
 506:/home/tienluong/workspace/atlantis_fw/AsicFwS2/include/matrix.h **** 
 507:/home/tienluong/workspace/atlantis_fw/AsicFwS2/include/matrix.h ****     Vec4<bool> operator==( const Vec4 & t ) const { return { _x == t._x, _y == t._y, _z == t._z, _a
 508:/home/tienluong/workspace/atlantis_fw/AsicFwS2/include/matrix.h ****     Vec4<bool> operator!=( const Vec4 & t ) const { return { _x != t._x, _y != t._y, _z != t._z, _a
 509:/home/tienluong/workspace/atlantis_fw/AsicFwS2/include/matrix.h ****     Vec4<bool> operator>=( const Vec4 & t ) const { return { _x >= t._x, _y >= t._y, _z >= t._z, _a
 510:/home/tienluong/workspace/atlantis_fw/AsicFwS2/include/matrix.h ****     Vec4<bool> operator>( const  Vec4 & t )  const { return { _x >  t._x, _y >  t._y, _z > t._z, _a
 511:/home/tienluong/workspace/atlantis_fw/AsicFwS2/include/matrix.h ****     Vec4<bool> operator<=( const Vec4 & t ) const { return { _x <= t._x, _y <= t._y, _z <= t._z, _a
 512:/home/tienluong/workspace/atlantis_fw/AsicFwS2/include/matrix.h ****     Vec4<bool> operator<( const  Vec4 & t )  const { return { _x <  t._x, _y <  t._y, _z <  t._z, _
 513:/home/tienluong/workspace/atlantis_fw/AsicFwS2/include/matrix.h **** 
 514:/home/tienluong/workspace/atlantis_fw/AsicFwS2/include/matrix.h ****     T min() const { return std::min( std::min( std::min( _x, _y ), _z ), _a); }
 515:/home/tienluong/workspace/atlantis_fw/AsicFwS2/include/matrix.h ****     T max() const { return std::max( std::max( std::max( _x, _y ), _z ), _a); }
 516:/home/tienluong/workspace/atlantis_fw/AsicFwS2/include/matrix.h ****     T sum() const { return _x + _y + _z + _a; }
 517:/home/tienluong/workspace/atlantis_fw/AsicFwS2/include/matrix.h ****     T dot( const Vec4<T> & t ) const { return _x * t.x() + _y * t.y() + _z * t.z() + _a * t.a(); }
 518:/home/tienluong/workspace/atlantis_fw/AsicFwS2/include/matrix.h **** 
 519:/home/tienluong/workspace/atlantis_fw/AsicFwS2/include/matrix.h ****     Vec4 abs() const { return { std::abs( _x ), std::abs( _y ), std::abs( _z ), std::abs( _a ) }; }
 520:/home/tienluong/workspace/atlantis_fw/AsicFwS2/include/matrix.h **** 
 521:/home/tienluong/workspace/atlantis_fw/AsicFwS2/include/matrix.h ****     const T & x() const { return _x; }
 522:/home/tienluong/workspace/atlantis_fw/AsicFwS2/include/matrix.h ****     const T & y() const { return _y; }
 523:/home/tienluong/workspace/atlantis_fw/AsicFwS2/include/matrix.h ****     const T & z() const { return _z; }
 524:/home/tienluong/workspace/atlantis_fw/AsicFwS2/include/matrix.h ****     const T & a() const { return _a; }
 525:/home/tienluong/workspace/atlantis_fw/AsicFwS2/include/matrix.h **** 
 526:/home/tienluong/workspace/atlantis_fw/AsicFwS2/include/matrix.h ****     void setX( T x ) { _x = x; }
 527:/home/tienluong/workspace/atlantis_fw/AsicFwS2/include/matrix.h ****     void setY( T y ) { _y = y; }
 528:/home/tienluong/workspace/atlantis_fw/AsicFwS2/include/matrix.h ****     void setZ( T z ) { _z = z; }
 529:/home/tienluong/workspace/atlantis_fw/AsicFwS2/include/matrix.h **** 	void setA( T a ) { _a = a; }
 530:/home/tienluong/workspace/atlantis_fw/AsicFwS2/include/matrix.h **** private:
 531:/home/tienluong/workspace/atlantis_fw/AsicFwS2/include/matrix.h ****     T _x, _y, _z, _a;
 532:/home/tienluong/workspace/atlantis_fw/AsicFwS2/include/matrix.h **** };
 533:/home/tienluong/workspace/atlantis_fw/AsicFwS2/include/matrix.h **** 
 534:/home/tienluong/workspace/atlantis_fw/AsicFwS2/include/matrix.h **** 
 535:/home/tienluong/workspace/atlantis_fw/AsicFwS2/include/matrix.h **** using Vec2f = Vec2<float>;
 536:/home/tienluong/workspace/atlantis_fw/AsicFwS2/include/matrix.h **** using Vec2d = Vec2<double>;
 537:/home/tienluong/workspace/atlantis_fw/AsicFwS2/include/matrix.h **** using Vec3u16 = Vec3<std::uint16_t>;
 538:/home/tienluong/workspace/atlantis_fw/AsicFwS2/include/matrix.h **** using Vec3f = Vec3<float>;
 539:/home/tienluong/workspace/atlantis_fw/AsicFwS2/include/matrix.h **** using Vec3d = Vec3<double>;
 540:/home/tienluong/workspace/atlantis_fw/AsicFwS2/include/matrix.h **** using Vec4f = Vec4<float>;
 541:/home/tienluong/workspace/atlantis_fw/AsicFwS2/include/matrix.h **** using Vec4d = Vec4<double>;
 542:/home/tienluong/workspace/atlantis_fw/AsicFwS2/include/matrix.h **** 
 543:/home/tienluong/workspace/atlantis_fw/AsicFwS2/include/matrix.h **** 
 544:/home/tienluong/workspace/atlantis_fw/AsicFwS2/include/matrix.h **** // -----------------------------------------------------------
 545:/home/tienluong/workspace/atlantis_fw/AsicFwS2/include/matrix.h **** // 			Matrix class
 546:/home/tienluong/workspace/atlantis_fw/AsicFwS2/include/matrix.h **** // -----------------------------------------------------------
 547:/home/tienluong/workspace/atlantis_fw/AsicFwS2/include/matrix.h **** namespace Internal
 548:/home/tienluong/workspace/atlantis_fw/AsicFwS2/include/matrix.h **** {
 549:/home/tienluong/workspace/atlantis_fw/AsicFwS2/include/matrix.h **** 
 550:/home/tienluong/workspace/atlantis_fw/AsicFwS2/include/matrix.h **** template<typename T, int R, int C>
 551:/home/tienluong/workspace/atlantis_fw/AsicFwS2/include/matrix.h **** class MatrixStorage
 552:/home/tienluong/workspace/atlantis_fw/AsicFwS2/include/matrix.h **** {
 553:/home/tienluong/workspace/atlantis_fw/AsicFwS2/include/matrix.h **** public:
 554:/home/tienluong/workspace/atlantis_fw/AsicFwS2/include/matrix.h ****     MatrixStorage() {}
 555:/home/tienluong/workspace/atlantis_fw/AsicFwS2/include/matrix.h **** protected:
 556:/home/tienluong/workspace/atlantis_fw/AsicFwS2/include/matrix.h ****     T _data[R * C];
 557:/home/tienluong/workspace/atlantis_fw/AsicFwS2/include/matrix.h **** };
 558:/home/tienluong/workspace/atlantis_fw/AsicFwS2/include/matrix.h **** 
 559:/home/tienluong/workspace/atlantis_fw/AsicFwS2/include/matrix.h **** #if 0
 560:/home/tienluong/workspace/atlantis_fw/AsicFwS2/include/matrix.h **** /// Some Matrix types require aligned storage due to SIMD acceleration
 561:/home/tienluong/workspace/atlantis_fw/AsicFwS2/include/matrix.h **** template<>
 562:/home/tienluong/workspace/atlantis_fw/AsicFwS2/include/matrix.h **** class MatrixStorage<float, 4, 4>
 563:/home/tienluong/workspace/atlantis_fw/AsicFwS2/include/matrix.h **** {
 564:/home/tienluong/workspace/atlantis_fw/AsicFwS2/include/matrix.h **** public:
 565:/home/tienluong/workspace/atlantis_fw/AsicFwS2/include/matrix.h ****     MatrixStorage() {}
 566:/home/tienluong/workspace/atlantis_fw/AsicFwS2/include/matrix.h **** protected:
 567:/home/tienluong/workspace/atlantis_fw/AsicFwS2/include/matrix.h ****     alignas( 16 ) float _data[16];
 568:/home/tienluong/workspace/atlantis_fw/AsicFwS2/include/matrix.h **** };
 569:/home/tienluong/workspace/atlantis_fw/AsicFwS2/include/matrix.h **** #endif
 570:/home/tienluong/workspace/atlantis_fw/AsicFwS2/include/matrix.h **** } // Internal namespace
 571:/home/tienluong/workspace/atlantis_fw/AsicFwS2/include/matrix.h **** 
 572:/home/tienluong/workspace/atlantis_fw/AsicFwS2/include/matrix.h **** template<typename T, int R, int C, bool RowMajor = true>
 573:/home/tienluong/workspace/atlantis_fw/AsicFwS2/include/matrix.h **** class Matrix : public Internal::MatrixStorage<T, R, C>
 574:/home/tienluong/workspace/atlantis_fw/AsicFwS2/include/matrix.h **** {
 575:/home/tienluong/workspace/atlantis_fw/AsicFwS2/include/matrix.h ****     //static_assert( std::is_floating_point<T>::value, "Matrix template class requires floating poi
 576:/home/tienluong/workspace/atlantis_fw/AsicFwS2/include/matrix.h ****     static constexpr int kSize = R * C;
 577:/home/tienluong/workspace/atlantis_fw/AsicFwS2/include/matrix.h **** 
 578:/home/tienluong/workspace/atlantis_fw/AsicFwS2/include/matrix.h ****     static inline constexpr int Idx( int row, int col )
 579:/home/tienluong/workspace/atlantis_fw/AsicFwS2/include/matrix.h ****     {
 580:/home/tienluong/workspace/atlantis_fw/AsicFwS2/include/matrix.h ****         return RowMajor ? row * C + col : col * R + row;
 581:/home/tienluong/workspace/atlantis_fw/AsicFwS2/include/matrix.h ****     }
 582:/home/tienluong/workspace/atlantis_fw/AsicFwS2/include/matrix.h **** 
 583:/home/tienluong/workspace/atlantis_fw/AsicFwS2/include/matrix.h **** public:
 584:/home/tienluong/workspace/atlantis_fw/AsicFwS2/include/matrix.h ****     using ScalarType = T;
 585:/home/tienluong/workspace/atlantis_fw/AsicFwS2/include/matrix.h **** 
 586:/home/tienluong/workspace/atlantis_fw/AsicFwS2/include/matrix.h ****     static constexpr int kRows = R;
 587:/home/tienluong/workspace/atlantis_fw/AsicFwS2/include/matrix.h ****     static constexpr int kCols = C;
 588:/home/tienluong/workspace/atlantis_fw/AsicFwS2/include/matrix.h **** 
 589:/home/tienluong/workspace/atlantis_fw/AsicFwS2/include/matrix.h ****     Matrix() { }
 590:/home/tienluong/workspace/atlantis_fw/AsicFwS2/include/matrix.h **** 
 591:/home/tienluong/workspace/atlantis_fw/AsicFwS2/include/matrix.h ****     Matrix( const Matrix<T, R, C, true> & src ) { *this = src; }
 592:/home/tienluong/workspace/atlantis_fw/AsicFwS2/include/matrix.h **** 
 593:/home/tienluong/workspace/atlantis_fw/AsicFwS2/include/matrix.h ****     Matrix( const Matrix<T, R, C, false> & src ) { *this = src; }
 594:/home/tienluong/workspace/atlantis_fw/AsicFwS2/include/matrix.h **** 
 595:/home/tienluong/workspace/atlantis_fw/AsicFwS2/include/matrix.h ****     /// Input in row-major order.
 596:/home/tienluong/workspace/atlantis_fw/AsicFwS2/include/matrix.h ****     Matrix( std::initializer_list<T> list ) { *this = list; }
 597:/home/tienluong/workspace/atlantis_fw/AsicFwS2/include/matrix.h **** 
 598:/home/tienluong/workspace/atlantis_fw/AsicFwS2/include/matrix.h ****     /// Input in row-major order.
 599:/home/tienluong/workspace/atlantis_fw/AsicFwS2/include/matrix.h ****     explicit Matrix( const std::vector<T> & data ) { *this = data; }
 600:/home/tienluong/workspace/atlantis_fw/AsicFwS2/include/matrix.h **** 
 601:/home/tienluong/workspace/atlantis_fw/AsicFwS2/include/matrix.h ****     /// Input in row-major order.
 602:/home/tienluong/workspace/atlantis_fw/AsicFwS2/include/matrix.h ****     explicit Matrix( const T * ptr )
 603:/home/tienluong/workspace/atlantis_fw/AsicFwS2/include/matrix.h ****     {
 604:/home/tienluong/workspace/atlantis_fw/AsicFwS2/include/matrix.h ****         for( int i = 0; i < R; ++i )
 605:/home/tienluong/workspace/atlantis_fw/AsicFwS2/include/matrix.h ****         {
 606:/home/tienluong/workspace/atlantis_fw/AsicFwS2/include/matrix.h ****             for( int j = 0; j < C; ++j )
 607:/home/tienluong/workspace/atlantis_fw/AsicFwS2/include/matrix.h ****             { this->_data[Idx( i, j )] = ptr[i * C + j]; }
 608:/home/tienluong/workspace/atlantis_fw/AsicFwS2/include/matrix.h ****         }
 609:/home/tienluong/workspace/atlantis_fw/AsicFwS2/include/matrix.h ****     }
 610:/home/tienluong/workspace/atlantis_fw/AsicFwS2/include/matrix.h **** 
 611:/home/tienluong/workspace/atlantis_fw/AsicFwS2/include/matrix.h ****     // generic size/type converting constructor
 612:/home/tienluong/workspace/atlantis_fw/AsicFwS2/include/matrix.h ****     // performs matrix truncation/expansion if necessary
 613:/home/tienluong/workspace/atlantis_fw/AsicFwS2/include/matrix.h ****     template<typename U, int M, int N, bool D>
 614:/home/tienluong/workspace/atlantis_fw/AsicFwS2/include/matrix.h ****     explicit Matrix( const Matrix<U, M, N, D> & src )
 615:/home/tienluong/workspace/atlantis_fw/AsicFwS2/include/matrix.h ****     {
 616:/home/tienluong/workspace/atlantis_fw/AsicFwS2/include/matrix.h ****         constexpr int kMinRow = M < R ? M : R;
 617:/home/tienluong/workspace/atlantis_fw/AsicFwS2/include/matrix.h ****         constexpr int kMinCol = N < C ? N : C;
 618:/home/tienluong/workspace/atlantis_fw/AsicFwS2/include/matrix.h ****         for( int i = 0; i < kMinRow; ++i )
 619:/home/tienluong/workspace/atlantis_fw/AsicFwS2/include/matrix.h ****         {
 620:/home/tienluong/workspace/atlantis_fw/AsicFwS2/include/matrix.h ****             for( int j = 0; j < kMinCol; ++j )
 621:/home/tienluong/workspace/atlantis_fw/AsicFwS2/include/matrix.h ****             { this->_data[Idx( i, j )] = static_cast<T>( src( i, j ) ); }
 622:/home/tienluong/workspace/atlantis_fw/AsicFwS2/include/matrix.h ****             for( int j = kMinCol; j < C; ++j )
 623:/home/tienluong/workspace/atlantis_fw/AsicFwS2/include/matrix.h ****             { this->_data[Idx( i, j )] = i == j ? T{1} : T{0}; }
 624:/home/tienluong/workspace/atlantis_fw/AsicFwS2/include/matrix.h ****         }
 625:/home/tienluong/workspace/atlantis_fw/AsicFwS2/include/matrix.h ****         for( int i = kMinRow; i < R; ++i )
 626:/home/tienluong/workspace/atlantis_fw/AsicFwS2/include/matrix.h ****         {
 627:/home/tienluong/workspace/atlantis_fw/AsicFwS2/include/matrix.h ****             for( int j = 0; j < C; ++j )
 628:/home/tienluong/workspace/atlantis_fw/AsicFwS2/include/matrix.h ****             { this->_data[Idx( i, j )] = i == j ? T{1} : T{0}; }
 629:/home/tienluong/workspace/atlantis_fw/AsicFwS2/include/matrix.h ****         }
 630:/home/tienluong/workspace/atlantis_fw/AsicFwS2/include/matrix.h ****     }
 631:/home/tienluong/workspace/atlantis_fw/AsicFwS2/include/matrix.h **** 
 632:/home/tienluong/workspace/atlantis_fw/AsicFwS2/include/matrix.h ****     template<int M, int N, bool D>
 633:/home/tienluong/workspace/atlantis_fw/AsicFwS2/include/matrix.h ****     Matrix & operator=( const Matrix<T, M, N, D> & src )
 634:/home/tienluong/workspace/atlantis_fw/AsicFwS2/include/matrix.h ****     {
 635:/home/tienluong/workspace/atlantis_fw/AsicFwS2/include/matrix.h ****         static_assert( R == M && C == N, "matrix size mismatch!" );
 636:/home/tienluong/workspace/atlantis_fw/AsicFwS2/include/matrix.h ****         if( RowMajor == D )
 637:/home/tienluong/workspace/atlantis_fw/AsicFwS2/include/matrix.h ****         {
 638:/home/tienluong/workspace/atlantis_fw/AsicFwS2/include/matrix.h ****             // same element ordering, just copy the elements
 639:/home/tienluong/workspace/atlantis_fw/AsicFwS2/include/matrix.h ****             const T * src_ptr = src.data();
 640:/home/tienluong/workspace/atlantis_fw/AsicFwS2/include/matrix.h ****             for( int i = 0; i < kSize; ++i ) { this->_data[i] = src_ptr[i]; }
 641:/home/tienluong/workspace/atlantis_fw/AsicFwS2/include/matrix.h ****         }
 642:/home/tienluong/workspace/atlantis_fw/AsicFwS2/include/matrix.h ****         else
 643:/home/tienluong/workspace/atlantis_fw/AsicFwS2/include/matrix.h ****         {
 644:/home/tienluong/workspace/atlantis_fw/AsicFwS2/include/matrix.h ****             // different element ordering requires a transpose
 645:/home/tienluong/workspace/atlantis_fw/AsicFwS2/include/matrix.h ****             for( int i = 0; i < R; ++i )
 646:/home/tienluong/workspace/atlantis_fw/AsicFwS2/include/matrix.h ****             {
 647:/home/tienluong/workspace/atlantis_fw/AsicFwS2/include/matrix.h ****                 for( int j = 0; j < C; ++j )
 648:/home/tienluong/workspace/atlantis_fw/AsicFwS2/include/matrix.h ****                 { this->_data[Idx( i, j )] = src( i, j ); }
 649:/home/tienluong/workspace/atlantis_fw/AsicFwS2/include/matrix.h ****             }
 650:/home/tienluong/workspace/atlantis_fw/AsicFwS2/include/matrix.h ****         }
 651:/home/tienluong/workspace/atlantis_fw/AsicFwS2/include/matrix.h ****         return *this;
 652:/home/tienluong/workspace/atlantis_fw/AsicFwS2/include/matrix.h ****     }
 653:/home/tienluong/workspace/atlantis_fw/AsicFwS2/include/matrix.h **** 
 654:/home/tienluong/workspace/atlantis_fw/AsicFwS2/include/matrix.h ****     /// Input in row-major order.
 655:/home/tienluong/workspace/atlantis_fw/AsicFwS2/include/matrix.h ****     Matrix & operator=( const std::vector<T> & src )
 656:/home/tienluong/workspace/atlantis_fw/AsicFwS2/include/matrix.h ****     {
 657:/home/tienluong/workspace/atlantis_fw/AsicFwS2/include/matrix.h ****         //if( src.size() != kSize )
 658:/home/tienluong/workspace/atlantis_fw/AsicFwS2/include/matrix.h ****         //{ LT_THROW( "source data and matrix size mismatch!" ); }
 659:/home/tienluong/workspace/atlantis_fw/AsicFwS2/include/matrix.h **** 
 660:/home/tienluong/workspace/atlantis_fw/AsicFwS2/include/matrix.h ****         auto it = src.begin();
 661:/home/tienluong/workspace/atlantis_fw/AsicFwS2/include/matrix.h ****         for( int i = 0; i < R; ++i )
 662:/home/tienluong/workspace/atlantis_fw/AsicFwS2/include/matrix.h ****         {
 663:/home/tienluong/workspace/atlantis_fw/AsicFwS2/include/matrix.h ****             for( int j = 0; j < C; ++j, ++it )
 664:/home/tienluong/workspace/atlantis_fw/AsicFwS2/include/matrix.h ****             { this->_data[Idx( i, j )] = *it; }
 665:/home/tienluong/workspace/atlantis_fw/AsicFwS2/include/matrix.h ****         }
 666:/home/tienluong/workspace/atlantis_fw/AsicFwS2/include/matrix.h **** 
 667:/home/tienluong/workspace/atlantis_fw/AsicFwS2/include/matrix.h ****         return *this;
 668:/home/tienluong/workspace/atlantis_fw/AsicFwS2/include/matrix.h ****     }
 669:/home/tienluong/workspace/atlantis_fw/AsicFwS2/include/matrix.h **** 
 670:/home/tienluong/workspace/atlantis_fw/AsicFwS2/include/matrix.h ****     /// Input in row-major order.
 671:/home/tienluong/workspace/atlantis_fw/AsicFwS2/include/matrix.h ****     Matrix & operator=( const std::initializer_list<T> src )
 672:/home/tienluong/workspace/atlantis_fw/AsicFwS2/include/matrix.h ****     {
 673:/home/tienluong/workspace/atlantis_fw/AsicFwS2/include/matrix.h ****         //if( src.size() != kSize )
 674:/home/tienluong/workspace/atlantis_fw/AsicFwS2/include/matrix.h ****         //{ LT_THROW( "source data and matrix size mismatch!" ); }
 675:/home/tienluong/workspace/atlantis_fw/AsicFwS2/include/matrix.h **** 
 676:/home/tienluong/workspace/atlantis_fw/AsicFwS2/include/matrix.h ****         auto it = src.begin();
 677:/home/tienluong/workspace/atlantis_fw/AsicFwS2/include/matrix.h ****         for( int i = 0; i < R; ++i )
 678:/home/tienluong/workspace/atlantis_fw/AsicFwS2/include/matrix.h ****         {
 679:/home/tienluong/workspace/atlantis_fw/AsicFwS2/include/matrix.h ****             for( int j = 0; j < C; ++j, ++it )
 680:/home/tienluong/workspace/atlantis_fw/AsicFwS2/include/matrix.h ****             { this->_data[Idx( i, j )] = *it; }
 681:/home/tienluong/workspace/atlantis_fw/AsicFwS2/include/matrix.h ****         }
 682:/home/tienluong/workspace/atlantis_fw/AsicFwS2/include/matrix.h **** 
 683:/home/tienluong/workspace/atlantis_fw/AsicFwS2/include/matrix.h ****         return *this;
 684:/home/tienluong/workspace/atlantis_fw/AsicFwS2/include/matrix.h ****     }
 685:/home/tienluong/workspace/atlantis_fw/AsicFwS2/include/matrix.h **** 
 686:/home/tienluong/workspace/atlantis_fw/AsicFwS2/include/matrix.h ****     Matrix & operator=( T scalar )
 687:/home/tienluong/workspace/atlantis_fw/AsicFwS2/include/matrix.h ****     {
 688:/home/tienluong/workspace/atlantis_fw/AsicFwS2/include/matrix.h ****         for( int i = 0; i < kSize; ++i ) { this->_data[i] = scalar; }
 689:/home/tienluong/workspace/atlantis_fw/AsicFwS2/include/matrix.h ****         return *this;
 690:/home/tienluong/workspace/atlantis_fw/AsicFwS2/include/matrix.h ****     }
 691:/home/tienluong/workspace/atlantis_fw/AsicFwS2/include/matrix.h **** 
 692:/home/tienluong/workspace/atlantis_fw/AsicFwS2/include/matrix.h ****     template<typename U, int M, int N, bool D>
 693:/home/tienluong/workspace/atlantis_fw/AsicFwS2/include/matrix.h ****     bool operator==( const Matrix<U, M, N, D> & mat ) const
 694:/home/tienluong/workspace/atlantis_fw/AsicFwS2/include/matrix.h ****     {
 695:/home/tienluong/workspace/atlantis_fw/AsicFwS2/include/matrix.h ****         static_assert( R == M && C == N, "matrix size mismatch!" );
 696:/home/tienluong/workspace/atlantis_fw/AsicFwS2/include/matrix.h ****         for( int i = 0; i < R; ++i )
 697:/home/tienluong/workspace/atlantis_fw/AsicFwS2/include/matrix.h ****         {
 698:/home/tienluong/workspace/atlantis_fw/AsicFwS2/include/matrix.h ****             for( int j = 0; j < C; ++j )
 699:/home/tienluong/workspace/atlantis_fw/AsicFwS2/include/matrix.h ****             { if( this->_data[Idx( i, j )] != mat( i, j ) ) { return false; } }
 700:/home/tienluong/workspace/atlantis_fw/AsicFwS2/include/matrix.h ****         }
 701:/home/tienluong/workspace/atlantis_fw/AsicFwS2/include/matrix.h ****         return true;
 702:/home/tienluong/workspace/atlantis_fw/AsicFwS2/include/matrix.h ****     }
 703:/home/tienluong/workspace/atlantis_fw/AsicFwS2/include/matrix.h **** 
 704:/home/tienluong/workspace/atlantis_fw/AsicFwS2/include/matrix.h ****     template<typename U, int M, int N, bool D>
 705:/home/tienluong/workspace/atlantis_fw/AsicFwS2/include/matrix.h ****     bool operator!=( const Matrix<U, M, N, D> & mat ) const
 706:/home/tienluong/workspace/atlantis_fw/AsicFwS2/include/matrix.h ****     { return !( *this == mat ); }
 707:/home/tienluong/workspace/atlantis_fw/AsicFwS2/include/matrix.h **** 
 708:/home/tienluong/workspace/atlantis_fw/AsicFwS2/include/matrix.h ****     const T * data() const { return this->_data; }
 709:/home/tienluong/workspace/atlantis_fw/AsicFwS2/include/matrix.h ****     T * data() { return this->_data; }
 710:/home/tienluong/workspace/atlantis_fw/AsicFwS2/include/matrix.h **** 
 711:/home/tienluong/workspace/atlantis_fw/AsicFwS2/include/matrix.h ****     T & operator()( int r, int c ) { return this->_data[Idx( r, c )]; }
 712:/home/tienluong/workspace/atlantis_fw/AsicFwS2/include/matrix.h ****     const T & operator()( int r, int c ) const { return this->_data[Idx( r, c )]; }
 713:/home/tienluong/workspace/atlantis_fw/AsicFwS2/include/matrix.h **** 
 714:/home/tienluong/workspace/atlantis_fw/AsicFwS2/include/matrix.h ****     template<int M, int N, bool D>
 715:/home/tienluong/workspace/atlantis_fw/AsicFwS2/include/matrix.h ****     Matrix<T, R, N> operator*( const Matrix<T, M, N, D> & mat ) const
 716:/home/tienluong/workspace/atlantis_fw/AsicFwS2/include/matrix.h ****     {
 717:/home/tienluong/workspace/atlantis_fw/AsicFwS2/include/matrix.h ****         static_assert( C == M, "invalid matrix product!" );
 718:/home/tienluong/workspace/atlantis_fw/AsicFwS2/include/matrix.h ****         Matrix<T, R, N> rval;
 719:/home/tienluong/workspace/atlantis_fw/AsicFwS2/include/matrix.h **** 
 720:/home/tienluong/workspace/atlantis_fw/AsicFwS2/include/matrix.h ****         // XXX: is this code actually more SIMD-friendly than a naive implementation?
 721:/home/tienluong/workspace/atlantis_fw/AsicFwS2/include/matrix.h ****         for( int i = 0; i < R; ++i )
 722:/home/tienluong/workspace/atlantis_fw/AsicFwS2/include/matrix.h ****         {
 723:/home/tienluong/workspace/atlantis_fw/AsicFwS2/include/matrix.h ****             // set 1st row
 724:/home/tienluong/workspace/atlantis_fw/AsicFwS2/include/matrix.h ****             for( int j = 0; j < N; ++j )
 725:/home/tienluong/workspace/atlantis_fw/AsicFwS2/include/matrix.h ****             { rval( i, j ) = this->_data[Idx( i, 0 )] * mat( 0, j ); }
 726:/home/tienluong/workspace/atlantis_fw/AsicFwS2/include/matrix.h ****             // accum n-th row
 727:/home/tienluong/workspace/atlantis_fw/AsicFwS2/include/matrix.h ****             for( int k = 1; k < M; ++k )
 728:/home/tienluong/workspace/atlantis_fw/AsicFwS2/include/matrix.h ****             {
 729:/home/tienluong/workspace/atlantis_fw/AsicFwS2/include/matrix.h ****                 for( int j = 0; j < N; ++j )
 730:/home/tienluong/workspace/atlantis_fw/AsicFwS2/include/matrix.h ****                 { rval( i, j ) += this->_data[Idx( i, k )] * mat( k, j ); }
 731:/home/tienluong/workspace/atlantis_fw/AsicFwS2/include/matrix.h ****             }
 732:/home/tienluong/workspace/atlantis_fw/AsicFwS2/include/matrix.h ****         }
 733:/home/tienluong/workspace/atlantis_fw/AsicFwS2/include/matrix.h ****         return rval;
 734:/home/tienluong/workspace/atlantis_fw/AsicFwS2/include/matrix.h ****     }
 735:/home/tienluong/workspace/atlantis_fw/AsicFwS2/include/matrix.h **** 
 736:/home/tienluong/workspace/atlantis_fw/AsicFwS2/include/matrix.h ****     template<int M, int N, bool D>
 737:/home/tienluong/workspace/atlantis_fw/AsicFwS2/include/matrix.h ****     Matrix & operator *=( const Matrix<T, M, N, D> & mat )
 738:/home/tienluong/workspace/atlantis_fw/AsicFwS2/include/matrix.h ****     {
 739:/home/tienluong/workspace/atlantis_fw/AsicFwS2/include/matrix.h ****         *this = *this * mat;
 740:/home/tienluong/workspace/atlantis_fw/AsicFwS2/include/matrix.h ****         return *this;
 741:/home/tienluong/workspace/atlantis_fw/AsicFwS2/include/matrix.h ****     }
 742:/home/tienluong/workspace/atlantis_fw/AsicFwS2/include/matrix.h **** 
 743:/home/tienluong/workspace/atlantis_fw/AsicFwS2/include/matrix.h ****     template<int M, int N, bool D>
 744:/home/tienluong/workspace/atlantis_fw/AsicFwS2/include/matrix.h ****     Matrix & operator +=( const Matrix<T, M, N, D> & mat )
 745:/home/tienluong/workspace/atlantis_fw/AsicFwS2/include/matrix.h ****     {
 746:/home/tienluong/workspace/atlantis_fw/AsicFwS2/include/matrix.h ****         static_assert( R == M && C == N, "matrix size mismatch!" );
 747:/home/tienluong/workspace/atlantis_fw/AsicFwS2/include/matrix.h ****         for( int i = 0; i < R; ++i )
 748:/home/tienluong/workspace/atlantis_fw/AsicFwS2/include/matrix.h ****         {
 749:/home/tienluong/workspace/atlantis_fw/AsicFwS2/include/matrix.h ****             for( int j = 0; j < C; ++j )
 750:/home/tienluong/workspace/atlantis_fw/AsicFwS2/include/matrix.h ****             { this->_data[Idx( i, j )] += mat( i, j ); }
 751:/home/tienluong/workspace/atlantis_fw/AsicFwS2/include/matrix.h ****         }
 752:/home/tienluong/workspace/atlantis_fw/AsicFwS2/include/matrix.h ****         return *this;
 753:/home/tienluong/workspace/atlantis_fw/AsicFwS2/include/matrix.h ****     }
 754:/home/tienluong/workspace/atlantis_fw/AsicFwS2/include/matrix.h **** 
 755:/home/tienluong/workspace/atlantis_fw/AsicFwS2/include/matrix.h ****     template<int M, int N, bool D>
 756:/home/tienluong/workspace/atlantis_fw/AsicFwS2/include/matrix.h ****     Matrix & operator -=( const Matrix<T, M, N, D> & mat )
 757:/home/tienluong/workspace/atlantis_fw/AsicFwS2/include/matrix.h ****     {
 758:/home/tienluong/workspace/atlantis_fw/AsicFwS2/include/matrix.h ****         static_assert( R == M && C == N, "matrix size mismatch!" );
 759:/home/tienluong/workspace/atlantis_fw/AsicFwS2/include/matrix.h ****         for( int i = 0; i < R; ++i )
 760:/home/tienluong/workspace/atlantis_fw/AsicFwS2/include/matrix.h ****         {
 761:/home/tienluong/workspace/atlantis_fw/AsicFwS2/include/matrix.h ****             for( int j = 0; j < C; ++j )
 762:/home/tienluong/workspace/atlantis_fw/AsicFwS2/include/matrix.h ****             { this->_data[Idx( i, j )] -= mat( i, j ); }
 763:/home/tienluong/workspace/atlantis_fw/AsicFwS2/include/matrix.h ****         }
 764:/home/tienluong/workspace/atlantis_fw/AsicFwS2/include/matrix.h ****         return *this;
 765:/home/tienluong/workspace/atlantis_fw/AsicFwS2/include/matrix.h ****     }
 766:/home/tienluong/workspace/atlantis_fw/AsicFwS2/include/matrix.h **** 
 767:/home/tienluong/workspace/atlantis_fw/AsicFwS2/include/matrix.h ****     Matrix & operator *=( T scalar )
 768:/home/tienluong/workspace/atlantis_fw/AsicFwS2/include/matrix.h ****     {
 769:/home/tienluong/workspace/atlantis_fw/AsicFwS2/include/matrix.h ****         for( int i = 0; i < kSize; ++i ) { this->_data[i] *= scalar; }
 770:/home/tienluong/workspace/atlantis_fw/AsicFwS2/include/matrix.h ****         return *this;
 771:/home/tienluong/workspace/atlantis_fw/AsicFwS2/include/matrix.h ****     }
 772:/home/tienluong/workspace/atlantis_fw/AsicFwS2/include/matrix.h **** 
 773:/home/tienluong/workspace/atlantis_fw/AsicFwS2/include/matrix.h ****     Matrix & operator +=( T scalar )
 774:/home/tienluong/workspace/atlantis_fw/AsicFwS2/include/matrix.h ****     {
 775:/home/tienluong/workspace/atlantis_fw/AsicFwS2/include/matrix.h ****         for( int i = 0; i < kSize; ++i ) { this->_data[i] += scalar; }
 776:/home/tienluong/workspace/atlantis_fw/AsicFwS2/include/matrix.h ****         return *this;
 777:/home/tienluong/workspace/atlantis_fw/AsicFwS2/include/matrix.h ****     }
 778:/home/tienluong/workspace/atlantis_fw/AsicFwS2/include/matrix.h **** 
 779:/home/tienluong/workspace/atlantis_fw/AsicFwS2/include/matrix.h ****     Matrix & operator /=( T scalar )
 780:/home/tienluong/workspace/atlantis_fw/AsicFwS2/include/matrix.h ****     {
 781:/home/tienluong/workspace/atlantis_fw/AsicFwS2/include/matrix.h ****         scalar = 1.0f / scalar;
 782:/home/tienluong/workspace/atlantis_fw/AsicFwS2/include/matrix.h ****         for( int i = 0; i < kSize; ++i ) { this->_data[i] *= scalar; }
 783:/home/tienluong/workspace/atlantis_fw/AsicFwS2/include/matrix.h ****         return *this;
 784:/home/tienluong/workspace/atlantis_fw/AsicFwS2/include/matrix.h ****     }
 785:/home/tienluong/workspace/atlantis_fw/AsicFwS2/include/matrix.h **** 
 786:/home/tienluong/workspace/atlantis_fw/AsicFwS2/include/matrix.h ****     Matrix & operator -=( T scalar )
 787:/home/tienluong/workspace/atlantis_fw/AsicFwS2/include/matrix.h ****     {
 788:/home/tienluong/workspace/atlantis_fw/AsicFwS2/include/matrix.h ****         for( int i = 0; i < kSize; ++i ) { this->_data[i] -= scalar; }
 789:/home/tienluong/workspace/atlantis_fw/AsicFwS2/include/matrix.h ****         return *this;
 790:/home/tienluong/workspace/atlantis_fw/AsicFwS2/include/matrix.h ****     }
 791:/home/tienluong/workspace/atlantis_fw/AsicFwS2/include/matrix.h **** 
 792:/home/tienluong/workspace/atlantis_fw/AsicFwS2/include/matrix.h ****     template<int M, int N, bool D>
 793:/home/tienluong/workspace/atlantis_fw/AsicFwS2/include/matrix.h ****     Matrix operator+( const Matrix<T, M, N, D> & mat ) const
 794:/home/tienluong/workspace/atlantis_fw/AsicFwS2/include/matrix.h ****     { Matrix rval{*this}; rval += mat; return rval; }
 795:/home/tienluong/workspace/atlantis_fw/AsicFwS2/include/matrix.h **** 
 796:/home/tienluong/workspace/atlantis_fw/AsicFwS2/include/matrix.h ****     template<int M, int N, bool D>
 797:/home/tienluong/workspace/atlantis_fw/AsicFwS2/include/matrix.h ****     Matrix operator-( const Matrix<T, M, N, D> & mat ) const
 798:/home/tienluong/workspace/atlantis_fw/AsicFwS2/include/matrix.h ****     { Matrix rval{*this}; rval -= mat; return rval; }
 799:/home/tienluong/workspace/atlantis_fw/AsicFwS2/include/matrix.h **** 
 800:/home/tienluong/workspace/atlantis_fw/AsicFwS2/include/matrix.h ****     Matrix operator*( T scalar ) const
 801:/home/tienluong/workspace/atlantis_fw/AsicFwS2/include/matrix.h ****     { Matrix rval{*this}; rval *= scalar; return rval; }
 802:/home/tienluong/workspace/atlantis_fw/AsicFwS2/include/matrix.h **** 
 803:/home/tienluong/workspace/atlantis_fw/AsicFwS2/include/matrix.h ****     Matrix operator+( T scalar ) const
 804:/home/tienluong/workspace/atlantis_fw/AsicFwS2/include/matrix.h ****     { Matrix rval{*this}; rval += scalar; return rval; }
 805:/home/tienluong/workspace/atlantis_fw/AsicFwS2/include/matrix.h **** 
 806:/home/tienluong/workspace/atlantis_fw/AsicFwS2/include/matrix.h ****     Matrix operator-( T scalar ) const
 807:/home/tienluong/workspace/atlantis_fw/AsicFwS2/include/matrix.h ****     { Matrix rval{*this}; rval -= scalar; return rval; }
 808:/home/tienluong/workspace/atlantis_fw/AsicFwS2/include/matrix.h **** 
 809:/home/tienluong/workspace/atlantis_fw/AsicFwS2/include/matrix.h ****     Matrix operator/( T scalar ) const
 810:/home/tienluong/workspace/atlantis_fw/AsicFwS2/include/matrix.h ****     { Matrix rval{*this}; rval /= scalar; return rval; }
 811:/home/tienluong/workspace/atlantis_fw/AsicFwS2/include/matrix.h **** 
 812:/home/tienluong/workspace/atlantis_fw/AsicFwS2/include/matrix.h ****     Matrix<T, 1, C> row( int i ) const
 813:/home/tienluong/workspace/atlantis_fw/AsicFwS2/include/matrix.h ****     {
 814:/home/tienluong/workspace/atlantis_fw/AsicFwS2/include/matrix.h ****         Matrix<T, 1, C> rval;
 815:/home/tienluong/workspace/atlantis_fw/AsicFwS2/include/matrix.h ****         for( int j = 0; j < C; ++j ) { rval( 0, j ) = this->_data[Idx( i, j )]; }
 816:/home/tienluong/workspace/atlantis_fw/AsicFwS2/include/matrix.h ****         return rval;
 817:/home/tienluong/workspace/atlantis_fw/AsicFwS2/include/matrix.h ****     }
 818:/home/tienluong/workspace/atlantis_fw/AsicFwS2/include/matrix.h **** 
 819:/home/tienluong/workspace/atlantis_fw/AsicFwS2/include/matrix.h ****     Matrix<T, 1, C> column( int i ) const
 820:/home/tienluong/workspace/atlantis_fw/AsicFwS2/include/matrix.h ****     {
 821:/home/tienluong/workspace/atlantis_fw/AsicFwS2/include/matrix.h ****         Matrix<T, R, 1> rval;
 822:/home/tienluong/workspace/atlantis_fw/AsicFwS2/include/matrix.h ****         for( int j = 0; j < R; ++j ) { rval( j, 0 ) = this->_data[Idx( j, i )]; }
 823:/home/tienluong/workspace/atlantis_fw/AsicFwS2/include/matrix.h ****         return rval;
 824:/home/tienluong/workspace/atlantis_fw/AsicFwS2/include/matrix.h ****     }
 825:/home/tienluong/workspace/atlantis_fw/AsicFwS2/include/matrix.h **** 
 826:/home/tienluong/workspace/atlantis_fw/AsicFwS2/include/matrix.h ****     Matrix & swapRow( int i, int j )
 827:/home/tienluong/workspace/atlantis_fw/AsicFwS2/include/matrix.h ****     {
 828:/home/tienluong/workspace/atlantis_fw/AsicFwS2/include/matrix.h ****         using std::swap;
 829:/home/tienluong/workspace/atlantis_fw/AsicFwS2/include/matrix.h ****         for( int k = 0; k < C; ++k )
 830:/home/tienluong/workspace/atlantis_fw/AsicFwS2/include/matrix.h ****         { swap( this->_data[Idx( i, k )], this->_data[Idx( j, k )] ); }
 831:/home/tienluong/workspace/atlantis_fw/AsicFwS2/include/matrix.h ****         return *this;
 832:/home/tienluong/workspace/atlantis_fw/AsicFwS2/include/matrix.h ****     }
 833:/home/tienluong/workspace/atlantis_fw/AsicFwS2/include/matrix.h **** 
 834:/home/tienluong/workspace/atlantis_fw/AsicFwS2/include/matrix.h ****     Matrix & swapColumn( int i, int j )
 835:/home/tienluong/workspace/atlantis_fw/AsicFwS2/include/matrix.h ****     {
 836:/home/tienluong/workspace/atlantis_fw/AsicFwS2/include/matrix.h ****         using std::swap;
 837:/home/tienluong/workspace/atlantis_fw/AsicFwS2/include/matrix.h ****         for( int k = 0; k < R; ++k )
 838:/home/tienluong/workspace/atlantis_fw/AsicFwS2/include/matrix.h ****         { swap( this->_data[Idx( k, i )], this->_data[Idx( k, j )] ); }
 839:/home/tienluong/workspace/atlantis_fw/AsicFwS2/include/matrix.h ****         return *this;
 840:/home/tienluong/workspace/atlantis_fw/AsicFwS2/include/matrix.h ****     }
 841:/home/tienluong/workspace/atlantis_fw/AsicFwS2/include/matrix.h **** 
 842:/home/tienluong/workspace/atlantis_fw/AsicFwS2/include/matrix.h ****     T sum() const
 843:/home/tienluong/workspace/atlantis_fw/AsicFwS2/include/matrix.h ****     {
 844:/home/tienluong/workspace/atlantis_fw/AsicFwS2/include/matrix.h ****         T sum = this->_data[0];
 845:/home/tienluong/workspace/atlantis_fw/AsicFwS2/include/matrix.h ****         for( int j = 1; j < kSize; ++j ) { sum += this->_data[j]; }
 846:/home/tienluong/workspace/atlantis_fw/AsicFwS2/include/matrix.h ****         return sum;
 847:/home/tienluong/workspace/atlantis_fw/AsicFwS2/include/matrix.h ****     }
 848:/home/tienluong/workspace/atlantis_fw/AsicFwS2/include/matrix.h **** 
 849:/home/tienluong/workspace/atlantis_fw/AsicFwS2/include/matrix.h ****     Matrix & setIdentity()
 850:/home/tienluong/workspace/atlantis_fw/AsicFwS2/include/matrix.h ****     {
 851:/home/tienluong/workspace/atlantis_fw/AsicFwS2/include/matrix.h ****         for( int i = 0; i < R; ++i )
 852:/home/tienluong/workspace/atlantis_fw/AsicFwS2/include/matrix.h ****         {
 853:/home/tienluong/workspace/atlantis_fw/AsicFwS2/include/matrix.h ****             for( int j = 0; j < C; ++j )
 854:/home/tienluong/workspace/atlantis_fw/AsicFwS2/include/matrix.h ****             { this->_data[Idx( i, j )] = i == j ? T{1} : T{0}; }
 855:/home/tienluong/workspace/atlantis_fw/AsicFwS2/include/matrix.h ****         }
 856:/home/tienluong/workspace/atlantis_fw/AsicFwS2/include/matrix.h ****         return *this;
 857:/home/tienluong/workspace/atlantis_fw/AsicFwS2/include/matrix.h ****     }
 858:/home/tienluong/workspace/atlantis_fw/AsicFwS2/include/matrix.h **** 
 859:/home/tienluong/workspace/atlantis_fw/AsicFwS2/include/matrix.h ****     const Matrix < T, C, R, !RowMajor > & transpose() const
 860:/home/tienluong/workspace/atlantis_fw/AsicFwS2/include/matrix.h ****     {
 861:/home/tienluong/workspace/atlantis_fw/AsicFwS2/include/matrix.h ****         return *reinterpret_cast < const Matrix < T, C, R, !RowMajor > * >( this );
 862:/home/tienluong/workspace/atlantis_fw/AsicFwS2/include/matrix.h ****     }
 863:/home/tienluong/workspace/atlantis_fw/AsicFwS2/include/matrix.h **** 
 864:/home/tienluong/workspace/atlantis_fw/AsicFwS2/include/matrix.h ****     // friend std::ostream & operator<<( std::ostream & os, const Matrix & m )
 865:/home/tienluong/workspace/atlantis_fw/AsicFwS2/include/matrix.h ****     // {
 866:/home/tienluong/workspace/atlantis_fw/AsicFwS2/include/matrix.h ****     //     std::stringstream sb;
 867:/home/tienluong/workspace/atlantis_fw/AsicFwS2/include/matrix.h ****     //     sb << std::endl << "[ ";
 868:/home/tienluong/workspace/atlantis_fw/AsicFwS2/include/matrix.h ****     //     for( int i = 0; i < R; ++i )
 869:/home/tienluong/workspace/atlantis_fw/AsicFwS2/include/matrix.h ****     //     {
 870:/home/tienluong/workspace/atlantis_fw/AsicFwS2/include/matrix.h ****     //         for( int j = 0; j < C; ++j ) { sb << m( i, j ) << " "; }
 871:/home/tienluong/workspace/atlantis_fw/AsicFwS2/include/matrix.h ****     //         if( i != R - 1 ) { sb << std::endl; }
 872:/home/tienluong/workspace/atlantis_fw/AsicFwS2/include/matrix.h ****     //     }
 873:/home/tienluong/workspace/atlantis_fw/AsicFwS2/include/matrix.h ****     //     sb << "]" << std::endl;
 874:/home/tienluong/workspace/atlantis_fw/AsicFwS2/include/matrix.h ****     //     return os << sb.rdbuf();
 875:/home/tienluong/workspace/atlantis_fw/AsicFwS2/include/matrix.h ****     // }
 876:/home/tienluong/workspace/atlantis_fw/AsicFwS2/include/matrix.h **** 
 877:/home/tienluong/workspace/atlantis_fw/AsicFwS2/include/matrix.h ****     static constexpr bool IsRowMajor() { return RowMajor; }
 878:/home/tienluong/workspace/atlantis_fw/AsicFwS2/include/matrix.h **** 
 879:/home/tienluong/workspace/atlantis_fw/AsicFwS2/include/matrix.h ****     static Matrix Identity()
 880:/home/tienluong/workspace/atlantis_fw/AsicFwS2/include/matrix.h ****     {
 881:/home/tienluong/workspace/atlantis_fw/AsicFwS2/include/matrix.h ****         Matrix rval;
 882:/home/tienluong/workspace/atlantis_fw/AsicFwS2/include/matrix.h ****         return rval.setIdentity();
 883:/home/tienluong/workspace/atlantis_fw/AsicFwS2/include/matrix.h ****     }
 884:/home/tienluong/workspace/atlantis_fw/AsicFwS2/include/matrix.h **** };
 885:/home/tienluong/workspace/atlantis_fw/AsicFwS2/include/matrix.h **** 
 886:/home/tienluong/workspace/atlantis_fw/AsicFwS2/include/matrix.h **** template<typename T, int R, int C, bool D>
 887:/home/tienluong/workspace/atlantis_fw/AsicFwS2/include/matrix.h **** Matrix < T, C, R, !D > transpose( const Matrix<T, R, C, D> & mat )
 888:/home/tienluong/workspace/atlantis_fw/AsicFwS2/include/matrix.h **** {
 889:/home/tienluong/workspace/atlantis_fw/AsicFwS2/include/matrix.h ****     // simply copy the data and flip the matrix ordering
 890:/home/tienluong/workspace/atlantis_fw/AsicFwS2/include/matrix.h ****     Matrix < T, C, R, !D > rval;
 891:/home/tienluong/workspace/atlantis_fw/AsicFwS2/include/matrix.h ****     T * dst = rval.data();
 892:/home/tienluong/workspace/atlantis_fw/AsicFwS2/include/matrix.h ****     const T * src = mat.data();
 893:/home/tienluong/workspace/atlantis_fw/AsicFwS2/include/matrix.h ****     for( int i = 0; i < R * C; ++i ) { dst[i] = src[i]; }
 894:/home/tienluong/workspace/atlantis_fw/AsicFwS2/include/matrix.h ****     return rval;
 895:/home/tienluong/workspace/atlantis_fw/AsicFwS2/include/matrix.h **** }
 896:/home/tienluong/workspace/atlantis_fw/AsicFwS2/include/matrix.h **** 
 897:/home/tienluong/workspace/atlantis_fw/AsicFwS2/include/matrix.h **** template<typename T, int N, bool D>
 898:/home/tienluong/workspace/atlantis_fw/AsicFwS2/include/matrix.h **** Matrix<T, N, N, D> inverse( const Matrix<T, N, N, D> & mat );
 899:/home/tienluong/workspace/atlantis_fw/AsicFwS2/include/matrix.h **** 
 900:/home/tienluong/workspace/atlantis_fw/AsicFwS2/include/matrix.h **** template<typename T, int N, bool D>
 901:/home/tienluong/workspace/atlantis_fw/AsicFwS2/include/matrix.h **** T determinant( const Matrix<T, N, N, D> & mat );
 902:/home/tienluong/workspace/atlantis_fw/AsicFwS2/include/matrix.h **** 
 903:/home/tienluong/workspace/atlantis_fw/AsicFwS2/include/matrix.h **** // scalar-matrix operators
 904:/home/tienluong/workspace/atlantis_fw/AsicFwS2/include/matrix.h **** template<typename T, typename U, int R, int C, bool D>
 905:/home/tienluong/workspace/atlantis_fw/AsicFwS2/include/matrix.h **** typename std::enable_if<std::is_arithmetic<T>::value, Matrix<U, R, C, D> >::type
 906:/home/tienluong/workspace/atlantis_fw/AsicFwS2/include/matrix.h **** operator+( T a, const Matrix<U, R, C, D> & b ) { return b + a; }
 907:/home/tienluong/workspace/atlantis_fw/AsicFwS2/include/matrix.h **** 
 908:/home/tienluong/workspace/atlantis_fw/AsicFwS2/include/matrix.h **** template<typename T, typename U, int R, int C, bool D>
 909:/home/tienluong/workspace/atlantis_fw/AsicFwS2/include/matrix.h **** typename std::enable_if<std::is_arithmetic<T>::value, Matrix<U, R, C, D> >::type
 910:/home/tienluong/workspace/atlantis_fw/AsicFwS2/include/matrix.h **** operator-( T a, const Matrix<U, R, C, D> & b )
 911:/home/tienluong/workspace/atlantis_fw/AsicFwS2/include/matrix.h **** {
 912:/home/tienluong/workspace/atlantis_fw/AsicFwS2/include/matrix.h ****     Matrix<U, R, C, D> rval;
 913:/home/tienluong/workspace/atlantis_fw/AsicFwS2/include/matrix.h ****     for( int i = 0; i < R; ++i )
 914:/home/tienluong/workspace/atlantis_fw/AsicFwS2/include/matrix.h ****     { for( int j = 0; j < C; ++j ) { rval( i, j ) = U( a ) - b( i, j ); } }
 915:/home/tienluong/workspace/atlantis_fw/AsicFwS2/include/matrix.h ****     return rval;
 916:/home/tienluong/workspace/atlantis_fw/AsicFwS2/include/matrix.h **** }
 917:/home/tienluong/workspace/atlantis_fw/AsicFwS2/include/matrix.h **** 
 918:/home/tienluong/workspace/atlantis_fw/AsicFwS2/include/matrix.h **** template<typename T, typename U, int R, int C, bool D>
 919:/home/tienluong/workspace/atlantis_fw/AsicFwS2/include/matrix.h **** typename std::enable_if<std::is_arithmetic<T>::value, Matrix<U, R, C, D> >::type
 920:/home/tienluong/workspace/atlantis_fw/AsicFwS2/include/matrix.h **** operator*( T a, const Matrix<U, R, C, D> & b ) { return b * a; }
 921:/home/tienluong/workspace/atlantis_fw/AsicFwS2/include/matrix.h **** 
 922:/home/tienluong/workspace/atlantis_fw/AsicFwS2/include/matrix.h **** using Matrix2x2f = Matrix<float, 2, 2>;
 923:/home/tienluong/workspace/atlantis_fw/AsicFwS2/include/matrix.h **** using Matrix3x3f = Matrix<float, 3, 3>;
 924:/home/tienluong/workspace/atlantis_fw/AsicFwS2/include/matrix.h **** using Matrix4x4f = Matrix<float, 4, 4>;
 925:/home/tienluong/workspace/atlantis_fw/AsicFwS2/include/matrix.h **** using Matrix2x2d = Matrix<double, 2, 2>;
 926:/home/tienluong/workspace/atlantis_fw/AsicFwS2/include/matrix.h **** using Matrix3x3d = Matrix<double, 3, 3>;
 927:/home/tienluong/workspace/atlantis_fw/AsicFwS2/include/matrix.h **** using Matrix4x4d = Matrix<double, 4, 4>;
 928:/home/tienluong/workspace/atlantis_fw/AsicFwS2/include/matrix.h **** 
 929:/home/tienluong/workspace/atlantis_fw/AsicFwS2/include/matrix.h **** // optimized implementation of matrix-vector operations
 930:/home/tienluong/workspace/atlantis_fw/AsicFwS2/include/matrix.h **** // mind the order of color channels in memory is BGRA, i.e.,
 931:/home/tienluong/workspace/atlantis_fw/AsicFwS2/include/matrix.h **** // blue channel corresponds to the first matrix dimension!
 932:/home/tienluong/workspace/atlantis_fw/AsicFwS2/include/matrix.h **** 
 933:/home/tienluong/workspace/atlantis_fw/AsicFwS2/include/matrix.h **** template<bool D>
 934:/home/tienluong/workspace/atlantis_fw/AsicFwS2/include/matrix.h **** Vec4f operator*( const Matrix<float, 4, 4, D> & mat, const Vec4f & vec )
 935:/home/tienluong/workspace/atlantis_fw/AsicFwS2/include/matrix.h **** {
 936:/home/tienluong/workspace/atlantis_fw/AsicFwS2/include/matrix.h ****     return
 937:/home/tienluong/workspace/atlantis_fw/AsicFwS2/include/matrix.h ****     {
 938:/home/tienluong/workspace/atlantis_fw/AsicFwS2/include/matrix.h ****         mat( 0, 0 ) * vec.x() + mat( 0, 1 ) * vec.y() + mat( 0, 2 ) * vec.z() + mat( 0, 3 ) * vec.a
 939:/home/tienluong/workspace/atlantis_fw/AsicFwS2/include/matrix.h ****         mat( 1, 0 ) * vec.x() + mat( 1, 1 ) * vec.y() + mat( 1, 2 ) * vec.z() + mat( 1, 3 ) * vec.a
 940:/home/tienluong/workspace/atlantis_fw/AsicFwS2/include/matrix.h ****         mat( 2, 0 ) * vec.x() + mat( 2, 1 ) * vec.y() + mat( 2, 2 ) * vec.z() + mat( 2, 3 ) * vec.a
 941:/home/tienluong/workspace/atlantis_fw/AsicFwS2/include/matrix.h ****         mat( 3, 0 ) * vec.x() + mat( 3, 1 ) * vec.y() + mat( 3, 2 ) * vec.z() + mat( 3, 3 ) * vec.a
 942:/home/tienluong/workspace/atlantis_fw/AsicFwS2/include/matrix.h ****     };
 943:/home/tienluong/workspace/atlantis_fw/AsicFwS2/include/matrix.h **** }
 944:/home/tienluong/workspace/atlantis_fw/AsicFwS2/include/matrix.h **** 
 945:/home/tienluong/workspace/atlantis_fw/AsicFwS2/include/matrix.h **** template<bool D>
 946:/home/tienluong/workspace/atlantis_fw/AsicFwS2/include/matrix.h **** Vec4f operator*( const Vec4f & vec, const Matrix<float, 4, 4, D> & mat )
 947:/home/tienluong/workspace/atlantis_fw/AsicFwS2/include/matrix.h **** {
 948:/home/tienluong/workspace/atlantis_fw/AsicFwS2/include/matrix.h ****     return
 949:/home/tienluong/workspace/atlantis_fw/AsicFwS2/include/matrix.h ****     {
 950:/home/tienluong/workspace/atlantis_fw/AsicFwS2/include/matrix.h ****         mat( 0, 0 ) * vec.x() + mat( 1, 0 ) * vec.y() + mat( 2, 0 ) * vec.z() + mat( 3, 0 ) * vec.a
 951:/home/tienluong/workspace/atlantis_fw/AsicFwS2/include/matrix.h ****         mat( 0, 1 ) * vec.x() + mat( 1, 1 ) * vec.y() + mat( 2, 1 ) * vec.z() + mat( 3, 1 ) * vec.a
 952:/home/tienluong/workspace/atlantis_fw/AsicFwS2/include/matrix.h ****         mat( 0, 2 ) * vec.x() + mat( 1, 2 ) * vec.y() + mat( 2, 2 ) * vec.z() + mat( 3, 2 ) * vec.a
 953:/home/tienluong/workspace/atlantis_fw/AsicFwS2/include/matrix.h ****         mat( 0, 3 ) * vec.x() + mat( 1, 3 ) * vec.y() + mat( 2, 3 ) * vec.z() + mat( 3, 3 ) * vec.a
 954:/home/tienluong/workspace/atlantis_fw/AsicFwS2/include/matrix.h ****     };
 955:/home/tienluong/workspace/atlantis_fw/AsicFwS2/include/matrix.h **** }
 956:/home/tienluong/workspace/atlantis_fw/AsicFwS2/include/matrix.h **** 
 957:/home/tienluong/workspace/atlantis_fw/AsicFwS2/include/matrix.h **** // Vec3 left- and right-hand side multiplication operator
 958:/home/tienluong/workspace/atlantis_fw/AsicFwS2/include/matrix.h **** template<typename T, typename U, bool D>
 959:/home/tienluong/workspace/atlantis_fw/AsicFwS2/include/matrix.h **** Vec3<typename std::common_type<T, U>::type> operator*( const Matrix<T, 3, 3, D> & mat, const Vec3<U
 960:/home/tienluong/workspace/atlantis_fw/AsicFwS2/include/matrix.h **** {
 961:/home/tienluong/workspace/atlantis_fw/AsicFwS2/include/matrix.h ****     return
 962:/home/tienluong/workspace/atlantis_fw/AsicFwS2/include/matrix.h ****     {
 963:/home/tienluong/workspace/atlantis_fw/AsicFwS2/include/matrix.h ****         mat( 0, 0 ) * vec.x() + mat( 0, 1 ) * vec.y() + mat( 0, 2 ) * vec.z(),
 964:/home/tienluong/workspace/atlantis_fw/AsicFwS2/include/matrix.h ****         mat( 1, 0 ) * vec.x() + mat( 1, 1 ) * vec.y() + mat( 1, 2 ) * vec.z(),
 965:/home/tienluong/workspace/atlantis_fw/AsicFwS2/include/matrix.h ****         mat( 2, 0 ) * vec.x() + mat( 2, 1 ) * vec.y() + mat( 2, 2 ) * vec.z()
 966:/home/tienluong/workspace/atlantis_fw/AsicFwS2/include/matrix.h ****     };
 967:/home/tienluong/workspace/atlantis_fw/AsicFwS2/include/matrix.h **** }
 968:/home/tienluong/workspace/atlantis_fw/AsicFwS2/include/matrix.h **** 
 969:/home/tienluong/workspace/atlantis_fw/AsicFwS2/include/matrix.h **** template<typename T, typename U, bool D>
 970:/home/tienluong/workspace/atlantis_fw/AsicFwS2/include/matrix.h **** Vec3<typename std::common_type<T, U>::type> operator*( const Vec3<T> & vec, const Matrix<U, 3, 3, D
 971:/home/tienluong/workspace/atlantis_fw/AsicFwS2/include/matrix.h **** {
 972:/home/tienluong/workspace/atlantis_fw/AsicFwS2/include/matrix.h ****     return
 973:/home/tienluong/workspace/atlantis_fw/AsicFwS2/include/matrix.h ****     {
 974:/home/tienluong/workspace/atlantis_fw/AsicFwS2/include/matrix.h ****         mat( 0, 0 ) * vec.x() + mat( 1, 0 ) * vec.y() + mat( 2, 0 ) * vec.z(),
 975:/home/tienluong/workspace/atlantis_fw/AsicFwS2/include/matrix.h ****         mat( 0, 1 ) * vec.x() + mat( 1, 1 ) * vec.y() + mat( 2, 1 ) * vec.z(),
 976:/home/tienluong/workspace/atlantis_fw/AsicFwS2/include/matrix.h ****         mat( 0, 2 ) * vec.x() + mat( 1, 2 ) * vec.y() + mat( 2, 2 ) * vec.z()
 977:/home/tienluong/workspace/atlantis_fw/AsicFwS2/include/matrix.h ****     };
 978:/home/tienluong/workspace/atlantis_fw/AsicFwS2/include/matrix.h **** }
 979:/home/tienluong/workspace/atlantis_fw/AsicFwS2/include/matrix.h **** 
 980:/home/tienluong/workspace/atlantis_fw/AsicFwS2/include/matrix.h **** 
 981:/home/tienluong/workspace/atlantis_fw/AsicFwS2/include/matrix.h **** // mat3x3 and vec2 special multiplication operation used in roitransfer
 982:/home/tienluong/workspace/atlantis_fw/AsicFwS2/include/matrix.h **** /// Return H * p for 2D p, p is made homogeneous, division in the end.
 983:/home/tienluong/workspace/atlantis_fw/AsicFwS2/include/matrix.h **** template<typename T, typename U, bool D>
 984:/home/tienluong/workspace/atlantis_fw/AsicFwS2/include/matrix.h **** Vec2<typename std::common_type<T, U>::type> operator*( const Matrix<T, 3, 3, D> & h, const Vec2<U> 
 985:/home/tienluong/workspace/atlantis_fw/AsicFwS2/include/matrix.h **** {
 986:/home/tienluong/workspace/atlantis_fw/AsicFwS2/include/matrix.h ****     T w_inv = T{1} / ( h(2, 0) * p.x() + h(2, 1) * p.y() + h(2, 2) );
 987:/home/tienluong/workspace/atlantis_fw/AsicFwS2/include/matrix.h ****     return  { 
 988:/home/tienluong/workspace/atlantis_fw/AsicFwS2/include/matrix.h ****                 ( h(0, 0) * p.x() + h(0, 1) * p.y() + h(0, 2) ) * w_inv,
 989:/home/tienluong/workspace/atlantis_fw/AsicFwS2/include/matrix.h ****                 ( h(1, 0) * p.x() + h(1, 1) * p.y() + h(1, 2) ) * w_inv
 990:/home/tienluong/workspace/atlantis_fw/AsicFwS2/include/matrix.h ****             };
 991:/home/tienluong/workspace/atlantis_fw/AsicFwS2/include/matrix.h **** }
 992:/home/tienluong/workspace/atlantis_fw/AsicFwS2/include/matrix.h **** 
 993:/home/tienluong/workspace/atlantis_fw/AsicFwS2/include/matrix.h **** 
 994:/home/tienluong/workspace/atlantis_fw/AsicFwS2/include/matrix.h **** 
 995:/home/tienluong/workspace/atlantis_fw/AsicFwS2/include/matrix.h **** // Vec2 multiplication operator
 996:/home/tienluong/workspace/atlantis_fw/AsicFwS2/include/matrix.h **** //right hand
 997:/home/tienluong/workspace/atlantis_fw/AsicFwS2/include/matrix.h **** template<typename T, typename U, bool D>
 998:/home/tienluong/workspace/atlantis_fw/AsicFwS2/include/matrix.h **** Vec2<typename std::common_type<T, U>::type> operator*( const Matrix<T, 2, 2, D> & mat, const Vec2<U
 999:/home/tienluong/workspace/atlantis_fw/AsicFwS2/include/matrix.h **** {
1000:/home/tienluong/workspace/atlantis_fw/AsicFwS2/include/matrix.h ****     return
1001:/home/tienluong/workspace/atlantis_fw/AsicFwS2/include/matrix.h ****     {
1002:/home/tienluong/workspace/atlantis_fw/AsicFwS2/include/matrix.h ****         mat( 0, 0 ) * vec.x() + mat( 0, 1 ) * vec.y(),
1003:/home/tienluong/workspace/atlantis_fw/AsicFwS2/include/matrix.h ****         mat( 1, 0 ) * vec.x() + mat( 1, 1 ) * vec.y()
1004:/home/tienluong/workspace/atlantis_fw/AsicFwS2/include/matrix.h ****     };
1005:/home/tienluong/workspace/atlantis_fw/AsicFwS2/include/matrix.h **** }
1006:/home/tienluong/workspace/atlantis_fw/AsicFwS2/include/matrix.h **** //left hand
1007:/home/tienluong/workspace/atlantis_fw/AsicFwS2/include/matrix.h **** template<typename T, typename U, bool D>
1008:/home/tienluong/workspace/atlantis_fw/AsicFwS2/include/matrix.h **** Vec2<typename std::common_type<T, U>::type> operator*( const Vec2<U> & vec, const Matrix<T, 2, 2, D
1009:/home/tienluong/workspace/atlantis_fw/AsicFwS2/include/matrix.h **** {
1010:/home/tienluong/workspace/atlantis_fw/AsicFwS2/include/matrix.h ****     return
1011:/home/tienluong/workspace/atlantis_fw/AsicFwS2/include/matrix.h ****     {
1012:/home/tienluong/workspace/atlantis_fw/AsicFwS2/include/matrix.h ****         mat( 0, 0 ) * vec.x() + mat( 1, 0 ) * vec.y(),
1013:/home/tienluong/workspace/atlantis_fw/AsicFwS2/include/matrix.h ****         mat( 0, 1 ) * vec.x() + mat( 1, 1 ) * vec.y()
1014:/home/tienluong/workspace/atlantis_fw/AsicFwS2/include/matrix.h ****     };
1015:/home/tienluong/workspace/atlantis_fw/AsicFwS2/include/matrix.h **** }
1016:/home/tienluong/workspace/atlantis_fw/AsicFwS2/include/matrix.h **** 
1017:/home/tienluong/workspace/atlantis_fw/AsicFwS2/include/matrix.h **** // Create a diagonal matrix from a vector
1018:/home/tienluong/workspace/atlantis_fw/AsicFwS2/include/matrix.h **** inline Matrix4x4f diagonal( const Vec4f & vec )
1019:/home/tienluong/workspace/atlantis_fw/AsicFwS2/include/matrix.h **** {
1020:/home/tienluong/workspace/atlantis_fw/AsicFwS2/include/matrix.h ****     return
1021:/home/tienluong/workspace/atlantis_fw/AsicFwS2/include/matrix.h ****     {
1022:/home/tienluong/workspace/atlantis_fw/AsicFwS2/include/matrix.h ****         vec.x(), 0.0f, 0.0f, 0.0f,
1023:/home/tienluong/workspace/atlantis_fw/AsicFwS2/include/matrix.h ****         0.0f, vec.y(), 0.0f, 0.0f,
1024:/home/tienluong/workspace/atlantis_fw/AsicFwS2/include/matrix.h ****         0.0f, 0.0f, vec.z(), 0.0f,
1025:/home/tienluong/workspace/atlantis_fw/AsicFwS2/include/matrix.h ****         0.0f, 0.0f, 0.0f, vec.a()
1026:/home/tienluong/workspace/atlantis_fw/AsicFwS2/include/matrix.h ****     };
1027:/home/tienluong/workspace/atlantis_fw/AsicFwS2/include/matrix.h **** }
1028:/home/tienluong/workspace/atlantis_fw/AsicFwS2/include/matrix.h **** 
1029:/home/tienluong/workspace/atlantis_fw/AsicFwS2/include/matrix.h **** template<typename T>
1030:/home/tienluong/workspace/atlantis_fw/AsicFwS2/include/matrix.h **** Matrix<T, 3, 3> diagonal( const Vec3<T> & vec )
1031:/home/tienluong/workspace/atlantis_fw/AsicFwS2/include/matrix.h **** {
1032:/home/tienluong/workspace/atlantis_fw/AsicFwS2/include/matrix.h ****     return
1033:/home/tienluong/workspace/atlantis_fw/AsicFwS2/include/matrix.h ****     {
1034:/home/tienluong/workspace/atlantis_fw/AsicFwS2/include/matrix.h ****         vec.x(), T{0}, T{0},
1035:/home/tienluong/workspace/atlantis_fw/AsicFwS2/include/matrix.h ****         T{0}, vec.y(), T{0},
1036:/home/tienluong/workspace/atlantis_fw/AsicFwS2/include/matrix.h ****         T{0}, T{0}, vec.z()
1037:/home/tienluong/workspace/atlantis_fw/AsicFwS2/include/matrix.h ****     };
1038:/home/tienluong/workspace/atlantis_fw/AsicFwS2/include/matrix.h **** }
1039:/home/tienluong/workspace/atlantis_fw/AsicFwS2/include/matrix.h **** 
1040:/home/tienluong/workspace/atlantis_fw/AsicFwS2/include/matrix.h **** template<typename T>
1041:/home/tienluong/workspace/atlantis_fw/AsicFwS2/include/matrix.h **** Matrix<T, 2, 2> diagonal( const Vec2<T> & vec )
1042:/home/tienluong/workspace/atlantis_fw/AsicFwS2/include/matrix.h **** {
1043:/home/tienluong/workspace/atlantis_fw/AsicFwS2/include/matrix.h ****     return
1044:/home/tienluong/workspace/atlantis_fw/AsicFwS2/include/matrix.h ****     {
1045:/home/tienluong/workspace/atlantis_fw/AsicFwS2/include/matrix.h ****         vec.x(), T{0},
1046:/home/tienluong/workspace/atlantis_fw/AsicFwS2/include/matrix.h ****         T{0}, vec.y(),
1047:/home/tienluong/workspace/atlantis_fw/AsicFwS2/include/matrix.h ****     };
1048:/home/tienluong/workspace/atlantis_fw/AsicFwS2/include/matrix.h **** }
1049:/home/tienluong/workspace/atlantis_fw/AsicFwS2/include/matrix.h **** 
1050:/home/tienluong/workspace/atlantis_fw/AsicFwS2/include/matrix.h **** // ------------------------------------
1051:/home/tienluong/workspace/atlantis_fw/AsicFwS2/include/matrix.h **** // determinant, inverse, etc
1052:/home/tienluong/workspace/atlantis_fw/AsicFwS2/include/matrix.h **** // ------------------------------------
1053:/home/tienluong/workspace/atlantis_fw/AsicFwS2/include/matrix.h **** 
1054:/home/tienluong/workspace/atlantis_fw/AsicFwS2/include/matrix.h **** template<typename T, int N>
1055:/home/tienluong/workspace/atlantis_fw/AsicFwS2/include/matrix.h **** struct MatrixDeterminant { };
1056:/home/tienluong/workspace/atlantis_fw/AsicFwS2/include/matrix.h **** 
1057:/home/tienluong/workspace/atlantis_fw/AsicFwS2/include/matrix.h **** template<typename T>
1058:/home/tienluong/workspace/atlantis_fw/AsicFwS2/include/matrix.h **** struct MatrixDeterminant<T, 2>
1059:/home/tienluong/workspace/atlantis_fw/AsicFwS2/include/matrix.h **** {
1060:/home/tienluong/workspace/atlantis_fw/AsicFwS2/include/matrix.h ****     T operator()( const T * mat ) const
1061:/home/tienluong/workspace/atlantis_fw/AsicFwS2/include/matrix.h ****     {
1062:/home/tienluong/workspace/atlantis_fw/AsicFwS2/include/matrix.h ****         return mat[0] * mat[3] - mat[1] * mat[2];
1063:/home/tienluong/workspace/atlantis_fw/AsicFwS2/include/matrix.h ****     }
1064:/home/tienluong/workspace/atlantis_fw/AsicFwS2/include/matrix.h **** };
1065:/home/tienluong/workspace/atlantis_fw/AsicFwS2/include/matrix.h **** 
1066:/home/tienluong/workspace/atlantis_fw/AsicFwS2/include/matrix.h **** template<typename T>
1067:/home/tienluong/workspace/atlantis_fw/AsicFwS2/include/matrix.h **** struct MatrixDeterminant<T, 3>
1068:/home/tienluong/workspace/atlantis_fw/AsicFwS2/include/matrix.h **** {
1069:/home/tienluong/workspace/atlantis_fw/AsicFwS2/include/matrix.h ****     T operator()( const T * mat ) const
1070:/home/tienluong/workspace/atlantis_fw/AsicFwS2/include/matrix.h ****     {
1071:/home/tienluong/workspace/atlantis_fw/AsicFwS2/include/matrix.h ****         return + mat[0] * ( mat[4] * mat[8] - mat[7] * mat[5] )
1072:/home/tienluong/workspace/atlantis_fw/AsicFwS2/include/matrix.h ****                - mat[1] * ( mat[3] * mat[8] - mat[5] * mat[6] )
1073:/home/tienluong/workspace/atlantis_fw/AsicFwS2/include/matrix.h ****                + mat[2] * ( mat[3] * mat[7] - mat[4] * mat[6] );
1074:/home/tienluong/workspace/atlantis_fw/AsicFwS2/include/matrix.h ****     }
1075:/home/tienluong/workspace/atlantis_fw/AsicFwS2/include/matrix.h **** };
1076:/home/tienluong/workspace/atlantis_fw/AsicFwS2/include/matrix.h **** 
1077:/home/tienluong/workspace/atlantis_fw/AsicFwS2/include/matrix.h **** template<typename T>
1078:/home/tienluong/workspace/atlantis_fw/AsicFwS2/include/matrix.h **** struct MatrixDeterminant<T, 4>
1079:/home/tienluong/workspace/atlantis_fw/AsicFwS2/include/matrix.h **** {
1080:/home/tienluong/workspace/atlantis_fw/AsicFwS2/include/matrix.h ****     T operator()( const T * mat ) const
1081:/home/tienluong/workspace/atlantis_fw/AsicFwS2/include/matrix.h ****     {
1082:/home/tienluong/workspace/atlantis_fw/AsicFwS2/include/matrix.h ****         T dst[4];
1083:/home/tienluong/workspace/atlantis_fw/AsicFwS2/include/matrix.h ****         T tmp[12];
1084:/home/tienluong/workspace/atlantis_fw/AsicFwS2/include/matrix.h **** 
1085:/home/tienluong/workspace/atlantis_fw/AsicFwS2/include/matrix.h ****         // calculate pairs for first 8 elements (cofactors)
1086:/home/tienluong/workspace/atlantis_fw/AsicFwS2/include/matrix.h ****         tmp[0] = mat[10] * mat[15];
1087:/home/tienluong/workspace/atlantis_fw/AsicFwS2/include/matrix.h ****         tmp[1] = mat[11] * mat[14];
1088:/home/tienluong/workspace/atlantis_fw/AsicFwS2/include/matrix.h ****         tmp[2] = mat[9] * mat[15];
1089:/home/tienluong/workspace/atlantis_fw/AsicFwS2/include/matrix.h ****         tmp[3] = mat[11] * mat[13];
1090:/home/tienluong/workspace/atlantis_fw/AsicFwS2/include/matrix.h ****         tmp[4] = mat[9] * mat[14];
1091:/home/tienluong/workspace/atlantis_fw/AsicFwS2/include/matrix.h ****         tmp[5] = mat[10] * mat[13];
1092:/home/tienluong/workspace/atlantis_fw/AsicFwS2/include/matrix.h ****         tmp[6] = mat[8] * mat[15];
1093:/home/tienluong/workspace/atlantis_fw/AsicFwS2/include/matrix.h ****         tmp[7] = mat[11] * mat[12];
1094:/home/tienluong/workspace/atlantis_fw/AsicFwS2/include/matrix.h ****         tmp[8] = mat[8] * mat[14];
1095:/home/tienluong/workspace/atlantis_fw/AsicFwS2/include/matrix.h ****         tmp[9] = mat[10] * mat[12];
1096:/home/tienluong/workspace/atlantis_fw/AsicFwS2/include/matrix.h ****         tmp[10] = mat[8] * mat[13];
1097:/home/tienluong/workspace/atlantis_fw/AsicFwS2/include/matrix.h ****         tmp[11] = mat[9] * mat[12];
1098:/home/tienluong/workspace/atlantis_fw/AsicFwS2/include/matrix.h **** 
1099:/home/tienluong/workspace/atlantis_fw/AsicFwS2/include/matrix.h ****         // calculate first 8 elements (cofactors)
1100:/home/tienluong/workspace/atlantis_fw/AsicFwS2/include/matrix.h ****         dst[0]  = tmp[0] * mat[5] + tmp[3] * mat[6] + tmp[4]  * mat[7];
1101:/home/tienluong/workspace/atlantis_fw/AsicFwS2/include/matrix.h ****         dst[0] -= tmp[1] * mat[5] + tmp[2] * mat[6] + tmp[5]  * mat[7];
1102:/home/tienluong/workspace/atlantis_fw/AsicFwS2/include/matrix.h ****         dst[1]  = tmp[1] * mat[4] + tmp[6] * mat[6] + tmp[9]  * mat[7];
1103:/home/tienluong/workspace/atlantis_fw/AsicFwS2/include/matrix.h ****         dst[1] -= tmp[0] * mat[4] + tmp[7] * mat[6] + tmp[8]  * mat[7];
1104:/home/tienluong/workspace/atlantis_fw/AsicFwS2/include/matrix.h ****         dst[2]  = tmp[2] * mat[4] + tmp[7] * mat[5] + tmp[10] * mat[7];
1105:/home/tienluong/workspace/atlantis_fw/AsicFwS2/include/matrix.h ****         dst[2] -= tmp[3] * mat[4] + tmp[6] * mat[5] + tmp[11] * mat[7];
1106:/home/tienluong/workspace/atlantis_fw/AsicFwS2/include/matrix.h ****         dst[3]  = tmp[5] * mat[4] + tmp[8] * mat[5] + tmp[11] * mat[6];
1107:/home/tienluong/workspace/atlantis_fw/AsicFwS2/include/matrix.h ****         dst[3] -= tmp[4] * mat[4] + tmp[9] * mat[5] + tmp[10] * mat[6];
1108:/home/tienluong/workspace/atlantis_fw/AsicFwS2/include/matrix.h **** 
1109:/home/tienluong/workspace/atlantis_fw/AsicFwS2/include/matrix.h ****         // calculate determinant
1110:/home/tienluong/workspace/atlantis_fw/AsicFwS2/include/matrix.h ****         return mat[0] * dst[0] + mat[1] * dst[1] + mat[2] * dst[2] + mat[3] * dst[3];
1111:/home/tienluong/workspace/atlantis_fw/AsicFwS2/include/matrix.h ****     }
1112:/home/tienluong/workspace/atlantis_fw/AsicFwS2/include/matrix.h **** };
1113:/home/tienluong/workspace/atlantis_fw/AsicFwS2/include/matrix.h **** 
1114:/home/tienluong/workspace/atlantis_fw/AsicFwS2/include/matrix.h **** 
1115:/home/tienluong/workspace/atlantis_fw/AsicFwS2/include/matrix.h **** template<typename T, int N>
1116:/home/tienluong/workspace/atlantis_fw/AsicFwS2/include/matrix.h **** struct SquareMatrixInverter { };
1117:/home/tienluong/workspace/atlantis_fw/AsicFwS2/include/matrix.h **** 
1118:/home/tienluong/workspace/atlantis_fw/AsicFwS2/include/matrix.h **** template<typename T>
1119:/home/tienluong/workspace/atlantis_fw/AsicFwS2/include/matrix.h **** struct SquareMatrixInverter<T, 2>
1120:/home/tienluong/workspace/atlantis_fw/AsicFwS2/include/matrix.h **** {
1121:/home/tienluong/workspace/atlantis_fw/AsicFwS2/include/matrix.h ****     void run( T * mat ) const
 195              		.loc 2 1121 0
 196              		.cfi_startproc
 197              		@ args = 0, pretend = 0, frame = 16
 198              		@ frame_needed = 0, uses_anonymous_args = 0
 199              	.LVL15:
 200 0000 2DE9FF47 		push	{r0, r1, r2, r3, r4, r5, r6, r7, r8, r9, r10, lr}
 201              	.LCFI3:
 202              		.cfi_def_cfa_offset 48
 203              		.cfi_offset 4, -32
 204              		.cfi_offset 5, -28
 205              		.cfi_offset 6, -24
 206              		.cfi_offset 7, -20
 207              		.cfi_offset 8, -16
 208              		.cfi_offset 9, -12
 209              		.cfi_offset 10, -8
 210              		.cfi_offset 14, -4
 211              	.LBB1203:
1122:/home/tienluong/workspace/atlantis_fw/AsicFwS2/include/matrix.h ****     {
1123:/home/tienluong/workspace/atlantis_fw/AsicFwS2/include/matrix.h ****         const T det = mat[0] * mat[3] - mat[1] * mat[2];
 212              		.loc 2 1123 0
 213 0004 D0F80C90 		ldr	r9, [r0, #12]	@ float
 214              	.LBE1203:
1121:/home/tienluong/workspace/atlantis_fw/AsicFwS2/include/matrix.h ****     {
 215              		.loc 2 1121 0
 216 0008 0546     		mov	r5, r0
 217              	.LBB1206:
 218              		.loc 2 1123 0
 219 000a D0F80080 		ldr	r8, [r0]	@ float
 220 000e 4946     		mov	r1, r9
 221 0010 4768     		ldr	r7, [r0, #4]	@ float
 222 0012 8468     		ldr	r4, [r0, #8]	@ float
 223              	.LVL16:
 224 0014 4046     		mov	r0, r8
 225              	.LVL17:
 226 0016 134E     		ldr	r6, .L17
 227 0018 B047     		blx	r6
 228              	.LVL18:
 229 001a 2146     		mov	r1, r4
1124:/home/tienluong/workspace/atlantis_fw/AsicFwS2/include/matrix.h **** 
1125:/home/tienluong/workspace/atlantis_fw/AsicFwS2/include/matrix.h ****         const T invdet = T{1} / det;
1126:/home/tienluong/workspace/atlantis_fw/AsicFwS2/include/matrix.h **** 
1127:/home/tienluong/workspace/atlantis_fw/AsicFwS2/include/matrix.h ****         T tmp[4];
1128:/home/tienluong/workspace/atlantis_fw/AsicFwS2/include/matrix.h ****         tmp[0] = mat[3];
1129:/home/tienluong/workspace/atlantis_fw/AsicFwS2/include/matrix.h ****         tmp[1] = -mat[1];
1130:/home/tienluong/workspace/atlantis_fw/AsicFwS2/include/matrix.h ****         tmp[2] = -mat[2];
 230              		.loc 2 1130 0
 231 001c 04F10044 		add	r4, r4, #-2147483648
 232              	.LVL19:
1123:/home/tienluong/workspace/atlantis_fw/AsicFwS2/include/matrix.h **** 
 233              		.loc 2 1123 0
 234 0020 8246     		mov	r10, r0
 235 0022 3846     		mov	r0, r7
 236 0024 B047     		blx	r6
 237              	.LVL20:
 238 0026 104B     		ldr	r3, .L17+4
1129:/home/tienluong/workspace/atlantis_fw/AsicFwS2/include/matrix.h ****         tmp[2] = -mat[2];
 239              		.loc 2 1129 0
 240 0028 07F10047 		add	r7, r7, #-2147483648
1123:/home/tienluong/workspace/atlantis_fw/AsicFwS2/include/matrix.h **** 
 241              		.loc 2 1123 0
 242 002c 0146     		mov	r1, r0
 243 002e 5046     		mov	r0, r10
 244 0030 9847     		blx	r3
 245              	.LVL21:
1125:/home/tienluong/workspace/atlantis_fw/AsicFwS2/include/matrix.h **** 
 246              		.loc 2 1125 0
 247 0032 0E4B     		ldr	r3, .L17+8
1123:/home/tienluong/workspace/atlantis_fw/AsicFwS2/include/matrix.h **** 
 248              		.loc 2 1123 0
 249 0034 0146     		mov	r1, r0
1125:/home/tienluong/workspace/atlantis_fw/AsicFwS2/include/matrix.h **** 
 250              		.loc 2 1125 0
 251 0036 4FF07E50 		mov	r0, #1065353216
 252 003a 9847     		blx	r3
 253              	.LVL22:
 254              		.loc 2 1130 0
 255 003c 0294     		str	r4, [sp, #8]	@ float
 256              	.LBB1204:
1131:/home/tienluong/workspace/atlantis_fw/AsicFwS2/include/matrix.h ****         tmp[3] = mat[0];
1132:/home/tienluong/workspace/atlantis_fw/AsicFwS2/include/matrix.h **** 
1133:/home/tienluong/workspace/atlantis_fw/AsicFwS2/include/matrix.h ****         for( int i = 0; i < 4; ++i ) { mat[i] = tmp[i] * invdet; }
 257              		.loc 2 1133 0
 258 003e 0024     		movs	r4, #0
 259              	.LBE1204:
1128:/home/tienluong/workspace/atlantis_fw/AsicFwS2/include/matrix.h ****         tmp[1] = -mat[1];
 260              		.loc 2 1128 0
 261 0040 CDF80090 		str	r9, [sp]	@ float
1129:/home/tienluong/workspace/atlantis_fw/AsicFwS2/include/matrix.h ****         tmp[2] = -mat[2];
 262              		.loc 2 1129 0
 263 0044 0197     		str	r7, [sp, #4]	@ float
1131:/home/tienluong/workspace/atlantis_fw/AsicFwS2/include/matrix.h ****         tmp[3] = mat[0];
 264              		.loc 2 1131 0
 265 0046 CDF80C80 		str	r8, [sp, #12]	@ float
1125:/home/tienluong/workspace/atlantis_fw/AsicFwS2/include/matrix.h **** 
 266              		.loc 2 1125 0
 267 004a 8246     		mov	r10, r0
 268              	.LVL23:
 269              	.L14:
 270              	.LBB1205:
 271              		.loc 2 1133 0
 272 004c 5DF82400 		ldr	r0, [sp, r4, lsl #2]	@ float
 273 0050 5146     		mov	r1, r10
 274 0052 B047     		blx	r6
 275              	.LVL24:
 276 0054 45F82400 		str	r0, [r5, r4, lsl #2]	@ float
 277 0058 0134     		adds	r4, r4, #1
 278              	.LVL25:
 279 005a 042C     		cmp	r4, #4
 280 005c F6D1     		bne	.L14
 281              	.LBE1205:
 282              	.LBE1206:
1134:/home/tienluong/workspace/atlantis_fw/AsicFwS2/include/matrix.h ****     }
 283              		.loc 2 1134 0
 284 005e 04B0     		add	sp, sp, #16
 285              	.LCFI4:
 286              		.cfi_def_cfa_offset 32
 287              		@ sp needed
 288 0060 BDE8F087 		pop	{r4, r5, r6, r7, r8, r9, r10, pc}
 289              	.LVL26:
 290              	.L18:
 291              		.align	2
 292              	.L17:
 293 0064 00000000 		.word	__aeabi_fmul
 294 0068 00000000 		.word	__aeabi_fsub
 295 006c 00000000 		.word	__aeabi_fdiv
 296              		.cfi_endproc
 297              	.LFE3676:
 299              		.section	.text._ZN4ltaf6MatrixIfLi3ELi3ELb1EEaSESt16initializer_listIfE.isra.6,"ax",%progbits
 300              		.align	1
 301              		.thumb
 302              		.thumb_func
 304              	_ZN4ltaf6MatrixIfLi3ELi3ELb1EEaSESt16initializer_listIfE.isra.6:
 305              	.LFB3681:
 671:/home/tienluong/workspace/atlantis_fw/AsicFwS2/include/matrix.h ****     {
 306              		.loc 2 671 0
 307              		.cfi_startproc
 308              		@ args = 0, pretend = 0, frame = 0
 309              		@ frame_needed = 0, uses_anonymous_args = 0
 310              	.LVL27:
 311 0000 0022     		movs	r2, #0
 312 0002 70B5     		push	{r4, r5, r6, lr}
 313              	.LCFI5:
 314              		.cfi_def_cfa_offset 16
 315              		.cfi_offset 4, -16
 316              		.cfi_offset 5, -12
 317              		.cfi_offset 6, -8
 318              		.cfi_offset 14, -4
 319              	.LVL28:
 320              	.L20:
 321 0004 8C18     		adds	r4, r1, r2
 322              	.LVL29:
 671:/home/tienluong/workspace/atlantis_fw/AsicFwS2/include/matrix.h ****     {
 323              		.loc 2 671 0
 324 0006 0023     		movs	r3, #0
 325              	.LVL30:
 326              	.L21:
 327 0008 8518     		adds	r5, r0, r2
 328              	.LBB1207:
 329              	.LBB1208:
 330              	.LBB1209:
 680:/home/tienluong/workspace/atlantis_fw/AsicFwS2/include/matrix.h ****         }
 331              		.loc 2 680 0
 332 000a 54F82360 		ldr	r6, [r4, r3, lsl #2]	@ float
 333 000e 45F82360 		str	r6, [r5, r3, lsl #2]	@ float
 679:/home/tienluong/workspace/atlantis_fw/AsicFwS2/include/matrix.h ****             { this->_data[Idx( i, j )] = *it; }
 334              		.loc 2 679 0
 335 0012 0133     		adds	r3, r3, #1
 336              	.LVL31:
 337 0014 032B     		cmp	r3, #3
 338 0016 F7D1     		bne	.L21
 339              	.LVL32:
 340 0018 0C32     		adds	r2, r2, #12
 341              	.LBE1209:
 677:/home/tienluong/workspace/atlantis_fw/AsicFwS2/include/matrix.h ****         {
 342              		.loc 2 677 0
 343 001a 242A     		cmp	r2, #36
 344 001c F2D1     		bne	.L20
 345              	.LBE1208:
 346              	.LBE1207:
 684:/home/tienluong/workspace/atlantis_fw/AsicFwS2/include/matrix.h **** 
 347              		.loc 2 684 0
 348 001e 70BD     		pop	{r4, r5, r6, pc}
 349              		.cfi_endproc
 350              	.LFE3681:
 352              		.section	.text._ZN4ltaf7inverseIfLi2ELb1EEENS_6MatrixIT_XT0_EXT0_EXT1_EEERKS3_,"axG",%progbits,_ZN
 353              		.align	1
 354              		.weak	_ZN4ltaf7inverseIfLi2ELb1EEENS_6MatrixIT_XT0_EXT0_EXT1_EEERKS3_
 355              		.thumb
 356              		.thumb_func
 358              	_ZN4ltaf7inverseIfLi2ELb1EEENS_6MatrixIT_XT0_EXT0_EXT1_EEERKS3_:
 359              	.LFB3380:
1135:/home/tienluong/workspace/atlantis_fw/AsicFwS2/include/matrix.h **** };
1136:/home/tienluong/workspace/atlantis_fw/AsicFwS2/include/matrix.h **** 
1137:/home/tienluong/workspace/atlantis_fw/AsicFwS2/include/matrix.h **** template<typename T>
1138:/home/tienluong/workspace/atlantis_fw/AsicFwS2/include/matrix.h **** struct SquareMatrixInverter<T, 3>
1139:/home/tienluong/workspace/atlantis_fw/AsicFwS2/include/matrix.h **** {
1140:/home/tienluong/workspace/atlantis_fw/AsicFwS2/include/matrix.h ****     void run( T * mat ) const
1141:/home/tienluong/workspace/atlantis_fw/AsicFwS2/include/matrix.h ****     {
1142:/home/tienluong/workspace/atlantis_fw/AsicFwS2/include/matrix.h ****         const T det = + mat[0] * ( mat[4] * mat[8] - mat[7] * mat[5] )
1143:/home/tienluong/workspace/atlantis_fw/AsicFwS2/include/matrix.h ****                       - mat[1] * ( mat[3] * mat[8] - mat[5] * mat[6] )
1144:/home/tienluong/workspace/atlantis_fw/AsicFwS2/include/matrix.h ****                       + mat[2] * ( mat[3] * mat[7] - mat[4] * mat[6] );
1145:/home/tienluong/workspace/atlantis_fw/AsicFwS2/include/matrix.h **** 
1146:/home/tienluong/workspace/atlantis_fw/AsicFwS2/include/matrix.h ****         const T invdet = T{1} / det;
1147:/home/tienluong/workspace/atlantis_fw/AsicFwS2/include/matrix.h **** 
1148:/home/tienluong/workspace/atlantis_fw/AsicFwS2/include/matrix.h ****         T tmp[9];
1149:/home/tienluong/workspace/atlantis_fw/AsicFwS2/include/matrix.h ****         tmp[0] =  mat[4] * mat[8] - mat[7] * mat[5];
1150:/home/tienluong/workspace/atlantis_fw/AsicFwS2/include/matrix.h ****         tmp[1] = -( mat[1] * mat[8] - mat[2] * mat[7] );
1151:/home/tienluong/workspace/atlantis_fw/AsicFwS2/include/matrix.h ****         tmp[2] =  mat[1] * mat[5] - mat[2] * mat[4];
1152:/home/tienluong/workspace/atlantis_fw/AsicFwS2/include/matrix.h ****         tmp[3] = -( mat[3] * mat[8] - mat[5] * mat[6] );
1153:/home/tienluong/workspace/atlantis_fw/AsicFwS2/include/matrix.h ****         tmp[4] =  mat[0] * mat[8] - mat[2] * mat[6];
1154:/home/tienluong/workspace/atlantis_fw/AsicFwS2/include/matrix.h ****         tmp[5] = -( mat[0] * mat[5] - mat[3] * mat[2] );
1155:/home/tienluong/workspace/atlantis_fw/AsicFwS2/include/matrix.h ****         tmp[6] =  mat[3] * mat[7] - mat[6] * mat[ 4];
1156:/home/tienluong/workspace/atlantis_fw/AsicFwS2/include/matrix.h ****         tmp[7] = -( mat[0] * mat[7] - mat[6] * mat[1] );
1157:/home/tienluong/workspace/atlantis_fw/AsicFwS2/include/matrix.h ****         tmp[8] =  mat[0] * mat[4] - mat[3] * mat[1];
1158:/home/tienluong/workspace/atlantis_fw/AsicFwS2/include/matrix.h **** 
1159:/home/tienluong/workspace/atlantis_fw/AsicFwS2/include/matrix.h ****         for( int i = 0; i < 9; ++i ) { mat[i] = tmp[i] * invdet; }
1160:/home/tienluong/workspace/atlantis_fw/AsicFwS2/include/matrix.h ****     }
1161:/home/tienluong/workspace/atlantis_fw/AsicFwS2/include/matrix.h **** };
1162:/home/tienluong/workspace/atlantis_fw/AsicFwS2/include/matrix.h **** 
1163:/home/tienluong/workspace/atlantis_fw/AsicFwS2/include/matrix.h **** template<typename T>
1164:/home/tienluong/workspace/atlantis_fw/AsicFwS2/include/matrix.h **** struct SquareMatrixInverter<T, 4>
1165:/home/tienluong/workspace/atlantis_fw/AsicFwS2/include/matrix.h **** {
1166:/home/tienluong/workspace/atlantis_fw/AsicFwS2/include/matrix.h ****     void run( T * mat ) const
1167:/home/tienluong/workspace/atlantis_fw/AsicFwS2/include/matrix.h ****     {
1168:/home/tienluong/workspace/atlantis_fw/AsicFwS2/include/matrix.h ****         T dst[16];
1169:/home/tienluong/workspace/atlantis_fw/AsicFwS2/include/matrix.h ****         T tmp[12];
1170:/home/tienluong/workspace/atlantis_fw/AsicFwS2/include/matrix.h **** 
1171:/home/tienluong/workspace/atlantis_fw/AsicFwS2/include/matrix.h ****         // calculate pairs for first 8 elements (cofactors)
1172:/home/tienluong/workspace/atlantis_fw/AsicFwS2/include/matrix.h ****         tmp[0] = mat[10] * mat[15];
1173:/home/tienluong/workspace/atlantis_fw/AsicFwS2/include/matrix.h ****         tmp[1] = mat[11] * mat[14];
1174:/home/tienluong/workspace/atlantis_fw/AsicFwS2/include/matrix.h ****         tmp[2] = mat[9] * mat[15];
1175:/home/tienluong/workspace/atlantis_fw/AsicFwS2/include/matrix.h ****         tmp[3] = mat[11] * mat[13];
1176:/home/tienluong/workspace/atlantis_fw/AsicFwS2/include/matrix.h ****         tmp[4] = mat[9] * mat[14];
1177:/home/tienluong/workspace/atlantis_fw/AsicFwS2/include/matrix.h ****         tmp[5] = mat[10] * mat[13];
1178:/home/tienluong/workspace/atlantis_fw/AsicFwS2/include/matrix.h ****         tmp[6] = mat[8] * mat[15];
1179:/home/tienluong/workspace/atlantis_fw/AsicFwS2/include/matrix.h ****         tmp[7] = mat[11] * mat[12];
1180:/home/tienluong/workspace/atlantis_fw/AsicFwS2/include/matrix.h ****         tmp[8] = mat[8] * mat[14];
1181:/home/tienluong/workspace/atlantis_fw/AsicFwS2/include/matrix.h ****         tmp[9] = mat[10] * mat[12];
1182:/home/tienluong/workspace/atlantis_fw/AsicFwS2/include/matrix.h ****         tmp[10] = mat[8] * mat[13];
1183:/home/tienluong/workspace/atlantis_fw/AsicFwS2/include/matrix.h ****         tmp[11] = mat[9] * mat[12];
1184:/home/tienluong/workspace/atlantis_fw/AsicFwS2/include/matrix.h **** 
1185:/home/tienluong/workspace/atlantis_fw/AsicFwS2/include/matrix.h ****         // calculate first 8 elements (cofactors)
1186:/home/tienluong/workspace/atlantis_fw/AsicFwS2/include/matrix.h ****         dst[0]   = tmp[0] * mat[5] + tmp[3] * mat[6] + tmp[4]  * mat[7];
1187:/home/tienluong/workspace/atlantis_fw/AsicFwS2/include/matrix.h ****         dst[0]  -= tmp[1] * mat[5] + tmp[2] * mat[6] + tmp[5]  * mat[7];
1188:/home/tienluong/workspace/atlantis_fw/AsicFwS2/include/matrix.h ****         dst[4]   = tmp[1] * mat[4] + tmp[6] * mat[6] + tmp[9]  * mat[7];
1189:/home/tienluong/workspace/atlantis_fw/AsicFwS2/include/matrix.h ****         dst[4]  -= tmp[0] * mat[4] + tmp[7] * mat[6] + tmp[8]  * mat[7];
1190:/home/tienluong/workspace/atlantis_fw/AsicFwS2/include/matrix.h ****         dst[8]   = tmp[2] * mat[4] + tmp[7] * mat[5] + tmp[10] * mat[7];
1191:/home/tienluong/workspace/atlantis_fw/AsicFwS2/include/matrix.h ****         dst[8]  -= tmp[3] * mat[4] + tmp[6] * mat[5] + tmp[11] * mat[7];
1192:/home/tienluong/workspace/atlantis_fw/AsicFwS2/include/matrix.h ****         dst[12]  = tmp[5] * mat[4] + tmp[8] * mat[5] + tmp[11] * mat[6];
1193:/home/tienluong/workspace/atlantis_fw/AsicFwS2/include/matrix.h ****         dst[12] -= tmp[4] * mat[4] + tmp[9] * mat[5] + tmp[10] * mat[6];
1194:/home/tienluong/workspace/atlantis_fw/AsicFwS2/include/matrix.h **** 
1195:/home/tienluong/workspace/atlantis_fw/AsicFwS2/include/matrix.h ****         // calculate determinant
1196:/home/tienluong/workspace/atlantis_fw/AsicFwS2/include/matrix.h ****         const T det = mat[0] * dst[0] + mat[1] * dst[4] + mat[2] * dst[8] + mat[3] * dst[12];
1197:/home/tienluong/workspace/atlantis_fw/AsicFwS2/include/matrix.h **** 
1198:/home/tienluong/workspace/atlantis_fw/AsicFwS2/include/matrix.h ****         const T inv_det = T{1} / det;
1199:/home/tienluong/workspace/atlantis_fw/AsicFwS2/include/matrix.h **** 
1200:/home/tienluong/workspace/atlantis_fw/AsicFwS2/include/matrix.h ****         dst[1]   = tmp[1] * mat[1] + tmp[2] * mat[2] + tmp[5]  * mat[3];
1201:/home/tienluong/workspace/atlantis_fw/AsicFwS2/include/matrix.h ****         dst[1]  -= tmp[0] * mat[1] + tmp[3] * mat[2] + tmp[4]  * mat[3];
1202:/home/tienluong/workspace/atlantis_fw/AsicFwS2/include/matrix.h ****         dst[5]   = tmp[0] * mat[0] + tmp[7] * mat[2] + tmp[8]  * mat[3];
1203:/home/tienluong/workspace/atlantis_fw/AsicFwS2/include/matrix.h ****         dst[5]  -= tmp[1] * mat[0] + tmp[6] * mat[2] + tmp[9]  * mat[3];
1204:/home/tienluong/workspace/atlantis_fw/AsicFwS2/include/matrix.h ****         dst[9]   = tmp[3] * mat[0] + tmp[6] * mat[1] + tmp[11] * mat[3];
1205:/home/tienluong/workspace/atlantis_fw/AsicFwS2/include/matrix.h ****         dst[9]  -= tmp[2] * mat[0] + tmp[7] * mat[1] + tmp[10] * mat[3];
1206:/home/tienluong/workspace/atlantis_fw/AsicFwS2/include/matrix.h ****         dst[13]  = tmp[4] * mat[0] + tmp[9] * mat[1] + tmp[10] * mat[2];
1207:/home/tienluong/workspace/atlantis_fw/AsicFwS2/include/matrix.h ****         dst[13] -= tmp[5] * mat[0] + tmp[8] * mat[1] + tmp[11] * mat[2];
1208:/home/tienluong/workspace/atlantis_fw/AsicFwS2/include/matrix.h **** 
1209:/home/tienluong/workspace/atlantis_fw/AsicFwS2/include/matrix.h ****         // calculate pairs for second 8 elements (cofactors)
1210:/home/tienluong/workspace/atlantis_fw/AsicFwS2/include/matrix.h ****         tmp[0] = mat[2] * mat[7];
1211:/home/tienluong/workspace/atlantis_fw/AsicFwS2/include/matrix.h ****         tmp[1] = mat[3] * mat[6];
1212:/home/tienluong/workspace/atlantis_fw/AsicFwS2/include/matrix.h ****         tmp[2] = mat[1] * mat[7];
1213:/home/tienluong/workspace/atlantis_fw/AsicFwS2/include/matrix.h ****         tmp[3] = mat[3] * mat[5];
1214:/home/tienluong/workspace/atlantis_fw/AsicFwS2/include/matrix.h ****         tmp[4] = mat[1] * mat[6];
1215:/home/tienluong/workspace/atlantis_fw/AsicFwS2/include/matrix.h ****         tmp[5] = mat[2] * mat[5];
1216:/home/tienluong/workspace/atlantis_fw/AsicFwS2/include/matrix.h ****         tmp[6] = mat[0] * mat[7];
1217:/home/tienluong/workspace/atlantis_fw/AsicFwS2/include/matrix.h ****         tmp[7] = mat[3] * mat[4];
1218:/home/tienluong/workspace/atlantis_fw/AsicFwS2/include/matrix.h ****         tmp[8] = mat[0] * mat[6];
1219:/home/tienluong/workspace/atlantis_fw/AsicFwS2/include/matrix.h ****         tmp[9] = mat[2] * mat[4];
1220:/home/tienluong/workspace/atlantis_fw/AsicFwS2/include/matrix.h ****         tmp[10] = mat[0] * mat[5];
1221:/home/tienluong/workspace/atlantis_fw/AsicFwS2/include/matrix.h ****         tmp[11] = mat[1] * mat[4];
1222:/home/tienluong/workspace/atlantis_fw/AsicFwS2/include/matrix.h **** 
1223:/home/tienluong/workspace/atlantis_fw/AsicFwS2/include/matrix.h ****         // calculate second 8 elements (cofactors)
1224:/home/tienluong/workspace/atlantis_fw/AsicFwS2/include/matrix.h ****         dst[2]   = tmp[0]  * mat[13] + tmp[3]  * mat[14] + tmp[4]  * mat[15];
1225:/home/tienluong/workspace/atlantis_fw/AsicFwS2/include/matrix.h ****         dst[2]  -= tmp[1]  * mat[13] + tmp[2]  * mat[14] + tmp[5]  * mat[15];
1226:/home/tienluong/workspace/atlantis_fw/AsicFwS2/include/matrix.h ****         dst[3]   = tmp[2]  * mat[10] + tmp[5]  * mat[11] + tmp[1]  * mat[9];
1227:/home/tienluong/workspace/atlantis_fw/AsicFwS2/include/matrix.h ****         dst[3]  -= tmp[4]  * mat[11] + tmp[0]  * mat[9]  + tmp[3]  * mat[10];
1228:/home/tienluong/workspace/atlantis_fw/AsicFwS2/include/matrix.h ****         dst[6]   = tmp[1]  * mat[12] + tmp[6]  * mat[14] + tmp[9]  * mat[15];
1229:/home/tienluong/workspace/atlantis_fw/AsicFwS2/include/matrix.h ****         dst[6]  -= tmp[0]  * mat[12] + tmp[7]  * mat[14] + tmp[8]  * mat[15];
1230:/home/tienluong/workspace/atlantis_fw/AsicFwS2/include/matrix.h ****         dst[7]   = tmp[8]  * mat[11] + tmp[0]  * mat[8]  + tmp[7]  * mat[10];
1231:/home/tienluong/workspace/atlantis_fw/AsicFwS2/include/matrix.h ****         dst[7]  -= tmp[6]  * mat[10] + tmp[9]  * mat[11] + tmp[1]  * mat[8];
1232:/home/tienluong/workspace/atlantis_fw/AsicFwS2/include/matrix.h ****         dst[10]  = tmp[2]  * mat[12] + tmp[7]  * mat[13] + tmp[10] * mat[15];
1233:/home/tienluong/workspace/atlantis_fw/AsicFwS2/include/matrix.h ****         dst[10] -= tmp[3]  * mat[12] + tmp[6]  * mat[13] + tmp[11] * mat[15];
1234:/home/tienluong/workspace/atlantis_fw/AsicFwS2/include/matrix.h ****         dst[11]  = tmp[6]  * mat[9]  + tmp[11] * mat[11] + tmp[3]  * mat[8];
1235:/home/tienluong/workspace/atlantis_fw/AsicFwS2/include/matrix.h ****         dst[11] -= tmp[10] * mat[11] + tmp[2]  * mat[8]  + tmp[7]  * mat[9];
1236:/home/tienluong/workspace/atlantis_fw/AsicFwS2/include/matrix.h ****         dst[14]  = tmp[5]  * mat[12] + tmp[8]  * mat[13] + tmp[11] * mat[14];
1237:/home/tienluong/workspace/atlantis_fw/AsicFwS2/include/matrix.h ****         dst[14] -= tmp[4]  * mat[12] + tmp[9]  * mat[13] + tmp[10] * mat[14];
1238:/home/tienluong/workspace/atlantis_fw/AsicFwS2/include/matrix.h ****         dst[15]  = tmp[10] * mat[10] + tmp[4]  * mat[8]  + tmp[9]  * mat[9];
1239:/home/tienluong/workspace/atlantis_fw/AsicFwS2/include/matrix.h ****         dst[15] -= tmp[8]  * mat[9]  + tmp[11] * mat[10] + tmp[5]  * mat[8];
1240:/home/tienluong/workspace/atlantis_fw/AsicFwS2/include/matrix.h **** 
1241:/home/tienluong/workspace/atlantis_fw/AsicFwS2/include/matrix.h ****         // calculate matrix inverse
1242:/home/tienluong/workspace/atlantis_fw/AsicFwS2/include/matrix.h ****         for( int i = 0; i < 16; i++ ) { mat[i] = dst[i] * inv_det; }
1243:/home/tienluong/workspace/atlantis_fw/AsicFwS2/include/matrix.h ****     }
1244:/home/tienluong/workspace/atlantis_fw/AsicFwS2/include/matrix.h **** };
1245:/home/tienluong/workspace/atlantis_fw/AsicFwS2/include/matrix.h **** 
1246:/home/tienluong/workspace/atlantis_fw/AsicFwS2/include/matrix.h **** template<typename T, int N, bool D>
1247:/home/tienluong/workspace/atlantis_fw/AsicFwS2/include/matrix.h **** Matrix<T, N, N, D> inverse( const Matrix<T, N, N, D> & mat )
 360              		.loc 2 1247 0
 361              		.cfi_startproc
 362              		@ args = 0, pretend = 0, frame = 0
 363              		@ frame_needed = 0, uses_anonymous_args = 0
 364              	.LVL33:
 365 0000 10B5     		push	{r4, lr}
 366              	.LCFI6:
 367              		.cfi_def_cfa_offset 8
 368              		.cfi_offset 4, -8
 369              		.cfi_offset 14, -4
 370              		.loc 2 1247 0
 371 0002 0446     		mov	r4, r0
 372              	.LVL34:
 373              	.LBB1216:
 374              	.LBB1217:
 375              	.LBB1218:
 591:/home/tienluong/workspace/atlantis_fw/AsicFwS2/include/matrix.h **** 
 376              		.loc 2 591 0
 377 0004 0FC9     		ldmia	r1, {r0, r1, r2, r3}
 378              	.LVL35:
 379 0006 84E80F00 		stmia	r4, {r0, r1, r2, r3}
 380              	.LVL36:
 381              	.LBE1218:
 382              	.LBE1217:
1248:/home/tienluong/workspace/atlantis_fw/AsicFwS2/include/matrix.h **** {
1249:/home/tienluong/workspace/atlantis_fw/AsicFwS2/include/matrix.h ****     Matrix<T, N, N, D> rval( mat );
1250:/home/tienluong/workspace/atlantis_fw/AsicFwS2/include/matrix.h ****     SquareMatrixInverter<T, N> inverter;
1251:/home/tienluong/workspace/atlantis_fw/AsicFwS2/include/matrix.h ****     inverter.run( rval.data() );
 383              		.loc 2 1251 0
 384 000a 2046     		mov	r0, r4
 385 000c 014B     		ldr	r3, .L25
 386 000e 9847     		blx	r3
 387              	.LVL37:
 388              	.LBE1216:
1252:/home/tienluong/workspace/atlantis_fw/AsicFwS2/include/matrix.h ****     return rval;
1253:/home/tienluong/workspace/atlantis_fw/AsicFwS2/include/matrix.h **** }
 389              		.loc 2 1253 0
 390 0010 2046     		mov	r0, r4
 391 0012 10BD     		pop	{r4, pc}
 392              	.LVL38:
 393              	.L26:
 394              		.align	2
 395              	.L25:
 396 0014 00000000 		.word	_ZNK4ltaf20SquareMatrixInverterIfLi2EE3runEPf.isra.1
 397              		.cfi_endproc
 398              	.LFE3380:
 400              		.section	.text._ZN4ltaf7inverseIfLi2ELb0EEENS_6MatrixIT_XT0_EXT0_EXT1_EEERKS3_,"axG",%progbits,_ZN
 401              		.align	1
 402              		.weak	_ZN4ltaf7inverseIfLi2ELb0EEENS_6MatrixIT_XT0_EXT0_EXT1_EEERKS3_
 403              		.thumb
 404              		.thumb_func
 406              	_ZN4ltaf7inverseIfLi2ELb0EEENS_6MatrixIT_XT0_EXT0_EXT1_EEERKS3_:
 407              	.LFB3383:
1247:/home/tienluong/workspace/atlantis_fw/AsicFwS2/include/matrix.h **** {
 408              		.loc 2 1247 0
 409              		.cfi_startproc
 410              		@ args = 0, pretend = 0, frame = 0
 411              		@ frame_needed = 0, uses_anonymous_args = 0
 412              	.LVL39:
 413 0000 10B5     		push	{r4, lr}
 414              	.LCFI7:
 415              		.cfi_def_cfa_offset 8
 416              		.cfi_offset 4, -8
 417              		.cfi_offset 14, -4
1247:/home/tienluong/workspace/atlantis_fw/AsicFwS2/include/matrix.h **** {
 418              		.loc 2 1247 0
 419 0002 0446     		mov	r4, r0
 420              	.LVL40:
 421              	.LBB1225:
 422              	.LBB1226:
 423              	.LBB1227:
 593:/home/tienluong/workspace/atlantis_fw/AsicFwS2/include/matrix.h **** 
 424              		.loc 2 593 0
 425 0004 0FC9     		ldmia	r1, {r0, r1, r2, r3}
 426              	.LVL41:
 427 0006 84E80F00 		stmia	r4, {r0, r1, r2, r3}
 428              	.LVL42:
 429              	.LBE1227:
 430              	.LBE1226:
1251:/home/tienluong/workspace/atlantis_fw/AsicFwS2/include/matrix.h ****     return rval;
 431              		.loc 2 1251 0
 432 000a 2046     		mov	r0, r4
 433 000c 014B     		ldr	r3, .L28
 434 000e 9847     		blx	r3
 435              	.LVL43:
 436              	.LBE1225:
 437              		.loc 2 1253 0
 438 0010 2046     		mov	r0, r4
 439 0012 10BD     		pop	{r4, pc}
 440              	.LVL44:
 441              	.L29:
 442              		.align	2
 443              	.L28:
 444 0014 00000000 		.word	_ZNK4ltaf20SquareMatrixInverterIfLi2EE3runEPf.isra.1
 445              		.cfi_endproc
 446              	.LFE3383:
 448              		.section	.text._ZN4ltaf11determinantIfLi2ELb1EEET_RKNS_6MatrixIS1_XT0_EXT0_EXT1_EEE,"axG",%progbit
 449              		.align	1
 450              		.weak	_ZN4ltaf11determinantIfLi2ELb1EEET_RKNS_6MatrixIS1_XT0_EXT0_EXT1_EEE
 451              		.thumb
 452              		.thumb_func
 454              	_ZN4ltaf11determinantIfLi2ELb1EEET_RKNS_6MatrixIS1_XT0_EXT0_EXT1_EEE:
 455              	.LFB3392:
1254:/home/tienluong/workspace/atlantis_fw/AsicFwS2/include/matrix.h **** 
1255:/home/tienluong/workspace/atlantis_fw/AsicFwS2/include/matrix.h **** template<typename T, int N, bool D>
1256:/home/tienluong/workspace/atlantis_fw/AsicFwS2/include/matrix.h **** T determinant( const Matrix<T, N, N, D> & mat )
 456              		.loc 2 1256 0
 457              		.cfi_startproc
 458              		@ args = 0, pretend = 0, frame = 0
 459              		@ frame_needed = 0, uses_anonymous_args = 0
 460              	.LVL45:
 461 0000 70B5     		push	{r4, r5, r6, lr}
 462              	.LCFI8:
 463              		.cfi_def_cfa_offset 16
 464              		.cfi_offset 4, -16
 465              		.cfi_offset 5, -12
 466              		.cfi_offset 6, -8
 467              		.cfi_offset 14, -4
 468              		.loc 2 1256 0
 469 0002 0446     		mov	r4, r0
 470              	.LBB1233:
 471              	.LBB1234:
 472              	.LBB1235:
1062:/home/tienluong/workspace/atlantis_fw/AsicFwS2/include/matrix.h ****     }
 473              		.loc 2 1062 0
 474 0004 064D     		ldr	r5, .L31
 475 0006 0068     		ldr	r0, [r0]	@ float
 476              	.LVL46:
 477 0008 E168     		ldr	r1, [r4, #12]	@ float
 478 000a A847     		blx	r5
 479              	.LVL47:
 480 000c A168     		ldr	r1, [r4, #8]	@ float
 481 000e 0646     		mov	r6, r0
 482 0010 6068     		ldr	r0, [r4, #4]	@ float
 483 0012 A847     		blx	r5
 484              	.LVL48:
 485 0014 034B     		ldr	r3, .L31+4
 486 0016 0146     		mov	r1, r0
 487 0018 3046     		mov	r0, r6
 488 001a 9847     		blx	r3
 489              	.LVL49:
 490              	.LBE1235:
 491              	.LBE1234:
 492              	.LBE1233:
1257:/home/tienluong/workspace/atlantis_fw/AsicFwS2/include/matrix.h **** {
1258:/home/tienluong/workspace/atlantis_fw/AsicFwS2/include/matrix.h ****     MatrixDeterminant<T, N> det;
1259:/home/tienluong/workspace/atlantis_fw/AsicFwS2/include/matrix.h ****     return det( mat.data() );
1260:/home/tienluong/workspace/atlantis_fw/AsicFwS2/include/matrix.h **** }
 493              		.loc 2 1260 0
 494 001c 70BD     		pop	{r4, r5, r6, pc}
 495              	.LVL50:
 496              	.L32:
 497 001e 00BF     		.align	2
 498              	.L31:
 499 0020 00000000 		.word	__aeabi_fmul
 500 0024 00000000 		.word	__aeabi_fsub
 501              		.cfi_endproc
 502              	.LFE3392:
 504              		.section	.text._ZN4ltaf11determinantIfLi2ELb0EEET_RKNS_6MatrixIS1_XT0_EXT0_EXT1_EEE,"axG",%progbit
 505              		.align	1
 506              		.weak	_ZN4ltaf11determinantIfLi2ELb0EEET_RKNS_6MatrixIS1_XT0_EXT0_EXT1_EEE
 507              		.thumb
 508              		.thumb_func
 510              	_ZN4ltaf11determinantIfLi2ELb0EEET_RKNS_6MatrixIS1_XT0_EXT0_EXT1_EEE:
 511              	.LFB3395:
1256:/home/tienluong/workspace/atlantis_fw/AsicFwS2/include/matrix.h **** {
 512              		.loc 2 1256 0
 513              		.cfi_startproc
 514              		@ args = 0, pretend = 0, frame = 0
 515              		@ frame_needed = 0, uses_anonymous_args = 0
 516              	.LVL51:
 517 0000 70B5     		push	{r4, r5, r6, lr}
 518              	.LCFI9:
 519              		.cfi_def_cfa_offset 16
 520              		.cfi_offset 4, -16
 521              		.cfi_offset 5, -12
 522              		.cfi_offset 6, -8
 523              		.cfi_offset 14, -4
1256:/home/tienluong/workspace/atlantis_fw/AsicFwS2/include/matrix.h **** {
 524              		.loc 2 1256 0
 525 0002 0446     		mov	r4, r0
 526              	.LBB1241:
 527              	.LBB1242:
 528              	.LBB1243:
1062:/home/tienluong/workspace/atlantis_fw/AsicFwS2/include/matrix.h ****     }
 529              		.loc 2 1062 0
 530 0004 064D     		ldr	r5, .L34
 531 0006 0068     		ldr	r0, [r0]	@ float
 532              	.LVL52:
 533 0008 E168     		ldr	r1, [r4, #12]	@ float
 534 000a A847     		blx	r5
 535              	.LVL53:
 536 000c A168     		ldr	r1, [r4, #8]	@ float
 537 000e 0646     		mov	r6, r0
 538 0010 6068     		ldr	r0, [r4, #4]	@ float
 539 0012 A847     		blx	r5
 540              	.LVL54:
 541 0014 034B     		ldr	r3, .L34+4
 542 0016 0146     		mov	r1, r0
 543 0018 3046     		mov	r0, r6
 544 001a 9847     		blx	r3
 545              	.LVL55:
 546              	.LBE1243:
 547              	.LBE1242:
 548              	.LBE1241:
 549              		.loc 2 1260 0
 550 001c 70BD     		pop	{r4, r5, r6, pc}
 551              	.LVL56:
 552              	.L35:
 553 001e 00BF     		.align	2
 554              	.L34:
 555 0020 00000000 		.word	__aeabi_fmul
 556 0024 00000000 		.word	__aeabi_fsub
 557              		.cfi_endproc
 558              	.LFE3395:
 560              		.global	__aeabi_dmul
 561              		.global	__aeabi_dsub
 562              		.section	.text._ZN4ltaf11determinantIdLi2ELb1EEET_RKNS_6MatrixIS1_XT0_EXT0_EXT1_EEE,"axG",%progbit
 563              		.align	1
 564              		.weak	_ZN4ltaf11determinantIdLi2ELb1EEET_RKNS_6MatrixIS1_XT0_EXT0_EXT1_EEE
 565              		.thumb
 566              		.thumb_func
 568              	_ZN4ltaf11determinantIdLi2ELb1EEET_RKNS_6MatrixIS1_XT0_EXT0_EXT1_EEE:
 569              	.LFB3398:
1256:/home/tienluong/workspace/atlantis_fw/AsicFwS2/include/matrix.h **** {
 570              		.loc 2 1256 0
 571              		.cfi_startproc
 572              		@ args = 0, pretend = 0, frame = 0
 573              		@ frame_needed = 0, uses_anonymous_args = 0
 574              	.LVL57:
 575 0000 F8B5     		push	{r3, r4, r5, r6, r7, lr}
 576              	.LCFI10:
 577              		.cfi_def_cfa_offset 24
 578              		.cfi_offset 3, -24
 579              		.cfi_offset 4, -20
 580              		.cfi_offset 5, -16
 581              		.cfi_offset 6, -12
 582              		.cfi_offset 7, -8
 583              		.cfi_offset 14, -4
1256:/home/tienluong/workspace/atlantis_fw/AsicFwS2/include/matrix.h **** {
 584              		.loc 2 1256 0
 585 0002 0446     		mov	r4, r0
 586              	.LBB1249:
 587              	.LBB1250:
 588              	.LBB1251:
1062:/home/tienluong/workspace/atlantis_fw/AsicFwS2/include/matrix.h ****     }
 589              		.loc 2 1062 0
 590 0004 094D     		ldr	r5, .L37
 591 0006 D0E90001 		ldrd	r0, [r0]
 592              	.LVL58:
 593 000a D4E90623 		ldrd	r2, [r4, #24]
 594 000e A847     		blx	r5
 595              	.LVL59:
 596 0010 D4E90423 		ldrd	r2, [r4, #16]
 597 0014 0646     		mov	r6, r0
 598 0016 0F46     		mov	r7, r1
 599 0018 D4E90201 		ldrd	r0, [r4, #8]
 600 001c A847     		blx	r5
 601              	.LVL60:
 602 001e 044C     		ldr	r4, .L37+4
 603              	.LVL61:
 604 0020 0246     		mov	r2, r0
 605 0022 0B46     		mov	r3, r1
 606 0024 3046     		mov	r0, r6
 607 0026 3946     		mov	r1, r7
 608 0028 A047     		blx	r4
 609              	.LVL62:
 610              	.LBE1251:
 611              	.LBE1250:
 612              	.LBE1249:
 613              		.loc 2 1260 0
 614 002a F8BD     		pop	{r3, r4, r5, r6, r7, pc}
 615              	.L38:
 616              		.align	2
 617              	.L37:
 618 002c 00000000 		.word	__aeabi_dmul
 619 0030 00000000 		.word	__aeabi_dsub
 620              		.cfi_endproc
 621              	.LFE3398:
 623              		.section	.text._ZN4ltaf11determinantIdLi2ELb0EEET_RKNS_6MatrixIS1_XT0_EXT0_EXT1_EEE,"axG",%progbit
 624              		.align	1
 625              		.weak	_ZN4ltaf11determinantIdLi2ELb0EEET_RKNS_6MatrixIS1_XT0_EXT0_EXT1_EEE
 626              		.thumb
 627              		.thumb_func
 629              	_ZN4ltaf11determinantIdLi2ELb0EEET_RKNS_6MatrixIS1_XT0_EXT0_EXT1_EEE:
 630              	.LFB3401:
1256:/home/tienluong/workspace/atlantis_fw/AsicFwS2/include/matrix.h **** {
 631              		.loc 2 1256 0
 632              		.cfi_startproc
 633              		@ args = 0, pretend = 0, frame = 0
 634              		@ frame_needed = 0, uses_anonymous_args = 0
 635              	.LVL63:
 636 0000 F8B5     		push	{r3, r4, r5, r6, r7, lr}
 637              	.LCFI11:
 638              		.cfi_def_cfa_offset 24
 639              		.cfi_offset 3, -24
 640              		.cfi_offset 4, -20
 641              		.cfi_offset 5, -16
 642              		.cfi_offset 6, -12
 643              		.cfi_offset 7, -8
 644              		.cfi_offset 14, -4
1256:/home/tienluong/workspace/atlantis_fw/AsicFwS2/include/matrix.h **** {
 645              		.loc 2 1256 0
 646 0002 0446     		mov	r4, r0
 647              	.LBB1257:
 648              	.LBB1258:
 649              	.LBB1259:
1062:/home/tienluong/workspace/atlantis_fw/AsicFwS2/include/matrix.h ****     }
 650              		.loc 2 1062 0
 651 0004 094D     		ldr	r5, .L40
 652 0006 D0E90001 		ldrd	r0, [r0]
 653              	.LVL64:
 654 000a D4E90623 		ldrd	r2, [r4, #24]
 655 000e A847     		blx	r5
 656              	.LVL65:
 657 0010 D4E90423 		ldrd	r2, [r4, #16]
 658 0014 0646     		mov	r6, r0
 659 0016 0F46     		mov	r7, r1
 660 0018 D4E90201 		ldrd	r0, [r4, #8]
 661 001c A847     		blx	r5
 662              	.LVL66:
 663 001e 044C     		ldr	r4, .L40+4
 664              	.LVL67:
 665 0020 0246     		mov	r2, r0
 666 0022 0B46     		mov	r3, r1
 667 0024 3046     		mov	r0, r6
 668 0026 3946     		mov	r1, r7
 669 0028 A047     		blx	r4
 670              	.LVL68:
 671              	.LBE1259:
 672              	.LBE1258:
 673              	.LBE1257:
 674              		.loc 2 1260 0
 675 002a F8BD     		pop	{r3, r4, r5, r6, r7, pc}
 676              	.L41:
 677              		.align	2
 678              	.L40:
 679 002c 00000000 		.word	__aeabi_dmul
 680 0030 00000000 		.word	__aeabi_dsub
 681              		.cfi_endproc
 682              	.LFE3401:
 684              		.section	.text._ZN4ltaf9CalibDataC2ERKNS_6MatrixIfLi3ELi3ELb1EEES4_RKNS_4Vec3IfEE,"axG",%progbits,
 685              		.align	1
 686              		.weak	_ZN4ltaf9CalibDataC2ERKNS_6MatrixIfLi3ELi3ELb1EEES4_RKNS_4Vec3IfEE
 687              		.thumb
 688              		.thumb_func
 690              	_ZN4ltaf9CalibDataC2ERKNS_6MatrixIfLi3ELi3ELb1EEES4_RKNS_4Vec3IfEE:
 691              	.LFB3263:
  94:/home/tienluong/workspace/atlantis_fw/AsicFwS2/include/calibclasses.h ****     		  const Matrix3x3f & r,
 692              		.loc 1 94 0
 693              		.cfi_startproc
 694              		@ args = 0, pretend = 0, frame = 0
 695              		@ frame_needed = 0, uses_anonymous_args = 0
 696              	.LVL69:
 697 0000 F0B5     		push	{r4, r5, r6, r7, lr}
 698              	.LCFI12:
 699              		.cfi_def_cfa_offset 20
 700              		.cfi_offset 4, -20
 701              		.cfi_offset 5, -16
 702              		.cfi_offset 6, -12
 703              		.cfi_offset 7, -8
 704              		.cfi_offset 14, -4
 705              	.LBB1272:
 706              	.LBB1273:
 707              	.LBB1274:
 708              	.LBB1275:
 591:/home/tienluong/workspace/atlantis_fw/AsicFwS2/include/matrix.h **** 
 709              		.loc 2 591 0
 710 0002 0E46     		mov	r6, r1
 711              	.LBE1275:
 712              	.LBE1274:
 713              	.LBE1273:
 714              	.LBE1272:
  94:/home/tienluong/workspace/atlantis_fw/AsicFwS2/include/calibclasses.h ****     		  const Matrix3x3f & r,
 715              		.loc 1 94 0
 716 0004 0746     		mov	r7, r0
 717 0006 9E46     		mov	lr, r3
 718 0008 1446     		mov	r4, r2
 719              	.LBB1287:
 720              	.LBB1278:
 721              	.LBB1277:
 722              	.LBB1276:
 591:/home/tienluong/workspace/atlantis_fw/AsicFwS2/include/matrix.h **** 
 723              		.loc 2 591 0
 724 000a 051D     		adds	r5, r0, #4
 725              	.LVL70:
 726 000c 0FCE     		ldmia	r6!, {r0, r1, r2, r3}
 727              	.LVL71:
 728 000e 0FC5     		stmia	r5!, {r0, r1, r2, r3}
 729              	.LVL72:
 730 0010 0FCE     		ldmia	r6!, {r0, r1, r2, r3}
 731              	.LVL73:
 732 0012 0FC5     		stmia	r5!, {r0, r1, r2, r3}
 733              	.LVL74:
 734 0014 3368     		ldr	r3, [r6]
 735 0016 2B60     		str	r3, [r5]
 736              	.LBE1276:
 737              	.LBE1277:
 738              	.LBE1278:
 739              	.LBB1279:
 740              	.LBB1280:
 741 0018 07F13405 		add	r5, r7, #52
 742              	.LVL75:
 743              	.LBE1280:
 744              	.LBE1279:
  99:/home/tienluong/workspace/atlantis_fw/AsicFwS2/include/calibclasses.h **** 
 745              		.loc 1 99 0
 746 001c 094B     		ldr	r3, .L43
 747 001e 3B60     		str	r3, [r7]
 748              	.LVL76:
 749              	.LBB1283:
 750              	.LBB1284:
 230:/home/tienluong/workspace/atlantis_fw/AsicFwS2/include/matrix.h **** 
 751              		.loc 2 230 0
 752 0020 DEF80030 		ldr	r3, [lr]	@ float
 753 0024 BB62     		str	r3, [r7, #40]	@ float
 754 0026 DEF80430 		ldr	r3, [lr, #4]	@ float
 755 002a FB62     		str	r3, [r7, #44]	@ float
 756 002c DEF80830 		ldr	r3, [lr, #8]	@ float
 757 0030 3B63     		str	r3, [r7, #48]	@ float
 758              	.LVL77:
 759              	.LBE1284:
 760              	.LBE1283:
 761              	.LBB1285:
 762              	.LBB1281:
 591:/home/tienluong/workspace/atlantis_fw/AsicFwS2/include/matrix.h **** 
 763              		.loc 2 591 0
 764 0032 0FCC     		ldmia	r4!, {r0, r1, r2, r3}
 765              	.LVL78:
 766 0034 0FC5     		stmia	r5!, {r0, r1, r2, r3}
 767              	.LVL79:
 768 0036 0FCC     		ldmia	r4!, {r0, r1, r2, r3}
 769              	.LVL80:
 770 0038 0FC5     		stmia	r5!, {r0, r1, r2, r3}
 771              	.LVL81:
 772 003a 2368     		ldr	r3, [r4]
 773              	.LBE1281:
 774              	.LBE1285:
 775              	.LBE1287:
  99:/home/tienluong/workspace/atlantis_fw/AsicFwS2/include/calibclasses.h **** 
 776              		.loc 1 99 0
 777 003c 3846     		mov	r0, r7
 778              	.LBB1288:
 779              	.LBB1286:
 780              	.LBB1282:
 591:/home/tienluong/workspace/atlantis_fw/AsicFwS2/include/matrix.h **** 
 781              		.loc 2 591 0
 782 003e 2B60     		str	r3, [r5]
 783              	.LBE1282:
 784              	.LBE1286:
 785              	.LBE1288:
  99:/home/tienluong/workspace/atlantis_fw/AsicFwS2/include/calibclasses.h **** 
 786              		.loc 1 99 0
 787 0040 F0BD     		pop	{r4, r5, r6, r7, pc}
 788              	.LVL82:
 789              	.L44:
 790 0042 00BF     		.align	2
 791              	.L43:
 792 0044 08000000 		.word	_ZTVN4ltaf9CalibDataE+8
 793              		.cfi_endproc
 794              	.LFE3263:
 796              		.weak	_ZN4ltaf9CalibDataC1ERKNS_6MatrixIfLi3ELi3ELb1EEES4_RKNS_4Vec3IfEE
 797              		.thumb_set _ZN4ltaf9CalibDataC1ERKNS_6MatrixIfLi3ELi3ELb1EEES4_RKNS_4Vec3IfEE,_ZN4ltaf9CalibDataC2
 798              		.section	.text._ZN4ltaf16CalibDataWMirrorC2ERKNS_6MatrixIfLi3ELi3ELb1EEERKNS_14MirrorSysParamERKNS
 799              		.align	1
 800              		.weak	_ZN4ltaf16CalibDataWMirrorC2ERKNS_6MatrixIfLi3ELi3ELb1EEERKNS_14MirrorSysParamERKNS_21Mirror
 801              		.thumb
 802              		.thumb_func
 804              	_ZN4ltaf16CalibDataWMirrorC2ERKNS_6MatrixIfLi3ELi3ELb1EEERKNS_14MirrorSysParamERKNS_21MirrorActuato
 805              	.LFB3277:
 125:/home/tienluong/workspace/atlantis_fw/AsicFwS2/include/calibclasses.h **** {
 126:/home/tienluong/workspace/atlantis_fw/AsicFwS2/include/calibclasses.h **** public:
 127:/home/tienluong/workspace/atlantis_fw/AsicFwS2/include/calibclasses.h ****     // default constructor
 128:/home/tienluong/workspace/atlantis_fw/AsicFwS2/include/calibclasses.h ****     CalibDataWMirror(){}
 129:/home/tienluong/workspace/atlantis_fw/AsicFwS2/include/calibclasses.h **** 
 130:/home/tienluong/workspace/atlantis_fw/AsicFwS2/include/calibclasses.h ****     CalibDataWMirror(const Matrix3x3f & k,
 806              		.loc 1 130 0
 807              		.cfi_startproc
 808              		@ args = 0, pretend = 0, frame = 0
 809              		@ frame_needed = 0, uses_anonymous_args = 0
 810              	.LVL83:
 811 0000 F0B5     		push	{r4, r5, r6, r7, lr}
 812              	.LCFI13:
 813              		.cfi_def_cfa_offset 20
 814              		.cfi_offset 4, -20
 815              		.cfi_offset 5, -16
 816              		.cfi_offset 6, -12
 817              		.cfi_offset 7, -8
 818              		.cfi_offset 14, -4
 819              	.LBB1312:
 820              	.LBB1313:
 821              	.LBB1314:
 822              	.LBB1315:
 591:/home/tienluong/workspace/atlantis_fw/AsicFwS2/include/matrix.h **** 
 823              		.loc 2 591 0
 824 0002 0F46     		mov	r7, r1
 825              	.LBE1315:
 826              	.LBE1314:
 827              	.LBE1313:
 828              	.LBE1312:
 829              		.loc 1 130 0
 830 0004 0446     		mov	r4, r0
 831 0006 1546     		mov	r5, r2
 832 0008 9E46     		mov	lr, r3
 833              	.LBB1346:
 834              	.LBB1320:
 835              	.LBB1318:
 836              	.LBB1316:
 591:/home/tienluong/workspace/atlantis_fw/AsicFwS2/include/matrix.h **** 
 837              		.loc 2 591 0
 838 000a 061D     		adds	r6, r0, #4
 839              	.LVL84:
 840 000c 0FCF     		ldmia	r7!, {r0, r1, r2, r3}
 841              	.LVL85:
 842 000e 0FC6     		stmia	r6!, {r0, r1, r2, r3}
 843              	.LVL86:
 844 0010 0FCF     		ldmia	r7!, {r0, r1, r2, r3}
 845              	.LVL87:
 846 0012 0FC6     		stmia	r6!, {r0, r1, r2, r3}
 847              	.LVL88:
 848 0014 3B68     		ldr	r3, [r7]
 849              	.LBE1316:
 850              	.LBE1318:
 851              	.LBE1320:
 852              	.LBB1321:
 853              	.LBB1322:
 854              	.LBB1323:
 855              	.LBB1324:
 856 0016 2F46     		mov	r7, r5
 857              	.LVL89:
 858              	.LBE1324:
 859              	.LBE1323:
 860              	.LBE1322:
 861              	.LBE1321:
 862              	.LBB1342:
 863              	.LBB1319:
 864              	.LBB1317:
 865 0018 3360     		str	r3, [r6]
 866              	.LBE1317:
 867              	.LBE1319:
 868              	.LBE1342:
 131:/home/tienluong/workspace/atlantis_fw/AsicFwS2/include/calibclasses.h ****                      const MirrorSysParam & msp,
 132:/home/tienluong/workspace/atlantis_fw/AsicFwS2/include/calibclasses.h ****                      const MirrorActuatorMapping & map):
 133:/home/tienluong/workspace/atlantis_fw/AsicFwS2/include/calibclasses.h ****         CalibDataBase(k),
 134:/home/tienluong/workspace/atlantis_fw/AsicFwS2/include/calibclasses.h ****         _mirror_sys_param(msp),
 135:/home/tienluong/workspace/atlantis_fw/AsicFwS2/include/calibclasses.h ****         _mirror_act_mapping(map)
 869              		.loc 1 135 0
 870 001a 2646     		mov	r6, r4
 871              	.LVL90:
 872 001c 1B4B     		ldr	r3, .L46
 873 001e 46F8283B 		str	r3, [r6], #40
 874              	.LVL91:
 875              	.LBB1343:
 876              	.LBB1339:
 877              	.LBB1326:
 878              	.LBB1325:
 591:/home/tienluong/workspace/atlantis_fw/AsicFwS2/include/matrix.h **** 
 879              		.loc 2 591 0
 880 0022 0FCF     		ldmia	r7!, {r0, r1, r2, r3}
 881 0024 0FC6     		stmia	r6!, {r0, r1, r2, r3}
 882              	.LVL92:
 883 0026 0FCF     		ldmia	r7!, {r0, r1, r2, r3}
 884 0028 0FC6     		stmia	r6!, {r0, r1, r2, r3}
 885              	.LVL93:
 886 002a 3B68     		ldr	r3, [r7]
 887 002c 3360     		str	r3, [r6]
 888              	.LVL94:
 889              	.LBE1325:
 890              	.LBE1326:
 891              	.LBE1339:
 892              	.LBE1343:
 893              		.loc 1 135 0
 894 002e 04F18C06 		add	r6, r4, #140
 895              	.LVL95:
 896              	.LBB1344:
 897              	.LBB1340:
 898              	.LBB1327:
 899              	.LBB1328:
 230:/home/tienluong/workspace/atlantis_fw/AsicFwS2/include/matrix.h **** 
 900              		.loc 2 230 0
 901 0032 6B6A     		ldr	r3, [r5, #36]	@ float
 902 0034 E364     		str	r3, [r4, #76]	@ float
 903 0036 AB6A     		ldr	r3, [r5, #40]	@ float
 904 0038 2365     		str	r3, [r4, #80]	@ float
 905 003a EB6A     		ldr	r3, [r5, #44]	@ float
 906 003c 6365     		str	r3, [r4, #84]	@ float
 907              	.LVL96:
 908              	.LBE1328:
 909              	.LBE1327:
 910              	.LBB1329:
 911              	.LBB1330:
 912 003e 2B6B     		ldr	r3, [r5, #48]	@ float
 913 0040 A365     		str	r3, [r4, #88]	@ float
 914 0042 6B6B     		ldr	r3, [r5, #52]	@ float
 915 0044 E365     		str	r3, [r4, #92]	@ float
 916 0046 AB6B     		ldr	r3, [r5, #56]	@ float
 917 0048 2366     		str	r3, [r4, #96]	@ float
 918              	.LVL97:
 919              	.LBE1330:
 920              	.LBE1329:
 921              	.LBB1331:
 922              	.LBB1332:
 923 004a EB6B     		ldr	r3, [r5, #60]	@ float
 924 004c 6366     		str	r3, [r4, #100]	@ float
 925 004e 2B6C     		ldr	r3, [r5, #64]	@ float
 926 0050 A366     		str	r3, [r4, #104]	@ float
 927 0052 6B6C     		ldr	r3, [r5, #68]	@ float
 928 0054 E366     		str	r3, [r4, #108]	@ float
 929              	.LVL98:
 930              	.LBE1332:
 931              	.LBE1331:
 932              	.LBB1333:
 933              	.LBB1334:
 934 0056 AB6C     		ldr	r3, [r5, #72]	@ float
 935 0058 2367     		str	r3, [r4, #112]	@ float
 936 005a EB6C     		ldr	r3, [r5, #76]	@ float
 937 005c 6367     		str	r3, [r4, #116]	@ float
 938 005e 2B6D     		ldr	r3, [r5, #80]	@ float
 939 0060 A367     		str	r3, [r4, #120]	@ float
 940              	.LBE1334:
 941              	.LBE1333:
 942              		.file 3 "/home/tienluong/workspace/atlantis_fw/AsicFwS2/include/mirrorsystems.h"
   1:/home/tienluong/workspace/atlantis_fw/AsicFwS2/include/mirrorsystems.h **** #ifndef __MIRRORSYSTEMS_H__
   2:/home/tienluong/workspace/atlantis_fw/AsicFwS2/include/mirrorsystems.h **** #define __MIRRORSYSTEMS_H__
   3:/home/tienluong/workspace/atlantis_fw/AsicFwS2/include/mirrorsystems.h **** 
   4:/home/tienluong/workspace/atlantis_fw/AsicFwS2/include/mirrorsystems.h **** #ifdef __cplusplus
   5:/home/tienluong/workspace/atlantis_fw/AsicFwS2/include/mirrorsystems.h **** 
   6:/home/tienluong/workspace/atlantis_fw/AsicFwS2/include/mirrorsystems.h **** // #include "mirroractuatormapping.h"
   7:/home/tienluong/workspace/atlantis_fw/AsicFwS2/include/mirrorsystems.h **** // #include "logdefines.h"
   8:/home/tienluong/workspace/atlantis_fw/AsicFwS2/include/mirrorsystems.h **** // #include "utilities/domfile.h"
   9:/home/tienluong/workspace/atlantis_fw/AsicFwS2/include/mirrorsystems.h **** // #include "rotation3d.h"
  10:/home/tienluong/workspace/atlantis_fw/AsicFwS2/include/mirrorsystems.h **** 
  11:/home/tienluong/workspace/atlantis_fw/AsicFwS2/include/mirrorsystems.h **** #include "matrix.h"
  12:/home/tienluong/workspace/atlantis_fw/AsicFwS2/include/mirrorsystems.h **** 
  13:/home/tienluong/workspace/atlantis_fw/AsicFwS2/include/mirrorsystems.h **** # define M_PI       3.14159265358979323846  /* pi */
  14:/home/tienluong/workspace/atlantis_fw/AsicFwS2/include/mirrorsystems.h **** 
  15:/home/tienluong/workspace/atlantis_fw/AsicFwS2/include/mirrorsystems.h **** namespace ltaf {
  16:/home/tienluong/workspace/atlantis_fw/AsicFwS2/include/mirrorsystems.h **** 
  17:/home/tienluong/workspace/atlantis_fw/AsicFwS2/include/mirrorsystems.h **** /// Normalize axis
  18:/home/tienluong/workspace/atlantis_fw/AsicFwS2/include/mirrorsystems.h **** template <typename T>
  19:/home/tienluong/workspace/atlantis_fw/AsicFwS2/include/mirrorsystems.h **** void normalizeAxis( T iter )
  20:/home/tienluong/workspace/atlantis_fw/AsicFwS2/include/mirrorsystems.h **** {
  21:/home/tienluong/workspace/atlantis_fw/AsicFwS2/include/mirrorsystems.h ****     double norm2 = 0.0f;
  22:/home/tienluong/workspace/atlantis_fw/AsicFwS2/include/mirrorsystems.h ****     norm2 += iter[0] * iter[0]; norm2 += iter[1] * iter[1]; norm2 += iter[2] * iter[2];
  23:/home/tienluong/workspace/atlantis_fw/AsicFwS2/include/mirrorsystems.h ****     double inv_norm2 = 1.0 / std::sqrt( norm2 );
  24:/home/tienluong/workspace/atlantis_fw/AsicFwS2/include/mirrorsystems.h ****     iter[0] *= inv_norm2; iter[1] *= inv_norm2; iter[2] *= inv_norm2;
  25:/home/tienluong/workspace/atlantis_fw/AsicFwS2/include/mirrorsystems.h **** }
  26:/home/tienluong/workspace/atlantis_fw/AsicFwS2/include/mirrorsystems.h **** 
  27:/home/tienluong/workspace/atlantis_fw/AsicFwS2/include/mirrorsystems.h **** 
  28:/home/tienluong/workspace/atlantis_fw/AsicFwS2/include/mirrorsystems.h **** /// Data structure that stores the fixed parameters of a mirror system.
  29:/home/tienluong/workspace/atlantis_fw/AsicFwS2/include/mirrorsystems.h **** /// Considers mirror and camera as a fixed pair system.
  30:/home/tienluong/workspace/atlantis_fw/AsicFwS2/include/mirrorsystems.h **** /// Includes parameters for both.
  31:/home/tienluong/workspace/atlantis_fw/AsicFwS2/include/mirrorsystems.h **** struct MirrorSysParam
 943              		.loc 3 31 0
 944 0062 6B6D     		ldr	r3, [r5, #84]	@ float
 945 0064 E367     		str	r3, [r4, #124]	@ float
 946 0066 95F85830 		ldrb	r3, [r5, #88]	@ zero_extendqisi2
 947 006a 84F88030 		strb	r3, [r4, #128]
 948              	.LVL99:
 949              	.LBB1335:
 950              	.LBB1336:
  26:/home/tienluong/workspace/atlantis_fw/AsicFwS2/include/matrix.h **** 
 951              		.loc 2 26 0
 952 006e EB6D     		ldr	r3, [r5, #92]	@ float
 953 0070 C4F88430 		str	r3, [r4, #132]	@ float
 954 0074 2B6E     		ldr	r3, [r5, #96]	@ float
 955              	.LBE1336:
 956              	.LBE1335:
 957              	.LBE1340:
 958              	.LBE1344:
 959              		.loc 1 135 0
 960 0076 7546     		mov	r5, lr
 961              	.LVL100:
 962              	.LBB1345:
 963              	.LBB1341:
 964              	.LBB1338:
 965              	.LBB1337:
  26:/home/tienluong/workspace/atlantis_fw/AsicFwS2/include/matrix.h **** 
 966              		.loc 2 26 0
 967 0078 C4F88830 		str	r3, [r4, #136]	@ float
 968              	.LBE1337:
 969              	.LBE1338:
 970              	.LBE1341:
 971              	.LBE1345:
 972              		.loc 1 135 0
 973 007c 0FCD     		ldmia	r5!, {r0, r1, r2, r3}
 974 007e 0FC6     		stmia	r6!, {r0, r1, r2, r3}
 975 0080 95E80F00 		ldmia	r5, {r0, r1, r2, r3}
 976 0084 86E80F00 		stmia	r6, {r0, r1, r2, r3}
 977              	.LBE1346:
 136:/home/tienluong/workspace/atlantis_fw/AsicFwS2/include/calibclasses.h ****     {}
 978              		.loc 1 136 0
 979 0088 2046     		mov	r0, r4
 980 008a F0BD     		pop	{r4, r5, r6, r7, pc}
 981              	.LVL101:
 982              	.L47:
 983              		.align	2
 984              	.L46:
 985 008c 08000000 		.word	_ZTVN4ltaf16CalibDataWMirrorE+8
 986              		.cfi_endproc
 987              	.LFE3277:
 989              		.weak	_ZN4ltaf16CalibDataWMirrorC1ERKNS_6MatrixIfLi3ELi3ELb1EEERKNS_14MirrorSysParamERKNS_21Mirror
 990              		.thumb_set _ZN4ltaf16CalibDataWMirrorC1ERKNS_6MatrixIfLi3ELi3ELb1EEERKNS_14MirrorSysParamERKNS_21M
 991              		.section	.text._ZN4ltaf9CalibData19setCameraParametersERKNS_6MatrixIfLi3ELi3ELb1EEES4_RKNS_4Vec3If
 992              		.align	1
 993              		.global	_ZN4ltaf9CalibData19setCameraParametersERKNS_6MatrixIfLi3ELi3ELb1EEES4_RKNS_4Vec3IfEE
 994              		.thumb
 995              		.thumb_func
 997              	_ZN4ltaf9CalibData19setCameraParametersERKNS_6MatrixIfLi3ELi3ELb1EEES4_RKNS_4Vec3IfEE:
 998              	.LFB3320:
 999              		.file 4 "/home/tienluong/workspace/atlantis_fw/AsicFwS2/src/calibclasses.cpp"
   1:/home/tienluong/workspace/atlantis_fw/AsicFwS2/src/calibclasses.cpp **** #include "log.h"
   2:/home/tienluong/workspace/atlantis_fw/AsicFwS2/src/calibclasses.cpp **** #include "calibclasses.h"
   3:/home/tienluong/workspace/atlantis_fw/AsicFwS2/src/calibclasses.cpp **** #include "operator_new.h"
   4:/home/tienluong/workspace/atlantis_fw/AsicFwS2/src/calibclasses.cpp **** 
   5:/home/tienluong/workspace/atlantis_fw/AsicFwS2/src/calibclasses.cpp **** 
   6:/home/tienluong/workspace/atlantis_fw/AsicFwS2/src/calibclasses.cpp **** #define SLOGF_ID                SLOG_ID_AF
   7:/home/tienluong/workspace/atlantis_fw/AsicFwS2/src/calibclasses.cpp **** 
   8:/home/tienluong/workspace/atlantis_fw/AsicFwS2/src/calibclasses.cpp **** 
   9:/home/tienluong/workspace/atlantis_fw/AsicFwS2/src/calibclasses.cpp **** namespace ltaf {
  10:/home/tienluong/workspace/atlantis_fw/AsicFwS2/src/calibclasses.cpp **** 
  11:/home/tienluong/workspace/atlantis_fw/AsicFwS2/src/calibclasses.cpp **** void CalibData::setCameraParameters( const Matrix3x3f & K,
  12:/home/tienluong/workspace/atlantis_fw/AsicFwS2/src/calibclasses.cpp ****                                      const Matrix3x3f & R,
  13:/home/tienluong/workspace/atlantis_fw/AsicFwS2/src/calibclasses.cpp ****                                      const Vec3f & translation )
  14:/home/tienluong/workspace/atlantis_fw/AsicFwS2/src/calibclasses.cpp **** {
 1000              		.loc 4 14 0
 1001              		.cfi_startproc
 1002              		@ args = 0, pretend = 0, frame = 0
 1003              		@ frame_needed = 0, uses_anonymous_args = 0
 1004              	.LVL102:
 1005 0000 F0B5     		push	{r4, r5, r6, r7, lr}
 1006              	.LCFI14:
 1007              		.cfi_def_cfa_offset 20
 1008              		.cfi_offset 4, -20
 1009              		.cfi_offset 5, -16
 1010              		.cfi_offset 6, -12
 1011              		.cfi_offset 7, -8
 1012              		.cfi_offset 14, -4
  15:/home/tienluong/workspace/atlantis_fw/AsicFwS2/src/calibclasses.cpp ****     _K = K;
 1013              		.loc 4 15 0
 1014 0002 0E46     		mov	r6, r1
  14:/home/tienluong/workspace/atlantis_fw/AsicFwS2/src/calibclasses.cpp ****     _K = K;
 1015              		.loc 4 14 0
 1016 0004 0746     		mov	r7, r0
 1017 0006 9E46     		mov	lr, r3
 1018 0008 1446     		mov	r4, r2
 1019              		.loc 4 15 0
 1020 000a 051D     		adds	r5, r0, #4
 1021 000c 0FCE     		ldmia	r6!, {r0, r1, r2, r3}
 1022              	.LVL103:
 1023 000e 0FC5     		stmia	r5!, {r0, r1, r2, r3}
 1024 0010 0FCE     		ldmia	r6!, {r0, r1, r2, r3}
 1025              	.LVL104:
 1026 0012 0FC5     		stmia	r5!, {r0, r1, r2, r3}
 1027 0014 3368     		ldr	r3, [r6]
 1028 0016 2B60     		str	r3, [r5]
  16:/home/tienluong/workspace/atlantis_fw/AsicFwS2/src/calibclasses.cpp ****     _R = R;
 1029              		.loc 4 16 0
 1030 0018 07F13405 		add	r5, r7, #52
 1031 001c 0FCC     		ldmia	r4!, {r0, r1, r2, r3}
 1032              	.LVL105:
 1033 001e 0FC5     		stmia	r5!, {r0, r1, r2, r3}
 1034 0020 0FCC     		ldmia	r4!, {r0, r1, r2, r3}
 1035              	.LVL106:
 1036 0022 0FC5     		stmia	r5!, {r0, r1, r2, r3}
 1037 0024 2368     		ldr	r3, [r4]
 1038 0026 2B60     		str	r3, [r5]
 1039              	.LVL107:
 1040              	.LBB1347:
 1041              	.LBB1348:
 239:/home/tienluong/workspace/atlantis_fw/AsicFwS2/include/matrix.h **** 
 1042              		.loc 2 239 0
 1043 0028 DEF80030 		ldr	r3, [lr]	@ float
 1044 002c BB62     		str	r3, [r7, #40]	@ float
 1045 002e DEF80430 		ldr	r3, [lr, #4]	@ float
 1046 0032 FB62     		str	r3, [r7, #44]	@ float
 1047 0034 DEF80830 		ldr	r3, [lr, #8]	@ float
 1048 0038 3B63     		str	r3, [r7, #48]	@ float
 1049 003a F0BD     		pop	{r4, r5, r6, r7, pc}
 1050              	.LBE1348:
 1051              	.LBE1347:
 1052              		.cfi_endproc
 1053              	.LFE3320:
 1055              		.global	__aeabi_fcmpeq
 1056              		.global	__aeabi_fcmpgt
 1057              		.section	.text._ZN4ltaf9CalibData5scaleEf,"ax",%progbits
 1058              		.align	1
 1059              		.global	_ZN4ltaf9CalibData5scaleEf
 1060              		.thumb
 1061              		.thumb_func
 1063              	_ZN4ltaf9CalibData5scaleEf:
 1064              	.LFB3321:
  17:/home/tienluong/workspace/atlantis_fw/AsicFwS2/src/calibclasses.cpp ****     _T = translation;
  18:/home/tienluong/workspace/atlantis_fw/AsicFwS2/src/calibclasses.cpp **** }
  19:/home/tienluong/workspace/atlantis_fw/AsicFwS2/src/calibclasses.cpp **** 
  20:/home/tienluong/workspace/atlantis_fw/AsicFwS2/src/calibclasses.cpp **** void CalibData::scale( float s )
  21:/home/tienluong/workspace/atlantis_fw/AsicFwS2/src/calibclasses.cpp **** {
 1065              		.loc 4 21 0
 1066              		.cfi_startproc
 1067              		@ args = 0, pretend = 0, frame = 0
 1068              		@ frame_needed = 0, uses_anonymous_args = 0
 1069              	.LVL108:
 1070 0000 70B5     		push	{r4, r5, r6, lr}
 1071              	.LCFI15:
 1072              		.cfi_def_cfa_offset 16
 1073              		.cfi_offset 4, -16
 1074              		.cfi_offset 5, -12
 1075              		.cfi_offset 6, -8
 1076              		.cfi_offset 14, -4
 1077              	.LBB1349:
  22:/home/tienluong/workspace/atlantis_fw/AsicFwS2/src/calibclasses.cpp ****     if( s == 1.0f ) { return; }
 1078              		.loc 4 22 0
 1079 0002 114B     		ldr	r3, .L52
 1080              	.LBE1349:
  21:/home/tienluong/workspace/atlantis_fw/AsicFwS2/src/calibclasses.cpp ****     if( s == 1.0f ) { return; }
 1081              		.loc 4 21 0
 1082 0004 0446     		mov	r4, r0
 1083 0006 0D46     		mov	r5, r1
 1084              	.LBB1350:
 1085              		.loc 4 22 0
 1086 0008 0846     		mov	r0, r1
 1087              	.LVL109:
 1088 000a 4FF07E51 		mov	r1, #1065353216
 1089              	.LVL110:
 1090 000e 9847     		blx	r3
 1091              	.LVL111:
 1092 0010 C8B9     		cbnz	r0, .L49
  23:/home/tienluong/workspace/atlantis_fw/AsicFwS2/src/calibclasses.cpp **** 
  24:/home/tienluong/workspace/atlantis_fw/AsicFwS2/src/calibclasses.cpp ****     assert( s > 0 ); //, "Scale has to be a positive value." );
 1093              		.loc 4 24 0
 1094 0012 2846     		mov	r0, r5
 1095 0014 0021     		movs	r1, #0
 1096 0016 0D4B     		ldr	r3, .L52+4
 1097 0018 9847     		blx	r3
 1098              	.LVL112:
 1099 001a 18B9     		cbnz	r0, .L51
 1100              		.loc 4 24 0 is_stmt 0 discriminator 1
 1101 001c 0C48     		ldr	r0, .L52+8
 1102 001e 1821     		movs	r1, #24
 1103 0020 0C4B     		ldr	r3, .L52+12
 1104 0022 9847     		blx	r3
 1105              	.LVL113:
 1106              	.L51:
  25:/home/tienluong/workspace/atlantis_fw/AsicFwS2/src/calibclasses.cpp **** 
  26:/home/tienluong/workspace/atlantis_fw/AsicFwS2/src/calibclasses.cpp ****     _K( 0, 0 ) *= s;
 1107              		.loc 4 26 0 is_stmt 1
 1108 0024 0C4E     		ldr	r6, .L52+16
 1109 0026 2946     		mov	r1, r5
 1110 0028 6068     		ldr	r0, [r4, #4]	@ float
 1111 002a B047     		blx	r6
 1112              	.LVL114:
  27:/home/tienluong/workspace/atlantis_fw/AsicFwS2/src/calibclasses.cpp ****     _K( 1, 1 ) *= s;
 1113              		.loc 4 27 0
 1114 002c 2946     		mov	r1, r5
  26:/home/tienluong/workspace/atlantis_fw/AsicFwS2/src/calibclasses.cpp ****     _K( 1, 1 ) *= s;
 1115              		.loc 4 26 0
 1116 002e 6060     		str	r0, [r4, #4]	@ float
 1117              	.LVL115:
 1118              		.loc 4 27 0
 1119 0030 6069     		ldr	r0, [r4, #20]	@ float
 1120 0032 B047     		blx	r6
 1121              	.LVL116:
  28:/home/tienluong/workspace/atlantis_fw/AsicFwS2/src/calibclasses.cpp ****     _K( 1, 2 ) *= s;
 1122              		.loc 4 28 0
 1123 0034 2946     		mov	r1, r5
  27:/home/tienluong/workspace/atlantis_fw/AsicFwS2/src/calibclasses.cpp ****     _K( 1, 1 ) *= s;
 1124              		.loc 4 27 0
 1125 0036 6061     		str	r0, [r4, #20]	@ float
 1126              	.LVL117:
 1127              		.loc 4 28 0
 1128 0038 A069     		ldr	r0, [r4, #24]	@ float
 1129 003a B047     		blx	r6
 1130              	.LVL118:
  29:/home/tienluong/workspace/atlantis_fw/AsicFwS2/src/calibclasses.cpp ****     _K( 0, 2 ) *= s;
 1131              		.loc 4 29 0
 1132 003c 2946     		mov	r1, r5
  28:/home/tienluong/workspace/atlantis_fw/AsicFwS2/src/calibclasses.cpp ****     _K( 1, 2 ) *= s;
 1133              		.loc 4 28 0
 1134 003e A061     		str	r0, [r4, #24]	@ float
 1135              	.LVL119:
 1136              		.loc 4 29 0
 1137 0040 E068     		ldr	r0, [r4, #12]	@ float
 1138 0042 B047     		blx	r6
 1139              	.LVL120:
 1140 0044 E060     		str	r0, [r4, #12]	@ float
 1141              	.LVL121:
 1142              	.L49:
 1143 0046 70BD     		pop	{r4, r5, r6, pc}
 1144              	.LVL122:
 1145              	.L53:
 1146              		.align	2
 1147              	.L52:
 1148 0048 00000000 		.word	__aeabi_fcmpeq
 1149 004c 00000000 		.word	__aeabi_fcmpgt
 1150 0050 00000000 		.word	.LANCHOR0
 1151 0054 00000000 		.word	assert_failed
 1152 0058 00000000 		.word	__aeabi_fmul
 1153              	.LBE1350:
 1154              		.cfi_endproc
 1155              	.LFE3321:
 1157              		.global	__aeabi_i2f
 1158              		.section	.text._ZN4ltaf9CalibData5shiftEii,"ax",%progbits
 1159              		.align	1
 1160              		.global	_ZN4ltaf9CalibData5shiftEii
 1161              		.thumb
 1162              		.thumb_func
 1164              	_ZN4ltaf9CalibData5shiftEii:
 1165              	.LFB3322:
  30:/home/tienluong/workspace/atlantis_fw/AsicFwS2/src/calibclasses.cpp **** }
  31:/home/tienluong/workspace/atlantis_fw/AsicFwS2/src/calibclasses.cpp **** 
  32:/home/tienluong/workspace/atlantis_fw/AsicFwS2/src/calibclasses.cpp **** void CalibData::shift( int delta_x, int delta_y )
  33:/home/tienluong/workspace/atlantis_fw/AsicFwS2/src/calibclasses.cpp **** {
 1166              		.loc 4 33 0
 1167              		.cfi_startproc
 1168              		@ args = 0, pretend = 0, frame = 0
 1169              		@ frame_needed = 0, uses_anonymous_args = 0
 1170              	.LVL123:
 1171 0000 F8B5     		push	{r3, r4, r5, r6, r7, lr}
 1172              	.LCFI16:
 1173              		.cfi_def_cfa_offset 24
 1174              		.cfi_offset 3, -24
 1175              		.cfi_offset 4, -20
 1176              		.cfi_offset 5, -16
 1177              		.cfi_offset 6, -12
 1178              		.cfi_offset 7, -8
 1179              		.cfi_offset 14, -4
 1180              		.loc 4 33 0
 1181 0002 0446     		mov	r4, r0
 1182              	.LVL124:
  34:/home/tienluong/workspace/atlantis_fw/AsicFwS2/src/calibclasses.cpp ****     _K( 0, 2 ) -= delta_x;
 1183              		.loc 4 34 0
 1184 0004 0846     		mov	r0, r1
 1185              	.LVL125:
 1186 0006 074E     		ldr	r6, .L55
  33:/home/tienluong/workspace/atlantis_fw/AsicFwS2/src/calibclasses.cpp ****     _K( 0, 2 ) -= delta_x;
 1187              		.loc 4 33 0
 1188 0008 1746     		mov	r7, r2
 1189              		.loc 4 34 0
 1190 000a B047     		blx	r6
 1191              	.LVL126:
 1192 000c 064D     		ldr	r5, .L55+4
 1193 000e 0146     		mov	r1, r0
 1194 0010 E068     		ldr	r0, [r4, #12]	@ float
 1195 0012 A847     		blx	r5
 1196              	.LVL127:
 1197 0014 E060     		str	r0, [r4, #12]	@ float
 1198              	.LVL128:
  35:/home/tienluong/workspace/atlantis_fw/AsicFwS2/src/calibclasses.cpp ****     _K( 1, 2 ) -= delta_y;
 1199              		.loc 4 35 0
 1200 0016 3846     		mov	r0, r7
 1201 0018 B047     		blx	r6
 1202              	.LVL129:
 1203 001a 0146     		mov	r1, r0
 1204 001c A069     		ldr	r0, [r4, #24]	@ float
 1205 001e A847     		blx	r5
 1206              	.LVL130:
 1207 0020 A061     		str	r0, [r4, #24]	@ float
 1208 0022 F8BD     		pop	{r3, r4, r5, r6, r7, pc}
 1209              	.LVL131:
 1210              	.L56:
 1211              		.align	2
 1212              	.L55:
 1213 0024 00000000 		.word	__aeabi_i2f
 1214 0028 00000000 		.word	__aeabi_fsub
 1215              		.cfi_endproc
 1216              	.LFE3322:
 1218              		.global	__aeabi_fadd
 1219              		.section	.text._ZNK4ltaf9WarpField9project3DEfff,"ax",%progbits
 1220              		.align	1
 1221              		.global	_ZNK4ltaf9WarpField9project3DEfff
 1222              		.thumb
 1223              		.thumb_func
 1225              	_ZNK4ltaf9WarpField9project3DEfff:
 1226              	.LFB3334:
  36:/home/tienluong/workspace/atlantis_fw/AsicFwS2/src/calibclasses.cpp **** }
  37:/home/tienluong/workspace/atlantis_fw/AsicFwS2/src/calibclasses.cpp **** 
  38:/home/tienluong/workspace/atlantis_fw/AsicFwS2/src/calibclasses.cpp **** 
  39:/home/tienluong/workspace/atlantis_fw/AsicFwS2/src/calibclasses.cpp **** EpiField::EpiField( const CalibData & ref, const CalibData & src )
  40:/home/tienluong/workspace/atlantis_fw/AsicFwS2/src/calibclasses.cpp **** {
  41:/home/tienluong/workspace/atlantis_fw/AsicFwS2/src/calibclasses.cpp ****     setup( ref, src );
  42:/home/tienluong/workspace/atlantis_fw/AsicFwS2/src/calibclasses.cpp **** }
  43:/home/tienluong/workspace/atlantis_fw/AsicFwS2/src/calibclasses.cpp **** 
  44:/home/tienluong/workspace/atlantis_fw/AsicFwS2/src/calibclasses.cpp **** void EpiField::setup( const CalibData & ref, const CalibData & src )
  45:/home/tienluong/workspace/atlantis_fw/AsicFwS2/src/calibclasses.cpp **** {
  46:/home/tienluong/workspace/atlantis_fw/AsicFwS2/src/calibclasses.cpp ****     /// Skwe matrix for cross product
  47:/home/tienluong/workspace/atlantis_fw/AsicFwS2/src/calibclasses.cpp ****     auto skew = []( const Vec3f & p ) ->Matrix3x3f
  48:/home/tienluong/workspace/atlantis_fw/AsicFwS2/src/calibclasses.cpp ****     {
  49:/home/tienluong/workspace/atlantis_fw/AsicFwS2/src/calibclasses.cpp ****         return Matrix3x3f( {0, -p.z(), p.y(), p.z(), 0, -p.x(), -p.y(), p.x(), 0} );
  50:/home/tienluong/workspace/atlantis_fw/AsicFwS2/src/calibclasses.cpp ****     };
  51:/home/tienluong/workspace/atlantis_fw/AsicFwS2/src/calibclasses.cpp **** 
  52:/home/tienluong/workspace/atlantis_fw/AsicFwS2/src/calibclasses.cpp ****     Matrix3x3f R_rel   = src.R() * transpose( ref.R() );
  53:/home/tienluong/workspace/atlantis_fw/AsicFwS2/src/calibclasses.cpp ****     Vec3f T_rel = R_rel *  ref.translation() - src.translation();
  54:/home/tienluong/workspace/atlantis_fw/AsicFwS2/src/calibclasses.cpp ****     Vec3f epipole = ref.K() * transpose( R_rel ) * T_rel;
  55:/home/tienluong/workspace/atlantis_fw/AsicFwS2/src/calibclasses.cpp ****     _F = transpose( inverse( src.K() ) ) * R_rel * transpose( ref.K() ) * skew( epipole );
  56:/home/tienluong/workspace/atlantis_fw/AsicFwS2/src/calibclasses.cpp **** }
  57:/home/tienluong/workspace/atlantis_fw/AsicFwS2/src/calibclasses.cpp **** 
  58:/home/tienluong/workspace/atlantis_fw/AsicFwS2/src/calibclasses.cpp **** 
  59:/home/tienluong/workspace/atlantis_fw/AsicFwS2/src/calibclasses.cpp **** 
  60:/home/tienluong/workspace/atlantis_fw/AsicFwS2/src/calibclasses.cpp **** static Matrix4x4d CreateExtrinsicMatrix( const Matrix3x3f & rot, const Vec3f & translation )
  61:/home/tienluong/workspace/atlantis_fw/AsicFwS2/src/calibclasses.cpp **** {
  62:/home/tienluong/workspace/atlantis_fw/AsicFwS2/src/calibclasses.cpp ****     Matrix4x4d extrinsic( rot );
  63:/home/tienluong/workspace/atlantis_fw/AsicFwS2/src/calibclasses.cpp ****     extrinsic( 0, 3 ) = translation.x();
  64:/home/tienluong/workspace/atlantis_fw/AsicFwS2/src/calibclasses.cpp ****     extrinsic( 1, 3 ) = translation.y();
  65:/home/tienluong/workspace/atlantis_fw/AsicFwS2/src/calibclasses.cpp ****     extrinsic( 2, 3 ) = translation.z();
  66:/home/tienluong/workspace/atlantis_fw/AsicFwS2/src/calibclasses.cpp ****     return extrinsic;
  67:/home/tienluong/workspace/atlantis_fw/AsicFwS2/src/calibclasses.cpp **** }
  68:/home/tienluong/workspace/atlantis_fw/AsicFwS2/src/calibclasses.cpp **** 
  69:/home/tienluong/workspace/atlantis_fw/AsicFwS2/src/calibclasses.cpp **** 
  70:/home/tienluong/workspace/atlantis_fw/AsicFwS2/src/calibclasses.cpp **** WarpField::WarpField( const CalibData & ref,
  71:/home/tienluong/workspace/atlantis_fw/AsicFwS2/src/calibclasses.cpp ****                       const CalibData & src ){
  72:/home/tienluong/workspace/atlantis_fw/AsicFwS2/src/calibclasses.cpp ****         Matrix4x4d e_ref = CreateExtrinsicMatrix( ref.R(), ref.translation() );
  73:/home/tienluong/workspace/atlantis_fw/AsicFwS2/src/calibclasses.cpp ****         Matrix4x4d e_src = CreateExtrinsicMatrix( src.R(), src.translation() );
  74:/home/tienluong/workspace/atlantis_fw/AsicFwS2/src/calibclasses.cpp ****         Matrix4x4d k_ref( ref.K() ); // expand with 0* and diagonal is 1.
  75:/home/tienluong/workspace/atlantis_fw/AsicFwS2/src/calibclasses.cpp ****         Matrix4x4d k_src( src.K() );
  76:/home/tienluong/workspace/atlantis_fw/AsicFwS2/src/calibclasses.cpp ****         _mat = Matrix4x4f( transpose( ( k_src * e_src ) * inverse( ( k_ref * e_ref ) ) ) );
  77:/home/tienluong/workspace/atlantis_fw/AsicFwS2/src/calibclasses.cpp **** }
  78:/home/tienluong/workspace/atlantis_fw/AsicFwS2/src/calibclasses.cpp **** 
  79:/home/tienluong/workspace/atlantis_fw/AsicFwS2/src/calibclasses.cpp **** /// 3D projection from (x,y,z) to (x',y',z')
  80:/home/tienluong/workspace/atlantis_fw/AsicFwS2/src/calibclasses.cpp **** Vec3f WarpField::project3D( float x, float y, float depth ) const
  81:/home/tienluong/workspace/atlantis_fw/AsicFwS2/src/calibclasses.cpp **** {
 1227              		.loc 4 81 0
 1228              		.cfi_startproc
 1229              		@ args = 4, pretend = 0, frame = 8
 1230              		@ frame_needed = 0, uses_anonymous_args = 0
 1231              	.LVL132:
 1232 0000 2DE9F74F 		push	{r0, r1, r2, r4, r5, r6, r7, r8, r9, r10, fp, lr}
 1233              	.LCFI17:
 1234              		.cfi_def_cfa_offset 48
 1235              		.cfi_offset 4, -36
 1236              		.cfi_offset 5, -32
 1237              		.cfi_offset 6, -28
 1238              		.cfi_offset 7, -24
 1239              		.cfi_offset 8, -20
 1240              		.cfi_offset 9, -16
 1241              		.cfi_offset 10, -12
 1242              		.cfi_offset 11, -8
 1243              		.cfi_offset 14, -4
 1244              		.loc 4 81 0
 1245 0004 0D46     		mov	r5, r1
 1246 0006 0746     		mov	r7, r0
 1247              	.LBB1360:
  82:/home/tienluong/workspace/atlantis_fw/AsicFwS2/src/calibclasses.cpp ****     const Vec4f out = Vec4f( x * depth, y * depth, depth, 1.0f ) * _mat;
 1248              		.loc 4 82 0
 1249 0008 2D4C     		ldr	r4, .L58
 1250 000a 1046     		mov	r0, r2
 1251              	.LVL133:
 1252 000c 0C99     		ldr	r1, [sp, #48]	@ float
 1253              	.LVL134:
 1254              	.LBE1360:
  81:/home/tienluong/workspace/atlantis_fw/AsicFwS2/src/calibclasses.cpp ****     const Vec4f out = Vec4f( x * depth, y * depth, depth, 1.0f ) * _mat;
 1255              		.loc 4 81 0
 1256 000e 1E46     		mov	r6, r3
 1257              	.LBB1377:
 1258              		.loc 4 82 0
 1259 0010 A047     		blx	r4
 1260              	.LVL135:
 1261 0012 0C99     		ldr	r1, [sp, #48]	@ float
 1262 0014 8146     		mov	r9, r0
 1263 0016 3046     		mov	r0, r6
 1264 0018 A047     		blx	r4
 1265              	.LVL136:
 1266              	.LBB1361:
 1267              	.LBB1362:
 954:/home/tienluong/workspace/atlantis_fw/AsicFwS2/include/matrix.h **** }
 1268              		.loc 2 954 0
 1269 001a A968     		ldr	r1, [r5, #8]	@ float
 1270 001c 294E     		ldr	r6, .L58+4
 1271              	.LVL137:
 1272              	.LBE1362:
 1273              	.LBE1361:
 1274              		.loc 4 82 0
 1275 001e 8046     		mov	r8, r0
 1276              	.LVL138:
 1277              	.LBB1369:
 1278              	.LBB1363:
 954:/home/tienluong/workspace/atlantis_fw/AsicFwS2/include/matrix.h **** }
 1279              		.loc 2 954 0
 1280 0020 4846     		mov	r0, r9
 1281              	.LVL139:
 1282 0022 A047     		blx	r4
 1283              	.LVL140:
 1284 0024 A969     		ldr	r1, [r5, #24]	@ float
 1285 0026 8246     		mov	r10, r0
 1286 0028 4046     		mov	r0, r8
 1287 002a A047     		blx	r4
 1288              	.LVL141:
 1289 002c 0146     		mov	r1, r0
 1290 002e 5046     		mov	r0, r10
 1291 0030 B047     		blx	r6
 1292              	.LVL142:
 1293 0032 A96A     		ldr	r1, [r5, #40]	@ float
 1294 0034 8246     		mov	r10, r0
 1295 0036 0C98     		ldr	r0, [sp, #48]	@ float
 1296 0038 A047     		blx	r4
 1297              	.LVL143:
 1298 003a 0146     		mov	r1, r0
 1299 003c 5046     		mov	r0, r10
 1300 003e B047     		blx	r6
 1301              	.LVL144:
 1302 0040 A96B     		ldr	r1, [r5, #56]	@ float
 1303 0042 B047     		blx	r6
 1304              	.LVL145:
 1305              	.LBE1363:
 1306              	.LBE1369:
  83:/home/tienluong/workspace/atlantis_fw/AsicFwS2/src/calibclasses.cpp ****     const float inv_z = 1.0f / out.z();
 1307              		.loc 4 83 0
 1308 0044 204B     		ldr	r3, .L58+8
 1309              	.LBB1370:
 1310              	.LBB1364:
 954:/home/tienluong/workspace/atlantis_fw/AsicFwS2/include/matrix.h **** }
 1311              		.loc 2 954 0
 1312 0046 8246     		mov	r10, r0
 1313              	.LVL146:
 1314              	.LBE1364:
 1315              	.LBE1370:
 1316              		.loc 4 83 0
 1317 0048 4FF07E50 		mov	r0, #1065353216
 1318              	.LVL147:
 1319 004c 5146     		mov	r1, r10
 1320 004e 9847     		blx	r3
 1321              	.LVL148:
 1322              	.LBB1371:
 1323              	.LBB1365:
 954:/home/tienluong/workspace/atlantis_fw/AsicFwS2/include/matrix.h **** }
 1324              		.loc 2 954 0
 1325 0050 6968     		ldr	r1, [r5, #4]	@ float
 1326              	.LBE1365:
 1327              	.LBE1371:
 1328              		.loc 4 83 0
 1329 0052 8346     		mov	fp, r0
 1330              	.LVL149:
 1331              	.LBB1372:
 1332              	.LBB1366:
 954:/home/tienluong/workspace/atlantis_fw/AsicFwS2/include/matrix.h **** }
 1333              		.loc 2 954 0
 1334 0054 4846     		mov	r0, r9
 1335              	.LVL150:
 1336 0056 A047     		blx	r4
 1337              	.LVL151:
 1338 0058 6969     		ldr	r1, [r5, #20]	@ float
 1339 005a 0190     		str	r0, [sp, #4]
 1340 005c 4046     		mov	r0, r8
 1341 005e A047     		blx	r4
 1342              	.LVL152:
 1343 0060 019B     		ldr	r3, [sp, #4]
 1344 0062 0146     		mov	r1, r0
 1345 0064 1846     		mov	r0, r3
 1346 0066 B047     		blx	r6
 1347              	.LVL153:
 1348 0068 696A     		ldr	r1, [r5, #36]	@ float
 1349 006a 0190     		str	r0, [sp, #4]
 1350 006c 0C98     		ldr	r0, [sp, #48]	@ float
 1351 006e A047     		blx	r4
 1352              	.LVL154:
 1353 0070 019B     		ldr	r3, [sp, #4]
 1354 0072 0146     		mov	r1, r0
 1355 0074 1846     		mov	r0, r3
 1356 0076 B047     		blx	r6
 1357              	.LVL155:
 1358 0078 696B     		ldr	r1, [r5, #52]	@ float
 1359 007a B047     		blx	r6
 1360              	.LVL156:
 1361              	.LBE1366:
 1362              	.LBE1372:
  84:/home/tienluong/workspace/atlantis_fw/AsicFwS2/src/calibclasses.cpp ****     return Vec3f( out.x() * inv_z, out.y() * inv_z, out.z() );
 1363              		.loc 4 84 0
 1364 007c 5946     		mov	r1, fp
 1365 007e A047     		blx	r4
 1366              	.LVL157:
 1367              	.LBB1373:
 1368              	.LBB1367:
 954:/home/tienluong/workspace/atlantis_fw/AsicFwS2/include/matrix.h **** }
 1369              		.loc 2 954 0
 1370 0080 2968     		ldr	r1, [r5]	@ float
 1371              	.LBE1367:
 1372              	.LBE1373:
 1373              		.loc 4 84 0
 1374 0082 0190     		str	r0, [sp, #4]
 1375              	.LVL158:
 1376              	.LBB1374:
 1377              	.LBB1368:
 954:/home/tienluong/workspace/atlantis_fw/AsicFwS2/include/matrix.h **** }
 1378              		.loc 2 954 0
 1379 0084 4846     		mov	r0, r9
 1380 0086 A047     		blx	r4
 1381              	.LVL159:
 1382 0088 2969     		ldr	r1, [r5, #16]	@ float
 1383 008a 8146     		mov	r9, r0
 1384              	.LVL160:
 1385 008c 4046     		mov	r0, r8
 1386 008e A047     		blx	r4
 1387              	.LVL161:
 1388 0090 0146     		mov	r1, r0
 1389 0092 4846     		mov	r0, r9
 1390 0094 B047     		blx	r6
 1391              	.LVL162:
 1392 0096 296A     		ldr	r1, [r5, #32]	@ float
 1393 0098 8046     		mov	r8, r0
 1394              	.LVL163:
 1395 009a 0C98     		ldr	r0, [sp, #48]	@ float
 1396 009c A047     		blx	r4
 1397              	.LVL164:
 1398 009e 0146     		mov	r1, r0
 1399 00a0 4046     		mov	r0, r8
 1400 00a2 B047     		blx	r6
 1401              	.LVL165:
 1402 00a4 296B     		ldr	r1, [r5, #48]	@ float
 1403 00a6 B047     		blx	r6
 1404              	.LVL166:
 1405              	.LBE1368:
 1406              	.LBE1374:
 1407              		.loc 4 84 0
 1408 00a8 5946     		mov	r1, fp
 1409 00aa A047     		blx	r4
 1410              	.LVL167:
 1411              	.LBB1375:
 1412              	.LBB1376:
 229:/home/tienluong/workspace/atlantis_fw/AsicFwS2/include/matrix.h ****     Vec3( const Vec3 & t ) : _x( t._x ), _y( t._y ), _z( t._z ) {}
 1413              		.loc 2 229 0
 1414 00ac 019B     		ldr	r3, [sp, #4]
 1415 00ae 7B60     		str	r3, [r7, #4]	@ float
 1416 00b0 C7F808A0 		str	r10, [r7, #8]	@ float
 1417 00b4 3860     		str	r0, [r7]	@ float
 1418              	.LBE1376:
 1419              	.LBE1375:
 1420              	.LBE1377:
  85:/home/tienluong/workspace/atlantis_fw/AsicFwS2/src/calibclasses.cpp **** }
 1421              		.loc 4 85 0
 1422 00b6 3846     		mov	r0, r7
 1423 00b8 03B0     		add	sp, sp, #12
 1424              	.LCFI18:
 1425              		.cfi_def_cfa_offset 36
 1426              		@ sp needed
 1427 00ba BDE8F08F 		pop	{r4, r5, r6, r7, r8, r9, r10, fp, pc}
 1428              	.LVL168:
 1429              	.L59:
 1430 00be 00BF     		.align	2
 1431              	.L58:
 1432 00c0 00000000 		.word	__aeabi_fmul
 1433 00c4 00000000 		.word	__aeabi_fadd
 1434 00c8 00000000 		.word	__aeabi_fdiv
 1435              		.cfi_endproc
 1436              	.LFE3334:
 1438              		.section	.text._ZN4ltaf16CalibDataManager14setMirrorTypesENS_10ModuleNameENS_10MirrorTypeE,"ax",%p
 1439              		.align	1
 1440              		.global	_ZN4ltaf16CalibDataManager14setMirrorTypesENS_10ModuleNameENS_10MirrorTypeE
 1441              		.thumb
 1442              		.thumb_func
 1444              	_ZN4ltaf16CalibDataManager14setMirrorTypesENS_10ModuleNameENS_10MirrorTypeE:
 1445              	.LFB3340:
  86:/home/tienluong/workspace/atlantis_fw/AsicFwS2/src/calibclasses.cpp **** 
  87:/home/tienluong/workspace/atlantis_fw/AsicFwS2/src/calibclasses.cpp **** 
  88:/home/tienluong/workspace/atlantis_fw/AsicFwS2/src/calibclasses.cpp **** float CalibUtils::depthGivenCorrespondence( const EpiField & epf,
  89:/home/tienluong/workspace/atlantis_fw/AsicFwS2/src/calibclasses.cpp ****                                    const CalibData & ref, const CalibData & src,
  90:/home/tienluong/workspace/atlantis_fw/AsicFwS2/src/calibclasses.cpp ****                                    float x, float y,
  91:/home/tienluong/workspace/atlantis_fw/AsicFwS2/src/calibclasses.cpp ****                                    float x_src, float y_src )
  92:/home/tienluong/workspace/atlantis_fw/AsicFwS2/src/calibclasses.cpp **** {
  93:/home/tienluong/workspace/atlantis_fw/AsicFwS2/src/calibclasses.cpp ****     SLOGF(SLOG_DEBUG, "depthGivenCorrespondence. x: %f, y: %f, x_src: %f, y_src: %f", x, y, x_src, 
  94:/home/tienluong/workspace/atlantis_fw/AsicFwS2/src/calibclasses.cpp **** 
  95:/home/tienluong/workspace/atlantis_fw/AsicFwS2/src/calibclasses.cpp ****     // We first project the source point to the epipolar line
  96:/home/tienluong/workspace/atlantis_fw/AsicFwS2/src/calibclasses.cpp ****     // induced by (x,y) on current image. Then compute the world coordinate (a1, a2)
  97:/home/tienluong/workspace/atlantis_fw/AsicFwS2/src/calibclasses.cpp ****     // and the baseline (b1, b2), and then use Laws of sines to reconstruct
  98:/home/tienluong/workspace/atlantis_fw/AsicFwS2/src/calibclasses.cpp ****     // the distance between object and camera 1.
  99:/home/tienluong/workspace/atlantis_fw/AsicFwS2/src/calibclasses.cpp **** 
 100:/home/tienluong/workspace/atlantis_fw/AsicFwS2/src/calibclasses.cpp ****     // We first project / correct the source point to the epipolar line
 101:/home/tienluong/workspace/atlantis_fw/AsicFwS2/src/calibclasses.cpp ****     // induced by ref image (x,y) onto the src image.
 102:/home/tienluong/workspace/atlantis_fw/AsicFwS2/src/calibclasses.cpp ****     Vec2f src_proj = epf( x, y ).closest( Vec2f( x_src, y_src ) );
 103:/home/tienluong/workspace/atlantis_fw/AsicFwS2/src/calibclasses.cpp ****     SLOGF(SLOG_DEBUG, "depthGivenCorrespondence. src_proj.x: %f, src_proj.y: %f", src_proj.x(), src
 104:/home/tienluong/workspace/atlantis_fw/AsicFwS2/src/calibclasses.cpp **** 
 105:/home/tienluong/workspace/atlantis_fw/AsicFwS2/src/calibclasses.cpp ****     // a1 is the vector from ref camera center to (x y 1) on the image plane
 106:/home/tienluong/workspace/atlantis_fw/AsicFwS2/src/calibclasses.cpp ****     Vec3f a1 = inverse( ref.K() ) * Vec3f( x, y, 1 );
 107:/home/tienluong/workspace/atlantis_fw/AsicFwS2/src/calibclasses.cpp ****     // a2 is the vector from src camera center to (x_src y_src 1) on the image plane
 108:/home/tienluong/workspace/atlantis_fw/AsicFwS2/src/calibclasses.cpp ****     Vec3f a2 = inverse( src.K() ) * Vec3f( src_proj.x(), src_proj.y(), 1 );
 109:/home/tienluong/workspace/atlantis_fw/AsicFwS2/src/calibclasses.cpp **** 
 110:/home/tienluong/workspace/atlantis_fw/AsicFwS2/src/calibclasses.cpp ****     // b1 is the vector from ref to src camera center, b2 is the other way round.
 111:/home/tienluong/workspace/atlantis_fw/AsicFwS2/src/calibclasses.cpp ****     Matrix3x3f refR_srcR_T = ref.R() * transpose( src.R() ); // ref R * (src R)^T
 112:/home/tienluong/workspace/atlantis_fw/AsicFwS2/src/calibclasses.cpp ****     Vec3f b1 =  ref.translation() - refR_srcR_T * src.translation();
 113:/home/tienluong/workspace/atlantis_fw/AsicFwS2/src/calibclasses.cpp ****     Vec3f b2 =  src.translation() - transpose( refR_srcR_T ) * ref.translation();
 114:/home/tienluong/workspace/atlantis_fw/AsicFwS2/src/calibclasses.cpp **** 
 115:/home/tienluong/workspace/atlantis_fw/AsicFwS2/src/calibclasses.cpp ****     float a1a1 = a1.dot( a1 );
 116:/home/tienluong/workspace/atlantis_fw/AsicFwS2/src/calibclasses.cpp ****     float b1b1 = b1.dot( b1 );
 117:/home/tienluong/workspace/atlantis_fw/AsicFwS2/src/calibclasses.cpp **** 
 118:/home/tienluong/workspace/atlantis_fw/AsicFwS2/src/calibclasses.cpp ****     // theta_i is the angle between a_i and b_i
 119:/home/tienluong/workspace/atlantis_fw/AsicFwS2/src/calibclasses.cpp ****     float cos_theta_1 = a1.dot( b1 ) / std::sqrt( a1a1 * b1b1 );
 120:/home/tienluong/workspace/atlantis_fw/AsicFwS2/src/calibclasses.cpp ****     float cos_theta_2 = a2.dot( b2 ) / std::sqrt( a2.dot( a2 ) * b2.dot( b2 ) );
 121:/home/tienluong/workspace/atlantis_fw/AsicFwS2/src/calibclasses.cpp ****     float sin_theta_1 = std::sqrt( 1 - cos_theta_1 * cos_theta_1 );
 122:/home/tienluong/workspace/atlantis_fw/AsicFwS2/src/calibclasses.cpp ****     float sin_theta_2 = std::sqrt( 1 - cos_theta_2 * cos_theta_2 );
 123:/home/tienluong/workspace/atlantis_fw/AsicFwS2/src/calibclasses.cpp **** 
 124:/home/tienluong/workspace/atlantis_fw/AsicFwS2/src/calibclasses.cpp ****     // phi is the angle between a1 and 2.
 125:/home/tienluong/workspace/atlantis_fw/AsicFwS2/src/calibclasses.cpp ****     float sin_phi =  sin_theta_1 * cos_theta_2 + sin_theta_2 * cos_theta_1;
 126:/home/tienluong/workspace/atlantis_fw/AsicFwS2/src/calibclasses.cpp ****     float s_theta2_phi = std::abs(sin_theta_2 / sin_phi);
 127:/home/tienluong/workspace/atlantis_fw/AsicFwS2/src/calibclasses.cpp ****     // world point to ref camera center dist / a1 length is equal to
 128:/home/tienluong/workspace/atlantis_fw/AsicFwS2/src/calibclasses.cpp ****     // world point depth / 1.
 129:/home/tienluong/workspace/atlantis_fw/AsicFwS2/src/calibclasses.cpp ****     // depth = dist / a1 length
 130:/home/tienluong/workspace/atlantis_fw/AsicFwS2/src/calibclasses.cpp ****     // where dist / sin theta_2 = b1 length / sin phi.
 131:/home/tienluong/workspace/atlantis_fw/AsicFwS2/src/calibclasses.cpp **** 
 132:/home/tienluong/workspace/atlantis_fw/AsicFwS2/src/calibclasses.cpp ****     float d = s_theta2_phi * std::sqrt(b1b1 / a1a1);
 133:/home/tienluong/workspace/atlantis_fw/AsicFwS2/src/calibclasses.cpp **** 
 134:/home/tienluong/workspace/atlantis_fw/AsicFwS2/src/calibclasses.cpp ****     SLOGF(SLOG_DEBUG, "depthGivenCorrespondence. d: %f, sin_phi: %f", d, sin_phi);
 135:/home/tienluong/workspace/atlantis_fw/AsicFwS2/src/calibclasses.cpp **** 
 136:/home/tienluong/workspace/atlantis_fw/AsicFwS2/src/calibclasses.cpp ****     return sin_phi > 0 ? d : 0.0f;
 137:/home/tienluong/workspace/atlantis_fw/AsicFwS2/src/calibclasses.cpp **** }
 138:/home/tienluong/workspace/atlantis_fw/AsicFwS2/src/calibclasses.cpp **** 
 139:/home/tienluong/workspace/atlantis_fw/AsicFwS2/src/calibclasses.cpp **** // compute depth given point to point correspondence
 140:/home/tienluong/workspace/atlantis_fw/AsicFwS2/src/calibclasses.cpp **** float CalibUtils::depthGivenCorrespondence( const CalibData & ref,
 141:/home/tienluong/workspace/atlantis_fw/AsicFwS2/src/calibclasses.cpp ****                                        const CalibData & src,
 142:/home/tienluong/workspace/atlantis_fw/AsicFwS2/src/calibclasses.cpp ****                                        float x, float y,
 143:/home/tienluong/workspace/atlantis_fw/AsicFwS2/src/calibclasses.cpp ****                                        float x_src, float y_src )
 144:/home/tienluong/workspace/atlantis_fw/AsicFwS2/src/calibclasses.cpp **** {
 145:/home/tienluong/workspace/atlantis_fw/AsicFwS2/src/calibclasses.cpp ****     // We first project the source point to the epipolar line
 146:/home/tienluong/workspace/atlantis_fw/AsicFwS2/src/calibclasses.cpp ****     // induced by (x,y) on current image. Then compute the world coordinate (a1, a2)
 147:/home/tienluong/workspace/atlantis_fw/AsicFwS2/src/calibclasses.cpp ****     // and the baseline (b1, b2), and then use Laws of sines to reconstruct
 148:/home/tienluong/workspace/atlantis_fw/AsicFwS2/src/calibclasses.cpp ****     // the distance between object and camera 1.
 149:/home/tienluong/workspace/atlantis_fw/AsicFwS2/src/calibclasses.cpp **** 
 150:/home/tienluong/workspace/atlantis_fw/AsicFwS2/src/calibclasses.cpp ****     EpiField epf( ref, src );
 151:/home/tienluong/workspace/atlantis_fw/AsicFwS2/src/calibclasses.cpp ****     return depthGivenCorrespondence(epf, ref, src, x, y, x_src, y_src);
 152:/home/tienluong/workspace/atlantis_fw/AsicFwS2/src/calibclasses.cpp **** }
 153:/home/tienluong/workspace/atlantis_fw/AsicFwS2/src/calibclasses.cpp **** 
 154:/home/tienluong/workspace/atlantis_fw/AsicFwS2/src/calibclasses.cpp **** // ----------------- calib data manager ---------------------
 155:/home/tienluong/workspace/atlantis_fw/AsicFwS2/src/calibclasses.cpp **** 
 156:/home/tienluong/workspace/atlantis_fw/AsicFwS2/src/calibclasses.cpp **** CalibDataManager::CalibDataManager(const Ltpb__LightHeader& lh) {
 157:/home/tienluong/workspace/atlantis_fw/AsicFwS2/src/calibclasses.cpp ****     if (!parseGeometricCalibData(lh)) {
 158:/home/tienluong/workspace/atlantis_fw/AsicFwS2/src/calibclasses.cpp ****         SLOGF(SLOG_ERROR, "Parsing calibration protobuf failed...");
 159:/home/tienluong/workspace/atlantis_fw/AsicFwS2/src/calibclasses.cpp ****     }
 160:/home/tienluong/workspace/atlantis_fw/AsicFwS2/src/calibclasses.cpp **** }
 161:/home/tienluong/workspace/atlantis_fw/AsicFwS2/src/calibclasses.cpp **** 
 162:/home/tienluong/workspace/atlantis_fw/AsicFwS2/src/calibclasses.cpp **** void CalibDataManager::setMirrorTypes(ModuleName m, MirrorType t){
 1446              		.loc 4 162 0
 1447              		.cfi_startproc
 1448              		@ args = 0, pretend = 0, frame = 0
 1449              		@ frame_needed = 0, uses_anonymous_args = 0
 1450              		@ link register save eliminated.
 1451              	.LVL169:
 163:/home/tienluong/workspace/atlantis_fw/AsicFwS2/src/calibclasses.cpp ****     _cam_mirror_types[m] = t;
 1452              		.loc 4 163 0
 1453 0000 0144     		add	r1, r1, r0
 1454              	.LVL170:
 1455 0002 81F84020 		strb	r2, [r1, #64]
 1456 0006 7047     		bx	lr
 1457              		.cfi_endproc
 1458              	.LFE3340:
 1460              		.section	.text._ZNK4ltaf16CalibDataManager18isModuleCalibratedENS_10ModuleNameE,"ax",%progbits
 1461              		.align	1
 1462              		.global	_ZNK4ltaf16CalibDataManager18isModuleCalibratedENS_10ModuleNameE
 1463              		.thumb
 1464              		.thumb_func
 1466              	_ZNK4ltaf16CalibDataManager18isModuleCalibratedENS_10ModuleNameE:
 1467              	.LFB3341:
 164:/home/tienluong/workspace/atlantis_fw/AsicFwS2/src/calibclasses.cpp **** }
 165:/home/tienluong/workspace/atlantis_fw/AsicFwS2/src/calibclasses.cpp **** 
 166:/home/tienluong/workspace/atlantis_fw/AsicFwS2/src/calibclasses.cpp **** //whether we have calibration data for this module
 167:/home/tienluong/workspace/atlantis_fw/AsicFwS2/src/calibclasses.cpp **** bool CalibDataManager::isModuleCalibrated(ModuleName m) const{
 1468              		.loc 4 167 0
 1469              		.cfi_startproc
 1470              		@ args = 0, pretend = 0, frame = 0
 1471              		@ frame_needed = 0, uses_anonymous_args = 0
 1472              		@ link register save eliminated.
 1473              	.LVL171:
 168:/home/tienluong/workspace/atlantis_fw/AsicFwS2/src/calibclasses.cpp ****     return _cam_params[m].get()!=nullptr;
 1474              		.loc 4 168 0
 1475 0000 50F82100 		ldr	r0, [r0, r1, lsl #2]
 1476              	.LVL172:
 169:/home/tienluong/workspace/atlantis_fw/AsicFwS2/src/calibclasses.cpp **** }
 1477              		.loc 4 169 0
 1478 0004 0030     		adds	r0, r0, #0
 1479 0006 18BF     		it	ne
 1480 0008 0120     		movne	r0, #1
 1481 000a 7047     		bx	lr
 1482              		.cfi_endproc
 1483              	.LFE3341:
 1485              		.section	.text._ZNK4ltaf16CalibDataManager22isModuleMirrorMoveableENS_10ModuleNameE,"ax",%progbits
 1486              		.align	1
 1487              		.global	_ZNK4ltaf16CalibDataManager22isModuleMirrorMoveableENS_10ModuleNameE
 1488              		.thumb
 1489              		.thumb_func
 1491              	_ZNK4ltaf16CalibDataManager22isModuleMirrorMoveableENS_10ModuleNameE:
 1492              	.LFB3342:
 170:/home/tienluong/workspace/atlantis_fw/AsicFwS2/src/calibclasses.cpp **** 
 171:/home/tienluong/workspace/atlantis_fw/AsicFwS2/src/calibclasses.cpp **** bool CalibDataManager::isModuleMirrorMoveable(ModuleName m) const {
 1493              		.loc 4 171 0
 1494              		.cfi_startproc
 1495              		@ args = 0, pretend = 0, frame = 0
 1496              		@ frame_needed = 0, uses_anonymous_args = 0
 1497              		@ link register save eliminated.
 1498              	.LVL173:
 172:/home/tienluong/workspace/atlantis_fw/AsicFwS2/src/calibclasses.cpp ****     return _cam_mirror_types[m] == MirrorType::Moveable;
 1499              		.loc 4 172 0
 1500 0000 0144     		add	r1, r1, r0
 1501              	.LVL174:
 1502 0002 91F84000 		ldrb	r0, [r1, #64]	@ zero_extendqisi2
 1503              	.LVL175:
 173:/home/tienluong/workspace/atlantis_fw/AsicFwS2/src/calibclasses.cpp **** }
 1504              		.loc 4 173 0
 1505 0006 431E     		subs	r3, r0, #1
 1506 0008 5842     		rsbs	r0, r3, #0
 1507 000a 5841     		adcs	r0, r0, r3
 1508 000c 7047     		bx	lr
 1509              		.cfi_endproc
 1510              	.LFE3342:
 1512              		.section	.text._ZNK4ltaf16CalibDataManager12getCamParamsENS_10ModuleNameE,"ax",%progbits
 1513              		.align	1
 1514              		.global	_ZNK4ltaf16CalibDataManager12getCamParamsENS_10ModuleNameE
 1515              		.thumb
 1516              		.thumb_func
 1518              	_ZNK4ltaf16CalibDataManager12getCamParamsENS_10ModuleNameE:
 1519              	.LFB3343:
 174:/home/tienluong/workspace/atlantis_fw/AsicFwS2/src/calibclasses.cpp **** 
 175:/home/tienluong/workspace/atlantis_fw/AsicFwS2/src/calibclasses.cpp **** const CalibDataBase * CalibDataManager::getCamParams(ModuleName m) const {
 1520              		.loc 4 175 0
 1521              		.cfi_startproc
 1522              		@ args = 0, pretend = 0, frame = 0
 1523              		@ frame_needed = 0, uses_anonymous_args = 0
 1524              		@ link register save eliminated.
 1525              	.LVL176:
 176:/home/tienluong/workspace/atlantis_fw/AsicFwS2/src/calibclasses.cpp ****     return _cam_params[m].get();
 177:/home/tienluong/workspace/atlantis_fw/AsicFwS2/src/calibclasses.cpp **** }
 1526              		.loc 4 177 0
 1527 0000 50F82100 		ldr	r0, [r0, r1, lsl #2]
 1528              	.LVL177:
 1529 0004 7047     		bx	lr
 1530              		.cfi_endproc
 1531              	.LFE3343:
 1533              		.section	.text._ZN4ltaf16CalibDataManager17parseMirrorSystemEPK19_Ltpb__MirrorSystemRNS_14MirrorSy
 1534              		.align	1
 1535              		.global	_ZN4ltaf16CalibDataManager17parseMirrorSystemEPK19_Ltpb__MirrorSystemRNS_14MirrorSysParamE
 1536              		.thumb
 1537              		.thumb_func
 1539              	_ZN4ltaf16CalibDataManager17parseMirrorSystemEPK19_Ltpb__MirrorSystemRNS_14MirrorSysParamE:
 1540              	.LFB3344:
 178:/home/tienluong/workspace/atlantis_fw/AsicFwS2/src/calibclasses.cpp **** 
 179:/home/tienluong/workspace/atlantis_fw/AsicFwS2/src/calibclasses.cpp **** 
 180:/home/tienluong/workspace/atlantis_fw/AsicFwS2/src/calibclasses.cpp **** void CalibDataManager::parseMirrorSystem(const Ltpb__MirrorSystem * m, MirrorSysParam & msp){
 1541              		.loc 4 180 0
 1542              		.cfi_startproc
 1543              		@ args = 0, pretend = 0, frame = 176
 1544              		@ frame_needed = 0, uses_anonymous_args = 0
 1545              	.LVL178:
 181:/home/tienluong/workspace/atlantis_fw/AsicFwS2/src/calibclasses.cpp ****     msp = MirrorSysParam({
 1546              		.loc 4 181 0
 1547 0000 0B69     		ldr	r3, [r1, #16]
 180:/home/tienluong/workspace/atlantis_fw/AsicFwS2/src/calibclasses.cpp ****     msp = MirrorSysParam({
 1548              		.loc 4 180 0
 1549 0002 2DE9F04F 		push	{r4, r5, r6, r7, r8, r9, r10, fp, lr}
 1550              	.LCFI19:
 1551              		.cfi_def_cfa_offset 36
 1552              		.cfi_offset 4, -36
 1553              		.cfi_offset 5, -32
 1554              		.cfi_offset 6, -28
 1555              		.cfi_offset 7, -24
 1556              		.cfi_offset 8, -20
 1557              		.cfi_offset 9, -16
 1558              		.cfi_offset 10, -12
 1559              		.cfi_offset 11, -8
 1560              		.cfi_offset 14, -4
 1561 0006 ADB0     		sub	sp, sp, #180
 1562              	.LCFI20:
 1563              		.cfi_def_cfa_offset 216
 180:/home/tienluong/workspace/atlantis_fw/AsicFwS2/src/calibclasses.cpp ****     msp = MirrorSysParam({
 1564              		.loc 4 180 0
 1565 0008 1446     		mov	r4, r2
 1566 000a 0D46     		mov	r5, r1
 1567              		.loc 4 181 0
 1568 000c DA68     		ldr	r2, [r3, #12]	@ float
 1569              	.LVL179:
 1570              	.LBB1402:
 1571              	.LBB1403:
 596:/home/tienluong/workspace/atlantis_fw/AsicFwS2/include/matrix.h **** 
 1572              		.loc 2 596 0
 1573 000e 0AA9     		add	r1, sp, #40
 1574              	.LVL180:
 1575              	.LBE1403:
 1576              	.LBE1402:
 1577              		.loc 4 181 0
 1578 0010 0A92     		str	r2, [sp, #40]	@ float
 1579              	.LBB1407:
 1580              	.LBB1404:
 596:/home/tienluong/workspace/atlantis_fw/AsicFwS2/include/matrix.h **** 
 1581              		.loc 2 596 0
 1582 0012 13A8     		add	r0, sp, #76
 1583              	.LVL181:
 1584              	.LBE1404:
 1585              	.LBE1407:
 1586              		.loc 4 181 0
 1587 0014 1A69     		ldr	r2, [r3, #16]	@ float
 1588              	.LBB1408:
 1589              	.LBB1409:
 1590              		.loc 3 31 0
 1591 0016 2646     		mov	r6, r4
 1592              	.LBE1409:
 1593              	.LBE1408:
 1594              		.loc 4 181 0
 1595 0018 0B92     		str	r2, [sp, #44]	@ float
 1596 001a 5A69     		ldr	r2, [r3, #20]	@ float
 1597 001c 0C92     		str	r2, [sp, #48]	@ float
 1598 001e 9A69     		ldr	r2, [r3, #24]	@ float
 1599 0020 0D92     		str	r2, [sp, #52]	@ float
 1600 0022 DA69     		ldr	r2, [r3, #28]	@ float
 1601 0024 0E92     		str	r2, [sp, #56]	@ float
 1602 0026 1A6A     		ldr	r2, [r3, #32]	@ float
 1603 0028 0F92     		str	r2, [sp, #60]	@ float
 1604 002a 5A6A     		ldr	r2, [r3, #36]	@ float
 1605 002c 1092     		str	r2, [sp, #64]	@ float
 1606 002e 9A6A     		ldr	r2, [r3, #40]	@ float
 1607 0030 DB6A     		ldr	r3, [r3, #44]	@ float
 1608 0032 1293     		str	r3, [sp, #72]	@ float
 1609              	.LVL182:
 1610              	.LBB1426:
 1611              	.LBB1405:
 596:/home/tienluong/workspace/atlantis_fw/AsicFwS2/include/matrix.h **** 
 1612              		.loc 2 596 0
 1613 0034 2A4B     		ldr	r3, .L65
 1614              	.LBE1405:
 1615              	.LBE1426:
 1616              		.loc 4 181 0
 1617 0036 1192     		str	r2, [sp, #68]	@ float
 1618              	.LBB1427:
 1619              	.LBB1406:
 596:/home/tienluong/workspace/atlantis_fw/AsicFwS2/include/matrix.h **** 
 1620              		.loc 2 596 0
 1621 0038 9847     		blx	r3
 1622              	.LVL183:
 1623              	.LBE1406:
 1624              	.LBE1427:
 1625              		.loc 4 181 0
 1626 003a EB68     		ldr	r3, [r5, #12]
 182:/home/tienluong/workspace/atlantis_fw/AsicFwS2/src/calibclasses.cpp ****         Matrix3x3f{   m->real_camera_orientation->x00,m->real_camera_orientation->x01,m->real_camer
 183:/home/tienluong/workspace/atlantis_fw/AsicFwS2/src/calibclasses.cpp ****                       m->real_camera_orientation->x10,m->real_camera_orientation->x11,m->real_camer
 184:/home/tienluong/workspace/atlantis_fw/AsicFwS2/src/calibclasses.cpp ****                       m->real_camera_orientation->x20,m->real_camera_orientation->x21,m->real_camer
 185:/home/tienluong/workspace/atlantis_fw/AsicFwS2/src/calibclasses.cpp ****         Vec3f{m->real_camera_location->x, m->real_camera_location->y, m->real_camera_location->z },
 186:/home/tienluong/workspace/atlantis_fw/AsicFwS2/src/calibclasses.cpp ****         Vec3f{m->point_on_rotation_axis->x, m->point_on_rotation_axis->y, m->point_on_rotation_axis
 187:/home/tienluong/workspace/atlantis_fw/AsicFwS2/src/calibclasses.cpp ****         Vec3f{m->rotation_axis->x, m->rotation_axis->y, m->rotation_axis->z},
 188:/home/tienluong/workspace/atlantis_fw/AsicFwS2/src/calibclasses.cpp ****         Vec3f{m->mirror_normal_at_zero_degrees->x, m->mirror_normal_at_zero_degrees->y, m->mirror_n
 189:/home/tienluong/workspace/atlantis_fw/AsicFwS2/src/calibclasses.cpp ****         m->distance_mirror_plane_to_point_on_rotation_axis,
 190:/home/tienluong/workspace/atlantis_fw/AsicFwS2/src/calibclasses.cpp ****         (m->flip_img_around_x)>0, // protobuf-c-boolean is int
 1627              		.loc 4 190 0
 1628 003c 6F6A     		ldr	r7, [r5, #36]
 181:/home/tienluong/workspace/atlantis_fw/AsicFwS2/src/calibclasses.cpp ****         Matrix3x3f{   m->real_camera_orientation->x00,m->real_camera_orientation->x01,m->real_camer
 1629              		.loc 4 181 0
 1630 003e D3F80CB0 		ldr	fp, [r3, #12]	@ float
 1631              		.loc 4 190 0
 1632 0042 002F     		cmp	r7, #0
 181:/home/tienluong/workspace/atlantis_fw/AsicFwS2/src/calibclasses.cpp ****         Matrix3x3f{   m->real_camera_orientation->x00,m->real_camera_orientation->x01,m->real_camer
 1633              		.loc 4 181 0
 1634 0044 D3F810A0 		ldr	r10, [r3, #16]	@ float
 1635              		.loc 4 190 0
 1636 0048 D8BF     		it	le
 1637 004a 0027     		movle	r7, #0
 181:/home/tienluong/workspace/atlantis_fw/AsicFwS2/src/calibclasses.cpp ****         Matrix3x3f{   m->real_camera_orientation->x00,m->real_camera_orientation->x01,m->real_camer
 1638              		.loc 4 181 0
 1639 004c D3F81490 		ldr	r9, [r3, #20]	@ float
 1640              	.LVL184:
 1641              		.loc 4 190 0
 1642 0050 C8BF     		it	gt
 1643 0052 0127     		movgt	r7, #1
 181:/home/tienluong/workspace/atlantis_fw/AsicFwS2/src/calibclasses.cpp ****         Matrix3x3f{   m->real_camera_orientation->x00,m->real_camera_orientation->x01,m->real_camer
 1644              		.loc 4 181 0
 1645 0054 AB69     		ldr	r3, [r5, #24]
 1646 0056 D3F80C80 		ldr	r8, [r3, #12]	@ float
 1647 005a 1A69     		ldr	r2, [r3, #16]	@ float
 1648 005c 5B69     		ldr	r3, [r3, #20]	@ float
 1649 005e 0293     		str	r3, [sp, #8]	@ float
 1650              	.LVL185:
 1651 0060 6B69     		ldr	r3, [r5, #20]
 1652              	.LVL186:
 1653 0062 0192     		str	r2, [sp, #4]	@ float
 1654              	.LVL187:
 1655 0064 DA68     		ldr	r2, [r3, #12]	@ float
 1656 0066 0392     		str	r2, [sp, #12]	@ float
 1657 0068 1A69     		ldr	r2, [r3, #16]	@ float
 1658 006a 5B69     		ldr	r3, [r3, #20]	@ float
 1659 006c 0593     		str	r3, [sp, #20]	@ float
 1660              	.LVL188:
 1661 006e 2B6A     		ldr	r3, [r5, #32]
 1662              	.LVL189:
 1663 0070 0492     		str	r2, [sp, #16]	@ float
 1664              	.LVL190:
 1665 0072 DA68     		ldr	r2, [r3, #12]	@ float
 1666 0074 0692     		str	r2, [sp, #24]	@ float
 1667 0076 1A69     		ldr	r2, [r3, #16]	@ float
 1668 0078 5B69     		ldr	r3, [r3, #20]	@ float
 1669 007a 0893     		str	r3, [sp, #32]	@ float
 1670              	.LVL191:
 1671 007c EB69     		ldr	r3, [r5, #28]	@ float
 1672              	.LVL192:
 1673 007e 0993     		str	r3, [sp, #36]	@ float
 1674 0080 AB6A     		ldr	r3, [r5, #40]
 1675              	.LBB1428:
 1676              	.LBB1424:
 1677              		.loc 3 31 0
 1678 0082 13AD     		add	r5, sp, #76
 1679              	.LVL193:
 1680              	.LBE1424:
 1681              	.LBE1428:
 181:/home/tienluong/workspace/atlantis_fw/AsicFwS2/src/calibclasses.cpp ****         Matrix3x3f{   m->real_camera_orientation->x00,m->real_camera_orientation->x01,m->real_camer
 1682              		.loc 4 181 0
 1683 0084 0792     		str	r2, [sp, #28]	@ float
 1684              	.LVL194:
 1685 0086 D3F80CC0 		ldr	ip, [r3, #12]	@ float
 1686 008a D3F810E0 		ldr	lr, [r3, #16]	@ float
 1687              	.LVL195:
 1688              	.LBB1429:
 1689              	.LBB1425:
 1690              		.loc 3 31 0
 1691 008e 0FCD     		ldmia	r5!, {r0, r1, r2, r3}
 1692              	.LVL196:
 1693 0090 0FC6     		stmia	r6!, {r0, r1, r2, r3}
 1694 0092 0FCD     		ldmia	r5!, {r0, r1, r2, r3}
 1695              	.LVL197:
 1696 0094 0FC6     		stmia	r6!, {r0, r1, r2, r3}
 1697 0096 2B68     		ldr	r3, [r5]
 1698 0098 3360     		str	r3, [r6]
 1699              	.LVL198:
 1700              	.LBB1410:
 1701              	.LBB1411:
 239:/home/tienluong/workspace/atlantis_fw/AsicFwS2/include/matrix.h **** 
 1702              		.loc 2 239 0
 1703 009a 019B     		ldr	r3, [sp, #4]	@ float
 1704 009c 6363     		str	r3, [r4, #52]	@ float
 1705 009e 029B     		ldr	r3, [sp, #8]	@ float
 1706 00a0 A363     		str	r3, [r4, #56]	@ float
 1707              	.LBE1411:
 1708              	.LBE1410:
 1709              	.LBB1413:
 1710              	.LBB1414:
 1711 00a2 039B     		ldr	r3, [sp, #12]	@ float
 1712 00a4 E363     		str	r3, [r4, #60]	@ float
 1713 00a6 049B     		ldr	r3, [sp, #16]	@ float
 1714 00a8 2364     		str	r3, [r4, #64]	@ float
 1715 00aa 059B     		ldr	r3, [sp, #20]	@ float
 1716 00ac 6364     		str	r3, [r4, #68]	@ float
 1717              	.LBE1414:
 1718              	.LBE1413:
 1719              	.LBB1415:
 1720              	.LBB1416:
 1721 00ae 069B     		ldr	r3, [sp, #24]	@ float
 1722 00b0 A364     		str	r3, [r4, #72]	@ float
 1723 00b2 079B     		ldr	r3, [sp, #28]	@ float
 1724              	.LBE1416:
 1725              	.LBE1415:
 1726              	.LBB1418:
 1727              	.LBB1419:
 1728 00b4 C4F824B0 		str	fp, [r4, #36]	@ float
 1729 00b8 C4F828A0 		str	r10, [r4, #40]	@ float
 1730 00bc C4F82C90 		str	r9, [r4, #44]	@ float
 1731              	.LVL199:
 1732              	.LBE1419:
 1733              	.LBE1418:
 1734              	.LBB1420:
 1735              	.LBB1412:
 1736 00c0 C4F83080 		str	r8, [r4, #48]	@ float
 1737              	.LBE1412:
 1738              	.LBE1420:
 1739              	.LBB1421:
 1740              	.LBB1417:
 1741 00c4 E364     		str	r3, [r4, #76]	@ float
 1742 00c6 089B     		ldr	r3, [sp, #32]	@ float
 1743 00c8 2365     		str	r3, [r4, #80]	@ float
 1744              	.LBE1417:
 1745              	.LBE1421:
 1746              		.loc 3 31 0
 1747 00ca 099B     		ldr	r3, [sp, #36]	@ float
 1748 00cc 6365     		str	r3, [r4, #84]	@ float
 1749 00ce 84F85870 		strb	r7, [r4, #88]
 1750              	.LVL200:
 1751              	.LBB1422:
 1752              	.LBB1423:
  34:/home/tienluong/workspace/atlantis_fw/AsicFwS2/include/matrix.h **** 
 1753              		.loc 2 34 0
 1754 00d2 C4F85CC0 		str	ip, [r4, #92]	@ float
 1755 00d6 C4F860E0 		str	lr, [r4, #96]	@ float
 1756              	.LBE1423:
 1757              	.LBE1422:
 1758              	.LBE1425:
 1759              	.LBE1429:
 191:/home/tienluong/workspace/atlantis_fw/AsicFwS2/src/calibclasses.cpp ****         Vec2f{m->mirror_angle_range->min_val, m->mirror_angle_range->max_val}
 192:/home/tienluong/workspace/atlantis_fw/AsicFwS2/src/calibclasses.cpp ****     });
 193:/home/tienluong/workspace/atlantis_fw/AsicFwS2/src/calibclasses.cpp **** }
 1760              		.loc 4 193 0
 1761 00da 2DB0     		add	sp, sp, #180
 1762              	.LCFI21:
 1763              		.cfi_def_cfa_offset 36
 1764              		@ sp needed
 1765 00dc BDE8F08F 		pop	{r4, r5, r6, r7, r8, r9, r10, fp, pc}
 1766              	.LVL201:
 1767              	.L66:
 1768              		.align	2
 1769              	.L65:
 1770 00e0 00000000 		.word	_ZN4ltaf6MatrixIfLi3ELi3ELb1EEaSESt16initializer_listIfE.isra.6
 1771              		.cfi_endproc
 1772              	.LFE3344:
 1774              		.section	.text._ZN4ltaf16CalibDataManager26parseMirrorActuatorMappingEPK28_Ltpb__MirrorActuatorMap
 1775              		.align	1
 1776              		.global	_ZN4ltaf16CalibDataManager26parseMirrorActuatorMappingEPK28_Ltpb__MirrorActuatorMappingRNS
 1777              		.thumb
 1778              		.thumb_func
 1780              	_ZN4ltaf16CalibDataManager26parseMirrorActuatorMappingEPK28_Ltpb__MirrorActuatorMappingRNS_21Mirror
 1781              	.LFB3349:
 194:/home/tienluong/workspace/atlantis_fw/AsicFwS2/src/calibclasses.cpp **** 
 195:/home/tienluong/workspace/atlantis_fw/AsicFwS2/src/calibclasses.cpp **** 
 196:/home/tienluong/workspace/atlantis_fw/AsicFwS2/src/calibclasses.cpp **** void CalibDataManager::parseMirrorActuatorMapping(const Ltpb__MirrorActuatorMapping * m, MirrorActu
 1782              		.loc 4 196 0
 1783              		.cfi_startproc
 1784              		@ args = 0, pretend = 0, frame = 0
 1785              		@ frame_needed = 0, uses_anonymous_args = 0
 1786              	.LVL202:
 197:/home/tienluong/workspace/atlantis_fw/AsicFwS2/src/calibclasses.cpp ****     mam = MirrorActuatorMapping({
 198:/home/tienluong/workspace/atlantis_fw/AsicFwS2/src/calibclasses.cpp ****         m->actuator_length_offset, m->actuator_length_scale, m->mirror_angle_offset, m->mirror_angl
 199:/home/tienluong/workspace/atlantis_fw/AsicFwS2/src/calibclasses.cpp ****         m->quadratic_model->model_coeffs[3], m->quadratic_model->model_coeffs[4], m->quadratic_mode
 1787              		.loc 4 199 0
 1788 0000 886A     		ldr	r0, [r1, #40]
 1789              	.LVL203:
