   1              		.syntax unified
   2              		.cpu cortex-r4
   3              		.fpu softvfp
   4              		.eabi_attribute 20, 1
   5              		.eabi_attribute 21, 1
   6              		.eabi_attribute 23, 3
   7              		.eabi_attribute 24, 1
   8              		.eabi_attribute 25, 1
   9              		.eabi_attribute 26, 1
  10              		.eabi_attribute 30, 4
  11              		.eabi_attribute 34, 1
  12              		.eabi_attribute 18, 4
  13              		.thumb
  14              		.file	"calib_data_manager.cpp"
  15              		.text
  16              	.Ltext0:
  17              		.cfi_sections	.debug_frame
  18              		.section	.text._ZN12_GLOBAL__N_19free_pbufEPvS0_,"ax",%progbits
  19              		.align	1
  20              		.thumb
  21              		.thumb_func
  23              	_ZN12_GLOBAL__N_19free_pbufEPvS0_:
  24              	.LFB3527:
  25              		.file 1 "/home/tienluong/workspace/atlantis_fw/AsicFwS2/src/calib_data_manager.cpp"
   1:/home/tienluong/workspace/atlantis_fw/AsicFwS2/src/calib_data_manager.cpp **** /*******************************************************************************
   2:/home/tienluong/workspace/atlantis_fw/AsicFwS2/src/calib_data_manager.cpp ****  * Copyright (c) 2016, The LightCo
   3:/home/tienluong/workspace/atlantis_fw/AsicFwS2/src/calib_data_manager.cpp ****  * All rights reserved.
   4:/home/tienluong/workspace/atlantis_fw/AsicFwS2/src/calib_data_manager.cpp ****  * Redistribution and use in source and binary forms, with or without
   5:/home/tienluong/workspace/atlantis_fw/AsicFwS2/src/calib_data_manager.cpp ****  * modification, are strictly prohibited without prior permission
   6:/home/tienluong/workspace/atlantis_fw/AsicFwS2/src/calib_data_manager.cpp ****  * of The LightCo.
   7:/home/tienluong/workspace/atlantis_fw/AsicFwS2/src/calib_data_manager.cpp ****  *
   8:/home/tienluong/workspace/atlantis_fw/AsicFwS2/src/calib_data_manager.cpp ****  * @file    calib_data_manager.cpp
   9:/home/tienluong/workspace/atlantis_fw/AsicFwS2/src/calib_data_manager.cpp ****  * @author  The LightCo
  10:/home/tienluong/workspace/atlantis_fw/AsicFwS2/src/calib_data_manager.cpp ****  * @version V1.0.0
  11:/home/tienluong/workspace/atlantis_fw/AsicFwS2/src/calib_data_manager.cpp ****  * @date    Oct-8-2016
  12:/home/tienluong/workspace/atlantis_fw/AsicFwS2/src/calib_data_manager.cpp ****  * @brief   Calibration data manager singleton
  13:/home/tienluong/workspace/atlantis_fw/AsicFwS2/src/calib_data_manager.cpp ****  *
  14:/home/tienluong/workspace/atlantis_fw/AsicFwS2/src/calib_data_manager.cpp ****  ******************************************************************************/
  15:/home/tienluong/workspace/atlantis_fw/AsicFwS2/src/calib_data_manager.cpp **** 
  16:/home/tienluong/workspace/atlantis_fw/AsicFwS2/src/calib_data_manager.cpp **** #include "log.h"
  17:/home/tienluong/workspace/atlantis_fw/AsicFwS2/src/calib_data_manager.cpp **** #include "operator_new.h"
  18:/home/tienluong/workspace/atlantis_fw/AsicFwS2/src/calib_data_manager.cpp **** #include "light_system.h"
  19:/home/tienluong/workspace/atlantis_fw/AsicFwS2/src/calib_data_manager.cpp **** #include "ddr_heap.h"
  20:/home/tienluong/workspace/atlantis_fw/AsicFwS2/src/calib_data_manager.cpp **** #include "calib_data_manager.h"
  21:/home/tienluong/workspace/atlantis_fw/AsicFwS2/src/calib_data_manager.cpp **** 
  22:/home/tienluong/workspace/atlantis_fw/AsicFwS2/src/calib_data_manager.cpp **** #define SLOGF_ID                SLOG_ID_AF
  23:/home/tienluong/workspace/atlantis_fw/AsicFwS2/src/calib_data_manager.cpp **** 
  24:/home/tienluong/workspace/atlantis_fw/AsicFwS2/src/calib_data_manager.cpp **** 
  25:/home/tienluong/workspace/atlantis_fw/AsicFwS2/src/calib_data_manager.cpp **** extern "C" void initialize_calib_data_manager(void) {
  26:/home/tienluong/workspace/atlantis_fw/AsicFwS2/src/calib_data_manager.cpp ****     calib_data_manager::initialize_instance();
  27:/home/tienluong/workspace/atlantis_fw/AsicFwS2/src/calib_data_manager.cpp **** }
  28:/home/tienluong/workspace/atlantis_fw/AsicFwS2/src/calib_data_manager.cpp **** 
  29:/home/tienluong/workspace/atlantis_fw/AsicFwS2/src/calib_data_manager.cpp **** 
  30:/home/tienluong/workspace/atlantis_fw/AsicFwS2/src/calib_data_manager.cpp **** std::unique_ptr<calib_data_manager> calib_data_manager::instance_{};
  31:/home/tienluong/workspace/atlantis_fw/AsicFwS2/src/calib_data_manager.cpp **** 
  32:/home/tienluong/workspace/atlantis_fw/AsicFwS2/src/calib_data_manager.cpp **** calib_data_manager& calib_data_manager::instance() {
  33:/home/tienluong/workspace/atlantis_fw/AsicFwS2/src/calib_data_manager.cpp ****     return *instance_;
  34:/home/tienluong/workspace/atlantis_fw/AsicFwS2/src/calib_data_manager.cpp **** }
  35:/home/tienluong/workspace/atlantis_fw/AsicFwS2/src/calib_data_manager.cpp **** 
  36:/home/tienluong/workspace/atlantis_fw/AsicFwS2/src/calib_data_manager.cpp **** namespace {
  37:/home/tienluong/workspace/atlantis_fw/AsicFwS2/src/calib_data_manager.cpp ****     void* alloc_pbuf(void *allocator_data, size_t size) {
  38:/home/tienluong/workspace/atlantis_fw/AsicFwS2/src/calib_data_manager.cpp ****         return gen_pvPortMalloc(static_cast<heap_attribute_t*>(allocator_data), size);
  39:/home/tienluong/workspace/atlantis_fw/AsicFwS2/src/calib_data_manager.cpp ****     }
  40:/home/tienluong/workspace/atlantis_fw/AsicFwS2/src/calib_data_manager.cpp **** 
  41:/home/tienluong/workspace/atlantis_fw/AsicFwS2/src/calib_data_manager.cpp ****     void free_pbuf(void *allocator_data, void *pointer) {
  26              		.loc 1 41 0
  27              		.cfi_startproc
  28              		@ args = 0, pretend = 0, frame = 0
  29              		@ frame_needed = 0, uses_anonymous_args = 0
  30              	.LVL0:
  31 0000 10B5     		push	{r4, lr}
  32              	.LCFI0:
  33              		.cfi_def_cfa_offset 8
  34              		.cfi_offset 4, -8
  35              		.cfi_offset 14, -4
  36              	.LBB509:
  42:/home/tienluong/workspace/atlantis_fw/AsicFwS2/src/calib_data_manager.cpp ****         gen_vPortFree(static_cast<heap_attribute_t*>(allocator_data), pointer);
  37              		.loc 1 42 0
  38 0002 024A     		ldr	r2, .L2
  39 0004 2A23     		movs	r3, #42
  40 0006 024C     		ldr	r4, .L2+4
  41 0008 A047     		blx	r4
  42              	.LVL1:
  43 000a 10BD     		pop	{r4, pc}
  44              	.L3:
  45              		.align	2
  46              	.L2:
  47 000c 00000000 		.word	.LANCHOR0
  48 0010 00000000 		.word	gen_vPortFree1
  49              	.LBE509:
  50              		.cfi_endproc
  51              	.LFE3527:
  53              		.section	.text._ZN12_GLOBAL__N_110alloc_pbufEPvj,"ax",%progbits
  54              		.align	1
  55              		.thumb
  56              		.thumb_func
  58              	_ZN12_GLOBAL__N_110alloc_pbufEPvj:
  59              	.LFB3526:
  37:/home/tienluong/workspace/atlantis_fw/AsicFwS2/src/calib_data_manager.cpp ****         return gen_pvPortMalloc(static_cast<heap_attribute_t*>(allocator_data), size);
  60              		.loc 1 37 0
  61              		.cfi_startproc
  62              		@ args = 0, pretend = 0, frame = 0
  63              		@ frame_needed = 0, uses_anonymous_args = 0
  64              	.LVL2:
  65 0000 10B5     		push	{r4, lr}
  66              	.LCFI1:
  67              		.cfi_def_cfa_offset 8
  68              		.cfi_offset 4, -8
  69              		.cfi_offset 14, -4
  70              	.LBB510:
  38:/home/tienluong/workspace/atlantis_fw/AsicFwS2/src/calib_data_manager.cpp ****     }
  71              		.loc 1 38 0
  72 0002 024A     		ldr	r2, .L5
  73 0004 2623     		movs	r3, #38
  74 0006 024C     		ldr	r4, .L5+4
  75 0008 A047     		blx	r4
  76              	.LVL3:
  77              	.LBE510:
  39:/home/tienluong/workspace/atlantis_fw/AsicFwS2/src/calib_data_manager.cpp **** 
  78              		.loc 1 39 0
  79 000a 10BD     		pop	{r4, pc}
  80              	.L6:
  81              		.align	2
  82              	.L5:
  83 000c 00000000 		.word	.LANCHOR1
  84 0010 00000000 		.word	gen_pvPortMalloc1
  85              		.cfi_endproc
  86              	.LFE3526:
  88              		.global	__aeabi_fmul
  89              		.global	__aeabi_fsub
  90              		.global	__aeabi_fdiv
  91              		.section	.text._ZNK4ltaf20SquareMatrixInverterIfLi2EE3runEPf.isra.0,"ax",%progbits
  92              		.align	1
  93              		.thumb
  94              		.thumb_func
  96              	_ZNK4ltaf20SquareMatrixInverterIfLi2EE3runEPf.isra.0:
  97              	.LFB3883:
  98              		.file 2 "/home/tienluong/workspace/atlantis_fw/AsicFwS2/include/matrix.h"
   1:/home/tienluong/workspace/atlantis_fw/AsicFwS2/include/matrix.h **** // we want to have support for the following:
   2:/home/tienluong/workspace/atlantis_fw/AsicFwS2/include/matrix.h **** // matrix3x3f, matrix4x4f, vec2f, vec3f, vec4f
   3:/home/tienluong/workspace/atlantis_fw/AsicFwS2/include/matrix.h **** // plus, minus, multiplication, inverse, transpose
   4:/home/tienluong/workspace/atlantis_fw/AsicFwS2/include/matrix.h **** 
   5:/home/tienluong/workspace/atlantis_fw/AsicFwS2/include/matrix.h **** #ifndef __MATRIX_H__
   6:/home/tienluong/workspace/atlantis_fw/AsicFwS2/include/matrix.h **** #define __MATRIX_H__
   7:/home/tienluong/workspace/atlantis_fw/AsicFwS2/include/matrix.h **** 
   8:/home/tienluong/workspace/atlantis_fw/AsicFwS2/include/matrix.h **** #ifdef __cplusplus
   9:/home/tienluong/workspace/atlantis_fw/AsicFwS2/include/matrix.h **** 
  10:/home/tienluong/workspace/atlantis_fw/AsicFwS2/include/matrix.h **** #include <cstdlib>
  11:/home/tienluong/workspace/atlantis_fw/AsicFwS2/include/matrix.h **** #include <algorithm> // has compile problem...
  12:/home/tienluong/workspace/atlantis_fw/AsicFwS2/include/matrix.h **** #include <cmath>
  13:/home/tienluong/workspace/atlantis_fw/AsicFwS2/include/matrix.h **** 
  14:/home/tienluong/workspace/atlantis_fw/AsicFwS2/include/matrix.h **** namespace ltaf { // lt auto focus
  15:/home/tienluong/workspace/atlantis_fw/AsicFwS2/include/matrix.h **** 
  16:/home/tienluong/workspace/atlantis_fw/AsicFwS2/include/matrix.h **** // -----------------------------------------------------------
  17:/home/tienluong/workspace/atlantis_fw/AsicFwS2/include/matrix.h **** // 			Vec2 class
  18:/home/tienluong/workspace/atlantis_fw/AsicFwS2/include/matrix.h **** // -----------------------------------------------------------
  19:/home/tienluong/workspace/atlantis_fw/AsicFwS2/include/matrix.h **** template<typename T>
  20:/home/tienluong/workspace/atlantis_fw/AsicFwS2/include/matrix.h **** class Vec2
  21:/home/tienluong/workspace/atlantis_fw/AsicFwS2/include/matrix.h **** {
  22:/home/tienluong/workspace/atlantis_fw/AsicFwS2/include/matrix.h **** public:
  23:/home/tienluong/workspace/atlantis_fw/AsicFwS2/include/matrix.h ****     Vec2() {}
  24:/home/tienluong/workspace/atlantis_fw/AsicFwS2/include/matrix.h ****     Vec2( T t ) : _x( t ), _y( t ) {}
  25:/home/tienluong/workspace/atlantis_fw/AsicFwS2/include/matrix.h ****     Vec2( T x, T y ) : _x( x ), _y( y ) {}
  26:/home/tienluong/workspace/atlantis_fw/AsicFwS2/include/matrix.h ****     Vec2( const Vec2 & t ) : _x( t._x ), _y( t._y ) {}
  27:/home/tienluong/workspace/atlantis_fw/AsicFwS2/include/matrix.h **** 
  28:/home/tienluong/workspace/atlantis_fw/AsicFwS2/include/matrix.h ****     template<typename U>
  29:/home/tienluong/workspace/atlantis_fw/AsicFwS2/include/matrix.h ****     explicit Vec2( const Vec2<U> & t )
  30:/home/tienluong/workspace/atlantis_fw/AsicFwS2/include/matrix.h ****         : _x( static_cast<T>( t.x() ) )
  31:/home/tienluong/workspace/atlantis_fw/AsicFwS2/include/matrix.h ****         , _y( static_cast<T>( t.y() ) ) {}
  32:/home/tienluong/workspace/atlantis_fw/AsicFwS2/include/matrix.h **** 
  33:/home/tienluong/workspace/atlantis_fw/AsicFwS2/include/matrix.h ****     Vec2 & operator=( const Vec2 & t )
  34:/home/tienluong/workspace/atlantis_fw/AsicFwS2/include/matrix.h ****     { _x = t._x; _y = t._y; return *this; }
  35:/home/tienluong/workspace/atlantis_fw/AsicFwS2/include/matrix.h **** 
  36:/home/tienluong/workspace/atlantis_fw/AsicFwS2/include/matrix.h ****     Vec2 & operator/=( const Vec2 & t )
  37:/home/tienluong/workspace/atlantis_fw/AsicFwS2/include/matrix.h ****     { _x /= t._x; _y /= t._y; return *this; }
  38:/home/tienluong/workspace/atlantis_fw/AsicFwS2/include/matrix.h **** 
  39:/home/tienluong/workspace/atlantis_fw/AsicFwS2/include/matrix.h ****     Vec2 & operator%=( const Vec2 & t )
  40:/home/tienluong/workspace/atlantis_fw/AsicFwS2/include/matrix.h ****     { _x %= t._x; _y %= t._y; return *this; }
  41:/home/tienluong/workspace/atlantis_fw/AsicFwS2/include/matrix.h **** 
  42:/home/tienluong/workspace/atlantis_fw/AsicFwS2/include/matrix.h ****     Vec2 & operator*=( const Vec2 & t )
  43:/home/tienluong/workspace/atlantis_fw/AsicFwS2/include/matrix.h ****     { _x *= t._x; _y *= t._y; return *this; }
  44:/home/tienluong/workspace/atlantis_fw/AsicFwS2/include/matrix.h **** 
  45:/home/tienluong/workspace/atlantis_fw/AsicFwS2/include/matrix.h ****     Vec2 & operator+=( const Vec2 & t )
  46:/home/tienluong/workspace/atlantis_fw/AsicFwS2/include/matrix.h ****     { _x += t._x; _y += t._y; return *this; }
  47:/home/tienluong/workspace/atlantis_fw/AsicFwS2/include/matrix.h **** 
  48:/home/tienluong/workspace/atlantis_fw/AsicFwS2/include/matrix.h ****     Vec2 & operator-=( const Vec2 & t )
  49:/home/tienluong/workspace/atlantis_fw/AsicFwS2/include/matrix.h ****     { _x -= t._x; _y -= t._y; return *this; }
  50:/home/tienluong/workspace/atlantis_fw/AsicFwS2/include/matrix.h **** 
  51:/home/tienluong/workspace/atlantis_fw/AsicFwS2/include/matrix.h ****     Vec2 & operator&=( const Vec2 & t )
  52:/home/tienluong/workspace/atlantis_fw/AsicFwS2/include/matrix.h ****     { _x &= t._x; _y &= t._y; return *this; }
  53:/home/tienluong/workspace/atlantis_fw/AsicFwS2/include/matrix.h **** 
  54:/home/tienluong/workspace/atlantis_fw/AsicFwS2/include/matrix.h ****     Vec2 & operator|=( const Vec2 & t )
  55:/home/tienluong/workspace/atlantis_fw/AsicFwS2/include/matrix.h ****     { _x |= t._x; _y |= t._y; return *this; }
  56:/home/tienluong/workspace/atlantis_fw/AsicFwS2/include/matrix.h **** 
  57:/home/tienluong/workspace/atlantis_fw/AsicFwS2/include/matrix.h ****     Vec2 & operator>>=( int t )
  58:/home/tienluong/workspace/atlantis_fw/AsicFwS2/include/matrix.h ****     { _x >>= t; _y >>= t; return *this; }
  59:/home/tienluong/workspace/atlantis_fw/AsicFwS2/include/matrix.h **** 
  60:/home/tienluong/workspace/atlantis_fw/AsicFwS2/include/matrix.h ****     Vec2 & operator<<=( int t )
  61:/home/tienluong/workspace/atlantis_fw/AsicFwS2/include/matrix.h ****     { _x <<= t; _y <<= t; return *this; }
  62:/home/tienluong/workspace/atlantis_fw/AsicFwS2/include/matrix.h **** 
  63:/home/tienluong/workspace/atlantis_fw/AsicFwS2/include/matrix.h ****     Vec2 operator-() const { return { -_x, -_y}; }
  64:/home/tienluong/workspace/atlantis_fw/AsicFwS2/include/matrix.h **** 
  65:/home/tienluong/workspace/atlantis_fw/AsicFwS2/include/matrix.h ****     template<typename U> Vec2<typename std::common_type<T, U>::type>
  66:/home/tienluong/workspace/atlantis_fw/AsicFwS2/include/matrix.h ****     operator+( const Vec2<U> & t ) const { return { _x + t.x(), _y + t.y() }; }
  67:/home/tienluong/workspace/atlantis_fw/AsicFwS2/include/matrix.h **** 
  68:/home/tienluong/workspace/atlantis_fw/AsicFwS2/include/matrix.h ****     template<typename U> Vec2<typename std::common_type<T, U>::type>
  69:/home/tienluong/workspace/atlantis_fw/AsicFwS2/include/matrix.h ****     operator-( const Vec2<U> & t ) const { return { _x - t.x(), _y - t.y() }; }
  70:/home/tienluong/workspace/atlantis_fw/AsicFwS2/include/matrix.h **** 
  71:/home/tienluong/workspace/atlantis_fw/AsicFwS2/include/matrix.h ****     template<typename U> Vec2<typename std::common_type<T, U>::type>
  72:/home/tienluong/workspace/atlantis_fw/AsicFwS2/include/matrix.h ****     operator*( const Vec2<U> & t ) const { return { _x * t.x(), _y * t.y() }; }
  73:/home/tienluong/workspace/atlantis_fw/AsicFwS2/include/matrix.h **** 
  74:/home/tienluong/workspace/atlantis_fw/AsicFwS2/include/matrix.h ****     template<typename U> Vec2<typename std::common_type<T, U>::type>
  75:/home/tienluong/workspace/atlantis_fw/AsicFwS2/include/matrix.h ****     operator/( const Vec2<U> & t ) const { return { _x / t.x(), _y / t.y() }; }
  76:/home/tienluong/workspace/atlantis_fw/AsicFwS2/include/matrix.h **** 
  77:/home/tienluong/workspace/atlantis_fw/AsicFwS2/include/matrix.h ****     template < typename U,
  78:/home/tienluong/workspace/atlantis_fw/AsicFwS2/include/matrix.h ****                typename = typename std::enable_if < std::is_integral<T>::value && std::is_integral<
  79:/home/tienluong/workspace/atlantis_fw/AsicFwS2/include/matrix.h ****     Vec2<typename std::common_type<T, U>::type>
  80:/home/tienluong/workspace/atlantis_fw/AsicFwS2/include/matrix.h ****     operator%( const Vec2<U> & t ) const { return { _x % t.x(), _y % t.y() }; }
  81:/home/tienluong/workspace/atlantis_fw/AsicFwS2/include/matrix.h **** 
  82:/home/tienluong/workspace/atlantis_fw/AsicFwS2/include/matrix.h ****     template < typename U,
  83:/home/tienluong/workspace/atlantis_fw/AsicFwS2/include/matrix.h ****                typename = typename std::enable_if < std::is_arithmetic<U>::value >::type >
  84:/home/tienluong/workspace/atlantis_fw/AsicFwS2/include/matrix.h ****     Vec2<typename std::common_type<T, U>::type>
  85:/home/tienluong/workspace/atlantis_fw/AsicFwS2/include/matrix.h ****     operator+( U t ) const { return { _x + t, _y + t }; }
  86:/home/tienluong/workspace/atlantis_fw/AsicFwS2/include/matrix.h **** 
  87:/home/tienluong/workspace/atlantis_fw/AsicFwS2/include/matrix.h ****     template < typename U,
  88:/home/tienluong/workspace/atlantis_fw/AsicFwS2/include/matrix.h ****                typename = typename std::enable_if < std::is_arithmetic<U>::value >::type >
  89:/home/tienluong/workspace/atlantis_fw/AsicFwS2/include/matrix.h ****     Vec2<typename std::common_type<T, U>::type>
  90:/home/tienluong/workspace/atlantis_fw/AsicFwS2/include/matrix.h ****     operator-( U t ) const { return { _x - t, _y - t }; }
  91:/home/tienluong/workspace/atlantis_fw/AsicFwS2/include/matrix.h **** 
  92:/home/tienluong/workspace/atlantis_fw/AsicFwS2/include/matrix.h ****     template < typename U,
  93:/home/tienluong/workspace/atlantis_fw/AsicFwS2/include/matrix.h ****                typename = typename std::enable_if < std::is_arithmetic<U>::value >::type >
  94:/home/tienluong/workspace/atlantis_fw/AsicFwS2/include/matrix.h ****     Vec2<typename std::common_type<T, U>::type>
  95:/home/tienluong/workspace/atlantis_fw/AsicFwS2/include/matrix.h ****     operator*( U t ) const { return { _x * t, _y * t }; }
  96:/home/tienluong/workspace/atlantis_fw/AsicFwS2/include/matrix.h **** 
  97:/home/tienluong/workspace/atlantis_fw/AsicFwS2/include/matrix.h ****     template < typename U,
  98:/home/tienluong/workspace/atlantis_fw/AsicFwS2/include/matrix.h ****                typename = typename std::enable_if < std::is_arithmetic<U>::value >::type >
  99:/home/tienluong/workspace/atlantis_fw/AsicFwS2/include/matrix.h ****     Vec2<typename std::common_type<T, U>::type>
 100:/home/tienluong/workspace/atlantis_fw/AsicFwS2/include/matrix.h ****     operator/( U t ) const { return { _x / t, _y / t }; }
 101:/home/tienluong/workspace/atlantis_fw/AsicFwS2/include/matrix.h **** 
 102:/home/tienluong/workspace/atlantis_fw/AsicFwS2/include/matrix.h ****     template < typename U,
 103:/home/tienluong/workspace/atlantis_fw/AsicFwS2/include/matrix.h ****                typename = typename std::enable_if < std::is_integral<T>::value && std::is_integral<
 104:/home/tienluong/workspace/atlantis_fw/AsicFwS2/include/matrix.h ****     Vec2<typename std::common_type<T, U>::type>
 105:/home/tienluong/workspace/atlantis_fw/AsicFwS2/include/matrix.h ****     operator%( U t ) const { return { _x % t, _y % t }; }
 106:/home/tienluong/workspace/atlantis_fw/AsicFwS2/include/matrix.h **** 
 107:/home/tienluong/workspace/atlantis_fw/AsicFwS2/include/matrix.h ****     T min() const { return std::min( _x, _y ); }
 108:/home/tienluong/workspace/atlantis_fw/AsicFwS2/include/matrix.h ****     T max() const { return std::max( _x, _y ); }
 109:/home/tienluong/workspace/atlantis_fw/AsicFwS2/include/matrix.h ****     T sum() const { return _x + _y; }
 110:/home/tienluong/workspace/atlantis_fw/AsicFwS2/include/matrix.h ****     T dot( const Vec2<T> & t ) const { return _x * t.x() + _y * t.y(); }
 111:/home/tienluong/workspace/atlantis_fw/AsicFwS2/include/matrix.h **** 
 112:/home/tienluong/workspace/atlantis_fw/AsicFwS2/include/matrix.h ****     Vec2 abs() const { return { std::abs( _x ), std::abs( _y ) }; }
 113:/home/tienluong/workspace/atlantis_fw/AsicFwS2/include/matrix.h ****     
 114:/home/tienluong/workspace/atlantis_fw/AsicFwS2/include/matrix.h ****     const T & x() const { return _x; }
 115:/home/tienluong/workspace/atlantis_fw/AsicFwS2/include/matrix.h ****     const T & y() const { return _y; }
 116:/home/tienluong/workspace/atlantis_fw/AsicFwS2/include/matrix.h **** 
 117:/home/tienluong/workspace/atlantis_fw/AsicFwS2/include/matrix.h ****     void setX( T x ) { _x = x; }
 118:/home/tienluong/workspace/atlantis_fw/AsicFwS2/include/matrix.h ****     void setY( T y ) { _y = y; }
 119:/home/tienluong/workspace/atlantis_fw/AsicFwS2/include/matrix.h **** 
 120:/home/tienluong/workspace/atlantis_fw/AsicFwS2/include/matrix.h **** private:
 121:/home/tienluong/workspace/atlantis_fw/AsicFwS2/include/matrix.h **** 	T _x, _y;
 122:/home/tienluong/workspace/atlantis_fw/AsicFwS2/include/matrix.h **** };
 123:/home/tienluong/workspace/atlantis_fw/AsicFwS2/include/matrix.h **** 
 124:/home/tienluong/workspace/atlantis_fw/AsicFwS2/include/matrix.h **** 
 125:/home/tienluong/workspace/atlantis_fw/AsicFwS2/include/matrix.h **** // basic add/sub/mul/div operators
 126:/home/tienluong/workspace/atlantis_fw/AsicFwS2/include/matrix.h **** template < typename T, typename U,
 127:/home/tienluong/workspace/atlantis_fw/AsicFwS2/include/matrix.h ****            typename = typename std::enable_if < std::is_arithmetic<T>::value >::type >
 128:/home/tienluong/workspace/atlantis_fw/AsicFwS2/include/matrix.h **** Vec2<typename std::common_type<T, U>::type>
 129:/home/tienluong/workspace/atlantis_fw/AsicFwS2/include/matrix.h **** operator+( T a, const Vec2<U> & b ) { return b + a; }
 130:/home/tienluong/workspace/atlantis_fw/AsicFwS2/include/matrix.h **** 
 131:/home/tienluong/workspace/atlantis_fw/AsicFwS2/include/matrix.h **** template < typename T, typename U,
 132:/home/tienluong/workspace/atlantis_fw/AsicFwS2/include/matrix.h ****            typename = typename std::enable_if < std::is_arithmetic<T>::value >::type >
 133:/home/tienluong/workspace/atlantis_fw/AsicFwS2/include/matrix.h **** Vec2<typename std::common_type<T, U>::type>
 134:/home/tienluong/workspace/atlantis_fw/AsicFwS2/include/matrix.h **** operator*( T a, const Vec2<U> & b ) { return b * a; }
 135:/home/tienluong/workspace/atlantis_fw/AsicFwS2/include/matrix.h **** 
 136:/home/tienluong/workspace/atlantis_fw/AsicFwS2/include/matrix.h **** template < typename T, typename U,
 137:/home/tienluong/workspace/atlantis_fw/AsicFwS2/include/matrix.h ****            typename = typename std::enable_if < std::is_arithmetic<T>::value >::type >
 138:/home/tienluong/workspace/atlantis_fw/AsicFwS2/include/matrix.h **** Vec2<typename std::common_type<T, U>::type>
 139:/home/tienluong/workspace/atlantis_fw/AsicFwS2/include/matrix.h **** operator-( T a, const Vec2<U> & b ) { return Vec2<T>( a ) - b; }
 140:/home/tienluong/workspace/atlantis_fw/AsicFwS2/include/matrix.h **** 
 141:/home/tienluong/workspace/atlantis_fw/AsicFwS2/include/matrix.h **** template < typename T, typename U,
 142:/home/tienluong/workspace/atlantis_fw/AsicFwS2/include/matrix.h ****            typename = typename std::enable_if < std::is_arithmetic<T>::value >::type >
 143:/home/tienluong/workspace/atlantis_fw/AsicFwS2/include/matrix.h **** Vec2<typename std::common_type<T, U>::type>
 144:/home/tienluong/workspace/atlantis_fw/AsicFwS2/include/matrix.h **** operator/( T a, const Vec2<U> & b ) { return Vec2<T>( a ) / b; }
 145:/home/tienluong/workspace/atlantis_fw/AsicFwS2/include/matrix.h **** 
 146:/home/tienluong/workspace/atlantis_fw/AsicFwS2/include/matrix.h **** // basic math functions
 147:/home/tienluong/workspace/atlantis_fw/AsicFwS2/include/matrix.h **** template<typename T>
 148:/home/tienluong/workspace/atlantis_fw/AsicFwS2/include/matrix.h **** T min( const Vec2<T> & t ) { return t.min(); }
 149:/home/tienluong/workspace/atlantis_fw/AsicFwS2/include/matrix.h **** 
 150:/home/tienluong/workspace/atlantis_fw/AsicFwS2/include/matrix.h **** template<typename T>
 151:/home/tienluong/workspace/atlantis_fw/AsicFwS2/include/matrix.h **** T max( const Vec2<T> & t ) { return t.max(); }
 152:/home/tienluong/workspace/atlantis_fw/AsicFwS2/include/matrix.h **** 
 153:/home/tienluong/workspace/atlantis_fw/AsicFwS2/include/matrix.h **** template<typename T>
 154:/home/tienluong/workspace/atlantis_fw/AsicFwS2/include/matrix.h **** T sum( const Vec2<T> & t ) { return t.sum(); }
 155:/home/tienluong/workspace/atlantis_fw/AsicFwS2/include/matrix.h **** 
 156:/home/tienluong/workspace/atlantis_fw/AsicFwS2/include/matrix.h **** template<typename T>
 157:/home/tienluong/workspace/atlantis_fw/AsicFwS2/include/matrix.h **** T dot( const Vec2<T> & a, const Vec2<T> & b ) { return a.dot( b ); }
 158:/home/tienluong/workspace/atlantis_fw/AsicFwS2/include/matrix.h **** 
 159:/home/tienluong/workspace/atlantis_fw/AsicFwS2/include/matrix.h **** template<typename T>
 160:/home/tienluong/workspace/atlantis_fw/AsicFwS2/include/matrix.h **** Vec2<T> min( const Vec2<T> & a, const Vec2<T> & b )
 161:/home/tienluong/workspace/atlantis_fw/AsicFwS2/include/matrix.h **** { return { std::min( a.x(), b.x() ), std::min( a.y(), b.y() ) }; }
 162:/home/tienluong/workspace/atlantis_fw/AsicFwS2/include/matrix.h **** 
 163:/home/tienluong/workspace/atlantis_fw/AsicFwS2/include/matrix.h **** template<typename T>
 164:/home/tienluong/workspace/atlantis_fw/AsicFwS2/include/matrix.h **** Vec2<T> abs( const Vec2<T> & t ) { return t.abs(); }
 165:/home/tienluong/workspace/atlantis_fw/AsicFwS2/include/matrix.h **** 
 166:/home/tienluong/workspace/atlantis_fw/AsicFwS2/include/matrix.h **** // template<typename T>
 167:/home/tienluong/workspace/atlantis_fw/AsicFwS2/include/matrix.h **** // Vec2<T> sign( const Vec2<T> & t ) { return t.sign(); }
 168:/home/tienluong/workspace/atlantis_fw/AsicFwS2/include/matrix.h **** 
 169:/home/tienluong/workspace/atlantis_fw/AsicFwS2/include/matrix.h **** template<typename T>
 170:/home/tienluong/workspace/atlantis_fw/AsicFwS2/include/matrix.h **** typename std::enable_if<std::is_floating_point<T>::value, T>::type
 171:/home/tienluong/workspace/atlantis_fw/AsicFwS2/include/matrix.h **** length( const Vec2<T> & a )
 172:/home/tienluong/workspace/atlantis_fw/AsicFwS2/include/matrix.h **** { return std::sqrt( dot( a, a ) ); }
 173:/home/tienluong/workspace/atlantis_fw/AsicFwS2/include/matrix.h **** 
 174:/home/tienluong/workspace/atlantis_fw/AsicFwS2/include/matrix.h **** template<typename T>
 175:/home/tienluong/workspace/atlantis_fw/AsicFwS2/include/matrix.h **** typename std::enable_if<std::is_floating_point<T>::value, Vec2<T> >::type
 176:/home/tienluong/workspace/atlantis_fw/AsicFwS2/include/matrix.h **** sqrt( const Vec2<T> & a )
 177:/home/tienluong/workspace/atlantis_fw/AsicFwS2/include/matrix.h **** { return { std::sqrt( a.x() ), std::sqrt( a.y() ) }; }
 178:/home/tienluong/workspace/atlantis_fw/AsicFwS2/include/matrix.h **** 
 179:/home/tienluong/workspace/atlantis_fw/AsicFwS2/include/matrix.h **** template<typename T>
 180:/home/tienluong/workspace/atlantis_fw/AsicFwS2/include/matrix.h **** typename std::enable_if<std::is_floating_point<T>::value, T>::type
 181:/home/tienluong/workspace/atlantis_fw/AsicFwS2/include/matrix.h **** squaredSum( const Vec2<T> & a )
 182:/home/tienluong/workspace/atlantis_fw/AsicFwS2/include/matrix.h **** { return dot( a, a ); }
 183:/home/tienluong/workspace/atlantis_fw/AsicFwS2/include/matrix.h **** 
 184:/home/tienluong/workspace/atlantis_fw/AsicFwS2/include/matrix.h **** template<typename T>
 185:/home/tienluong/workspace/atlantis_fw/AsicFwS2/include/matrix.h **** typename std::enable_if<std::is_floating_point<T>::value, Vec2<T> >::type
 186:/home/tienluong/workspace/atlantis_fw/AsicFwS2/include/matrix.h **** normalize( const Vec2<T> & a )
 187:/home/tienluong/workspace/atlantis_fw/AsicFwS2/include/matrix.h **** {
 188:/home/tienluong/workspace/atlantis_fw/AsicFwS2/include/matrix.h ****     return a / length( a );
 189:/home/tienluong/workspace/atlantis_fw/AsicFwS2/include/matrix.h **** }
 190:/home/tienluong/workspace/atlantis_fw/AsicFwS2/include/matrix.h **** 
 191:/home/tienluong/workspace/atlantis_fw/AsicFwS2/include/matrix.h **** // template<typename T>
 192:/home/tienluong/workspace/atlantis_fw/AsicFwS2/include/matrix.h **** // typename std::enable_if<std::is_floating_point<T>::value, Vec2<T> >::type
 193:/home/tienluong/workspace/atlantis_fw/AsicFwS2/include/matrix.h **** // pow( const Vec2<T> & a, const Vec2<T> & b )
 194:/home/tienluong/workspace/atlantis_fw/AsicFwS2/include/matrix.h **** // { return { std::pow( a.x(), b.x() ), std::pow( a.y(), b.y() ) }; }
 195:/home/tienluong/workspace/atlantis_fw/AsicFwS2/include/matrix.h **** 
 196:/home/tienluong/workspace/atlantis_fw/AsicFwS2/include/matrix.h **** // template<typename T>
 197:/home/tienluong/workspace/atlantis_fw/AsicFwS2/include/matrix.h **** // typename std::enable_if<std::is_floating_point<T>::value, Vec2<T> >::type
 198:/home/tienluong/workspace/atlantis_fw/AsicFwS2/include/matrix.h **** // pow( const Vec2<T> & a, T  b )
 199:/home/tienluong/workspace/atlantis_fw/AsicFwS2/include/matrix.h **** // { return { std::pow( a.x(), b ), std::pow( a.y(), b ) }; }
 200:/home/tienluong/workspace/atlantis_fw/AsicFwS2/include/matrix.h **** 
 201:/home/tienluong/workspace/atlantis_fw/AsicFwS2/include/matrix.h **** // template<typename T>
 202:/home/tienluong/workspace/atlantis_fw/AsicFwS2/include/matrix.h **** // typename std::enable_if<std::is_floating_point<T>::value, Vec2<T> >::type
 203:/home/tienluong/workspace/atlantis_fw/AsicFwS2/include/matrix.h **** // pow( T a, const Vec2<T> & b )
 204:/home/tienluong/workspace/atlantis_fw/AsicFwS2/include/matrix.h **** // { return { std::pow( a, b.x() ), std::pow( a, b.y() ) }; }
 205:/home/tienluong/workspace/atlantis_fw/AsicFwS2/include/matrix.h **** 
 206:/home/tienluong/workspace/atlantis_fw/AsicFwS2/include/matrix.h **** // template<typename T>
 207:/home/tienluong/workspace/atlantis_fw/AsicFwS2/include/matrix.h **** // typename std::enable_if<std::is_floating_point<T>::value, Vec2<T> >::type
 208:/home/tienluong/workspace/atlantis_fw/AsicFwS2/include/matrix.h **** // floor( const Vec2<T> & a )
 209:/home/tienluong/workspace/atlantis_fw/AsicFwS2/include/matrix.h **** // { return { std::floor( a.x() ), std::floor( a.y() ) }; }
 210:/home/tienluong/workspace/atlantis_fw/AsicFwS2/include/matrix.h **** 
 211:/home/tienluong/workspace/atlantis_fw/AsicFwS2/include/matrix.h **** // template<typename T>
 212:/home/tienluong/workspace/atlantis_fw/AsicFwS2/include/matrix.h **** // typename std::enable_if<std::is_floating_point<T>::value, Vec2<T> >::type
 213:/home/tienluong/workspace/atlantis_fw/AsicFwS2/include/matrix.h **** // ceil( const Vec2<T> & a )
 214:/home/tienluong/workspace/atlantis_fw/AsicFwS2/include/matrix.h **** // { return { std::ceil( a.x() ), std::ceil( a.y() ) }; }
 215:/home/tienluong/workspace/atlantis_fw/AsicFwS2/include/matrix.h **** 
 216:/home/tienluong/workspace/atlantis_fw/AsicFwS2/include/matrix.h **** 
 217:/home/tienluong/workspace/atlantis_fw/AsicFwS2/include/matrix.h **** 
 218:/home/tienluong/workspace/atlantis_fw/AsicFwS2/include/matrix.h **** 
 219:/home/tienluong/workspace/atlantis_fw/AsicFwS2/include/matrix.h **** 
 220:/home/tienluong/workspace/atlantis_fw/AsicFwS2/include/matrix.h **** // -----------------------------------------------------------
 221:/home/tienluong/workspace/atlantis_fw/AsicFwS2/include/matrix.h **** // 			Vec3 class
 222:/home/tienluong/workspace/atlantis_fw/AsicFwS2/include/matrix.h **** // -----------------------------------------------------------
 223:/home/tienluong/workspace/atlantis_fw/AsicFwS2/include/matrix.h **** template<typename T>
 224:/home/tienluong/workspace/atlantis_fw/AsicFwS2/include/matrix.h **** class Vec3
 225:/home/tienluong/workspace/atlantis_fw/AsicFwS2/include/matrix.h **** {
 226:/home/tienluong/workspace/atlantis_fw/AsicFwS2/include/matrix.h **** public:
 227:/home/tienluong/workspace/atlantis_fw/AsicFwS2/include/matrix.h ****     Vec3() {}
 228:/home/tienluong/workspace/atlantis_fw/AsicFwS2/include/matrix.h ****     Vec3( T t ) : _x( t ), _y( t ), _z( t ) {}
 229:/home/tienluong/workspace/atlantis_fw/AsicFwS2/include/matrix.h ****     Vec3( T x, T y, T z ) : _x( x ), _y( y ), _z( z ) {}
 230:/home/tienluong/workspace/atlantis_fw/AsicFwS2/include/matrix.h ****     Vec3( const Vec3 & t ) : _x( t._x ), _y( t._y ), _z( t._z ) {}
 231:/home/tienluong/workspace/atlantis_fw/AsicFwS2/include/matrix.h **** 
 232:/home/tienluong/workspace/atlantis_fw/AsicFwS2/include/matrix.h ****     template<typename U>
 233:/home/tienluong/workspace/atlantis_fw/AsicFwS2/include/matrix.h ****     explicit Vec3( const Vec3<U> & t )
 234:/home/tienluong/workspace/atlantis_fw/AsicFwS2/include/matrix.h ****         : _x( static_cast<T>( t.x() ) )
 235:/home/tienluong/workspace/atlantis_fw/AsicFwS2/include/matrix.h ****         , _y( static_cast<T>( t.y() ) )
 236:/home/tienluong/workspace/atlantis_fw/AsicFwS2/include/matrix.h ****         , _z( static_cast<T>( t.z() ) ) {}
 237:/home/tienluong/workspace/atlantis_fw/AsicFwS2/include/matrix.h **** 
 238:/home/tienluong/workspace/atlantis_fw/AsicFwS2/include/matrix.h ****     Vec3 & operator=( const Vec3 & t )
 239:/home/tienluong/workspace/atlantis_fw/AsicFwS2/include/matrix.h ****     { _x = t._x; _y = t._y; _z = t._z; return *this; }
 240:/home/tienluong/workspace/atlantis_fw/AsicFwS2/include/matrix.h **** 
 241:/home/tienluong/workspace/atlantis_fw/AsicFwS2/include/matrix.h ****     Vec3 & operator/=( const Vec3 & t )
 242:/home/tienluong/workspace/atlantis_fw/AsicFwS2/include/matrix.h ****     { _x /= t._x; _y /= t._y; _z /= t._z; return *this; }
 243:/home/tienluong/workspace/atlantis_fw/AsicFwS2/include/matrix.h **** 
 244:/home/tienluong/workspace/atlantis_fw/AsicFwS2/include/matrix.h ****     Vec3 & operator%=( const Vec3 & t )
 245:/home/tienluong/workspace/atlantis_fw/AsicFwS2/include/matrix.h ****     { _x %= t._x; _y %= t._y; _z %= t._z; return *this; }
 246:/home/tienluong/workspace/atlantis_fw/AsicFwS2/include/matrix.h **** 
 247:/home/tienluong/workspace/atlantis_fw/AsicFwS2/include/matrix.h ****     Vec3 & operator*=( const Vec3 & t )
 248:/home/tienluong/workspace/atlantis_fw/AsicFwS2/include/matrix.h ****     { _x *= t._x; _y *= t._y; _z *= t._z; return *this; }
 249:/home/tienluong/workspace/atlantis_fw/AsicFwS2/include/matrix.h **** 
 250:/home/tienluong/workspace/atlantis_fw/AsicFwS2/include/matrix.h ****     Vec3 & operator+=( const Vec3 & t )
 251:/home/tienluong/workspace/atlantis_fw/AsicFwS2/include/matrix.h ****     { _x += t._x; _y += t._y; _z += t._z; return *this; }
 252:/home/tienluong/workspace/atlantis_fw/AsicFwS2/include/matrix.h **** 
 253:/home/tienluong/workspace/atlantis_fw/AsicFwS2/include/matrix.h ****     Vec3 & operator-=( const Vec3 & t )
 254:/home/tienluong/workspace/atlantis_fw/AsicFwS2/include/matrix.h ****     { _x -= t._x; _y -= t._y; _z -= t._z; return *this; }
 255:/home/tienluong/workspace/atlantis_fw/AsicFwS2/include/matrix.h **** 
 256:/home/tienluong/workspace/atlantis_fw/AsicFwS2/include/matrix.h ****     Vec3 & operator&=( const Vec3 & t )
 257:/home/tienluong/workspace/atlantis_fw/AsicFwS2/include/matrix.h ****     { _x &= t._x; _y &= t._y; _z &= t._z; return *this; }
 258:/home/tienluong/workspace/atlantis_fw/AsicFwS2/include/matrix.h **** 
 259:/home/tienluong/workspace/atlantis_fw/AsicFwS2/include/matrix.h ****     Vec3 & operator|=( const Vec3 & t )
 260:/home/tienluong/workspace/atlantis_fw/AsicFwS2/include/matrix.h ****     { _x |= t._x; _y |= t._y; _z |= t._z; return *this; }
 261:/home/tienluong/workspace/atlantis_fw/AsicFwS2/include/matrix.h **** 
 262:/home/tienluong/workspace/atlantis_fw/AsicFwS2/include/matrix.h ****     Vec3 & operator>>=( int t )
 263:/home/tienluong/workspace/atlantis_fw/AsicFwS2/include/matrix.h ****     { _x >>= t; _y >>= t; _z >>= t; return *this; }
 264:/home/tienluong/workspace/atlantis_fw/AsicFwS2/include/matrix.h **** 
 265:/home/tienluong/workspace/atlantis_fw/AsicFwS2/include/matrix.h ****     Vec3 & operator<<=( int t )
 266:/home/tienluong/workspace/atlantis_fw/AsicFwS2/include/matrix.h ****     { _x <<= t; _y <<= t; _z <<= t; return *this; }
 267:/home/tienluong/workspace/atlantis_fw/AsicFwS2/include/matrix.h **** 
 268:/home/tienluong/workspace/atlantis_fw/AsicFwS2/include/matrix.h ****     Vec3 operator-() const { return { -_x, -_y, -_z }; }
 269:/home/tienluong/workspace/atlantis_fw/AsicFwS2/include/matrix.h **** 
 270:/home/tienluong/workspace/atlantis_fw/AsicFwS2/include/matrix.h ****     template<typename U > 
 271:/home/tienluong/workspace/atlantis_fw/AsicFwS2/include/matrix.h ****     Vec3<typename std::common_type<T, U>::type>
 272:/home/tienluong/workspace/atlantis_fw/AsicFwS2/include/matrix.h ****     operator+( const Vec3<U> & t ) const { return { _x + t.x(), _y + t.y(), _z + t.z() }; }
 273:/home/tienluong/workspace/atlantis_fw/AsicFwS2/include/matrix.h **** 
 274:/home/tienluong/workspace/atlantis_fw/AsicFwS2/include/matrix.h ****     template<typename U> Vec3<typename std::common_type<T, U>::type>
 275:/home/tienluong/workspace/atlantis_fw/AsicFwS2/include/matrix.h ****     operator-( const Vec3<U> & t ) const { return { _x - t.x(), _y - t.y(), _z - t.z() }; }
 276:/home/tienluong/workspace/atlantis_fw/AsicFwS2/include/matrix.h **** 
 277:/home/tienluong/workspace/atlantis_fw/AsicFwS2/include/matrix.h ****     template<typename U> Vec3<typename std::common_type<T, U>::type>
 278:/home/tienluong/workspace/atlantis_fw/AsicFwS2/include/matrix.h ****     operator*( const Vec3<U> & t ) const { return { _x * t.x(), _y * t.y(), _z * t.z() }; }
 279:/home/tienluong/workspace/atlantis_fw/AsicFwS2/include/matrix.h **** 
 280:/home/tienluong/workspace/atlantis_fw/AsicFwS2/include/matrix.h ****     template<typename U> Vec3<typename std::common_type<T, U>::type>
 281:/home/tienluong/workspace/atlantis_fw/AsicFwS2/include/matrix.h ****     operator/( const Vec3<U> & t ) const { return { _x / t.x(), _y / t.y(), _z / t.z() }; }
 282:/home/tienluong/workspace/atlantis_fw/AsicFwS2/include/matrix.h **** 
 283:/home/tienluong/workspace/atlantis_fw/AsicFwS2/include/matrix.h ****     template < typename U,
 284:/home/tienluong/workspace/atlantis_fw/AsicFwS2/include/matrix.h ****                typename = typename std::enable_if < std::is_integral<T>::value && std::is_integral<
 285:/home/tienluong/workspace/atlantis_fw/AsicFwS2/include/matrix.h ****     Vec3<typename std::common_type<T, U>::type>
 286:/home/tienluong/workspace/atlantis_fw/AsicFwS2/include/matrix.h ****     operator%( const Vec3<U> & t ) const { return { _x % t.x(), _y % t.y(), _z % t.z() }; }
 287:/home/tienluong/workspace/atlantis_fw/AsicFwS2/include/matrix.h **** 
 288:/home/tienluong/workspace/atlantis_fw/AsicFwS2/include/matrix.h ****     template < typename U,
 289:/home/tienluong/workspace/atlantis_fw/AsicFwS2/include/matrix.h ****                typename = typename std::enable_if < std::is_arithmetic<U>::value >::type >
 290:/home/tienluong/workspace/atlantis_fw/AsicFwS2/include/matrix.h ****     Vec3<typename std::common_type<T, U>::type>
 291:/home/tienluong/workspace/atlantis_fw/AsicFwS2/include/matrix.h ****     operator+( U t ) const { return { _x + t, _y + t, _z + t }; }
 292:/home/tienluong/workspace/atlantis_fw/AsicFwS2/include/matrix.h **** 
 293:/home/tienluong/workspace/atlantis_fw/AsicFwS2/include/matrix.h ****     template < typename U,
 294:/home/tienluong/workspace/atlantis_fw/AsicFwS2/include/matrix.h ****                typename = typename std::enable_if < std::is_arithmetic<U>::value >::type >
 295:/home/tienluong/workspace/atlantis_fw/AsicFwS2/include/matrix.h ****     Vec3<typename std::common_type<T, U>::type>
 296:/home/tienluong/workspace/atlantis_fw/AsicFwS2/include/matrix.h ****     operator-( U t ) const { return { _x - t, _y - t, _z - t }; }
 297:/home/tienluong/workspace/atlantis_fw/AsicFwS2/include/matrix.h **** 
 298:/home/tienluong/workspace/atlantis_fw/AsicFwS2/include/matrix.h ****     template < typename U,
 299:/home/tienluong/workspace/atlantis_fw/AsicFwS2/include/matrix.h ****                typename = typename std::enable_if < std::is_arithmetic<U>::value >::type >
 300:/home/tienluong/workspace/atlantis_fw/AsicFwS2/include/matrix.h ****     Vec3<typename std::common_type<T, U>::type>
 301:/home/tienluong/workspace/atlantis_fw/AsicFwS2/include/matrix.h ****     operator*( U t ) const { return { _x * t, _y * t, _z * t }; }
 302:/home/tienluong/workspace/atlantis_fw/AsicFwS2/include/matrix.h **** 
 303:/home/tienluong/workspace/atlantis_fw/AsicFwS2/include/matrix.h ****     template < typename U,
 304:/home/tienluong/workspace/atlantis_fw/AsicFwS2/include/matrix.h ****                typename = typename std::enable_if < std::is_arithmetic<U>::value >::type >
 305:/home/tienluong/workspace/atlantis_fw/AsicFwS2/include/matrix.h ****     Vec3<typename std::common_type<T, U>::type>
 306:/home/tienluong/workspace/atlantis_fw/AsicFwS2/include/matrix.h ****     operator/( U t ) const { return { _x / t, _y / t, _z / t }; }
 307:/home/tienluong/workspace/atlantis_fw/AsicFwS2/include/matrix.h **** 
 308:/home/tienluong/workspace/atlantis_fw/AsicFwS2/include/matrix.h ****     template < typename U,
 309:/home/tienluong/workspace/atlantis_fw/AsicFwS2/include/matrix.h ****                typename = typename std::enable_if < std::is_integral<T>::value && std::is_integral<
 310:/home/tienluong/workspace/atlantis_fw/AsicFwS2/include/matrix.h ****     Vec3<typename std::common_type<T, U>::type>
 311:/home/tienluong/workspace/atlantis_fw/AsicFwS2/include/matrix.h ****     operator%( U t ) const { return { _x % t, _y % t, _z % t }; }
 312:/home/tienluong/workspace/atlantis_fw/AsicFwS2/include/matrix.h ****     Vec3<bool> operator==( const Vec3 & t ) const { return { _x == t._x, _y == t._y, _z == t._z }; 
 313:/home/tienluong/workspace/atlantis_fw/AsicFwS2/include/matrix.h ****     Vec3<bool> operator!=( const Vec3 & t ) const { return { _x != t._x, _y != t._y, _z != t._z }; 
 314:/home/tienluong/workspace/atlantis_fw/AsicFwS2/include/matrix.h ****     Vec3<bool> operator>=( const Vec3 & t ) const { return { _x >= t._x, _y >= t._y, _z >= t._z }; 
 315:/home/tienluong/workspace/atlantis_fw/AsicFwS2/include/matrix.h ****     Vec3<bool> operator>( const Vec3 & t )  const { return { _x >  t._x, _y >  t._y, _z >  t._z }; 
 316:/home/tienluong/workspace/atlantis_fw/AsicFwS2/include/matrix.h ****     Vec3<bool> operator<=( const Vec3 & t ) const { return { _x <= t._x, _y <= t._y, _z <= t._z }; 
 317:/home/tienluong/workspace/atlantis_fw/AsicFwS2/include/matrix.h ****     Vec3<bool> operator<( const Vec3 & t )  const { return { _x <  t._x, _y <  t._y, _z <  t._z }; 
 318:/home/tienluong/workspace/atlantis_fw/AsicFwS2/include/matrix.h **** 
 319:/home/tienluong/workspace/atlantis_fw/AsicFwS2/include/matrix.h ****     T min() const { return std::min( std::min( _x, _y ), _z ); }
 320:/home/tienluong/workspace/atlantis_fw/AsicFwS2/include/matrix.h ****     T max() const { return std::max( std::max( _x, _y ), _z ); }
 321:/home/tienluong/workspace/atlantis_fw/AsicFwS2/include/matrix.h ****     T sum() const { return _x + _y + _z; }
 322:/home/tienluong/workspace/atlantis_fw/AsicFwS2/include/matrix.h ****     T dot( const Vec3<T> & t ) const { return _x * t.x() + _y * t.y() + _z * t.z(); }
 323:/home/tienluong/workspace/atlantis_fw/AsicFwS2/include/matrix.h **** 
 324:/home/tienluong/workspace/atlantis_fw/AsicFwS2/include/matrix.h ****     // cross product in right-hand side coordinate (i.e. if this=(1,0,0), t=(0,1,0), out=(0,0,1)).
 325:/home/tienluong/workspace/atlantis_fw/AsicFwS2/include/matrix.h ****     Vec3<T> cross( const Vec3<T> & t ) const
 326:/home/tienluong/workspace/atlantis_fw/AsicFwS2/include/matrix.h ****     { return Vec3<T> {_y * t.z() - _z * t.y(), _z * t.x() - _x * t.z(), _x * t.y() - _y * t.x()};}
 327:/home/tienluong/workspace/atlantis_fw/AsicFwS2/include/matrix.h **** 
 328:/home/tienluong/workspace/atlantis_fw/AsicFwS2/include/matrix.h ****     Vec3 abs() const { return { std::abs( _x ), std::abs( _y ), std::abs( _z ) }; }
 329:/home/tienluong/workspace/atlantis_fw/AsicFwS2/include/matrix.h **** 
 330:/home/tienluong/workspace/atlantis_fw/AsicFwS2/include/matrix.h ****     const T & x() const { return _x; }
 331:/home/tienluong/workspace/atlantis_fw/AsicFwS2/include/matrix.h ****     const T & y() const { return _y; }
 332:/home/tienluong/workspace/atlantis_fw/AsicFwS2/include/matrix.h ****     const T & z() const { return _z; }
 333:/home/tienluong/workspace/atlantis_fw/AsicFwS2/include/matrix.h **** 
 334:/home/tienluong/workspace/atlantis_fw/AsicFwS2/include/matrix.h ****     void setX( T x ) { _x = x; }
 335:/home/tienluong/workspace/atlantis_fw/AsicFwS2/include/matrix.h ****     void setY( T y ) { _y = y; }
 336:/home/tienluong/workspace/atlantis_fw/AsicFwS2/include/matrix.h ****     void setZ( T z ) { _z = z; }
 337:/home/tienluong/workspace/atlantis_fw/AsicFwS2/include/matrix.h **** 
 338:/home/tienluong/workspace/atlantis_fw/AsicFwS2/include/matrix.h ****     Vec3 & normalize()
 339:/home/tienluong/workspace/atlantis_fw/AsicFwS2/include/matrix.h ****     {
 340:/home/tienluong/workspace/atlantis_fw/AsicFwS2/include/matrix.h ****         T len = length(*this);
 341:/home/tienluong/workspace/atlantis_fw/AsicFwS2/include/matrix.h ****         _x /= len;
 342:/home/tienluong/workspace/atlantis_fw/AsicFwS2/include/matrix.h ****         _y /= len;
 343:/home/tienluong/workspace/atlantis_fw/AsicFwS2/include/matrix.h ****         _z /= len;
 344:/home/tienluong/workspace/atlantis_fw/AsicFwS2/include/matrix.h ****         return *this;
 345:/home/tienluong/workspace/atlantis_fw/AsicFwS2/include/matrix.h ****     }
 346:/home/tienluong/workspace/atlantis_fw/AsicFwS2/include/matrix.h **** 
 347:/home/tienluong/workspace/atlantis_fw/AsicFwS2/include/matrix.h **** private:
 348:/home/tienluong/workspace/atlantis_fw/AsicFwS2/include/matrix.h ****     T _x, _y, _z;
 349:/home/tienluong/workspace/atlantis_fw/AsicFwS2/include/matrix.h **** };
 350:/home/tienluong/workspace/atlantis_fw/AsicFwS2/include/matrix.h **** 
 351:/home/tienluong/workspace/atlantis_fw/AsicFwS2/include/matrix.h **** // basic math functions
 352:/home/tienluong/workspace/atlantis_fw/AsicFwS2/include/matrix.h **** template<typename T>
 353:/home/tienluong/workspace/atlantis_fw/AsicFwS2/include/matrix.h **** T min( const Vec3<T> & t ) { return t.min(); }
 354:/home/tienluong/workspace/atlantis_fw/AsicFwS2/include/matrix.h **** 
 355:/home/tienluong/workspace/atlantis_fw/AsicFwS2/include/matrix.h **** template<typename T>
 356:/home/tienluong/workspace/atlantis_fw/AsicFwS2/include/matrix.h **** T max( const Vec3<T> & t ) { return t.max(); }
 357:/home/tienluong/workspace/atlantis_fw/AsicFwS2/include/matrix.h **** 
 358:/home/tienluong/workspace/atlantis_fw/AsicFwS2/include/matrix.h **** template<typename T>
 359:/home/tienluong/workspace/atlantis_fw/AsicFwS2/include/matrix.h **** T sum( const Vec3<T> & t ) { return t.sum(); }
 360:/home/tienluong/workspace/atlantis_fw/AsicFwS2/include/matrix.h **** 
 361:/home/tienluong/workspace/atlantis_fw/AsicFwS2/include/matrix.h **** template<typename T>
 362:/home/tienluong/workspace/atlantis_fw/AsicFwS2/include/matrix.h **** T dot( const Vec3<T> & a, const Vec3<T> & b ) { return a.dot( b ); }
 363:/home/tienluong/workspace/atlantis_fw/AsicFwS2/include/matrix.h **** 
 364:/home/tienluong/workspace/atlantis_fw/AsicFwS2/include/matrix.h **** template<typename T>
 365:/home/tienluong/workspace/atlantis_fw/AsicFwS2/include/matrix.h **** Vec3<T> cross( const Vec3<T> & a, const Vec3<T> & b ) { return a.cross( b ); }
 366:/home/tienluong/workspace/atlantis_fw/AsicFwS2/include/matrix.h **** 
 367:/home/tienluong/workspace/atlantis_fw/AsicFwS2/include/matrix.h **** template<typename T>
 368:/home/tienluong/workspace/atlantis_fw/AsicFwS2/include/matrix.h **** Vec3<T> min( const Vec3<T> & a, const Vec3<T> & b )
 369:/home/tienluong/workspace/atlantis_fw/AsicFwS2/include/matrix.h **** { return { std::min( a.x(), b.x() ), std::min( a.y(), b.y() ), std::min( a.z(), b.z() ) }; }
 370:/home/tienluong/workspace/atlantis_fw/AsicFwS2/include/matrix.h **** 
 371:/home/tienluong/workspace/atlantis_fw/AsicFwS2/include/matrix.h **** // template<typename T, typename U>
 372:/home/tienluong/workspace/atlantis_fw/AsicFwS2/include/matrix.h **** // typename std::enable_if<std::is_arithmetic<U>::value, Vec3<T> >::type
 373:/home/tienluong/workspace/atlantis_fw/AsicFwS2/include/matrix.h **** // min( U a, const Vec3<T> & b )
 374:/home/tienluong/workspace/atlantis_fw/AsicFwS2/include/matrix.h **** // { return min( Vec3<T>( a ), b ); }
 375:/home/tienluong/workspace/atlantis_fw/AsicFwS2/include/matrix.h **** 
 376:/home/tienluong/workspace/atlantis_fw/AsicFwS2/include/matrix.h **** // template<typename T, typename U>
 377:/home/tienluong/workspace/atlantis_fw/AsicFwS2/include/matrix.h **** // typename std::enable_if<std::is_arithmetic<U>::value, Vec3<T> >::type
 378:/home/tienluong/workspace/atlantis_fw/AsicFwS2/include/matrix.h **** // min( const Vec3<T> & a, U b )
 379:/home/tienluong/workspace/atlantis_fw/AsicFwS2/include/matrix.h **** // { return min( a, Vec3<T>( b ) ); }
 380:/home/tienluong/workspace/atlantis_fw/AsicFwS2/include/matrix.h **** 
 381:/home/tienluong/workspace/atlantis_fw/AsicFwS2/include/matrix.h **** // template<typename T>
 382:/home/tienluong/workspace/atlantis_fw/AsicFwS2/include/matrix.h **** // Vec3<T> max( const Vec3<T> & a, const Vec3<T> & b )
 383:/home/tienluong/workspace/atlantis_fw/AsicFwS2/include/matrix.h **** // { return { max( a.x(), b.x() ), max( a.y(), b.y() ), max( a.z(), b.z() ) }; }
 384:/home/tienluong/workspace/atlantis_fw/AsicFwS2/include/matrix.h **** 
 385:/home/tienluong/workspace/atlantis_fw/AsicFwS2/include/matrix.h **** // template<typename T, typename U>
 386:/home/tienluong/workspace/atlantis_fw/AsicFwS2/include/matrix.h **** // typename std::enable_if<std::is_arithmetic<U>::value, Vec3<T> >::type
 387:/home/tienluong/workspace/atlantis_fw/AsicFwS2/include/matrix.h **** // max( U a, const Vec3<T> & b )
 388:/home/tienluong/workspace/atlantis_fw/AsicFwS2/include/matrix.h **** // { return max( Vec3<T>( a ), b ); }
 389:/home/tienluong/workspace/atlantis_fw/AsicFwS2/include/matrix.h **** 
 390:/home/tienluong/workspace/atlantis_fw/AsicFwS2/include/matrix.h **** // template<typename T, typename U>
 391:/home/tienluong/workspace/atlantis_fw/AsicFwS2/include/matrix.h **** // typename std::enable_if<std::is_arithmetic<U>::value, Vec3<T> >::type
 392:/home/tienluong/workspace/atlantis_fw/AsicFwS2/include/matrix.h **** // max( const Vec3<T> & a, U b )
 393:/home/tienluong/workspace/atlantis_fw/AsicFwS2/include/matrix.h **** // { return max( a, Vec3<T>( b ) ); }
 394:/home/tienluong/workspace/atlantis_fw/AsicFwS2/include/matrix.h **** 
 395:/home/tienluong/workspace/atlantis_fw/AsicFwS2/include/matrix.h **** // template<typename T>
 396:/home/tienluong/workspace/atlantis_fw/AsicFwS2/include/matrix.h **** // Vec3<T> clamp( const Vec3<T> & t, const Vec3<T> & min_t, const Vec3<T> & max_t )
 397:/home/tienluong/workspace/atlantis_fw/AsicFwS2/include/matrix.h **** // { return min( max( t, min_t ), max_t ); }
 398:/home/tienluong/workspace/atlantis_fw/AsicFwS2/include/matrix.h **** 
 399:/home/tienluong/workspace/atlantis_fw/AsicFwS2/include/matrix.h **** // template<typename T, typename U>
 400:/home/tienluong/workspace/atlantis_fw/AsicFwS2/include/matrix.h **** // typename std::enable_if<std::is_arithmetic<U>::value, Vec3<T> >::type
 401:/home/tienluong/workspace/atlantis_fw/AsicFwS2/include/matrix.h **** // clamp( const Vec3<T> & t, U min_t, const Vec3<T> & max_t )
 402:/home/tienluong/workspace/atlantis_fw/AsicFwS2/include/matrix.h **** // { return clamp( t, Vec3<T>( min_t ), max_t ); }
 403:/home/tienluong/workspace/atlantis_fw/AsicFwS2/include/matrix.h **** 
 404:/home/tienluong/workspace/atlantis_fw/AsicFwS2/include/matrix.h **** // template<typename T, typename U>
 405:/home/tienluong/workspace/atlantis_fw/AsicFwS2/include/matrix.h **** // typename std::enable_if<std::is_arithmetic<U>::value, Vec3<T> >::type
 406:/home/tienluong/workspace/atlantis_fw/AsicFwS2/include/matrix.h **** // clamp( const Vec3<T> & t, const Vec3<T> & min_t, U max_t )
 407:/home/tienluong/workspace/atlantis_fw/AsicFwS2/include/matrix.h **** // { return clamp( t, min_t, Vec3<T>( max_t ) ); }
 408:/home/tienluong/workspace/atlantis_fw/AsicFwS2/include/matrix.h **** 
 409:/home/tienluong/workspace/atlantis_fw/AsicFwS2/include/matrix.h **** // template<typename T, typename U, typename V>
 410:/home/tienluong/workspace/atlantis_fw/AsicFwS2/include/matrix.h **** // typename std::enable_if < std::is_arithmetic<U>::value && std::is_arithmetic<V>::value, Vec3<T> 
 411:/home/tienluong/workspace/atlantis_fw/AsicFwS2/include/matrix.h **** // clamp( const Vec3<T> & t, U min_t, V max_t )
 412:/home/tienluong/workspace/atlantis_fw/AsicFwS2/include/matrix.h **** // { return clamp( t, Vec3<T>( min_t ), Vec3<T>( max_t ) ); }
 413:/home/tienluong/workspace/atlantis_fw/AsicFwS2/include/matrix.h **** 
 414:/home/tienluong/workspace/atlantis_fw/AsicFwS2/include/matrix.h **** template<typename T>
 415:/home/tienluong/workspace/atlantis_fw/AsicFwS2/include/matrix.h **** Vec3<T> abs( const Vec3<T> & t ) { return t.abs(); }
 416:/home/tienluong/workspace/atlantis_fw/AsicFwS2/include/matrix.h **** 
 417:/home/tienluong/workspace/atlantis_fw/AsicFwS2/include/matrix.h **** // template<typename T>
 418:/home/tienluong/workspace/atlantis_fw/AsicFwS2/include/matrix.h **** // Vec3<T> sign( const Vec3<T> & t ) { return t.sign(); }
 419:/home/tienluong/workspace/atlantis_fw/AsicFwS2/include/matrix.h **** 
 420:/home/tienluong/workspace/atlantis_fw/AsicFwS2/include/matrix.h **** template<typename T>
 421:/home/tienluong/workspace/atlantis_fw/AsicFwS2/include/matrix.h **** typename std::enable_if<std::is_floating_point<T>::value, T>::type
 422:/home/tienluong/workspace/atlantis_fw/AsicFwS2/include/matrix.h **** length( const Vec3<T> & a )
 423:/home/tienluong/workspace/atlantis_fw/AsicFwS2/include/matrix.h **** { return std::sqrt( dot( a, a ) ); }
 424:/home/tienluong/workspace/atlantis_fw/AsicFwS2/include/matrix.h **** 
 425:/home/tienluong/workspace/atlantis_fw/AsicFwS2/include/matrix.h **** template<typename T>
 426:/home/tienluong/workspace/atlantis_fw/AsicFwS2/include/matrix.h **** typename std::enable_if<std::is_floating_point<T>::value, Vec3<T> >::type
 427:/home/tienluong/workspace/atlantis_fw/AsicFwS2/include/matrix.h **** sqrt( const Vec3<T> & a )
 428:/home/tienluong/workspace/atlantis_fw/AsicFwS2/include/matrix.h **** { return { std::sqrt( a.x() ), std::sqrt( a.y() ), std::sqrt( a.z() ) }; }
 429:/home/tienluong/workspace/atlantis_fw/AsicFwS2/include/matrix.h **** 
 430:/home/tienluong/workspace/atlantis_fw/AsicFwS2/include/matrix.h **** template<typename T>
 431:/home/tienluong/workspace/atlantis_fw/AsicFwS2/include/matrix.h **** typename std::enable_if<std::is_floating_point<T>::value, T>::type
 432:/home/tienluong/workspace/atlantis_fw/AsicFwS2/include/matrix.h **** squaredSum( const Vec3<T> & a )
 433:/home/tienluong/workspace/atlantis_fw/AsicFwS2/include/matrix.h **** { return dot( a, a ); }
 434:/home/tienluong/workspace/atlantis_fw/AsicFwS2/include/matrix.h **** 
 435:/home/tienluong/workspace/atlantis_fw/AsicFwS2/include/matrix.h **** template<typename T>
 436:/home/tienluong/workspace/atlantis_fw/AsicFwS2/include/matrix.h **** typename std::enable_if<std::is_floating_point<T>::value, Vec3<T> >::type
 437:/home/tienluong/workspace/atlantis_fw/AsicFwS2/include/matrix.h **** normalize( const Vec3<T> & a )
 438:/home/tienluong/workspace/atlantis_fw/AsicFwS2/include/matrix.h **** {
 439:/home/tienluong/workspace/atlantis_fw/AsicFwS2/include/matrix.h ****     return a / length( a );
 440:/home/tienluong/workspace/atlantis_fw/AsicFwS2/include/matrix.h **** }
 441:/home/tienluong/workspace/atlantis_fw/AsicFwS2/include/matrix.h **** 
 442:/home/tienluong/workspace/atlantis_fw/AsicFwS2/include/matrix.h **** // template<typename T>
 443:/home/tienluong/workspace/atlantis_fw/AsicFwS2/include/matrix.h **** // typename std::enable_if<std::is_floating_point<T>::value, Vec3<T> >::type
 444:/home/tienluong/workspace/atlantis_fw/AsicFwS2/include/matrix.h **** // pow( const Vec3<T> & a, const Vec3<T> & b )
 445:/home/tienluong/workspace/atlantis_fw/AsicFwS2/include/matrix.h **** // { return { std::pow( a.x(), b.x() ), std::pow( a.y(), b.y() ), std::pow( a.z(), b.z() ) }; }
 446:/home/tienluong/workspace/atlantis_fw/AsicFwS2/include/matrix.h **** 
 447:/home/tienluong/workspace/atlantis_fw/AsicFwS2/include/matrix.h **** // template<typename T>
 448:/home/tienluong/workspace/atlantis_fw/AsicFwS2/include/matrix.h **** // typename std::enable_if<std::is_floating_point<T>::value, Vec3<T> >::type
 449:/home/tienluong/workspace/atlantis_fw/AsicFwS2/include/matrix.h **** // pow( const Vec3<T> & a, T  b )
 450:/home/tienluong/workspace/atlantis_fw/AsicFwS2/include/matrix.h **** // { return { std::pow( a.x(), b ), std::pow( a.y(), b ), std::pow( a.z(), b ) }; }
 451:/home/tienluong/workspace/atlantis_fw/AsicFwS2/include/matrix.h **** 
 452:/home/tienluong/workspace/atlantis_fw/AsicFwS2/include/matrix.h **** // template<typename T>
 453:/home/tienluong/workspace/atlantis_fw/AsicFwS2/include/matrix.h **** // typename std::enable_if<std::is_floating_point<T>::value, Vec3<T> >::type
 454:/home/tienluong/workspace/atlantis_fw/AsicFwS2/include/matrix.h **** // pow( T a, const Vec3<T> & b )
 455:/home/tienluong/workspace/atlantis_fw/AsicFwS2/include/matrix.h **** // { return { std::pow( a, b.x() ), std::pow( a, b.y() ), std::pow( a, b.z() ) }; }
 456:/home/tienluong/workspace/atlantis_fw/AsicFwS2/include/matrix.h **** 
 457:/home/tienluong/workspace/atlantis_fw/AsicFwS2/include/matrix.h **** // template<typename T>
 458:/home/tienluong/workspace/atlantis_fw/AsicFwS2/include/matrix.h **** // typename std::enable_if<std::is_floating_point<T>::value, Vec3<T> >::type
 459:/home/tienluong/workspace/atlantis_fw/AsicFwS2/include/matrix.h **** // floor( const Vec3<T> & a )
 460:/home/tienluong/workspace/atlantis_fw/AsicFwS2/include/matrix.h **** // { return { std::floor( a.x() ), std::floor( a.y() ), std::floor( a.z() ) }; }
 461:/home/tienluong/workspace/atlantis_fw/AsicFwS2/include/matrix.h **** 
 462:/home/tienluong/workspace/atlantis_fw/AsicFwS2/include/matrix.h **** // template<typename T>
 463:/home/tienluong/workspace/atlantis_fw/AsicFwS2/include/matrix.h **** // typename std::enable_if<std::is_floating_point<T>::value, Vec3<T> >::type
 464:/home/tienluong/workspace/atlantis_fw/AsicFwS2/include/matrix.h **** // ceil( const Vec3<T> & a )
 465:/home/tienluong/workspace/atlantis_fw/AsicFwS2/include/matrix.h **** // { return { std::ceil( a.x() ), std::ceil( a.y() ), std::ceil( a.z() ) }; }
 466:/home/tienluong/workspace/atlantis_fw/AsicFwS2/include/matrix.h **** 
 467:/home/tienluong/workspace/atlantis_fw/AsicFwS2/include/matrix.h **** 
 468:/home/tienluong/workspace/atlantis_fw/AsicFwS2/include/matrix.h **** // -----------------------------------------------------------
 469:/home/tienluong/workspace/atlantis_fw/AsicFwS2/include/matrix.h **** // 			Vec4 class
 470:/home/tienluong/workspace/atlantis_fw/AsicFwS2/include/matrix.h **** // -----------------------------------------------------------
 471:/home/tienluong/workspace/atlantis_fw/AsicFwS2/include/matrix.h **** template<typename T>
 472:/home/tienluong/workspace/atlantis_fw/AsicFwS2/include/matrix.h **** class Vec4
 473:/home/tienluong/workspace/atlantis_fw/AsicFwS2/include/matrix.h **** {
 474:/home/tienluong/workspace/atlantis_fw/AsicFwS2/include/matrix.h **** public:
 475:/home/tienluong/workspace/atlantis_fw/AsicFwS2/include/matrix.h ****     Vec4() {}
 476:/home/tienluong/workspace/atlantis_fw/AsicFwS2/include/matrix.h ****     Vec4( T t ) : _x( t ), _y( t ), _z( t ), _a( t ) {}
 477:/home/tienluong/workspace/atlantis_fw/AsicFwS2/include/matrix.h ****     Vec4( T x, T y, T z, T a ) : _x( x ), _y( y ), _z( z ), _a ( a ){}
 478:/home/tienluong/workspace/atlantis_fw/AsicFwS2/include/matrix.h ****     Vec4( const Vec4 & t ) : _x( t._x ), _y( t._y ), _z( t._z ), _a( t._a ) {}
 479:/home/tienluong/workspace/atlantis_fw/AsicFwS2/include/matrix.h **** 
 480:/home/tienluong/workspace/atlantis_fw/AsicFwS2/include/matrix.h ****     template<typename U>
 481:/home/tienluong/workspace/atlantis_fw/AsicFwS2/include/matrix.h ****     explicit Vec4( const Vec4<U> & t )
 482:/home/tienluong/workspace/atlantis_fw/AsicFwS2/include/matrix.h ****         : _x( static_cast<T>( t.x() ) )
 483:/home/tienluong/workspace/atlantis_fw/AsicFwS2/include/matrix.h ****         , _y( static_cast<T>( t.y() ) )
 484:/home/tienluong/workspace/atlantis_fw/AsicFwS2/include/matrix.h ****         , _z( static_cast<T>( t.z() ) )
 485:/home/tienluong/workspace/atlantis_fw/AsicFwS2/include/matrix.h ****         , _a( static_cast<T>( t.a() ) ) {}
 486:/home/tienluong/workspace/atlantis_fw/AsicFwS2/include/matrix.h **** 
 487:/home/tienluong/workspace/atlantis_fw/AsicFwS2/include/matrix.h ****     Vec4 & operator=( const Vec4 & t )
 488:/home/tienluong/workspace/atlantis_fw/AsicFwS2/include/matrix.h ****     { _x = t._x; _y = t._y; _z = t._z; _a = t._a; return *this; }
 489:/home/tienluong/workspace/atlantis_fw/AsicFwS2/include/matrix.h **** 
 490:/home/tienluong/workspace/atlantis_fw/AsicFwS2/include/matrix.h ****     Vec4 & operator/=( const Vec4 & t )
 491:/home/tienluong/workspace/atlantis_fw/AsicFwS2/include/matrix.h ****     { _x /= t._x; _y /= t._y; _z /= t._z; _a /= t._a; return *this; }
 492:/home/tienluong/workspace/atlantis_fw/AsicFwS2/include/matrix.h **** 
 493:/home/tienluong/workspace/atlantis_fw/AsicFwS2/include/matrix.h ****     Vec4 & operator%=( const Vec4 & t )
 494:/home/tienluong/workspace/atlantis_fw/AsicFwS2/include/matrix.h ****     { _x %= t._x; _y %= t._y; _z %= t._z; _a %= t._a; return *this; }
 495:/home/tienluong/workspace/atlantis_fw/AsicFwS2/include/matrix.h **** 
 496:/home/tienluong/workspace/atlantis_fw/AsicFwS2/include/matrix.h ****     Vec4 & operator*=( const Vec4 & t )
 497:/home/tienluong/workspace/atlantis_fw/AsicFwS2/include/matrix.h ****     { _x *= t._x; _y *= t._y; _z *= t._z; _a *= t._a; return *this; }
 498:/home/tienluong/workspace/atlantis_fw/AsicFwS2/include/matrix.h **** 
 499:/home/tienluong/workspace/atlantis_fw/AsicFwS2/include/matrix.h ****     Vec4 & operator+=( const Vec4 & t )
 500:/home/tienluong/workspace/atlantis_fw/AsicFwS2/include/matrix.h ****     { _x += t._x; _y += t._y; _z += t._z; _a += t._a; return *this; }
 501:/home/tienluong/workspace/atlantis_fw/AsicFwS2/include/matrix.h **** 
 502:/home/tienluong/workspace/atlantis_fw/AsicFwS2/include/matrix.h ****     Vec4 & operator-=( const Vec4 & t )
 503:/home/tienluong/workspace/atlantis_fw/AsicFwS2/include/matrix.h ****     { _x -= t._x; _y -= t._y; _z -= t._z; _a -= t._a; return *this; }
 504:/home/tienluong/workspace/atlantis_fw/AsicFwS2/include/matrix.h **** 
 505:/home/tienluong/workspace/atlantis_fw/AsicFwS2/include/matrix.h ****     Vec4 operator-() const { return { -_x, -_y, _z, _a}; }
 506:/home/tienluong/workspace/atlantis_fw/AsicFwS2/include/matrix.h **** 
 507:/home/tienluong/workspace/atlantis_fw/AsicFwS2/include/matrix.h ****     Vec4<bool> operator==( const Vec4 & t ) const { return { _x == t._x, _y == t._y, _z == t._z, _a
 508:/home/tienluong/workspace/atlantis_fw/AsicFwS2/include/matrix.h ****     Vec4<bool> operator!=( const Vec4 & t ) const { return { _x != t._x, _y != t._y, _z != t._z, _a
 509:/home/tienluong/workspace/atlantis_fw/AsicFwS2/include/matrix.h ****     Vec4<bool> operator>=( const Vec4 & t ) const { return { _x >= t._x, _y >= t._y, _z >= t._z, _a
 510:/home/tienluong/workspace/atlantis_fw/AsicFwS2/include/matrix.h ****     Vec4<bool> operator>( const  Vec4 & t )  const { return { _x >  t._x, _y >  t._y, _z > t._z, _a
 511:/home/tienluong/workspace/atlantis_fw/AsicFwS2/include/matrix.h ****     Vec4<bool> operator<=( const Vec4 & t ) const { return { _x <= t._x, _y <= t._y, _z <= t._z, _a
 512:/home/tienluong/workspace/atlantis_fw/AsicFwS2/include/matrix.h ****     Vec4<bool> operator<( const  Vec4 & t )  const { return { _x <  t._x, _y <  t._y, _z <  t._z, _
 513:/home/tienluong/workspace/atlantis_fw/AsicFwS2/include/matrix.h **** 
 514:/home/tienluong/workspace/atlantis_fw/AsicFwS2/include/matrix.h ****     T min() const { return std::min( std::min( std::min( _x, _y ), _z ), _a); }
 515:/home/tienluong/workspace/atlantis_fw/AsicFwS2/include/matrix.h ****     T max() const { return std::max( std::max( std::max( _x, _y ), _z ), _a); }
 516:/home/tienluong/workspace/atlantis_fw/AsicFwS2/include/matrix.h ****     T sum() const { return _x + _y + _z + _a; }
 517:/home/tienluong/workspace/atlantis_fw/AsicFwS2/include/matrix.h ****     T dot( const Vec4<T> & t ) const { return _x * t.x() + _y * t.y() + _z * t.z() + _a * t.a(); }
 518:/home/tienluong/workspace/atlantis_fw/AsicFwS2/include/matrix.h **** 
 519:/home/tienluong/workspace/atlantis_fw/AsicFwS2/include/matrix.h ****     Vec4 abs() const { return { std::abs( _x ), std::abs( _y ), std::abs( _z ), std::abs( _a ) }; }
 520:/home/tienluong/workspace/atlantis_fw/AsicFwS2/include/matrix.h **** 
 521:/home/tienluong/workspace/atlantis_fw/AsicFwS2/include/matrix.h ****     const T & x() const { return _x; }
 522:/home/tienluong/workspace/atlantis_fw/AsicFwS2/include/matrix.h ****     const T & y() const { return _y; }
 523:/home/tienluong/workspace/atlantis_fw/AsicFwS2/include/matrix.h ****     const T & z() const { return _z; }
 524:/home/tienluong/workspace/atlantis_fw/AsicFwS2/include/matrix.h ****     const T & a() const { return _a; }
 525:/home/tienluong/workspace/atlantis_fw/AsicFwS2/include/matrix.h **** 
 526:/home/tienluong/workspace/atlantis_fw/AsicFwS2/include/matrix.h ****     void setX( T x ) { _x = x; }
 527:/home/tienluong/workspace/atlantis_fw/AsicFwS2/include/matrix.h ****     void setY( T y ) { _y = y; }
 528:/home/tienluong/workspace/atlantis_fw/AsicFwS2/include/matrix.h ****     void setZ( T z ) { _z = z; }
 529:/home/tienluong/workspace/atlantis_fw/AsicFwS2/include/matrix.h **** 	void setA( T a ) { _a = a; }
 530:/home/tienluong/workspace/atlantis_fw/AsicFwS2/include/matrix.h **** private:
 531:/home/tienluong/workspace/atlantis_fw/AsicFwS2/include/matrix.h ****     T _x, _y, _z, _a;
 532:/home/tienluong/workspace/atlantis_fw/AsicFwS2/include/matrix.h **** };
 533:/home/tienluong/workspace/atlantis_fw/AsicFwS2/include/matrix.h **** 
 534:/home/tienluong/workspace/atlantis_fw/AsicFwS2/include/matrix.h **** 
 535:/home/tienluong/workspace/atlantis_fw/AsicFwS2/include/matrix.h **** using Vec2f = Vec2<float>;
 536:/home/tienluong/workspace/atlantis_fw/AsicFwS2/include/matrix.h **** using Vec2d = Vec2<double>;
 537:/home/tienluong/workspace/atlantis_fw/AsicFwS2/include/matrix.h **** using Vec3u16 = Vec3<std::uint16_t>;
 538:/home/tienluong/workspace/atlantis_fw/AsicFwS2/include/matrix.h **** using Vec3f = Vec3<float>;
 539:/home/tienluong/workspace/atlantis_fw/AsicFwS2/include/matrix.h **** using Vec3d = Vec3<double>;
 540:/home/tienluong/workspace/atlantis_fw/AsicFwS2/include/matrix.h **** using Vec4f = Vec4<float>;
 541:/home/tienluong/workspace/atlantis_fw/AsicFwS2/include/matrix.h **** using Vec4d = Vec4<double>;
 542:/home/tienluong/workspace/atlantis_fw/AsicFwS2/include/matrix.h **** 
 543:/home/tienluong/workspace/atlantis_fw/AsicFwS2/include/matrix.h **** 
 544:/home/tienluong/workspace/atlantis_fw/AsicFwS2/include/matrix.h **** // -----------------------------------------------------------
 545:/home/tienluong/workspace/atlantis_fw/AsicFwS2/include/matrix.h **** // 			Matrix class
 546:/home/tienluong/workspace/atlantis_fw/AsicFwS2/include/matrix.h **** // -----------------------------------------------------------
 547:/home/tienluong/workspace/atlantis_fw/AsicFwS2/include/matrix.h **** namespace Internal
 548:/home/tienluong/workspace/atlantis_fw/AsicFwS2/include/matrix.h **** {
 549:/home/tienluong/workspace/atlantis_fw/AsicFwS2/include/matrix.h **** 
 550:/home/tienluong/workspace/atlantis_fw/AsicFwS2/include/matrix.h **** template<typename T, int R, int C>
 551:/home/tienluong/workspace/atlantis_fw/AsicFwS2/include/matrix.h **** class MatrixStorage
 552:/home/tienluong/workspace/atlantis_fw/AsicFwS2/include/matrix.h **** {
 553:/home/tienluong/workspace/atlantis_fw/AsicFwS2/include/matrix.h **** public:
 554:/home/tienluong/workspace/atlantis_fw/AsicFwS2/include/matrix.h ****     MatrixStorage() {}
 555:/home/tienluong/workspace/atlantis_fw/AsicFwS2/include/matrix.h **** protected:
 556:/home/tienluong/workspace/atlantis_fw/AsicFwS2/include/matrix.h ****     T _data[R * C];
 557:/home/tienluong/workspace/atlantis_fw/AsicFwS2/include/matrix.h **** };
 558:/home/tienluong/workspace/atlantis_fw/AsicFwS2/include/matrix.h **** 
 559:/home/tienluong/workspace/atlantis_fw/AsicFwS2/include/matrix.h **** #if 0
 560:/home/tienluong/workspace/atlantis_fw/AsicFwS2/include/matrix.h **** /// Some Matrix types require aligned storage due to SIMD acceleration
 561:/home/tienluong/workspace/atlantis_fw/AsicFwS2/include/matrix.h **** template<>
 562:/home/tienluong/workspace/atlantis_fw/AsicFwS2/include/matrix.h **** class MatrixStorage<float, 4, 4>
 563:/home/tienluong/workspace/atlantis_fw/AsicFwS2/include/matrix.h **** {
 564:/home/tienluong/workspace/atlantis_fw/AsicFwS2/include/matrix.h **** public:
 565:/home/tienluong/workspace/atlantis_fw/AsicFwS2/include/matrix.h ****     MatrixStorage() {}
 566:/home/tienluong/workspace/atlantis_fw/AsicFwS2/include/matrix.h **** protected:
 567:/home/tienluong/workspace/atlantis_fw/AsicFwS2/include/matrix.h ****     alignas( 16 ) float _data[16];
 568:/home/tienluong/workspace/atlantis_fw/AsicFwS2/include/matrix.h **** };
 569:/home/tienluong/workspace/atlantis_fw/AsicFwS2/include/matrix.h **** #endif
 570:/home/tienluong/workspace/atlantis_fw/AsicFwS2/include/matrix.h **** } // Internal namespace
 571:/home/tienluong/workspace/atlantis_fw/AsicFwS2/include/matrix.h **** 
 572:/home/tienluong/workspace/atlantis_fw/AsicFwS2/include/matrix.h **** template<typename T, int R, int C, bool RowMajor = true>
 573:/home/tienluong/workspace/atlantis_fw/AsicFwS2/include/matrix.h **** class Matrix : public Internal::MatrixStorage<T, R, C>
 574:/home/tienluong/workspace/atlantis_fw/AsicFwS2/include/matrix.h **** {
 575:/home/tienluong/workspace/atlantis_fw/AsicFwS2/include/matrix.h ****     //static_assert( std::is_floating_point<T>::value, "Matrix template class requires floating poi
 576:/home/tienluong/workspace/atlantis_fw/AsicFwS2/include/matrix.h ****     static constexpr int kSize = R * C;
 577:/home/tienluong/workspace/atlantis_fw/AsicFwS2/include/matrix.h **** 
 578:/home/tienluong/workspace/atlantis_fw/AsicFwS2/include/matrix.h ****     static inline constexpr int Idx( int row, int col )
 579:/home/tienluong/workspace/atlantis_fw/AsicFwS2/include/matrix.h ****     {
 580:/home/tienluong/workspace/atlantis_fw/AsicFwS2/include/matrix.h ****         return RowMajor ? row * C + col : col * R + row;
 581:/home/tienluong/workspace/atlantis_fw/AsicFwS2/include/matrix.h ****     }
 582:/home/tienluong/workspace/atlantis_fw/AsicFwS2/include/matrix.h **** 
 583:/home/tienluong/workspace/atlantis_fw/AsicFwS2/include/matrix.h **** public:
 584:/home/tienluong/workspace/atlantis_fw/AsicFwS2/include/matrix.h ****     using ScalarType = T;
 585:/home/tienluong/workspace/atlantis_fw/AsicFwS2/include/matrix.h **** 
 586:/home/tienluong/workspace/atlantis_fw/AsicFwS2/include/matrix.h ****     static constexpr int kRows = R;
 587:/home/tienluong/workspace/atlantis_fw/AsicFwS2/include/matrix.h ****     static constexpr int kCols = C;
 588:/home/tienluong/workspace/atlantis_fw/AsicFwS2/include/matrix.h **** 
 589:/home/tienluong/workspace/atlantis_fw/AsicFwS2/include/matrix.h ****     Matrix() { }
 590:/home/tienluong/workspace/atlantis_fw/AsicFwS2/include/matrix.h **** 
 591:/home/tienluong/workspace/atlantis_fw/AsicFwS2/include/matrix.h ****     Matrix( const Matrix<T, R, C, true> & src ) { *this = src; }
 592:/home/tienluong/workspace/atlantis_fw/AsicFwS2/include/matrix.h **** 
 593:/home/tienluong/workspace/atlantis_fw/AsicFwS2/include/matrix.h ****     Matrix( const Matrix<T, R, C, false> & src ) { *this = src; }
 594:/home/tienluong/workspace/atlantis_fw/AsicFwS2/include/matrix.h **** 
 595:/home/tienluong/workspace/atlantis_fw/AsicFwS2/include/matrix.h ****     /// Input in row-major order.
 596:/home/tienluong/workspace/atlantis_fw/AsicFwS2/include/matrix.h ****     Matrix( std::initializer_list<T> list ) { *this = list; }
 597:/home/tienluong/workspace/atlantis_fw/AsicFwS2/include/matrix.h **** 
 598:/home/tienluong/workspace/atlantis_fw/AsicFwS2/include/matrix.h ****     /// Input in row-major order.
 599:/home/tienluong/workspace/atlantis_fw/AsicFwS2/include/matrix.h ****     explicit Matrix( const std::vector<T> & data ) { *this = data; }
 600:/home/tienluong/workspace/atlantis_fw/AsicFwS2/include/matrix.h **** 
 601:/home/tienluong/workspace/atlantis_fw/AsicFwS2/include/matrix.h ****     /// Input in row-major order.
 602:/home/tienluong/workspace/atlantis_fw/AsicFwS2/include/matrix.h ****     explicit Matrix( const T * ptr )
 603:/home/tienluong/workspace/atlantis_fw/AsicFwS2/include/matrix.h ****     {
 604:/home/tienluong/workspace/atlantis_fw/AsicFwS2/include/matrix.h ****         for( int i = 0; i < R; ++i )
 605:/home/tienluong/workspace/atlantis_fw/AsicFwS2/include/matrix.h ****         {
 606:/home/tienluong/workspace/atlantis_fw/AsicFwS2/include/matrix.h ****             for( int j = 0; j < C; ++j )
 607:/home/tienluong/workspace/atlantis_fw/AsicFwS2/include/matrix.h ****             { this->_data[Idx( i, j )] = ptr[i * C + j]; }
 608:/home/tienluong/workspace/atlantis_fw/AsicFwS2/include/matrix.h ****         }
 609:/home/tienluong/workspace/atlantis_fw/AsicFwS2/include/matrix.h ****     }
 610:/home/tienluong/workspace/atlantis_fw/AsicFwS2/include/matrix.h **** 
 611:/home/tienluong/workspace/atlantis_fw/AsicFwS2/include/matrix.h ****     // generic size/type converting constructor
 612:/home/tienluong/workspace/atlantis_fw/AsicFwS2/include/matrix.h ****     // performs matrix truncation/expansion if necessary
 613:/home/tienluong/workspace/atlantis_fw/AsicFwS2/include/matrix.h ****     template<typename U, int M, int N, bool D>
 614:/home/tienluong/workspace/atlantis_fw/AsicFwS2/include/matrix.h ****     explicit Matrix( const Matrix<U, M, N, D> & src )
 615:/home/tienluong/workspace/atlantis_fw/AsicFwS2/include/matrix.h ****     {
 616:/home/tienluong/workspace/atlantis_fw/AsicFwS2/include/matrix.h ****         constexpr int kMinRow = M < R ? M : R;
 617:/home/tienluong/workspace/atlantis_fw/AsicFwS2/include/matrix.h ****         constexpr int kMinCol = N < C ? N : C;
 618:/home/tienluong/workspace/atlantis_fw/AsicFwS2/include/matrix.h ****         for( int i = 0; i < kMinRow; ++i )
 619:/home/tienluong/workspace/atlantis_fw/AsicFwS2/include/matrix.h ****         {
 620:/home/tienluong/workspace/atlantis_fw/AsicFwS2/include/matrix.h ****             for( int j = 0; j < kMinCol; ++j )
 621:/home/tienluong/workspace/atlantis_fw/AsicFwS2/include/matrix.h ****             { this->_data[Idx( i, j )] = static_cast<T>( src( i, j ) ); }
 622:/home/tienluong/workspace/atlantis_fw/AsicFwS2/include/matrix.h ****             for( int j = kMinCol; j < C; ++j )
 623:/home/tienluong/workspace/atlantis_fw/AsicFwS2/include/matrix.h ****             { this->_data[Idx( i, j )] = i == j ? T{1} : T{0}; }
 624:/home/tienluong/workspace/atlantis_fw/AsicFwS2/include/matrix.h ****         }
 625:/home/tienluong/workspace/atlantis_fw/AsicFwS2/include/matrix.h ****         for( int i = kMinRow; i < R; ++i )
 626:/home/tienluong/workspace/atlantis_fw/AsicFwS2/include/matrix.h ****         {
 627:/home/tienluong/workspace/atlantis_fw/AsicFwS2/include/matrix.h ****             for( int j = 0; j < C; ++j )
 628:/home/tienluong/workspace/atlantis_fw/AsicFwS2/include/matrix.h ****             { this->_data[Idx( i, j )] = i == j ? T{1} : T{0}; }
 629:/home/tienluong/workspace/atlantis_fw/AsicFwS2/include/matrix.h ****         }
 630:/home/tienluong/workspace/atlantis_fw/AsicFwS2/include/matrix.h ****     }
 631:/home/tienluong/workspace/atlantis_fw/AsicFwS2/include/matrix.h **** 
 632:/home/tienluong/workspace/atlantis_fw/AsicFwS2/include/matrix.h ****     template<int M, int N, bool D>
 633:/home/tienluong/workspace/atlantis_fw/AsicFwS2/include/matrix.h ****     Matrix & operator=( const Matrix<T, M, N, D> & src )
 634:/home/tienluong/workspace/atlantis_fw/AsicFwS2/include/matrix.h ****     {
 635:/home/tienluong/workspace/atlantis_fw/AsicFwS2/include/matrix.h ****         static_assert( R == M && C == N, "matrix size mismatch!" );
 636:/home/tienluong/workspace/atlantis_fw/AsicFwS2/include/matrix.h ****         if( RowMajor == D )
 637:/home/tienluong/workspace/atlantis_fw/AsicFwS2/include/matrix.h ****         {
 638:/home/tienluong/workspace/atlantis_fw/AsicFwS2/include/matrix.h ****             // same element ordering, just copy the elements
 639:/home/tienluong/workspace/atlantis_fw/AsicFwS2/include/matrix.h ****             const T * src_ptr = src.data();
 640:/home/tienluong/workspace/atlantis_fw/AsicFwS2/include/matrix.h ****             for( int i = 0; i < kSize; ++i ) { this->_data[i] = src_ptr[i]; }
 641:/home/tienluong/workspace/atlantis_fw/AsicFwS2/include/matrix.h ****         }
 642:/home/tienluong/workspace/atlantis_fw/AsicFwS2/include/matrix.h ****         else
 643:/home/tienluong/workspace/atlantis_fw/AsicFwS2/include/matrix.h ****         {
 644:/home/tienluong/workspace/atlantis_fw/AsicFwS2/include/matrix.h ****             // different element ordering requires a transpose
 645:/home/tienluong/workspace/atlantis_fw/AsicFwS2/include/matrix.h ****             for( int i = 0; i < R; ++i )
 646:/home/tienluong/workspace/atlantis_fw/AsicFwS2/include/matrix.h ****             {
 647:/home/tienluong/workspace/atlantis_fw/AsicFwS2/include/matrix.h ****                 for( int j = 0; j < C; ++j )
 648:/home/tienluong/workspace/atlantis_fw/AsicFwS2/include/matrix.h ****                 { this->_data[Idx( i, j )] = src( i, j ); }
 649:/home/tienluong/workspace/atlantis_fw/AsicFwS2/include/matrix.h ****             }
 650:/home/tienluong/workspace/atlantis_fw/AsicFwS2/include/matrix.h ****         }
 651:/home/tienluong/workspace/atlantis_fw/AsicFwS2/include/matrix.h ****         return *this;
 652:/home/tienluong/workspace/atlantis_fw/AsicFwS2/include/matrix.h ****     }
 653:/home/tienluong/workspace/atlantis_fw/AsicFwS2/include/matrix.h **** 
 654:/home/tienluong/workspace/atlantis_fw/AsicFwS2/include/matrix.h ****     /// Input in row-major order.
 655:/home/tienluong/workspace/atlantis_fw/AsicFwS2/include/matrix.h ****     Matrix & operator=( const std::vector<T> & src )
 656:/home/tienluong/workspace/atlantis_fw/AsicFwS2/include/matrix.h ****     {
 657:/home/tienluong/workspace/atlantis_fw/AsicFwS2/include/matrix.h ****         //if( src.size() != kSize )
 658:/home/tienluong/workspace/atlantis_fw/AsicFwS2/include/matrix.h ****         //{ LT_THROW( "source data and matrix size mismatch!" ); }
 659:/home/tienluong/workspace/atlantis_fw/AsicFwS2/include/matrix.h **** 
 660:/home/tienluong/workspace/atlantis_fw/AsicFwS2/include/matrix.h ****         auto it = src.begin();
 661:/home/tienluong/workspace/atlantis_fw/AsicFwS2/include/matrix.h ****         for( int i = 0; i < R; ++i )
 662:/home/tienluong/workspace/atlantis_fw/AsicFwS2/include/matrix.h ****         {
 663:/home/tienluong/workspace/atlantis_fw/AsicFwS2/include/matrix.h ****             for( int j = 0; j < C; ++j, ++it )
 664:/home/tienluong/workspace/atlantis_fw/AsicFwS2/include/matrix.h ****             { this->_data[Idx( i, j )] = *it; }
 665:/home/tienluong/workspace/atlantis_fw/AsicFwS2/include/matrix.h ****         }
 666:/home/tienluong/workspace/atlantis_fw/AsicFwS2/include/matrix.h **** 
 667:/home/tienluong/workspace/atlantis_fw/AsicFwS2/include/matrix.h ****         return *this;
 668:/home/tienluong/workspace/atlantis_fw/AsicFwS2/include/matrix.h ****     }
 669:/home/tienluong/workspace/atlantis_fw/AsicFwS2/include/matrix.h **** 
 670:/home/tienluong/workspace/atlantis_fw/AsicFwS2/include/matrix.h ****     /// Input in row-major order.
 671:/home/tienluong/workspace/atlantis_fw/AsicFwS2/include/matrix.h ****     Matrix & operator=( const std::initializer_list<T> src )
 672:/home/tienluong/workspace/atlantis_fw/AsicFwS2/include/matrix.h ****     {
 673:/home/tienluong/workspace/atlantis_fw/AsicFwS2/include/matrix.h ****         //if( src.size() != kSize )
 674:/home/tienluong/workspace/atlantis_fw/AsicFwS2/include/matrix.h ****         //{ LT_THROW( "source data and matrix size mismatch!" ); }
 675:/home/tienluong/workspace/atlantis_fw/AsicFwS2/include/matrix.h **** 
 676:/home/tienluong/workspace/atlantis_fw/AsicFwS2/include/matrix.h ****         auto it = src.begin();
 677:/home/tienluong/workspace/atlantis_fw/AsicFwS2/include/matrix.h ****         for( int i = 0; i < R; ++i )
 678:/home/tienluong/workspace/atlantis_fw/AsicFwS2/include/matrix.h ****         {
 679:/home/tienluong/workspace/atlantis_fw/AsicFwS2/include/matrix.h ****             for( int j = 0; j < C; ++j, ++it )
 680:/home/tienluong/workspace/atlantis_fw/AsicFwS2/include/matrix.h ****             { this->_data[Idx( i, j )] = *it; }
 681:/home/tienluong/workspace/atlantis_fw/AsicFwS2/include/matrix.h ****         }
 682:/home/tienluong/workspace/atlantis_fw/AsicFwS2/include/matrix.h **** 
 683:/home/tienluong/workspace/atlantis_fw/AsicFwS2/include/matrix.h ****         return *this;
 684:/home/tienluong/workspace/atlantis_fw/AsicFwS2/include/matrix.h ****     }
 685:/home/tienluong/workspace/atlantis_fw/AsicFwS2/include/matrix.h **** 
 686:/home/tienluong/workspace/atlantis_fw/AsicFwS2/include/matrix.h ****     Matrix & operator=( T scalar )
 687:/home/tienluong/workspace/atlantis_fw/AsicFwS2/include/matrix.h ****     {
 688:/home/tienluong/workspace/atlantis_fw/AsicFwS2/include/matrix.h ****         for( int i = 0; i < kSize; ++i ) { this->_data[i] = scalar; }
 689:/home/tienluong/workspace/atlantis_fw/AsicFwS2/include/matrix.h ****         return *this;
 690:/home/tienluong/workspace/atlantis_fw/AsicFwS2/include/matrix.h ****     }
 691:/home/tienluong/workspace/atlantis_fw/AsicFwS2/include/matrix.h **** 
 692:/home/tienluong/workspace/atlantis_fw/AsicFwS2/include/matrix.h ****     template<typename U, int M, int N, bool D>
 693:/home/tienluong/workspace/atlantis_fw/AsicFwS2/include/matrix.h ****     bool operator==( const Matrix<U, M, N, D> & mat ) const
 694:/home/tienluong/workspace/atlantis_fw/AsicFwS2/include/matrix.h ****     {
 695:/home/tienluong/workspace/atlantis_fw/AsicFwS2/include/matrix.h ****         static_assert( R == M && C == N, "matrix size mismatch!" );
 696:/home/tienluong/workspace/atlantis_fw/AsicFwS2/include/matrix.h ****         for( int i = 0; i < R; ++i )
 697:/home/tienluong/workspace/atlantis_fw/AsicFwS2/include/matrix.h ****         {
 698:/home/tienluong/workspace/atlantis_fw/AsicFwS2/include/matrix.h ****             for( int j = 0; j < C; ++j )
 699:/home/tienluong/workspace/atlantis_fw/AsicFwS2/include/matrix.h ****             { if( this->_data[Idx( i, j )] != mat( i, j ) ) { return false; } }
 700:/home/tienluong/workspace/atlantis_fw/AsicFwS2/include/matrix.h ****         }
 701:/home/tienluong/workspace/atlantis_fw/AsicFwS2/include/matrix.h ****         return true;
 702:/home/tienluong/workspace/atlantis_fw/AsicFwS2/include/matrix.h ****     }
 703:/home/tienluong/workspace/atlantis_fw/AsicFwS2/include/matrix.h **** 
 704:/home/tienluong/workspace/atlantis_fw/AsicFwS2/include/matrix.h ****     template<typename U, int M, int N, bool D>
 705:/home/tienluong/workspace/atlantis_fw/AsicFwS2/include/matrix.h ****     bool operator!=( const Matrix<U, M, N, D> & mat ) const
 706:/home/tienluong/workspace/atlantis_fw/AsicFwS2/include/matrix.h ****     { return !( *this == mat ); }
 707:/home/tienluong/workspace/atlantis_fw/AsicFwS2/include/matrix.h **** 
 708:/home/tienluong/workspace/atlantis_fw/AsicFwS2/include/matrix.h ****     const T * data() const { return this->_data; }
 709:/home/tienluong/workspace/atlantis_fw/AsicFwS2/include/matrix.h ****     T * data() { return this->_data; }
 710:/home/tienluong/workspace/atlantis_fw/AsicFwS2/include/matrix.h **** 
 711:/home/tienluong/workspace/atlantis_fw/AsicFwS2/include/matrix.h ****     T & operator()( int r, int c ) { return this->_data[Idx( r, c )]; }
 712:/home/tienluong/workspace/atlantis_fw/AsicFwS2/include/matrix.h ****     const T & operator()( int r, int c ) const { return this->_data[Idx( r, c )]; }
 713:/home/tienluong/workspace/atlantis_fw/AsicFwS2/include/matrix.h **** 
 714:/home/tienluong/workspace/atlantis_fw/AsicFwS2/include/matrix.h ****     template<int M, int N, bool D>
 715:/home/tienluong/workspace/atlantis_fw/AsicFwS2/include/matrix.h ****     Matrix<T, R, N> operator*( const Matrix<T, M, N, D> & mat ) const
 716:/home/tienluong/workspace/atlantis_fw/AsicFwS2/include/matrix.h ****     {
 717:/home/tienluong/workspace/atlantis_fw/AsicFwS2/include/matrix.h ****         static_assert( C == M, "invalid matrix product!" );
 718:/home/tienluong/workspace/atlantis_fw/AsicFwS2/include/matrix.h ****         Matrix<T, R, N> rval;
 719:/home/tienluong/workspace/atlantis_fw/AsicFwS2/include/matrix.h **** 
 720:/home/tienluong/workspace/atlantis_fw/AsicFwS2/include/matrix.h ****         // XXX: is this code actually more SIMD-friendly than a naive implementation?
 721:/home/tienluong/workspace/atlantis_fw/AsicFwS2/include/matrix.h ****         for( int i = 0; i < R; ++i )
 722:/home/tienluong/workspace/atlantis_fw/AsicFwS2/include/matrix.h ****         {
 723:/home/tienluong/workspace/atlantis_fw/AsicFwS2/include/matrix.h ****             // set 1st row
 724:/home/tienluong/workspace/atlantis_fw/AsicFwS2/include/matrix.h ****             for( int j = 0; j < N; ++j )
 725:/home/tienluong/workspace/atlantis_fw/AsicFwS2/include/matrix.h ****             { rval( i, j ) = this->_data[Idx( i, 0 )] * mat( 0, j ); }
 726:/home/tienluong/workspace/atlantis_fw/AsicFwS2/include/matrix.h ****             // accum n-th row
 727:/home/tienluong/workspace/atlantis_fw/AsicFwS2/include/matrix.h ****             for( int k = 1; k < M; ++k )
 728:/home/tienluong/workspace/atlantis_fw/AsicFwS2/include/matrix.h ****             {
 729:/home/tienluong/workspace/atlantis_fw/AsicFwS2/include/matrix.h ****                 for( int j = 0; j < N; ++j )
 730:/home/tienluong/workspace/atlantis_fw/AsicFwS2/include/matrix.h ****                 { rval( i, j ) += this->_data[Idx( i, k )] * mat( k, j ); }
 731:/home/tienluong/workspace/atlantis_fw/AsicFwS2/include/matrix.h ****             }
 732:/home/tienluong/workspace/atlantis_fw/AsicFwS2/include/matrix.h ****         }
 733:/home/tienluong/workspace/atlantis_fw/AsicFwS2/include/matrix.h ****         return rval;
 734:/home/tienluong/workspace/atlantis_fw/AsicFwS2/include/matrix.h ****     }
 735:/home/tienluong/workspace/atlantis_fw/AsicFwS2/include/matrix.h **** 
 736:/home/tienluong/workspace/atlantis_fw/AsicFwS2/include/matrix.h ****     template<int M, int N, bool D>
 737:/home/tienluong/workspace/atlantis_fw/AsicFwS2/include/matrix.h ****     Matrix & operator *=( const Matrix<T, M, N, D> & mat )
 738:/home/tienluong/workspace/atlantis_fw/AsicFwS2/include/matrix.h ****     {
 739:/home/tienluong/workspace/atlantis_fw/AsicFwS2/include/matrix.h ****         *this = *this * mat;
 740:/home/tienluong/workspace/atlantis_fw/AsicFwS2/include/matrix.h ****         return *this;
 741:/home/tienluong/workspace/atlantis_fw/AsicFwS2/include/matrix.h ****     }
 742:/home/tienluong/workspace/atlantis_fw/AsicFwS2/include/matrix.h **** 
 743:/home/tienluong/workspace/atlantis_fw/AsicFwS2/include/matrix.h ****     template<int M, int N, bool D>
 744:/home/tienluong/workspace/atlantis_fw/AsicFwS2/include/matrix.h ****     Matrix & operator +=( const Matrix<T, M, N, D> & mat )
 745:/home/tienluong/workspace/atlantis_fw/AsicFwS2/include/matrix.h ****     {
 746:/home/tienluong/workspace/atlantis_fw/AsicFwS2/include/matrix.h ****         static_assert( R == M && C == N, "matrix size mismatch!" );
 747:/home/tienluong/workspace/atlantis_fw/AsicFwS2/include/matrix.h ****         for( int i = 0; i < R; ++i )
 748:/home/tienluong/workspace/atlantis_fw/AsicFwS2/include/matrix.h ****         {
 749:/home/tienluong/workspace/atlantis_fw/AsicFwS2/include/matrix.h ****             for( int j = 0; j < C; ++j )
 750:/home/tienluong/workspace/atlantis_fw/AsicFwS2/include/matrix.h ****             { this->_data[Idx( i, j )] += mat( i, j ); }
 751:/home/tienluong/workspace/atlantis_fw/AsicFwS2/include/matrix.h ****         }
 752:/home/tienluong/workspace/atlantis_fw/AsicFwS2/include/matrix.h ****         return *this;
 753:/home/tienluong/workspace/atlantis_fw/AsicFwS2/include/matrix.h ****     }
 754:/home/tienluong/workspace/atlantis_fw/AsicFwS2/include/matrix.h **** 
 755:/home/tienluong/workspace/atlantis_fw/AsicFwS2/include/matrix.h ****     template<int M, int N, bool D>
 756:/home/tienluong/workspace/atlantis_fw/AsicFwS2/include/matrix.h ****     Matrix & operator -=( const Matrix<T, M, N, D> & mat )
 757:/home/tienluong/workspace/atlantis_fw/AsicFwS2/include/matrix.h ****     {
 758:/home/tienluong/workspace/atlantis_fw/AsicFwS2/include/matrix.h ****         static_assert( R == M && C == N, "matrix size mismatch!" );
 759:/home/tienluong/workspace/atlantis_fw/AsicFwS2/include/matrix.h ****         for( int i = 0; i < R; ++i )
 760:/home/tienluong/workspace/atlantis_fw/AsicFwS2/include/matrix.h ****         {
 761:/home/tienluong/workspace/atlantis_fw/AsicFwS2/include/matrix.h ****             for( int j = 0; j < C; ++j )
 762:/home/tienluong/workspace/atlantis_fw/AsicFwS2/include/matrix.h ****             { this->_data[Idx( i, j )] -= mat( i, j ); }
 763:/home/tienluong/workspace/atlantis_fw/AsicFwS2/include/matrix.h ****         }
 764:/home/tienluong/workspace/atlantis_fw/AsicFwS2/include/matrix.h ****         return *this;
 765:/home/tienluong/workspace/atlantis_fw/AsicFwS2/include/matrix.h ****     }
 766:/home/tienluong/workspace/atlantis_fw/AsicFwS2/include/matrix.h **** 
 767:/home/tienluong/workspace/atlantis_fw/AsicFwS2/include/matrix.h ****     Matrix & operator *=( T scalar )
 768:/home/tienluong/workspace/atlantis_fw/AsicFwS2/include/matrix.h ****     {
 769:/home/tienluong/workspace/atlantis_fw/AsicFwS2/include/matrix.h ****         for( int i = 0; i < kSize; ++i ) { this->_data[i] *= scalar; }
 770:/home/tienluong/workspace/atlantis_fw/AsicFwS2/include/matrix.h ****         return *this;
 771:/home/tienluong/workspace/atlantis_fw/AsicFwS2/include/matrix.h ****     }
 772:/home/tienluong/workspace/atlantis_fw/AsicFwS2/include/matrix.h **** 
 773:/home/tienluong/workspace/atlantis_fw/AsicFwS2/include/matrix.h ****     Matrix & operator +=( T scalar )
 774:/home/tienluong/workspace/atlantis_fw/AsicFwS2/include/matrix.h ****     {
 775:/home/tienluong/workspace/atlantis_fw/AsicFwS2/include/matrix.h ****         for( int i = 0; i < kSize; ++i ) { this->_data[i] += scalar; }
 776:/home/tienluong/workspace/atlantis_fw/AsicFwS2/include/matrix.h ****         return *this;
 777:/home/tienluong/workspace/atlantis_fw/AsicFwS2/include/matrix.h ****     }
 778:/home/tienluong/workspace/atlantis_fw/AsicFwS2/include/matrix.h **** 
 779:/home/tienluong/workspace/atlantis_fw/AsicFwS2/include/matrix.h ****     Matrix & operator /=( T scalar )
 780:/home/tienluong/workspace/atlantis_fw/AsicFwS2/include/matrix.h ****     {
 781:/home/tienluong/workspace/atlantis_fw/AsicFwS2/include/matrix.h ****         scalar = 1.0f / scalar;
 782:/home/tienluong/workspace/atlantis_fw/AsicFwS2/include/matrix.h ****         for( int i = 0; i < kSize; ++i ) { this->_data[i] *= scalar; }
 783:/home/tienluong/workspace/atlantis_fw/AsicFwS2/include/matrix.h ****         return *this;
 784:/home/tienluong/workspace/atlantis_fw/AsicFwS2/include/matrix.h ****     }
 785:/home/tienluong/workspace/atlantis_fw/AsicFwS2/include/matrix.h **** 
 786:/home/tienluong/workspace/atlantis_fw/AsicFwS2/include/matrix.h ****     Matrix & operator -=( T scalar )
 787:/home/tienluong/workspace/atlantis_fw/AsicFwS2/include/matrix.h ****     {
 788:/home/tienluong/workspace/atlantis_fw/AsicFwS2/include/matrix.h ****         for( int i = 0; i < kSize; ++i ) { this->_data[i] -= scalar; }
 789:/home/tienluong/workspace/atlantis_fw/AsicFwS2/include/matrix.h ****         return *this;
 790:/home/tienluong/workspace/atlantis_fw/AsicFwS2/include/matrix.h ****     }
 791:/home/tienluong/workspace/atlantis_fw/AsicFwS2/include/matrix.h **** 
 792:/home/tienluong/workspace/atlantis_fw/AsicFwS2/include/matrix.h ****     template<int M, int N, bool D>
 793:/home/tienluong/workspace/atlantis_fw/AsicFwS2/include/matrix.h ****     Matrix operator+( const Matrix<T, M, N, D> & mat ) const
 794:/home/tienluong/workspace/atlantis_fw/AsicFwS2/include/matrix.h ****     { Matrix rval{*this}; rval += mat; return rval; }
 795:/home/tienluong/workspace/atlantis_fw/AsicFwS2/include/matrix.h **** 
 796:/home/tienluong/workspace/atlantis_fw/AsicFwS2/include/matrix.h ****     template<int M, int N, bool D>
 797:/home/tienluong/workspace/atlantis_fw/AsicFwS2/include/matrix.h ****     Matrix operator-( const Matrix<T, M, N, D> & mat ) const
 798:/home/tienluong/workspace/atlantis_fw/AsicFwS2/include/matrix.h ****     { Matrix rval{*this}; rval -= mat; return rval; }
 799:/home/tienluong/workspace/atlantis_fw/AsicFwS2/include/matrix.h **** 
 800:/home/tienluong/workspace/atlantis_fw/AsicFwS2/include/matrix.h ****     Matrix operator*( T scalar ) const
 801:/home/tienluong/workspace/atlantis_fw/AsicFwS2/include/matrix.h ****     { Matrix rval{*this}; rval *= scalar; return rval; }
 802:/home/tienluong/workspace/atlantis_fw/AsicFwS2/include/matrix.h **** 
 803:/home/tienluong/workspace/atlantis_fw/AsicFwS2/include/matrix.h ****     Matrix operator+( T scalar ) const
 804:/home/tienluong/workspace/atlantis_fw/AsicFwS2/include/matrix.h ****     { Matrix rval{*this}; rval += scalar; return rval; }
 805:/home/tienluong/workspace/atlantis_fw/AsicFwS2/include/matrix.h **** 
 806:/home/tienluong/workspace/atlantis_fw/AsicFwS2/include/matrix.h ****     Matrix operator-( T scalar ) const
 807:/home/tienluong/workspace/atlantis_fw/AsicFwS2/include/matrix.h ****     { Matrix rval{*this}; rval -= scalar; return rval; }
 808:/home/tienluong/workspace/atlantis_fw/AsicFwS2/include/matrix.h **** 
 809:/home/tienluong/workspace/atlantis_fw/AsicFwS2/include/matrix.h ****     Matrix operator/( T scalar ) const
 810:/home/tienluong/workspace/atlantis_fw/AsicFwS2/include/matrix.h ****     { Matrix rval{*this}; rval /= scalar; return rval; }
 811:/home/tienluong/workspace/atlantis_fw/AsicFwS2/include/matrix.h **** 
 812:/home/tienluong/workspace/atlantis_fw/AsicFwS2/include/matrix.h ****     Matrix<T, 1, C> row( int i ) const
 813:/home/tienluong/workspace/atlantis_fw/AsicFwS2/include/matrix.h ****     {
 814:/home/tienluong/workspace/atlantis_fw/AsicFwS2/include/matrix.h ****         Matrix<T, 1, C> rval;
 815:/home/tienluong/workspace/atlantis_fw/AsicFwS2/include/matrix.h ****         for( int j = 0; j < C; ++j ) { rval( 0, j ) = this->_data[Idx( i, j )]; }
 816:/home/tienluong/workspace/atlantis_fw/AsicFwS2/include/matrix.h ****         return rval;
 817:/home/tienluong/workspace/atlantis_fw/AsicFwS2/include/matrix.h ****     }
 818:/home/tienluong/workspace/atlantis_fw/AsicFwS2/include/matrix.h **** 
 819:/home/tienluong/workspace/atlantis_fw/AsicFwS2/include/matrix.h ****     Matrix<T, 1, C> column( int i ) const
 820:/home/tienluong/workspace/atlantis_fw/AsicFwS2/include/matrix.h ****     {
 821:/home/tienluong/workspace/atlantis_fw/AsicFwS2/include/matrix.h ****         Matrix<T, R, 1> rval;
 822:/home/tienluong/workspace/atlantis_fw/AsicFwS2/include/matrix.h ****         for( int j = 0; j < R; ++j ) { rval( j, 0 ) = this->_data[Idx( j, i )]; }
 823:/home/tienluong/workspace/atlantis_fw/AsicFwS2/include/matrix.h ****         return rval;
 824:/home/tienluong/workspace/atlantis_fw/AsicFwS2/include/matrix.h ****     }
 825:/home/tienluong/workspace/atlantis_fw/AsicFwS2/include/matrix.h **** 
 826:/home/tienluong/workspace/atlantis_fw/AsicFwS2/include/matrix.h ****     Matrix & swapRow( int i, int j )
 827:/home/tienluong/workspace/atlantis_fw/AsicFwS2/include/matrix.h ****     {
 828:/home/tienluong/workspace/atlantis_fw/AsicFwS2/include/matrix.h ****         using std::swap;
 829:/home/tienluong/workspace/atlantis_fw/AsicFwS2/include/matrix.h ****         for( int k = 0; k < C; ++k )
 830:/home/tienluong/workspace/atlantis_fw/AsicFwS2/include/matrix.h ****         { swap( this->_data[Idx( i, k )], this->_data[Idx( j, k )] ); }
 831:/home/tienluong/workspace/atlantis_fw/AsicFwS2/include/matrix.h ****         return *this;
 832:/home/tienluong/workspace/atlantis_fw/AsicFwS2/include/matrix.h ****     }
 833:/home/tienluong/workspace/atlantis_fw/AsicFwS2/include/matrix.h **** 
 834:/home/tienluong/workspace/atlantis_fw/AsicFwS2/include/matrix.h ****     Matrix & swapColumn( int i, int j )
 835:/home/tienluong/workspace/atlantis_fw/AsicFwS2/include/matrix.h ****     {
 836:/home/tienluong/workspace/atlantis_fw/AsicFwS2/include/matrix.h ****         using std::swap;
 837:/home/tienluong/workspace/atlantis_fw/AsicFwS2/include/matrix.h ****         for( int k = 0; k < R; ++k )
 838:/home/tienluong/workspace/atlantis_fw/AsicFwS2/include/matrix.h ****         { swap( this->_data[Idx( k, i )], this->_data[Idx( k, j )] ); }
 839:/home/tienluong/workspace/atlantis_fw/AsicFwS2/include/matrix.h ****         return *this;
 840:/home/tienluong/workspace/atlantis_fw/AsicFwS2/include/matrix.h ****     }
 841:/home/tienluong/workspace/atlantis_fw/AsicFwS2/include/matrix.h **** 
 842:/home/tienluong/workspace/atlantis_fw/AsicFwS2/include/matrix.h ****     T sum() const
 843:/home/tienluong/workspace/atlantis_fw/AsicFwS2/include/matrix.h ****     {
 844:/home/tienluong/workspace/atlantis_fw/AsicFwS2/include/matrix.h ****         T sum = this->_data[0];
 845:/home/tienluong/workspace/atlantis_fw/AsicFwS2/include/matrix.h ****         for( int j = 1; j < kSize; ++j ) { sum += this->_data[j]; }
 846:/home/tienluong/workspace/atlantis_fw/AsicFwS2/include/matrix.h ****         return sum;
 847:/home/tienluong/workspace/atlantis_fw/AsicFwS2/include/matrix.h ****     }
 848:/home/tienluong/workspace/atlantis_fw/AsicFwS2/include/matrix.h **** 
 849:/home/tienluong/workspace/atlantis_fw/AsicFwS2/include/matrix.h ****     Matrix & setIdentity()
 850:/home/tienluong/workspace/atlantis_fw/AsicFwS2/include/matrix.h ****     {
 851:/home/tienluong/workspace/atlantis_fw/AsicFwS2/include/matrix.h ****         for( int i = 0; i < R; ++i )
 852:/home/tienluong/workspace/atlantis_fw/AsicFwS2/include/matrix.h ****         {
 853:/home/tienluong/workspace/atlantis_fw/AsicFwS2/include/matrix.h ****             for( int j = 0; j < C; ++j )
 854:/home/tienluong/workspace/atlantis_fw/AsicFwS2/include/matrix.h ****             { this->_data[Idx( i, j )] = i == j ? T{1} : T{0}; }
 855:/home/tienluong/workspace/atlantis_fw/AsicFwS2/include/matrix.h ****         }
 856:/home/tienluong/workspace/atlantis_fw/AsicFwS2/include/matrix.h ****         return *this;
 857:/home/tienluong/workspace/atlantis_fw/AsicFwS2/include/matrix.h ****     }
 858:/home/tienluong/workspace/atlantis_fw/AsicFwS2/include/matrix.h **** 
 859:/home/tienluong/workspace/atlantis_fw/AsicFwS2/include/matrix.h ****     const Matrix < T, C, R, !RowMajor > & transpose() const
 860:/home/tienluong/workspace/atlantis_fw/AsicFwS2/include/matrix.h ****     {
 861:/home/tienluong/workspace/atlantis_fw/AsicFwS2/include/matrix.h ****         return *reinterpret_cast < const Matrix < T, C, R, !RowMajor > * >( this );
 862:/home/tienluong/workspace/atlantis_fw/AsicFwS2/include/matrix.h ****     }
 863:/home/tienluong/workspace/atlantis_fw/AsicFwS2/include/matrix.h **** 
 864:/home/tienluong/workspace/atlantis_fw/AsicFwS2/include/matrix.h ****     // friend std::ostream & operator<<( std::ostream & os, const Matrix & m )
 865:/home/tienluong/workspace/atlantis_fw/AsicFwS2/include/matrix.h ****     // {
 866:/home/tienluong/workspace/atlantis_fw/AsicFwS2/include/matrix.h ****     //     std::stringstream sb;
 867:/home/tienluong/workspace/atlantis_fw/AsicFwS2/include/matrix.h ****     //     sb << std::endl << "[ ";
 868:/home/tienluong/workspace/atlantis_fw/AsicFwS2/include/matrix.h ****     //     for( int i = 0; i < R; ++i )
 869:/home/tienluong/workspace/atlantis_fw/AsicFwS2/include/matrix.h ****     //     {
 870:/home/tienluong/workspace/atlantis_fw/AsicFwS2/include/matrix.h ****     //         for( int j = 0; j < C; ++j ) { sb << m( i, j ) << " "; }
 871:/home/tienluong/workspace/atlantis_fw/AsicFwS2/include/matrix.h ****     //         if( i != R - 1 ) { sb << std::endl; }
 872:/home/tienluong/workspace/atlantis_fw/AsicFwS2/include/matrix.h ****     //     }
 873:/home/tienluong/workspace/atlantis_fw/AsicFwS2/include/matrix.h ****     //     sb << "]" << std::endl;
 874:/home/tienluong/workspace/atlantis_fw/AsicFwS2/include/matrix.h ****     //     return os << sb.rdbuf();
 875:/home/tienluong/workspace/atlantis_fw/AsicFwS2/include/matrix.h ****     // }
 876:/home/tienluong/workspace/atlantis_fw/AsicFwS2/include/matrix.h **** 
 877:/home/tienluong/workspace/atlantis_fw/AsicFwS2/include/matrix.h ****     static constexpr bool IsRowMajor() { return RowMajor; }
 878:/home/tienluong/workspace/atlantis_fw/AsicFwS2/include/matrix.h **** 
 879:/home/tienluong/workspace/atlantis_fw/AsicFwS2/include/matrix.h ****     static Matrix Identity()
 880:/home/tienluong/workspace/atlantis_fw/AsicFwS2/include/matrix.h ****     {
 881:/home/tienluong/workspace/atlantis_fw/AsicFwS2/include/matrix.h ****         Matrix rval;
 882:/home/tienluong/workspace/atlantis_fw/AsicFwS2/include/matrix.h ****         return rval.setIdentity();
 883:/home/tienluong/workspace/atlantis_fw/AsicFwS2/include/matrix.h ****     }
 884:/home/tienluong/workspace/atlantis_fw/AsicFwS2/include/matrix.h **** };
 885:/home/tienluong/workspace/atlantis_fw/AsicFwS2/include/matrix.h **** 
 886:/home/tienluong/workspace/atlantis_fw/AsicFwS2/include/matrix.h **** template<typename T, int R, int C, bool D>
 887:/home/tienluong/workspace/atlantis_fw/AsicFwS2/include/matrix.h **** Matrix < T, C, R, !D > transpose( const Matrix<T, R, C, D> & mat )
 888:/home/tienluong/workspace/atlantis_fw/AsicFwS2/include/matrix.h **** {
 889:/home/tienluong/workspace/atlantis_fw/AsicFwS2/include/matrix.h ****     // simply copy the data and flip the matrix ordering
 890:/home/tienluong/workspace/atlantis_fw/AsicFwS2/include/matrix.h ****     Matrix < T, C, R, !D > rval;
 891:/home/tienluong/workspace/atlantis_fw/AsicFwS2/include/matrix.h ****     T * dst = rval.data();
 892:/home/tienluong/workspace/atlantis_fw/AsicFwS2/include/matrix.h ****     const T * src = mat.data();
 893:/home/tienluong/workspace/atlantis_fw/AsicFwS2/include/matrix.h ****     for( int i = 0; i < R * C; ++i ) { dst[i] = src[i]; }
 894:/home/tienluong/workspace/atlantis_fw/AsicFwS2/include/matrix.h ****     return rval;
 895:/home/tienluong/workspace/atlantis_fw/AsicFwS2/include/matrix.h **** }
 896:/home/tienluong/workspace/atlantis_fw/AsicFwS2/include/matrix.h **** 
 897:/home/tienluong/workspace/atlantis_fw/AsicFwS2/include/matrix.h **** template<typename T, int N, bool D>
 898:/home/tienluong/workspace/atlantis_fw/AsicFwS2/include/matrix.h **** Matrix<T, N, N, D> inverse( const Matrix<T, N, N, D> & mat );
 899:/home/tienluong/workspace/atlantis_fw/AsicFwS2/include/matrix.h **** 
 900:/home/tienluong/workspace/atlantis_fw/AsicFwS2/include/matrix.h **** template<typename T, int N, bool D>
 901:/home/tienluong/workspace/atlantis_fw/AsicFwS2/include/matrix.h **** T determinant( const Matrix<T, N, N, D> & mat );
 902:/home/tienluong/workspace/atlantis_fw/AsicFwS2/include/matrix.h **** 
 903:/home/tienluong/workspace/atlantis_fw/AsicFwS2/include/matrix.h **** // scalar-matrix operators
 904:/home/tienluong/workspace/atlantis_fw/AsicFwS2/include/matrix.h **** template<typename T, typename U, int R, int C, bool D>
 905:/home/tienluong/workspace/atlantis_fw/AsicFwS2/include/matrix.h **** typename std::enable_if<std::is_arithmetic<T>::value, Matrix<U, R, C, D> >::type
 906:/home/tienluong/workspace/atlantis_fw/AsicFwS2/include/matrix.h **** operator+( T a, const Matrix<U, R, C, D> & b ) { return b + a; }
 907:/home/tienluong/workspace/atlantis_fw/AsicFwS2/include/matrix.h **** 
 908:/home/tienluong/workspace/atlantis_fw/AsicFwS2/include/matrix.h **** template<typename T, typename U, int R, int C, bool D>
 909:/home/tienluong/workspace/atlantis_fw/AsicFwS2/include/matrix.h **** typename std::enable_if<std::is_arithmetic<T>::value, Matrix<U, R, C, D> >::type
 910:/home/tienluong/workspace/atlantis_fw/AsicFwS2/include/matrix.h **** operator-( T a, const Matrix<U, R, C, D> & b )
 911:/home/tienluong/workspace/atlantis_fw/AsicFwS2/include/matrix.h **** {
 912:/home/tienluong/workspace/atlantis_fw/AsicFwS2/include/matrix.h ****     Matrix<U, R, C, D> rval;
 913:/home/tienluong/workspace/atlantis_fw/AsicFwS2/include/matrix.h ****     for( int i = 0; i < R; ++i )
 914:/home/tienluong/workspace/atlantis_fw/AsicFwS2/include/matrix.h ****     { for( int j = 0; j < C; ++j ) { rval( i, j ) = U( a ) - b( i, j ); } }
 915:/home/tienluong/workspace/atlantis_fw/AsicFwS2/include/matrix.h ****     return rval;
 916:/home/tienluong/workspace/atlantis_fw/AsicFwS2/include/matrix.h **** }
 917:/home/tienluong/workspace/atlantis_fw/AsicFwS2/include/matrix.h **** 
 918:/home/tienluong/workspace/atlantis_fw/AsicFwS2/include/matrix.h **** template<typename T, typename U, int R, int C, bool D>
 919:/home/tienluong/workspace/atlantis_fw/AsicFwS2/include/matrix.h **** typename std::enable_if<std::is_arithmetic<T>::value, Matrix<U, R, C, D> >::type
 920:/home/tienluong/workspace/atlantis_fw/AsicFwS2/include/matrix.h **** operator*( T a, const Matrix<U, R, C, D> & b ) { return b * a; }
 921:/home/tienluong/workspace/atlantis_fw/AsicFwS2/include/matrix.h **** 
 922:/home/tienluong/workspace/atlantis_fw/AsicFwS2/include/matrix.h **** using Matrix2x2f = Matrix<float, 2, 2>;
 923:/home/tienluong/workspace/atlantis_fw/AsicFwS2/include/matrix.h **** using Matrix3x3f = Matrix<float, 3, 3>;
 924:/home/tienluong/workspace/atlantis_fw/AsicFwS2/include/matrix.h **** using Matrix4x4f = Matrix<float, 4, 4>;
 925:/home/tienluong/workspace/atlantis_fw/AsicFwS2/include/matrix.h **** using Matrix2x2d = Matrix<double, 2, 2>;
 926:/home/tienluong/workspace/atlantis_fw/AsicFwS2/include/matrix.h **** using Matrix3x3d = Matrix<double, 3, 3>;
 927:/home/tienluong/workspace/atlantis_fw/AsicFwS2/include/matrix.h **** using Matrix4x4d = Matrix<double, 4, 4>;
 928:/home/tienluong/workspace/atlantis_fw/AsicFwS2/include/matrix.h **** 
 929:/home/tienluong/workspace/atlantis_fw/AsicFwS2/include/matrix.h **** // optimized implementation of matrix-vector operations
 930:/home/tienluong/workspace/atlantis_fw/AsicFwS2/include/matrix.h **** // mind the order of color channels in memory is BGRA, i.e.,
 931:/home/tienluong/workspace/atlantis_fw/AsicFwS2/include/matrix.h **** // blue channel corresponds to the first matrix dimension!
 932:/home/tienluong/workspace/atlantis_fw/AsicFwS2/include/matrix.h **** 
 933:/home/tienluong/workspace/atlantis_fw/AsicFwS2/include/matrix.h **** template<bool D>
 934:/home/tienluong/workspace/atlantis_fw/AsicFwS2/include/matrix.h **** Vec4f operator*( const Matrix<float, 4, 4, D> & mat, const Vec4f & vec )
 935:/home/tienluong/workspace/atlantis_fw/AsicFwS2/include/matrix.h **** {
 936:/home/tienluong/workspace/atlantis_fw/AsicFwS2/include/matrix.h ****     return
 937:/home/tienluong/workspace/atlantis_fw/AsicFwS2/include/matrix.h ****     {
 938:/home/tienluong/workspace/atlantis_fw/AsicFwS2/include/matrix.h ****         mat( 0, 0 ) * vec.x() + mat( 0, 1 ) * vec.y() + mat( 0, 2 ) * vec.z() + mat( 0, 3 ) * vec.a
 939:/home/tienluong/workspace/atlantis_fw/AsicFwS2/include/matrix.h ****         mat( 1, 0 ) * vec.x() + mat( 1, 1 ) * vec.y() + mat( 1, 2 ) * vec.z() + mat( 1, 3 ) * vec.a
 940:/home/tienluong/workspace/atlantis_fw/AsicFwS2/include/matrix.h ****         mat( 2, 0 ) * vec.x() + mat( 2, 1 ) * vec.y() + mat( 2, 2 ) * vec.z() + mat( 2, 3 ) * vec.a
 941:/home/tienluong/workspace/atlantis_fw/AsicFwS2/include/matrix.h ****         mat( 3, 0 ) * vec.x() + mat( 3, 1 ) * vec.y() + mat( 3, 2 ) * vec.z() + mat( 3, 3 ) * vec.a
 942:/home/tienluong/workspace/atlantis_fw/AsicFwS2/include/matrix.h ****     };
 943:/home/tienluong/workspace/atlantis_fw/AsicFwS2/include/matrix.h **** }
 944:/home/tienluong/workspace/atlantis_fw/AsicFwS2/include/matrix.h **** 
 945:/home/tienluong/workspace/atlantis_fw/AsicFwS2/include/matrix.h **** template<bool D>
 946:/home/tienluong/workspace/atlantis_fw/AsicFwS2/include/matrix.h **** Vec4f operator*( const Vec4f & vec, const Matrix<float, 4, 4, D> & mat )
 947:/home/tienluong/workspace/atlantis_fw/AsicFwS2/include/matrix.h **** {
 948:/home/tienluong/workspace/atlantis_fw/AsicFwS2/include/matrix.h ****     return
 949:/home/tienluong/workspace/atlantis_fw/AsicFwS2/include/matrix.h ****     {
 950:/home/tienluong/workspace/atlantis_fw/AsicFwS2/include/matrix.h ****         mat( 0, 0 ) * vec.x() + mat( 1, 0 ) * vec.y() + mat( 2, 0 ) * vec.z() + mat( 3, 0 ) * vec.a
 951:/home/tienluong/workspace/atlantis_fw/AsicFwS2/include/matrix.h ****         mat( 0, 1 ) * vec.x() + mat( 1, 1 ) * vec.y() + mat( 2, 1 ) * vec.z() + mat( 3, 1 ) * vec.a
 952:/home/tienluong/workspace/atlantis_fw/AsicFwS2/include/matrix.h ****         mat( 0, 2 ) * vec.x() + mat( 1, 2 ) * vec.y() + mat( 2, 2 ) * vec.z() + mat( 3, 2 ) * vec.a
 953:/home/tienluong/workspace/atlantis_fw/AsicFwS2/include/matrix.h ****         mat( 0, 3 ) * vec.x() + mat( 1, 3 ) * vec.y() + mat( 2, 3 ) * vec.z() + mat( 3, 3 ) * vec.a
 954:/home/tienluong/workspace/atlantis_fw/AsicFwS2/include/matrix.h ****     };
 955:/home/tienluong/workspace/atlantis_fw/AsicFwS2/include/matrix.h **** }
 956:/home/tienluong/workspace/atlantis_fw/AsicFwS2/include/matrix.h **** 
 957:/home/tienluong/workspace/atlantis_fw/AsicFwS2/include/matrix.h **** // Vec3 left- and right-hand side multiplication operator
 958:/home/tienluong/workspace/atlantis_fw/AsicFwS2/include/matrix.h **** template<typename T, typename U, bool D>
 959:/home/tienluong/workspace/atlantis_fw/AsicFwS2/include/matrix.h **** Vec3<typename std::common_type<T, U>::type> operator*( const Matrix<T, 3, 3, D> & mat, const Vec3<U
 960:/home/tienluong/workspace/atlantis_fw/AsicFwS2/include/matrix.h **** {
 961:/home/tienluong/workspace/atlantis_fw/AsicFwS2/include/matrix.h ****     return
 962:/home/tienluong/workspace/atlantis_fw/AsicFwS2/include/matrix.h ****     {
 963:/home/tienluong/workspace/atlantis_fw/AsicFwS2/include/matrix.h ****         mat( 0, 0 ) * vec.x() + mat( 0, 1 ) * vec.y() + mat( 0, 2 ) * vec.z(),
 964:/home/tienluong/workspace/atlantis_fw/AsicFwS2/include/matrix.h ****         mat( 1, 0 ) * vec.x() + mat( 1, 1 ) * vec.y() + mat( 1, 2 ) * vec.z(),
 965:/home/tienluong/workspace/atlantis_fw/AsicFwS2/include/matrix.h ****         mat( 2, 0 ) * vec.x() + mat( 2, 1 ) * vec.y() + mat( 2, 2 ) * vec.z()
 966:/home/tienluong/workspace/atlantis_fw/AsicFwS2/include/matrix.h ****     };
 967:/home/tienluong/workspace/atlantis_fw/AsicFwS2/include/matrix.h **** }
 968:/home/tienluong/workspace/atlantis_fw/AsicFwS2/include/matrix.h **** 
 969:/home/tienluong/workspace/atlantis_fw/AsicFwS2/include/matrix.h **** template<typename T, typename U, bool D>
 970:/home/tienluong/workspace/atlantis_fw/AsicFwS2/include/matrix.h **** Vec3<typename std::common_type<T, U>::type> operator*( const Vec3<T> & vec, const Matrix<U, 3, 3, D
 971:/home/tienluong/workspace/atlantis_fw/AsicFwS2/include/matrix.h **** {
 972:/home/tienluong/workspace/atlantis_fw/AsicFwS2/include/matrix.h ****     return
 973:/home/tienluong/workspace/atlantis_fw/AsicFwS2/include/matrix.h ****     {
 974:/home/tienluong/workspace/atlantis_fw/AsicFwS2/include/matrix.h ****         mat( 0, 0 ) * vec.x() + mat( 1, 0 ) * vec.y() + mat( 2, 0 ) * vec.z(),
 975:/home/tienluong/workspace/atlantis_fw/AsicFwS2/include/matrix.h ****         mat( 0, 1 ) * vec.x() + mat( 1, 1 ) * vec.y() + mat( 2, 1 ) * vec.z(),
 976:/home/tienluong/workspace/atlantis_fw/AsicFwS2/include/matrix.h ****         mat( 0, 2 ) * vec.x() + mat( 1, 2 ) * vec.y() + mat( 2, 2 ) * vec.z()
 977:/home/tienluong/workspace/atlantis_fw/AsicFwS2/include/matrix.h ****     };
 978:/home/tienluong/workspace/atlantis_fw/AsicFwS2/include/matrix.h **** }
 979:/home/tienluong/workspace/atlantis_fw/AsicFwS2/include/matrix.h **** 
 980:/home/tienluong/workspace/atlantis_fw/AsicFwS2/include/matrix.h **** 
 981:/home/tienluong/workspace/atlantis_fw/AsicFwS2/include/matrix.h **** // mat3x3 and vec2 special multiplication operation used in roitransfer
 982:/home/tienluong/workspace/atlantis_fw/AsicFwS2/include/matrix.h **** /// Return H * p for 2D p, p is made homogeneous, division in the end.
 983:/home/tienluong/workspace/atlantis_fw/AsicFwS2/include/matrix.h **** template<typename T, typename U, bool D>
 984:/home/tienluong/workspace/atlantis_fw/AsicFwS2/include/matrix.h **** Vec2<typename std::common_type<T, U>::type> operator*( const Matrix<T, 3, 3, D> & h, const Vec2<U> 
 985:/home/tienluong/workspace/atlantis_fw/AsicFwS2/include/matrix.h **** {
 986:/home/tienluong/workspace/atlantis_fw/AsicFwS2/include/matrix.h ****     T w_inv = T{1} / ( h(2, 0) * p.x() + h(2, 1) * p.y() + h(2, 2) );
 987:/home/tienluong/workspace/atlantis_fw/AsicFwS2/include/matrix.h ****     return  { 
 988:/home/tienluong/workspace/atlantis_fw/AsicFwS2/include/matrix.h ****                 ( h(0, 0) * p.x() + h(0, 1) * p.y() + h(0, 2) ) * w_inv,
 989:/home/tienluong/workspace/atlantis_fw/AsicFwS2/include/matrix.h ****                 ( h(1, 0) * p.x() + h(1, 1) * p.y() + h(1, 2) ) * w_inv
 990:/home/tienluong/workspace/atlantis_fw/AsicFwS2/include/matrix.h ****             };
 991:/home/tienluong/workspace/atlantis_fw/AsicFwS2/include/matrix.h **** }
 992:/home/tienluong/workspace/atlantis_fw/AsicFwS2/include/matrix.h **** 
 993:/home/tienluong/workspace/atlantis_fw/AsicFwS2/include/matrix.h **** 
 994:/home/tienluong/workspace/atlantis_fw/AsicFwS2/include/matrix.h **** 
 995:/home/tienluong/workspace/atlantis_fw/AsicFwS2/include/matrix.h **** // Vec2 multiplication operator
 996:/home/tienluong/workspace/atlantis_fw/AsicFwS2/include/matrix.h **** //right hand
 997:/home/tienluong/workspace/atlantis_fw/AsicFwS2/include/matrix.h **** template<typename T, typename U, bool D>
 998:/home/tienluong/workspace/atlantis_fw/AsicFwS2/include/matrix.h **** Vec2<typename std::common_type<T, U>::type> operator*( const Matrix<T, 2, 2, D> & mat, const Vec2<U
 999:/home/tienluong/workspace/atlantis_fw/AsicFwS2/include/matrix.h **** {
1000:/home/tienluong/workspace/atlantis_fw/AsicFwS2/include/matrix.h ****     return
1001:/home/tienluong/workspace/atlantis_fw/AsicFwS2/include/matrix.h ****     {
1002:/home/tienluong/workspace/atlantis_fw/AsicFwS2/include/matrix.h ****         mat( 0, 0 ) * vec.x() + mat( 0, 1 ) * vec.y(),
1003:/home/tienluong/workspace/atlantis_fw/AsicFwS2/include/matrix.h ****         mat( 1, 0 ) * vec.x() + mat( 1, 1 ) * vec.y()
1004:/home/tienluong/workspace/atlantis_fw/AsicFwS2/include/matrix.h ****     };
1005:/home/tienluong/workspace/atlantis_fw/AsicFwS2/include/matrix.h **** }
1006:/home/tienluong/workspace/atlantis_fw/AsicFwS2/include/matrix.h **** //left hand
1007:/home/tienluong/workspace/atlantis_fw/AsicFwS2/include/matrix.h **** template<typename T, typename U, bool D>
1008:/home/tienluong/workspace/atlantis_fw/AsicFwS2/include/matrix.h **** Vec2<typename std::common_type<T, U>::type> operator*( const Vec2<U> & vec, const Matrix<T, 2, 2, D
1009:/home/tienluong/workspace/atlantis_fw/AsicFwS2/include/matrix.h **** {
1010:/home/tienluong/workspace/atlantis_fw/AsicFwS2/include/matrix.h ****     return
1011:/home/tienluong/workspace/atlantis_fw/AsicFwS2/include/matrix.h ****     {
1012:/home/tienluong/workspace/atlantis_fw/AsicFwS2/include/matrix.h ****         mat( 0, 0 ) * vec.x() + mat( 1, 0 ) * vec.y(),
1013:/home/tienluong/workspace/atlantis_fw/AsicFwS2/include/matrix.h ****         mat( 0, 1 ) * vec.x() + mat( 1, 1 ) * vec.y()
1014:/home/tienluong/workspace/atlantis_fw/AsicFwS2/include/matrix.h ****     };
1015:/home/tienluong/workspace/atlantis_fw/AsicFwS2/include/matrix.h **** }
1016:/home/tienluong/workspace/atlantis_fw/AsicFwS2/include/matrix.h **** 
1017:/home/tienluong/workspace/atlantis_fw/AsicFwS2/include/matrix.h **** // Create a diagonal matrix from a vector
1018:/home/tienluong/workspace/atlantis_fw/AsicFwS2/include/matrix.h **** inline Matrix4x4f diagonal( const Vec4f & vec )
1019:/home/tienluong/workspace/atlantis_fw/AsicFwS2/include/matrix.h **** {
1020:/home/tienluong/workspace/atlantis_fw/AsicFwS2/include/matrix.h ****     return
1021:/home/tienluong/workspace/atlantis_fw/AsicFwS2/include/matrix.h ****     {
1022:/home/tienluong/workspace/atlantis_fw/AsicFwS2/include/matrix.h ****         vec.x(), 0.0f, 0.0f, 0.0f,
1023:/home/tienluong/workspace/atlantis_fw/AsicFwS2/include/matrix.h ****         0.0f, vec.y(), 0.0f, 0.0f,
1024:/home/tienluong/workspace/atlantis_fw/AsicFwS2/include/matrix.h ****         0.0f, 0.0f, vec.z(), 0.0f,
1025:/home/tienluong/workspace/atlantis_fw/AsicFwS2/include/matrix.h ****         0.0f, 0.0f, 0.0f, vec.a()
1026:/home/tienluong/workspace/atlantis_fw/AsicFwS2/include/matrix.h ****     };
1027:/home/tienluong/workspace/atlantis_fw/AsicFwS2/include/matrix.h **** }
1028:/home/tienluong/workspace/atlantis_fw/AsicFwS2/include/matrix.h **** 
1029:/home/tienluong/workspace/atlantis_fw/AsicFwS2/include/matrix.h **** template<typename T>
1030:/home/tienluong/workspace/atlantis_fw/AsicFwS2/include/matrix.h **** Matrix<T, 3, 3> diagonal( const Vec3<T> & vec )
1031:/home/tienluong/workspace/atlantis_fw/AsicFwS2/include/matrix.h **** {
1032:/home/tienluong/workspace/atlantis_fw/AsicFwS2/include/matrix.h ****     return
1033:/home/tienluong/workspace/atlantis_fw/AsicFwS2/include/matrix.h ****     {
1034:/home/tienluong/workspace/atlantis_fw/AsicFwS2/include/matrix.h ****         vec.x(), T{0}, T{0},
1035:/home/tienluong/workspace/atlantis_fw/AsicFwS2/include/matrix.h ****         T{0}, vec.y(), T{0},
1036:/home/tienluong/workspace/atlantis_fw/AsicFwS2/include/matrix.h ****         T{0}, T{0}, vec.z()
1037:/home/tienluong/workspace/atlantis_fw/AsicFwS2/include/matrix.h ****     };
1038:/home/tienluong/workspace/atlantis_fw/AsicFwS2/include/matrix.h **** }
1039:/home/tienluong/workspace/atlantis_fw/AsicFwS2/include/matrix.h **** 
1040:/home/tienluong/workspace/atlantis_fw/AsicFwS2/include/matrix.h **** template<typename T>
1041:/home/tienluong/workspace/atlantis_fw/AsicFwS2/include/matrix.h **** Matrix<T, 2, 2> diagonal( const Vec2<T> & vec )
1042:/home/tienluong/workspace/atlantis_fw/AsicFwS2/include/matrix.h **** {
1043:/home/tienluong/workspace/atlantis_fw/AsicFwS2/include/matrix.h ****     return
1044:/home/tienluong/workspace/atlantis_fw/AsicFwS2/include/matrix.h ****     {
1045:/home/tienluong/workspace/atlantis_fw/AsicFwS2/include/matrix.h ****         vec.x(), T{0},
1046:/home/tienluong/workspace/atlantis_fw/AsicFwS2/include/matrix.h ****         T{0}, vec.y(),
1047:/home/tienluong/workspace/atlantis_fw/AsicFwS2/include/matrix.h ****     };
1048:/home/tienluong/workspace/atlantis_fw/AsicFwS2/include/matrix.h **** }
1049:/home/tienluong/workspace/atlantis_fw/AsicFwS2/include/matrix.h **** 
1050:/home/tienluong/workspace/atlantis_fw/AsicFwS2/include/matrix.h **** // ------------------------------------
1051:/home/tienluong/workspace/atlantis_fw/AsicFwS2/include/matrix.h **** // determinant, inverse, etc
1052:/home/tienluong/workspace/atlantis_fw/AsicFwS2/include/matrix.h **** // ------------------------------------
1053:/home/tienluong/workspace/atlantis_fw/AsicFwS2/include/matrix.h **** 
1054:/home/tienluong/workspace/atlantis_fw/AsicFwS2/include/matrix.h **** template<typename T, int N>
1055:/home/tienluong/workspace/atlantis_fw/AsicFwS2/include/matrix.h **** struct MatrixDeterminant { };
1056:/home/tienluong/workspace/atlantis_fw/AsicFwS2/include/matrix.h **** 
1057:/home/tienluong/workspace/atlantis_fw/AsicFwS2/include/matrix.h **** template<typename T>
1058:/home/tienluong/workspace/atlantis_fw/AsicFwS2/include/matrix.h **** struct MatrixDeterminant<T, 2>
1059:/home/tienluong/workspace/atlantis_fw/AsicFwS2/include/matrix.h **** {
1060:/home/tienluong/workspace/atlantis_fw/AsicFwS2/include/matrix.h ****     T operator()( const T * mat ) const
1061:/home/tienluong/workspace/atlantis_fw/AsicFwS2/include/matrix.h ****     {
1062:/home/tienluong/workspace/atlantis_fw/AsicFwS2/include/matrix.h ****         return mat[0] * mat[3] - mat[1] * mat[2];
1063:/home/tienluong/workspace/atlantis_fw/AsicFwS2/include/matrix.h ****     }
1064:/home/tienluong/workspace/atlantis_fw/AsicFwS2/include/matrix.h **** };
1065:/home/tienluong/workspace/atlantis_fw/AsicFwS2/include/matrix.h **** 
1066:/home/tienluong/workspace/atlantis_fw/AsicFwS2/include/matrix.h **** template<typename T>
1067:/home/tienluong/workspace/atlantis_fw/AsicFwS2/include/matrix.h **** struct MatrixDeterminant<T, 3>
1068:/home/tienluong/workspace/atlantis_fw/AsicFwS2/include/matrix.h **** {
1069:/home/tienluong/workspace/atlantis_fw/AsicFwS2/include/matrix.h ****     T operator()( const T * mat ) const
1070:/home/tienluong/workspace/atlantis_fw/AsicFwS2/include/matrix.h ****     {
1071:/home/tienluong/workspace/atlantis_fw/AsicFwS2/include/matrix.h ****         return + mat[0] * ( mat[4] * mat[8] - mat[7] * mat[5] )
1072:/home/tienluong/workspace/atlantis_fw/AsicFwS2/include/matrix.h ****                - mat[1] * ( mat[3] * mat[8] - mat[5] * mat[6] )
1073:/home/tienluong/workspace/atlantis_fw/AsicFwS2/include/matrix.h ****                + mat[2] * ( mat[3] * mat[7] - mat[4] * mat[6] );
1074:/home/tienluong/workspace/atlantis_fw/AsicFwS2/include/matrix.h ****     }
1075:/home/tienluong/workspace/atlantis_fw/AsicFwS2/include/matrix.h **** };
1076:/home/tienluong/workspace/atlantis_fw/AsicFwS2/include/matrix.h **** 
1077:/home/tienluong/workspace/atlantis_fw/AsicFwS2/include/matrix.h **** template<typename T>
1078:/home/tienluong/workspace/atlantis_fw/AsicFwS2/include/matrix.h **** struct MatrixDeterminant<T, 4>
1079:/home/tienluong/workspace/atlantis_fw/AsicFwS2/include/matrix.h **** {
1080:/home/tienluong/workspace/atlantis_fw/AsicFwS2/include/matrix.h ****     T operator()( const T * mat ) const
1081:/home/tienluong/workspace/atlantis_fw/AsicFwS2/include/matrix.h ****     {
1082:/home/tienluong/workspace/atlantis_fw/AsicFwS2/include/matrix.h ****         T dst[4];
1083:/home/tienluong/workspace/atlantis_fw/AsicFwS2/include/matrix.h ****         T tmp[12];
1084:/home/tienluong/workspace/atlantis_fw/AsicFwS2/include/matrix.h **** 
1085:/home/tienluong/workspace/atlantis_fw/AsicFwS2/include/matrix.h ****         // calculate pairs for first 8 elements (cofactors)
1086:/home/tienluong/workspace/atlantis_fw/AsicFwS2/include/matrix.h ****         tmp[0] = mat[10] * mat[15];
1087:/home/tienluong/workspace/atlantis_fw/AsicFwS2/include/matrix.h ****         tmp[1] = mat[11] * mat[14];
1088:/home/tienluong/workspace/atlantis_fw/AsicFwS2/include/matrix.h ****         tmp[2] = mat[9] * mat[15];
1089:/home/tienluong/workspace/atlantis_fw/AsicFwS2/include/matrix.h ****         tmp[3] = mat[11] * mat[13];
1090:/home/tienluong/workspace/atlantis_fw/AsicFwS2/include/matrix.h ****         tmp[4] = mat[9] * mat[14];
1091:/home/tienluong/workspace/atlantis_fw/AsicFwS2/include/matrix.h ****         tmp[5] = mat[10] * mat[13];
1092:/home/tienluong/workspace/atlantis_fw/AsicFwS2/include/matrix.h ****         tmp[6] = mat[8] * mat[15];
1093:/home/tienluong/workspace/atlantis_fw/AsicFwS2/include/matrix.h ****         tmp[7] = mat[11] * mat[12];
1094:/home/tienluong/workspace/atlantis_fw/AsicFwS2/include/matrix.h ****         tmp[8] = mat[8] * mat[14];
1095:/home/tienluong/workspace/atlantis_fw/AsicFwS2/include/matrix.h ****         tmp[9] = mat[10] * mat[12];
1096:/home/tienluong/workspace/atlantis_fw/AsicFwS2/include/matrix.h ****         tmp[10] = mat[8] * mat[13];
1097:/home/tienluong/workspace/atlantis_fw/AsicFwS2/include/matrix.h ****         tmp[11] = mat[9] * mat[12];
1098:/home/tienluong/workspace/atlantis_fw/AsicFwS2/include/matrix.h **** 
1099:/home/tienluong/workspace/atlantis_fw/AsicFwS2/include/matrix.h ****         // calculate first 8 elements (cofactors)
1100:/home/tienluong/workspace/atlantis_fw/AsicFwS2/include/matrix.h ****         dst[0]  = tmp[0] * mat[5] + tmp[3] * mat[6] + tmp[4]  * mat[7];
1101:/home/tienluong/workspace/atlantis_fw/AsicFwS2/include/matrix.h ****         dst[0] -= tmp[1] * mat[5] + tmp[2] * mat[6] + tmp[5]  * mat[7];
1102:/home/tienluong/workspace/atlantis_fw/AsicFwS2/include/matrix.h ****         dst[1]  = tmp[1] * mat[4] + tmp[6] * mat[6] + tmp[9]  * mat[7];
1103:/home/tienluong/workspace/atlantis_fw/AsicFwS2/include/matrix.h ****         dst[1] -= tmp[0] * mat[4] + tmp[7] * mat[6] + tmp[8]  * mat[7];
1104:/home/tienluong/workspace/atlantis_fw/AsicFwS2/include/matrix.h ****         dst[2]  = tmp[2] * mat[4] + tmp[7] * mat[5] + tmp[10] * mat[7];
1105:/home/tienluong/workspace/atlantis_fw/AsicFwS2/include/matrix.h ****         dst[2] -= tmp[3] * mat[4] + tmp[6] * mat[5] + tmp[11] * mat[7];
1106:/home/tienluong/workspace/atlantis_fw/AsicFwS2/include/matrix.h ****         dst[3]  = tmp[5] * mat[4] + tmp[8] * mat[5] + tmp[11] * mat[6];
1107:/home/tienluong/workspace/atlantis_fw/AsicFwS2/include/matrix.h ****         dst[3] -= tmp[4] * mat[4] + tmp[9] * mat[5] + tmp[10] * mat[6];
1108:/home/tienluong/workspace/atlantis_fw/AsicFwS2/include/matrix.h **** 
1109:/home/tienluong/workspace/atlantis_fw/AsicFwS2/include/matrix.h ****         // calculate determinant
1110:/home/tienluong/workspace/atlantis_fw/AsicFwS2/include/matrix.h ****         return mat[0] * dst[0] + mat[1] * dst[1] + mat[2] * dst[2] + mat[3] * dst[3];
1111:/home/tienluong/workspace/atlantis_fw/AsicFwS2/include/matrix.h ****     }
1112:/home/tienluong/workspace/atlantis_fw/AsicFwS2/include/matrix.h **** };
1113:/home/tienluong/workspace/atlantis_fw/AsicFwS2/include/matrix.h **** 
1114:/home/tienluong/workspace/atlantis_fw/AsicFwS2/include/matrix.h **** 
1115:/home/tienluong/workspace/atlantis_fw/AsicFwS2/include/matrix.h **** template<typename T, int N>
1116:/home/tienluong/workspace/atlantis_fw/AsicFwS2/include/matrix.h **** struct SquareMatrixInverter { };
1117:/home/tienluong/workspace/atlantis_fw/AsicFwS2/include/matrix.h **** 
1118:/home/tienluong/workspace/atlantis_fw/AsicFwS2/include/matrix.h **** template<typename T>
1119:/home/tienluong/workspace/atlantis_fw/AsicFwS2/include/matrix.h **** struct SquareMatrixInverter<T, 2>
1120:/home/tienluong/workspace/atlantis_fw/AsicFwS2/include/matrix.h **** {
1121:/home/tienluong/workspace/atlantis_fw/AsicFwS2/include/matrix.h ****     void run( T * mat ) const
  99              		.loc 2 1121 0
 100              		.cfi_startproc
 101              		@ args = 0, pretend = 0, frame = 16
 102              		@ frame_needed = 0, uses_anonymous_args = 0
 103              	.LVL4:
 104 0000 2DE9FF47 		push	{r0, r1, r2, r3, r4, r5, r6, r7, r8, r9, r10, lr}
 105              	.LCFI2:
 106              		.cfi_def_cfa_offset 48
 107              		.cfi_offset 4, -32
 108              		.cfi_offset 5, -28
 109              		.cfi_offset 6, -24
 110              		.cfi_offset 7, -20
 111              		.cfi_offset 8, -16
 112              		.cfi_offset 9, -12
 113              		.cfi_offset 10, -8
 114              		.cfi_offset 14, -4
 115              	.LBB511:
1122:/home/tienluong/workspace/atlantis_fw/AsicFwS2/include/matrix.h ****     {
1123:/home/tienluong/workspace/atlantis_fw/AsicFwS2/include/matrix.h ****         const T det = mat[0] * mat[3] - mat[1] * mat[2];
 116              		.loc 2 1123 0
 117 0004 D0F80C90 		ldr	r9, [r0, #12]	@ float
 118              	.LBE511:
1121:/home/tienluong/workspace/atlantis_fw/AsicFwS2/include/matrix.h ****     {
 119              		.loc 2 1121 0
 120 0008 0546     		mov	r5, r0
 121              	.LBB514:
 122              		.loc 2 1123 0
 123 000a D0F80080 		ldr	r8, [r0]	@ float
 124 000e 4946     		mov	r1, r9
 125 0010 4768     		ldr	r7, [r0, #4]	@ float
 126 0012 8468     		ldr	r4, [r0, #8]	@ float
 127              	.LVL5:
 128 0014 4046     		mov	r0, r8
 129              	.LVL6:
 130 0016 134E     		ldr	r6, .L11
 131 0018 B047     		blx	r6
 132              	.LVL7:
 133 001a 2146     		mov	r1, r4
1124:/home/tienluong/workspace/atlantis_fw/AsicFwS2/include/matrix.h **** 
1125:/home/tienluong/workspace/atlantis_fw/AsicFwS2/include/matrix.h ****         const T invdet = T{1} / det;
1126:/home/tienluong/workspace/atlantis_fw/AsicFwS2/include/matrix.h **** 
1127:/home/tienluong/workspace/atlantis_fw/AsicFwS2/include/matrix.h ****         T tmp[4];
1128:/home/tienluong/workspace/atlantis_fw/AsicFwS2/include/matrix.h ****         tmp[0] = mat[3];
1129:/home/tienluong/workspace/atlantis_fw/AsicFwS2/include/matrix.h ****         tmp[1] = -mat[1];
1130:/home/tienluong/workspace/atlantis_fw/AsicFwS2/include/matrix.h ****         tmp[2] = -mat[2];
 134              		.loc 2 1130 0
 135 001c 04F10044 		add	r4, r4, #-2147483648
 136              	.LVL8:
1123:/home/tienluong/workspace/atlantis_fw/AsicFwS2/include/matrix.h **** 
 137              		.loc 2 1123 0
 138 0020 8246     		mov	r10, r0
 139 0022 3846     		mov	r0, r7
 140 0024 B047     		blx	r6
 141              	.LVL9:
 142 0026 104B     		ldr	r3, .L11+4
1129:/home/tienluong/workspace/atlantis_fw/AsicFwS2/include/matrix.h ****         tmp[2] = -mat[2];
 143              		.loc 2 1129 0
 144 0028 07F10047 		add	r7, r7, #-2147483648
1123:/home/tienluong/workspace/atlantis_fw/AsicFwS2/include/matrix.h **** 
 145              		.loc 2 1123 0
 146 002c 0146     		mov	r1, r0
 147 002e 5046     		mov	r0, r10
 148 0030 9847     		blx	r3
 149              	.LVL10:
1125:/home/tienluong/workspace/atlantis_fw/AsicFwS2/include/matrix.h **** 
 150              		.loc 2 1125 0
 151 0032 0E4B     		ldr	r3, .L11+8
1123:/home/tienluong/workspace/atlantis_fw/AsicFwS2/include/matrix.h **** 
 152              		.loc 2 1123 0
 153 0034 0146     		mov	r1, r0
1125:/home/tienluong/workspace/atlantis_fw/AsicFwS2/include/matrix.h **** 
 154              		.loc 2 1125 0
 155 0036 4FF07E50 		mov	r0, #1065353216
 156 003a 9847     		blx	r3
 157              	.LVL11:
 158              		.loc 2 1130 0
 159 003c 0294     		str	r4, [sp, #8]	@ float
 160              	.LBB512:
1131:/home/tienluong/workspace/atlantis_fw/AsicFwS2/include/matrix.h ****         tmp[3] = mat[0];
1132:/home/tienluong/workspace/atlantis_fw/AsicFwS2/include/matrix.h **** 
1133:/home/tienluong/workspace/atlantis_fw/AsicFwS2/include/matrix.h ****         for( int i = 0; i < 4; ++i ) { mat[i] = tmp[i] * invdet; }
 161              		.loc 2 1133 0
 162 003e 0024     		movs	r4, #0
 163              	.LBE512:
1128:/home/tienluong/workspace/atlantis_fw/AsicFwS2/include/matrix.h ****         tmp[1] = -mat[1];
 164              		.loc 2 1128 0
 165 0040 CDF80090 		str	r9, [sp]	@ float
1129:/home/tienluong/workspace/atlantis_fw/AsicFwS2/include/matrix.h ****         tmp[2] = -mat[2];
 166              		.loc 2 1129 0
 167 0044 0197     		str	r7, [sp, #4]	@ float
1131:/home/tienluong/workspace/atlantis_fw/AsicFwS2/include/matrix.h ****         tmp[3] = mat[0];
 168              		.loc 2 1131 0
 169 0046 CDF80C80 		str	r8, [sp, #12]	@ float
1125:/home/tienluong/workspace/atlantis_fw/AsicFwS2/include/matrix.h **** 
 170              		.loc 2 1125 0
 171 004a 8246     		mov	r10, r0
 172              	.LVL12:
 173              	.L8:
 174              	.LBB513:
 175              		.loc 2 1133 0
 176 004c 5DF82400 		ldr	r0, [sp, r4, lsl #2]	@ float
 177 0050 5146     		mov	r1, r10
 178 0052 B047     		blx	r6
 179              	.LVL13:
 180 0054 45F82400 		str	r0, [r5, r4, lsl #2]	@ float
 181 0058 0134     		adds	r4, r4, #1
 182              	.LVL14:
 183 005a 042C     		cmp	r4, #4
 184 005c F6D1     		bne	.L8
 185              	.LBE513:
 186              	.LBE514:
1134:/home/tienluong/workspace/atlantis_fw/AsicFwS2/include/matrix.h ****     }
 187              		.loc 2 1134 0
 188 005e 04B0     		add	sp, sp, #16
 189              	.LCFI3:
 190              		.cfi_def_cfa_offset 32
 191              		@ sp needed
 192 0060 BDE8F087 		pop	{r4, r5, r6, r7, r8, r9, r10, pc}
 193              	.LVL15:
 194              	.L12:
 195              		.align	2
 196              	.L11:
 197 0064 00000000 		.word	__aeabi_fmul
 198 0068 00000000 		.word	__aeabi_fsub
 199 006c 00000000 		.word	__aeabi_fdiv
 200              		.cfi_endproc
 201              	.LFE3883:
 203              		.section	.text._ZNKSt14default_deleteIN4ltaf13CalibDataBaseEEclEPS1_.isra.3,"ax",%progbits
 204              		.align	1
 205              		.thumb
 206              		.thumb_func
 208              	_ZNKSt14default_deleteIN4ltaf13CalibDataBaseEEclEPS1_.isra.3:
 209              	.LFB3886:
 210              		.file 3 "/opt/toolchains/gcc-arm-none-eabi-4_9-2015q1/arm-none-eabi/include/c++/4.9.3/bits/unique_
   1:/opt/toolchains/gcc-arm-none-eabi-4_9-2015q1/arm-none-eabi/include/c++/4.9.3/bits/unique_ptr.h **** // unique_ptr implementation -*- C++ -*-
   2:/opt/toolchains/gcc-arm-none-eabi-4_9-2015q1/arm-none-eabi/include/c++/4.9.3/bits/unique_ptr.h **** 
   3:/opt/toolchains/gcc-arm-none-eabi-4_9-2015q1/arm-none-eabi/include/c++/4.9.3/bits/unique_ptr.h **** // Copyright (C) 2008-2014 Free Software Foundation, Inc.
   4:/opt/toolchains/gcc-arm-none-eabi-4_9-2015q1/arm-none-eabi/include/c++/4.9.3/bits/unique_ptr.h **** //
   5:/opt/toolchains/gcc-arm-none-eabi-4_9-2015q1/arm-none-eabi/include/c++/4.9.3/bits/unique_ptr.h **** // This file is part of the GNU ISO C++ Library.  This library is free
   6:/opt/toolchains/gcc-arm-none-eabi-4_9-2015q1/arm-none-eabi/include/c++/4.9.3/bits/unique_ptr.h **** // software; you can redistribute it and/or modify it under the
   7:/opt/toolchains/gcc-arm-none-eabi-4_9-2015q1/arm-none-eabi/include/c++/4.9.3/bits/unique_ptr.h **** // terms of the GNU General Public License as published by the
   8:/opt/toolchains/gcc-arm-none-eabi-4_9-2015q1/arm-none-eabi/include/c++/4.9.3/bits/unique_ptr.h **** // Free Software Foundation; either version 3, or (at your option)
   9:/opt/toolchains/gcc-arm-none-eabi-4_9-2015q1/arm-none-eabi/include/c++/4.9.3/bits/unique_ptr.h **** // any later version.
  10:/opt/toolchains/gcc-arm-none-eabi-4_9-2015q1/arm-none-eabi/include/c++/4.9.3/bits/unique_ptr.h **** 
  11:/opt/toolchains/gcc-arm-none-eabi-4_9-2015q1/arm-none-eabi/include/c++/4.9.3/bits/unique_ptr.h **** // This library is distributed in the hope that it will be useful,
  12:/opt/toolchains/gcc-arm-none-eabi-4_9-2015q1/arm-none-eabi/include/c++/4.9.3/bits/unique_ptr.h **** // but WITHOUT ANY WARRANTY; without even the implied warranty of
  13:/opt/toolchains/gcc-arm-none-eabi-4_9-2015q1/arm-none-eabi/include/c++/4.9.3/bits/unique_ptr.h **** // MERCHANTABILITY or FITNESS FOR A PARTICULAR PURPOSE.  See the
  14:/opt/toolchains/gcc-arm-none-eabi-4_9-2015q1/arm-none-eabi/include/c++/4.9.3/bits/unique_ptr.h **** // GNU General Public License for more details.
  15:/opt/toolchains/gcc-arm-none-eabi-4_9-2015q1/arm-none-eabi/include/c++/4.9.3/bits/unique_ptr.h **** 
  16:/opt/toolchains/gcc-arm-none-eabi-4_9-2015q1/arm-none-eabi/include/c++/4.9.3/bits/unique_ptr.h **** // Under Section 7 of GPL version 3, you are granted additional
  17:/opt/toolchains/gcc-arm-none-eabi-4_9-2015q1/arm-none-eabi/include/c++/4.9.3/bits/unique_ptr.h **** // permissions described in the GCC Runtime Library Exception, version
  18:/opt/toolchains/gcc-arm-none-eabi-4_9-2015q1/arm-none-eabi/include/c++/4.9.3/bits/unique_ptr.h **** // 3.1, as published by the Free Software Foundation.
  19:/opt/toolchains/gcc-arm-none-eabi-4_9-2015q1/arm-none-eabi/include/c++/4.9.3/bits/unique_ptr.h **** 
  20:/opt/toolchains/gcc-arm-none-eabi-4_9-2015q1/arm-none-eabi/include/c++/4.9.3/bits/unique_ptr.h **** // You should have received a copy of the GNU General Public License and
  21:/opt/toolchains/gcc-arm-none-eabi-4_9-2015q1/arm-none-eabi/include/c++/4.9.3/bits/unique_ptr.h **** // a copy of the GCC Runtime Library Exception along with this program;
  22:/opt/toolchains/gcc-arm-none-eabi-4_9-2015q1/arm-none-eabi/include/c++/4.9.3/bits/unique_ptr.h **** // see the files COPYING3 and COPYING.RUNTIME respectively.  If not, see
  23:/opt/toolchains/gcc-arm-none-eabi-4_9-2015q1/arm-none-eabi/include/c++/4.9.3/bits/unique_ptr.h **** // <http://www.gnu.org/licenses/>.
  24:/opt/toolchains/gcc-arm-none-eabi-4_9-2015q1/arm-none-eabi/include/c++/4.9.3/bits/unique_ptr.h **** 
  25:/opt/toolchains/gcc-arm-none-eabi-4_9-2015q1/arm-none-eabi/include/c++/4.9.3/bits/unique_ptr.h **** /** @file bits/unique_ptr.h
  26:/opt/toolchains/gcc-arm-none-eabi-4_9-2015q1/arm-none-eabi/include/c++/4.9.3/bits/unique_ptr.h ****  *  This is an internal header file, included by other library headers.
  27:/opt/toolchains/gcc-arm-none-eabi-4_9-2015q1/arm-none-eabi/include/c++/4.9.3/bits/unique_ptr.h ****  *  Do not attempt to use it directly. @headername{memory}
  28:/opt/toolchains/gcc-arm-none-eabi-4_9-2015q1/arm-none-eabi/include/c++/4.9.3/bits/unique_ptr.h ****  */
  29:/opt/toolchains/gcc-arm-none-eabi-4_9-2015q1/arm-none-eabi/include/c++/4.9.3/bits/unique_ptr.h **** 
  30:/opt/toolchains/gcc-arm-none-eabi-4_9-2015q1/arm-none-eabi/include/c++/4.9.3/bits/unique_ptr.h **** #ifndef _UNIQUE_PTR_H
  31:/opt/toolchains/gcc-arm-none-eabi-4_9-2015q1/arm-none-eabi/include/c++/4.9.3/bits/unique_ptr.h **** #define _UNIQUE_PTR_H 1
  32:/opt/toolchains/gcc-arm-none-eabi-4_9-2015q1/arm-none-eabi/include/c++/4.9.3/bits/unique_ptr.h **** 
  33:/opt/toolchains/gcc-arm-none-eabi-4_9-2015q1/arm-none-eabi/include/c++/4.9.3/bits/unique_ptr.h **** #include <bits/c++config.h>
  34:/opt/toolchains/gcc-arm-none-eabi-4_9-2015q1/arm-none-eabi/include/c++/4.9.3/bits/unique_ptr.h **** #include <debug/debug.h>
  35:/opt/toolchains/gcc-arm-none-eabi-4_9-2015q1/arm-none-eabi/include/c++/4.9.3/bits/unique_ptr.h **** #include <type_traits>
  36:/opt/toolchains/gcc-arm-none-eabi-4_9-2015q1/arm-none-eabi/include/c++/4.9.3/bits/unique_ptr.h **** #include <utility>
  37:/opt/toolchains/gcc-arm-none-eabi-4_9-2015q1/arm-none-eabi/include/c++/4.9.3/bits/unique_ptr.h **** #include <tuple>
  38:/opt/toolchains/gcc-arm-none-eabi-4_9-2015q1/arm-none-eabi/include/c++/4.9.3/bits/unique_ptr.h **** 
  39:/opt/toolchains/gcc-arm-none-eabi-4_9-2015q1/arm-none-eabi/include/c++/4.9.3/bits/unique_ptr.h **** namespace std _GLIBCXX_VISIBILITY(default)
  40:/opt/toolchains/gcc-arm-none-eabi-4_9-2015q1/arm-none-eabi/include/c++/4.9.3/bits/unique_ptr.h **** {
  41:/opt/toolchains/gcc-arm-none-eabi-4_9-2015q1/arm-none-eabi/include/c++/4.9.3/bits/unique_ptr.h **** _GLIBCXX_BEGIN_NAMESPACE_VERSION
  42:/opt/toolchains/gcc-arm-none-eabi-4_9-2015q1/arm-none-eabi/include/c++/4.9.3/bits/unique_ptr.h **** 
  43:/opt/toolchains/gcc-arm-none-eabi-4_9-2015q1/arm-none-eabi/include/c++/4.9.3/bits/unique_ptr.h ****   /**
  44:/opt/toolchains/gcc-arm-none-eabi-4_9-2015q1/arm-none-eabi/include/c++/4.9.3/bits/unique_ptr.h ****    * @addtogroup pointer_abstractions
  45:/opt/toolchains/gcc-arm-none-eabi-4_9-2015q1/arm-none-eabi/include/c++/4.9.3/bits/unique_ptr.h ****    * @{
  46:/opt/toolchains/gcc-arm-none-eabi-4_9-2015q1/arm-none-eabi/include/c++/4.9.3/bits/unique_ptr.h ****    */
  47:/opt/toolchains/gcc-arm-none-eabi-4_9-2015q1/arm-none-eabi/include/c++/4.9.3/bits/unique_ptr.h **** 
  48:/opt/toolchains/gcc-arm-none-eabi-4_9-2015q1/arm-none-eabi/include/c++/4.9.3/bits/unique_ptr.h **** #if _GLIBCXX_USE_DEPRECATED
  49:/opt/toolchains/gcc-arm-none-eabi-4_9-2015q1/arm-none-eabi/include/c++/4.9.3/bits/unique_ptr.h ****   template<typename> class auto_ptr;
  50:/opt/toolchains/gcc-arm-none-eabi-4_9-2015q1/arm-none-eabi/include/c++/4.9.3/bits/unique_ptr.h **** #endif
  51:/opt/toolchains/gcc-arm-none-eabi-4_9-2015q1/arm-none-eabi/include/c++/4.9.3/bits/unique_ptr.h **** 
  52:/opt/toolchains/gcc-arm-none-eabi-4_9-2015q1/arm-none-eabi/include/c++/4.9.3/bits/unique_ptr.h ****   /// Primary template of default_delete, used by unique_ptr
  53:/opt/toolchains/gcc-arm-none-eabi-4_9-2015q1/arm-none-eabi/include/c++/4.9.3/bits/unique_ptr.h ****   template<typename _Tp>
  54:/opt/toolchains/gcc-arm-none-eabi-4_9-2015q1/arm-none-eabi/include/c++/4.9.3/bits/unique_ptr.h ****     struct default_delete
  55:/opt/toolchains/gcc-arm-none-eabi-4_9-2015q1/arm-none-eabi/include/c++/4.9.3/bits/unique_ptr.h ****     {
  56:/opt/toolchains/gcc-arm-none-eabi-4_9-2015q1/arm-none-eabi/include/c++/4.9.3/bits/unique_ptr.h ****       /// Default constructor
  57:/opt/toolchains/gcc-arm-none-eabi-4_9-2015q1/arm-none-eabi/include/c++/4.9.3/bits/unique_ptr.h ****       constexpr default_delete() noexcept = default;
  58:/opt/toolchains/gcc-arm-none-eabi-4_9-2015q1/arm-none-eabi/include/c++/4.9.3/bits/unique_ptr.h **** 
  59:/opt/toolchains/gcc-arm-none-eabi-4_9-2015q1/arm-none-eabi/include/c++/4.9.3/bits/unique_ptr.h ****       /** @brief Converting constructor.
  60:/opt/toolchains/gcc-arm-none-eabi-4_9-2015q1/arm-none-eabi/include/c++/4.9.3/bits/unique_ptr.h ****        *
  61:/opt/toolchains/gcc-arm-none-eabi-4_9-2015q1/arm-none-eabi/include/c++/4.9.3/bits/unique_ptr.h ****        * Allows conversion from a deleter for arrays of another type, @p _Up,
  62:/opt/toolchains/gcc-arm-none-eabi-4_9-2015q1/arm-none-eabi/include/c++/4.9.3/bits/unique_ptr.h ****        * only if @p _Up* is convertible to @p _Tp*.
  63:/opt/toolchains/gcc-arm-none-eabi-4_9-2015q1/arm-none-eabi/include/c++/4.9.3/bits/unique_ptr.h ****        */
  64:/opt/toolchains/gcc-arm-none-eabi-4_9-2015q1/arm-none-eabi/include/c++/4.9.3/bits/unique_ptr.h ****       template<typename _Up, typename = typename
  65:/opt/toolchains/gcc-arm-none-eabi-4_9-2015q1/arm-none-eabi/include/c++/4.9.3/bits/unique_ptr.h **** 	       enable_if<is_convertible<_Up*, _Tp*>::value>::type>
  66:/opt/toolchains/gcc-arm-none-eabi-4_9-2015q1/arm-none-eabi/include/c++/4.9.3/bits/unique_ptr.h ****         default_delete(const default_delete<_Up>&) noexcept { }
  67:/opt/toolchains/gcc-arm-none-eabi-4_9-2015q1/arm-none-eabi/include/c++/4.9.3/bits/unique_ptr.h **** 
  68:/opt/toolchains/gcc-arm-none-eabi-4_9-2015q1/arm-none-eabi/include/c++/4.9.3/bits/unique_ptr.h ****       /// Calls @c delete @p __ptr
  69:/opt/toolchains/gcc-arm-none-eabi-4_9-2015q1/arm-none-eabi/include/c++/4.9.3/bits/unique_ptr.h ****       void
  70:/opt/toolchains/gcc-arm-none-eabi-4_9-2015q1/arm-none-eabi/include/c++/4.9.3/bits/unique_ptr.h ****       operator()(_Tp* __ptr) const
 211              		.loc 3 70 0
 212              		.cfi_startproc
 213              		@ args = 0, pretend = 0, frame = 0
 214              		@ frame_needed = 0, uses_anonymous_args = 0
 215              		@ link register save eliminated.
 216              	.LVL16:
  71:/opt/toolchains/gcc-arm-none-eabi-4_9-2015q1/arm-none-eabi/include/c++/4.9.3/bits/unique_ptr.h ****       {
  72:/opt/toolchains/gcc-arm-none-eabi-4_9-2015q1/arm-none-eabi/include/c++/4.9.3/bits/unique_ptr.h **** 	static_assert(!is_void<_Tp>::value,
  73:/opt/toolchains/gcc-arm-none-eabi-4_9-2015q1/arm-none-eabi/include/c++/4.9.3/bits/unique_ptr.h **** 		      "can't delete pointer to incomplete type");
  74:/opt/toolchains/gcc-arm-none-eabi-4_9-2015q1/arm-none-eabi/include/c++/4.9.3/bits/unique_ptr.h **** 	static_assert(sizeof(_Tp)>0,
  75:/opt/toolchains/gcc-arm-none-eabi-4_9-2015q1/arm-none-eabi/include/c++/4.9.3/bits/unique_ptr.h **** 		      "can't delete pointer to incomplete type");
  76:/opt/toolchains/gcc-arm-none-eabi-4_9-2015q1/arm-none-eabi/include/c++/4.9.3/bits/unique_ptr.h **** 	delete __ptr;
 217              		.loc 3 76 0
 218 0000 10B1     		cbz	r0, .L13
 219 0002 0368     		ldr	r3, [r0]
 220 0004 5B68     		ldr	r3, [r3, #4]
 221 0006 1847     		bx	r3
 222              	.LVL17:
 223              	.L13:
 224 0008 7047     		bx	lr
 225              		.cfi_endproc
 226              	.LFE3886:
 228              		.section	.text._ZN4ltaf7inverseIfLi2ELb1EEENS_6MatrixIT_XT0_EXT0_EXT1_EEERKS3_,"axG",%progbits,_ZN
 229              		.align	1
 230              		.weak	_ZN4ltaf7inverseIfLi2ELb1EEENS_6MatrixIT_XT0_EXT0_EXT1_EEERKS3_
 231              		.thumb
 232              		.thumb_func
 234              	_ZN4ltaf7inverseIfLi2ELb1EEENS_6MatrixIT_XT0_EXT0_EXT1_EEERKS3_:
 235              	.LFB3563:
1135:/home/tienluong/workspace/atlantis_fw/AsicFwS2/include/matrix.h **** };
1136:/home/tienluong/workspace/atlantis_fw/AsicFwS2/include/matrix.h **** 
1137:/home/tienluong/workspace/atlantis_fw/AsicFwS2/include/matrix.h **** template<typename T>
1138:/home/tienluong/workspace/atlantis_fw/AsicFwS2/include/matrix.h **** struct SquareMatrixInverter<T, 3>
1139:/home/tienluong/workspace/atlantis_fw/AsicFwS2/include/matrix.h **** {
1140:/home/tienluong/workspace/atlantis_fw/AsicFwS2/include/matrix.h ****     void run( T * mat ) const
1141:/home/tienluong/workspace/atlantis_fw/AsicFwS2/include/matrix.h ****     {
1142:/home/tienluong/workspace/atlantis_fw/AsicFwS2/include/matrix.h ****         const T det = + mat[0] * ( mat[4] * mat[8] - mat[7] * mat[5] )
1143:/home/tienluong/workspace/atlantis_fw/AsicFwS2/include/matrix.h ****                       - mat[1] * ( mat[3] * mat[8] - mat[5] * mat[6] )
1144:/home/tienluong/workspace/atlantis_fw/AsicFwS2/include/matrix.h ****                       + mat[2] * ( mat[3] * mat[7] - mat[4] * mat[6] );
1145:/home/tienluong/workspace/atlantis_fw/AsicFwS2/include/matrix.h **** 
1146:/home/tienluong/workspace/atlantis_fw/AsicFwS2/include/matrix.h ****         const T invdet = T{1} / det;
1147:/home/tienluong/workspace/atlantis_fw/AsicFwS2/include/matrix.h **** 
1148:/home/tienluong/workspace/atlantis_fw/AsicFwS2/include/matrix.h ****         T tmp[9];
1149:/home/tienluong/workspace/atlantis_fw/AsicFwS2/include/matrix.h ****         tmp[0] =  mat[4] * mat[8] - mat[7] * mat[5];
1150:/home/tienluong/workspace/atlantis_fw/AsicFwS2/include/matrix.h ****         tmp[1] = -( mat[1] * mat[8] - mat[2] * mat[7] );
1151:/home/tienluong/workspace/atlantis_fw/AsicFwS2/include/matrix.h ****         tmp[2] =  mat[1] * mat[5] - mat[2] * mat[4];
1152:/home/tienluong/workspace/atlantis_fw/AsicFwS2/include/matrix.h ****         tmp[3] = -( mat[3] * mat[8] - mat[5] * mat[6] );
1153:/home/tienluong/workspace/atlantis_fw/AsicFwS2/include/matrix.h ****         tmp[4] =  mat[0] * mat[8] - mat[2] * mat[6];
1154:/home/tienluong/workspace/atlantis_fw/AsicFwS2/include/matrix.h ****         tmp[5] = -( mat[0] * mat[5] - mat[3] * mat[2] );
1155:/home/tienluong/workspace/atlantis_fw/AsicFwS2/include/matrix.h ****         tmp[6] =  mat[3] * mat[7] - mat[6] * mat[ 4];
1156:/home/tienluong/workspace/atlantis_fw/AsicFwS2/include/matrix.h ****         tmp[7] = -( mat[0] * mat[7] - mat[6] * mat[1] );
1157:/home/tienluong/workspace/atlantis_fw/AsicFwS2/include/matrix.h ****         tmp[8] =  mat[0] * mat[4] - mat[3] * mat[1];
1158:/home/tienluong/workspace/atlantis_fw/AsicFwS2/include/matrix.h **** 
1159:/home/tienluong/workspace/atlantis_fw/AsicFwS2/include/matrix.h ****         for( int i = 0; i < 9; ++i ) { mat[i] = tmp[i] * invdet; }
1160:/home/tienluong/workspace/atlantis_fw/AsicFwS2/include/matrix.h ****     }
1161:/home/tienluong/workspace/atlantis_fw/AsicFwS2/include/matrix.h **** };
1162:/home/tienluong/workspace/atlantis_fw/AsicFwS2/include/matrix.h **** 
1163:/home/tienluong/workspace/atlantis_fw/AsicFwS2/include/matrix.h **** template<typename T>
1164:/home/tienluong/workspace/atlantis_fw/AsicFwS2/include/matrix.h **** struct SquareMatrixInverter<T, 4>
1165:/home/tienluong/workspace/atlantis_fw/AsicFwS2/include/matrix.h **** {
1166:/home/tienluong/workspace/atlantis_fw/AsicFwS2/include/matrix.h ****     void run( T * mat ) const
1167:/home/tienluong/workspace/atlantis_fw/AsicFwS2/include/matrix.h ****     {
1168:/home/tienluong/workspace/atlantis_fw/AsicFwS2/include/matrix.h ****         T dst[16];
1169:/home/tienluong/workspace/atlantis_fw/AsicFwS2/include/matrix.h ****         T tmp[12];
1170:/home/tienluong/workspace/atlantis_fw/AsicFwS2/include/matrix.h **** 
1171:/home/tienluong/workspace/atlantis_fw/AsicFwS2/include/matrix.h ****         // calculate pairs for first 8 elements (cofactors)
1172:/home/tienluong/workspace/atlantis_fw/AsicFwS2/include/matrix.h ****         tmp[0] = mat[10] * mat[15];
1173:/home/tienluong/workspace/atlantis_fw/AsicFwS2/include/matrix.h ****         tmp[1] = mat[11] * mat[14];
1174:/home/tienluong/workspace/atlantis_fw/AsicFwS2/include/matrix.h ****         tmp[2] = mat[9] * mat[15];
1175:/home/tienluong/workspace/atlantis_fw/AsicFwS2/include/matrix.h ****         tmp[3] = mat[11] * mat[13];
1176:/home/tienluong/workspace/atlantis_fw/AsicFwS2/include/matrix.h ****         tmp[4] = mat[9] * mat[14];
1177:/home/tienluong/workspace/atlantis_fw/AsicFwS2/include/matrix.h ****         tmp[5] = mat[10] * mat[13];
1178:/home/tienluong/workspace/atlantis_fw/AsicFwS2/include/matrix.h ****         tmp[6] = mat[8] * mat[15];
1179:/home/tienluong/workspace/atlantis_fw/AsicFwS2/include/matrix.h ****         tmp[7] = mat[11] * mat[12];
1180:/home/tienluong/workspace/atlantis_fw/AsicFwS2/include/matrix.h ****         tmp[8] = mat[8] * mat[14];
1181:/home/tienluong/workspace/atlantis_fw/AsicFwS2/include/matrix.h ****         tmp[9] = mat[10] * mat[12];
1182:/home/tienluong/workspace/atlantis_fw/AsicFwS2/include/matrix.h ****         tmp[10] = mat[8] * mat[13];
1183:/home/tienluong/workspace/atlantis_fw/AsicFwS2/include/matrix.h ****         tmp[11] = mat[9] * mat[12];
1184:/home/tienluong/workspace/atlantis_fw/AsicFwS2/include/matrix.h **** 
1185:/home/tienluong/workspace/atlantis_fw/AsicFwS2/include/matrix.h ****         // calculate first 8 elements (cofactors)
1186:/home/tienluong/workspace/atlantis_fw/AsicFwS2/include/matrix.h ****         dst[0]   = tmp[0] * mat[5] + tmp[3] * mat[6] + tmp[4]  * mat[7];
1187:/home/tienluong/workspace/atlantis_fw/AsicFwS2/include/matrix.h ****         dst[0]  -= tmp[1] * mat[5] + tmp[2] * mat[6] + tmp[5]  * mat[7];
1188:/home/tienluong/workspace/atlantis_fw/AsicFwS2/include/matrix.h ****         dst[4]   = tmp[1] * mat[4] + tmp[6] * mat[6] + tmp[9]  * mat[7];
1189:/home/tienluong/workspace/atlantis_fw/AsicFwS2/include/matrix.h ****         dst[4]  -= tmp[0] * mat[4] + tmp[7] * mat[6] + tmp[8]  * mat[7];
1190:/home/tienluong/workspace/atlantis_fw/AsicFwS2/include/matrix.h ****         dst[8]   = tmp[2] * mat[4] + tmp[7] * mat[5] + tmp[10] * mat[7];
1191:/home/tienluong/workspace/atlantis_fw/AsicFwS2/include/matrix.h ****         dst[8]  -= tmp[3] * mat[4] + tmp[6] * mat[5] + tmp[11] * mat[7];
1192:/home/tienluong/workspace/atlantis_fw/AsicFwS2/include/matrix.h ****         dst[12]  = tmp[5] * mat[4] + tmp[8] * mat[5] + tmp[11] * mat[6];
1193:/home/tienluong/workspace/atlantis_fw/AsicFwS2/include/matrix.h ****         dst[12] -= tmp[4] * mat[4] + tmp[9] * mat[5] + tmp[10] * mat[6];
1194:/home/tienluong/workspace/atlantis_fw/AsicFwS2/include/matrix.h **** 
1195:/home/tienluong/workspace/atlantis_fw/AsicFwS2/include/matrix.h ****         // calculate determinant
1196:/home/tienluong/workspace/atlantis_fw/AsicFwS2/include/matrix.h ****         const T det = mat[0] * dst[0] + mat[1] * dst[4] + mat[2] * dst[8] + mat[3] * dst[12];
1197:/home/tienluong/workspace/atlantis_fw/AsicFwS2/include/matrix.h **** 
1198:/home/tienluong/workspace/atlantis_fw/AsicFwS2/include/matrix.h ****         const T inv_det = T{1} / det;
1199:/home/tienluong/workspace/atlantis_fw/AsicFwS2/include/matrix.h **** 
1200:/home/tienluong/workspace/atlantis_fw/AsicFwS2/include/matrix.h ****         dst[1]   = tmp[1] * mat[1] + tmp[2] * mat[2] + tmp[5]  * mat[3];
1201:/home/tienluong/workspace/atlantis_fw/AsicFwS2/include/matrix.h ****         dst[1]  -= tmp[0] * mat[1] + tmp[3] * mat[2] + tmp[4]  * mat[3];
1202:/home/tienluong/workspace/atlantis_fw/AsicFwS2/include/matrix.h ****         dst[5]   = tmp[0] * mat[0] + tmp[7] * mat[2] + tmp[8]  * mat[3];
1203:/home/tienluong/workspace/atlantis_fw/AsicFwS2/include/matrix.h ****         dst[5]  -= tmp[1] * mat[0] + tmp[6] * mat[2] + tmp[9]  * mat[3];
1204:/home/tienluong/workspace/atlantis_fw/AsicFwS2/include/matrix.h ****         dst[9]   = tmp[3] * mat[0] + tmp[6] * mat[1] + tmp[11] * mat[3];
1205:/home/tienluong/workspace/atlantis_fw/AsicFwS2/include/matrix.h ****         dst[9]  -= tmp[2] * mat[0] + tmp[7] * mat[1] + tmp[10] * mat[3];
1206:/home/tienluong/workspace/atlantis_fw/AsicFwS2/include/matrix.h ****         dst[13]  = tmp[4] * mat[0] + tmp[9] * mat[1] + tmp[10] * mat[2];
1207:/home/tienluong/workspace/atlantis_fw/AsicFwS2/include/matrix.h ****         dst[13] -= tmp[5] * mat[0] + tmp[8] * mat[1] + tmp[11] * mat[2];
1208:/home/tienluong/workspace/atlantis_fw/AsicFwS2/include/matrix.h **** 
1209:/home/tienluong/workspace/atlantis_fw/AsicFwS2/include/matrix.h ****         // calculate pairs for second 8 elements (cofactors)
1210:/home/tienluong/workspace/atlantis_fw/AsicFwS2/include/matrix.h ****         tmp[0] = mat[2] * mat[7];
1211:/home/tienluong/workspace/atlantis_fw/AsicFwS2/include/matrix.h ****         tmp[1] = mat[3] * mat[6];
1212:/home/tienluong/workspace/atlantis_fw/AsicFwS2/include/matrix.h ****         tmp[2] = mat[1] * mat[7];
1213:/home/tienluong/workspace/atlantis_fw/AsicFwS2/include/matrix.h ****         tmp[3] = mat[3] * mat[5];
1214:/home/tienluong/workspace/atlantis_fw/AsicFwS2/include/matrix.h ****         tmp[4] = mat[1] * mat[6];
1215:/home/tienluong/workspace/atlantis_fw/AsicFwS2/include/matrix.h ****         tmp[5] = mat[2] * mat[5];
1216:/home/tienluong/workspace/atlantis_fw/AsicFwS2/include/matrix.h ****         tmp[6] = mat[0] * mat[7];
1217:/home/tienluong/workspace/atlantis_fw/AsicFwS2/include/matrix.h ****         tmp[7] = mat[3] * mat[4];
1218:/home/tienluong/workspace/atlantis_fw/AsicFwS2/include/matrix.h ****         tmp[8] = mat[0] * mat[6];
1219:/home/tienluong/workspace/atlantis_fw/AsicFwS2/include/matrix.h ****         tmp[9] = mat[2] * mat[4];
1220:/home/tienluong/workspace/atlantis_fw/AsicFwS2/include/matrix.h ****         tmp[10] = mat[0] * mat[5];
1221:/home/tienluong/workspace/atlantis_fw/AsicFwS2/include/matrix.h ****         tmp[11] = mat[1] * mat[4];
1222:/home/tienluong/workspace/atlantis_fw/AsicFwS2/include/matrix.h **** 
1223:/home/tienluong/workspace/atlantis_fw/AsicFwS2/include/matrix.h ****         // calculate second 8 elements (cofactors)
1224:/home/tienluong/workspace/atlantis_fw/AsicFwS2/include/matrix.h ****         dst[2]   = tmp[0]  * mat[13] + tmp[3]  * mat[14] + tmp[4]  * mat[15];
1225:/home/tienluong/workspace/atlantis_fw/AsicFwS2/include/matrix.h ****         dst[2]  -= tmp[1]  * mat[13] + tmp[2]  * mat[14] + tmp[5]  * mat[15];
1226:/home/tienluong/workspace/atlantis_fw/AsicFwS2/include/matrix.h ****         dst[3]   = tmp[2]  * mat[10] + tmp[5]  * mat[11] + tmp[1]  * mat[9];
1227:/home/tienluong/workspace/atlantis_fw/AsicFwS2/include/matrix.h ****         dst[3]  -= tmp[4]  * mat[11] + tmp[0]  * mat[9]  + tmp[3]  * mat[10];
1228:/home/tienluong/workspace/atlantis_fw/AsicFwS2/include/matrix.h ****         dst[6]   = tmp[1]  * mat[12] + tmp[6]  * mat[14] + tmp[9]  * mat[15];
1229:/home/tienluong/workspace/atlantis_fw/AsicFwS2/include/matrix.h ****         dst[6]  -= tmp[0]  * mat[12] + tmp[7]  * mat[14] + tmp[8]  * mat[15];
1230:/home/tienluong/workspace/atlantis_fw/AsicFwS2/include/matrix.h ****         dst[7]   = tmp[8]  * mat[11] + tmp[0]  * mat[8]  + tmp[7]  * mat[10];
1231:/home/tienluong/workspace/atlantis_fw/AsicFwS2/include/matrix.h ****         dst[7]  -= tmp[6]  * mat[10] + tmp[9]  * mat[11] + tmp[1]  * mat[8];
1232:/home/tienluong/workspace/atlantis_fw/AsicFwS2/include/matrix.h ****         dst[10]  = tmp[2]  * mat[12] + tmp[7]  * mat[13] + tmp[10] * mat[15];
1233:/home/tienluong/workspace/atlantis_fw/AsicFwS2/include/matrix.h ****         dst[10] -= tmp[3]  * mat[12] + tmp[6]  * mat[13] + tmp[11] * mat[15];
1234:/home/tienluong/workspace/atlantis_fw/AsicFwS2/include/matrix.h ****         dst[11]  = tmp[6]  * mat[9]  + tmp[11] * mat[11] + tmp[3]  * mat[8];
1235:/home/tienluong/workspace/atlantis_fw/AsicFwS2/include/matrix.h ****         dst[11] -= tmp[10] * mat[11] + tmp[2]  * mat[8]  + tmp[7]  * mat[9];
1236:/home/tienluong/workspace/atlantis_fw/AsicFwS2/include/matrix.h ****         dst[14]  = tmp[5]  * mat[12] + tmp[8]  * mat[13] + tmp[11] * mat[14];
1237:/home/tienluong/workspace/atlantis_fw/AsicFwS2/include/matrix.h ****         dst[14] -= tmp[4]  * mat[12] + tmp[9]  * mat[13] + tmp[10] * mat[14];
1238:/home/tienluong/workspace/atlantis_fw/AsicFwS2/include/matrix.h ****         dst[15]  = tmp[10] * mat[10] + tmp[4]  * mat[8]  + tmp[9]  * mat[9];
1239:/home/tienluong/workspace/atlantis_fw/AsicFwS2/include/matrix.h ****         dst[15] -= tmp[8]  * mat[9]  + tmp[11] * mat[10] + tmp[5]  * mat[8];
1240:/home/tienluong/workspace/atlantis_fw/AsicFwS2/include/matrix.h **** 
1241:/home/tienluong/workspace/atlantis_fw/AsicFwS2/include/matrix.h ****         // calculate matrix inverse
1242:/home/tienluong/workspace/atlantis_fw/AsicFwS2/include/matrix.h ****         for( int i = 0; i < 16; i++ ) { mat[i] = dst[i] * inv_det; }
1243:/home/tienluong/workspace/atlantis_fw/AsicFwS2/include/matrix.h ****     }
1244:/home/tienluong/workspace/atlantis_fw/AsicFwS2/include/matrix.h **** };
1245:/home/tienluong/workspace/atlantis_fw/AsicFwS2/include/matrix.h **** 
1246:/home/tienluong/workspace/atlantis_fw/AsicFwS2/include/matrix.h **** template<typename T, int N, bool D>
1247:/home/tienluong/workspace/atlantis_fw/AsicFwS2/include/matrix.h **** Matrix<T, N, N, D> inverse( const Matrix<T, N, N, D> & mat )
 236              		.loc 2 1247 0
 237              		.cfi_startproc
 238              		@ args = 0, pretend = 0, frame = 0
 239              		@ frame_needed = 0, uses_anonymous_args = 0
 240              	.LVL18:
 241 0000 10B5     		push	{r4, lr}
 242              	.LCFI4:
 243              		.cfi_def_cfa_offset 8
 244              		.cfi_offset 4, -8
 245              		.cfi_offset 14, -4
 246              		.loc 2 1247 0
 247 0002 0446     		mov	r4, r0
 248              	.LVL19:
 249              	.LBB521:
 250              	.LBB522:
 251              	.LBB523:
 591:/home/tienluong/workspace/atlantis_fw/AsicFwS2/include/matrix.h **** 
 252              		.loc 2 591 0
 253 0004 0FC9     		ldmia	r1, {r0, r1, r2, r3}
 254              	.LVL20:
 255 0006 84E80F00 		stmia	r4, {r0, r1, r2, r3}
 256              	.LVL21:
 257              	.LBE523:
 258              	.LBE522:
1248:/home/tienluong/workspace/atlantis_fw/AsicFwS2/include/matrix.h **** {
1249:/home/tienluong/workspace/atlantis_fw/AsicFwS2/include/matrix.h ****     Matrix<T, N, N, D> rval( mat );
1250:/home/tienluong/workspace/atlantis_fw/AsicFwS2/include/matrix.h ****     SquareMatrixInverter<T, N> inverter;
1251:/home/tienluong/workspace/atlantis_fw/AsicFwS2/include/matrix.h ****     inverter.run( rval.data() );
 259              		.loc 2 1251 0
 260 000a 2046     		mov	r0, r4
 261 000c 014B     		ldr	r3, .L16
 262 000e 9847     		blx	r3
 263              	.LVL22:
 264              	.LBE521:
1252:/home/tienluong/workspace/atlantis_fw/AsicFwS2/include/matrix.h ****     return rval;
1253:/home/tienluong/workspace/atlantis_fw/AsicFwS2/include/matrix.h **** }
 265              		.loc 2 1253 0
 266 0010 2046     		mov	r0, r4
 267 0012 10BD     		pop	{r4, pc}
 268              	.LVL23:
 269              	.L17:
 270              		.align	2
 271              	.L16:
 272 0014 00000000 		.word	_ZNK4ltaf20SquareMatrixInverterIfLi2EE3runEPf.isra.0
 273              		.cfi_endproc
 274              	.LFE3563:
 276              		.section	.text._ZN4ltaf7inverseIfLi2ELb0EEENS_6MatrixIT_XT0_EXT0_EXT1_EEERKS3_,"axG",%progbits,_ZN
 277              		.align	1
 278              		.weak	_ZN4ltaf7inverseIfLi2ELb0EEENS_6MatrixIT_XT0_EXT0_EXT1_EEERKS3_
 279              		.thumb
 280              		.thumb_func
 282              	_ZN4ltaf7inverseIfLi2ELb0EEENS_6MatrixIT_XT0_EXT0_EXT1_EEERKS3_:
 283              	.LFB3566:
1247:/home/tienluong/workspace/atlantis_fw/AsicFwS2/include/matrix.h **** {
 284              		.loc 2 1247 0
 285              		.cfi_startproc
 286              		@ args = 0, pretend = 0, frame = 0
 287              		@ frame_needed = 0, uses_anonymous_args = 0
 288              	.LVL24:
 289 0000 10B5     		push	{r4, lr}
 290              	.LCFI5:
 291              		.cfi_def_cfa_offset 8
 292              		.cfi_offset 4, -8
 293              		.cfi_offset 14, -4
1247:/home/tienluong/workspace/atlantis_fw/AsicFwS2/include/matrix.h **** {
 294              		.loc 2 1247 0
 295 0002 0446     		mov	r4, r0
 296              	.LVL25:
 297              	.LBB530:
 298              	.LBB531:
 299              	.LBB532:
 593:/home/tienluong/workspace/atlantis_fw/AsicFwS2/include/matrix.h **** 
 300              		.loc 2 593 0
 301 0004 0FC9     		ldmia	r1, {r0, r1, r2, r3}
 302              	.LVL26:
 303 0006 84E80F00 		stmia	r4, {r0, r1, r2, r3}
 304              	.LVL27:
 305              	.LBE532:
 306              	.LBE531:
1251:/home/tienluong/workspace/atlantis_fw/AsicFwS2/include/matrix.h ****     return rval;
 307              		.loc 2 1251 0
 308 000a 2046     		mov	r0, r4
 309 000c 014B     		ldr	r3, .L19
 310 000e 9847     		blx	r3
 311              	.LVL28:
 312              	.LBE530:
 313              		.loc 2 1253 0
 314 0010 2046     		mov	r0, r4
 315 0012 10BD     		pop	{r4, pc}
 316              	.LVL29:
 317              	.L20:
 318              		.align	2
 319              	.L19:
 320 0014 00000000 		.word	_ZNK4ltaf20SquareMatrixInverterIfLi2EE3runEPf.isra.0
 321              		.cfi_endproc
 322              	.LFE3566:
 324              		.section	.text._ZN4ltaf11determinantIfLi2ELb1EEET_RKNS_6MatrixIS1_XT0_EXT0_EXT1_EEE,"axG",%progbit
 325              		.align	1
 326              		.weak	_ZN4ltaf11determinantIfLi2ELb1EEET_RKNS_6MatrixIS1_XT0_EXT0_EXT1_EEE
 327              		.thumb
 328              		.thumb_func
 330              	_ZN4ltaf11determinantIfLi2ELb1EEET_RKNS_6MatrixIS1_XT0_EXT0_EXT1_EEE:
 331              	.LFB3575:
1254:/home/tienluong/workspace/atlantis_fw/AsicFwS2/include/matrix.h **** 
1255:/home/tienluong/workspace/atlantis_fw/AsicFwS2/include/matrix.h **** template<typename T, int N, bool D>
1256:/home/tienluong/workspace/atlantis_fw/AsicFwS2/include/matrix.h **** T determinant( const Matrix<T, N, N, D> & mat )
 332              		.loc 2 1256 0
 333              		.cfi_startproc
 334              		@ args = 0, pretend = 0, frame = 0
 335              		@ frame_needed = 0, uses_anonymous_args = 0
 336              	.LVL30:
 337 0000 70B5     		push	{r4, r5, r6, lr}
 338              	.LCFI6:
 339              		.cfi_def_cfa_offset 16
 340              		.cfi_offset 4, -16
 341              		.cfi_offset 5, -12
 342              		.cfi_offset 6, -8
 343              		.cfi_offset 14, -4
 344              		.loc 2 1256 0
 345 0002 0446     		mov	r4, r0
 346              	.LBB538:
 347              	.LBB539:
 348              	.LBB540:
1062:/home/tienluong/workspace/atlantis_fw/AsicFwS2/include/matrix.h ****     }
 349              		.loc 2 1062 0
 350 0004 064D     		ldr	r5, .L22
 351 0006 0068     		ldr	r0, [r0]	@ float
 352              	.LVL31:
 353 0008 E168     		ldr	r1, [r4, #12]	@ float
 354 000a A847     		blx	r5
 355              	.LVL32:
 356 000c A168     		ldr	r1, [r4, #8]	@ float
 357 000e 0646     		mov	r6, r0
 358 0010 6068     		ldr	r0, [r4, #4]	@ float
 359 0012 A847     		blx	r5
 360              	.LVL33:
 361 0014 034B     		ldr	r3, .L22+4
 362 0016 0146     		mov	r1, r0
 363 0018 3046     		mov	r0, r6
 364 001a 9847     		blx	r3
 365              	.LVL34:
 366              	.LBE540:
 367              	.LBE539:
 368              	.LBE538:
1257:/home/tienluong/workspace/atlantis_fw/AsicFwS2/include/matrix.h **** {
1258:/home/tienluong/workspace/atlantis_fw/AsicFwS2/include/matrix.h ****     MatrixDeterminant<T, N> det;
1259:/home/tienluong/workspace/atlantis_fw/AsicFwS2/include/matrix.h ****     return det( mat.data() );
1260:/home/tienluong/workspace/atlantis_fw/AsicFwS2/include/matrix.h **** }
 369              		.loc 2 1260 0
 370 001c 70BD     		pop	{r4, r5, r6, pc}
 371              	.LVL35:
 372              	.L23:
 373 001e 00BF     		.align	2
 374              	.L22:
 375 0020 00000000 		.word	__aeabi_fmul
 376 0024 00000000 		.word	__aeabi_fsub
 377              		.cfi_endproc
 378              	.LFE3575:
 380              		.section	.text._ZN4ltaf11determinantIfLi2ELb0EEET_RKNS_6MatrixIS1_XT0_EXT0_EXT1_EEE,"axG",%progbit
 381              		.align	1
 382              		.weak	_ZN4ltaf11determinantIfLi2ELb0EEET_RKNS_6MatrixIS1_XT0_EXT0_EXT1_EEE
 383              		.thumb
 384              		.thumb_func
 386              	_ZN4ltaf11determinantIfLi2ELb0EEET_RKNS_6MatrixIS1_XT0_EXT0_EXT1_EEE:
 387              	.LFB3578:
1256:/home/tienluong/workspace/atlantis_fw/AsicFwS2/include/matrix.h **** {
 388              		.loc 2 1256 0
 389              		.cfi_startproc
 390              		@ args = 0, pretend = 0, frame = 0
 391              		@ frame_needed = 0, uses_anonymous_args = 0
 392              	.LVL36:
 393 0000 70B5     		push	{r4, r5, r6, lr}
 394              	.LCFI7:
 395              		.cfi_def_cfa_offset 16
 396              		.cfi_offset 4, -16
 397              		.cfi_offset 5, -12
 398              		.cfi_offset 6, -8
 399              		.cfi_offset 14, -4
1256:/home/tienluong/workspace/atlantis_fw/AsicFwS2/include/matrix.h **** {
 400              		.loc 2 1256 0
 401 0002 0446     		mov	r4, r0
 402              	.LBB546:
 403              	.LBB547:
 404              	.LBB548:
1062:/home/tienluong/workspace/atlantis_fw/AsicFwS2/include/matrix.h ****     }
 405              		.loc 2 1062 0
 406 0004 064D     		ldr	r5, .L25
 407 0006 0068     		ldr	r0, [r0]	@ float
 408              	.LVL37:
 409 0008 E168     		ldr	r1, [r4, #12]	@ float
 410 000a A847     		blx	r5
 411              	.LVL38:
 412 000c A168     		ldr	r1, [r4, #8]	@ float
 413 000e 0646     		mov	r6, r0
 414 0010 6068     		ldr	r0, [r4, #4]	@ float
 415 0012 A847     		blx	r5
 416              	.LVL39:
 417 0014 034B     		ldr	r3, .L25+4
 418 0016 0146     		mov	r1, r0
 419 0018 3046     		mov	r0, r6
 420 001a 9847     		blx	r3
 421              	.LVL40:
 422              	.LBE548:
 423              	.LBE547:
 424              	.LBE546:
 425              		.loc 2 1260 0
 426 001c 70BD     		pop	{r4, r5, r6, pc}
 427              	.LVL41:
 428              	.L26:
 429 001e 00BF     		.align	2
 430              	.L25:
 431 0020 00000000 		.word	__aeabi_fmul
 432 0024 00000000 		.word	__aeabi_fsub
 433              		.cfi_endproc
 434              	.LFE3578:
 436              		.global	__aeabi_dmul
 437              		.global	__aeabi_dsub
 438              		.section	.text._ZN4ltaf11determinantIdLi2ELb1EEET_RKNS_6MatrixIS1_XT0_EXT0_EXT1_EEE,"axG",%progbit
 439              		.align	1
 440              		.weak	_ZN4ltaf11determinantIdLi2ELb1EEET_RKNS_6MatrixIS1_XT0_EXT0_EXT1_EEE
 441              		.thumb
 442              		.thumb_func
 444              	_ZN4ltaf11determinantIdLi2ELb1EEET_RKNS_6MatrixIS1_XT0_EXT0_EXT1_EEE:
 445              	.LFB3581:
1256:/home/tienluong/workspace/atlantis_fw/AsicFwS2/include/matrix.h **** {
 446              		.loc 2 1256 0
 447              		.cfi_startproc
 448              		@ args = 0, pretend = 0, frame = 0
 449              		@ frame_needed = 0, uses_anonymous_args = 0
 450              	.LVL42:
 451 0000 F8B5     		push	{r3, r4, r5, r6, r7, lr}
 452              	.LCFI8:
 453              		.cfi_def_cfa_offset 24
 454              		.cfi_offset 3, -24
 455              		.cfi_offset 4, -20
 456              		.cfi_offset 5, -16
 457              		.cfi_offset 6, -12
 458              		.cfi_offset 7, -8
 459              		.cfi_offset 14, -4
1256:/home/tienluong/workspace/atlantis_fw/AsicFwS2/include/matrix.h **** {
 460              		.loc 2 1256 0
 461 0002 0446     		mov	r4, r0
 462              	.LBB554:
 463              	.LBB555:
 464              	.LBB556:
1062:/home/tienluong/workspace/atlantis_fw/AsicFwS2/include/matrix.h ****     }
 465              		.loc 2 1062 0
 466 0004 094D     		ldr	r5, .L28
 467 0006 D0E90001 		ldrd	r0, [r0]
 468              	.LVL43:
 469 000a D4E90623 		ldrd	r2, [r4, #24]
 470 000e A847     		blx	r5
 471              	.LVL44:
 472 0010 D4E90423 		ldrd	r2, [r4, #16]
 473 0014 0646     		mov	r6, r0
 474 0016 0F46     		mov	r7, r1
 475 0018 D4E90201 		ldrd	r0, [r4, #8]
 476 001c A847     		blx	r5
 477              	.LVL45:
 478 001e 044C     		ldr	r4, .L28+4
 479              	.LVL46:
 480 0020 0246     		mov	r2, r0
 481 0022 0B46     		mov	r3, r1
 482 0024 3046     		mov	r0, r6
 483 0026 3946     		mov	r1, r7
 484 0028 A047     		blx	r4
 485              	.LVL47:
 486              	.LBE556:
 487              	.LBE555:
 488              	.LBE554:
 489              		.loc 2 1260 0
 490 002a F8BD     		pop	{r3, r4, r5, r6, r7, pc}
 491              	.L29:
 492              		.align	2
 493              	.L28:
 494 002c 00000000 		.word	__aeabi_dmul
 495 0030 00000000 		.word	__aeabi_dsub
 496              		.cfi_endproc
 497              	.LFE3581:
 499              		.section	.text._ZN4ltaf11determinantIdLi2ELb0EEET_RKNS_6MatrixIS1_XT0_EXT0_EXT1_EEE,"axG",%progbit
 500              		.align	1
 501              		.weak	_ZN4ltaf11determinantIdLi2ELb0EEET_RKNS_6MatrixIS1_XT0_EXT0_EXT1_EEE
 502              		.thumb
 503              		.thumb_func
 505              	_ZN4ltaf11determinantIdLi2ELb0EEET_RKNS_6MatrixIS1_XT0_EXT0_EXT1_EEE:
 506              	.LFB3584:
1256:/home/tienluong/workspace/atlantis_fw/AsicFwS2/include/matrix.h **** {
 507              		.loc 2 1256 0
 508              		.cfi_startproc
 509              		@ args = 0, pretend = 0, frame = 0
 510              		@ frame_needed = 0, uses_anonymous_args = 0
 511              	.LVL48:
 512 0000 F8B5     		push	{r3, r4, r5, r6, r7, lr}
 513              	.LCFI9:
 514              		.cfi_def_cfa_offset 24
 515              		.cfi_offset 3, -24
 516              		.cfi_offset 4, -20
 517              		.cfi_offset 5, -16
 518              		.cfi_offset 6, -12
 519              		.cfi_offset 7, -8
 520              		.cfi_offset 14, -4
1256:/home/tienluong/workspace/atlantis_fw/AsicFwS2/include/matrix.h **** {
 521              		.loc 2 1256 0
 522 0002 0446     		mov	r4, r0
 523              	.LBB562:
 524              	.LBB563:
 525              	.LBB564:
1062:/home/tienluong/workspace/atlantis_fw/AsicFwS2/include/matrix.h ****     }
 526              		.loc 2 1062 0
 527 0004 094D     		ldr	r5, .L31
 528 0006 D0E90001 		ldrd	r0, [r0]
 529              	.LVL49:
 530 000a D4E90623 		ldrd	r2, [r4, #24]
 531 000e A847     		blx	r5
 532              	.LVL50:
 533 0010 D4E90423 		ldrd	r2, [r4, #16]
 534 0014 0646     		mov	r6, r0
 535 0016 0F46     		mov	r7, r1
 536 0018 D4E90201 		ldrd	r0, [r4, #8]
 537 001c A847     		blx	r5
 538              	.LVL51:
 539 001e 044C     		ldr	r4, .L31+4
 540              	.LVL52:
 541 0020 0246     		mov	r2, r0
 542 0022 0B46     		mov	r3, r1
 543 0024 3046     		mov	r0, r6
 544 0026 3946     		mov	r1, r7
 545 0028 A047     		blx	r4
 546              	.LVL53:
 547              	.LBE564:
 548              	.LBE563:
 549              	.LBE562:
 550              		.loc 2 1260 0
 551 002a F8BD     		pop	{r3, r4, r5, r6, r7, pc}
 552              	.L32:
 553              		.align	2
 554              	.L31:
 555 002c 00000000 		.word	__aeabi_dmul
 556 0030 00000000 		.word	__aeabi_dsub
 557              		.cfi_endproc
 558              	.LFE3584:
 560              		.section	.text._ZN18calib_data_manager8instanceEv,"ax",%progbits
 561              		.align	1
 562              		.global	_ZN18calib_data_manager8instanceEv
 563              		.thumb
 564              		.thumb_func
 566              	_ZN18calib_data_manager8instanceEv:
 567              	.LFB3525:
  32:/home/tienluong/workspace/atlantis_fw/AsicFwS2/src/calib_data_manager.cpp ****     return *instance_;
 568              		.loc 1 32 0
 569              		.cfi_startproc
 570              		@ args = 0, pretend = 0, frame = 0
 571              		@ frame_needed = 0, uses_anonymous_args = 0
 572              		@ link register save eliminated.
 573              	.LVL54:
  34:/home/tienluong/workspace/atlantis_fw/AsicFwS2/src/calib_data_manager.cpp **** 
 574              		.loc 1 34 0
 575 0000 014B     		ldr	r3, .L34
 576 0002 1868     		ldr	r0, [r3]
 577 0004 7047     		bx	lr
 578              	.L35:
 579 0006 00BF     		.align	2
 580              	.L34:
 581 0008 00000000 		.word	.LANCHOR2
 582              		.cfi_endproc
 583              	.LFE3525:
 585              		.section	.text._ZN4ltaf16CalibDataManagerD2Ev,"axG",%progbits,_ZN4ltaf16CalibDataManagerD5Ev,comda
 586              		.align	1
 587              		.weak	_ZN4ltaf16CalibDataManagerD2Ev
 588              		.thumb
 589              		.thumb_func
 591              	_ZN4ltaf16CalibDataManagerD2Ev:
 592              	.LFB3531:
 593              		.file 4 "/home/tienluong/workspace/atlantis_fw/AsicFwS2/include/calibclasses.h"
   1:/home/tienluong/workspace/atlantis_fw/AsicFwS2/include/calibclasses.h **** // this file contains CI side calibration related code
   2:/home/tienluong/workspace/atlantis_fw/AsicFwS2/include/calibclasses.h **** // that we require for disparity based focus to work
   3:/home/tienluong/workspace/atlantis_fw/AsicFwS2/include/calibclasses.h **** #ifndef __CALIBCLASSES_H__
   4:/home/tienluong/workspace/atlantis_fw/AsicFwS2/include/calibclasses.h **** #define __CALIBCLASSES_H__
   5:/home/tienluong/workspace/atlantis_fw/AsicFwS2/include/calibclasses.h **** 
   6:/home/tienluong/workspace/atlantis_fw/AsicFwS2/include/calibclasses.h **** #ifdef __cplusplus
   7:/home/tienluong/workspace/atlantis_fw/AsicFwS2/include/calibclasses.h **** #include <memory>
   8:/home/tienluong/workspace/atlantis_fw/AsicFwS2/include/calibclasses.h **** #include <cassert>
   9:/home/tienluong/workspace/atlantis_fw/AsicFwS2/include/calibclasses.h **** #include "matrix.h"
  10:/home/tienluong/workspace/atlantis_fw/AsicFwS2/include/calibclasses.h **** #include "line2.h"
  11:/home/tienluong/workspace/atlantis_fw/AsicFwS2/include/calibclasses.h **** #include "mirrorsystems.h"
  12:/home/tienluong/workspace/atlantis_fw/AsicFwS2/include/calibclasses.h **** #include "lightheader/include/lightheader.pb-c.h"
  13:/home/tienluong/workspace/atlantis_fw/AsicFwS2/include/calibclasses.h **** 
  14:/home/tienluong/workspace/atlantis_fw/AsicFwS2/include/calibclasses.h **** namespace ltaf {
  15:/home/tienluong/workspace/atlantis_fw/AsicFwS2/include/calibclasses.h **** 
  16:/home/tienluong/workspace/atlantis_fw/AsicFwS2/include/calibclasses.h **** constexpr short kNumModules = 16;
  17:/home/tienluong/workspace/atlantis_fw/AsicFwS2/include/calibclasses.h **** //constexpr short kNumAModules = 5;
  18:/home/tienluong/workspace/atlantis_fw/AsicFwS2/include/calibclasses.h **** //constexpr short kNonMoveableModules = 5 + 1 + 1; // B4, C5
  19:/home/tienluong/workspace/atlantis_fw/AsicFwS2/include/calibclasses.h **** //constexpr short kMoveableModules = 9;
  20:/home/tienluong/workspace/atlantis_fw/AsicFwS2/include/calibclasses.h **** 
  21:/home/tienluong/workspace/atlantis_fw/AsicFwS2/include/calibclasses.h **** enum ModuleName {
  22:/home/tienluong/workspace/atlantis_fw/AsicFwS2/include/calibclasses.h ****     A1 = 0,
  23:/home/tienluong/workspace/atlantis_fw/AsicFwS2/include/calibclasses.h ****     A2,
  24:/home/tienluong/workspace/atlantis_fw/AsicFwS2/include/calibclasses.h ****     A3,
  25:/home/tienluong/workspace/atlantis_fw/AsicFwS2/include/calibclasses.h ****     A4,
  26:/home/tienluong/workspace/atlantis_fw/AsicFwS2/include/calibclasses.h ****     A5,
  27:/home/tienluong/workspace/atlantis_fw/AsicFwS2/include/calibclasses.h ****     B1,
  28:/home/tienluong/workspace/atlantis_fw/AsicFwS2/include/calibclasses.h ****     B2,
  29:/home/tienluong/workspace/atlantis_fw/AsicFwS2/include/calibclasses.h ****     B3,
  30:/home/tienluong/workspace/atlantis_fw/AsicFwS2/include/calibclasses.h ****     B4,
  31:/home/tienluong/workspace/atlantis_fw/AsicFwS2/include/calibclasses.h ****     B5,
  32:/home/tienluong/workspace/atlantis_fw/AsicFwS2/include/calibclasses.h ****     C1,
  33:/home/tienluong/workspace/atlantis_fw/AsicFwS2/include/calibclasses.h ****     C2,
  34:/home/tienluong/workspace/atlantis_fw/AsicFwS2/include/calibclasses.h ****     C3,
  35:/home/tienluong/workspace/atlantis_fw/AsicFwS2/include/calibclasses.h ****     C4,
  36:/home/tienluong/workspace/atlantis_fw/AsicFwS2/include/calibclasses.h ****     C5,
  37:/home/tienluong/workspace/atlantis_fw/AsicFwS2/include/calibclasses.h ****     C6  // 15
  38:/home/tienluong/workspace/atlantis_fw/AsicFwS2/include/calibclasses.h **** };
  39:/home/tienluong/workspace/atlantis_fw/AsicFwS2/include/calibclasses.h **** 
  40:/home/tienluong/workspace/atlantis_fw/AsicFwS2/include/calibclasses.h **** enum MirrorType
  41:/home/tienluong/workspace/atlantis_fw/AsicFwS2/include/calibclasses.h **** {
  42:/home/tienluong/workspace/atlantis_fw/AsicFwS2/include/calibclasses.h ****     NotMoveable = 0,           ///< Not moveable
  43:/home/tienluong/workspace/atlantis_fw/AsicFwS2/include/calibclasses.h ****     Moveable        ///< Mirrors that can move. All B and C modules that are not glued.
  44:/home/tienluong/workspace/atlantis_fw/AsicFwS2/include/calibclasses.h **** };
  45:/home/tienluong/workspace/atlantis_fw/AsicFwS2/include/calibclasses.h **** 
  46:/home/tienluong/workspace/atlantis_fw/AsicFwS2/include/calibclasses.h **** struct MirrorActuatorMapping {
  47:/home/tienluong/workspace/atlantis_fw/AsicFwS2/include/calibclasses.h ****     float actuator_length_offset;
  48:/home/tienluong/workspace/atlantis_fw/AsicFwS2/include/calibclasses.h ****     float actuator_length_scale;
  49:/home/tienluong/workspace/atlantis_fw/AsicFwS2/include/calibclasses.h ****     float mirror_angle_offset;
  50:/home/tienluong/workspace/atlantis_fw/AsicFwS2/include/calibclasses.h ****     float mirror_angle_scale;
  51:/home/tienluong/workspace/atlantis_fw/AsicFwS2/include/calibclasses.h ****     float a; // param 3, discard first 3. ( 001)
  52:/home/tienluong/workspace/atlantis_fw/AsicFwS2/include/calibclasses.h ****     float b;
  53:/home/tienluong/workspace/atlantis_fw/AsicFwS2/include/calibclasses.h ****     float c;
  54:/home/tienluong/workspace/atlantis_fw/AsicFwS2/include/calibclasses.h ****     bool branch_left;
  55:/home/tienluong/workspace/atlantis_fw/AsicFwS2/include/calibclasses.h ****     // //default:
  56:/home/tienluong/workspace/atlantis_fw/AsicFwS2/include/calibclasses.h ****     // MirrorActuatorMapping():
  57:/home/tienluong/workspace/atlantis_fw/AsicFwS2/include/calibclasses.h ****     //     actuator_length_offset(0),
  58:/home/tienluong/workspace/atlantis_fw/AsicFwS2/include/calibclasses.h ****     //     actuator_length_scale(0),
  59:/home/tienluong/workspace/atlantis_fw/AsicFwS2/include/calibclasses.h ****     //     mirror_angle_offset(0),
  60:/home/tienluong/workspace/atlantis_fw/AsicFwS2/include/calibclasses.h ****     //     mirror_angle_scale(0),
  61:/home/tienluong/workspace/atlantis_fw/AsicFwS2/include/calibclasses.h ****     //     a(0),
  62:/home/tienluong/workspace/atlantis_fw/AsicFwS2/include/calibclasses.h ****     //     b(0),
  63:/home/tienluong/workspace/atlantis_fw/AsicFwS2/include/calibclasses.h ****     //     c(0),
  64:/home/tienluong/workspace/atlantis_fw/AsicFwS2/include/calibclasses.h ****     //     branch_left(true)
  65:/home/tienluong/workspace/atlantis_fw/AsicFwS2/include/calibclasses.h ****     // {}
  66:/home/tienluong/workspace/atlantis_fw/AsicFwS2/include/calibclasses.h **** };
  67:/home/tienluong/workspace/atlantis_fw/AsicFwS2/include/calibclasses.h **** 
  68:/home/tienluong/workspace/atlantis_fw/AsicFwS2/include/calibclasses.h **** // -------------------------------------------------------
  69:/home/tienluong/workspace/atlantis_fw/AsicFwS2/include/calibclasses.h **** //			calibdata
  70:/home/tienluong/workspace/atlantis_fw/AsicFwS2/include/calibclasses.h **** // -------------------------------------------------------
  71:/home/tienluong/workspace/atlantis_fw/AsicFwS2/include/calibclasses.h **** class CalibDataBase{
  72:/home/tienluong/workspace/atlantis_fw/AsicFwS2/include/calibclasses.h **** public:
  73:/home/tienluong/workspace/atlantis_fw/AsicFwS2/include/calibclasses.h ****     CalibDataBase():
  74:/home/tienluong/workspace/atlantis_fw/AsicFwS2/include/calibclasses.h ****         _K(Matrix3x3f::Identity()){}
  75:/home/tienluong/workspace/atlantis_fw/AsicFwS2/include/calibclasses.h **** 
  76:/home/tienluong/workspace/atlantis_fw/AsicFwS2/include/calibclasses.h ****     CalibDataBase(const Matrix3x3f & k):
  77:/home/tienluong/workspace/atlantis_fw/AsicFwS2/include/calibclasses.h ****         _K(k) {}
  78:/home/tienluong/workspace/atlantis_fw/AsicFwS2/include/calibclasses.h **** 
  79:/home/tienluong/workspace/atlantis_fw/AsicFwS2/include/calibclasses.h ****     virtual ~CalibDataBase() {}
  80:/home/tienluong/workspace/atlantis_fw/AsicFwS2/include/calibclasses.h **** 
  81:/home/tienluong/workspace/atlantis_fw/AsicFwS2/include/calibclasses.h ****     const Matrix3x3f & K() const { return _K;}
  82:/home/tienluong/workspace/atlantis_fw/AsicFwS2/include/calibclasses.h **** protected:
  83:/home/tienluong/workspace/atlantis_fw/AsicFwS2/include/calibclasses.h ****     Matrix3x3f _K;
  84:/home/tienluong/workspace/atlantis_fw/AsicFwS2/include/calibclasses.h **** };
  85:/home/tienluong/workspace/atlantis_fw/AsicFwS2/include/calibclasses.h **** 
  86:/home/tienluong/workspace/atlantis_fw/AsicFwS2/include/calibclasses.h **** class CalibData : public CalibDataBase
  87:/home/tienluong/workspace/atlantis_fw/AsicFwS2/include/calibclasses.h **** {
  88:/home/tienluong/workspace/atlantis_fw/AsicFwS2/include/calibclasses.h **** public:
  89:/home/tienluong/workspace/atlantis_fw/AsicFwS2/include/calibclasses.h ****     CalibData()
  90:/home/tienluong/workspace/atlantis_fw/AsicFwS2/include/calibclasses.h ****         : CalibDataBase()
  91:/home/tienluong/workspace/atlantis_fw/AsicFwS2/include/calibclasses.h ****         , _T( {0.0, 0.0, 0.0} )
  92:/home/tienluong/workspace/atlantis_fw/AsicFwS2/include/calibclasses.h ****     	, _R( Matrix3x3f::Identity() ) {}
  93:/home/tienluong/workspace/atlantis_fw/AsicFwS2/include/calibclasses.h **** 
  94:/home/tienluong/workspace/atlantis_fw/AsicFwS2/include/calibclasses.h ****     CalibData(const Matrix3x3f & k,
  95:/home/tienluong/workspace/atlantis_fw/AsicFwS2/include/calibclasses.h ****     		  const Matrix3x3f & r,
  96:/home/tienluong/workspace/atlantis_fw/AsicFwS2/include/calibclasses.h ****     		  const Vec3f	   & t)
  97:/home/tienluong/workspace/atlantis_fw/AsicFwS2/include/calibclasses.h ****         : CalibDataBase( k )
  98:/home/tienluong/workspace/atlantis_fw/AsicFwS2/include/calibclasses.h ****         , _T( t )
  99:/home/tienluong/workspace/atlantis_fw/AsicFwS2/include/calibclasses.h ****     	, _R( r ) {}
 100:/home/tienluong/workspace/atlantis_fw/AsicFwS2/include/calibclasses.h **** 
 101:/home/tienluong/workspace/atlantis_fw/AsicFwS2/include/calibclasses.h **** //    const Matrix3x3f & K() const { return _K;}
 102:/home/tienluong/workspace/atlantis_fw/AsicFwS2/include/calibclasses.h **** 
 103:/home/tienluong/workspace/atlantis_fw/AsicFwS2/include/calibclasses.h ****     const Vec3f & translation() const {return _T;}
 104:/home/tienluong/workspace/atlantis_fw/AsicFwS2/include/calibclasses.h **** 
 105:/home/tienluong/workspace/atlantis_fw/AsicFwS2/include/calibclasses.h ****     const Matrix3x3f & R() const {return _R;}
 106:/home/tienluong/workspace/atlantis_fw/AsicFwS2/include/calibclasses.h **** 
 107:/home/tienluong/workspace/atlantis_fw/AsicFwS2/include/calibclasses.h ****     void setCameraParameters( const Matrix3x3f & K,
 108:/home/tienluong/workspace/atlantis_fw/AsicFwS2/include/calibclasses.h ****                               const Matrix3x3f & R,
 109:/home/tienluong/workspace/atlantis_fw/AsicFwS2/include/calibclasses.h ****                               const Vec3f    &   translation );
 110:/home/tienluong/workspace/atlantis_fw/AsicFwS2/include/calibclasses.h **** 
 111:/home/tienluong/workspace/atlantis_fw/AsicFwS2/include/calibclasses.h ****     /// Scale the camera (e.g. reduce the pixel size) by
 112:/home/tienluong/workspace/atlantis_fw/AsicFwS2/include/calibclasses.h ****     /// adjusting the corresponding intrinsic matrix
 113:/home/tienluong/workspace/atlantis_fw/AsicFwS2/include/calibclasses.h ****     void scale( float s );
 114:/home/tienluong/workspace/atlantis_fw/AsicFwS2/include/calibclasses.h **** 
 115:/home/tienluong/workspace/atlantis_fw/AsicFwS2/include/calibclasses.h ****     /// Shift the camera parallel to the sensor plane.
 116:/home/tienluong/workspace/atlantis_fw/AsicFwS2/include/calibclasses.h ****     void shift( int delta_x, int delta_y );
 117:/home/tienluong/workspace/atlantis_fw/AsicFwS2/include/calibclasses.h **** 
 118:/home/tienluong/workspace/atlantis_fw/AsicFwS2/include/calibclasses.h **** protected:
 119:/home/tienluong/workspace/atlantis_fw/AsicFwS2/include/calibclasses.h ****     //Matrix3x3f  _K;                  /// Intrinsic matrix and its precomputed inversion.
 120:/home/tienluong/workspace/atlantis_fw/AsicFwS2/include/calibclasses.h ****     Vec3f       _T;                  /// Translation
 121:/home/tienluong/workspace/atlantis_fw/AsicFwS2/include/calibclasses.h ****     Matrix3x3f  _R;                  /// Rotation matrix
 122:/home/tienluong/workspace/atlantis_fw/AsicFwS2/include/calibclasses.h **** };
 123:/home/tienluong/workspace/atlantis_fw/AsicFwS2/include/calibclasses.h **** 
 124:/home/tienluong/workspace/atlantis_fw/AsicFwS2/include/calibclasses.h **** class CalibDataWMirror : public CalibDataBase 
 125:/home/tienluong/workspace/atlantis_fw/AsicFwS2/include/calibclasses.h **** {
 126:/home/tienluong/workspace/atlantis_fw/AsicFwS2/include/calibclasses.h **** public:
 127:/home/tienluong/workspace/atlantis_fw/AsicFwS2/include/calibclasses.h ****     // default constructor
 128:/home/tienluong/workspace/atlantis_fw/AsicFwS2/include/calibclasses.h ****     CalibDataWMirror(){}
 129:/home/tienluong/workspace/atlantis_fw/AsicFwS2/include/calibclasses.h **** 
 130:/home/tienluong/workspace/atlantis_fw/AsicFwS2/include/calibclasses.h ****     CalibDataWMirror(const Matrix3x3f & k,
 131:/home/tienluong/workspace/atlantis_fw/AsicFwS2/include/calibclasses.h ****                      const MirrorSysParam & msp,
 132:/home/tienluong/workspace/atlantis_fw/AsicFwS2/include/calibclasses.h ****                      const MirrorActuatorMapping & map):
 133:/home/tienluong/workspace/atlantis_fw/AsicFwS2/include/calibclasses.h ****         CalibDataBase(k),
 134:/home/tienluong/workspace/atlantis_fw/AsicFwS2/include/calibclasses.h ****         _mirror_sys_param(msp),
 135:/home/tienluong/workspace/atlantis_fw/AsicFwS2/include/calibclasses.h ****         _mirror_act_mapping(map)
 136:/home/tienluong/workspace/atlantis_fw/AsicFwS2/include/calibclasses.h ****     {}
 137:/home/tienluong/workspace/atlantis_fw/AsicFwS2/include/calibclasses.h **** 
 138:/home/tienluong/workspace/atlantis_fw/AsicFwS2/include/calibclasses.h ****     const MirrorSysParam & mirror_sys_param() const             {return _mirror_sys_param;}
 139:/home/tienluong/workspace/atlantis_fw/AsicFwS2/include/calibclasses.h ****     const MirrorActuatorMapping & mirror_act_mapping() const    {return _mirror_act_mapping;}
 140:/home/tienluong/workspace/atlantis_fw/AsicFwS2/include/calibclasses.h **** 
 141:/home/tienluong/workspace/atlantis_fw/AsicFwS2/include/calibclasses.h **** private:
 142:/home/tienluong/workspace/atlantis_fw/AsicFwS2/include/calibclasses.h ****     MirrorSysParam _mirror_sys_param;
 143:/home/tienluong/workspace/atlantis_fw/AsicFwS2/include/calibclasses.h ****     MirrorActuatorMapping _mirror_act_mapping;
 144:/home/tienluong/workspace/atlantis_fw/AsicFwS2/include/calibclasses.h **** };
 145:/home/tienluong/workspace/atlantis_fw/AsicFwS2/include/calibclasses.h **** 
 146:/home/tienluong/workspace/atlantis_fw/AsicFwS2/include/calibclasses.h **** 
 147:/home/tienluong/workspace/atlantis_fw/AsicFwS2/include/calibclasses.h **** // ----------------------------------------------
 148:/home/tienluong/workspace/atlantis_fw/AsicFwS2/include/calibclasses.h **** // epifield
 149:/home/tienluong/workspace/atlantis_fw/AsicFwS2/include/calibclasses.h **** // ----------------------------------------------
 150:/home/tienluong/workspace/atlantis_fw/AsicFwS2/include/calibclasses.h **** class EpiField
 151:/home/tienluong/workspace/atlantis_fw/AsicFwS2/include/calibclasses.h **** {
 152:/home/tienluong/workspace/atlantis_fw/AsicFwS2/include/calibclasses.h **** public:
 153:/home/tienluong/workspace/atlantis_fw/AsicFwS2/include/calibclasses.h ****     EpiField(): _F( Matrix3x3f::Identity() ) {}
 154:/home/tienluong/workspace/atlantis_fw/AsicFwS2/include/calibclasses.h **** 
 155:/home/tienluong/workspace/atlantis_fw/AsicFwS2/include/calibclasses.h ****     EpiField( const CalibData & ref, const CalibData & src );
 156:/home/tienluong/workspace/atlantis_fw/AsicFwS2/include/calibclasses.h **** 
 157:/home/tienluong/workspace/atlantis_fw/AsicFwS2/include/calibclasses.h ****     void setup( const CalibData & ref, const CalibData & src );
 158:/home/tienluong/workspace/atlantis_fw/AsicFwS2/include/calibclasses.h **** 
 159:/home/tienluong/workspace/atlantis_fw/AsicFwS2/include/calibclasses.h ****     inline Line2f operator()( float x, float y ) const { return Line2f( _F * Vec3f( x, y, 1.0f ) );
 160:/home/tienluong/workspace/atlantis_fw/AsicFwS2/include/calibclasses.h **** 
 161:/home/tienluong/workspace/atlantis_fw/AsicFwS2/include/calibclasses.h ****     Matrix3x3f getF() const {return _F;}
 162:/home/tienluong/workspace/atlantis_fw/AsicFwS2/include/calibclasses.h **** 
 163:/home/tienluong/workspace/atlantis_fw/AsicFwS2/include/calibclasses.h **** private:
 164:/home/tienluong/workspace/atlantis_fw/AsicFwS2/include/calibclasses.h ****     Matrix3x3f _F; // fundamental matrix;
 165:/home/tienluong/workspace/atlantis_fw/AsicFwS2/include/calibclasses.h **** };
 166:/home/tienluong/workspace/atlantis_fw/AsicFwS2/include/calibclasses.h **** 
 167:/home/tienluong/workspace/atlantis_fw/AsicFwS2/include/calibclasses.h **** // ----------------------------------------------
 168:/home/tienluong/workspace/atlantis_fw/AsicFwS2/include/calibclasses.h **** // warpfield
 169:/home/tienluong/workspace/atlantis_fw/AsicFwS2/include/calibclasses.h **** // ----------------------------------------------
 170:/home/tienluong/workspace/atlantis_fw/AsicFwS2/include/calibclasses.h **** class WarpField
 171:/home/tienluong/workspace/atlantis_fw/AsicFwS2/include/calibclasses.h **** {
 172:/home/tienluong/workspace/atlantis_fw/AsicFwS2/include/calibclasses.h **** 
 173:/home/tienluong/workspace/atlantis_fw/AsicFwS2/include/calibclasses.h **** public:
 174:/home/tienluong/workspace/atlantis_fw/AsicFwS2/include/calibclasses.h ****     WarpField( void ) : _mat( Matrix4x4f::Identity() ) {}
 175:/home/tienluong/workspace/atlantis_fw/AsicFwS2/include/calibclasses.h **** 
 176:/home/tienluong/workspace/atlantis_fw/AsicFwS2/include/calibclasses.h ****     WarpField( const CalibData & ref,
 177:/home/tienluong/workspace/atlantis_fw/AsicFwS2/include/calibclasses.h ****                const CalibData & src );
 178:/home/tienluong/workspace/atlantis_fw/AsicFwS2/include/calibclasses.h **** 
 179:/home/tienluong/workspace/atlantis_fw/AsicFwS2/include/calibclasses.h ****     /// 3D projection from (x,y,z) to (x',y',z')
 180:/home/tienluong/workspace/atlantis_fw/AsicFwS2/include/calibclasses.h ****     Vec3f project3D( float x, float y, float depth ) const ;
 181:/home/tienluong/workspace/atlantis_fw/AsicFwS2/include/calibclasses.h **** 
 182:/home/tienluong/workspace/atlantis_fw/AsicFwS2/include/calibclasses.h ****     Vec3f project3D( const Vec3f& in ) const
 183:/home/tienluong/workspace/atlantis_fw/AsicFwS2/include/calibclasses.h ****     {
 184:/home/tienluong/workspace/atlantis_fw/AsicFwS2/include/calibclasses.h ****         return project3D(in.x(), in.y(), in.z());
 185:/home/tienluong/workspace/atlantis_fw/AsicFwS2/include/calibclasses.h ****     }
 186:/home/tienluong/workspace/atlantis_fw/AsicFwS2/include/calibclasses.h **** 
 187:/home/tienluong/workspace/atlantis_fw/AsicFwS2/include/calibclasses.h **** private:
 188:/home/tienluong/workspace/atlantis_fw/AsicFwS2/include/calibclasses.h ****     Matrix4x4f _mat;
 189:/home/tienluong/workspace/atlantis_fw/AsicFwS2/include/calibclasses.h **** };
 190:/home/tienluong/workspace/atlantis_fw/AsicFwS2/include/calibclasses.h **** 
 191:/home/tienluong/workspace/atlantis_fw/AsicFwS2/include/calibclasses.h **** class CalibUtils{
 192:/home/tienluong/workspace/atlantis_fw/AsicFwS2/include/calibclasses.h **** 
 193:/home/tienluong/workspace/atlantis_fw/AsicFwS2/include/calibclasses.h **** // compute depth given point to point correspondence
 194:/home/tienluong/workspace/atlantis_fw/AsicFwS2/include/calibclasses.h **** public:
 195:/home/tienluong/workspace/atlantis_fw/AsicFwS2/include/calibclasses.h ****     static float depthGivenCorrespondence( const EpiField & epf,
 196:/home/tienluong/workspace/atlantis_fw/AsicFwS2/include/calibclasses.h ****                                        const CalibData & ref, const CalibData & src,
 197:/home/tienluong/workspace/atlantis_fw/AsicFwS2/include/calibclasses.h ****                                        float x, float y,
 198:/home/tienluong/workspace/atlantis_fw/AsicFwS2/include/calibclasses.h ****                                        float x_src, float y_src );
 199:/home/tienluong/workspace/atlantis_fw/AsicFwS2/include/calibclasses.h ****     // compute depth given point to point correspondence
 200:/home/tienluong/workspace/atlantis_fw/AsicFwS2/include/calibclasses.h ****     static float depthGivenCorrespondence( const CalibData & ref,
 201:/home/tienluong/workspace/atlantis_fw/AsicFwS2/include/calibclasses.h ****                                            const CalibData & src,
 202:/home/tienluong/workspace/atlantis_fw/AsicFwS2/include/calibclasses.h ****                                            float x, float y,
 203:/home/tienluong/workspace/atlantis_fw/AsicFwS2/include/calibclasses.h ****                                            float x_src, float y_src );
 204:/home/tienluong/workspace/atlantis_fw/AsicFwS2/include/calibclasses.h **** 
 205:/home/tienluong/workspace/atlantis_fw/AsicFwS2/include/calibclasses.h **** };
 206:/home/tienluong/workspace/atlantis_fw/AsicFwS2/include/calibclasses.h **** 
 207:/home/tienluong/workspace/atlantis_fw/AsicFwS2/include/calibclasses.h **** 
 208:/home/tienluong/workspace/atlantis_fw/AsicFwS2/include/calibclasses.h **** // stores and manages calib data. do not do any computation or funcationality
 209:/home/tienluong/workspace/atlantis_fw/AsicFwS2/include/calibclasses.h **** class CalibDataManager {
 594              		.loc 4 209 0
 595              		.cfi_startproc
 596              		@ args = 0, pretend = 0, frame = 0
 597              		@ frame_needed = 0, uses_anonymous_args = 0
 598              	.LVL55:
 599 0000 38B5     		push	{r3, r4, r5, lr}
 600              	.LCFI10:
 601              		.cfi_def_cfa_offset 16
 602              		.cfi_offset 3, -16
 603              		.cfi_offset 4, -12
 604              		.cfi_offset 5, -8
 605              		.cfi_offset 14, -4
 606              	.LBB570:
 607              		.loc 4 209 0
 608 0002 0446     		mov	r4, r0
 609 0004 50B1     		cbz	r0, .L37
 610              		.loc 4 209 0 is_stmt 0 discriminator 1
 611 0006 00F14005 		add	r5, r0, #64
 612              	.LVL56:
 613              	.L39:
 614              		.loc 4 209 0 discriminator 6
 615 000a A542     		cmp	r5, r4
 616 000c 06D0     		beq	.L37
 617              	.LVL57:
 618              	.LBB571:
 619              	.LBB572:
  77:/opt/toolchains/gcc-arm-none-eabi-4_9-2015q1/arm-none-eabi/include/c++/4.9.3/bits/unique_ptr.h ****       }
  78:/opt/toolchains/gcc-arm-none-eabi-4_9-2015q1/arm-none-eabi/include/c++/4.9.3/bits/unique_ptr.h ****     };
  79:/opt/toolchains/gcc-arm-none-eabi-4_9-2015q1/arm-none-eabi/include/c++/4.9.3/bits/unique_ptr.h **** 
  80:/opt/toolchains/gcc-arm-none-eabi-4_9-2015q1/arm-none-eabi/include/c++/4.9.3/bits/unique_ptr.h ****   // _GLIBCXX_RESOLVE_LIB_DEFECTS
  81:/opt/toolchains/gcc-arm-none-eabi-4_9-2015q1/arm-none-eabi/include/c++/4.9.3/bits/unique_ptr.h ****   // DR 740 - omit specialization for array objects with a compile time length
  82:/opt/toolchains/gcc-arm-none-eabi-4_9-2015q1/arm-none-eabi/include/c++/4.9.3/bits/unique_ptr.h ****   /// Specialization for arrays, default_delete.
  83:/opt/toolchains/gcc-arm-none-eabi-4_9-2015q1/arm-none-eabi/include/c++/4.9.3/bits/unique_ptr.h ****   template<typename _Tp>
  84:/opt/toolchains/gcc-arm-none-eabi-4_9-2015q1/arm-none-eabi/include/c++/4.9.3/bits/unique_ptr.h ****     struct default_delete<_Tp[]>
  85:/opt/toolchains/gcc-arm-none-eabi-4_9-2015q1/arm-none-eabi/include/c++/4.9.3/bits/unique_ptr.h ****     {
  86:/opt/toolchains/gcc-arm-none-eabi-4_9-2015q1/arm-none-eabi/include/c++/4.9.3/bits/unique_ptr.h ****     private:
  87:/opt/toolchains/gcc-arm-none-eabi-4_9-2015q1/arm-none-eabi/include/c++/4.9.3/bits/unique_ptr.h ****       template<typename _Up>
  88:/opt/toolchains/gcc-arm-none-eabi-4_9-2015q1/arm-none-eabi/include/c++/4.9.3/bits/unique_ptr.h **** 	using __remove_cv = typename remove_cv<_Up>::type;
  89:/opt/toolchains/gcc-arm-none-eabi-4_9-2015q1/arm-none-eabi/include/c++/4.9.3/bits/unique_ptr.h **** 
  90:/opt/toolchains/gcc-arm-none-eabi-4_9-2015q1/arm-none-eabi/include/c++/4.9.3/bits/unique_ptr.h ****       // Like is_base_of<_Tp, _Up> but false if unqualified types are the same
  91:/opt/toolchains/gcc-arm-none-eabi-4_9-2015q1/arm-none-eabi/include/c++/4.9.3/bits/unique_ptr.h ****       template<typename _Up>
  92:/opt/toolchains/gcc-arm-none-eabi-4_9-2015q1/arm-none-eabi/include/c++/4.9.3/bits/unique_ptr.h **** 	using __is_derived_Tp
  93:/opt/toolchains/gcc-arm-none-eabi-4_9-2015q1/arm-none-eabi/include/c++/4.9.3/bits/unique_ptr.h **** 	  = __and_< is_base_of<_Tp, _Up>,
  94:/opt/toolchains/gcc-arm-none-eabi-4_9-2015q1/arm-none-eabi/include/c++/4.9.3/bits/unique_ptr.h **** 		    __not_<is_same<__remove_cv<_Tp>, __remove_cv<_Up>>> >;
  95:/opt/toolchains/gcc-arm-none-eabi-4_9-2015q1/arm-none-eabi/include/c++/4.9.3/bits/unique_ptr.h **** 
  96:/opt/toolchains/gcc-arm-none-eabi-4_9-2015q1/arm-none-eabi/include/c++/4.9.3/bits/unique_ptr.h ****     public:
  97:/opt/toolchains/gcc-arm-none-eabi-4_9-2015q1/arm-none-eabi/include/c++/4.9.3/bits/unique_ptr.h ****       /// Default constructor
  98:/opt/toolchains/gcc-arm-none-eabi-4_9-2015q1/arm-none-eabi/include/c++/4.9.3/bits/unique_ptr.h ****       constexpr default_delete() noexcept = default;
  99:/opt/toolchains/gcc-arm-none-eabi-4_9-2015q1/arm-none-eabi/include/c++/4.9.3/bits/unique_ptr.h **** 
 100:/opt/toolchains/gcc-arm-none-eabi-4_9-2015q1/arm-none-eabi/include/c++/4.9.3/bits/unique_ptr.h ****       /** @brief Converting constructor.
 101:/opt/toolchains/gcc-arm-none-eabi-4_9-2015q1/arm-none-eabi/include/c++/4.9.3/bits/unique_ptr.h ****        *
 102:/opt/toolchains/gcc-arm-none-eabi-4_9-2015q1/arm-none-eabi/include/c++/4.9.3/bits/unique_ptr.h ****        * Allows conversion from a deleter for arrays of another type, such as
 103:/opt/toolchains/gcc-arm-none-eabi-4_9-2015q1/arm-none-eabi/include/c++/4.9.3/bits/unique_ptr.h ****        * a const-qualified version of @p _Tp.
 104:/opt/toolchains/gcc-arm-none-eabi-4_9-2015q1/arm-none-eabi/include/c++/4.9.3/bits/unique_ptr.h ****        *
 105:/opt/toolchains/gcc-arm-none-eabi-4_9-2015q1/arm-none-eabi/include/c++/4.9.3/bits/unique_ptr.h ****        * Conversions from types derived from @c _Tp are not allowed because
 106:/opt/toolchains/gcc-arm-none-eabi-4_9-2015q1/arm-none-eabi/include/c++/4.9.3/bits/unique_ptr.h ****        * it is unsafe to @c delete[] an array of derived types through a
 107:/opt/toolchains/gcc-arm-none-eabi-4_9-2015q1/arm-none-eabi/include/c++/4.9.3/bits/unique_ptr.h ****        * pointer to the base type.
 108:/opt/toolchains/gcc-arm-none-eabi-4_9-2015q1/arm-none-eabi/include/c++/4.9.3/bits/unique_ptr.h ****        */
 109:/opt/toolchains/gcc-arm-none-eabi-4_9-2015q1/arm-none-eabi/include/c++/4.9.3/bits/unique_ptr.h ****       template<typename _Up, typename = typename
 110:/opt/toolchains/gcc-arm-none-eabi-4_9-2015q1/arm-none-eabi/include/c++/4.9.3/bits/unique_ptr.h **** 	       enable_if<!__is_derived_Tp<_Up>::value>::type>
 111:/opt/toolchains/gcc-arm-none-eabi-4_9-2015q1/arm-none-eabi/include/c++/4.9.3/bits/unique_ptr.h ****         default_delete(const default_delete<_Up[]>&) noexcept { }
 112:/opt/toolchains/gcc-arm-none-eabi-4_9-2015q1/arm-none-eabi/include/c++/4.9.3/bits/unique_ptr.h **** 
 113:/opt/toolchains/gcc-arm-none-eabi-4_9-2015q1/arm-none-eabi/include/c++/4.9.3/bits/unique_ptr.h ****       /// Calls @c delete[] @p __ptr
 114:/opt/toolchains/gcc-arm-none-eabi-4_9-2015q1/arm-none-eabi/include/c++/4.9.3/bits/unique_ptr.h ****       void
 115:/opt/toolchains/gcc-arm-none-eabi-4_9-2015q1/arm-none-eabi/include/c++/4.9.3/bits/unique_ptr.h ****       operator()(_Tp* __ptr) const
 116:/opt/toolchains/gcc-arm-none-eabi-4_9-2015q1/arm-none-eabi/include/c++/4.9.3/bits/unique_ptr.h ****       {
 117:/opt/toolchains/gcc-arm-none-eabi-4_9-2015q1/arm-none-eabi/include/c++/4.9.3/bits/unique_ptr.h **** 	static_assert(sizeof(_Tp)>0,
 118:/opt/toolchains/gcc-arm-none-eabi-4_9-2015q1/arm-none-eabi/include/c++/4.9.3/bits/unique_ptr.h **** 		      "can't delete pointer to incomplete type");
 119:/opt/toolchains/gcc-arm-none-eabi-4_9-2015q1/arm-none-eabi/include/c++/4.9.3/bits/unique_ptr.h **** 	delete [] __ptr;
 120:/opt/toolchains/gcc-arm-none-eabi-4_9-2015q1/arm-none-eabi/include/c++/4.9.3/bits/unique_ptr.h ****       }
 121:/opt/toolchains/gcc-arm-none-eabi-4_9-2015q1/arm-none-eabi/include/c++/4.9.3/bits/unique_ptr.h **** 
 122:/opt/toolchains/gcc-arm-none-eabi-4_9-2015q1/arm-none-eabi/include/c++/4.9.3/bits/unique_ptr.h ****       template<typename _Up>
 123:/opt/toolchains/gcc-arm-none-eabi-4_9-2015q1/arm-none-eabi/include/c++/4.9.3/bits/unique_ptr.h **** 	typename enable_if<__is_derived_Tp<_Up>::value>::type
 124:/opt/toolchains/gcc-arm-none-eabi-4_9-2015q1/arm-none-eabi/include/c++/4.9.3/bits/unique_ptr.h **** 	operator()(_Up*) const = delete;
 125:/opt/toolchains/gcc-arm-none-eabi-4_9-2015q1/arm-none-eabi/include/c++/4.9.3/bits/unique_ptr.h ****     };
 126:/opt/toolchains/gcc-arm-none-eabi-4_9-2015q1/arm-none-eabi/include/c++/4.9.3/bits/unique_ptr.h **** 
 127:/opt/toolchains/gcc-arm-none-eabi-4_9-2015q1/arm-none-eabi/include/c++/4.9.3/bits/unique_ptr.h ****   /// 20.7.1.2 unique_ptr for single objects.
 128:/opt/toolchains/gcc-arm-none-eabi-4_9-2015q1/arm-none-eabi/include/c++/4.9.3/bits/unique_ptr.h ****   template <typename _Tp, typename _Dp = default_delete<_Tp> >
 129:/opt/toolchains/gcc-arm-none-eabi-4_9-2015q1/arm-none-eabi/include/c++/4.9.3/bits/unique_ptr.h ****     class unique_ptr
 130:/opt/toolchains/gcc-arm-none-eabi-4_9-2015q1/arm-none-eabi/include/c++/4.9.3/bits/unique_ptr.h ****     {
 131:/opt/toolchains/gcc-arm-none-eabi-4_9-2015q1/arm-none-eabi/include/c++/4.9.3/bits/unique_ptr.h ****       // use SFINAE to determine whether _Del::pointer exists
 132:/opt/toolchains/gcc-arm-none-eabi-4_9-2015q1/arm-none-eabi/include/c++/4.9.3/bits/unique_ptr.h ****       class _Pointer
 133:/opt/toolchains/gcc-arm-none-eabi-4_9-2015q1/arm-none-eabi/include/c++/4.9.3/bits/unique_ptr.h ****       {
 134:/opt/toolchains/gcc-arm-none-eabi-4_9-2015q1/arm-none-eabi/include/c++/4.9.3/bits/unique_ptr.h **** 	template<typename _Up>
 135:/opt/toolchains/gcc-arm-none-eabi-4_9-2015q1/arm-none-eabi/include/c++/4.9.3/bits/unique_ptr.h **** 	  static typename _Up::pointer __test(typename _Up::pointer*);
 136:/opt/toolchains/gcc-arm-none-eabi-4_9-2015q1/arm-none-eabi/include/c++/4.9.3/bits/unique_ptr.h **** 
 137:/opt/toolchains/gcc-arm-none-eabi-4_9-2015q1/arm-none-eabi/include/c++/4.9.3/bits/unique_ptr.h **** 	template<typename _Up>
 138:/opt/toolchains/gcc-arm-none-eabi-4_9-2015q1/arm-none-eabi/include/c++/4.9.3/bits/unique_ptr.h **** 	  static _Tp* __test(...);
 139:/opt/toolchains/gcc-arm-none-eabi-4_9-2015q1/arm-none-eabi/include/c++/4.9.3/bits/unique_ptr.h **** 
 140:/opt/toolchains/gcc-arm-none-eabi-4_9-2015q1/arm-none-eabi/include/c++/4.9.3/bits/unique_ptr.h **** 	typedef typename remove_reference<_Dp>::type _Del;
 141:/opt/toolchains/gcc-arm-none-eabi-4_9-2015q1/arm-none-eabi/include/c++/4.9.3/bits/unique_ptr.h **** 
 142:/opt/toolchains/gcc-arm-none-eabi-4_9-2015q1/arm-none-eabi/include/c++/4.9.3/bits/unique_ptr.h ****       public:
 143:/opt/toolchains/gcc-arm-none-eabi-4_9-2015q1/arm-none-eabi/include/c++/4.9.3/bits/unique_ptr.h **** 	typedef decltype(__test<_Del>(0)) type;
 144:/opt/toolchains/gcc-arm-none-eabi-4_9-2015q1/arm-none-eabi/include/c++/4.9.3/bits/unique_ptr.h ****       };
 145:/opt/toolchains/gcc-arm-none-eabi-4_9-2015q1/arm-none-eabi/include/c++/4.9.3/bits/unique_ptr.h **** 
 146:/opt/toolchains/gcc-arm-none-eabi-4_9-2015q1/arm-none-eabi/include/c++/4.9.3/bits/unique_ptr.h ****       typedef std::tuple<typename _Pointer::type, _Dp>  __tuple_type;
 147:/opt/toolchains/gcc-arm-none-eabi-4_9-2015q1/arm-none-eabi/include/c++/4.9.3/bits/unique_ptr.h ****       __tuple_type                                      _M_t;
 148:/opt/toolchains/gcc-arm-none-eabi-4_9-2015q1/arm-none-eabi/include/c++/4.9.3/bits/unique_ptr.h **** 
 149:/opt/toolchains/gcc-arm-none-eabi-4_9-2015q1/arm-none-eabi/include/c++/4.9.3/bits/unique_ptr.h ****     public:
 150:/opt/toolchains/gcc-arm-none-eabi-4_9-2015q1/arm-none-eabi/include/c++/4.9.3/bits/unique_ptr.h ****       typedef typename _Pointer::type   pointer;
 151:/opt/toolchains/gcc-arm-none-eabi-4_9-2015q1/arm-none-eabi/include/c++/4.9.3/bits/unique_ptr.h ****       typedef _Tp                       element_type;
 152:/opt/toolchains/gcc-arm-none-eabi-4_9-2015q1/arm-none-eabi/include/c++/4.9.3/bits/unique_ptr.h ****       typedef _Dp                       deleter_type;
 153:/opt/toolchains/gcc-arm-none-eabi-4_9-2015q1/arm-none-eabi/include/c++/4.9.3/bits/unique_ptr.h **** 
 154:/opt/toolchains/gcc-arm-none-eabi-4_9-2015q1/arm-none-eabi/include/c++/4.9.3/bits/unique_ptr.h ****       // Constructors.
 155:/opt/toolchains/gcc-arm-none-eabi-4_9-2015q1/arm-none-eabi/include/c++/4.9.3/bits/unique_ptr.h **** 
 156:/opt/toolchains/gcc-arm-none-eabi-4_9-2015q1/arm-none-eabi/include/c++/4.9.3/bits/unique_ptr.h ****       /// Default constructor, creates a unique_ptr that owns nothing.
 157:/opt/toolchains/gcc-arm-none-eabi-4_9-2015q1/arm-none-eabi/include/c++/4.9.3/bits/unique_ptr.h ****       constexpr unique_ptr() noexcept
 158:/opt/toolchains/gcc-arm-none-eabi-4_9-2015q1/arm-none-eabi/include/c++/4.9.3/bits/unique_ptr.h ****       : _M_t()
 159:/opt/toolchains/gcc-arm-none-eabi-4_9-2015q1/arm-none-eabi/include/c++/4.9.3/bits/unique_ptr.h ****       { static_assert(!is_pointer<deleter_type>::value,
 160:/opt/toolchains/gcc-arm-none-eabi-4_9-2015q1/arm-none-eabi/include/c++/4.9.3/bits/unique_ptr.h **** 		     "constructed with null function pointer deleter"); }
 161:/opt/toolchains/gcc-arm-none-eabi-4_9-2015q1/arm-none-eabi/include/c++/4.9.3/bits/unique_ptr.h **** 
 162:/opt/toolchains/gcc-arm-none-eabi-4_9-2015q1/arm-none-eabi/include/c++/4.9.3/bits/unique_ptr.h ****       /** Takes ownership of a pointer.
 163:/opt/toolchains/gcc-arm-none-eabi-4_9-2015q1/arm-none-eabi/include/c++/4.9.3/bits/unique_ptr.h ****        *
 164:/opt/toolchains/gcc-arm-none-eabi-4_9-2015q1/arm-none-eabi/include/c++/4.9.3/bits/unique_ptr.h ****        * @param __p  A pointer to an object of @c element_type
 165:/opt/toolchains/gcc-arm-none-eabi-4_9-2015q1/arm-none-eabi/include/c++/4.9.3/bits/unique_ptr.h ****        *
 166:/opt/toolchains/gcc-arm-none-eabi-4_9-2015q1/arm-none-eabi/include/c++/4.9.3/bits/unique_ptr.h ****        * The deleter will be value-initialized.
 167:/opt/toolchains/gcc-arm-none-eabi-4_9-2015q1/arm-none-eabi/include/c++/4.9.3/bits/unique_ptr.h ****        */
 168:/opt/toolchains/gcc-arm-none-eabi-4_9-2015q1/arm-none-eabi/include/c++/4.9.3/bits/unique_ptr.h ****       explicit
 169:/opt/toolchains/gcc-arm-none-eabi-4_9-2015q1/arm-none-eabi/include/c++/4.9.3/bits/unique_ptr.h ****       unique_ptr(pointer __p) noexcept
 170:/opt/toolchains/gcc-arm-none-eabi-4_9-2015q1/arm-none-eabi/include/c++/4.9.3/bits/unique_ptr.h ****       : _M_t(__p, deleter_type())
 171:/opt/toolchains/gcc-arm-none-eabi-4_9-2015q1/arm-none-eabi/include/c++/4.9.3/bits/unique_ptr.h ****       { static_assert(!is_pointer<deleter_type>::value,
 172:/opt/toolchains/gcc-arm-none-eabi-4_9-2015q1/arm-none-eabi/include/c++/4.9.3/bits/unique_ptr.h **** 		     "constructed with null function pointer deleter"); }
 173:/opt/toolchains/gcc-arm-none-eabi-4_9-2015q1/arm-none-eabi/include/c++/4.9.3/bits/unique_ptr.h **** 
 174:/opt/toolchains/gcc-arm-none-eabi-4_9-2015q1/arm-none-eabi/include/c++/4.9.3/bits/unique_ptr.h ****       /** Takes ownership of a pointer.
 175:/opt/toolchains/gcc-arm-none-eabi-4_9-2015q1/arm-none-eabi/include/c++/4.9.3/bits/unique_ptr.h ****        *
 176:/opt/toolchains/gcc-arm-none-eabi-4_9-2015q1/arm-none-eabi/include/c++/4.9.3/bits/unique_ptr.h ****        * @param __p  A pointer to an object of @c element_type
 177:/opt/toolchains/gcc-arm-none-eabi-4_9-2015q1/arm-none-eabi/include/c++/4.9.3/bits/unique_ptr.h ****        * @param __d  A reference to a deleter.
 178:/opt/toolchains/gcc-arm-none-eabi-4_9-2015q1/arm-none-eabi/include/c++/4.9.3/bits/unique_ptr.h ****        *
 179:/opt/toolchains/gcc-arm-none-eabi-4_9-2015q1/arm-none-eabi/include/c++/4.9.3/bits/unique_ptr.h ****        * The deleter will be initialized with @p __d
 180:/opt/toolchains/gcc-arm-none-eabi-4_9-2015q1/arm-none-eabi/include/c++/4.9.3/bits/unique_ptr.h ****        */
 181:/opt/toolchains/gcc-arm-none-eabi-4_9-2015q1/arm-none-eabi/include/c++/4.9.3/bits/unique_ptr.h ****       unique_ptr(pointer __p,
 182:/opt/toolchains/gcc-arm-none-eabi-4_9-2015q1/arm-none-eabi/include/c++/4.9.3/bits/unique_ptr.h **** 	  typename conditional<is_reference<deleter_type>::value,
 183:/opt/toolchains/gcc-arm-none-eabi-4_9-2015q1/arm-none-eabi/include/c++/4.9.3/bits/unique_ptr.h **** 	    deleter_type, const deleter_type&>::type __d) noexcept
 184:/opt/toolchains/gcc-arm-none-eabi-4_9-2015q1/arm-none-eabi/include/c++/4.9.3/bits/unique_ptr.h ****       : _M_t(__p, __d) { }
 185:/opt/toolchains/gcc-arm-none-eabi-4_9-2015q1/arm-none-eabi/include/c++/4.9.3/bits/unique_ptr.h **** 
 186:/opt/toolchains/gcc-arm-none-eabi-4_9-2015q1/arm-none-eabi/include/c++/4.9.3/bits/unique_ptr.h ****       /** Takes ownership of a pointer.
 187:/opt/toolchains/gcc-arm-none-eabi-4_9-2015q1/arm-none-eabi/include/c++/4.9.3/bits/unique_ptr.h ****        *
 188:/opt/toolchains/gcc-arm-none-eabi-4_9-2015q1/arm-none-eabi/include/c++/4.9.3/bits/unique_ptr.h ****        * @param __p  A pointer to an object of @c element_type
 189:/opt/toolchains/gcc-arm-none-eabi-4_9-2015q1/arm-none-eabi/include/c++/4.9.3/bits/unique_ptr.h ****        * @param __d  An rvalue reference to a deleter.
 190:/opt/toolchains/gcc-arm-none-eabi-4_9-2015q1/arm-none-eabi/include/c++/4.9.3/bits/unique_ptr.h ****        *
 191:/opt/toolchains/gcc-arm-none-eabi-4_9-2015q1/arm-none-eabi/include/c++/4.9.3/bits/unique_ptr.h ****        * The deleter will be initialized with @p std::move(__d)
 192:/opt/toolchains/gcc-arm-none-eabi-4_9-2015q1/arm-none-eabi/include/c++/4.9.3/bits/unique_ptr.h ****        */
 193:/opt/toolchains/gcc-arm-none-eabi-4_9-2015q1/arm-none-eabi/include/c++/4.9.3/bits/unique_ptr.h ****       unique_ptr(pointer __p,
 194:/opt/toolchains/gcc-arm-none-eabi-4_9-2015q1/arm-none-eabi/include/c++/4.9.3/bits/unique_ptr.h **** 	  typename remove_reference<deleter_type>::type&& __d) noexcept
 195:/opt/toolchains/gcc-arm-none-eabi-4_9-2015q1/arm-none-eabi/include/c++/4.9.3/bits/unique_ptr.h ****       : _M_t(std::move(__p), std::move(__d))
 196:/opt/toolchains/gcc-arm-none-eabi-4_9-2015q1/arm-none-eabi/include/c++/4.9.3/bits/unique_ptr.h ****       { static_assert(!std::is_reference<deleter_type>::value,
 197:/opt/toolchains/gcc-arm-none-eabi-4_9-2015q1/arm-none-eabi/include/c++/4.9.3/bits/unique_ptr.h **** 		      "rvalue deleter bound to reference"); }
 198:/opt/toolchains/gcc-arm-none-eabi-4_9-2015q1/arm-none-eabi/include/c++/4.9.3/bits/unique_ptr.h **** 
 199:/opt/toolchains/gcc-arm-none-eabi-4_9-2015q1/arm-none-eabi/include/c++/4.9.3/bits/unique_ptr.h ****       /// Creates a unique_ptr that owns nothing.
 200:/opt/toolchains/gcc-arm-none-eabi-4_9-2015q1/arm-none-eabi/include/c++/4.9.3/bits/unique_ptr.h ****       constexpr unique_ptr(nullptr_t) noexcept : unique_ptr() { }
 201:/opt/toolchains/gcc-arm-none-eabi-4_9-2015q1/arm-none-eabi/include/c++/4.9.3/bits/unique_ptr.h **** 
 202:/opt/toolchains/gcc-arm-none-eabi-4_9-2015q1/arm-none-eabi/include/c++/4.9.3/bits/unique_ptr.h ****       // Move constructors.
 203:/opt/toolchains/gcc-arm-none-eabi-4_9-2015q1/arm-none-eabi/include/c++/4.9.3/bits/unique_ptr.h **** 
 204:/opt/toolchains/gcc-arm-none-eabi-4_9-2015q1/arm-none-eabi/include/c++/4.9.3/bits/unique_ptr.h ****       /// Move constructor.
 205:/opt/toolchains/gcc-arm-none-eabi-4_9-2015q1/arm-none-eabi/include/c++/4.9.3/bits/unique_ptr.h ****       unique_ptr(unique_ptr&& __u) noexcept
 206:/opt/toolchains/gcc-arm-none-eabi-4_9-2015q1/arm-none-eabi/include/c++/4.9.3/bits/unique_ptr.h ****       : _M_t(__u.release(), std::forward<deleter_type>(__u.get_deleter())) { }
 207:/opt/toolchains/gcc-arm-none-eabi-4_9-2015q1/arm-none-eabi/include/c++/4.9.3/bits/unique_ptr.h **** 
 208:/opt/toolchains/gcc-arm-none-eabi-4_9-2015q1/arm-none-eabi/include/c++/4.9.3/bits/unique_ptr.h ****       /** @brief Converting constructor from another type
 209:/opt/toolchains/gcc-arm-none-eabi-4_9-2015q1/arm-none-eabi/include/c++/4.9.3/bits/unique_ptr.h ****        *
 210:/opt/toolchains/gcc-arm-none-eabi-4_9-2015q1/arm-none-eabi/include/c++/4.9.3/bits/unique_ptr.h ****        * Requires that the pointer owned by @p __u is convertible to the
 211:/opt/toolchains/gcc-arm-none-eabi-4_9-2015q1/arm-none-eabi/include/c++/4.9.3/bits/unique_ptr.h ****        * type of pointer owned by this object, @p __u does not own an array,
 212:/opt/toolchains/gcc-arm-none-eabi-4_9-2015q1/arm-none-eabi/include/c++/4.9.3/bits/unique_ptr.h ****        * and @p __u has a compatible deleter type.
 213:/opt/toolchains/gcc-arm-none-eabi-4_9-2015q1/arm-none-eabi/include/c++/4.9.3/bits/unique_ptr.h ****        */
 214:/opt/toolchains/gcc-arm-none-eabi-4_9-2015q1/arm-none-eabi/include/c++/4.9.3/bits/unique_ptr.h ****       template<typename _Up, typename _Ep, typename = _Require<
 215:/opt/toolchains/gcc-arm-none-eabi-4_9-2015q1/arm-none-eabi/include/c++/4.9.3/bits/unique_ptr.h **** 	       is_convertible<typename unique_ptr<_Up, _Ep>::pointer, pointer>,
 216:/opt/toolchains/gcc-arm-none-eabi-4_9-2015q1/arm-none-eabi/include/c++/4.9.3/bits/unique_ptr.h **** 	       __not_<is_array<_Up>>,
 217:/opt/toolchains/gcc-arm-none-eabi-4_9-2015q1/arm-none-eabi/include/c++/4.9.3/bits/unique_ptr.h **** 	       typename conditional<is_reference<_Dp>::value,
 218:/opt/toolchains/gcc-arm-none-eabi-4_9-2015q1/arm-none-eabi/include/c++/4.9.3/bits/unique_ptr.h **** 				    is_same<_Ep, _Dp>,
 219:/opt/toolchains/gcc-arm-none-eabi-4_9-2015q1/arm-none-eabi/include/c++/4.9.3/bits/unique_ptr.h **** 				    is_convertible<_Ep, _Dp>>::type>>
 220:/opt/toolchains/gcc-arm-none-eabi-4_9-2015q1/arm-none-eabi/include/c++/4.9.3/bits/unique_ptr.h **** 	unique_ptr(unique_ptr<_Up, _Ep>&& __u) noexcept
 221:/opt/toolchains/gcc-arm-none-eabi-4_9-2015q1/arm-none-eabi/include/c++/4.9.3/bits/unique_ptr.h **** 	: _M_t(__u.release(), std::forward<_Ep>(__u.get_deleter()))
 222:/opt/toolchains/gcc-arm-none-eabi-4_9-2015q1/arm-none-eabi/include/c++/4.9.3/bits/unique_ptr.h **** 	{ }
 223:/opt/toolchains/gcc-arm-none-eabi-4_9-2015q1/arm-none-eabi/include/c++/4.9.3/bits/unique_ptr.h **** 
 224:/opt/toolchains/gcc-arm-none-eabi-4_9-2015q1/arm-none-eabi/include/c++/4.9.3/bits/unique_ptr.h **** #if _GLIBCXX_USE_DEPRECATED
 225:/opt/toolchains/gcc-arm-none-eabi-4_9-2015q1/arm-none-eabi/include/c++/4.9.3/bits/unique_ptr.h ****       /// Converting constructor from @c auto_ptr
 226:/opt/toolchains/gcc-arm-none-eabi-4_9-2015q1/arm-none-eabi/include/c++/4.9.3/bits/unique_ptr.h ****       template<typename _Up, typename = _Require<
 227:/opt/toolchains/gcc-arm-none-eabi-4_9-2015q1/arm-none-eabi/include/c++/4.9.3/bits/unique_ptr.h **** 	       is_convertible<_Up*, _Tp*>, is_same<_Dp, default_delete<_Tp>>>>
 228:/opt/toolchains/gcc-arm-none-eabi-4_9-2015q1/arm-none-eabi/include/c++/4.9.3/bits/unique_ptr.h **** 	unique_ptr(auto_ptr<_Up>&& __u) noexcept;
 229:/opt/toolchains/gcc-arm-none-eabi-4_9-2015q1/arm-none-eabi/include/c++/4.9.3/bits/unique_ptr.h **** #endif
 230:/opt/toolchains/gcc-arm-none-eabi-4_9-2015q1/arm-none-eabi/include/c++/4.9.3/bits/unique_ptr.h **** 
 231:/opt/toolchains/gcc-arm-none-eabi-4_9-2015q1/arm-none-eabi/include/c++/4.9.3/bits/unique_ptr.h ****       /// Destructor, invokes the deleter if the stored pointer is not null.
 232:/opt/toolchains/gcc-arm-none-eabi-4_9-2015q1/arm-none-eabi/include/c++/4.9.3/bits/unique_ptr.h ****       ~unique_ptr() noexcept
 233:/opt/toolchains/gcc-arm-none-eabi-4_9-2015q1/arm-none-eabi/include/c++/4.9.3/bits/unique_ptr.h ****       {
 234:/opt/toolchains/gcc-arm-none-eabi-4_9-2015q1/arm-none-eabi/include/c++/4.9.3/bits/unique_ptr.h **** 	auto& __ptr = std::get<0>(_M_t);
 235:/opt/toolchains/gcc-arm-none-eabi-4_9-2015q1/arm-none-eabi/include/c++/4.9.3/bits/unique_ptr.h **** 	if (__ptr != nullptr)
 620              		.loc 3 235 0 is_stmt 1 discriminator 5
 621 000e 55F8040D 		ldr	r0, [r5, #-4]!
 622              	.LVL58:
 623 0012 0028     		cmp	r0, #0
 624 0014 F9D0     		beq	.L39
 625              	.LVL59:
 236:/opt/toolchains/gcc-arm-none-eabi-4_9-2015q1/arm-none-eabi/include/c++/4.9.3/bits/unique_ptr.h **** 	  get_deleter()(__ptr);
 626              		.loc 3 236 0
 627 0016 024B     		ldr	r3, .L46
 628 0018 9847     		blx	r3
 629              	.LVL60:
 630 001a F6E7     		b	.L39
 631              	.LVL61:
 632              	.L37:
 633              	.LBE572:
 634              	.LBE571:
 635              	.LBE570:
 636              		.loc 4 209 0
 637 001c 2046     		mov	r0, r4
 638 001e 38BD     		pop	{r3, r4, r5, pc}
 639              	.LVL62:
 640              	.L47:
 641              		.align	2
 642              	.L46:
 643 0020 00000000 		.word	_ZNKSt14default_deleteIN4ltaf13CalibDataBaseEEclEPS1_.isra.3
 644              		.cfi_endproc
 645              	.LFE3531:
 647              		.weak	_ZN4ltaf16CalibDataManagerD1Ev
 648              		.thumb_set _ZN4ltaf16CalibDataManagerD1Ev,_ZN4ltaf16CalibDataManagerD2Ev
 649              		.section	.text._ZNSt10unique_ptrI18calib_data_managerSt14default_deleteIS0_EED2Ev,"axG",%progbits,
 650              		.align	1
 651              		.weak	_ZNSt10unique_ptrI18calib_data_managerSt14default_deleteIS0_EED2Ev
 652              		.thumb
 653              		.thumb_func
 655              	_ZNSt10unique_ptrI18calib_data_managerSt14default_deleteIS0_EED2Ev:
 656              	.LFB3639:
 232:/opt/toolchains/gcc-arm-none-eabi-4_9-2015q1/arm-none-eabi/include/c++/4.9.3/bits/unique_ptr.h ****       {
 657              		.loc 3 232 0
 658              		.cfi_startproc
 659              		@ args = 0, pretend = 0, frame = 0
 660              		@ frame_needed = 0, uses_anonymous_args = 0
 661              	.LVL63:
 662 0000 38B5     		push	{r3, r4, r5, lr}
 663              	.LCFI11:
 664              		.cfi_def_cfa_offset 16
 665              		.cfi_offset 3, -16
 666              		.cfi_offset 4, -12
 667              		.cfi_offset 5, -8
 668              		.cfi_offset 14, -4
 669              	.LBB579:
 235:/opt/toolchains/gcc-arm-none-eabi-4_9-2015q1/arm-none-eabi/include/c++/4.9.3/bits/unique_ptr.h **** 	  get_deleter()(__ptr);
 670              		.loc 3 235 0
 671 0002 0468     		ldr	r4, [r0]
 672              	.LBE579:
 232:/opt/toolchains/gcc-arm-none-eabi-4_9-2015q1/arm-none-eabi/include/c++/4.9.3/bits/unique_ptr.h ****       {
 673              		.loc 3 232 0
 674 0004 0546     		mov	r5, r0
 675              	.LBB584:
 235:/opt/toolchains/gcc-arm-none-eabi-4_9-2015q1/arm-none-eabi/include/c++/4.9.3/bits/unique_ptr.h **** 	  get_deleter()(__ptr);
 676              		.loc 3 235 0
 677 0006 2CB1     		cbz	r4, .L49
 678              	.LVL64:
 679              	.LBB580:
 680              	.LBB581:
 681              	.LBB582:
 682              	.LBB583:
 683              		.file 5 "/home/tienluong/workspace/atlantis_fw/AsicFwS2/include/calib_data_manager.h"
   1:/home/tienluong/workspace/atlantis_fw/AsicFwS2/include/calib_data_manager.h **** /*******************************************************************************
   2:/home/tienluong/workspace/atlantis_fw/AsicFwS2/include/calib_data_manager.h ****  * Copyright (c) 2016, The LightCo
   3:/home/tienluong/workspace/atlantis_fw/AsicFwS2/include/calib_data_manager.h ****  * All rights reserved.
   4:/home/tienluong/workspace/atlantis_fw/AsicFwS2/include/calib_data_manager.h ****  * Redistribution and use in source and binary forms, with or without
   5:/home/tienluong/workspace/atlantis_fw/AsicFwS2/include/calib_data_manager.h ****  * modification, are strictly prohibited without prior permission
   6:/home/tienluong/workspace/atlantis_fw/AsicFwS2/include/calib_data_manager.h ****  * of The LightCo.
   7:/home/tienluong/workspace/atlantis_fw/AsicFwS2/include/calib_data_manager.h ****  *
   8:/home/tienluong/workspace/atlantis_fw/AsicFwS2/include/calib_data_manager.h ****  * @file    calib_data_manager.h
   9:/home/tienluong/workspace/atlantis_fw/AsicFwS2/include/calib_data_manager.h ****  * @author  The LightCo
  10:/home/tienluong/workspace/atlantis_fw/AsicFwS2/include/calib_data_manager.h ****  * @version V1.0.0
  11:/home/tienluong/workspace/atlantis_fw/AsicFwS2/include/calib_data_manager.h ****  * @date    Oct-8-2016
  12:/home/tienluong/workspace/atlantis_fw/AsicFwS2/include/calib_data_manager.h ****  * @brief   Calibration data manager singleton
  13:/home/tienluong/workspace/atlantis_fw/AsicFwS2/include/calib_data_manager.h ****  *
  14:/home/tienluong/workspace/atlantis_fw/AsicFwS2/include/calib_data_manager.h ****  ******************************************************************************/
  15:/home/tienluong/workspace/atlantis_fw/AsicFwS2/include/calib_data_manager.h **** 
  16:/home/tienluong/workspace/atlantis_fw/AsicFwS2/include/calib_data_manager.h **** #ifndef __CALIB_DATA_MANAGER_H__
  17:/home/tienluong/workspace/atlantis_fw/AsicFwS2/include/calib_data_manager.h **** #define __CALIB_DATA_MANAGER_H__
  18:/home/tienluong/workspace/atlantis_fw/AsicFwS2/include/calib_data_manager.h **** 
  19:/home/tienluong/workspace/atlantis_fw/AsicFwS2/include/calib_data_manager.h **** #ifdef __cplusplus
  20:/home/tienluong/workspace/atlantis_fw/AsicFwS2/include/calib_data_manager.h **** extern "C" {
  21:/home/tienluong/workspace/atlantis_fw/AsicFwS2/include/calib_data_manager.h **** #endif
  22:/home/tienluong/workspace/atlantis_fw/AsicFwS2/include/calib_data_manager.h **** 
  23:/home/tienluong/workspace/atlantis_fw/AsicFwS2/include/calib_data_manager.h **** void initialize_calib_data_manager(void);
  24:/home/tienluong/workspace/atlantis_fw/AsicFwS2/include/calib_data_manager.h **** 
  25:/home/tienluong/workspace/atlantis_fw/AsicFwS2/include/calib_data_manager.h **** #ifdef __cplusplus
  26:/home/tienluong/workspace/atlantis_fw/AsicFwS2/include/calib_data_manager.h **** }
  27:/home/tienluong/workspace/atlantis_fw/AsicFwS2/include/calib_data_manager.h **** #endif
  28:/home/tienluong/workspace/atlantis_fw/AsicFwS2/include/calib_data_manager.h **** 
  29:/home/tienluong/workspace/atlantis_fw/AsicFwS2/include/calib_data_manager.h **** #ifdef __cplusplus
  30:/home/tienluong/workspace/atlantis_fw/AsicFwS2/include/calib_data_manager.h **** 
  31:/home/tienluong/workspace/atlantis_fw/AsicFwS2/include/calib_data_manager.h **** #include <memory>
  32:/home/tienluong/workspace/atlantis_fw/AsicFwS2/include/calib_data_manager.h **** #include "lightheader/include/lightheader.pb-c.h"
  33:/home/tienluong/workspace/atlantis_fw/AsicFwS2/include/calib_data_manager.h **** #include "calibclasses.h"
  34:/home/tienluong/workspace/atlantis_fw/AsicFwS2/include/calib_data_manager.h **** #include "opticalzoom.h"
  35:/home/tienluong/workspace/atlantis_fw/AsicFwS2/include/calib_data_manager.h **** 
  36:/home/tienluong/workspace/atlantis_fw/AsicFwS2/include/calib_data_manager.h **** class calib_data_manager {
 684              		.loc 5 36 0
 685 0008 034B     		ldr	r3, .L53
 686 000a 2046     		mov	r0, r4
 687              	.LVL65:
 688 000c 9847     		blx	r3
 689              	.LVL66:
 690              	.LBE583:
 691              	.LBE582:
  76:/opt/toolchains/gcc-arm-none-eabi-4_9-2015q1/arm-none-eabi/include/c++/4.9.3/bits/unique_ptr.h ****       }
 692              		.loc 3 76 0
 693 000e 2046     		mov	r0, r4
 694 0010 024B     		ldr	r3, .L53+4
 695 0012 9847     		blx	r3
 696              	.LVL67:
 697              	.L49:
 698              	.LBE581:
 699              	.LBE580:
 700              	.LBE584:
 237:/opt/toolchains/gcc-arm-none-eabi-4_9-2015q1/arm-none-eabi/include/c++/4.9.3/bits/unique_ptr.h **** 	__ptr = pointer();
 238:/opt/toolchains/gcc-arm-none-eabi-4_9-2015q1/arm-none-eabi/include/c++/4.9.3/bits/unique_ptr.h ****       }
 701              		.loc 3 238 0
 702 0014 2846     		mov	r0, r5
 703 0016 38BD     		pop	{r3, r4, r5, pc}
 704              	.LVL68:
 705              	.L54:
 706              		.align	2
 707              	.L53:
 708 0018 00000000 		.word	_ZN4ltaf16CalibDataManagerD1Ev
 709 001c 00000000 		.word	_ZdlPv
 710              		.cfi_endproc
 711              	.LFE3639:
 713              		.weak	_ZNSt10unique_ptrI18calib_data_managerSt14default_deleteIS0_EED1Ev
 714              		.thumb_set _ZNSt10unique_ptrI18calib_data_managerSt14default_deleteIS0_EED1Ev,_ZNSt10unique_ptrI18
 715              		.section	.text._ZN18calib_data_manager19initialize_instanceEv,"ax",%progbits
 716              		.align	1
 717              		.global	_ZN18calib_data_manager19initialize_instanceEv
 718              		.thumb
 719              		.thumb_func
 721              	_ZN18calib_data_manager19initialize_instanceEv:
 722              	.LFB3528:
  43:/home/tienluong/workspace/atlantis_fw/AsicFwS2/src/calib_data_manager.cpp ****     }
  44:/home/tienluong/workspace/atlantis_fw/AsicFwS2/src/calib_data_manager.cpp **** 
  45:/home/tienluong/workspace/atlantis_fw/AsicFwS2/src/calib_data_manager.cpp ****     ProtobufCAllocator pbuf_alloc{alloc_pbuf, free_pbuf, &ddr_heap_attribute};
  46:/home/tienluong/workspace/atlantis_fw/AsicFwS2/src/calib_data_manager.cpp **** }
  47:/home/tienluong/workspace/atlantis_fw/AsicFwS2/src/calib_data_manager.cpp **** 
  48:/home/tienluong/workspace/atlantis_fw/AsicFwS2/src/calib_data_manager.cpp **** void calib_data_manager::initialize_instance() {
 723              		.loc 1 48 0
 724              		.cfi_startproc
 725              		@ args = 0, pretend = 0, frame = 80
 726              		@ frame_needed = 0, uses_anonymous_args = 0
 727 0000 2DE9F047 		push	{r4, r5, r6, r7, r8, r9, r10, lr}
 728              	.LCFI12:
 729              		.cfi_def_cfa_offset 32
 730              		.cfi_offset 4, -32
 731              		.cfi_offset 5, -28
 732              		.cfi_offset 6, -24
 733              		.cfi_offset 7, -20
 734              		.cfi_offset 8, -16
 735              		.cfi_offset 9, -12
 736              		.cfi_offset 10, -8
 737              		.cfi_offset 14, -4
 738              	.LBB656:
  49:/home/tienluong/workspace/atlantis_fw/AsicFwS2/src/calib_data_manager.cpp ****     instance_.reset(new calib_data_manager{});
 739              		.loc 1 49 0
 740 0004 5D4B     		ldr	r3, .L74
 741              	.LBE656:
  48:/home/tienluong/workspace/atlantis_fw/AsicFwS2/src/calib_data_manager.cpp ****     instance_.reset(new calib_data_manager{});
 742              		.loc 1 48 0
 743 0006 98B0     		sub	sp, sp, #96
 744              	.LCFI13:
 745              		.cfi_def_cfa_offset 128
 746              	.LBB710:
 747              		.loc 1 49 0
 748 0008 4FF44870 		mov	r0, #800
 749 000c 9847     		blx	r3
 750              	.LVL69:
 751 000e 4FF44872 		mov	r2, #800
 752 0012 5B4B     		ldr	r3, .L74+4
 753 0014 0021     		movs	r1, #0
 754 0016 0446     		mov	r4, r0
 755 0018 9847     		blx	r3
 756              	.LVL70:
 757 001a 04F14002 		add	r2, r4, #64
 758              	.LBB657:
 759              	.LBB658:
 760              	.LBB659:
 761              	.LBB660:
 210:/home/tienluong/workspace/atlantis_fw/AsicFwS2/include/calibclasses.h **** 
 211:/home/tienluong/workspace/atlantis_fw/AsicFwS2/include/calibclasses.h **** public:
 212:/home/tienluong/workspace/atlantis_fw/AsicFwS2/include/calibclasses.h ****     CalibDataManager() {
 762              		.loc 4 212 0
 763 001e 2346     		mov	r3, r4
 764              	.L56:
 765              	.LVL71:
 766              	.LBB661:
 767              	.LBB662:
 768              	.LBB663:
 769              	.LBB664:
 770              	.LBB665:
 771              	.LBB666:
 772              	.LBB667:
 773              	.LBB668:
 774              	.LBB669:
 775              		.file 6 "/opt/toolchains/gcc-arm-none-eabi-4_9-2015q1/arm-none-eabi/include/c++/4.9.3/tuple"
   1:/opt/toolchains/gcc-arm-none-eabi-4_9-2015q1/arm-none-eabi/include/c++/4.9.3/tuple **** // <tuple> -*- C++ -*-
   2:/opt/toolchains/gcc-arm-none-eabi-4_9-2015q1/arm-none-eabi/include/c++/4.9.3/tuple **** 
   3:/opt/toolchains/gcc-arm-none-eabi-4_9-2015q1/arm-none-eabi/include/c++/4.9.3/tuple **** // Copyright (C) 2007-2014 Free Software Foundation, Inc.
   4:/opt/toolchains/gcc-arm-none-eabi-4_9-2015q1/arm-none-eabi/include/c++/4.9.3/tuple **** //
   5:/opt/toolchains/gcc-arm-none-eabi-4_9-2015q1/arm-none-eabi/include/c++/4.9.3/tuple **** // This file is part of the GNU ISO C++ Library.  This library is free
   6:/opt/toolchains/gcc-arm-none-eabi-4_9-2015q1/arm-none-eabi/include/c++/4.9.3/tuple **** // software; you can redistribute it and/or modify it under the
   7:/opt/toolchains/gcc-arm-none-eabi-4_9-2015q1/arm-none-eabi/include/c++/4.9.3/tuple **** // terms of the GNU General Public License as published by the
   8:/opt/toolchains/gcc-arm-none-eabi-4_9-2015q1/arm-none-eabi/include/c++/4.9.3/tuple **** // Free Software Foundation; either version 3, or (at your option)
   9:/opt/toolchains/gcc-arm-none-eabi-4_9-2015q1/arm-none-eabi/include/c++/4.9.3/tuple **** // any later version.
  10:/opt/toolchains/gcc-arm-none-eabi-4_9-2015q1/arm-none-eabi/include/c++/4.9.3/tuple **** 
  11:/opt/toolchains/gcc-arm-none-eabi-4_9-2015q1/arm-none-eabi/include/c++/4.9.3/tuple **** // This library is distributed in the hope that it will be useful,
  12:/opt/toolchains/gcc-arm-none-eabi-4_9-2015q1/arm-none-eabi/include/c++/4.9.3/tuple **** // but WITHOUT ANY WARRANTY; without even the implied warranty of
  13:/opt/toolchains/gcc-arm-none-eabi-4_9-2015q1/arm-none-eabi/include/c++/4.9.3/tuple **** // MERCHANTABILITY or FITNESS FOR A PARTICULAR PURPOSE.  See the
  14:/opt/toolchains/gcc-arm-none-eabi-4_9-2015q1/arm-none-eabi/include/c++/4.9.3/tuple **** // GNU General Public License for more details.
  15:/opt/toolchains/gcc-arm-none-eabi-4_9-2015q1/arm-none-eabi/include/c++/4.9.3/tuple **** 
  16:/opt/toolchains/gcc-arm-none-eabi-4_9-2015q1/arm-none-eabi/include/c++/4.9.3/tuple **** // Under Section 7 of GPL version 3, you are granted additional
  17:/opt/toolchains/gcc-arm-none-eabi-4_9-2015q1/arm-none-eabi/include/c++/4.9.3/tuple **** // permissions described in the GCC Runtime Library Exception, version
  18:/opt/toolchains/gcc-arm-none-eabi-4_9-2015q1/arm-none-eabi/include/c++/4.9.3/tuple **** // 3.1, as published by the Free Software Foundation.
  19:/opt/toolchains/gcc-arm-none-eabi-4_9-2015q1/arm-none-eabi/include/c++/4.9.3/tuple **** 
  20:/opt/toolchains/gcc-arm-none-eabi-4_9-2015q1/arm-none-eabi/include/c++/4.9.3/tuple **** // You should have received a copy of the GNU General Public License and
  21:/opt/toolchains/gcc-arm-none-eabi-4_9-2015q1/arm-none-eabi/include/c++/4.9.3/tuple **** // a copy of the GCC Runtime Library Exception along with this program;
  22:/opt/toolchains/gcc-arm-none-eabi-4_9-2015q1/arm-none-eabi/include/c++/4.9.3/tuple **** // see the files COPYING3 and COPYING.RUNTIME respectively.  If not, see
  23:/opt/toolchains/gcc-arm-none-eabi-4_9-2015q1/arm-none-eabi/include/c++/4.9.3/tuple **** // <http://www.gnu.org/licenses/>.
  24:/opt/toolchains/gcc-arm-none-eabi-4_9-2015q1/arm-none-eabi/include/c++/4.9.3/tuple **** 
  25:/opt/toolchains/gcc-arm-none-eabi-4_9-2015q1/arm-none-eabi/include/c++/4.9.3/tuple **** /** @file include/tuple
  26:/opt/toolchains/gcc-arm-none-eabi-4_9-2015q1/arm-none-eabi/include/c++/4.9.3/tuple ****  *  This is a Standard C++ Library header.
  27:/opt/toolchains/gcc-arm-none-eabi-4_9-2015q1/arm-none-eabi/include/c++/4.9.3/tuple ****  */
  28:/opt/toolchains/gcc-arm-none-eabi-4_9-2015q1/arm-none-eabi/include/c++/4.9.3/tuple **** 
  29:/opt/toolchains/gcc-arm-none-eabi-4_9-2015q1/arm-none-eabi/include/c++/4.9.3/tuple **** #ifndef _GLIBCXX_TUPLE
  30:/opt/toolchains/gcc-arm-none-eabi-4_9-2015q1/arm-none-eabi/include/c++/4.9.3/tuple **** #define _GLIBCXX_TUPLE 1
  31:/opt/toolchains/gcc-arm-none-eabi-4_9-2015q1/arm-none-eabi/include/c++/4.9.3/tuple **** 
  32:/opt/toolchains/gcc-arm-none-eabi-4_9-2015q1/arm-none-eabi/include/c++/4.9.3/tuple **** #pragma GCC system_header
  33:/opt/toolchains/gcc-arm-none-eabi-4_9-2015q1/arm-none-eabi/include/c++/4.9.3/tuple **** 
  34:/opt/toolchains/gcc-arm-none-eabi-4_9-2015q1/arm-none-eabi/include/c++/4.9.3/tuple **** #if __cplusplus < 201103L
  35:/opt/toolchains/gcc-arm-none-eabi-4_9-2015q1/arm-none-eabi/include/c++/4.9.3/tuple **** # include <bits/c++0x_warning.h>
  36:/opt/toolchains/gcc-arm-none-eabi-4_9-2015q1/arm-none-eabi/include/c++/4.9.3/tuple **** #else
  37:/opt/toolchains/gcc-arm-none-eabi-4_9-2015q1/arm-none-eabi/include/c++/4.9.3/tuple **** 
  38:/opt/toolchains/gcc-arm-none-eabi-4_9-2015q1/arm-none-eabi/include/c++/4.9.3/tuple **** #include <utility>
  39:/opt/toolchains/gcc-arm-none-eabi-4_9-2015q1/arm-none-eabi/include/c++/4.9.3/tuple **** #include <array>
  40:/opt/toolchains/gcc-arm-none-eabi-4_9-2015q1/arm-none-eabi/include/c++/4.9.3/tuple **** #include <bits/uses_allocator.h>
  41:/opt/toolchains/gcc-arm-none-eabi-4_9-2015q1/arm-none-eabi/include/c++/4.9.3/tuple **** 
  42:/opt/toolchains/gcc-arm-none-eabi-4_9-2015q1/arm-none-eabi/include/c++/4.9.3/tuple **** namespace std _GLIBCXX_VISIBILITY(default)
  43:/opt/toolchains/gcc-arm-none-eabi-4_9-2015q1/arm-none-eabi/include/c++/4.9.3/tuple **** {
  44:/opt/toolchains/gcc-arm-none-eabi-4_9-2015q1/arm-none-eabi/include/c++/4.9.3/tuple **** _GLIBCXX_BEGIN_NAMESPACE_VERSION
  45:/opt/toolchains/gcc-arm-none-eabi-4_9-2015q1/arm-none-eabi/include/c++/4.9.3/tuple **** 
  46:/opt/toolchains/gcc-arm-none-eabi-4_9-2015q1/arm-none-eabi/include/c++/4.9.3/tuple ****   /**
  47:/opt/toolchains/gcc-arm-none-eabi-4_9-2015q1/arm-none-eabi/include/c++/4.9.3/tuple ****    *  @addtogroup utilities
  48:/opt/toolchains/gcc-arm-none-eabi-4_9-2015q1/arm-none-eabi/include/c++/4.9.3/tuple ****    *  @{
  49:/opt/toolchains/gcc-arm-none-eabi-4_9-2015q1/arm-none-eabi/include/c++/4.9.3/tuple ****    */
  50:/opt/toolchains/gcc-arm-none-eabi-4_9-2015q1/arm-none-eabi/include/c++/4.9.3/tuple **** 
  51:/opt/toolchains/gcc-arm-none-eabi-4_9-2015q1/arm-none-eabi/include/c++/4.9.3/tuple ****   // Adds a const reference to a non-reference type.
  52:/opt/toolchains/gcc-arm-none-eabi-4_9-2015q1/arm-none-eabi/include/c++/4.9.3/tuple ****   template<typename _Tp>
  53:/opt/toolchains/gcc-arm-none-eabi-4_9-2015q1/arm-none-eabi/include/c++/4.9.3/tuple ****     struct __add_c_ref
  54:/opt/toolchains/gcc-arm-none-eabi-4_9-2015q1/arm-none-eabi/include/c++/4.9.3/tuple ****     { typedef const _Tp& type; };
  55:/opt/toolchains/gcc-arm-none-eabi-4_9-2015q1/arm-none-eabi/include/c++/4.9.3/tuple **** 
  56:/opt/toolchains/gcc-arm-none-eabi-4_9-2015q1/arm-none-eabi/include/c++/4.9.3/tuple ****   template<typename _Tp>
  57:/opt/toolchains/gcc-arm-none-eabi-4_9-2015q1/arm-none-eabi/include/c++/4.9.3/tuple ****     struct __add_c_ref<_Tp&>
  58:/opt/toolchains/gcc-arm-none-eabi-4_9-2015q1/arm-none-eabi/include/c++/4.9.3/tuple ****     { typedef _Tp& type; };
  59:/opt/toolchains/gcc-arm-none-eabi-4_9-2015q1/arm-none-eabi/include/c++/4.9.3/tuple **** 
  60:/opt/toolchains/gcc-arm-none-eabi-4_9-2015q1/arm-none-eabi/include/c++/4.9.3/tuple ****   // Adds a reference to a non-reference type.
  61:/opt/toolchains/gcc-arm-none-eabi-4_9-2015q1/arm-none-eabi/include/c++/4.9.3/tuple ****   template<typename _Tp>
  62:/opt/toolchains/gcc-arm-none-eabi-4_9-2015q1/arm-none-eabi/include/c++/4.9.3/tuple ****     struct __add_ref
  63:/opt/toolchains/gcc-arm-none-eabi-4_9-2015q1/arm-none-eabi/include/c++/4.9.3/tuple ****     { typedef _Tp& type; };
  64:/opt/toolchains/gcc-arm-none-eabi-4_9-2015q1/arm-none-eabi/include/c++/4.9.3/tuple **** 
  65:/opt/toolchains/gcc-arm-none-eabi-4_9-2015q1/arm-none-eabi/include/c++/4.9.3/tuple ****   template<typename _Tp>
  66:/opt/toolchains/gcc-arm-none-eabi-4_9-2015q1/arm-none-eabi/include/c++/4.9.3/tuple ****     struct __add_ref<_Tp&>
  67:/opt/toolchains/gcc-arm-none-eabi-4_9-2015q1/arm-none-eabi/include/c++/4.9.3/tuple ****     { typedef _Tp& type; };
  68:/opt/toolchains/gcc-arm-none-eabi-4_9-2015q1/arm-none-eabi/include/c++/4.9.3/tuple **** 
  69:/opt/toolchains/gcc-arm-none-eabi-4_9-2015q1/arm-none-eabi/include/c++/4.9.3/tuple ****   // Adds an rvalue reference to a non-reference type.
  70:/opt/toolchains/gcc-arm-none-eabi-4_9-2015q1/arm-none-eabi/include/c++/4.9.3/tuple ****   template<typename _Tp>
  71:/opt/toolchains/gcc-arm-none-eabi-4_9-2015q1/arm-none-eabi/include/c++/4.9.3/tuple ****     struct __add_r_ref
  72:/opt/toolchains/gcc-arm-none-eabi-4_9-2015q1/arm-none-eabi/include/c++/4.9.3/tuple ****     { typedef _Tp&& type; };
  73:/opt/toolchains/gcc-arm-none-eabi-4_9-2015q1/arm-none-eabi/include/c++/4.9.3/tuple **** 
  74:/opt/toolchains/gcc-arm-none-eabi-4_9-2015q1/arm-none-eabi/include/c++/4.9.3/tuple ****   template<typename _Tp>
  75:/opt/toolchains/gcc-arm-none-eabi-4_9-2015q1/arm-none-eabi/include/c++/4.9.3/tuple ****     struct __add_r_ref<_Tp&>
  76:/opt/toolchains/gcc-arm-none-eabi-4_9-2015q1/arm-none-eabi/include/c++/4.9.3/tuple ****     { typedef _Tp& type; };
  77:/opt/toolchains/gcc-arm-none-eabi-4_9-2015q1/arm-none-eabi/include/c++/4.9.3/tuple **** 
  78:/opt/toolchains/gcc-arm-none-eabi-4_9-2015q1/arm-none-eabi/include/c++/4.9.3/tuple ****   template<std::size_t _Idx, typename _Head, bool _IsEmptyNotFinal>
  79:/opt/toolchains/gcc-arm-none-eabi-4_9-2015q1/arm-none-eabi/include/c++/4.9.3/tuple ****     struct _Head_base;
  80:/opt/toolchains/gcc-arm-none-eabi-4_9-2015q1/arm-none-eabi/include/c++/4.9.3/tuple **** 
  81:/opt/toolchains/gcc-arm-none-eabi-4_9-2015q1/arm-none-eabi/include/c++/4.9.3/tuple ****   template<std::size_t _Idx, typename _Head>
  82:/opt/toolchains/gcc-arm-none-eabi-4_9-2015q1/arm-none-eabi/include/c++/4.9.3/tuple ****     struct _Head_base<_Idx, _Head, true>
  83:/opt/toolchains/gcc-arm-none-eabi-4_9-2015q1/arm-none-eabi/include/c++/4.9.3/tuple ****     : public _Head
  84:/opt/toolchains/gcc-arm-none-eabi-4_9-2015q1/arm-none-eabi/include/c++/4.9.3/tuple ****     {
  85:/opt/toolchains/gcc-arm-none-eabi-4_9-2015q1/arm-none-eabi/include/c++/4.9.3/tuple ****       constexpr _Head_base()
  86:/opt/toolchains/gcc-arm-none-eabi-4_9-2015q1/arm-none-eabi/include/c++/4.9.3/tuple ****       : _Head() { }
  87:/opt/toolchains/gcc-arm-none-eabi-4_9-2015q1/arm-none-eabi/include/c++/4.9.3/tuple **** 
  88:/opt/toolchains/gcc-arm-none-eabi-4_9-2015q1/arm-none-eabi/include/c++/4.9.3/tuple ****       constexpr _Head_base(const _Head& __h)
  89:/opt/toolchains/gcc-arm-none-eabi-4_9-2015q1/arm-none-eabi/include/c++/4.9.3/tuple ****       : _Head(__h) { }
  90:/opt/toolchains/gcc-arm-none-eabi-4_9-2015q1/arm-none-eabi/include/c++/4.9.3/tuple **** 
  91:/opt/toolchains/gcc-arm-none-eabi-4_9-2015q1/arm-none-eabi/include/c++/4.9.3/tuple ****       constexpr _Head_base(const _Head_base&) = default;
  92:/opt/toolchains/gcc-arm-none-eabi-4_9-2015q1/arm-none-eabi/include/c++/4.9.3/tuple ****       constexpr _Head_base(_Head_base&&) = default;
  93:/opt/toolchains/gcc-arm-none-eabi-4_9-2015q1/arm-none-eabi/include/c++/4.9.3/tuple **** 
  94:/opt/toolchains/gcc-arm-none-eabi-4_9-2015q1/arm-none-eabi/include/c++/4.9.3/tuple ****       template<typename _UHead>
  95:/opt/toolchains/gcc-arm-none-eabi-4_9-2015q1/arm-none-eabi/include/c++/4.9.3/tuple ****         constexpr _Head_base(_UHead&& __h)
  96:/opt/toolchains/gcc-arm-none-eabi-4_9-2015q1/arm-none-eabi/include/c++/4.9.3/tuple **** 	: _Head(std::forward<_UHead>(__h)) { }
  97:/opt/toolchains/gcc-arm-none-eabi-4_9-2015q1/arm-none-eabi/include/c++/4.9.3/tuple **** 
  98:/opt/toolchains/gcc-arm-none-eabi-4_9-2015q1/arm-none-eabi/include/c++/4.9.3/tuple ****       _Head_base(allocator_arg_t, __uses_alloc0)
  99:/opt/toolchains/gcc-arm-none-eabi-4_9-2015q1/arm-none-eabi/include/c++/4.9.3/tuple ****       : _Head() { }
 100:/opt/toolchains/gcc-arm-none-eabi-4_9-2015q1/arm-none-eabi/include/c++/4.9.3/tuple **** 
 101:/opt/toolchains/gcc-arm-none-eabi-4_9-2015q1/arm-none-eabi/include/c++/4.9.3/tuple ****       template<typename _Alloc>
 102:/opt/toolchains/gcc-arm-none-eabi-4_9-2015q1/arm-none-eabi/include/c++/4.9.3/tuple **** 	_Head_base(allocator_arg_t, __uses_alloc1<_Alloc> __a)
 103:/opt/toolchains/gcc-arm-none-eabi-4_9-2015q1/arm-none-eabi/include/c++/4.9.3/tuple **** 	: _Head(allocator_arg, *__a._M_a) { }
 104:/opt/toolchains/gcc-arm-none-eabi-4_9-2015q1/arm-none-eabi/include/c++/4.9.3/tuple **** 
 105:/opt/toolchains/gcc-arm-none-eabi-4_9-2015q1/arm-none-eabi/include/c++/4.9.3/tuple ****       template<typename _Alloc>
 106:/opt/toolchains/gcc-arm-none-eabi-4_9-2015q1/arm-none-eabi/include/c++/4.9.3/tuple **** 	_Head_base(allocator_arg_t, __uses_alloc2<_Alloc> __a)
 107:/opt/toolchains/gcc-arm-none-eabi-4_9-2015q1/arm-none-eabi/include/c++/4.9.3/tuple **** 	: _Head(*__a._M_a) { }
 108:/opt/toolchains/gcc-arm-none-eabi-4_9-2015q1/arm-none-eabi/include/c++/4.9.3/tuple **** 
 109:/opt/toolchains/gcc-arm-none-eabi-4_9-2015q1/arm-none-eabi/include/c++/4.9.3/tuple ****       template<typename _UHead>
 110:/opt/toolchains/gcc-arm-none-eabi-4_9-2015q1/arm-none-eabi/include/c++/4.9.3/tuple **** 	_Head_base(__uses_alloc0, _UHead&& __uhead)
 111:/opt/toolchains/gcc-arm-none-eabi-4_9-2015q1/arm-none-eabi/include/c++/4.9.3/tuple **** 	: _Head(std::forward<_UHead>(__uhead)) { }
 112:/opt/toolchains/gcc-arm-none-eabi-4_9-2015q1/arm-none-eabi/include/c++/4.9.3/tuple **** 
 113:/opt/toolchains/gcc-arm-none-eabi-4_9-2015q1/arm-none-eabi/include/c++/4.9.3/tuple ****       template<typename _Alloc, typename _UHead>
 114:/opt/toolchains/gcc-arm-none-eabi-4_9-2015q1/arm-none-eabi/include/c++/4.9.3/tuple **** 	_Head_base(__uses_alloc1<_Alloc> __a, _UHead&& __uhead)
 115:/opt/toolchains/gcc-arm-none-eabi-4_9-2015q1/arm-none-eabi/include/c++/4.9.3/tuple **** 	: _Head(allocator_arg, *__a._M_a, std::forward<_UHead>(__uhead)) { }
 116:/opt/toolchains/gcc-arm-none-eabi-4_9-2015q1/arm-none-eabi/include/c++/4.9.3/tuple **** 
 117:/opt/toolchains/gcc-arm-none-eabi-4_9-2015q1/arm-none-eabi/include/c++/4.9.3/tuple ****       template<typename _Alloc, typename _UHead>
 118:/opt/toolchains/gcc-arm-none-eabi-4_9-2015q1/arm-none-eabi/include/c++/4.9.3/tuple **** 	_Head_base(__uses_alloc2<_Alloc> __a, _UHead&& __uhead)
 119:/opt/toolchains/gcc-arm-none-eabi-4_9-2015q1/arm-none-eabi/include/c++/4.9.3/tuple **** 	: _Head(std::forward<_UHead>(__uhead), *__a._M_a) { }
 120:/opt/toolchains/gcc-arm-none-eabi-4_9-2015q1/arm-none-eabi/include/c++/4.9.3/tuple **** 
 121:/opt/toolchains/gcc-arm-none-eabi-4_9-2015q1/arm-none-eabi/include/c++/4.9.3/tuple ****       static constexpr _Head&
 122:/opt/toolchains/gcc-arm-none-eabi-4_9-2015q1/arm-none-eabi/include/c++/4.9.3/tuple ****       _M_head(_Head_base& __b) noexcept { return __b; }
 123:/opt/toolchains/gcc-arm-none-eabi-4_9-2015q1/arm-none-eabi/include/c++/4.9.3/tuple **** 
 124:/opt/toolchains/gcc-arm-none-eabi-4_9-2015q1/arm-none-eabi/include/c++/4.9.3/tuple ****       static constexpr const _Head&
 125:/opt/toolchains/gcc-arm-none-eabi-4_9-2015q1/arm-none-eabi/include/c++/4.9.3/tuple ****       _M_head(const _Head_base& __b) noexcept { return __b; }
 126:/opt/toolchains/gcc-arm-none-eabi-4_9-2015q1/arm-none-eabi/include/c++/4.9.3/tuple ****     };
 127:/opt/toolchains/gcc-arm-none-eabi-4_9-2015q1/arm-none-eabi/include/c++/4.9.3/tuple **** 
 128:/opt/toolchains/gcc-arm-none-eabi-4_9-2015q1/arm-none-eabi/include/c++/4.9.3/tuple ****   template<std::size_t _Idx, typename _Head>
 129:/opt/toolchains/gcc-arm-none-eabi-4_9-2015q1/arm-none-eabi/include/c++/4.9.3/tuple ****     struct _Head_base<_Idx, _Head, false>
 130:/opt/toolchains/gcc-arm-none-eabi-4_9-2015q1/arm-none-eabi/include/c++/4.9.3/tuple ****     {
 131:/opt/toolchains/gcc-arm-none-eabi-4_9-2015q1/arm-none-eabi/include/c++/4.9.3/tuple ****       constexpr _Head_base()
 132:/opt/toolchains/gcc-arm-none-eabi-4_9-2015q1/arm-none-eabi/include/c++/4.9.3/tuple ****       : _M_head_impl() { }
 776              		.loc 6 132 0
 777 0020 0021     		movs	r1, #0
 778 0022 43F8041B 		str	r1, [r3], #4
 779              	.LVL72:
 780              	.LBE669:
 781              	.LBE668:
 782              	.LBE667:
 783              	.LBE666:
 784              	.LBE665:
 785              	.LBE664:
 786              	.LBE663:
 787              	.LBE662:
 788              	.LBE661:
 789              		.loc 4 212 0
 790 0026 9342     		cmp	r3, r2
 791 0028 FAD1     		bne	.L56
 213:/home/tienluong/workspace/atlantis_fw/AsicFwS2/include/calibclasses.h ****         setDefaultMirrorTypes(); // B4 C5 glued. set up default mirror types, and calib data defaul
 792              		.loc 4 213 0
 793 002a 2046     		mov	r0, r4
 794 002c 554B     		ldr	r3, .L74+8
 795              	.LVL73:
 796 002e 9847     		blx	r3
 797              	.LVL74:
 214:/home/tienluong/workspace/atlantis_fw/AsicFwS2/include/calibclasses.h ****         hardCodeCalib();    // hardcode A1 A5 calibration data for now.
 798              		.loc 4 214 0
 799 0030 2046     		mov	r0, r4
 800 0032 554B     		ldr	r3, .L74+12
 801 0034 9847     		blx	r3
 802              	.LVL75:
 803              	.LBE660:
 804              	.LBE659:
 805              		.loc 5 36 0
 806 0036 04F15000 		add	r0, r4, #80
 807              	.LVL76:
 808 003a 0346     		mov	r3, r0
 809 003c 04F50472 		add	r2, r4, #528
 810              	.L57:
 811              	.LVL77:
 812              	.LBB670:
 813              	.LBB671:
 814              	.LBB672:
 815              	.LBB673:
 816              	.LBB674:
 817              	.LBB675:
 818              		.file 7 "/home/tienluong/workspace/atlantis_fw/AsicFwS2/include/opticalzoom.h"
   1:/home/tienluong/workspace/atlantis_fw/AsicFwS2/include/opticalzoom.h **** #ifndef OPTICALZOOMASIC_H
   2:/home/tienluong/workspace/atlantis_fw/AsicFwS2/include/opticalzoom.h **** #define OPTICALZOOMASIC_H
