   1              		.syntax unified
   2              		.cpu cortex-r4
   3              		.fpu softvfp
   4              		.eabi_attribute 20, 1
   5              		.eabi_attribute 21, 1
   6              		.eabi_attribute 23, 3
   7              		.eabi_attribute 24, 1
   8              		.eabi_attribute 25, 1
   9              		.eabi_attribute 26, 1
  10              		.eabi_attribute 30, 4
  11              		.eabi_attribute 34, 1
  12              		.eabi_attribute 18, 4
  13              		.thumb
  14              		.file	"lcc_cmd_base_0000.c"
  15              		.text
  16              	.Ltext0:
  17              		.cfi_sections	.debug_frame
  18              		.section	.text.cmd_cam_module_open,"ax",%progbits
  19              		.align	1
  20              		.global	cmd_cam_module_open
  21              		.thumb
  22              		.thumb_func
  24              	cmd_cam_module_open:
  25              	.LFB1:
  26              		.file 1 "/home/tienluong/workspace/atlantis_fw/AsicFwS2/src/lcc_cmd_base_0000.c"
   1:/home/tienluong/workspace/atlantis_fw/AsicFwS2/src/lcc_cmd_base_0000.c **** /*******************************************************************************
   2:/home/tienluong/workspace/atlantis_fw/AsicFwS2/src/lcc_cmd_base_0000.c ****  * Copyright (c) 2016, The LightCo
   3:/home/tienluong/workspace/atlantis_fw/AsicFwS2/src/lcc_cmd_base_0000.c ****  * All rights reserved.
   4:/home/tienluong/workspace/atlantis_fw/AsicFwS2/src/lcc_cmd_base_0000.c ****  * Redistribution and use in source and binary forms, with or without
   5:/home/tienluong/workspace/atlantis_fw/AsicFwS2/src/lcc_cmd_base_0000.c ****  * modification, are strictly prohibited without prior permission of
   6:/home/tienluong/workspace/atlantis_fw/AsicFwS2/src/lcc_cmd_base_0000.c ****  * The LightCo.
   7:/home/tienluong/workspace/atlantis_fw/AsicFwS2/src/lcc_cmd_base_0000.c ****  *
   8:/home/tienluong/workspace/atlantis_fw/AsicFwS2/src/lcc_cmd_base_0000.c ****  * @file    lcc_cmd_base_0000.c
   9:/home/tienluong/workspace/atlantis_fw/AsicFwS2/src/lcc_cmd_base_0000.c ****  * @author  The LightCo
  10:/home/tienluong/workspace/atlantis_fw/AsicFwS2/src/lcc_cmd_base_0000.c ****  * @version V1.0.0
  11:/home/tienluong/workspace/atlantis_fw/AsicFwS2/src/lcc_cmd_base_0000.c ****  * @date    Mar-10-2016
  12:/home/tienluong/workspace/atlantis_fw/AsicFwS2/src/lcc_cmd_base_0000.c ****  * @brief   This file contains expand of lcc_cmd_base_0000
  13:/home/tienluong/workspace/atlantis_fw/AsicFwS2/src/lcc_cmd_base_0000.c ****  *
  14:/home/tienluong/workspace/atlantis_fw/AsicFwS2/src/lcc_cmd_base_0000.c ****  ******************************************************************************/
  15:/home/tienluong/workspace/atlantis_fw/AsicFwS2/src/lcc_cmd_base_0000.c **** /* Includes ------------------------------------------------------------------*/
  16:/home/tienluong/workspace/atlantis_fw/AsicFwS2/src/lcc_cmd_base_0000.c **** #include "os.h"
  17:/home/tienluong/workspace/atlantis_fw/AsicFwS2/src/lcc_cmd_base_0000.c **** #include "assert.h"
  18:/home/tienluong/workspace/atlantis_fw/AsicFwS2/src/lcc_cmd_base_0000.c **** #include "log.h"
  19:/home/tienluong/workspace/atlantis_fw/AsicFwS2/src/lcc_cmd_base_0000.c **** #include "i2cm.h"
  20:/home/tienluong/workspace/atlantis_fw/AsicFwS2/src/lcc_cmd_base_0000.c **** #include "lcc_cmd.h"
  21:/home/tienluong/workspace/atlantis_fw/AsicFwS2/src/lcc_cmd_base_0000.c **** #include "lcc_cmd_log.h"
  22:/home/tienluong/workspace/atlantis_fw/AsicFwS2/src/lcc_cmd_base_0000.c **** #include "lcc_system.h"
  23:/home/tienluong/workspace/atlantis_fw/AsicFwS2/src/lcc_cmd_base_0000.c **** #include "light_system.h"
  24:/home/tienluong/workspace/atlantis_fw/AsicFwS2/src/lcc_cmd_base_0000.c **** #include "task_cam_ctrl.h"
  25:/home/tienluong/workspace/atlantis_fw/AsicFwS2/src/lcc_cmd_base_0000.c **** #include "task_ccb_ctrl.h"
  26:/home/tienluong/workspace/atlantis_fw/AsicFwS2/src/lcc_cmd_base_0000.c **** #include "optical.h"
  27:/home/tienluong/workspace/atlantis_fw/AsicFwS2/src/lcc_cmd_base_0000.c **** #include "usecase.h"
  28:/home/tienluong/workspace/atlantis_fw/AsicFwS2/src/lcc_cmd_base_0000.c **** #include "actuator.h"
  29:/home/tienluong/workspace/atlantis_fw/AsicFwS2/src/lcc_cmd_base_0000.c **** 
  30:/home/tienluong/workspace/atlantis_fw/AsicFwS2/src/lcc_cmd_base_0000.c **** /* Private defines------------------------------------------------------------*/
  31:/home/tienluong/workspace/atlantis_fw/AsicFwS2/src/lcc_cmd_base_0000.c **** #define SLOGF_ID				SLOG_ID_LCC_CMD_BASE_0000
  32:/home/tienluong/workspace/atlantis_fw/AsicFwS2/src/lcc_cmd_base_0000.c **** 
  33:/home/tienluong/workspace/atlantis_fw/AsicFwS2/src/lcc_cmd_base_0000.c **** #define CAM_COMMAND_STATUS_LEN	4
  34:/home/tienluong/workspace/atlantis_fw/AsicFwS2/src/lcc_cmd_base_0000.c **** 
  35:/home/tienluong/workspace/atlantis_fw/AsicFwS2/src/lcc_cmd_base_0000.c **** #define I2C_RW_MASK				0x01
  36:/home/tienluong/workspace/atlantis_fw/AsicFwS2/src/lcc_cmd_base_0000.c **** #define I2C_RW_READ				0x01
  37:/home/tienluong/workspace/atlantis_fw/AsicFwS2/src/lcc_cmd_base_0000.c **** #define I2C_RW_WRITE			0x00
  38:/home/tienluong/workspace/atlantis_fw/AsicFwS2/src/lcc_cmd_base_0000.c **** #define TIMEOUT					30
  39:/home/tienluong/workspace/atlantis_fw/AsicFwS2/src/lcc_cmd_base_0000.c **** 
  40:/home/tienluong/workspace/atlantis_fw/AsicFwS2/src/lcc_cmd_base_0000.c **** extern float i2c_write_delay_sec_asic1;
  41:/home/tienluong/workspace/atlantis_fw/AsicFwS2/src/lcc_cmd_base_0000.c **** extern float i2c_write_delay_sec_asic23;
  42:/home/tienluong/workspace/atlantis_fw/AsicFwS2/src/lcc_cmd_base_0000.c **** /* Exported functions --------------------------------------------------------*/
  43:/home/tienluong/workspace/atlantis_fw/AsicFwS2/src/lcc_cmd_base_0000.c **** /**
  44:/home/tienluong/workspace/atlantis_fw/AsicFwS2/src/lcc_cmd_base_0000.c ****  * cmd_cam_module_open
  45:/home/tienluong/workspace/atlantis_fw/AsicFwS2/src/lcc_cmd_base_0000.c ****  * Handle camera open command
  46:/home/tienluong/workspace/atlantis_fw/AsicFwS2/src/lcc_cmd_base_0000.c ****  */
  47:/home/tienluong/workspace/atlantis_fw/AsicFwS2/src/lcc_cmd_base_0000.c **** void cmd_cam_module_open(lcc_cmd_t *in, lcc_cmd_t *out)
  48:/home/tienluong/workspace/atlantis_fw/AsicFwS2/src/lcc_cmd_base_0000.c **** {
  27              		.loc 1 48 0
  28              		.cfi_startproc
  29              		@ args = 0, pretend = 0, frame = 16
  30              		@ frame_needed = 0, uses_anonymous_args = 0
  31              	.LVL0:
  32 0000 2DE9F04F 		push	{r4, r5, r6, r7, r8, r9, r10, fp, lr}
  33              	.LCFI0:
  34              		.cfi_def_cfa_offset 36
  35              		.cfi_offset 4, -36
  36              		.cfi_offset 5, -32
  37              		.cfi_offset 6, -28
  38              		.cfi_offset 7, -24
  39              		.cfi_offset 8, -20
  40              		.cfi_offset 9, -16
  41              		.cfi_offset 10, -12
  42              		.cfi_offset 11, -8
  43              		.cfi_offset 14, -4
  49:/home/tienluong/workspace/atlantis_fw/AsicFwS2/src/lcc_cmd_base_0000.c **** 	lcc_cmd_tid_t p_cmd;
  50:/home/tienluong/workspace/atlantis_fw/AsicFwS2/src/lcc_cmd_base_0000.c **** 	cam_typedef_t *p_cam;
  51:/home/tienluong/workspace/atlantis_fw/AsicFwS2/src/lcc_cmd_base_0000.c **** 	lcc_cmd_info_t cmd = (lcc_cmd_info_t)(LCC_CMD_CAM_MODULE_OPEN);
  52:/home/tienluong/workspace/atlantis_fw/AsicFwS2/src/lcc_cmd_base_0000.c **** 	uint32_t m_bitmask = in->m_bitmask;
  53:/home/tienluong/workspace/atlantis_fw/AsicFwS2/src/lcc_cmd_base_0000.c **** 	uint8_t i, cam_idx, data_cnt = 0;
  54:/home/tienluong/workspace/atlantis_fw/AsicFwS2/src/lcc_cmd_base_0000.c **** 	if (CMD_READ == in->action)
  44              		.loc 1 54 0
  45 0004 C37C     		ldrb	r3, [r0, #19]	@ zero_extendqisi2
  46 0006 DB07     		lsls	r3, r3, #31
  48:/home/tienluong/workspace/atlantis_fw/AsicFwS2/src/lcc_cmd_base_0000.c **** 	lcc_cmd_tid_t p_cmd;
  47              		.loc 1 48 0
  48 0008 85B0     		sub	sp, sp, #20
  49              	.LCFI1:
  50              		.cfi_def_cfa_offset 56
  48:/home/tienluong/workspace/atlantis_fw/AsicFwS2/src/lcc_cmd_base_0000.c **** 	lcc_cmd_tid_t p_cmd;
  51              		.loc 1 48 0
  52 000a 0546     		mov	r5, r0
  53 000c 8946     		mov	r9, r1
  52:/home/tienluong/workspace/atlantis_fw/AsicFwS2/src/lcc_cmd_base_0000.c **** 	uint8_t i, cam_idx, data_cnt = 0;
  54              		.loc 1 52 0
  55 000e D0F800A0 		ldr	r10, [r0]
  56              	.LVL1:
  57              		.loc 1 54 0
  58 0012 02D4     		bmi	.L2
  59              	.LVL2:
  60              	.L4:
  48:/home/tienluong/workspace/atlantis_fw/AsicFwS2/src/lcc_cmd_base_0000.c **** 	lcc_cmd_tid_t p_cmd;
  61              		.loc 1 48 0
  62 0014 0027     		movs	r7, #0
  63 0016 B846     		mov	r8, r7
  64 0018 2DE0     		b	.L3
  65              	.LVL3:
  66              	.L2:
  55:/home/tienluong/workspace/atlantis_fw/AsicFwS2/src/lcc_cmd_base_0000.c **** 	{
  56:/home/tienluong/workspace/atlantis_fw/AsicFwS2/src/lcc_cmd_base_0000.c **** 		out->data = pvPortMalloc(in->m_number*cmd.size);
  67              		.loc 1 56 0
  68 001a 807C     		ldrb	r0, [r0, #18]	@ zero_extendqisi2
  69              	.LVL4:
  70 001c 4449     		ldr	r1, .L18
  71              	.LVL5:
  72 001e 3822     		movs	r2, #56
  73 0020 444B     		ldr	r3, .L18+4
  74 0022 9847     		blx	r3
  75              	.LVL6:
  76 0024 0446     		mov	r4, r0
  77 0026 C9F80400 		str	r0, [r9, #4]
  57:/home/tienluong/workspace/atlantis_fw/AsicFwS2/src/lcc_cmd_base_0000.c **** 		if (NULL == out->data)
  78              		.loc 1 57 0
  79 002a 0028     		cmp	r0, #0
  80 002c F2D1     		bne	.L4
  58:/home/tienluong/workspace/atlantis_fw/AsicFwS2/src/lcc_cmd_base_0000.c **** 		{
  59:/home/tienluong/workspace/atlantis_fw/AsicFwS2/src/lcc_cmd_base_0000.c **** 			SLOGF(SLOG_ERROR, "%s: Lack of memory", __FUNCTION__);
  81              		.loc 1 59 0
  82 002e 2120     		movs	r0, #33
  83 0030 0221     		movs	r1, #2
  84 0032 414A     		ldr	r2, .L18+8
  85 0034 3E4B     		ldr	r3, .L18
  86 0036 414E     		ldr	r6, .L18+12
  87 0038 B047     		blx	r6
  88              	.LVL7:
  60:/home/tienluong/workspace/atlantis_fw/AsicFwS2/src/lcc_cmd_base_0000.c **** 			in->status = LCC_CMD_UNSUCCESS;
  89              		.loc 1 60 0
  90 003a 2C82     		strh	r4, [r5, #16]	@ movhi
  61:/home/tienluong/workspace/atlantis_fw/AsicFwS2/src/lcc_cmd_base_0000.c **** 			return;
  91              		.loc 1 61 0
  92 003c 74E0     		b	.L1
  93              	.LVL8:
  94              	.L6:
  62:/home/tienluong/workspace/atlantis_fw/AsicFwS2/src/lcc_cmd_base_0000.c **** 		}
  63:/home/tienluong/workspace/atlantis_fw/AsicFwS2/src/lcc_cmd_base_0000.c **** 	}
  64:/home/tienluong/workspace/atlantis_fw/AsicFwS2/src/lcc_cmd_base_0000.c **** 
  65:/home/tienluong/workspace/atlantis_fw/AsicFwS2/src/lcc_cmd_base_0000.c **** 	/* Scan camera bitmask */
  66:/home/tienluong/workspace/atlantis_fw/AsicFwS2/src/lcc_cmd_base_0000.c **** 	for (i = 0; i < in->m_number; i++)
  67:/home/tienluong/workspace/atlantis_fw/AsicFwS2/src/lcc_cmd_base_0000.c **** 	{
  68:/home/tienluong/workspace/atlantis_fw/AsicFwS2/src/lcc_cmd_base_0000.c **** 		cam_idx = __builtin_ctz(m_bitmask);
  69:/home/tienluong/workspace/atlantis_fw/AsicFwS2/src/lcc_cmd_base_0000.c **** 		m_bitmask &= ~(1 << cam_idx);
  70:/home/tienluong/workspace/atlantis_fw/AsicFwS2/src/lcc_cmd_base_0000.c **** 		/* Get camera object from camera object list */
  71:/home/tienluong/workspace/atlantis_fw/AsicFwS2/src/lcc_cmd_base_0000.c **** 		p_cam = idx_to_object(cam_idx);
  72:/home/tienluong/workspace/atlantis_fw/AsicFwS2/src/lcc_cmd_base_0000.c **** 		if (NULL == p_cam)	/* Verify object is valid */
  73:/home/tienluong/workspace/atlantis_fw/AsicFwS2/src/lcc_cmd_base_0000.c **** 		{
  74:/home/tienluong/workspace/atlantis_fw/AsicFwS2/src/lcc_cmd_base_0000.c **** 			in->status = LCC_CMD_ERROR_INVALID_MBITMASK;
  75:/home/tienluong/workspace/atlantis_fw/AsicFwS2/src/lcc_cmd_base_0000.c **** 			return;
  76:/home/tienluong/workspace/atlantis_fw/AsicFwS2/src/lcc_cmd_base_0000.c **** 		}
  77:/home/tienluong/workspace/atlantis_fw/AsicFwS2/src/lcc_cmd_base_0000.c **** 
  78:/home/tienluong/workspace/atlantis_fw/AsicFwS2/src/lcc_cmd_base_0000.c **** 		/* Read command processing */
  79:/home/tienluong/workspace/atlantis_fw/AsicFwS2/src/lcc_cmd_base_0000.c **** 		if (CMD_READ == in->action)
  95              		.loc 1 79 0
  96 003e EC7C     		ldrb	r4, [r5, #19]	@ zero_extendqisi2
  97 0040 14F00104 		ands	r4, r4, #1
  98 0044 2ED0     		beq	.L7
  80:/home/tienluong/workspace/atlantis_fw/AsicFwS2/src/lcc_cmd_base_0000.c **** 		{
  81:/home/tienluong/workspace/atlantis_fw/AsicFwS2/src/lcc_cmd_base_0000.c **** 			/* TODO: Take semaphore to access settings memory */
  82:/home/tienluong/workspace/atlantis_fw/AsicFwS2/src/lcc_cmd_base_0000.c **** 			xSemaphoreTake(p_cam->semaphore, portMAX_DELAY);
  99              		.loc 1 82 0
 100 0046 0021     		movs	r1, #0
 101 0048 0B46     		mov	r3, r1
 102 004a 4FF0FF32 		mov	r2, #-1
 103 004e 3C4C     		ldr	r4, .L18+16
 104 0050 006B     		ldr	r0, [r0, #48]
 105              	.LVL9:
 106 0052 A047     		blx	r4
 107              	.LVL10:
  83:/home/tienluong/workspace/atlantis_fw/AsicFwS2/src/lcc_cmd_base_0000.c **** 			out->data[out->len++] = p_cam->settings->open;
 108              		.loc 1 83 0
 109 0054 B9F80830 		ldrh	r3, [r9, #8]
 110 0058 591C     		adds	r1, r3, #1
 111 005a D9F80420 		ldr	r2, [r9, #4]
 112 005e A9F80810 		strh	r1, [r9, #8]	@ movhi
 113 0062 B168     		ldr	r1, [r6, #8]
 114 0064 0978     		ldrb	r1, [r1]	@ zero_extendqisi2
 115 0066 D154     		strb	r1, [r2, r3]
  84:/home/tienluong/workspace/atlantis_fw/AsicFwS2/src/lcc_cmd_base_0000.c **** 			/* TODO: Release semaphore after read data */
  85:/home/tienluong/workspace/atlantis_fw/AsicFwS2/src/lcc_cmd_base_0000.c **** 			xSemaphoreGive(p_cam->semaphore);
 116              		.loc 1 85 0
 117 0068 0021     		movs	r1, #0
 118 006a 306B     		ldr	r0, [r6, #48]
 119 006c 0A46     		mov	r2, r1
 120 006e 0B46     		mov	r3, r1
 121 0070 344C     		ldr	r4, .L18+20
 122 0072 A047     		blx	r4
 123              	.LVL11:
 124              	.L8:
 125 0074 0137     		adds	r7, r7, #1
 126              	.LVL12:
 127              	.L3:
  66:/home/tienluong/workspace/atlantis_fw/AsicFwS2/src/lcc_cmd_base_0000.c **** 	{
 128              		.loc 1 66 0 discriminator 1
 129 0076 FBB2     		uxtb	r3, r7
 130 0078 AA7C     		ldrb	r2, [r5, #18]	@ zero_extendqisi2
 131 007a 9A42     		cmp	r2, r3
 132 007c 54D9     		bls	.L1
  69:/home/tienluong/workspace/atlantis_fw/AsicFwS2/src/lcc_cmd_base_0000.c **** 		/* Get camera object from camera object list */
 133              		.loc 1 69 0
 134 007e 4FF0010B 		mov	fp, #1
  68:/home/tienluong/workspace/atlantis_fw/AsicFwS2/src/lcc_cmd_base_0000.c **** 		m_bitmask &= ~(1 << cam_idx);
 135              		.loc 1 68 0
 136 0082 9AFAAAF0 		rbit	r0, r10
 137 0086 B0FA80F0 		clz	r0, r0
 138              	.LVL13:
  69:/home/tienluong/workspace/atlantis_fw/AsicFwS2/src/lcc_cmd_base_0000.c **** 		/* Get camera object from camera object list */
 139              		.loc 1 69 0
 140 008a 0BFA00F3 		lsl	r3, fp, r0
 141 008e 2AEA030A 		bic	r10, r10, r3
 142              	.LVL14:
 143 0092 0193     		str	r3, [sp, #4]
  71:/home/tienluong/workspace/atlantis_fw/AsicFwS2/src/lcc_cmd_base_0000.c **** 		if (NULL == p_cam)	/* Verify object is valid */
 144              		.loc 1 71 0
 145 0094 2C4B     		ldr	r3, .L18+24
 146 0096 9847     		blx	r3
 147              	.LVL15:
  72:/home/tienluong/workspace/atlantis_fw/AsicFwS2/src/lcc_cmd_base_0000.c **** 		{
 148              		.loc 1 72 0
 149 0098 0646     		mov	r6, r0
 150 009a 0028     		cmp	r0, #0
 151 009c CFD1     		bne	.L6
  74:/home/tienluong/workspace/atlantis_fw/AsicFwS2/src/lcc_cmd_base_0000.c **** 			return;
 152              		.loc 1 74 0
 153 009e 0823     		movs	r3, #8
 154 00a0 2B82     		strh	r3, [r5, #16]	@ movhi
  75:/home/tienluong/workspace/atlantis_fw/AsicFwS2/src/lcc_cmd_base_0000.c **** 		}
 155              		.loc 1 75 0
 156 00a2 41E0     		b	.L1
 157              	.L7:
  86:/home/tienluong/workspace/atlantis_fw/AsicFwS2/src/lcc_cmd_base_0000.c **** 		}
  87:/home/tienluong/workspace/atlantis_fw/AsicFwS2/src/lcc_cmd_base_0000.c **** 		/* Write command processing */
  88:/home/tienluong/workspace/atlantis_fw/AsicFwS2/src/lcc_cmd_base_0000.c **** 		else
  89:/home/tienluong/workspace/atlantis_fw/AsicFwS2/src/lcc_cmd_base_0000.c **** 		{
  90:/home/tienluong/workspace/atlantis_fw/AsicFwS2/src/lcc_cmd_base_0000.c **** 			if (CAM_MODULE_MODE_MAX > in->data[data_cnt])
 158              		.loc 1 90 0
 159 00a4 6B68     		ldr	r3, [r5, #4]
 160 00a6 13F80830 		ldrb	r3, [r3, r8]	@ zero_extendqisi2
 161 00aa 022B     		cmp	r3, #2
  91:/home/tienluong/workspace/atlantis_fw/AsicFwS2/src/lcc_cmd_base_0000.c **** 			{
  92:/home/tienluong/workspace/atlantis_fw/AsicFwS2/src/lcc_cmd_base_0000.c **** 				SLOGF(SLOG_DEBUG, "Open CAM-%X request", p_cam->info.module);
 162              		.loc 1 92 0
 163 00ac 4FF02100 		mov	r0, #33
 164              	.LVL16:
 165 00b0 DFF888C0 		ldr	ip, .L18+12
  90:/home/tienluong/workspace/atlantis_fw/AsicFwS2/src/lcc_cmd_base_0000.c **** 			{
 166              		.loc 1 90 0
 167 00b4 29D8     		bhi	.L9
 168              		.loc 1 92 0
 169 00b6 1021     		movs	r1, #16
 170 00b8 96F82930 		ldrb	r3, [r6, #41]	@ zero_extendqisi2
 171 00bc 234A     		ldr	r2, .L18+28
 172 00be E047     		blx	ip
 173              	.LVL17:
  93:/home/tienluong/workspace/atlantis_fw/AsicFwS2/src/lcc_cmd_base_0000.c **** 				xSemaphoreTake(p_cam->semaphore, portMAX_DELAY);
 174              		.loc 1 93 0
 175 00c0 2146     		mov	r1, r4
 176 00c2 4FF0FF32 		mov	r2, #-1
 177 00c6 2346     		mov	r3, r4
 178 00c8 DFF874C0 		ldr	ip, .L18+16
 179 00cc 306B     		ldr	r0, [r6, #48]
 180 00ce E047     		blx	ip
 181              	.LVL18:
  94:/home/tienluong/workspace/atlantis_fw/AsicFwS2/src/lcc_cmd_base_0000.c **** 				p_cam->settings->open = in->data[data_cnt];
 182              		.loc 1 94 0
 183 00d0 B368     		ldr	r3, [r6, #8]
 184 00d2 6A68     		ldr	r2, [r5, #4]
  95:/home/tienluong/workspace/atlantis_fw/AsicFwS2/src/lcc_cmd_base_0000.c **** 				p_cmd.cmd_tid = in->tid;
  96:/home/tienluong/workspace/atlantis_fw/AsicFwS2/src/lcc_cmd_base_0000.c **** 				p_cmd.event = IMG_EVENT_CAM_OPEN;
  97:/home/tienluong/workspace/atlantis_fw/AsicFwS2/src/lcc_cmd_base_0000.c **** 				xSemaphoreGive(p_cam->semaphore);
 185              		.loc 1 97 0
 186 00d4 2146     		mov	r1, r4
  94:/home/tienluong/workspace/atlantis_fw/AsicFwS2/src/lcc_cmd_base_0000.c **** 				p_cam->settings->open = in->data[data_cnt];
 187              		.loc 1 94 0
 188 00d6 12F80820 		ldrb	r2, [r2, r8]	@ zero_extendqisi2
 189 00da 1A70     		strb	r2, [r3]
  96:/home/tienluong/workspace/atlantis_fw/AsicFwS2/src/lcc_cmd_base_0000.c **** 				xSemaphoreGive(p_cam->semaphore);
 190              		.loc 1 96 0
 191 00dc CDF80CB0 		str	fp, [sp, #12]
  95:/home/tienluong/workspace/atlantis_fw/AsicFwS2/src/lcc_cmd_base_0000.c **** 				p_cmd.cmd_tid = in->tid;
 192              		.loc 1 95 0
 193 00e0 6B89     		ldrh	r3, [r5, #10]
 194              		.loc 1 97 0
 195 00e2 2246     		mov	r2, r4
  95:/home/tienluong/workspace/atlantis_fw/AsicFwS2/src/lcc_cmd_base_0000.c **** 				p_cmd.cmd_tid = in->tid;
 196              		.loc 1 95 0
 197 00e4 ADF80830 		strh	r3, [sp, #8]	@ movhi
 198              		.loc 1 97 0
 199 00e8 2346     		mov	r3, r4
 200 00ea 306B     		ldr	r0, [r6, #48]
 201 00ec DFF854B0 		ldr	fp, .L18+20
 202 00f0 D847     		blx	fp
 203              	.LVL19:
  98:/home/tienluong/workspace/atlantis_fw/AsicFwS2/src/lcc_cmd_base_0000.c **** 				/* Raise a updating signal to camera task for this ASIC */
  99:/home/tienluong/workspace/atlantis_fw/AsicFwS2/src/lcc_cmd_base_0000.c **** 				if (light_system->m_filter & (1 << cam_idx))
 204              		.loc 1 99 0
 205 00f2 174B     		ldr	r3, .L18+32
 206 00f4 019A     		ldr	r2, [sp, #4]
 207 00f6 1B68     		ldr	r3, [r3]
 208 00f8 9B69     		ldr	r3, [r3, #24]
 209 00fa 1A42     		tst	r2, r3
 210 00fc 0AD0     		beq	.L10
 100:/home/tienluong/workspace/atlantis_fw/AsicFwS2/src/lcc_cmd_base_0000.c **** 				{
 101:/home/tienluong/workspace/atlantis_fw/AsicFwS2/src/lcc_cmd_base_0000.c **** 					xQueueSend(p_cam->queue, &p_cmd, (TickType_t)10);
 211              		.loc 1 101 0
 212 00fe 706B     		ldr	r0, [r6, #52]
 213 0100 02A9     		add	r1, sp, #8
 214 0102 0A22     		movs	r2, #10
 215 0104 2346     		mov	r3, r4
 216 0106 D847     		blx	fp
 217              	.LVL20:
 218 0108 04E0     		b	.L10
 219              	.L9:
 102:/home/tienluong/workspace/atlantis_fw/AsicFwS2/src/lcc_cmd_base_0000.c **** 				}
 103:/home/tienluong/workspace/atlantis_fw/AsicFwS2/src/lcc_cmd_base_0000.c **** 			}
 104:/home/tienluong/workspace/atlantis_fw/AsicFwS2/src/lcc_cmd_base_0000.c **** 			else
 105:/home/tienluong/workspace/atlantis_fw/AsicFwS2/src/lcc_cmd_base_0000.c **** 			{
 106:/home/tienluong/workspace/atlantis_fw/AsicFwS2/src/lcc_cmd_base_0000.c **** 				SLOGF(SLOG_WARN, "Open mode invalid!");
 220              		.loc 1 106 0
 221 010a 0421     		movs	r1, #4
 222 010c 114A     		ldr	r2, .L18+36
 223 010e E047     		blx	ip
 224              	.LVL21:
 107:/home/tienluong/workspace/atlantis_fw/AsicFwS2/src/lcc_cmd_base_0000.c **** 				in->status = LCC_CMD_INVALID_ARG;
 225              		.loc 1 107 0
 226 0110 0423     		movs	r3, #4
 227 0112 2B82     		strh	r3, [r5, #16]	@ movhi
 228              	.L10:
 108:/home/tienluong/workspace/atlantis_fw/AsicFwS2/src/lcc_cmd_base_0000.c **** 			}
 109:/home/tienluong/workspace/atlantis_fw/AsicFwS2/src/lcc_cmd_base_0000.c **** 			/* Set data pointer when command was set for global */
 110:/home/tienluong/workspace/atlantis_fw/AsicFwS2/src/lcc_cmd_base_0000.c **** 			data_cnt += in->global ? 0 : cmd.size;
 229              		.loc 1 110 0
 230 0114 EB7C     		ldrb	r3, [r5, #19]	@ zero_extendqisi2
 231 0116 13F0020F 		tst	r3, #2
 232 011a 0CBF     		ite	eq
 233 011c 0124     		moveq	r4, #1
 234 011e 0024     		movne	r4, #0
 235 0120 A044     		add	r8, r8, r4
 236              	.LVL22:
 237 0122 5FFA88F8 		uxtb	r8, r8
 238              	.LVL23:
 239 0126 A5E7     		b	.L8
 240              	.LVL24:
 241              	.L1:
 111:/home/tienluong/workspace/atlantis_fw/AsicFwS2/src/lcc_cmd_base_0000.c **** 		}
 112:/home/tienluong/workspace/atlantis_fw/AsicFwS2/src/lcc_cmd_base_0000.c **** 	}
 113:/home/tienluong/workspace/atlantis_fw/AsicFwS2/src/lcc_cmd_base_0000.c **** 	/* The command status will be updated in either lcc_cmd task
 114:/home/tienluong/workspace/atlantis_fw/AsicFwS2/src/lcc_cmd_base_0000.c **** 	 * (read command) or task_cam_ctrl (write command)*/
 115:/home/tienluong/workspace/atlantis_fw/AsicFwS2/src/lcc_cmd_base_0000.c **** }
 242              		.loc 1 115 0
 243 0128 05B0     		add	sp, sp, #20
 244              	.LCFI2:
 245              		.cfi_def_cfa_offset 36
 246              		@ sp needed
 247 012a BDE8F08F 		pop	{r4, r5, r6, r7, r8, r9, r10, fp, pc}
 248              	.LVL25:
 249              	.L19:
 250 012e 00BF     		.align	2
 251              	.L18:
 252 0130 00000000 		.word	.LANCHOR0
 253 0134 00000000 		.word	pvPortMalloc1
 254 0138 00000000 		.word	.LC0
 255 013c 00000000 		.word	slogf
 256 0140 00000000 		.word	xQueueGenericReceive
 257 0144 00000000 		.word	xQueueGenericSend
 258 0148 00000000 		.word	idx_to_object
 259 014c 13000000 		.word	.LC1
 260 0150 00000000 		.word	light_system
 261 0154 27000000 		.word	.LC2
 262              		.cfi_endproc
 263              	.LFE1:
 265              		.global	__popcountsi2
 266              		.section	.text.cmd_cam_streaming,"ax",%progbits
 267              		.align	1
 268              		.global	cmd_cam_streaming
 269              		.thumb
 270              		.thumb_func
 272              	cmd_cam_streaming:
 273              	.LFB2:
 116:/home/tienluong/workspace/atlantis_fw/AsicFwS2/src/lcc_cmd_base_0000.c **** 
 117:/home/tienluong/workspace/atlantis_fw/AsicFwS2/src/lcc_cmd_base_0000.c **** extern uint8_t rx_end_flag;
 118:/home/tienluong/workspace/atlantis_fw/AsicFwS2/src/lcc_cmd_base_0000.c **** /**
 119:/home/tienluong/workspace/atlantis_fw/AsicFwS2/src/lcc_cmd_base_0000.c ****  * cmd_cam_streaming
 120:/home/tienluong/workspace/atlantis_fw/AsicFwS2/src/lcc_cmd_base_0000.c ****  *
 121:/home/tienluong/workspace/atlantis_fw/AsicFwS2/src/lcc_cmd_base_0000.c ****  */
 122:/home/tienluong/workspace/atlantis_fw/AsicFwS2/src/lcc_cmd_base_0000.c **** void cmd_cam_streaming(lcc_cmd_t *in, lcc_cmd_t *out)
 123:/home/tienluong/workspace/atlantis_fw/AsicFwS2/src/lcc_cmd_base_0000.c **** {
 274              		.loc 1 123 0
 275              		.cfi_startproc
 276              		@ args = 0, pretend = 0, frame = 32
 277              		@ frame_needed = 0, uses_anonymous_args = 0
 278              	.LVL26:
 279 0000 2DE9F04F 		push	{r4, r5, r6, r7, r8, r9, r10, fp, lr}
 280              	.LCFI3:
 281              		.cfi_def_cfa_offset 36
 282              		.cfi_offset 4, -36
 283              		.cfi_offset 5, -32
 284              		.cfi_offset 6, -28
 285              		.cfi_offset 7, -24
 286              		.cfi_offset 8, -20
 287              		.cfi_offset 9, -16
 288              		.cfi_offset 10, -12
 289              		.cfi_offset 11, -8
 290              		.cfi_offset 14, -4
 291 0004 89B0     		sub	sp, sp, #36
 292              	.LCFI4:
 293              		.cfi_def_cfa_offset 72
 124:/home/tienluong/workspace/atlantis_fw/AsicFwS2/src/lcc_cmd_base_0000.c **** 	lcc_cmd_tid_t p_cmd;
 125:/home/tienluong/workspace/atlantis_fw/AsicFwS2/src/lcc_cmd_base_0000.c **** 	uint8_t idx = 0;
 126:/home/tienluong/workspace/atlantis_fw/AsicFwS2/src/lcc_cmd_base_0000.c **** 	uint16_t data_idx = 0;
 127:/home/tienluong/workspace/atlantis_fw/AsicFwS2/src/lcc_cmd_base_0000.c **** 	uint8_t cam_idx = 0;
 128:/home/tienluong/workspace/atlantis_fw/AsicFwS2/src/lcc_cmd_base_0000.c **** 	uint32_t m_bitmask = in->m_bitmask;
 294              		.loc 1 128 0
 295 0006 0368     		ldr	r3, [r0]
 123:/home/tienluong/workspace/atlantis_fw/AsicFwS2/src/lcc_cmd_base_0000.c **** 	lcc_cmd_tid_t p_cmd;
 296              		.loc 1 123 0
 297 0008 0446     		mov	r4, r0
 298              		.loc 1 128 0
 299 000a 0293     		str	r3, [sp, #8]
 300              	.LVL27:
 129:/home/tienluong/workspace/atlantis_fw/AsicFwS2/src/lcc_cmd_base_0000.c **** 	uint8_t control_status = 0;
 130:/home/tienluong/workspace/atlantis_fw/AsicFwS2/src/lcc_cmd_base_0000.c **** 	uint32_t cam_status = 0;
 301              		.loc 1 130 0
 302 000c 0023     		movs	r3, #0
 303              	.LVL28:
 123:/home/tienluong/workspace/atlantis_fw/AsicFwS2/src/lcc_cmd_base_0000.c **** 	lcc_cmd_tid_t p_cmd;
 304              		.loc 1 123 0
 305 000e 8946     		mov	r9, r1
 306              		.loc 1 130 0
 307 0010 0493     		str	r3, [sp, #16]
 308              	.LVL29:
 131:/home/tienluong/workspace/atlantis_fw/AsicFwS2/src/lcc_cmd_base_0000.c **** 	uint32_t stream_on_msk = 0;
 132:/home/tienluong/workspace/atlantis_fw/AsicFwS2/src/lcc_cmd_base_0000.c **** 	uint8_t wait_asics = 0;
 133:/home/tienluong/workspace/atlantis_fw/AsicFwS2/src/lcc_cmd_base_0000.c **** 	cam_data_t	*cache;
 134:/home/tienluong/workspace/atlantis_fw/AsicFwS2/src/lcc_cmd_base_0000.c **** 	cam_typedef_t *pcam = NULL;
 135:/home/tienluong/workspace/atlantis_fw/AsicFwS2/src/lcc_cmd_base_0000.c **** 	lcc_cmd_info_t cmd = (lcc_cmd_info_t)(LCC_CMD_CAM_STREAMING);
 136:/home/tienluong/workspace/atlantis_fw/AsicFwS2/src/lcc_cmd_base_0000.c **** 
 137:/home/tienluong/workspace/atlantis_fw/AsicFwS2/src/lcc_cmd_base_0000.c **** 	if (CMD_READ == in->action)
 309              		.loc 1 137 0
 310 0012 C37C     		ldrb	r3, [r0, #19]	@ zero_extendqisi2
 311 0014 DA07     		lsls	r2, r3, #31
 312 0016 04D4     		bmi	.L21
 313              	.LVL30:
 314              	.L23:
 315              	.LBB2:
 138:/home/tienluong/workspace/atlantis_fw/AsicFwS2/src/lcc_cmd_base_0000.c **** 	{
 139:/home/tienluong/workspace/atlantis_fw/AsicFwS2/src/lcc_cmd_base_0000.c **** 		out->data = pvPortMalloc(in->m_number * cmd.size);
 140:/home/tienluong/workspace/atlantis_fw/AsicFwS2/src/lcc_cmd_base_0000.c **** 		if (NULL == out->data)
 141:/home/tienluong/workspace/atlantis_fw/AsicFwS2/src/lcc_cmd_base_0000.c **** 		{
 142:/home/tienluong/workspace/atlantis_fw/AsicFwS2/src/lcc_cmd_base_0000.c **** 			SLOGF(SLOG_ERROR, "%s: Lack of memory", __FUNCTION__);
 143:/home/tienluong/workspace/atlantis_fw/AsicFwS2/src/lcc_cmd_base_0000.c **** 			in->status = LCC_CMD_UNSUCCESS;
 144:/home/tienluong/workspace/atlantis_fw/AsicFwS2/src/lcc_cmd_base_0000.c **** 			return;
 145:/home/tienluong/workspace/atlantis_fw/AsicFwS2/src/lcc_cmd_base_0000.c **** 		}
 146:/home/tienluong/workspace/atlantis_fw/AsicFwS2/src/lcc_cmd_base_0000.c **** 	}
 147:/home/tienluong/workspace/atlantis_fw/AsicFwS2/src/lcc_cmd_base_0000.c **** 
 148:/home/tienluong/workspace/atlantis_fw/AsicFwS2/src/lcc_cmd_base_0000.c **** 	for(idx = 0; idx < in->m_number; idx++)
 149:/home/tienluong/workspace/atlantis_fw/AsicFwS2/src/lcc_cmd_base_0000.c **** 	{
 150:/home/tienluong/workspace/atlantis_fw/AsicFwS2/src/lcc_cmd_base_0000.c **** 		cam_idx = __builtin_ctz(m_bitmask);
 151:/home/tienluong/workspace/atlantis_fw/AsicFwS2/src/lcc_cmd_base_0000.c **** 		m_bitmask &= ~(1 << cam_idx);
 152:/home/tienluong/workspace/atlantis_fw/AsicFwS2/src/lcc_cmd_base_0000.c **** 		pcam = idx_to_object(cam_idx);
 153:/home/tienluong/workspace/atlantis_fw/AsicFwS2/src/lcc_cmd_base_0000.c **** 		if(pcam)
 154:/home/tienluong/workspace/atlantis_fw/AsicFwS2/src/lcc_cmd_base_0000.c **** 		{
 155:/home/tienluong/workspace/atlantis_fw/AsicFwS2/src/lcc_cmd_base_0000.c **** 			if(CMD_READ == in->action)
 156:/home/tienluong/workspace/atlantis_fw/AsicFwS2/src/lcc_cmd_base_0000.c **** 			{
 157:/home/tienluong/workspace/atlantis_fw/AsicFwS2/src/lcc_cmd_base_0000.c **** 				xSemaphoreTake(pcam->semaphore, portMAX_DELAY);
 158:/home/tienluong/workspace/atlantis_fw/AsicFwS2/src/lcc_cmd_base_0000.c **** 				cache = pcam->settings;
 159:/home/tienluong/workspace/atlantis_fw/AsicFwS2/src/lcc_cmd_base_0000.c **** 				memcpy(&out->data[out->len], cache->stream, cmd.size);
 160:/home/tienluong/workspace/atlantis_fw/AsicFwS2/src/lcc_cmd_base_0000.c **** 				xSemaphoreGive(pcam->semaphore);
 161:/home/tienluong/workspace/atlantis_fw/AsicFwS2/src/lcc_cmd_base_0000.c **** 				out->len += cmd.size;
 162:/home/tienluong/workspace/atlantis_fw/AsicFwS2/src/lcc_cmd_base_0000.c **** 			}
 163:/home/tienluong/workspace/atlantis_fw/AsicFwS2/src/lcc_cmd_base_0000.c **** 			else
 164:/home/tienluong/workspace/atlantis_fw/AsicFwS2/src/lcc_cmd_base_0000.c **** 			{
 165:/home/tienluong/workspace/atlantis_fw/AsicFwS2/src/lcc_cmd_base_0000.c **** 				cache = pcam->settings;
 166:/home/tienluong/workspace/atlantis_fw/AsicFwS2/src/lcc_cmd_base_0000.c **** 				p_cmd.cmd_tid = in->tid;
 167:/home/tienluong/workspace/atlantis_fw/AsicFwS2/src/lcc_cmd_base_0000.c **** 				p_cmd.event = IMG_EVENT_CAM_STREAM;
 168:/home/tienluong/workspace/atlantis_fw/AsicFwS2/src/lcc_cmd_base_0000.c **** 				memcpy(&cam_status, cache->status, sizeof(uint32_t));
 169:/home/tienluong/workspace/atlantis_fw/AsicFwS2/src/lcc_cmd_base_0000.c **** 				control_status = in->data[data_idx + 0];
 170:/home/tienluong/workspace/atlantis_fw/AsicFwS2/src/lcc_cmd_base_0000.c **** 				uint8_t tx_ins = control_status & (BIT7 | BIT6 | BIT5 | BIT4);
 171:/home/tienluong/workspace/atlantis_fw/AsicFwS2/src/lcc_cmd_base_0000.c **** 				tx_ins = tx_ins >> 4;
 172:/home/tienluong/workspace/atlantis_fw/AsicFwS2/src/lcc_cmd_base_0000.c **** 				if(CSI_0 != tx_ins && CSI_1 != tx_ins)
 173:/home/tienluong/workspace/atlantis_fw/AsicFwS2/src/lcc_cmd_base_0000.c **** 				{
 174:/home/tienluong/workspace/atlantis_fw/AsicFwS2/src/lcc_cmd_base_0000.c **** 					SLOGF(SLOG_ERROR, "TX%d is not supported", tx_ins);
 175:/home/tienluong/workspace/atlantis_fw/AsicFwS2/src/lcc_cmd_base_0000.c **** 					continue;
 176:/home/tienluong/workspace/atlantis_fw/AsicFwS2/src/lcc_cmd_base_0000.c **** 				}
 177:/home/tienluong/workspace/atlantis_fw/AsicFwS2/src/lcc_cmd_base_0000.c **** 				uint32_t old_stream_cache = 0;
 178:/home/tienluong/workspace/atlantis_fw/AsicFwS2/src/lcc_cmd_base_0000.c **** 				memcpy(&old_stream_cache, cache->stream, cmd.size);
 179:/home/tienluong/workspace/atlantis_fw/AsicFwS2/src/lcc_cmd_base_0000.c **** 				memcpy(cache->stream, in->data + data_idx, cmd.size);
 180:/home/tienluong/workspace/atlantis_fw/AsicFwS2/src/lcc_cmd_base_0000.c **** 
 181:/home/tienluong/workspace/atlantis_fw/AsicFwS2/src/lcc_cmd_base_0000.c **** 				if((control_status & CAM_STREAM_ENABLE) &&
 182:/home/tienluong/workspace/atlantis_fw/AsicFwS2/src/lcc_cmd_base_0000.c **** 					(light_system->active_ucid != UCID_DEBUG))
 183:/home/tienluong/workspace/atlantis_fw/AsicFwS2/src/lcc_cmd_base_0000.c **** 				{
 184:/home/tienluong/workspace/atlantis_fw/AsicFwS2/src/lcc_cmd_base_0000.c **** 					if(light_system->m_filter & (1 << cam_idx))
 185:/home/tienluong/workspace/atlantis_fw/AsicFwS2/src/lcc_cmd_base_0000.c **** 					{
 186:/home/tienluong/workspace/atlantis_fw/AsicFwS2/src/lcc_cmd_base_0000.c **** 						if(!(cam_status & S_MODULE_SW_STANDBY))
 187:/home/tienluong/workspace/atlantis_fw/AsicFwS2/src/lcc_cmd_base_0000.c **** 						{
 188:/home/tienluong/workspace/atlantis_fw/AsicFwS2/src/lcc_cmd_base_0000.c **** 							SLOGF(SLOG_ERROR, "CAM-%X not in SW standby",
 189:/home/tienluong/workspace/atlantis_fw/AsicFwS2/src/lcc_cmd_base_0000.c **** 															pcam->info.module);
 190:/home/tienluong/workspace/atlantis_fw/AsicFwS2/src/lcc_cmd_base_0000.c **** 							SLOGF(SLOG_ERROR, "Canceled stream on request");
 191:/home/tienluong/workspace/atlantis_fw/AsicFwS2/src/lcc_cmd_base_0000.c **** 							in->m_bitmask &= ~(light_system->m_filter);
 192:/home/tienluong/workspace/atlantis_fw/AsicFwS2/src/lcc_cmd_base_0000.c **** 							in->status = LCC_CMD_UNSUCCESS;
 193:/home/tienluong/workspace/atlantis_fw/AsicFwS2/src/lcc_cmd_base_0000.c **** 							memcpy(cache->stream, &old_stream_cache, cmd.size);
 194:/home/tienluong/workspace/atlantis_fw/AsicFwS2/src/lcc_cmd_base_0000.c **** 							return;
 195:/home/tienluong/workspace/atlantis_fw/AsicFwS2/src/lcc_cmd_base_0000.c **** 						}
 196:/home/tienluong/workspace/atlantis_fw/AsicFwS2/src/lcc_cmd_base_0000.c **** 						stream_on_msk |= (1 << cam_idx);
 197:/home/tienluong/workspace/atlantis_fw/AsicFwS2/src/lcc_cmd_base_0000.c **** 					}
 198:/home/tienluong/workspace/atlantis_fw/AsicFwS2/src/lcc_cmd_base_0000.c **** 					else
 199:/home/tienluong/workspace/atlantis_fw/AsicFwS2/src/lcc_cmd_base_0000.c **** 					{
 200:/home/tienluong/workspace/atlantis_fw/AsicFwS2/src/lcc_cmd_base_0000.c **** 						if(light_system->m_filter_asic1 & (1 << cam_idx))
 201:/home/tienluong/workspace/atlantis_fw/AsicFwS2/src/lcc_cmd_base_0000.c **** 						{
 202:/home/tienluong/workspace/atlantis_fw/AsicFwS2/src/lcc_cmd_base_0000.c **** #if (ASIC_NUM == ASIC1)
 203:/home/tienluong/workspace/atlantis_fw/AsicFwS2/src/lcc_cmd_base_0000.c **** 							/* Indicate that ASIC1 waiting interrupt from
 204:/home/tienluong/workspace/atlantis_fw/AsicFwS2/src/lcc_cmd_base_0000.c **** 							 * ASIC2 in HDR capture mode */
 205:/home/tienluong/workspace/atlantis_fw/AsicFwS2/src/lcc_cmd_base_0000.c **** 							/*taskENTER_CRITICAL();*/
 206:/home/tienluong/workspace/atlantis_fw/AsicFwS2/src/lcc_cmd_base_0000.c **** 							light_system->wait_intr_stream |= ASIC_2;
 207:/home/tienluong/workspace/atlantis_fw/AsicFwS2/src/lcc_cmd_base_0000.c **** 							/*taskEXIT_CRITICAL();*/
 208:/home/tienluong/workspace/atlantis_fw/AsicFwS2/src/lcc_cmd_base_0000.c **** #endif
 209:/home/tienluong/workspace/atlantis_fw/AsicFwS2/src/lcc_cmd_base_0000.c **** 							wait_asics |= ASIC_2;
 210:/home/tienluong/workspace/atlantis_fw/AsicFwS2/src/lcc_cmd_base_0000.c **** 						}
 211:/home/tienluong/workspace/atlantis_fw/AsicFwS2/src/lcc_cmd_base_0000.c **** 						if(light_system->m_filter_asic2 & (1 << cam_idx))
 212:/home/tienluong/workspace/atlantis_fw/AsicFwS2/src/lcc_cmd_base_0000.c **** 						{
 213:/home/tienluong/workspace/atlantis_fw/AsicFwS2/src/lcc_cmd_base_0000.c **** #if (ASIC_NUM == ASIC1)
 214:/home/tienluong/workspace/atlantis_fw/AsicFwS2/src/lcc_cmd_base_0000.c **** 							/* Indicate that ASIC1 waiting interrupt from
 215:/home/tienluong/workspace/atlantis_fw/AsicFwS2/src/lcc_cmd_base_0000.c **** 							 * ASIC2 in HDR capture mode */
 216:/home/tienluong/workspace/atlantis_fw/AsicFwS2/src/lcc_cmd_base_0000.c **** 							/*taskENTER_CRITICAL();*/
 217:/home/tienluong/workspace/atlantis_fw/AsicFwS2/src/lcc_cmd_base_0000.c **** 							light_system->wait_intr_stream |= ASIC_3;
 218:/home/tienluong/workspace/atlantis_fw/AsicFwS2/src/lcc_cmd_base_0000.c **** 							/*taskEXIT_CRITICAL();*/
 219:/home/tienluong/workspace/atlantis_fw/AsicFwS2/src/lcc_cmd_base_0000.c **** #endif
 220:/home/tienluong/workspace/atlantis_fw/AsicFwS2/src/lcc_cmd_base_0000.c **** 							wait_asics |= ASIC_3;
 221:/home/tienluong/workspace/atlantis_fw/AsicFwS2/src/lcc_cmd_base_0000.c **** 						}
 222:/home/tienluong/workspace/atlantis_fw/AsicFwS2/src/lcc_cmd_base_0000.c **** 					}
 223:/home/tienluong/workspace/atlantis_fw/AsicFwS2/src/lcc_cmd_base_0000.c **** 				}
 224:/home/tienluong/workspace/atlantis_fw/AsicFwS2/src/lcc_cmd_base_0000.c **** 				else
 225:/home/tienluong/workspace/atlantis_fw/AsicFwS2/src/lcc_cmd_base_0000.c **** 				{
 226:/home/tienluong/workspace/atlantis_fw/AsicFwS2/src/lcc_cmd_base_0000.c **** 					if (light_system->m_filter & (1 << cam_idx))
 227:/home/tienluong/workspace/atlantis_fw/AsicFwS2/src/lcc_cmd_base_0000.c **** 						xQueueSend(pcam->queue, &p_cmd, (TickType_t)10);
 228:/home/tienluong/workspace/atlantis_fw/AsicFwS2/src/lcc_cmd_base_0000.c **** 				}
 229:/home/tienluong/workspace/atlantis_fw/AsicFwS2/src/lcc_cmd_base_0000.c **** 
 230:/home/tienluong/workspace/atlantis_fw/AsicFwS2/src/lcc_cmd_base_0000.c **** 				data_idx += in->global ? 0 : cmd.size;
 316              		.loc 1 230 0
 317 0018 0027     		movs	r7, #0
 318 001a 3E46     		mov	r6, r7
 319 001c 0097     		str	r7, [sp]
 320 001e 0197     		str	r7, [sp, #4]
 321 0020 23E0     		b	.L22
 322              	.LVL31:
 323              	.L21:
 324              	.LBE2:
 139:/home/tienluong/workspace/atlantis_fw/AsicFwS2/src/lcc_cmd_base_0000.c **** 		if (NULL == out->data)
 325              		.loc 1 139 0
 326 0022 807C     		ldrb	r0, [r0, #18]	@ zero_extendqisi2
 327              	.LVL32:
 328 0024 9949     		ldr	r1, .L78
 329              	.LVL33:
 330 0026 00EB4000 		add	r0, r0, r0, lsl #1
 331 002a 8B22     		movs	r2, #139
 332 002c 984B     		ldr	r3, .L78+4
 333 002e 9847     		blx	r3
 334              	.LVL34:
 335 0030 0546     		mov	r5, r0
 336 0032 C9F80400 		str	r0, [r9, #4]
 140:/home/tienluong/workspace/atlantis_fw/AsicFwS2/src/lcc_cmd_base_0000.c **** 		{
 337              		.loc 1 140 0
 338 0036 0028     		cmp	r0, #0
 339 0038 EED1     		bne	.L23
 142:/home/tienluong/workspace/atlantis_fw/AsicFwS2/src/lcc_cmd_base_0000.c **** 			in->status = LCC_CMD_UNSUCCESS;
 340              		.loc 1 142 0
 341 003a 2120     		movs	r0, #33
 342 003c 0221     		movs	r1, #2
 343 003e 954A     		ldr	r2, .L78+8
 344 0040 924B     		ldr	r3, .L78
 345 0042 954E     		ldr	r6, .L78+12
 346 0044 B047     		blx	r6
 347              	.LVL35:
 143:/home/tienluong/workspace/atlantis_fw/AsicFwS2/src/lcc_cmd_base_0000.c **** 			return;
 348              		.loc 1 143 0
 349 0046 2582     		strh	r5, [r4, #16]	@ movhi
 144:/home/tienluong/workspace/atlantis_fw/AsicFwS2/src/lcc_cmd_base_0000.c **** 		}
 350              		.loc 1 144 0
 351 0048 1CE1     		b	.L20
 352              	.LVL36:
 353              	.L34:
 151:/home/tienluong/workspace/atlantis_fw/AsicFwS2/src/lcc_cmd_base_0000.c **** 		pcam = idx_to_object(cam_idx);
 354              		.loc 1 151 0
 355 004a 0122     		movs	r2, #1
 150:/home/tienluong/workspace/atlantis_fw/AsicFwS2/src/lcc_cmd_base_0000.c **** 		m_bitmask &= ~(1 << cam_idx);
 356              		.loc 1 150 0
 357 004c 029B     		ldr	r3, [sp, #8]
 358 004e 93FAA3F0 		rbit	r0, r3
 359 0052 B0FA80F0 		clz	r0, r0
 360              	.LVL37:
 151:/home/tienluong/workspace/atlantis_fw/AsicFwS2/src/lcc_cmd_base_0000.c **** 		pcam = idx_to_object(cam_idx);
 361              		.loc 1 151 0
 362 0056 8240     		lsls	r2, r2, r0
 363 0058 23EA0203 		bic	r3, r3, r2
 364 005c 0392     		str	r2, [sp, #12]
 365 005e 0293     		str	r3, [sp, #8]
 366              	.LVL38:
 152:/home/tienluong/workspace/atlantis_fw/AsicFwS2/src/lcc_cmd_base_0000.c **** 		if(pcam)
 367              		.loc 1 152 0
 368 0060 8E4B     		ldr	r3, .L78+16
 369              	.LVL39:
 370 0062 9847     		blx	r3
 371              	.LVL40:
 153:/home/tienluong/workspace/atlantis_fw/AsicFwS2/src/lcc_cmd_base_0000.c **** 		{
 372              		.loc 1 153 0
 373 0064 0546     		mov	r5, r0
 374 0066 28B9     		cbnz	r0, .L74
 375              	.LVL41:
 376              	.L25:
 377 0068 0137     		adds	r7, r7, #1
 378              	.LVL42:
 379              	.L22:
 148:/home/tienluong/workspace/atlantis_fw/AsicFwS2/src/lcc_cmd_base_0000.c **** 	{
 380              		.loc 1 148 0 discriminator 1
 381 006a FBB2     		uxtb	r3, r7
 382 006c A17C     		ldrb	r1, [r4, #18]	@ zero_extendqisi2
 383 006e 8B42     		cmp	r3, r1
 384 0070 EBD3     		bcc	.L34
 385 0072 AEE0     		b	.L75
 386              	.LVL43:
 387              	.L74:
 155:/home/tienluong/workspace/atlantis_fw/AsicFwS2/src/lcc_cmd_base_0000.c **** 			{
 388              		.loc 1 155 0
 389 0074 E17C     		ldrb	r1, [r4, #19]	@ zero_extendqisi2
 390 0076 11F00101 		ands	r1, r1, #1
 391 007a 039A     		ldr	r2, [sp, #12]
 392 007c 1FD0     		beq	.L26
 157:/home/tienluong/workspace/atlantis_fw/AsicFwS2/src/lcc_cmd_base_0000.c **** 				cache = pcam->settings;
 393              		.loc 1 157 0
 394 007e 0021     		movs	r1, #0
 395 0080 0B46     		mov	r3, r1
 396 0082 4FF0FF32 		mov	r2, #-1
 397 0086 DFF84CC2 		ldr	ip, .L78+72
 398 008a 006B     		ldr	r0, [r0, #48]
 399              	.LVL44:
 400 008c E047     		blx	ip
 401              	.LVL45:
 159:/home/tienluong/workspace/atlantis_fw/AsicFwS2/src/lcc_cmd_base_0000.c **** 				xSemaphoreGive(pcam->semaphore);
 402              		.loc 1 159 0
 403 008e D9F80410 		ldr	r1, [r9, #4]
 404 0092 B9F80820 		ldrh	r2, [r9, #8]
 405 0096 AB68     		ldr	r3, [r5, #8]
 406 0098 8818     		adds	r0, r1, r2
 407 009a 33F801EF 		ldrh	lr, [r3, #1]!	@ unaligned
 408 009e 21F802E0 		strh	lr, [r1, r2]	@ unaligned
 409              	.LVL46:
 160:/home/tienluong/workspace/atlantis_fw/AsicFwS2/src/lcc_cmd_base_0000.c **** 				out->len += cmd.size;
 410              		.loc 1 160 0
 411 00a2 0021     		movs	r1, #0
 159:/home/tienluong/workspace/atlantis_fw/AsicFwS2/src/lcc_cmd_base_0000.c **** 				xSemaphoreGive(pcam->semaphore);
 412              		.loc 1 159 0
 413 00a4 9B78     		ldrb	r3, [r3, #2]	@ zero_extendqisi2
 414              	.LVL47:
 160:/home/tienluong/workspace/atlantis_fw/AsicFwS2/src/lcc_cmd_base_0000.c **** 				out->len += cmd.size;
 415              		.loc 1 160 0
 416 00a6 0A46     		mov	r2, r1
 159:/home/tienluong/workspace/atlantis_fw/AsicFwS2/src/lcc_cmd_base_0000.c **** 				xSemaphoreGive(pcam->semaphore);
 417              		.loc 1 159 0
 418 00a8 8370     		strb	r3, [r0, #2]
 160:/home/tienluong/workspace/atlantis_fw/AsicFwS2/src/lcc_cmd_base_0000.c **** 				out->len += cmd.size;
 419              		.loc 1 160 0
 420 00aa 0B46     		mov	r3, r1
 421 00ac 286B     		ldr	r0, [r5, #48]
 422 00ae 7C4D     		ldr	r5, .L78+20
 423              	.LVL48:
 424 00b0 A847     		blx	r5
 425              	.LVL49:
 161:/home/tienluong/workspace/atlantis_fw/AsicFwS2/src/lcc_cmd_base_0000.c **** 			}
 426              		.loc 1 161 0
 427 00b2 B9F80830 		ldrh	r3, [r9, #8]
 428 00b6 0333     		adds	r3, r3, #3
 429 00b8 A9F80830 		strh	r3, [r9, #8]	@ movhi
 430 00bc D4E7     		b	.L25
 431              	.LVL50:
 432              	.L26:
 433              	.LBB3:
 165:/home/tienluong/workspace/atlantis_fw/AsicFwS2/src/lcc_cmd_base_0000.c **** 				p_cmd.cmd_tid = in->tid;
 434              		.loc 1 165 0
 435 00be D0F808E0 		ldr	lr, [r0, #8]
 436              	.LVL51:
 166:/home/tienluong/workspace/atlantis_fw/AsicFwS2/src/lcc_cmd_base_0000.c **** 				p_cmd.event = IMG_EVENT_CAM_STREAM;
 437              		.loc 1 166 0
 438 00c2 6389     		ldrh	r3, [r4, #10]
 439 00c4 ADF81830 		strh	r3, [sp, #24]	@ movhi
 167:/home/tienluong/workspace/atlantis_fw/AsicFwS2/src/lcc_cmd_base_0000.c **** 				memcpy(&cam_status, cache->status, sizeof(uint32_t));
 440              		.loc 1 167 0
 441 00c8 0223     		movs	r3, #2
 442 00ca 0793     		str	r3, [sp, #28]
 168:/home/tienluong/workspace/atlantis_fw/AsicFwS2/src/lcc_cmd_base_0000.c **** 				control_status = in->data[data_idx + 0];
 443              		.loc 1 168 0
 444 00cc DEF80400 		ldr	r0, [lr, #4]	@ unaligned
 445              	.LVL52:
 169:/home/tienluong/workspace/atlantis_fw/AsicFwS2/src/lcc_cmd_base_0000.c **** 				uint8_t tx_ins = control_status & (BIT7 | BIT6 | BIT5 | BIT4);
 446              		.loc 1 169 0
 447 00d0 6368     		ldr	r3, [r4, #4]
 168:/home/tienluong/workspace/atlantis_fw/AsicFwS2/src/lcc_cmd_base_0000.c **** 				control_status = in->data[data_idx + 0];
 448              		.loc 1 168 0
 449 00d2 0490     		str	r0, [sp, #16]	@ unaligned
 169:/home/tienluong/workspace/atlantis_fw/AsicFwS2/src/lcc_cmd_base_0000.c **** 				uint8_t tx_ins = control_status & (BIT7 | BIT6 | BIT5 | BIT4);
 450              		.loc 1 169 0
 451 00d4 0198     		ldr	r0, [sp, #4]
 452 00d6 13F800A0 		ldrb	r10, [r3, r0]	@ zero_extendqisi2
 453              	.LVL53:
 454 00da 03EB000C 		add	ip, r3, r0
 171:/home/tienluong/workspace/atlantis_fw/AsicFwS2/src/lcc_cmd_base_0000.c **** 				if(CSI_0 != tx_ins && CSI_1 != tx_ins)
 455              		.loc 1 171 0
 456 00de 4FEA1A13 		lsr	r3, r10, #4
 457              	.LVL54:
 172:/home/tienluong/workspace/atlantis_fw/AsicFwS2/src/lcc_cmd_base_0000.c **** 				{
 458              		.loc 1 172 0
 459 00e2 581E     		subs	r0, r3, #1
 460 00e4 0128     		cmp	r0, #1
 461 00e6 05D9     		bls	.L27
 174:/home/tienluong/workspace/atlantis_fw/AsicFwS2/src/lcc_cmd_base_0000.c **** 					continue;
 462              		.loc 1 174 0
 463 00e8 2120     		movs	r0, #33
 464 00ea 0221     		movs	r1, #2
 465 00ec 6D4A     		ldr	r2, .L78+24
 466 00ee 6A4D     		ldr	r5, .L78+12
 467              	.LVL55:
 468 00f0 A847     		blx	r5
 469              	.LVL56:
 470 00f2 B9E7     		b	.L25
 471              	.LVL57:
 472              	.L27:
 178:/home/tienluong/workspace/atlantis_fw/AsicFwS2/src/lcc_cmd_base_0000.c **** 				memcpy(cache->stream, in->data + data_idx, cmd.size);
 473              		.loc 1 178 0
 474 00f4 F046     		mov	r8, lr
 177:/home/tienluong/workspace/atlantis_fw/AsicFwS2/src/lcc_cmd_base_0000.c **** 				memcpy(&old_stream_cache, cache->stream, cmd.size);
 475              		.loc 1 177 0
 476 00f6 0DF1200B 		add	fp, sp, #32
 181:/home/tienluong/workspace/atlantis_fw/AsicFwS2/src/lcc_cmd_base_0000.c **** 					(light_system->active_ucid != UCID_DEBUG))
 477              		.loc 1 181 0
 478 00fa 1AF0010F 		tst	r10, #1
 177:/home/tienluong/workspace/atlantis_fw/AsicFwS2/src/lcc_cmd_base_0000.c **** 				memcpy(&old_stream_cache, cache->stream, cmd.size);
 479              		.loc 1 177 0
 480 00fe 4BF80C1D 		str	r1, [fp, #-12]!
 178:/home/tienluong/workspace/atlantis_fw/AsicFwS2/src/lcc_cmd_base_0000.c **** 				memcpy(cache->stream, in->data + data_idx, cmd.size);
 481              		.loc 1 178 0
 482 0102 38F8011F 		ldrh	r1, [r8, #1]!	@ unaligned
 483 0106 98F80230 		ldrb	r3, [r8, #2]	@ zero_extendqisi2
 484              	.LVL58:
 485 010a ADF81410 		strh	r1, [sp, #20]	@ unaligned
 486 010e 8BF80230 		strb	r3, [fp, #2]
 179:/home/tienluong/workspace/atlantis_fw/AsicFwS2/src/lcc_cmd_base_0000.c **** 
 487              		.loc 1 179 0
 488 0112 BCF80030 		ldrh	r3, [ip]	@ unaligned
 489 0116 AEF80130 		strh	r3, [lr, #1]	@ unaligned
 490 011a 9CF80230 		ldrb	r3, [ip, #2]	@ zero_extendqisi2
 491 011e 88F80230 		strb	r3, [r8, #2]
 492 0122 614B     		ldr	r3, .L78+28
 181:/home/tienluong/workspace/atlantis_fw/AsicFwS2/src/lcc_cmd_base_0000.c **** 					(light_system->active_ucid != UCID_DEBUG))
 493              		.loc 1 181 0
 494 0124 40D0     		beq	.L28
 182:/home/tienluong/workspace/atlantis_fw/AsicFwS2/src/lcc_cmd_base_0000.c **** 				{
 495              		.loc 1 182 0 discriminator 1
 496 0126 D3F800A0 		ldr	r10, [r3]
 497              	.LVL59:
 181:/home/tienluong/workspace/atlantis_fw/AsicFwS2/src/lcc_cmd_base_0000.c **** 					(light_system->active_ucid != UCID_DEBUG))
 498              		.loc 1 181 0 discriminator 1
 499 012a BAF82610 		ldrh	r1, [r10, #38]
 500 012e 0229     		cmp	r1, #2
 501 0130 3AD0     		beq	.L28
 184:/home/tienluong/workspace/atlantis_fw/AsicFwS2/src/lcc_cmd_base_0000.c **** 					{
 502              		.loc 1 184 0
 503 0132 DAF81830 		ldr	r3, [r10, #24]
 504 0136 1A42     		tst	r2, r3
 505 0138 25D0     		beq	.L29
 186:/home/tienluong/workspace/atlantis_fw/AsicFwS2/src/lcc_cmd_base_0000.c **** 						{
 506              		.loc 1 186 0
 507 013a 049B     		ldr	r3, [sp, #16]
 508 013c 13F0080C 		ands	ip, r3, #8
 509 0140 1FD1     		bne	.L30
 188:/home/tienluong/workspace/atlantis_fw/AsicFwS2/src/lcc_cmd_base_0000.c **** 															pcam->info.module);
 510              		.loc 1 188 0
 511 0142 95F82930 		ldrb	r3, [r5, #41]	@ zero_extendqisi2
 512 0146 2120     		movs	r0, #33
 513              	.LVL60:
 514 0148 0221     		movs	r1, #2
 515 014a 584A     		ldr	r2, .L78+32
 516 014c 524D     		ldr	r5, .L78+12
 517              	.LVL61:
 518 014e CDF800C0 		str	ip, [sp]
 519              	.LVL62:
 520 0152 A847     		blx	r5
 521              	.LVL63:
 190:/home/tienluong/workspace/atlantis_fw/AsicFwS2/src/lcc_cmd_base_0000.c **** 							in->m_bitmask &= ~(light_system->m_filter);
 522              		.loc 1 190 0
 523 0154 564A     		ldr	r2, .L78+36
 524 0156 2120     		movs	r0, #33
 525 0158 0221     		movs	r1, #2
 526 015a A847     		blx	r5
 527              	.LVL64:
 191:/home/tienluong/workspace/atlantis_fw/AsicFwS2/src/lcc_cmd_base_0000.c **** 							in->status = LCC_CMD_UNSUCCESS;
 528              		.loc 1 191 0
 529 015c DAF81820 		ldr	r2, [r10, #24]
 530 0160 2368     		ldr	r3, [r4]
 192:/home/tienluong/workspace/atlantis_fw/AsicFwS2/src/lcc_cmd_base_0000.c **** 							memcpy(cache->stream, &old_stream_cache, cmd.size);
 531              		.loc 1 192 0
 532 0162 DDF800C0 		ldr	ip, [sp]
 191:/home/tienluong/workspace/atlantis_fw/AsicFwS2/src/lcc_cmd_base_0000.c **** 							in->status = LCC_CMD_UNSUCCESS;
 533              		.loc 1 191 0
 534 0166 23EA0203 		bic	r3, r3, r2
 193:/home/tienluong/workspace/atlantis_fw/AsicFwS2/src/lcc_cmd_base_0000.c **** 							return;
 535              		.loc 1 193 0
 536 016a BBF80020 		ldrh	r2, [fp]	@ unaligned
 192:/home/tienluong/workspace/atlantis_fw/AsicFwS2/src/lcc_cmd_base_0000.c **** 							memcpy(cache->stream, &old_stream_cache, cmd.size);
 537              		.loc 1 192 0
 538 016e A4F810C0 		strh	ip, [r4, #16]	@ movhi
 191:/home/tienluong/workspace/atlantis_fw/AsicFwS2/src/lcc_cmd_base_0000.c **** 							in->status = LCC_CMD_UNSUCCESS;
 539              		.loc 1 191 0
 540 0172 2360     		str	r3, [r4]
 193:/home/tienluong/workspace/atlantis_fw/AsicFwS2/src/lcc_cmd_base_0000.c **** 							return;
 541              		.loc 1 193 0
 542 0174 9BF80230 		ldrb	r3, [fp, #2]	@ zero_extendqisi2
 543 0178 A8F80020 		strh	r2, [r8]	@ unaligned
 544 017c 88F80230 		strb	r3, [r8, #2]
 545 0180 80E0     		b	.L20
 546              	.LVL65:
 547              	.L30:
 196:/home/tienluong/workspace/atlantis_fw/AsicFwS2/src/lcc_cmd_base_0000.c **** 					}
 548              		.loc 1 196 0
 549 0182 1643     		orrs	r6, r6, r2
 550              	.LVL66:
 551 0184 1AE0     		b	.L31
 552              	.L29:
 200:/home/tienluong/workspace/atlantis_fw/AsicFwS2/src/lcc_cmd_base_0000.c **** 						{
 553              		.loc 1 200 0
 554 0186 DAF81C30 		ldr	r3, [r10, #28]
 555 018a 1A42     		tst	r2, r3
 209:/home/tienluong/workspace/atlantis_fw/AsicFwS2/src/lcc_cmd_base_0000.c **** 						}
 556              		.loc 1 209 0
 557 018c 1EBF     		ittt	ne
 558 018e 009B     		ldrne	r3, [sp]
 559 0190 43F00403 		orrne	r3, r3, #4
 560 0194 0093     		strne	r3, [sp]
 561              	.LVL67:
 211:/home/tienluong/workspace/atlantis_fw/AsicFwS2/src/lcc_cmd_base_0000.c **** 						{
 562              		.loc 1 211 0
 563 0196 DAF82030 		ldr	r3, [r10, #32]
 564 019a 1A42     		tst	r2, r3
 565 019c 0ED0     		beq	.L31
 220:/home/tienluong/workspace/atlantis_fw/AsicFwS2/src/lcc_cmd_base_0000.c **** 						}
 566              		.loc 1 220 0
 567 019e 009B     		ldr	r3, [sp]
 568 01a0 43F00803 		orr	r3, r3, #8
 569 01a4 0093     		str	r3, [sp]
 570              	.LVL68:
 571 01a6 09E0     		b	.L31
 572              	.L28:
 226:/home/tienluong/workspace/atlantis_fw/AsicFwS2/src/lcc_cmd_base_0000.c **** 						xQueueSend(pcam->queue, &p_cmd, (TickType_t)10);
 573              		.loc 1 226 0
 574 01a8 1B68     		ldr	r3, [r3]
 575 01aa 9B69     		ldr	r3, [r3, #24]
 576 01ac 1A42     		tst	r2, r3
 577 01ae 05D0     		beq	.L31
 227:/home/tienluong/workspace/atlantis_fw/AsicFwS2/src/lcc_cmd_base_0000.c **** 				}
 578              		.loc 1 227 0
 579 01b0 686B     		ldr	r0, [r5, #52]
 580              	.LVL69:
 581 01b2 06A9     		add	r1, sp, #24
 582 01b4 0A22     		movs	r2, #10
 583 01b6 0023     		movs	r3, #0
 584 01b8 394D     		ldr	r5, .L78+20
 585              	.LVL70:
 586 01ba A847     		blx	r5
 587              	.LVL71:
 588              	.L31:
 589              		.loc 1 230 0
 590 01bc E37C     		ldrb	r3, [r4, #19]	@ zero_extendqisi2
 591 01be 019A     		ldr	r2, [sp, #4]
 592 01c0 13F0020F 		tst	r3, #2
 593 01c4 14BF     		ite	ne
 594 01c6 0023     		movne	r3, #0
 595 01c8 0323     		moveq	r3, #3
 596 01ca 1344     		add	r3, r3, r2
 597 01cc 9BB2     		uxth	r3, r3
 598 01ce 0193     		str	r3, [sp, #4]
 599              	.LVL72:
 600 01d0 4AE7     		b	.L25
 601              	.LVL73:
 602              	.L75:
 603              	.LBE3:
 231:/home/tienluong/workspace/atlantis_fw/AsicFwS2/src/lcc_cmd_base_0000.c **** 			}
 232:/home/tienluong/workspace/atlantis_fw/AsicFwS2/src/lcc_cmd_base_0000.c **** 		}
 233:/home/tienluong/workspace/atlantis_fw/AsicFwS2/src/lcc_cmd_base_0000.c **** 	}
 234:/home/tienluong/workspace/atlantis_fw/AsicFwS2/src/lcc_cmd_base_0000.c **** 
 235:/home/tienluong/workspace/atlantis_fw/AsicFwS2/src/lcc_cmd_base_0000.c **** 	if(stream_on_msk)
 604              		.loc 1 235 0
 605 01d2 002E     		cmp	r6, #0
 606 01d4 56D0     		beq	.L20
 236:/home/tienluong/workspace/atlantis_fw/AsicFwS2/src/lcc_cmd_base_0000.c **** 	{
 237:/home/tienluong/workspace/atlantis_fw/AsicFwS2/src/lcc_cmd_base_0000.c **** 		switch(light_system->active_ucid)
 607              		.loc 1 237 0
 608 01d6 344B     		ldr	r3, .L78+28
 609 01d8 1F68     		ldr	r7, [r3]
 610              	.LVL74:
 611 01da FB8C     		ldrh	r3, [r7, #38]
 612 01dc 032B     		cmp	r3, #3
 613 01de 0DD0     		beq	.L37
 614 01e0 052B     		cmp	r3, #5
 615 01e2 43D1     		bne	.L76
 238:/home/tienluong/workspace/atlantis_fw/AsicFwS2/src/lcc_cmd_base_0000.c **** 		{
 239:/home/tienluong/workspace/atlantis_fw/AsicFwS2/src/lcc_cmd_base_0000.c **** 			case UCID_PREVIEW:
 240:/home/tienluong/workspace/atlantis_fw/AsicFwS2/src/lcc_cmd_base_0000.c **** 			{
 241:/home/tienluong/workspace/atlantis_fw/AsicFwS2/src/lcc_cmd_base_0000.c **** 				int stream_off_bitmask = ~(stream_on_msk) & light_system->m_filter;
 242:/home/tienluong/workspace/atlantis_fw/AsicFwS2/src/lcc_cmd_base_0000.c **** 				cam_typedef_t *pcam = NULL;
 243:/home/tienluong/workspace/atlantis_fw/AsicFwS2/src/lcc_cmd_base_0000.c **** 				uint8_t cam_idx;
 244:/home/tienluong/workspace/atlantis_fw/AsicFwS2/src/lcc_cmd_base_0000.c **** 				uint32_t cs;
 245:/home/tienluong/workspace/atlantis_fw/AsicFwS2/src/lcc_cmd_base_0000.c **** 				for (uint8_t i = 0; __builtin_popcount(stream_off_bitmask) > 0; i++)
 246:/home/tienluong/workspace/atlantis_fw/AsicFwS2/src/lcc_cmd_base_0000.c **** 				{
 247:/home/tienluong/workspace/atlantis_fw/AsicFwS2/src/lcc_cmd_base_0000.c **** 					cam_idx = __builtin_ctz(stream_off_bitmask);
 248:/home/tienluong/workspace/atlantis_fw/AsicFwS2/src/lcc_cmd_base_0000.c **** 					stream_off_bitmask &= ~(1 << cam_idx);
 249:/home/tienluong/workspace/atlantis_fw/AsicFwS2/src/lcc_cmd_base_0000.c **** 					pcam = idx_to_object(cam_idx);
 250:/home/tienluong/workspace/atlantis_fw/AsicFwS2/src/lcc_cmd_base_0000.c **** 					if (pcam != NULL)
 251:/home/tienluong/workspace/atlantis_fw/AsicFwS2/src/lcc_cmd_base_0000.c **** 					{
 252:/home/tienluong/workspace/atlantis_fw/AsicFwS2/src/lcc_cmd_base_0000.c **** 						memcpy(&cs, pcam->settings->status, sizeof(uint32_t));
 253:/home/tienluong/workspace/atlantis_fw/AsicFwS2/src/lcc_cmd_base_0000.c **** 						if (cs & S_MODULE_STREAM_ON)
 254:/home/tienluong/workspace/atlantis_fw/AsicFwS2/src/lcc_cmd_base_0000.c **** 						{
 255:/home/tienluong/workspace/atlantis_fw/AsicFwS2/src/lcc_cmd_base_0000.c **** 							SLOGF(SLOG_ERROR, "Streaming off CAM-%X", pcam->info.module);
 256:/home/tienluong/workspace/atlantis_fw/AsicFwS2/src/lcc_cmd_base_0000.c **** 							cam_ctrl_stream(pcam);
 257:/home/tienluong/workspace/atlantis_fw/AsicFwS2/src/lcc_cmd_base_0000.c **** 						}
 258:/home/tienluong/workspace/atlantis_fw/AsicFwS2/src/lcc_cmd_base_0000.c **** 					}
 259:/home/tienluong/workspace/atlantis_fw/AsicFwS2/src/lcc_cmd_base_0000.c **** 				}
 260:/home/tienluong/workspace/atlantis_fw/AsicFwS2/src/lcc_cmd_base_0000.c **** 				while(rx_end_flag)
 261:/home/tienluong/workspace/atlantis_fw/AsicFwS2/src/lcc_cmd_base_0000.c **** 				{
 262:/home/tienluong/workspace/atlantis_fw/AsicFwS2/src/lcc_cmd_base_0000.c **** 					vTaskDelay(1);
 263:/home/tienluong/workspace/atlantis_fw/AsicFwS2/src/lcc_cmd_base_0000.c **** 				}
 264:/home/tienluong/workspace/atlantis_fw/AsicFwS2/src/lcc_cmd_base_0000.c **** 				ucid_preview_hdl(stream_on_msk, in->m_number);
 265:/home/tienluong/workspace/atlantis_fw/AsicFwS2/src/lcc_cmd_base_0000.c **** 				in->m_bitmask &= ~(light_system->m_filter);
 266:/home/tienluong/workspace/atlantis_fw/AsicFwS2/src/lcc_cmd_base_0000.c **** 				in->status = LCC_CMD_SUCCESS;
 267:/home/tienluong/workspace/atlantis_fw/AsicFwS2/src/lcc_cmd_base_0000.c **** 				break;
 268:/home/tienluong/workspace/atlantis_fw/AsicFwS2/src/lcc_cmd_base_0000.c **** 			}
 269:/home/tienluong/workspace/atlantis_fw/AsicFwS2/src/lcc_cmd_base_0000.c **** 			case UCID_HIRES_CAPTURE:
 270:/home/tienluong/workspace/atlantis_fw/AsicFwS2/src/lcc_cmd_base_0000.c **** 			{
 271:/home/tienluong/workspace/atlantis_fw/AsicFwS2/src/lcc_cmd_base_0000.c **** 				ucid_hires_hdl(stream_on_msk, in->m_number, wait_asics);
 616              		.loc 1 271 0
 617 01e4 009A     		ldr	r2, [sp]
 618 01e6 3046     		mov	r0, r6
 619 01e8 324B     		ldr	r3, .L78+40
 620 01ea 9847     		blx	r3
 621              	.LVL75:
 272:/home/tienluong/workspace/atlantis_fw/AsicFwS2/src/lcc_cmd_base_0000.c **** 				in->status = LCC_CMD_SUCCESS;
 622              		.loc 1 272 0
 623 01ec 0123     		movs	r3, #1
 273:/home/tienluong/workspace/atlantis_fw/AsicFwS2/src/lcc_cmd_base_0000.c **** #if (ASIC_NUM == ASIC1)
 274:/home/tienluong/workspace/atlantis_fw/AsicFwS2/src/lcc_cmd_base_0000.c **** 				in->m_bitmask = 0;
 275:/home/tienluong/workspace/atlantis_fw/AsicFwS2/src/lcc_cmd_base_0000.c **** #else
 276:/home/tienluong/workspace/atlantis_fw/AsicFwS2/src/lcc_cmd_base_0000.c **** 				in->m_bitmask &= ~(light_system->m_filter);
 624              		.loc 1 276 0
 625 01ee BA69     		ldr	r2, [r7, #24]
 272:/home/tienluong/workspace/atlantis_fw/AsicFwS2/src/lcc_cmd_base_0000.c **** 				in->status = LCC_CMD_SUCCESS;
 626              		.loc 1 272 0
 627 01f0 2382     		strh	r3, [r4, #16]	@ movhi
 628              		.loc 1 276 0
 629 01f2 2368     		ldr	r3, [r4]
 630 01f4 23EA0203 		bic	r3, r3, r2
 631 01f8 2360     		str	r3, [r4]
 277:/home/tienluong/workspace/atlantis_fw/AsicFwS2/src/lcc_cmd_base_0000.c **** #endif
 278:/home/tienluong/workspace/atlantis_fw/AsicFwS2/src/lcc_cmd_base_0000.c **** 				break;
 632              		.loc 1 278 0
 633 01fa 43E0     		b	.L20
 634              	.L37:
 635              	.LBB4:
 241:/home/tienluong/workspace/atlantis_fw/AsicFwS2/src/lcc_cmd_base_0000.c **** 				cam_typedef_t *pcam = NULL;
 636              		.loc 1 241 0
 637 01fc BD69     		ldr	r5, [r7, #24]
 638 01fe 25EA0605 		bic	r5, r5, r6
 639              	.LVL76:
 640              	.L39:
 641              	.LBB5:
 245:/home/tienluong/workspace/atlantis_fw/AsicFwS2/src/lcc_cmd_base_0000.c **** 				{
 642              		.loc 1 245 0 discriminator 1
 643 0202 2846     		mov	r0, r5
 644 0204 2C4B     		ldr	r3, .L78+44
 645 0206 9847     		blx	r3
 646              	.LVL77:
 647 0208 F0B1     		cbz	r0, .L44
 248:/home/tienluong/workspace/atlantis_fw/AsicFwS2/src/lcc_cmd_base_0000.c **** 					pcam = idx_to_object(cam_idx);
 648              		.loc 1 248 0
 649 020a 0123     		movs	r3, #1
 247:/home/tienluong/workspace/atlantis_fw/AsicFwS2/src/lcc_cmd_base_0000.c **** 					stream_off_bitmask &= ~(1 << cam_idx);
 650              		.loc 1 247 0
 651 020c 95FAA5F0 		rbit	r0, r5
 652 0210 B0FA80F0 		clz	r0, r0
 653              	.LVL78:
 248:/home/tienluong/workspace/atlantis_fw/AsicFwS2/src/lcc_cmd_base_0000.c **** 					pcam = idx_to_object(cam_idx);
 654              		.loc 1 248 0
 655 0214 8340     		lsls	r3, r3, r0
 656 0216 25EA0305 		bic	r5, r5, r3
 657              	.LVL79:
 249:/home/tienluong/workspace/atlantis_fw/AsicFwS2/src/lcc_cmd_base_0000.c **** 					if (pcam != NULL)
 658              		.loc 1 249 0
 659 021a 204B     		ldr	r3, .L78+16
 660 021c 9847     		blx	r3
 661              	.LVL80:
 250:/home/tienluong/workspace/atlantis_fw/AsicFwS2/src/lcc_cmd_base_0000.c **** 					{
 662              		.loc 1 250 0
 663 021e 8046     		mov	r8, r0
 664 0220 0028     		cmp	r0, #0
 665 0222 EED0     		beq	.L39
 252:/home/tienluong/workspace/atlantis_fw/AsicFwS2/src/lcc_cmd_base_0000.c **** 						if (cs & S_MODULE_STREAM_ON)
 666              		.loc 1 252 0
 667 0224 8368     		ldr	r3, [r0, #8]
 668 0226 5868     		ldr	r0, [r3, #4]	@ unaligned
 669              	.LVL81:
 670 0228 0590     		str	r0, [sp, #20]	@ unaligned
 253:/home/tienluong/workspace/atlantis_fw/AsicFwS2/src/lcc_cmd_base_0000.c **** 						{
 671              		.loc 1 253 0
 672 022a 059B     		ldr	r3, [sp, #20]
 673 022c DB06     		lsls	r3, r3, #27
 674 022e E8D5     		bpl	.L39
 255:/home/tienluong/workspace/atlantis_fw/AsicFwS2/src/lcc_cmd_base_0000.c **** 							cam_ctrl_stream(pcam);
 675              		.loc 1 255 0
 676 0230 98F82930 		ldrb	r3, [r8, #41]	@ zero_extendqisi2
 677 0234 2120     		movs	r0, #33
 678 0236 0221     		movs	r1, #2
 679 0238 204A     		ldr	r2, .L78+48
 680 023a DFF85CC0 		ldr	ip, .L78+12
 681 023e E047     		blx	ip
 682              	.LVL82:
 256:/home/tienluong/workspace/atlantis_fw/AsicFwS2/src/lcc_cmd_base_0000.c **** 						}
 683              		.loc 1 256 0
 684 0240 4046     		mov	r0, r8
 685 0242 1F4B     		ldr	r3, .L78+52
 686 0244 9847     		blx	r3
 687              	.LVL83:
 688 0246 DCE7     		b	.L39
 689              	.LVL84:
 690              	.L44:
 691              	.LBE5:
 260:/home/tienluong/workspace/atlantis_fw/AsicFwS2/src/lcc_cmd_base_0000.c **** 				{
 692              		.loc 1 260 0
 693 0248 1E4B     		ldr	r3, .L78+56
 694 024a 1B78     		ldrb	r3, [r3]	@ zero_extendqisi2
 695 024c 1BB1     		cbz	r3, .L77
 262:/home/tienluong/workspace/atlantis_fw/AsicFwS2/src/lcc_cmd_base_0000.c **** 				}
 696              		.loc 1 262 0
 697 024e 0120     		movs	r0, #1
 698 0250 1D4B     		ldr	r3, .L78+60
 699 0252 9847     		blx	r3
 700              	.LVL85:
 701 0254 F8E7     		b	.L44
 702              	.L77:
 264:/home/tienluong/workspace/atlantis_fw/AsicFwS2/src/lcc_cmd_base_0000.c **** 				in->m_bitmask &= ~(light_system->m_filter);
 703              		.loc 1 264 0
 704 0256 1D4B     		ldr	r3, .L78+64
 705 0258 3046     		mov	r0, r6
 706 025a A17C     		ldrb	r1, [r4, #18]	@ zero_extendqisi2
 707 025c 9847     		blx	r3
 708              	.LVL86:
 265:/home/tienluong/workspace/atlantis_fw/AsicFwS2/src/lcc_cmd_base_0000.c **** 				in->status = LCC_CMD_SUCCESS;
 709              		.loc 1 265 0
 710 025e BA69     		ldr	r2, [r7, #24]
 711 0260 2368     		ldr	r3, [r4]
 712 0262 23EA0203 		bic	r3, r3, r2
 713 0266 2360     		str	r3, [r4]
 266:/home/tienluong/workspace/atlantis_fw/AsicFwS2/src/lcc_cmd_base_0000.c **** 				break;
 714              		.loc 1 266 0
 715 0268 0123     		movs	r3, #1
 716 026a 0AE0     		b	.L73
 717              	.LVL87:
 718              	.L76:
 719              	.LBE4:
 279:/home/tienluong/workspace/atlantis_fw/AsicFwS2/src/lcc_cmd_base_0000.c **** 			}
 280:/home/tienluong/workspace/atlantis_fw/AsicFwS2/src/lcc_cmd_base_0000.c **** 			default:
 281:/home/tienluong/workspace/atlantis_fw/AsicFwS2/src/lcc_cmd_base_0000.c **** 			{
 282:/home/tienluong/workspace/atlantis_fw/AsicFwS2/src/lcc_cmd_base_0000.c **** 				SLOGF(SLOG_ERROR, "Unsupported UCID %x", light_system->active_ucid);
 720              		.loc 1 282 0
 721 026c 184A     		ldr	r2, .L78+68
 722 026e 2120     		movs	r0, #33
 723 0270 0221     		movs	r1, #2
 724 0272 094D     		ldr	r5, .L78+12
 725 0274 A847     		blx	r5
 726              	.LVL88:
 283:/home/tienluong/workspace/atlantis_fw/AsicFwS2/src/lcc_cmd_base_0000.c **** #if (ASIC_NUM == ASIC1)
 284:/home/tienluong/workspace/atlantis_fw/AsicFwS2/src/lcc_cmd_base_0000.c **** 				in->m_bitmask = 0;
 285:/home/tienluong/workspace/atlantis_fw/AsicFwS2/src/lcc_cmd_base_0000.c **** #else
 286:/home/tienluong/workspace/atlantis_fw/AsicFwS2/src/lcc_cmd_base_0000.c **** 				in->m_bitmask &= ~(light_system->m_filter);
 727              		.loc 1 286 0
 728 0276 BA69     		ldr	r2, [r7, #24]
 729 0278 2368     		ldr	r3, [r4]
 730 027a 23EA0203 		bic	r3, r3, r2
 731 027e 2360     		str	r3, [r4]
 287:/home/tienluong/workspace/atlantis_fw/AsicFwS2/src/lcc_cmd_base_0000.c **** #endif
 288:/home/tienluong/workspace/atlantis_fw/AsicFwS2/src/lcc_cmd_base_0000.c **** 				in->status = LCC_CMD_UNSUCCESS;
 732              		.loc 1 288 0
 733 0280 0023     		movs	r3, #0
 734              	.L73:
 735 0282 2382     		strh	r3, [r4, #16]	@ movhi
 736              	.LVL89:
 737              	.L20:
 289:/home/tienluong/workspace/atlantis_fw/AsicFwS2/src/lcc_cmd_base_0000.c **** 				break;
 290:/home/tienluong/workspace/atlantis_fw/AsicFwS2/src/lcc_cmd_base_0000.c **** 			}
 291:/home/tienluong/workspace/atlantis_fw/AsicFwS2/src/lcc_cmd_base_0000.c **** 		}
 292:/home/tienluong/workspace/atlantis_fw/AsicFwS2/src/lcc_cmd_base_0000.c **** 	}
 293:/home/tienluong/workspace/atlantis_fw/AsicFwS2/src/lcc_cmd_base_0000.c **** 	else
 294:/home/tienluong/workspace/atlantis_fw/AsicFwS2/src/lcc_cmd_base_0000.c **** 	{
 295:/home/tienluong/workspace/atlantis_fw/AsicFwS2/src/lcc_cmd_base_0000.c **** #if (ASIC_NUM == ASIC1)
 296:/home/tienluong/workspace/atlantis_fw/AsicFwS2/src/lcc_cmd_base_0000.c **** 		if(light_system->active_ucid == UCID_HIRES_CAPTURE)
 297:/home/tienluong/workspace/atlantis_fw/AsicFwS2/src/lcc_cmd_base_0000.c **** 		{
 298:/home/tienluong/workspace/atlantis_fw/AsicFwS2/src/lcc_cmd_base_0000.c **** 			if(!wait_asics)
 299:/home/tienluong/workspace/atlantis_fw/AsicFwS2/src/lcc_cmd_base_0000.c **** 			{
 300:/home/tienluong/workspace/atlantis_fw/AsicFwS2/src/lcc_cmd_base_0000.c **** 				in->status = LCC_CMD_SUCCESS;
 301:/home/tienluong/workspace/atlantis_fw/AsicFwS2/src/lcc_cmd_base_0000.c **** 			}
 302:/home/tienluong/workspace/atlantis_fw/AsicFwS2/src/lcc_cmd_base_0000.c **** 			else if(wait_asics == wait_intr_signal(wait_asics, 1000, 1))
 303:/home/tienluong/workspace/atlantis_fw/AsicFwS2/src/lcc_cmd_base_0000.c **** 			{
 304:/home/tienluong/workspace/atlantis_fw/AsicFwS2/src/lcc_cmd_base_0000.c **** 				SLOGF(SLOG_INFO, "Sending interrupt signal");
 305:/home/tienluong/workspace/atlantis_fw/AsicFwS2/src/lcc_cmd_base_0000.c **** 				send_hw_sync_trigger();
 306:/home/tienluong/workspace/atlantis_fw/AsicFwS2/src/lcc_cmd_base_0000.c **** 				in->status = LCC_CMD_SUCCESS;
 307:/home/tienluong/workspace/atlantis_fw/AsicFwS2/src/lcc_cmd_base_0000.c **** 			}
 308:/home/tienluong/workspace/atlantis_fw/AsicFwS2/src/lcc_cmd_base_0000.c **** 			else
 309:/home/tienluong/workspace/atlantis_fw/AsicFwS2/src/lcc_cmd_base_0000.c **** 			{
 310:/home/tienluong/workspace/atlantis_fw/AsicFwS2/src/lcc_cmd_base_0000.c **** 				SLOGF(SLOG_ERROR, "Timeout waiting for interrupt signal");
 311:/home/tienluong/workspace/atlantis_fw/AsicFwS2/src/lcc_cmd_base_0000.c **** 				in->status = LCC_CMD_UNSUCCESS;
 312:/home/tienluong/workspace/atlantis_fw/AsicFwS2/src/lcc_cmd_base_0000.c **** 			}
 313:/home/tienluong/workspace/atlantis_fw/AsicFwS2/src/lcc_cmd_base_0000.c **** 		}
 314:/home/tienluong/workspace/atlantis_fw/AsicFwS2/src/lcc_cmd_base_0000.c **** 		else
 315:/home/tienluong/workspace/atlantis_fw/AsicFwS2/src/lcc_cmd_base_0000.c **** 		{
 316:/home/tienluong/workspace/atlantis_fw/AsicFwS2/src/lcc_cmd_base_0000.c **** 			in->status = LCC_CMD_UNSUCCESS;
 317:/home/tienluong/workspace/atlantis_fw/AsicFwS2/src/lcc_cmd_base_0000.c **** 		}
 318:/home/tienluong/workspace/atlantis_fw/AsicFwS2/src/lcc_cmd_base_0000.c **** #endif
 319:/home/tienluong/workspace/atlantis_fw/AsicFwS2/src/lcc_cmd_base_0000.c **** 	}
 320:/home/tienluong/workspace/atlantis_fw/AsicFwS2/src/lcc_cmd_base_0000.c **** 	/* The command status will be updated in either lcc_cmd task
 321:/home/tienluong/workspace/atlantis_fw/AsicFwS2/src/lcc_cmd_base_0000.c **** 	 * (read command) or task_cam_ctrl (write command) */
 322:/home/tienluong/workspace/atlantis_fw/AsicFwS2/src/lcc_cmd_base_0000.c **** }
 738              		.loc 1 322 0
 739 0284 09B0     		add	sp, sp, #36
 740              	.LCFI5:
 741              		.cfi_def_cfa_offset 36
 742              		@ sp needed
 743 0286 BDE8F08F 		pop	{r4, r5, r6, r7, r8, r9, r10, fp, pc}
 744              	.LVL90:
 745              	.L79:
 746 028a 00BF     		.align	2
 747              	.L78:
 748 028c 00000000 		.word	.LANCHOR1
 749 0290 00000000 		.word	pvPortMalloc1
 750 0294 00000000 		.word	.LC0
 751 0298 00000000 		.word	slogf
 752 029c 00000000 		.word	idx_to_object
 753 02a0 00000000 		.word	xQueueGenericSend
 754 02a4 3A000000 		.word	.LC3
 755 02a8 00000000 		.word	light_system
 756 02ac 50000000 		.word	.LC4
 757 02b0 69000000 		.word	.LC5
 758 02b4 00000000 		.word	ucid_hires_hdl
 759 02b8 00000000 		.word	__popcountsi2
 760 02bc 84000000 		.word	.LC6
 761 02c0 00000000 		.word	cam_ctrl_stream
 762 02c4 00000000 		.word	rx_end_flag
 763 02c8 00000000 		.word	vTaskDelay
 764 02cc 00000000 		.word	ucid_preview_hdl
 765 02d0 99000000 		.word	.LC7
 766 02d4 00000000 		.word	xQueueGenericReceive
 767              		.cfi_endproc
 768              	.LFE2:
 770              		.section	.text.cmd_cam_burst_requested,"ax",%progbits
 771              		.align	1
 772              		.global	cmd_cam_burst_requested
 773              		.thumb
 774              		.thumb_func
 776              	cmd_cam_burst_requested:
 777              	.LFB3:
 323:/home/tienluong/workspace/atlantis_fw/AsicFwS2/src/lcc_cmd_base_0000.c **** 
 324:/home/tienluong/workspace/atlantis_fw/AsicFwS2/src/lcc_cmd_base_0000.c **** /**
 325:/home/tienluong/workspace/atlantis_fw/AsicFwS2/src/lcc_cmd_base_0000.c ****  * cmd_cam_burst_requested
 326:/home/tienluong/workspace/atlantis_fw/AsicFwS2/src/lcc_cmd_base_0000.c ****  *
 327:/home/tienluong/workspace/atlantis_fw/AsicFwS2/src/lcc_cmd_base_0000.c ****  */
 328:/home/tienluong/workspace/atlantis_fw/AsicFwS2/src/lcc_cmd_base_0000.c **** void cmd_cam_burst_requested(lcc_cmd_t *in, lcc_cmd_t *out)
 329:/home/tienluong/workspace/atlantis_fw/AsicFwS2/src/lcc_cmd_base_0000.c **** {
 778              		.loc 1 329 0
 779              		.cfi_startproc
 780              		@ args = 0, pretend = 0, frame = 0
 781              		@ frame_needed = 0, uses_anonymous_args = 0
 782              	.LVL91:
 783 0000 2DE9F041 		push	{r4, r5, r6, r7, r8, lr}
 784              	.LCFI6:
 785              		.cfi_def_cfa_offset 24
 786              		.cfi_offset 4, -24
 787              		.cfi_offset 5, -20
 788              		.cfi_offset 6, -16
 789              		.cfi_offset 7, -12
 790              		.cfi_offset 8, -8
 791              		.cfi_offset 14, -4
 330:/home/tienluong/workspace/atlantis_fw/AsicFwS2/src/lcc_cmd_base_0000.c **** 	lcc_cmd_info_t cmd = (lcc_cmd_info_t)(LCC_CMD_CAM_BURST_REQUESTED);
 331:/home/tienluong/workspace/atlantis_fw/AsicFwS2/src/lcc_cmd_base_0000.c **** 	uint16_t ucid = in->ucid;
 332:/home/tienluong/workspace/atlantis_fw/AsicFwS2/src/lcc_cmd_base_0000.c **** 	/* Read command processing */
 333:/home/tienluong/workspace/atlantis_fw/AsicFwS2/src/lcc_cmd_base_0000.c **** 	if (CMD_READ == in->action)
 792              		.loc 1 333 0
 793 0004 C37C     		ldrb	r3, [r0, #19]	@ zero_extendqisi2
 331:/home/tienluong/workspace/atlantis_fw/AsicFwS2/src/lcc_cmd_base_0000.c **** 	/* Read command processing */
 794              		.loc 1 331 0
 795 0006 C489     		ldrh	r4, [r0, #14]
 796              	.LVL92:
 797              		.loc 1 333 0
 798 0008 13F0010F 		tst	r3, #1
 329:/home/tienluong/workspace/atlantis_fw/AsicFwS2/src/lcc_cmd_base_0000.c **** 	lcc_cmd_info_t cmd = (lcc_cmd_info_t)(LCC_CMD_CAM_BURST_REQUESTED);
 799              		.loc 1 329 0
 800 000c 0546     		mov	r5, r0
 801 000e 0F46     		mov	r7, r1
 802 0010 1E4E     		ldr	r6, .L84
 803              		.loc 1 333 0
 804 0012 27D0     		beq	.L81
 334:/home/tienluong/workspace/atlantis_fw/AsicFwS2/src/lcc_cmd_base_0000.c **** 	{
 335:/home/tienluong/workspace/atlantis_fw/AsicFwS2/src/lcc_cmd_base_0000.c **** 		out->data = pvPortMalloc(cmd.size);
 805              		.loc 1 335 0
 806 0014 0120     		movs	r0, #1
 807              	.LVL93:
 808 0016 1E49     		ldr	r1, .L84+4
 809              	.LVL94:
 810 0018 40F24F12 		movw	r2, #335
 811 001c 1D4B     		ldr	r3, .L84+8
 812 001e 9847     		blx	r3
 813              	.LVL95:
 814 0020 8046     		mov	r8, r0
 815 0022 7860     		str	r0, [r7, #4]
 336:/home/tienluong/workspace/atlantis_fw/AsicFwS2/src/lcc_cmd_base_0000.c **** 		if (NULL == out->data)
 816              		.loc 1 336 0
 817 0024 40B9     		cbnz	r0, .L82
 337:/home/tienluong/workspace/atlantis_fw/AsicFwS2/src/lcc_cmd_base_0000.c **** 		{
 338:/home/tienluong/workspace/atlantis_fw/AsicFwS2/src/lcc_cmd_base_0000.c **** 			SLOGF(SLOG_ERROR, "%s: Lack of memory", __FUNCTION__);
 818              		.loc 1 338 0
 819 0026 2120     		movs	r0, #33
 820 0028 0221     		movs	r1, #2
 821 002a 1B4A     		ldr	r2, .L84+12
 822 002c 184B     		ldr	r3, .L84+4
 823 002e B047     		blx	r6
 824              	.LVL96:
 339:/home/tienluong/workspace/atlantis_fw/AsicFwS2/src/lcc_cmd_base_0000.c **** 			in->status = LCC_CMD_UNSUCCESS;
 825              		.loc 1 339 0
 826 0030 A5F81080 		strh	r8, [r5, #16]	@ movhi
 827 0034 BDE8F081 		pop	{r4, r5, r6, r7, r8, pc}
 828              	.LVL97:
 829              	.L82:
 340:/home/tienluong/workspace/atlantis_fw/AsicFwS2/src/lcc_cmd_base_0000.c **** 			return;
 341:/home/tienluong/workspace/atlantis_fw/AsicFwS2/src/lcc_cmd_base_0000.c **** 		}
 342:/home/tienluong/workspace/atlantis_fw/AsicFwS2/src/lcc_cmd_base_0000.c **** 		SLOGF(SLOG_DEBUG, "Requested burst %d",
 830              		.loc 1 342 0
 831 0038 184B     		ldr	r3, .L84+16
 832 003a 04EB4404 		add	r4, r4, r4, lsl #1
 833              	.LVL98:
 834 003e 184A     		ldr	r2, .L84+20
 835 0040 2120     		movs	r0, #33
 836 0042 1021     		movs	r1, #16
 837 0044 1D68     		ldr	r5, [r3]
 838              	.LVL99:
 839 0046 AB68     		ldr	r3, [r5, #8]
 840 0048 2344     		add	r3, r3, r4
 841 004a 93F82F30 		ldrb	r3, [r3, #47]	@ zero_extendqisi2
 842 004e B047     		blx	r6
 843              	.LVL100:
 343:/home/tienluong/workspace/atlantis_fw/AsicFwS2/src/lcc_cmd_base_0000.c **** 									light_system->settings->burst[ucid].burst_requested);
 344:/home/tienluong/workspace/atlantis_fw/AsicFwS2/src/lcc_cmd_base_0000.c **** 		/* TODO: Take semaphore to access settings memory */
 345:/home/tienluong/workspace/atlantis_fw/AsicFwS2/src/lcc_cmd_base_0000.c **** 		memcpy(out->data, &light_system->settings->burst[ucid].burst_requested, cmd.size);
 844              		.loc 1 345 0
 845 0050 AA68     		ldr	r2, [r5, #8]
 846 0052 7B68     		ldr	r3, [r7, #4]
 847 0054 1444     		add	r4, r4, r2
 848 0056 94F82F20 		ldrb	r2, [r4, #47]	@ zero_extendqisi2
 849 005a 1A70     		strb	r2, [r3]
 346:/home/tienluong/workspace/atlantis_fw/AsicFwS2/src/lcc_cmd_base_0000.c **** 		/* TODO: Release semaphore after read data */
 347:/home/tienluong/workspace/atlantis_fw/AsicFwS2/src/lcc_cmd_base_0000.c **** 		out->len = cmd.size;
 850              		.loc 1 347 0
 851 005c 0123     		movs	r3, #1
 852 005e 3B81     		strh	r3, [r7, #8]	@ movhi
 853 0060 BDE8F081 		pop	{r4, r5, r6, r7, r8, pc}
 854              	.LVL101:
 855              	.L81:
 348:/home/tienluong/workspace/atlantis_fw/AsicFwS2/src/lcc_cmd_base_0000.c **** 	}
 349:/home/tienluong/workspace/atlantis_fw/AsicFwS2/src/lcc_cmd_base_0000.c **** 	else
 350:/home/tienluong/workspace/atlantis_fw/AsicFwS2/src/lcc_cmd_base_0000.c **** 	{
 351:/home/tienluong/workspace/atlantis_fw/AsicFwS2/src/lcc_cmd_base_0000.c **** 
 352:/home/tienluong/workspace/atlantis_fw/AsicFwS2/src/lcc_cmd_base_0000.c **** 
 353:/home/tienluong/workspace/atlantis_fw/AsicFwS2/src/lcc_cmd_base_0000.c **** 		SLOGF(SLOG_DEBUG, "Requested burst %d", in->data[0]);
 856              		.loc 1 353 0
 857 0064 4368     		ldr	r3, [r0, #4]
 858 0066 1021     		movs	r1, #16
 859              	.LVL102:
 860 0068 0D4A     		ldr	r2, .L84+20
 861 006a 1B78     		ldrb	r3, [r3]	@ zero_extendqisi2
 862 006c 2120     		movs	r0, #33
 863              	.LVL103:
 864 006e B047     		blx	r6
 865              	.LVL104:
 354:/home/tienluong/workspace/atlantis_fw/AsicFwS2/src/lcc_cmd_base_0000.c **** 		/* TODO: Take semaphore to access settings memory */
 355:/home/tienluong/workspace/atlantis_fw/AsicFwS2/src/lcc_cmd_base_0000.c **** 		light_system->settings->burst[ucid].burst_requested = in->data[0];
 866              		.loc 1 355 0
 867 0070 0A4B     		ldr	r3, .L84+16
 868 0072 04EB4404 		add	r4, r4, r4, lsl #1
 869              	.LVL105:
 870 0076 1B68     		ldr	r3, [r3]
 871 0078 9A68     		ldr	r2, [r3, #8]
 872 007a 6B68     		ldr	r3, [r5, #4]
 873 007c 1B78     		ldrb	r3, [r3]	@ zero_extendqisi2
 874 007e 1444     		add	r4, r4, r2
 875 0080 84F82F30 		strb	r3, [r4, #47]
 356:/home/tienluong/workspace/atlantis_fw/AsicFwS2/src/lcc_cmd_base_0000.c **** 		/* TODO: Release semaphore after read data */
 357:/home/tienluong/workspace/atlantis_fw/AsicFwS2/src/lcc_cmd_base_0000.c **** 		/* Update the command status */
 358:/home/tienluong/workspace/atlantis_fw/AsicFwS2/src/lcc_cmd_base_0000.c **** 		in->status = LCC_CMD_SUCCESS;
 876              		.loc 1 358 0
 877 0084 0123     		movs	r3, #1
 878 0086 2B82     		strh	r3, [r5, #16]	@ movhi
 879 0088 BDE8F081 		pop	{r4, r5, r6, r7, r8, pc}
 880              	.LVL106:
 881              	.L85:
 882              		.align	2
 883              	.L84:
 884 008c 00000000 		.word	slogf
 885 0090 00000000 		.word	.LANCHOR2
 886 0094 00000000 		.word	pvPortMalloc1
 887 0098 00000000 		.word	.LC0
 888 009c 00000000 		.word	light_system
 889 00a0 AD000000 		.word	.LC8
 890              		.cfi_endproc
 891              	.LFE3:
 893              		.section	.text.cmd_cam_burst_available,"ax",%progbits
 894              		.align	1
 895              		.global	cmd_cam_burst_available
 896              		.thumb
 897              		.thumb_func
 899              	cmd_cam_burst_available:
 900              	.LFB4:
 359:/home/tienluong/workspace/atlantis_fw/AsicFwS2/src/lcc_cmd_base_0000.c **** 	}
 360:/home/tienluong/workspace/atlantis_fw/AsicFwS2/src/lcc_cmd_base_0000.c **** }
 361:/home/tienluong/workspace/atlantis_fw/AsicFwS2/src/lcc_cmd_base_0000.c **** /**
 362:/home/tienluong/workspace/atlantis_fw/AsicFwS2/src/lcc_cmd_base_0000.c ****  * cmd_cam_burst_available
 363:/home/tienluong/workspace/atlantis_fw/AsicFwS2/src/lcc_cmd_base_0000.c ****  *
 364:/home/tienluong/workspace/atlantis_fw/AsicFwS2/src/lcc_cmd_base_0000.c ****  */
 365:/home/tienluong/workspace/atlantis_fw/AsicFwS2/src/lcc_cmd_base_0000.c **** void cmd_cam_burst_available(lcc_cmd_t *in, lcc_cmd_t *out)
 366:/home/tienluong/workspace/atlantis_fw/AsicFwS2/src/lcc_cmd_base_0000.c **** {
 901              		.loc 1 366 0
 902              		.cfi_startproc
 903              		@ args = 0, pretend = 0, frame = 0
 904              		@ frame_needed = 0, uses_anonymous_args = 0
 905              	.LVL107:
 906 0000 F8B5     		push	{r3, r4, r5, r6, r7, lr}
 907              	.LCFI7:
 908              		.cfi_def_cfa_offset 24
 909              		.cfi_offset 3, -24
 910              		.cfi_offset 4, -20
 911              		.cfi_offset 5, -16
 912              		.cfi_offset 6, -12
 913              		.cfi_offset 7, -8
 914              		.cfi_offset 14, -4
 367:/home/tienluong/workspace/atlantis_fw/AsicFwS2/src/lcc_cmd_base_0000.c **** 	lcc_cmd_info_t cmd = (lcc_cmd_info_t)(LCC_CMD_CAM_BURST_AVAILABLE);
 368:/home/tienluong/workspace/atlantis_fw/AsicFwS2/src/lcc_cmd_base_0000.c **** 	uint16_t ucid = in->ucid;
 369:/home/tienluong/workspace/atlantis_fw/AsicFwS2/src/lcc_cmd_base_0000.c **** 	/* Read command processing */
 370:/home/tienluong/workspace/atlantis_fw/AsicFwS2/src/lcc_cmd_base_0000.c **** 	if (CMD_READ == in->action)
 915              		.loc 1 370 0
 916 0002 C37C     		ldrb	r3, [r0, #19]	@ zero_extendqisi2
 368:/home/tienluong/workspace/atlantis_fw/AsicFwS2/src/lcc_cmd_base_0000.c **** 	/* Read command processing */
 917              		.loc 1 368 0
 918 0004 C489     		ldrh	r4, [r0, #14]
 919              	.LVL108:
 920              		.loc 1 370 0
 921 0006 DB07     		lsls	r3, r3, #31
 366:/home/tienluong/workspace/atlantis_fw/AsicFwS2/src/lcc_cmd_base_0000.c **** 	lcc_cmd_info_t cmd = (lcc_cmd_info_t)(LCC_CMD_CAM_BURST_AVAILABLE);
 922              		.loc 1 366 0
 923 0008 0546     		mov	r5, r0
 924 000a 0F46     		mov	r7, r1
 925              		.loc 1 370 0
 926 000c 1FD5     		bpl	.L86
 371:/home/tienluong/workspace/atlantis_fw/AsicFwS2/src/lcc_cmd_base_0000.c **** 	{
 372:/home/tienluong/workspace/atlantis_fw/AsicFwS2/src/lcc_cmd_base_0000.c **** 		out->data = pvPortMalloc(cmd.size);
 927              		.loc 1 372 0
 928 000e 0020     		movs	r0, #0
 929              	.LVL109:
 930 0010 0F49     		ldr	r1, .L92
 931              	.LVL110:
 932 0012 4FF4BA72 		mov	r2, #372
 933 0016 0F4B     		ldr	r3, .L92+4
 934 0018 9847     		blx	r3
 935              	.LVL111:
 936 001a DFF848C0 		ldr	ip, .L92+20
 937 001e 0646     		mov	r6, r0
 938 0020 7860     		str	r0, [r7, #4]
 373:/home/tienluong/workspace/atlantis_fw/AsicFwS2/src/lcc_cmd_base_0000.c **** 		if (NULL == out->data)
 939              		.loc 1 373 0
 940 0022 30B9     		cbnz	r0, .L88
 374:/home/tienluong/workspace/atlantis_fw/AsicFwS2/src/lcc_cmd_base_0000.c **** 		{
 375:/home/tienluong/workspace/atlantis_fw/AsicFwS2/src/lcc_cmd_base_0000.c **** 			SLOGF(SLOG_ERROR, "%s: Lack of memory", __FUNCTION__);
 941              		.loc 1 375 0
 942 0024 2120     		movs	r0, #33
 943 0026 0221     		movs	r1, #2
 944 0028 0B4A     		ldr	r2, .L92+8
 945 002a 094B     		ldr	r3, .L92
 946 002c E047     		blx	ip
 947              	.LVL112:
 376:/home/tienluong/workspace/atlantis_fw/AsicFwS2/src/lcc_cmd_base_0000.c **** 			in->status = LCC_CMD_UNSUCCESS;
 948              		.loc 1 376 0
 949 002e 2E82     		strh	r6, [r5, #16]	@ movhi
 950 0030 F8BD     		pop	{r3, r4, r5, r6, r7, pc}
 951              	.LVL113:
 952              	.L88:
 377:/home/tienluong/workspace/atlantis_fw/AsicFwS2/src/lcc_cmd_base_0000.c **** 			return;
 378:/home/tienluong/workspace/atlantis_fw/AsicFwS2/src/lcc_cmd_base_0000.c **** 		}
 379:/home/tienluong/workspace/atlantis_fw/AsicFwS2/src/lcc_cmd_base_0000.c **** 		SLOGF(SLOG_DEBUG, "Available burst %d",
 953              		.loc 1 379 0
 954 0032 0A4B     		ldr	r3, .L92+12
 955 0034 04EB4404 		add	r4, r4, r4, lsl #1
 956              	.LVL114:
 957 0038 2120     		movs	r0, #33
 958 003a 1021     		movs	r1, #16
 959 003c 1B68     		ldr	r3, [r3]
 960 003e 084A     		ldr	r2, .L92+16
 961 0040 9B68     		ldr	r3, [r3, #8]
 962 0042 1C44     		add	r4, r4, r3
 963 0044 94F83030 		ldrb	r3, [r4, #48]	@ zero_extendqisi2
 964 0048 E047     		blx	ip
 965              	.LVL115:
 380:/home/tienluong/workspace/atlantis_fw/AsicFwS2/src/lcc_cmd_base_0000.c **** 									light_system->settings->burst[ucid].burst_available);
 381:/home/tienluong/workspace/atlantis_fw/AsicFwS2/src/lcc_cmd_base_0000.c **** 		/* TODO: Take semaphore to access settings memory */
 382:/home/tienluong/workspace/atlantis_fw/AsicFwS2/src/lcc_cmd_base_0000.c **** 		memcpy(out->data, &light_system->settings->burst[ucid].burst_available, cmd.size);
 383:/home/tienluong/workspace/atlantis_fw/AsicFwS2/src/lcc_cmd_base_0000.c **** 		/* TODO: Release semaphore after read data */
 384:/home/tienluong/workspace/atlantis_fw/AsicFwS2/src/lcc_cmd_base_0000.c **** 		out->len = cmd.size;
 966              		.loc 1 384 0
 967 004a 0023     		movs	r3, #0
 968 004c 3B81     		strh	r3, [r7, #8]	@ movhi
 969              	.L86:
 970 004e F8BD     		pop	{r3, r4, r5, r6, r7, pc}
 971              	.LVL116:
 972              	.L93:
 973              		.align	2
 974              	.L92:
 975 0050 00000000 		.word	.LANCHOR3
 976 0054 00000000 		.word	pvPortMalloc1
 977 0058 00000000 		.word	.LC0
 978 005c 00000000 		.word	light_system
 979 0060 C0000000 		.word	.LC9
 980 0064 00000000 		.word	slogf
 981              		.cfi_endproc
 982              	.LFE4:
 984              		.section	.text.cmd_cam_burst_actual,"ax",%progbits
 985              		.align	1
 986              		.global	cmd_cam_burst_actual
 987              		.thumb
 988              		.thumb_func
 990              	cmd_cam_burst_actual:
 991              	.LFB5:
 385:/home/tienluong/workspace/atlantis_fw/AsicFwS2/src/lcc_cmd_base_0000.c **** 	}
 386:/home/tienluong/workspace/atlantis_fw/AsicFwS2/src/lcc_cmd_base_0000.c **** }
 387:/home/tienluong/workspace/atlantis_fw/AsicFwS2/src/lcc_cmd_base_0000.c **** 
 388:/home/tienluong/workspace/atlantis_fw/AsicFwS2/src/lcc_cmd_base_0000.c **** /**
 389:/home/tienluong/workspace/atlantis_fw/AsicFwS2/src/lcc_cmd_base_0000.c ****  * cmd_cam_burst_actual
 390:/home/tienluong/workspace/atlantis_fw/AsicFwS2/src/lcc_cmd_base_0000.c ****  *
 391:/home/tienluong/workspace/atlantis_fw/AsicFwS2/src/lcc_cmd_base_0000.c ****  */
 392:/home/tienluong/workspace/atlantis_fw/AsicFwS2/src/lcc_cmd_base_0000.c **** void cmd_cam_burst_actual(lcc_cmd_t *in, lcc_cmd_t *out)
 393:/home/tienluong/workspace/atlantis_fw/AsicFwS2/src/lcc_cmd_base_0000.c **** {
 992              		.loc 1 393 0
 993              		.cfi_startproc
 994              		@ args = 0, pretend = 0, frame = 0
 995              		@ frame_needed = 0, uses_anonymous_args = 0
 996              	.LVL117:
 997 0000 F8B5     		push	{r3, r4, r5, r6, r7, lr}
 998              	.LCFI8:
 999              		.cfi_def_cfa_offset 24
 1000              		.cfi_offset 3, -24
 1001              		.cfi_offset 4, -20
 1002              		.cfi_offset 5, -16
 1003              		.cfi_offset 6, -12
 1004              		.cfi_offset 7, -8
 1005              		.cfi_offset 14, -4
 394:/home/tienluong/workspace/atlantis_fw/AsicFwS2/src/lcc_cmd_base_0000.c **** 	lcc_cmd_info_t cmd = (lcc_cmd_info_t)(LCC_CMD_CAM_BURST_ACTUAL);
 395:/home/tienluong/workspace/atlantis_fw/AsicFwS2/src/lcc_cmd_base_0000.c **** 	uint16_t ucid = in->ucid;
 396:/home/tienluong/workspace/atlantis_fw/AsicFwS2/src/lcc_cmd_base_0000.c **** 	/* Read command processing */
 397:/home/tienluong/workspace/atlantis_fw/AsicFwS2/src/lcc_cmd_base_0000.c **** 	if (CMD_READ == in->action)
 1006              		.loc 1 397 0
 1007 0002 C37C     		ldrb	r3, [r0, #19]	@ zero_extendqisi2
 395:/home/tienluong/workspace/atlantis_fw/AsicFwS2/src/lcc_cmd_base_0000.c **** 	/* Read command processing */
 1008              		.loc 1 395 0
 1009 0004 C489     		ldrh	r4, [r0, #14]
 1010              	.LVL118:
 1011              		.loc 1 397 0
 1012 0006 DB07     		lsls	r3, r3, #31
 393:/home/tienluong/workspace/atlantis_fw/AsicFwS2/src/lcc_cmd_base_0000.c **** 	lcc_cmd_info_t cmd = (lcc_cmd_info_t)(LCC_CMD_CAM_BURST_ACTUAL);
 1013              		.loc 1 393 0
 1014 0008 0546     		mov	r5, r0
 1015 000a 0F46     		mov	r7, r1
 1016              		.loc 1 397 0
 1017 000c 1FD5     		bpl	.L94
 398:/home/tienluong/workspace/atlantis_fw/AsicFwS2/src/lcc_cmd_base_0000.c **** 	{
 399:/home/tienluong/workspace/atlantis_fw/AsicFwS2/src/lcc_cmd_base_0000.c **** 		out->data = pvPortMalloc(cmd.size);
 1018              		.loc 1 399 0
 1019 000e 0020     		movs	r0, #0
 1020              	.LVL119:
 1021 0010 0F49     		ldr	r1, .L100
 1022              	.LVL120:
 1023 0012 40F28F12 		movw	r2, #399
 1024 0016 0F4B     		ldr	r3, .L100+4
 1025 0018 9847     		blx	r3
 1026              	.LVL121:
 1027 001a DFF848C0 		ldr	ip, .L100+20
 1028 001e 0646     		mov	r6, r0
 1029 0020 7860     		str	r0, [r7, #4]
 400:/home/tienluong/workspace/atlantis_fw/AsicFwS2/src/lcc_cmd_base_0000.c **** 		if (NULL == out->data)
 1030              		.loc 1 400 0
 1031 0022 30B9     		cbnz	r0, .L96
 401:/home/tienluong/workspace/atlantis_fw/AsicFwS2/src/lcc_cmd_base_0000.c **** 		{
 402:/home/tienluong/workspace/atlantis_fw/AsicFwS2/src/lcc_cmd_base_0000.c **** 			SLOGF(SLOG_ERROR, "%s: Lack of memory", __FUNCTION__);
 1032              		.loc 1 402 0
 1033 0024 2120     		movs	r0, #33
 1034 0026 0221     		movs	r1, #2
 1035 0028 0B4A     		ldr	r2, .L100+8
 1036 002a 094B     		ldr	r3, .L100
 1037 002c E047     		blx	ip
 1038              	.LVL122:
 403:/home/tienluong/workspace/atlantis_fw/AsicFwS2/src/lcc_cmd_base_0000.c **** 			in->status = LCC_CMD_UNSUCCESS;
 1039              		.loc 1 403 0
 1040 002e 2E82     		strh	r6, [r5, #16]	@ movhi
 1041 0030 F8BD     		pop	{r3, r4, r5, r6, r7, pc}
 1042              	.LVL123:
 1043              	.L96:
 404:/home/tienluong/workspace/atlantis_fw/AsicFwS2/src/lcc_cmd_base_0000.c **** 			return;
 405:/home/tienluong/workspace/atlantis_fw/AsicFwS2/src/lcc_cmd_base_0000.c **** 		}
 406:/home/tienluong/workspace/atlantis_fw/AsicFwS2/src/lcc_cmd_base_0000.c **** 		SLOGF(SLOG_DEBUG, "Actual burst %d",
 1044              		.loc 1 406 0
 1045 0032 0A4B     		ldr	r3, .L100+12
 1046 0034 04EB4404 		add	r4, r4, r4, lsl #1
 1047              	.LVL124:
 1048 0038 2120     		movs	r0, #33
 1049 003a 1021     		movs	r1, #16
 1050 003c 1B68     		ldr	r3, [r3]
 1051 003e 084A     		ldr	r2, .L100+16
 1052 0040 9B68     		ldr	r3, [r3, #8]
 1053 0042 1C44     		add	r4, r4, r3
 1054 0044 94F83130 		ldrb	r3, [r4, #49]	@ zero_extendqisi2
 1055 0048 E047     		blx	ip
 1056              	.LVL125:
 407:/home/tienluong/workspace/atlantis_fw/AsicFwS2/src/lcc_cmd_base_0000.c **** 									light_system->settings->burst[ucid].burst_actual);
 408:/home/tienluong/workspace/atlantis_fw/AsicFwS2/src/lcc_cmd_base_0000.c **** 		/* TODO: Take semaphore to access settings memory */
 409:/home/tienluong/workspace/atlantis_fw/AsicFwS2/src/lcc_cmd_base_0000.c **** 		memcpy(out->data, &light_system->settings->burst[ucid].burst_actual, cmd.size);
 410:/home/tienluong/workspace/atlantis_fw/AsicFwS2/src/lcc_cmd_base_0000.c **** 		/* TODO: Release semaphore after read data */
 411:/home/tienluong/workspace/atlantis_fw/AsicFwS2/src/lcc_cmd_base_0000.c **** 		out->len = cmd.size;
 1057              		.loc 1 411 0
 1058 004a 0023     		movs	r3, #0
 1059 004c 3B81     		strh	r3, [r7, #8]	@ movhi
 1060              	.L94:
 1061 004e F8BD     		pop	{r3, r4, r5, r6, r7, pc}
 1062              	.LVL126:
 1063              	.L101:
 1064              		.align	2
 1065              	.L100:
 1066 0050 00000000 		.word	.LANCHOR4
 1067 0054 00000000 		.word	pvPortMalloc1
 1068 0058 00000000 		.word	.LC0
 1069 005c 00000000 		.word	light_system
 1070 0060 D3000000 		.word	.LC10
 1071 0064 00000000 		.word	slogf
 1072              		.cfi_endproc
 1073              	.LFE5:
 1075              		.section	.text.cmd_cam_snapshot_uuid,"ax",%progbits
 1076              		.align	1
 1077              		.global	cmd_cam_snapshot_uuid
 1078              		.thumb
 1079              		.thumb_func
 1081              	cmd_cam_snapshot_uuid:
 1082              	.LFB6:
 412:/home/tienluong/workspace/atlantis_fw/AsicFwS2/src/lcc_cmd_base_0000.c **** 	}
 413:/home/tienluong/workspace/atlantis_fw/AsicFwS2/src/lcc_cmd_base_0000.c **** }
 414:/home/tienluong/workspace/atlantis_fw/AsicFwS2/src/lcc_cmd_base_0000.c **** 
 415:/home/tienluong/workspace/atlantis_fw/AsicFwS2/src/lcc_cmd_base_0000.c **** /**
 416:/home/tienluong/workspace/atlantis_fw/AsicFwS2/src/lcc_cmd_base_0000.c ****  * cmd_cam_snapshot_uuid
 417:/home/tienluong/workspace/atlantis_fw/AsicFwS2/src/lcc_cmd_base_0000.c ****  *
 418:/home/tienluong/workspace/atlantis_fw/AsicFwS2/src/lcc_cmd_base_0000.c ****  */
 419:/home/tienluong/workspace/atlantis_fw/AsicFwS2/src/lcc_cmd_base_0000.c **** void cmd_cam_snapshot_uuid(lcc_cmd_t *in, lcc_cmd_t *out)
 420:/home/tienluong/workspace/atlantis_fw/AsicFwS2/src/lcc_cmd_base_0000.c **** {
 1083              		.loc 1 420 0
 1084              		.cfi_startproc
 1085              		@ args = 0, pretend = 0, frame = 0
 1086              		@ frame_needed = 0, uses_anonymous_args = 0
 1087              	.LVL127:
 1088 0000 F8B5     		push	{r3, r4, r5, r6, r7, lr}
 1089              	.LCFI9:
 1090              		.cfi_def_cfa_offset 24
 1091              		.cfi_offset 3, -24
 1092              		.cfi_offset 4, -20
 1093              		.cfi_offset 5, -16
 1094              		.cfi_offset 6, -12
 1095              		.cfi_offset 7, -8
 1096              		.cfi_offset 14, -4
 421:/home/tienluong/workspace/atlantis_fw/AsicFwS2/src/lcc_cmd_base_0000.c **** 	lcc_cmd_info_t cmd = (lcc_cmd_info_t)(LCC_CMD_CAM_SNAPSHOT_UUID);
 422:/home/tienluong/workspace/atlantis_fw/AsicFwS2/src/lcc_cmd_base_0000.c **** 
 423:/home/tienluong/workspace/atlantis_fw/AsicFwS2/src/lcc_cmd_base_0000.c **** 	/* Read command processing */
 424:/home/tienluong/workspace/atlantis_fw/AsicFwS2/src/lcc_cmd_base_0000.c **** 	if (CMD_READ == in->action)
 1097              		.loc 1 424 0
 1098 0002 C37C     		ldrb	r3, [r0, #19]	@ zero_extendqisi2
 1099 0004 DB07     		lsls	r3, r3, #31
 420:/home/tienluong/workspace/atlantis_fw/AsicFwS2/src/lcc_cmd_base_0000.c **** 	lcc_cmd_info_t cmd = (lcc_cmd_info_t)(LCC_CMD_CAM_SNAPSHOT_UUID);
 1100              		.loc 1 420 0
 1101 0006 0546     		mov	r5, r0
 1102 0008 0E46     		mov	r6, r1
 1103              		.loc 1 424 0
 1104 000a 1FD5     		bpl	.L103
 425:/home/tienluong/workspace/atlantis_fw/AsicFwS2/src/lcc_cmd_base_0000.c **** 	{
 426:/home/tienluong/workspace/atlantis_fw/AsicFwS2/src/lcc_cmd_base_0000.c **** 		out->data = pvPortMalloc(cmd.size);
 1105              		.loc 1 426 0
 1106 000c 1020     		movs	r0, #16
 1107              	.LVL128:
 1108 000e 2349     		ldr	r1, .L110
 1109              	.LVL129:
 1110 0010 4FF4D572 		mov	r2, #426
 1111 0014 224B     		ldr	r3, .L110+4
 1112 0016 9847     		blx	r3
 1113              	.LVL130:
 1114 0018 0446     		mov	r4, r0
 1115 001a 7060     		str	r0, [r6, #4]
 427:/home/tienluong/workspace/atlantis_fw/AsicFwS2/src/lcc_cmd_base_0000.c **** 		if (NULL == out->data)
 1116              		.loc 1 427 0
 1117 001c 38B9     		cbnz	r0, .L104
 428:/home/tienluong/workspace/atlantis_fw/AsicFwS2/src/lcc_cmd_base_0000.c **** 		{
 429:/home/tienluong/workspace/atlantis_fw/AsicFwS2/src/lcc_cmd_base_0000.c **** 			SLOGF(SLOG_ERROR, "%s: Lack of memory", __FUNCTION__);
 1118              		.loc 1 429 0
 1119 001e 2120     		movs	r0, #33
 1120 0020 0221     		movs	r1, #2
 1121 0022 204A     		ldr	r2, .L110+8
 1122 0024 1D4B     		ldr	r3, .L110
 1123 0026 204E     		ldr	r6, .L110+12
 1124              	.LVL131:
 1125 0028 B047     		blx	r6
 1126              	.LVL132:
 430:/home/tienluong/workspace/atlantis_fw/AsicFwS2/src/lcc_cmd_base_0000.c **** 			in->status = LCC_CMD_UNSUCCESS;
 1127              		.loc 1 430 0
 1128 002a 2C82     		strh	r4, [r5, #16]	@ movhi
 1129 002c F8BD     		pop	{r3, r4, r5, r6, r7, pc}
 1130              	.LVL133:
 1131              	.L104:
 431:/home/tienluong/workspace/atlantis_fw/AsicFwS2/src/lcc_cmd_base_0000.c **** 			return;
 432:/home/tienluong/workspace/atlantis_fw/AsicFwS2/src/lcc_cmd_base_0000.c **** 		}
 433:/home/tienluong/workspace/atlantis_fw/AsicFwS2/src/lcc_cmd_base_0000.c **** 		/* TODO: Take semaphore to access settings memory */
 434:/home/tienluong/workspace/atlantis_fw/AsicFwS2/src/lcc_cmd_base_0000.c **** 		memcpy(out->data, light_system->settings->snapshot_uuid, cmd.size);
 1132              		.loc 1 434 0
 1133 002e 1F4B     		ldr	r3, .L110+16
 1134 0030 1B68     		ldr	r3, [r3]
 1135 0032 9B68     		ldr	r3, [r3, #8]
 1136 0034 03F11F02 		add	r2, r3, #31
 1137 0038 2F33     		adds	r3, r3, #47
 1138              	.L106:
 1139 003a 52F8041B 		ldr	r1, [r2], #4	@ unaligned
 1140 003e 44F8041B 		str	r1, [r4], #4	@ unaligned
 1141 0042 9A42     		cmp	r2, r3
 1142 0044 F9D1     		bne	.L106
 435:/home/tienluong/workspace/atlantis_fw/AsicFwS2/src/lcc_cmd_base_0000.c **** 		/* TODO: Release semaphore after read data */
 436:/home/tienluong/workspace/atlantis_fw/AsicFwS2/src/lcc_cmd_base_0000.c **** 		out->len = cmd.size;
 1143              		.loc 1 436 0
 1144 0046 1023     		movs	r3, #16
 1145 0048 3381     		strh	r3, [r6, #8]	@ movhi
 1146 004a F8BD     		pop	{r3, r4, r5, r6, r7, pc}
 1147              	.LVL134:
 1148              	.L103:
 1149              	.LBB6:
 437:/home/tienluong/workspace/atlantis_fw/AsicFwS2/src/lcc_cmd_base_0000.c **** 	}
 438:/home/tienluong/workspace/atlantis_fw/AsicFwS2/src/lcc_cmd_base_0000.c **** 	else
 439:/home/tienluong/workspace/atlantis_fw/AsicFwS2/src/lcc_cmd_base_0000.c **** 	{
 440:/home/tienluong/workspace/atlantis_fw/AsicFwS2/src/lcc_cmd_base_0000.c **** 		uint32_t suuid = 0;
 441:/home/tienluong/workspace/atlantis_fw/AsicFwS2/src/lcc_cmd_base_0000.c **** 		uint8_t *puuid = light_system->settings->snapshot_uuid;
 1150              		.loc 1 441 0
 1151 004c 174B     		ldr	r3, .L110+16
 442:/home/tienluong/workspace/atlantis_fw/AsicFwS2/src/lcc_cmd_base_0000.c **** 		SLOGF(SLOG_DEBUG, "Received snapshot UUID");
 1152              		.loc 1 442 0
 1153 004e 1021     		movs	r1, #16
 1154              	.LVL135:
 1155 0050 174A     		ldr	r2, .L110+20
 1156 0052 2120     		movs	r0, #33
 1157              	.LVL136:
 1158 0054 144C     		ldr	r4, .L110+12
 441:/home/tienluong/workspace/atlantis_fw/AsicFwS2/src/lcc_cmd_base_0000.c **** 		SLOGF(SLOG_DEBUG, "Received snapshot UUID");
 1159              		.loc 1 441 0
 1160 0056 1F68     		ldr	r7, [r3]
 1161 0058 BE68     		ldr	r6, [r7, #8]
 1162              	.LVL137:
 1163              		.loc 1 442 0
 1164 005a A047     		blx	r4
 1165              	.LVL138:
 443:/home/tienluong/workspace/atlantis_fw/AsicFwS2/src/lcc_cmd_base_0000.c **** 		/* TODO: Take semaphore to access settings memory */
 444:/home/tienluong/workspace/atlantis_fw/AsicFwS2/src/lcc_cmd_base_0000.c **** 		memcpy(light_system->settings->snapshot_uuid, in->data, cmd.size);
 1166              		.loc 1 444 0
 1167 005c BA68     		ldr	r2, [r7, #8]
 1168 005e 6B68     		ldr	r3, [r5, #4]
 1169 0060 1F32     		adds	r2, r2, #31
 1170 0062 03F11001 		add	r1, r3, #16
 1171              	.L107:
 1172 0066 53F8040B 		ldr	r0, [r3], #4	@ unaligned
 1173 006a 42F8040B 		str	r0, [r2], #4	@ unaligned
 1174 006e 8B42     		cmp	r3, r1
 1175 0070 F9D1     		bne	.L107
 1176              	.LVL139:
 445:/home/tienluong/workspace/atlantis_fw/AsicFwS2/src/lcc_cmd_base_0000.c **** 		suuid = (puuid[3] << 24 | puuid[2] << 16 | puuid[1] << 8 | puuid[0]);
 1177              		.loc 1 445 0
 1178 0072 96F82130 		ldrb	r3, [r6, #33]	@ zero_extendqisi2
 1179              	.LVL140:
 1180 0076 1B04     		lsls	r3, r3, #16
 1181              	.LVL141:
 1182 0078 96F82220 		ldrb	r2, [r6, #34]	@ zero_extendqisi2
 1183              	.LVL142:
 1184 007c 43EA0263 		orr	r3, r3, r2, lsl #24
 1185 0080 F27F     		ldrb	r2, [r6, #31]	@ zero_extendqisi2
 1186              	.LVL143:
 1187 0082 1343     		orrs	r3, r3, r2
 1188 0084 96F82060 		ldrb	r6, [r6, #32]	@ zero_extendqisi2
 1189              	.LVL144:
 446:/home/tienluong/workspace/atlantis_fw/AsicFwS2/src/lcc_cmd_base_0000.c **** 		SLOGF(SLOG_DEBUG, "SUUID: 0x%04x", (unsigned int)suuid);
 1190              		.loc 1 446 0
 1191 0088 2120     		movs	r0, #33
 1192 008a 43EA0623 		orr	r3, r3, r6, lsl #8
 1193 008e 1021     		movs	r1, #16
 1194 0090 084A     		ldr	r2, .L110+24
 1195 0092 A047     		blx	r4
 1196              	.LVL145:
 447:/home/tienluong/workspace/atlantis_fw/AsicFwS2/src/lcc_cmd_base_0000.c **** 		/* TODO: Release semaphore after read data */
 448:/home/tienluong/workspace/atlantis_fw/AsicFwS2/src/lcc_cmd_base_0000.c **** 		/* Update the command status */
 449:/home/tienluong/workspace/atlantis_fw/AsicFwS2/src/lcc_cmd_base_0000.c **** 		in->status = LCC_CMD_SUCCESS;
 1197              		.loc 1 449 0
 1198 0094 0123     		movs	r3, #1
 1199 0096 2B82     		strh	r3, [r5, #16]	@ movhi
 1200 0098 F8BD     		pop	{r3, r4, r5, r6, r7, pc}
 1201              	.LVL146:
 1202              	.L111:
 1203 009a 00BF     		.align	2
 1204              	.L110:
 1205 009c 00000000 		.word	.LANCHOR5
 1206 00a0 00000000 		.word	pvPortMalloc1
 1207 00a4 00000000 		.word	.LC0
 1208 00a8 00000000 		.word	slogf
 1209 00ac 00000000 		.word	light_system
 1210 00b0 E3000000 		.word	.LC11
 1211 00b4 FA000000 		.word	.LC12
 1212              	.LBE6:
 1213              		.cfi_endproc
 1214              	.LFE6:
 1216              		.section	.text.cmd_cam_snapshot_tid,"ax",%progbits
 1217              		.align	1
 1218              		.global	cmd_cam_snapshot_tid
 1219              		.thumb
 1220              		.thumb_func
 1222              	cmd_cam_snapshot_tid:
 1223              	.LFB7:
 450:/home/tienluong/workspace/atlantis_fw/AsicFwS2/src/lcc_cmd_base_0000.c **** 	}
 451:/home/tienluong/workspace/atlantis_fw/AsicFwS2/src/lcc_cmd_base_0000.c **** }
 452:/home/tienluong/workspace/atlantis_fw/AsicFwS2/src/lcc_cmd_base_0000.c **** /**
 453:/home/tienluong/workspace/atlantis_fw/AsicFwS2/src/lcc_cmd_base_0000.c ****  * cmd_cam_snapshot_tid
 454:/home/tienluong/workspace/atlantis_fw/AsicFwS2/src/lcc_cmd_base_0000.c ****  *
 455:/home/tienluong/workspace/atlantis_fw/AsicFwS2/src/lcc_cmd_base_0000.c ****  */
 456:/home/tienluong/workspace/atlantis_fw/AsicFwS2/src/lcc_cmd_base_0000.c **** void cmd_cam_snapshot_tid(lcc_cmd_t *in, lcc_cmd_t *out)
 457:/home/tienluong/workspace/atlantis_fw/AsicFwS2/src/lcc_cmd_base_0000.c **** {
 1224              		.loc 1 457 0
 1225              		.cfi_startproc
 1226              		@ args = 0, pretend = 0, frame = 0
 1227              		@ frame_needed = 0, uses_anonymous_args = 0
 1228              	.LVL147:
 1229 0000 2DE9F84F 		push	{r3, r4, r5, r6, r7, r8, r9, r10, fp, lr}
 1230              	.LCFI10:
 1231              		.cfi_def_cfa_offset 40
 1232              		.cfi_offset 3, -40
 1233              		.cfi_offset 4, -36
 1234              		.cfi_offset 5, -32
 1235              		.cfi_offset 6, -28
 1236              		.cfi_offset 7, -24
 1237              		.cfi_offset 8, -20
 1238              		.cfi_offset 9, -16
 1239              		.cfi_offset 10, -12
 1240              		.cfi_offset 11, -8
 1241              		.cfi_offset 14, -4
 458:/home/tienluong/workspace/atlantis_fw/AsicFwS2/src/lcc_cmd_base_0000.c **** 	cam_typedef_t *p_cam;
 459:/home/tienluong/workspace/atlantis_fw/AsicFwS2/src/lcc_cmd_base_0000.c **** 	lcc_cmd_info_t cmd = (lcc_cmd_info_t)(LCC_CMD_CAM_SNAPSHOT_TID);
 460:/home/tienluong/workspace/atlantis_fw/AsicFwS2/src/lcc_cmd_base_0000.c **** 	uint32_t m_bitmask = in->m_bitmask;
 461:/home/tienluong/workspace/atlantis_fw/AsicFwS2/src/lcc_cmd_base_0000.c **** 	uint8_t i, cam_idx, data_cnt = 0;
 462:/home/tienluong/workspace/atlantis_fw/AsicFwS2/src/lcc_cmd_base_0000.c **** 
 463:/home/tienluong/workspace/atlantis_fw/AsicFwS2/src/lcc_cmd_base_0000.c **** 	if (CMD_READ == in->action)
 1242              		.loc 1 463 0
 1243 0004 C37C     		ldrb	r3, [r0, #19]	@ zero_extendqisi2
 1244 0006 DB07     		lsls	r3, r3, #31
 457:/home/tienluong/workspace/atlantis_fw/AsicFwS2/src/lcc_cmd_base_0000.c **** 	cam_typedef_t *p_cam;
 1245              		.loc 1 457 0
 1246 0008 0546     		mov	r5, r0
 1247 000a 0F46     		mov	r7, r1
 460:/home/tienluong/workspace/atlantis_fw/AsicFwS2/src/lcc_cmd_base_0000.c **** 	uint8_t i, cam_idx, data_cnt = 0;
 1248              		.loc 1 460 0
 1249 000c D0F80090 		ldr	r9, [r0]
 1250              	.LVL148:
 1251              		.loc 1 463 0
 1252 0010 03D4     		bmi	.L113
 1253              	.LVL149:
 1254              	.L115:
 464:/home/tienluong/workspace/atlantis_fw/AsicFwS2/src/lcc_cmd_base_0000.c **** 	{
 465:/home/tienluong/workspace/atlantis_fw/AsicFwS2/src/lcc_cmd_base_0000.c **** 		out->data = pvPortMalloc(in->m_number*cmd.size);
 466:/home/tienluong/workspace/atlantis_fw/AsicFwS2/src/lcc_cmd_base_0000.c **** 		if (NULL == out->data)
 467:/home/tienluong/workspace/atlantis_fw/AsicFwS2/src/lcc_cmd_base_0000.c **** 		{
 468:/home/tienluong/workspace/atlantis_fw/AsicFwS2/src/lcc_cmd_base_0000.c **** 			SLOGF(SLOG_ERROR, "%s: Lack of memory", __FUNCTION__);
 469:/home/tienluong/workspace/atlantis_fw/AsicFwS2/src/lcc_cmd_base_0000.c **** 			in->status = LCC_CMD_UNSUCCESS;
 470:/home/tienluong/workspace/atlantis_fw/AsicFwS2/src/lcc_cmd_base_0000.c **** 			return;
 471:/home/tienluong/workspace/atlantis_fw/AsicFwS2/src/lcc_cmd_base_0000.c **** 		}
 472:/home/tienluong/workspace/atlantis_fw/AsicFwS2/src/lcc_cmd_base_0000.c **** 	}
 473:/home/tienluong/workspace/atlantis_fw/AsicFwS2/src/lcc_cmd_base_0000.c **** 
 474:/home/tienluong/workspace/atlantis_fw/AsicFwS2/src/lcc_cmd_base_0000.c **** 	/* Scan camera bitmask */
 475:/home/tienluong/workspace/atlantis_fw/AsicFwS2/src/lcc_cmd_base_0000.c **** 	for (i = 0; i < in->m_number; i++)
 476:/home/tienluong/workspace/atlantis_fw/AsicFwS2/src/lcc_cmd_base_0000.c **** 	{
 477:/home/tienluong/workspace/atlantis_fw/AsicFwS2/src/lcc_cmd_base_0000.c **** 		cam_idx = __builtin_ctz(m_bitmask);
 478:/home/tienluong/workspace/atlantis_fw/AsicFwS2/src/lcc_cmd_base_0000.c **** 		m_bitmask &= ~(1 << cam_idx);
 479:/home/tienluong/workspace/atlantis_fw/AsicFwS2/src/lcc_cmd_base_0000.c **** 		/* Get camera object from camera object list */
 480:/home/tienluong/workspace/atlantis_fw/AsicFwS2/src/lcc_cmd_base_0000.c **** 		p_cam = idx_to_object(cam_idx);
 481:/home/tienluong/workspace/atlantis_fw/AsicFwS2/src/lcc_cmd_base_0000.c **** 		if (NULL == p_cam)	/* Verify object is valid */
 482:/home/tienluong/workspace/atlantis_fw/AsicFwS2/src/lcc_cmd_base_0000.c **** 		{
 483:/home/tienluong/workspace/atlantis_fw/AsicFwS2/src/lcc_cmd_base_0000.c **** 			in->status = LCC_CMD_ERROR_INVALID_MBITMASK;
 484:/home/tienluong/workspace/atlantis_fw/AsicFwS2/src/lcc_cmd_base_0000.c **** 			return;
 485:/home/tienluong/workspace/atlantis_fw/AsicFwS2/src/lcc_cmd_base_0000.c **** 		}
 486:/home/tienluong/workspace/atlantis_fw/AsicFwS2/src/lcc_cmd_base_0000.c **** 
 487:/home/tienluong/workspace/atlantis_fw/AsicFwS2/src/lcc_cmd_base_0000.c **** 		/* Read command processing */
 488:/home/tienluong/workspace/atlantis_fw/AsicFwS2/src/lcc_cmd_base_0000.c **** 		if (CMD_READ == in->action)
 489:/home/tienluong/workspace/atlantis_fw/AsicFwS2/src/lcc_cmd_base_0000.c **** 		{
 490:/home/tienluong/workspace/atlantis_fw/AsicFwS2/src/lcc_cmd_base_0000.c **** 			/* TODO: Take semaphore to access settings memory */
 491:/home/tienluong/workspace/atlantis_fw/AsicFwS2/src/lcc_cmd_base_0000.c **** 			xSemaphoreTake(p_cam->semaphore, portMAX_DELAY);
 492:/home/tienluong/workspace/atlantis_fw/AsicFwS2/src/lcc_cmd_base_0000.c **** 			memcpy(&out->data[out->len], p_cam->settings->thumb_id, cmd.size);
 493:/home/tienluong/workspace/atlantis_fw/AsicFwS2/src/lcc_cmd_base_0000.c **** 			out->len += cmd.size;
 494:/home/tienluong/workspace/atlantis_fw/AsicFwS2/src/lcc_cmd_base_0000.c **** 			/* TODO: Release semaphore after read data */
 495:/home/tienluong/workspace/atlantis_fw/AsicFwS2/src/lcc_cmd_base_0000.c **** 			xSemaphoreGive(p_cam->semaphore);
 496:/home/tienluong/workspace/atlantis_fw/AsicFwS2/src/lcc_cmd_base_0000.c **** 		}
 497:/home/tienluong/workspace/atlantis_fw/AsicFwS2/src/lcc_cmd_base_0000.c **** 		/* Write command processing */
 498:/home/tienluong/workspace/atlantis_fw/AsicFwS2/src/lcc_cmd_base_0000.c **** 		else
 499:/home/tienluong/workspace/atlantis_fw/AsicFwS2/src/lcc_cmd_base_0000.c **** 		{
 500:/home/tienluong/workspace/atlantis_fw/AsicFwS2/src/lcc_cmd_base_0000.c **** 			/* TODO: Take semaphore to access settings memory */
 501:/home/tienluong/workspace/atlantis_fw/AsicFwS2/src/lcc_cmd_base_0000.c **** 			xSemaphoreTake(p_cam->semaphore, portMAX_DELAY);
 502:/home/tienluong/workspace/atlantis_fw/AsicFwS2/src/lcc_cmd_base_0000.c **** 			memcpy(p_cam->settings->thumb_id, &in->data[data_cnt], cmd.size);
 503:/home/tienluong/workspace/atlantis_fw/AsicFwS2/src/lcc_cmd_base_0000.c **** 			xSemaphoreGive(p_cam->semaphore);
 504:/home/tienluong/workspace/atlantis_fw/AsicFwS2/src/lcc_cmd_base_0000.c **** 
 505:/home/tienluong/workspace/atlantis_fw/AsicFwS2/src/lcc_cmd_base_0000.c **** 			/* Set data pointer when command was set for global */
 506:/home/tienluong/workspace/atlantis_fw/AsicFwS2/src/lcc_cmd_base_0000.c **** 			data_cnt += in->global ? 0 : cmd.size;
 1255              		.loc 1 506 0
 1256 0012 4FF00008 		mov	r8, #0
 1257 0016 C246     		mov	r10, r8
 1258 0018 32E0     		b	.L114
 1259              	.LVL150:
 1260              	.L113:
 465:/home/tienluong/workspace/atlantis_fw/AsicFwS2/src/lcc_cmd_base_0000.c **** 		if (NULL == out->data)
 1261              		.loc 1 465 0
 1262 001a 807C     		ldrb	r0, [r0, #18]	@ zero_extendqisi2
 1263              	.LVL151:
 1264 001c 3449     		ldr	r1, .L124
 1265              	.LVL152:
 1266 001e C000     		lsls	r0, r0, #3
 1267 0020 40F2D112 		movw	r2, #465
 1268 0024 334B     		ldr	r3, .L124+4
 1269 0026 9847     		blx	r3
 1270              	.LVL153:
 1271 0028 0446     		mov	r4, r0
 1272 002a 7860     		str	r0, [r7, #4]
 466:/home/tienluong/workspace/atlantis_fw/AsicFwS2/src/lcc_cmd_base_0000.c **** 		{
 1273              		.loc 1 466 0
 1274 002c 0028     		cmp	r0, #0
 1275 002e F0D1     		bne	.L115
 468:/home/tienluong/workspace/atlantis_fw/AsicFwS2/src/lcc_cmd_base_0000.c **** 			in->status = LCC_CMD_UNSUCCESS;
 1276              		.loc 1 468 0
 1277 0030 2120     		movs	r0, #33
 1278 0032 0221     		movs	r1, #2
 1279 0034 304A     		ldr	r2, .L124+8
 1280 0036 2E4B     		ldr	r3, .L124
 1281 0038 304E     		ldr	r6, .L124+12
 1282 003a B047     		blx	r6
 1283              	.LVL154:
 469:/home/tienluong/workspace/atlantis_fw/AsicFwS2/src/lcc_cmd_base_0000.c **** 			return;
 1284              		.loc 1 469 0
 1285 003c 2C82     		strh	r4, [r5, #16]	@ movhi
 470:/home/tienluong/workspace/atlantis_fw/AsicFwS2/src/lcc_cmd_base_0000.c **** 		}
 1286              		.loc 1 470 0
 1287 003e BDE8F88F 		pop	{r3, r4, r5, r6, r7, r8, r9, r10, fp, pc}
 1288              	.LVL155:
 1289              	.L117:
 488:/home/tienluong/workspace/atlantis_fw/AsicFwS2/src/lcc_cmd_base_0000.c **** 		{
 1290              		.loc 1 488 0
 1291 0042 EC7C     		ldrb	r4, [r5, #19]	@ zero_extendqisi2
 1292 0044 14F00104 		ands	r4, r4, #1
 491:/home/tienluong/workspace/atlantis_fw/AsicFwS2/src/lcc_cmd_base_0000.c **** 			memcpy(&out->data[out->len], p_cam->settings->thumb_id, cmd.size);
 1293              		.loc 1 491 0
 1294 0048 006B     		ldr	r0, [r0, #48]
 1295              	.LVL156:
 1296 004a DFF8C0C0 		ldr	ip, .L124+28
 488:/home/tienluong/workspace/atlantis_fw/AsicFwS2/src/lcc_cmd_base_0000.c **** 		{
 1297              		.loc 1 488 0
 1298 004e 2FD0     		beq	.L118
 491:/home/tienluong/workspace/atlantis_fw/AsicFwS2/src/lcc_cmd_base_0000.c **** 			memcpy(&out->data[out->len], p_cam->settings->thumb_id, cmd.size);
 1299              		.loc 1 491 0
 1300 0050 0021     		movs	r1, #0
 1301 0052 0B46     		mov	r3, r1
 1302 0054 4FF0FF32 		mov	r2, #-1
 1303 0058 E047     		blx	ip
 1304              	.LVL157:
 492:/home/tienluong/workspace/atlantis_fw/AsicFwS2/src/lcc_cmd_base_0000.c **** 			out->len += cmd.size;
 1305              		.loc 1 492 0
 1306 005a 7868     		ldr	r0, [r7, #4]
 1307 005c B168     		ldr	r1, [r6, #8]
 1308 005e 3B89     		ldrh	r3, [r7, #8]
 1309 0060 0822     		movs	r2, #8
 1310 0062 1844     		add	r0, r0, r3
 1311 0064 1831     		adds	r1, r1, #24
 1312 0066 264B     		ldr	r3, .L124+16
 1313 0068 9847     		blx	r3
 1314              	.LVL158:
 493:/home/tienluong/workspace/atlantis_fw/AsicFwS2/src/lcc_cmd_base_0000.c **** 			/* TODO: Release semaphore after read data */
 1315              		.loc 1 493 0
 1316 006a 3B89     		ldrh	r3, [r7, #8]
 1317 006c 0833     		adds	r3, r3, #8
 495:/home/tienluong/workspace/atlantis_fw/AsicFwS2/src/lcc_cmd_base_0000.c **** 		}
 1318              		.loc 1 495 0
 1319 006e 0021     		movs	r1, #0
 493:/home/tienluong/workspace/atlantis_fw/AsicFwS2/src/lcc_cmd_base_0000.c **** 			/* TODO: Release semaphore after read data */
 1320              		.loc 1 493 0
 1321 0070 3B81     		strh	r3, [r7, #8]	@ movhi
 495:/home/tienluong/workspace/atlantis_fw/AsicFwS2/src/lcc_cmd_base_0000.c **** 		}
 1322              		.loc 1 495 0
 1323 0072 0A46     		mov	r2, r1
 1324 0074 306B     		ldr	r0, [r6, #48]
 1325 0076 0B46     		mov	r3, r1
 1326 0078 224C     		ldr	r4, .L124+20
 1327 007a A047     		blx	r4
 1328              	.LVL159:
 1329              	.L119:
 1330 007c 08F10108 		add	r8, r8, #1
 1331              	.LVL160:
 1332              	.L114:
 475:/home/tienluong/workspace/atlantis_fw/AsicFwS2/src/lcc_cmd_base_0000.c **** 	{
 1333              		.loc 1 475 0 discriminator 1
 1334 0080 5FFA88F3 		uxtb	r3, r8
 1335 0084 AA7C     		ldrb	r2, [r5, #18]	@ zero_extendqisi2
 1336 0086 9A42     		cmp	r2, r3
 1337 0088 2FD9     		bls	.L123
 478:/home/tienluong/workspace/atlantis_fw/AsicFwS2/src/lcc_cmd_base_0000.c **** 		/* Get camera object from camera object list */
 1338              		.loc 1 478 0
 1339 008a 4FF0010B 		mov	fp, #1
 477:/home/tienluong/workspace/atlantis_fw/AsicFwS2/src/lcc_cmd_base_0000.c **** 		m_bitmask &= ~(1 << cam_idx);
 1340              		.loc 1 477 0
 1341 008e 99FAA9F0 		rbit	r0, r9
 1342 0092 B0FA80F0 		clz	r0, r0
 1343              	.LVL161:
 478:/home/tienluong/workspace/atlantis_fw/AsicFwS2/src/lcc_cmd_base_0000.c **** 		/* Get camera object from camera object list */
 1344              		.loc 1 478 0
 1345 0096 0BFA00F3 		lsl	r3, fp, r0
 1346 009a 29EA0309 		bic	r9, r9, r3
 1347              	.LVL162:
 480:/home/tienluong/workspace/atlantis_fw/AsicFwS2/src/lcc_cmd_base_0000.c **** 		if (NULL == p_cam)	/* Verify object is valid */
 1348              		.loc 1 480 0
 1349 009e 1A4B     		ldr	r3, .L124+24
 1350 00a0 9847     		blx	r3
 1351              	.LVL163:
 481:/home/tienluong/workspace/atlantis_fw/AsicFwS2/src/lcc_cmd_base_0000.c **** 		{
 1352              		.loc 1 481 0
 1353 00a2 0646     		mov	r6, r0
 1354 00a4 0028     		cmp	r0, #0
 1355 00a6 CCD1     		bne	.L117
 483:/home/tienluong/workspace/atlantis_fw/AsicFwS2/src/lcc_cmd_base_0000.c **** 			return;
 1356              		.loc 1 483 0
 1357 00a8 0823     		movs	r3, #8
 1358 00aa 2B82     		strh	r3, [r5, #16]	@ movhi
 484:/home/tienluong/workspace/atlantis_fw/AsicFwS2/src/lcc_cmd_base_0000.c **** 		}
 1359              		.loc 1 484 0
 1360 00ac BDE8F88F 		pop	{r3, r4, r5, r6, r7, r8, r9, r10, fp, pc}
 1361              	.LVL164:
 1362              	.L118:
 501:/home/tienluong/workspace/atlantis_fw/AsicFwS2/src/lcc_cmd_base_0000.c **** 			memcpy(p_cam->settings->thumb_id, &in->data[data_cnt], cmd.size);
 1363              		.loc 1 501 0
 1364 00b0 2146     		mov	r1, r4
 1365 00b2 2346     		mov	r3, r4
 1366 00b4 4FF0FF32 		mov	r2, #-1
 1367 00b8 E047     		blx	ip
 1368              	.LVL165:
 502:/home/tienluong/workspace/atlantis_fw/AsicFwS2/src/lcc_cmd_base_0000.c **** 			xSemaphoreGive(p_cam->semaphore);
 1369              		.loc 1 502 0
 1370 00ba B068     		ldr	r0, [r6, #8]
 1371 00bc 6968     		ldr	r1, [r5, #4]
 1372 00be 0822     		movs	r2, #8
 1373 00c0 0F4B     		ldr	r3, .L124+16
 1374 00c2 1830     		adds	r0, r0, #24
 1375 00c4 5144     		add	r1, r1, r10
 1376 00c6 9847     		blx	r3
 1377              	.LVL166:
 503:/home/tienluong/workspace/atlantis_fw/AsicFwS2/src/lcc_cmd_base_0000.c **** 
 1378              		.loc 1 503 0
 1379 00c8 2346     		mov	r3, r4
 1380 00ca 306B     		ldr	r0, [r6, #48]
 1381 00cc 2146     		mov	r1, r4
 1382 00ce 2246     		mov	r2, r4
 1383 00d0 0C4E     		ldr	r6, .L124+20
 1384              	.LVL167:
 1385 00d2 B047     		blx	r6
 1386              	.LVL168:
 1387              		.loc 1 506 0
 1388 00d4 EB7C     		ldrb	r3, [r5, #19]	@ zero_extendqisi2
 1389 00d6 13F0020F 		tst	r3, #2
 1390 00da 08BF     		it	eq
 1391 00dc 0824     		moveq	r4, #8
 1392 00de A244     		add	r10, r10, r4
 1393              	.LVL169:
 507:/home/tienluong/workspace/atlantis_fw/AsicFwS2/src/lcc_cmd_base_0000.c **** 			/* Update the command status */
 508:/home/tienluong/workspace/atlantis_fw/AsicFwS2/src/lcc_cmd_base_0000.c **** 			in->status = LCC_CMD_SUCCESS;
 1394              		.loc 1 508 0
 1395 00e0 A5F810B0 		strh	fp, [r5, #16]	@ movhi
 506:/home/tienluong/workspace/atlantis_fw/AsicFwS2/src/lcc_cmd_base_0000.c **** 			/* Update the command status */
 1396              		.loc 1 506 0
 1397 00e4 5FFA8AFA 		uxtb	r10, r10
 1398              	.LVL170:
 1399 00e8 C8E7     		b	.L119
 1400              	.L123:
 1401 00ea BDE8F88F 		pop	{r3, r4, r5, r6, r7, r8, r9, r10, fp, pc}
 1402              	.LVL171:
 1403              	.L125:
 1404 00ee 00BF     		.align	2
 1405              	.L124:
 1406 00f0 00000000 		.word	.LANCHOR6
 1407 00f4 00000000 		.word	pvPortMalloc1
 1408 00f8 00000000 		.word	.LC0
 1409 00fc 00000000 		.word	slogf
 1410 0100 00000000 		.word	memcpy
 1411 0104 00000000 		.word	xQueueGenericSend
 1412 0108 00000000 		.word	idx_to_object
 1413 010c 00000000 		.word	xQueueGenericReceive
 1414              		.cfi_endproc
 1415              	.LFE7:
 1417              		.section	.text.cmd_cam_command_status,"ax",%progbits
 1418              		.align	1
 1419              		.global	cmd_cam_command_status
 1420              		.thumb
 1421              		.thumb_func
 1423              	cmd_cam_command_status:
 1424              	.LFB8:
 509:/home/tienluong/workspace/atlantis_fw/AsicFwS2/src/lcc_cmd_base_0000.c **** 		}
 510:/home/tienluong/workspace/atlantis_fw/AsicFwS2/src/lcc_cmd_base_0000.c **** 	}
 511:/home/tienluong/workspace/atlantis_fw/AsicFwS2/src/lcc_cmd_base_0000.c **** }
 512:/home/tienluong/workspace/atlantis_fw/AsicFwS2/src/lcc_cmd_base_0000.c **** /**
 513:/home/tienluong/workspace/atlantis_fw/AsicFwS2/src/lcc_cmd_base_0000.c ****  * cmd_cam_command_status
 514:/home/tienluong/workspace/atlantis_fw/AsicFwS2/src/lcc_cmd_base_0000.c ****  *
 515:/home/tienluong/workspace/atlantis_fw/AsicFwS2/src/lcc_cmd_base_0000.c ****  */
 516:/home/tienluong/workspace/atlantis_fw/AsicFwS2/src/lcc_cmd_base_0000.c **** void cmd_cam_command_status(lcc_cmd_t *in, lcc_cmd_t *out)
 517:/home/tienluong/workspace/atlantis_fw/AsicFwS2/src/lcc_cmd_base_0000.c **** {
 1425              		.loc 1 517 0
 1426              		.cfi_startproc
 1427              		@ args = 0, pretend = 0, frame = 0
 1428              		@ frame_needed = 0, uses_anonymous_args = 0
 1429              	.LVL172:
 1430 0000 F7B5     		push	{r0, r1, r2, r4, r5, r6, r7, lr}
 1431              	.LCFI11:
 1432              		.cfi_def_cfa_offset 32
 1433              		.cfi_offset 4, -20
 1434              		.cfi_offset 5, -16
 1435              		.cfi_offset 6, -12
 1436              		.cfi_offset 7, -8
 1437              		.cfi_offset 14, -4
 518:/home/tienluong/workspace/atlantis_fw/AsicFwS2/src/lcc_cmd_base_0000.c **** 	uint16_t id_query = 0;
 519:/home/tienluong/workspace/atlantis_fw/AsicFwS2/src/lcc_cmd_base_0000.c **** 	struct lcc_cmd_log_t *cmd_info = NULL;
 520:/home/tienluong/workspace/atlantis_fw/AsicFwS2/src/lcc_cmd_base_0000.c **** 
 521:/home/tienluong/workspace/atlantis_fw/AsicFwS2/src/lcc_cmd_base_0000.c **** 	if (CMD_READ == in->action)
 1438              		.loc 1 521 0
 1439 0002 C37C     		ldrb	r3, [r0, #19]	@ zero_extendqisi2
 1440 0004 DB07     		lsls	r3, r3, #31
 517:/home/tienluong/workspace/atlantis_fw/AsicFwS2/src/lcc_cmd_base_0000.c **** 	uint16_t id_query = 0;
 1441              		.loc 1 517 0
 1442 0006 0446     		mov	r4, r0
 1443 0008 0D46     		mov	r5, r1
 1444              		.loc 1 521 0
 1445 000a 37D4     		bmi	.L126
 522:/home/tienluong/workspace/atlantis_fw/AsicFwS2/src/lcc_cmd_base_0000.c **** 	{
 523:/home/tienluong/workspace/atlantis_fw/AsicFwS2/src/lcc_cmd_base_0000.c **** 	    /* Read command processing */
 524:/home/tienluong/workspace/atlantis_fw/AsicFwS2/src/lcc_cmd_base_0000.c **** 	}
 525:/home/tienluong/workspace/atlantis_fw/AsicFwS2/src/lcc_cmd_base_0000.c **** 	else
 526:/home/tienluong/workspace/atlantis_fw/AsicFwS2/src/lcc_cmd_base_0000.c **** 	{
 527:/home/tienluong/workspace/atlantis_fw/AsicFwS2/src/lcc_cmd_base_0000.c **** 	    /* Write command processing */
 528:/home/tienluong/workspace/atlantis_fw/AsicFwS2/src/lcc_cmd_base_0000.c **** 		out->data = pvPortMalloc(LCC_CMD_CAM_COMMAND_STATUS_READ_SIZE);
 1446              		.loc 1 528 0
 1447 000c 0420     		movs	r0, #4
 1448              	.LVL173:
 1449 000e 1C49     		ldr	r1, .L133
 1450              	.LVL174:
 1451 0010 4FF40472 		mov	r2, #528
 1452 0014 1B4B     		ldr	r3, .L133+4
 1453 0016 9847     		blx	r3
 1454              	.LVL175:
 1455 0018 0646     		mov	r6, r0
 1456 001a 6860     		str	r0, [r5, #4]
 529:/home/tienluong/workspace/atlantis_fw/AsicFwS2/src/lcc_cmd_base_0000.c **** 		if (NULL == out->data)
 1457              		.loc 1 529 0
 1458 001c 38B9     		cbnz	r0, .L128
 530:/home/tienluong/workspace/atlantis_fw/AsicFwS2/src/lcc_cmd_base_0000.c **** 		{
 531:/home/tienluong/workspace/atlantis_fw/AsicFwS2/src/lcc_cmd_base_0000.c **** 			SLOGF(SLOG_ERROR, "%s: Lack of memory", __FUNCTION__);
 1459              		.loc 1 531 0
 1460 001e 2120     		movs	r0, #33
 1461 0020 0221     		movs	r1, #2
 1462 0022 194A     		ldr	r2, .L133+8
 1463 0024 164B     		ldr	r3, .L133
 1464 0026 194D     		ldr	r5, .L133+12
 1465              	.LVL176:
 1466 0028 A847     		blx	r5
 1467              	.LVL177:
 532:/home/tienluong/workspace/atlantis_fw/AsicFwS2/src/lcc_cmd_base_0000.c **** 			in->status = LCC_CMD_UNSUCCESS;
 1468              		.loc 1 532 0
 1469 002a 2682     		strh	r6, [r4, #16]	@ movhi
 533:/home/tienluong/workspace/atlantis_fw/AsicFwS2/src/lcc_cmd_base_0000.c **** 			return;
 1470              		.loc 1 533 0
 1471 002c 26E0     		b	.L126
 1472              	.LVL178:
 1473              	.L128:
 534:/home/tienluong/workspace/atlantis_fw/AsicFwS2/src/lcc_cmd_base_0000.c **** 		}
 535:/home/tienluong/workspace/atlantis_fw/AsicFwS2/src/lcc_cmd_base_0000.c **** 
 536:/home/tienluong/workspace/atlantis_fw/AsicFwS2/src/lcc_cmd_base_0000.c **** 		id_query = U16(in->data[0]);
 1474              		.loc 1 536 0
 1475 002e 6368     		ldr	r3, [r4, #4]
 1476 0030 1F88     		ldrh	r7, [r3]
 1477              	.LVL179:
 537:/home/tienluong/workspace/atlantis_fw/AsicFwS2/src/lcc_cmd_base_0000.c **** 		cmd_info = lcc_cmd_log_pull(id_query);
 1478              		.loc 1 537 0
 1479 0032 174B     		ldr	r3, .L133+16
 1480 0034 3846     		mov	r0, r7
 1481 0036 9847     		blx	r3
 1482              	.LVL180:
 538:/home/tienluong/workspace/atlantis_fw/AsicFwS2/src/lcc_cmd_base_0000.c **** 		if(cmd_info != NULL)
 1483              		.loc 1 538 0
 1484 0038 0646     		mov	r6, r0
 1485 003a A0B1     		cbz	r0, .L129
 539:/home/tienluong/workspace/atlantis_fw/AsicFwS2/src/lcc_cmd_base_0000.c **** 		{
 540:/home/tienluong/workspace/atlantis_fw/AsicFwS2/src/lcc_cmd_base_0000.c **** 			SLOGF(SLOG_DEBUG, "%s: CMD_TID %x is queried status %x",
 1486              		.loc 1 540 0
 1487 003c 0097     		str	r7, [sp]
 1488 003e 0746     		mov	r7, r0
 1489              	.LVL181:
 1490 0040 144A     		ldr	r2, .L133+20
 1491 0042 2120     		movs	r0, #33
 1492              	.LVL182:
 1493 0044 1021     		movs	r1, #16
 1494 0046 57F8083F 		ldr	r3, [r7, #8]!
 1495 004a 0193     		str	r3, [sp, #4]
 1496 004c DFF83CC0 		ldr	ip, .L133+12
 1497 0050 0B4B     		ldr	r3, .L133
 1498 0052 E047     		blx	ip
 1499              	.LVL183:
 541:/home/tienluong/workspace/atlantis_fw/AsicFwS2/src/lcc_cmd_base_0000.c **** 				__FUNCTION__, id_query, cmd_info->status);
 542:/home/tienluong/workspace/atlantis_fw/AsicFwS2/src/lcc_cmd_base_0000.c **** 
 543:/home/tienluong/workspace/atlantis_fw/AsicFwS2/src/lcc_cmd_base_0000.c **** 			memcpy(out->data, &cmd_info->status,
 1500              		.loc 1 543 0
 1501 0054 6B68     		ldr	r3, [r5, #4]
 1502 0056 3A68     		ldr	r2, [r7]	@ unaligned
 1503 0058 1A60     		str	r2, [r3]	@ unaligned
 544:/home/tienluong/workspace/atlantis_fw/AsicFwS2/src/lcc_cmd_base_0000.c **** 					LCC_CMD_CAM_COMMAND_STATUS_READ_SIZE);
 545:/home/tienluong/workspace/atlantis_fw/AsicFwS2/src/lcc_cmd_base_0000.c **** 			if(cmd_info->cmd_bitmask == 0)
 1504              		.loc 1 545 0
 1505 005a 7368     		ldr	r3, [r6, #4]
 1506 005c 43B9     		cbnz	r3, .L132
 546:/home/tienluong/workspace/atlantis_fw/AsicFwS2/src/lcc_cmd_base_0000.c **** 			{
 547:/home/tienluong/workspace/atlantis_fw/AsicFwS2/src/lcc_cmd_base_0000.c **** 				lcc_cmd_log_delete_tid(cmd_info);
 1507              		.loc 1 547 0
 1508 005e 3046     		mov	r0, r6
 1509 0060 0D4B     		ldr	r3, .L133+24
 1510 0062 9847     		blx	r3
 1511              	.LVL184:
 1512 0064 04E0     		b	.L132
 1513              	.LVL185:
 1514              	.L129:
 548:/home/tienluong/workspace/atlantis_fw/AsicFwS2/src/lcc_cmd_base_0000.c **** 			}
 549:/home/tienluong/workspace/atlantis_fw/AsicFwS2/src/lcc_cmd_base_0000.c **** 			out->len = LCC_CMD_CAM_COMMAND_STATUS_READ_SIZE;
 550:/home/tienluong/workspace/atlantis_fw/AsicFwS2/src/lcc_cmd_base_0000.c **** 			cmd_info = NULL;
 551:/home/tienluong/workspace/atlantis_fw/AsicFwS2/src/lcc_cmd_base_0000.c **** 		}
 552:/home/tienluong/workspace/atlantis_fw/AsicFwS2/src/lcc_cmd_base_0000.c **** 		else
 553:/home/tienluong/workspace/atlantis_fw/AsicFwS2/src/lcc_cmd_base_0000.c **** 		{
 554:/home/tienluong/workspace/atlantis_fw/AsicFwS2/src/lcc_cmd_base_0000.c **** 			memset(out->data, 0xFF, LCC_CMD_CAM_COMMAND_STATUS_READ_SIZE);
 1515              		.loc 1 554 0
 1516 0066 6868     		ldr	r0, [r5, #4]
 1517              	.LVL186:
 1518 0068 FF21     		movs	r1, #255
 1519 006a 0422     		movs	r2, #4
 1520 006c 0B4B     		ldr	r3, .L133+28
 1521 006e 9847     		blx	r3
 1522              	.LVL187:
 1523              	.L132:
 555:/home/tienluong/workspace/atlantis_fw/AsicFwS2/src/lcc_cmd_base_0000.c **** 			out->len = LCC_CMD_CAM_COMMAND_STATUS_READ_SIZE;
 1524              		.loc 1 555 0
 1525 0070 0423     		movs	r3, #4
 1526 0072 2B81     		strh	r3, [r5, #8]	@ movhi
 556:/home/tienluong/workspace/atlantis_fw/AsicFwS2/src/lcc_cmd_base_0000.c **** 		}
 557:/home/tienluong/workspace/atlantis_fw/AsicFwS2/src/lcc_cmd_base_0000.c **** 		/* set Action to READ to send data to i2c buffer */
 558:/home/tienluong/workspace/atlantis_fw/AsicFwS2/src/lcc_cmd_base_0000.c **** 		in->action = CMD_READ;
 1527              		.loc 1 558 0
 1528 0074 E37C     		ldrb	r3, [r4, #19]	@ zero_extendqisi2
 1529 0076 43F00103 		orr	r3, r3, #1
 1530 007a E374     		strb	r3, [r4, #19]
 1531              	.LVL188:
 1532              	.L126:
 559:/home/tienluong/workspace/atlantis_fw/AsicFwS2/src/lcc_cmd_base_0000.c **** 	}
 560:/home/tienluong/workspace/atlantis_fw/AsicFwS2/src/lcc_cmd_base_0000.c **** }
 1533              		.loc 1 560 0
 1534 007c 03B0     		add	sp, sp, #12
 1535              	.LCFI12:
 1536              		.cfi_def_cfa_offset 20
 1537              		@ sp needed
 1538 007e F0BD     		pop	{r4, r5, r6, r7, pc}
 1539              	.LVL189:
 1540              	.L134:
 1541              		.align	2
 1542              	.L133:
 1543 0080 00000000 		.word	.LANCHOR7
 1544 0084 00000000 		.word	pvPortMalloc1
 1545 0088 00000000 		.word	.LC0
 1546 008c 00000000 		.word	slogf
 1547 0090 00000000 		.word	lcc_cmd_log_pull
 1548 0094 08010000 		.word	.LC13
 1549 0098 00000000 		.word	lcc_cmd_log_delete_tid
 1550 009c 00000000 		.word	memset
 1551              		.cfi_endproc
 1552              	.LFE8:
 1554              		.section	.text.cmd_cam_module_status,"ax",%progbits
 1555              		.align	1
 1556              		.global	cmd_cam_module_status
 1557              		.thumb
 1558              		.thumb_func
 1560              	cmd_cam_module_status:
 1561              	.LFB9:
 561:/home/tienluong/workspace/atlantis_fw/AsicFwS2/src/lcc_cmd_base_0000.c **** 
 562:/home/tienluong/workspace/atlantis_fw/AsicFwS2/src/lcc_cmd_base_0000.c **** /**
 563:/home/tienluong/workspace/atlantis_fw/AsicFwS2/src/lcc_cmd_base_0000.c ****  * cmd_cam_module_status
 564:/home/tienluong/workspace/atlantis_fw/AsicFwS2/src/lcc_cmd_base_0000.c ****  *
 565:/home/tienluong/workspace/atlantis_fw/AsicFwS2/src/lcc_cmd_base_0000.c ****  */
 566:/home/tienluong/workspace/atlantis_fw/AsicFwS2/src/lcc_cmd_base_0000.c **** void cmd_cam_module_status(lcc_cmd_t *in, lcc_cmd_t *out)
 567:/home/tienluong/workspace/atlantis_fw/AsicFwS2/src/lcc_cmd_base_0000.c **** {
 1562              		.loc 1 567 0
 1563              		.cfi_startproc
 1564              		@ args = 0, pretend = 0, frame = 0
 1565              		@ frame_needed = 0, uses_anonymous_args = 0
 1566              	.LVL190:
 1567 0000 2DE9F041 		push	{r4, r5, r6, r7, r8, lr}
 1568              	.LCFI13:
 1569              		.cfi_def_cfa_offset 24
 1570              		.cfi_offset 4, -24
 1571              		.cfi_offset 5, -20
 1572              		.cfi_offset 6, -16
 1573              		.cfi_offset 7, -12
 1574              		.cfi_offset 8, -8
 1575              		.cfi_offset 14, -4
 568:/home/tienluong/workspace/atlantis_fw/AsicFwS2/src/lcc_cmd_base_0000.c **** 	cam_typedef_t *p_cam;
 569:/home/tienluong/workspace/atlantis_fw/AsicFwS2/src/lcc_cmd_base_0000.c **** 	lcc_cmd_info_t cmd = (lcc_cmd_info_t)(LCC_CMD_CAM_MODULE_STATUS);
 570:/home/tienluong/workspace/atlantis_fw/AsicFwS2/src/lcc_cmd_base_0000.c **** 	uint32_t m_bitmask = in->m_bitmask;
 571:/home/tienluong/workspace/atlantis_fw/AsicFwS2/src/lcc_cmd_base_0000.c **** 	uint8_t i, cam_idx;
 572:/home/tienluong/workspace/atlantis_fw/AsicFwS2/src/lcc_cmd_base_0000.c **** 
 573:/home/tienluong/workspace/atlantis_fw/AsicFwS2/src/lcc_cmd_base_0000.c **** 	out->data = pvPortMalloc(in->m_number * cmd.size);
 1576              		.loc 1 573 0
 1577 0004 40F23D22 		movw	r2, #573
 567:/home/tienluong/workspace/atlantis_fw/AsicFwS2/src/lcc_cmd_base_0000.c **** 	cam_typedef_t *p_cam;
 1578              		.loc 1 567 0
 1579 0008 0D46     		mov	r5, r1
 570:/home/tienluong/workspace/atlantis_fw/AsicFwS2/src/lcc_cmd_base_0000.c **** 	uint8_t i, cam_idx;
 1580              		.loc 1 570 0
 1581 000a D0F80080 		ldr	r8, [r0]
 1582              	.LVL191:
 567:/home/tienluong/workspace/atlantis_fw/AsicFwS2/src/lcc_cmd_base_0000.c **** 	cam_typedef_t *p_cam;
 1583              		.loc 1 567 0
 1584 000e 0446     		mov	r4, r0
 1585              		.loc 1 573 0
 1586 0010 2049     		ldr	r1, .L142
 1587              	.LVL192:
 1588 0012 807C     		ldrb	r0, [r0, #18]	@ zero_extendqisi2
 1589              	.LVL193:
 1590 0014 204B     		ldr	r3, .L142+4
 1591 0016 8000     		lsls	r0, r0, #2
 1592 0018 9847     		blx	r3
 1593              	.LVL194:
 1594 001a 0646     		mov	r6, r0
 1595 001c 6860     		str	r0, [r5, #4]
 574:/home/tienluong/workspace/atlantis_fw/AsicFwS2/src/lcc_cmd_base_0000.c **** 	if (NULL == out->data)
 1596              		.loc 1 574 0
 1597 001e 08B1     		cbz	r0, .L136
 1598              		.loc 1 574 0 is_stmt 0 discriminator 1
 1599 0020 0027     		movs	r7, #0
 1600 0022 1EE0     		b	.L137
 1601              	.L136:
 575:/home/tienluong/workspace/atlantis_fw/AsicFwS2/src/lcc_cmd_base_0000.c **** 	{
 576:/home/tienluong/workspace/atlantis_fw/AsicFwS2/src/lcc_cmd_base_0000.c **** 		SLOGF(SLOG_ERROR, "%s: Lack of memory", __FUNCTION__);
 1602              		.loc 1 576 0 is_stmt 1
 1603 0024 2120     		movs	r0, #33
 1604 0026 0221     		movs	r1, #2
 1605 0028 1C4A     		ldr	r2, .L142+8
 1606 002a 1A4B     		ldr	r3, .L142
 1607 002c 1C4D     		ldr	r5, .L142+12
 1608              	.LVL195:
 1609 002e A847     		blx	r5
 1610              	.LVL196:
 577:/home/tienluong/workspace/atlantis_fw/AsicFwS2/src/lcc_cmd_base_0000.c **** 		in->status = LCC_CMD_UNSUCCESS;
 1611              		.loc 1 577 0
 1612 0030 2682     		strh	r6, [r4, #16]	@ movhi
 578:/home/tienluong/workspace/atlantis_fw/AsicFwS2/src/lcc_cmd_base_0000.c **** 		return;
 1613              		.loc 1 578 0
 1614 0032 BDE8F081 		pop	{r4, r5, r6, r7, r8, pc}
 1615              	.LVL197:
 1616              	.L139:
 579:/home/tienluong/workspace/atlantis_fw/AsicFwS2/src/lcc_cmd_base_0000.c **** 	}
 580:/home/tienluong/workspace/atlantis_fw/AsicFwS2/src/lcc_cmd_base_0000.c **** 
 581:/home/tienluong/workspace/atlantis_fw/AsicFwS2/src/lcc_cmd_base_0000.c **** 	/* Scan camera bitmask */
 582:/home/tienluong/workspace/atlantis_fw/AsicFwS2/src/lcc_cmd_base_0000.c **** 	for (i = 0; i < in->m_number; i++)
 583:/home/tienluong/workspace/atlantis_fw/AsicFwS2/src/lcc_cmd_base_0000.c **** 	{
 584:/home/tienluong/workspace/atlantis_fw/AsicFwS2/src/lcc_cmd_base_0000.c **** 		cam_idx = __builtin_ctz(m_bitmask);
 585:/home/tienluong/workspace/atlantis_fw/AsicFwS2/src/lcc_cmd_base_0000.c **** 		m_bitmask &= ~(1 << cam_idx);
 586:/home/tienluong/workspace/atlantis_fw/AsicFwS2/src/lcc_cmd_base_0000.c **** 		/* Get camera object from camera object list */
 587:/home/tienluong/workspace/atlantis_fw/AsicFwS2/src/lcc_cmd_base_0000.c **** 		p_cam = idx_to_object(cam_idx);
 588:/home/tienluong/workspace/atlantis_fw/AsicFwS2/src/lcc_cmd_base_0000.c **** 		if (NULL == p_cam)	/*Verify object is valid */
 589:/home/tienluong/workspace/atlantis_fw/AsicFwS2/src/lcc_cmd_base_0000.c **** 		{
 590:/home/tienluong/workspace/atlantis_fw/AsicFwS2/src/lcc_cmd_base_0000.c **** 			in->status = LCC_CMD_ERROR_INVALID_MBITMASK;
 591:/home/tienluong/workspace/atlantis_fw/AsicFwS2/src/lcc_cmd_base_0000.c **** 			return;
 592:/home/tienluong/workspace/atlantis_fw/AsicFwS2/src/lcc_cmd_base_0000.c **** 		}
 593:/home/tienluong/workspace/atlantis_fw/AsicFwS2/src/lcc_cmd_base_0000.c **** 
 594:/home/tienluong/workspace/atlantis_fw/AsicFwS2/src/lcc_cmd_base_0000.c **** 		/* Take semaphore to access settings memory */
 595:/home/tienluong/workspace/atlantis_fw/AsicFwS2/src/lcc_cmd_base_0000.c **** 		xSemaphoreTake(p_cam->semaphore, portMAX_DELAY);
 1617              		.loc 1 595 0 discriminator 2
 1618 0036 0021     		movs	r1, #0
 1619 0038 0B46     		mov	r3, r1
 1620 003a 4FF0FF32 		mov	r2, #-1
 1621 003e DFF86CC0 		ldr	ip, .L142+24
 1622 0042 006B     		ldr	r0, [r0, #48]
 1623              	.LVL198:
 1624 0044 E047     		blx	ip
 1625              	.LVL199:
 596:/home/tienluong/workspace/atlantis_fw/AsicFwS2/src/lcc_cmd_base_0000.c **** 		memcpy(&out->data[out->len], p_cam->settings->status, cmd.size);
 1626              		.loc 1 596 0 discriminator 2
 1627 0046 B168     		ldr	r1, [r6, #8]
 1628 0048 6A68     		ldr	r2, [r5, #4]
 1629 004a 2B89     		ldrh	r3, [r5, #8]
 1630 004c 4968     		ldr	r1, [r1, #4]	@ unaligned
 1631 004e D150     		str	r1, [r2, r3]	@ unaligned
 597:/home/tienluong/workspace/atlantis_fw/AsicFwS2/src/lcc_cmd_base_0000.c **** 		/* Release semaphore after read data */
 598:/home/tienluong/workspace/atlantis_fw/AsicFwS2/src/lcc_cmd_base_0000.c **** 		xSemaphoreGive(p_cam->semaphore);
 1632              		.loc 1 598 0 discriminator 2
 1633 0050 0021     		movs	r1, #0
 1634 0052 306B     		ldr	r0, [r6, #48]
 1635 0054 0B46     		mov	r3, r1
 1636 0056 0A46     		mov	r2, r1
 1637 0058 124E     		ldr	r6, .L142+16
 1638              	.LVL200:
 1639 005a B047     		blx	r6
 1640              	.LVL201:
 599:/home/tienluong/workspace/atlantis_fw/AsicFwS2/src/lcc_cmd_base_0000.c **** 		out->len += cmd.size;
 1641              		.loc 1 599 0 discriminator 2
 1642 005c 2B89     		ldrh	r3, [r5, #8]
 1643 005e 0433     		adds	r3, r3, #4
 1644 0060 2B81     		strh	r3, [r5, #8]	@ movhi
 1645              	.LVL202:
 1646              	.L137:
 582:/home/tienluong/workspace/atlantis_fw/AsicFwS2/src/lcc_cmd_base_0000.c **** 	{
 1647              		.loc 1 582 0 discriminator 1
 1648 0062 FBB2     		uxtb	r3, r7
 1649 0064 A27C     		ldrb	r2, [r4, #18]	@ zero_extendqisi2
 1650 0066 9A42     		cmp	r2, r3
 1651 0068 11D9     		bls	.L141
 585:/home/tienluong/workspace/atlantis_fw/AsicFwS2/src/lcc_cmd_base_0000.c **** 		/* Get camera object from camera object list */
 1652              		.loc 1 585 0
 1653 006a 0123     		movs	r3, #1
 584:/home/tienluong/workspace/atlantis_fw/AsicFwS2/src/lcc_cmd_base_0000.c **** 		m_bitmask &= ~(1 << cam_idx);
 1654              		.loc 1 584 0
 1655 006c 98FAA8F0 		rbit	r0, r8
 1656 0070 B0FA80F0 		clz	r0, r0
 1657              	.LVL203:
 1658 0074 0137     		adds	r7, r7, #1
 1659              	.LVL204:
 585:/home/tienluong/workspace/atlantis_fw/AsicFwS2/src/lcc_cmd_base_0000.c **** 		/* Get camera object from camera object list */
 1660              		.loc 1 585 0
 1661 0076 8340     		lsls	r3, r3, r0
 1662 0078 28EA0308 		bic	r8, r8, r3
 1663              	.LVL205:
 587:/home/tienluong/workspace/atlantis_fw/AsicFwS2/src/lcc_cmd_base_0000.c **** 		if (NULL == p_cam)	/*Verify object is valid */
 1664              		.loc 1 587 0
 1665 007c 0A4B     		ldr	r3, .L142+20
 1666 007e 9847     		blx	r3
 1667              	.LVL206:
 588:/home/tienluong/workspace/atlantis_fw/AsicFwS2/src/lcc_cmd_base_0000.c **** 		{
 1668              		.loc 1 588 0
 1669 0080 0646     		mov	r6, r0
 1670 0082 0028     		cmp	r0, #0
 1671 0084 D7D1     		bne	.L139
 590:/home/tienluong/workspace/atlantis_fw/AsicFwS2/src/lcc_cmd_base_0000.c **** 			return;
 1672              		.loc 1 590 0
 1673 0086 0823     		movs	r3, #8
 1674 0088 2382     		strh	r3, [r4, #16]	@ movhi
 591:/home/tienluong/workspace/atlantis_fw/AsicFwS2/src/lcc_cmd_base_0000.c **** 		}
 1675              		.loc 1 591 0
 1676 008a BDE8F081 		pop	{r4, r5, r6, r7, r8, pc}
 1677              	.LVL207:
 1678              	.L141:
 1679 008e BDE8F081 		pop	{r4, r5, r6, r7, r8, pc}
 1680              	.LVL208:
 1681              	.L143:
 1682 0092 00BF     		.align	2
 1683              	.L142:
 1684 0094 00000000 		.word	.LANCHOR8
 1685 0098 00000000 		.word	pvPortMalloc1
 1686 009c 00000000 		.word	.LC0
 1687 00a0 00000000 		.word	slogf
 1688 00a4 00000000 		.word	xQueueGenericSend
 1689 00a8 00000000 		.word	idx_to_object
 1690 00ac 00000000 		.word	xQueueGenericReceive
 1691              		.cfi_endproc
 1692              	.LFE9:
 1694              		.section	.text.cmd_cam_module_resolution,"ax",%progbits
 1695              		.align	1
 1696              		.global	cmd_cam_module_resolution
 1697              		.thumb
 1698              		.thumb_func
 1700              	cmd_cam_module_resolution:
 1701              	.LFB10:
 600:/home/tienluong/workspace/atlantis_fw/AsicFwS2/src/lcc_cmd_base_0000.c **** 	}
 601:/home/tienluong/workspace/atlantis_fw/AsicFwS2/src/lcc_cmd_base_0000.c **** }
 602:/home/tienluong/workspace/atlantis_fw/AsicFwS2/src/lcc_cmd_base_0000.c **** 
 603:/home/tienluong/workspace/atlantis_fw/AsicFwS2/src/lcc_cmd_base_0000.c **** /**
 604:/home/tienluong/workspace/atlantis_fw/AsicFwS2/src/lcc_cmd_base_0000.c ****  * cmd_cam_module_resolution
 605:/home/tienluong/workspace/atlantis_fw/AsicFwS2/src/lcc_cmd_base_0000.c ****  *
 606:/home/tienluong/workspace/atlantis_fw/AsicFwS2/src/lcc_cmd_base_0000.c ****  */
 607:/home/tienluong/workspace/atlantis_fw/AsicFwS2/src/lcc_cmd_base_0000.c **** void cmd_cam_module_resolution(lcc_cmd_t *in, lcc_cmd_t *out)
 608:/home/tienluong/workspace/atlantis_fw/AsicFwS2/src/lcc_cmd_base_0000.c **** {
 1702              		.loc 1 608 0
 1703              		.cfi_startproc
 1704              		@ args = 0, pretend = 0, frame = 24
 1705              		@ frame_needed = 0, uses_anonymous_args = 0
 1706              	.LVL209:
 1707 0000 2DE9F04F 		push	{r4, r5, r6, r7, r8, r9, r10, fp, lr}
 1708              	.LCFI14:
 1709              		.cfi_def_cfa_offset 36
 1710              		.cfi_offset 4, -36
 1711              		.cfi_offset 5, -32
 1712              		.cfi_offset 6, -28
 1713              		.cfi_offset 7, -24
 1714              		.cfi_offset 8, -20
 1715              		.cfi_offset 9, -16
 1716              		.cfi_offset 10, -12
 1717              		.cfi_offset 11, -8
 1718              		.cfi_offset 14, -4
 609:/home/tienluong/workspace/atlantis_fw/AsicFwS2/src/lcc_cmd_base_0000.c **** 	lcc_cmd_tid_t p_cmd;
 610:/home/tienluong/workspace/atlantis_fw/AsicFwS2/src/lcc_cmd_base_0000.c **** 	cam_typedef_t *p_cam;
 611:/home/tienluong/workspace/atlantis_fw/AsicFwS2/src/lcc_cmd_base_0000.c **** 	lcc_cmd_info_t cmd = (lcc_cmd_info_t)(LCC_CMD_CAM_MODULE_RESOLUTION);
 612:/home/tienluong/workspace/atlantis_fw/AsicFwS2/src/lcc_cmd_base_0000.c **** 	uint32_t m_bitmask = in->m_bitmask;
 613:/home/tienluong/workspace/atlantis_fw/AsicFwS2/src/lcc_cmd_base_0000.c **** 	uint8_t i, cam_idx, data_cnt = 0;
 614:/home/tienluong/workspace/atlantis_fw/AsicFwS2/src/lcc_cmd_base_0000.c **** 
 615:/home/tienluong/workspace/atlantis_fw/AsicFwS2/src/lcc_cmd_base_0000.c **** 	if (CMD_READ == in->action)
 1719              		.loc 1 615 0
 1720 0004 C37C     		ldrb	r3, [r0, #19]	@ zero_extendqisi2
 1721 0006 DB07     		lsls	r3, r3, #31
 608:/home/tienluong/workspace/atlantis_fw/AsicFwS2/src/lcc_cmd_base_0000.c **** 	lcc_cmd_tid_t p_cmd;
 1722              		.loc 1 608 0
 1723 0008 87B0     		sub	sp, sp, #28
 1724              	.LCFI15:
 1725              		.cfi_def_cfa_offset 64
 608:/home/tienluong/workspace/atlantis_fw/AsicFwS2/src/lcc_cmd_base_0000.c **** 	lcc_cmd_tid_t p_cmd;
 1726              		.loc 1 608 0
 1727 000a 0446     		mov	r4, r0
 1728 000c 0F46     		mov	r7, r1
 612:/home/tienluong/workspace/atlantis_fw/AsicFwS2/src/lcc_cmd_base_0000.c **** 	uint8_t i, cam_idx, data_cnt = 0;
 1729              		.loc 1 612 0
 1730 000e D0F800A0 		ldr	r10, [r0]
 1731              	.LVL210:
 1732              		.loc 1 615 0
 1733 0012 03D4     		bmi	.L145
 1734              	.LVL211:
 1735              	.L147:
 616:/home/tienluong/workspace/atlantis_fw/AsicFwS2/src/lcc_cmd_base_0000.c **** 	{
 617:/home/tienluong/workspace/atlantis_fw/AsicFwS2/src/lcc_cmd_base_0000.c **** 		out->data = pvPortMalloc(in->m_number*cmd.size);
 618:/home/tienluong/workspace/atlantis_fw/AsicFwS2/src/lcc_cmd_base_0000.c **** 		if (NULL == out->data)
 619:/home/tienluong/workspace/atlantis_fw/AsicFwS2/src/lcc_cmd_base_0000.c **** 		{
 620:/home/tienluong/workspace/atlantis_fw/AsicFwS2/src/lcc_cmd_base_0000.c **** 			SLOGF(SLOG_ERROR, "%s: Lack of memory", __FUNCTION__);
 621:/home/tienluong/workspace/atlantis_fw/AsicFwS2/src/lcc_cmd_base_0000.c **** 			in->status = LCC_CMD_UNSUCCESS;
 622:/home/tienluong/workspace/atlantis_fw/AsicFwS2/src/lcc_cmd_base_0000.c **** 			return;
 623:/home/tienluong/workspace/atlantis_fw/AsicFwS2/src/lcc_cmd_base_0000.c **** 		}
 624:/home/tienluong/workspace/atlantis_fw/AsicFwS2/src/lcc_cmd_base_0000.c **** 	}
 625:/home/tienluong/workspace/atlantis_fw/AsicFwS2/src/lcc_cmd_base_0000.c **** 
 626:/home/tienluong/workspace/atlantis_fw/AsicFwS2/src/lcc_cmd_base_0000.c **** 	/* Scan camera bitmask  */
 627:/home/tienluong/workspace/atlantis_fw/AsicFwS2/src/lcc_cmd_base_0000.c **** 	for (i = 0; i < in->m_number; i++)
 628:/home/tienluong/workspace/atlantis_fw/AsicFwS2/src/lcc_cmd_base_0000.c **** 	{
 629:/home/tienluong/workspace/atlantis_fw/AsicFwS2/src/lcc_cmd_base_0000.c **** 		cam_idx = __builtin_ctz(m_bitmask);
 630:/home/tienluong/workspace/atlantis_fw/AsicFwS2/src/lcc_cmd_base_0000.c **** 		m_bitmask &= ~(1 << cam_idx);
 631:/home/tienluong/workspace/atlantis_fw/AsicFwS2/src/lcc_cmd_base_0000.c **** 		/* Get camera object from camera object list */
 632:/home/tienluong/workspace/atlantis_fw/AsicFwS2/src/lcc_cmd_base_0000.c **** 		p_cam = idx_to_object(cam_idx);
 633:/home/tienluong/workspace/atlantis_fw/AsicFwS2/src/lcc_cmd_base_0000.c **** 		if (NULL == p_cam)	/*Verify object is valid */
 634:/home/tienluong/workspace/atlantis_fw/AsicFwS2/src/lcc_cmd_base_0000.c **** 		{
 635:/home/tienluong/workspace/atlantis_fw/AsicFwS2/src/lcc_cmd_base_0000.c **** 			in->status = LCC_CMD_ERROR_INVALID_MBITMASK;
 636:/home/tienluong/workspace/atlantis_fw/AsicFwS2/src/lcc_cmd_base_0000.c **** 			return;
 637:/home/tienluong/workspace/atlantis_fw/AsicFwS2/src/lcc_cmd_base_0000.c **** 		}
 638:/home/tienluong/workspace/atlantis_fw/AsicFwS2/src/lcc_cmd_base_0000.c **** 
 639:/home/tienluong/workspace/atlantis_fw/AsicFwS2/src/lcc_cmd_base_0000.c **** 		/* Read command processing */
 640:/home/tienluong/workspace/atlantis_fw/AsicFwS2/src/lcc_cmd_base_0000.c **** 		if (CMD_READ == in->action)
 641:/home/tienluong/workspace/atlantis_fw/AsicFwS2/src/lcc_cmd_base_0000.c **** 		{
 642:/home/tienluong/workspace/atlantis_fw/AsicFwS2/src/lcc_cmd_base_0000.c **** 			/* TODO: Take semaphore to access settings memory */
 643:/home/tienluong/workspace/atlantis_fw/AsicFwS2/src/lcc_cmd_base_0000.c **** 			xSemaphoreTake(p_cam->image->semaphore, portMAX_DELAY);
 644:/home/tienluong/workspace/atlantis_fw/AsicFwS2/src/lcc_cmd_base_0000.c **** 			memcpy(&out->data[out->len],
 645:/home/tienluong/workspace/atlantis_fw/AsicFwS2/src/lcc_cmd_base_0000.c **** 					p_cam->image->settings[in->ucid]->resolution, cmd.size);
 646:/home/tienluong/workspace/atlantis_fw/AsicFwS2/src/lcc_cmd_base_0000.c **** 			out->len += cmd.size;
 647:/home/tienluong/workspace/atlantis_fw/AsicFwS2/src/lcc_cmd_base_0000.c **** 			/* TODO: Release semaphore after read data */
 648:/home/tienluong/workspace/atlantis_fw/AsicFwS2/src/lcc_cmd_base_0000.c **** 			xSemaphoreGive(p_cam->image->semaphore);
 649:/home/tienluong/workspace/atlantis_fw/AsicFwS2/src/lcc_cmd_base_0000.c **** 		}
 650:/home/tienluong/workspace/atlantis_fw/AsicFwS2/src/lcc_cmd_base_0000.c **** 		/* Write command processing */
 651:/home/tienluong/workspace/atlantis_fw/AsicFwS2/src/lcc_cmd_base_0000.c **** 		else
 652:/home/tienluong/workspace/atlantis_fw/AsicFwS2/src/lcc_cmd_base_0000.c **** 		{
 653:/home/tienluong/workspace/atlantis_fw/AsicFwS2/src/lcc_cmd_base_0000.c **** 			/* TODO: Take semaphore to access settings memory */
 654:/home/tienluong/workspace/atlantis_fw/AsicFwS2/src/lcc_cmd_base_0000.c **** 			xSemaphoreTake(p_cam->image->semaphore, portMAX_DELAY);
 655:/home/tienluong/workspace/atlantis_fw/AsicFwS2/src/lcc_cmd_base_0000.c **** 			p_cmd.cmd_tid = in->tid;
 656:/home/tienluong/workspace/atlantis_fw/AsicFwS2/src/lcc_cmd_base_0000.c **** 			p_cmd.event = IMG_EVENT_CAM_RESOLUTION;
 657:/home/tienluong/workspace/atlantis_fw/AsicFwS2/src/lcc_cmd_base_0000.c **** 			memcpy(p_cam->image->settings[in->ucid]->resolution,
 658:/home/tienluong/workspace/atlantis_fw/AsicFwS2/src/lcc_cmd_base_0000.c **** 											&in->data[data_cnt], cmd.size);
 659:/home/tienluong/workspace/atlantis_fw/AsicFwS2/src/lcc_cmd_base_0000.c **** 			/* TODO: Release semaphore after read data */
 660:/home/tienluong/workspace/atlantis_fw/AsicFwS2/src/lcc_cmd_base_0000.c **** 			xSemaphoreGive(p_cam->image->semaphore);
 661:/home/tienluong/workspace/atlantis_fw/AsicFwS2/src/lcc_cmd_base_0000.c **** 
 662:/home/tienluong/workspace/atlantis_fw/AsicFwS2/src/lcc_cmd_base_0000.c **** 			/* Raise a updating signal to camera task for this ASIC */
 663:/home/tienluong/workspace/atlantis_fw/AsicFwS2/src/lcc_cmd_base_0000.c **** 			if (light_system->m_filter & (1 << cam_idx))
 664:/home/tienluong/workspace/atlantis_fw/AsicFwS2/src/lcc_cmd_base_0000.c **** 			{
 665:/home/tienluong/workspace/atlantis_fw/AsicFwS2/src/lcc_cmd_base_0000.c **** 				if (in->ucid == light_system->active_ucid)
 666:/home/tienluong/workspace/atlantis_fw/AsicFwS2/src/lcc_cmd_base_0000.c **** 					xQueueSend(p_cam->queue, &p_cmd, (TickType_t)10);
 667:/home/tienluong/workspace/atlantis_fw/AsicFwS2/src/lcc_cmd_base_0000.c **** 				else
 668:/home/tienluong/workspace/atlantis_fw/AsicFwS2/src/lcc_cmd_base_0000.c **** 				{
 669:/home/tienluong/workspace/atlantis_fw/AsicFwS2/src/lcc_cmd_base_0000.c **** 					in->status = LCC_CMD_SUCCESS;
 670:/home/tienluong/workspace/atlantis_fw/AsicFwS2/src/lcc_cmd_base_0000.c **** 					/* Reset cam bit_mask to update the command status */
 671:/home/tienluong/workspace/atlantis_fw/AsicFwS2/src/lcc_cmd_base_0000.c **** 					in->m_bitmask &= ~(1 << cam_idx);
 672:/home/tienluong/workspace/atlantis_fw/AsicFwS2/src/lcc_cmd_base_0000.c **** 				}
 673:/home/tienluong/workspace/atlantis_fw/AsicFwS2/src/lcc_cmd_base_0000.c **** 			}
 674:/home/tienluong/workspace/atlantis_fw/AsicFwS2/src/lcc_cmd_base_0000.c **** 
 675:/home/tienluong/workspace/atlantis_fw/AsicFwS2/src/lcc_cmd_base_0000.c **** 			/* Set data pointer when command was set for global */
 676:/home/tienluong/workspace/atlantis_fw/AsicFwS2/src/lcc_cmd_base_0000.c **** 			data_cnt += in->global ? 0 : cmd.size;
 1736              		.loc 1 676 0
 1737 0014 4FF00009 		mov	r9, #0
 1738 0018 CB46     		mov	fp, r9
 1739 001a 37E0     		b	.L146
 1740              	.LVL212:
 1741              	.L145:
 617:/home/tienluong/workspace/atlantis_fw/AsicFwS2/src/lcc_cmd_base_0000.c **** 		if (NULL == out->data)
 1742              		.loc 1 617 0
 1743 001c 807C     		ldrb	r0, [r0, #18]	@ zero_extendqisi2
 1744              	.LVL213:
 1745 001e 4A49     		ldr	r1, .L160
 1746              	.LVL214:
 1747 0020 C000     		lsls	r0, r0, #3
 1748 0022 40F26922 		movw	r2, #617
 1749 0026 494B     		ldr	r3, .L160+4
 1750 0028 9847     		blx	r3
 1751              	.LVL215:
 1752 002a 0546     		mov	r5, r0
 1753 002c 7860     		str	r0, [r7, #4]
 618:/home/tienluong/workspace/atlantis_fw/AsicFwS2/src/lcc_cmd_base_0000.c **** 		{
 1754              		.loc 1 618 0
 1755 002e 0028     		cmp	r0, #0
 1756 0030 F0D1     		bne	.L147
 620:/home/tienluong/workspace/atlantis_fw/AsicFwS2/src/lcc_cmd_base_0000.c **** 			in->status = LCC_CMD_UNSUCCESS;
 1757              		.loc 1 620 0
 1758 0032 2120     		movs	r0, #33
 1759 0034 0221     		movs	r1, #2
 1760 0036 464A     		ldr	r2, .L160+8
 1761 0038 434B     		ldr	r3, .L160
 1762 003a 464E     		ldr	r6, .L160+12
 1763 003c B047     		blx	r6
 1764              	.LVL216:
 621:/home/tienluong/workspace/atlantis_fw/AsicFwS2/src/lcc_cmd_base_0000.c **** 			return;
 1765              		.loc 1 621 0
 1766 003e 2582     		strh	r5, [r4, #16]	@ movhi
 622:/home/tienluong/workspace/atlantis_fw/AsicFwS2/src/lcc_cmd_base_0000.c **** 		}
 1767              		.loc 1 622 0
 1768 0040 7EE0     		b	.L144
 1769              	.LVL217:
 1770              	.L149:
 1771 0042 0368     		ldr	r3, [r0]
 640:/home/tienluong/workspace/atlantis_fw/AsicFwS2/src/lcc_cmd_base_0000.c **** 		{
 1772              		.loc 1 640 0
 1773 0044 E57C     		ldrb	r5, [r4, #19]	@ zero_extendqisi2
 1774 0046 15F00105 		ands	r5, r5, #1
 1775 004a DFF81CC1 		ldr	ip, .L160+32
 643:/home/tienluong/workspace/atlantis_fw/AsicFwS2/src/lcc_cmd_base_0000.c **** 			memcpy(&out->data[out->len],
 1776              		.loc 1 643 0
 1777 004e D86B     		ldr	r0, [r3, #60]
 1778              	.LVL218:
 640:/home/tienluong/workspace/atlantis_fw/AsicFwS2/src/lcc_cmd_base_0000.c **** 		{
 1779              		.loc 1 640 0
 1780 0050 34D0     		beq	.L150
 643:/home/tienluong/workspace/atlantis_fw/AsicFwS2/src/lcc_cmd_base_0000.c **** 			memcpy(&out->data[out->len],
 1781              		.loc 1 643 0
 1782 0052 0021     		movs	r1, #0
 1783 0054 0B46     		mov	r3, r1
 1784 0056 4FF0FF32 		mov	r2, #-1
 1785 005a E047     		blx	ip
 1786              	.LVL219:
 645:/home/tienluong/workspace/atlantis_fw/AsicFwS2/src/lcc_cmd_base_0000.c **** 			out->len += cmd.size;
 1787              		.loc 1 645 0
 1788 005c 3368     		ldr	r3, [r6]
 1789 005e E189     		ldrh	r1, [r4, #14]
 644:/home/tienluong/workspace/atlantis_fw/AsicFwS2/src/lcc_cmd_base_0000.c **** 					p_cam->image->settings[in->ucid]->resolution, cmd.size);
 1790              		.loc 1 644 0
 1791 0060 7A68     		ldr	r2, [r7, #4]
 645:/home/tienluong/workspace/atlantis_fw/AsicFwS2/src/lcc_cmd_base_0000.c **** 			out->len += cmd.size;
 1792              		.loc 1 645 0
 1793 0062 03EB8103 		add	r3, r3, r1, lsl #2
 644:/home/tienluong/workspace/atlantis_fw/AsicFwS2/src/lcc_cmd_base_0000.c **** 					p_cam->image->settings[in->ucid]->resolution, cmd.size);
 1794              		.loc 1 644 0
 1795 0066 3889     		ldrh	r0, [r7, #8]
 1796 0068 1044     		add	r0, r0, r2
 1797 006a 0822     		movs	r2, #8
 1798 006c 5968     		ldr	r1, [r3, #4]
 1799 006e 3A4B     		ldr	r3, .L160+16
 1800 0070 0831     		adds	r1, r1, #8
 1801 0072 9847     		blx	r3
 1802              	.LVL220:
 646:/home/tienluong/workspace/atlantis_fw/AsicFwS2/src/lcc_cmd_base_0000.c **** 			/* TODO: Release semaphore after read data */
 1803              		.loc 1 646 0
 1804 0074 3B89     		ldrh	r3, [r7, #8]
 1805 0076 0833     		adds	r3, r3, #8
 648:/home/tienluong/workspace/atlantis_fw/AsicFwS2/src/lcc_cmd_base_0000.c **** 		}
 1806              		.loc 1 648 0
 1807 0078 0021     		movs	r1, #0
 646:/home/tienluong/workspace/atlantis_fw/AsicFwS2/src/lcc_cmd_base_0000.c **** 			/* TODO: Release semaphore after read data */
 1808              		.loc 1 646 0
 1809 007a 3B81     		strh	r3, [r7, #8]	@ movhi
 648:/home/tienluong/workspace/atlantis_fw/AsicFwS2/src/lcc_cmd_base_0000.c **** 		}
 1810              		.loc 1 648 0
 1811 007c 0A46     		mov	r2, r1
 1812 007e 3368     		ldr	r3, [r6]
 1813 0080 364D     		ldr	r5, .L160+20
 1814 0082 D86B     		ldr	r0, [r3, #60]
 1815 0084 0B46     		mov	r3, r1
 1816 0086 A847     		blx	r5
 1817              	.LVL221:
 1818              	.L151:
 1819 0088 09F10109 		add	r9, r9, #1
 1820              	.LVL222:
 1821              	.L146:
 627:/home/tienluong/workspace/atlantis_fw/AsicFwS2/src/lcc_cmd_base_0000.c **** 	{
 1822              		.loc 1 627 0 discriminator 1
 1823 008c 5FFA89F3 		uxtb	r3, r9
 1824 0090 A27C     		ldrb	r2, [r4, #18]	@ zero_extendqisi2
 1825 0092 9A42     		cmp	r2, r3
 1826 0094 54D9     		bls	.L144
 630:/home/tienluong/workspace/atlantis_fw/AsicFwS2/src/lcc_cmd_base_0000.c **** 		/* Get camera object from camera object list */
 1827              		.loc 1 630 0
 1828 0096 0123     		movs	r3, #1
 629:/home/tienluong/workspace/atlantis_fw/AsicFwS2/src/lcc_cmd_base_0000.c **** 		m_bitmask &= ~(1 << cam_idx);
 1829              		.loc 1 629 0
 1830 0098 9AFAAAF0 		rbit	r0, r10
 1831 009c B0FA80F0 		clz	r0, r0
 1832              	.LVL223:
 630:/home/tienluong/workspace/atlantis_fw/AsicFwS2/src/lcc_cmd_base_0000.c **** 		/* Get camera object from camera object list */
 1833              		.loc 1 630 0
 1834 00a0 8340     		lsls	r3, r3, r0
 1835 00a2 0193     		str	r3, [sp, #4]
 1836 00a4 DB43     		mvns	r3, r3
 1837 00a6 0AEA030A 		and	r10, r10, r3
 1838              	.LVL224:
 1839 00aa 0293     		str	r3, [sp, #8]
 632:/home/tienluong/workspace/atlantis_fw/AsicFwS2/src/lcc_cmd_base_0000.c **** 		if (NULL == p_cam)	/*Verify object is valid */
 1840              		.loc 1 632 0
 1841 00ac 2C4B     		ldr	r3, .L160+24
 1842 00ae 9847     		blx	r3
 1843              	.LVL225:
 633:/home/tienluong/workspace/atlantis_fw/AsicFwS2/src/lcc_cmd_base_0000.c **** 		{
 1844              		.loc 1 633 0
 1845 00b0 0646     		mov	r6, r0
 1846 00b2 0028     		cmp	r0, #0
 1847 00b4 C5D1     		bne	.L149
 635:/home/tienluong/workspace/atlantis_fw/AsicFwS2/src/lcc_cmd_base_0000.c **** 			return;
 1848              		.loc 1 635 0
 1849 00b6 0823     		movs	r3, #8
 1850 00b8 2382     		strh	r3, [r4, #16]	@ movhi
 636:/home/tienluong/workspace/atlantis_fw/AsicFwS2/src/lcc_cmd_base_0000.c **** 		}
 1851              		.loc 1 636 0
 1852 00ba 41E0     		b	.L144
 1853              	.LVL226:
 1854              	.L150:
 654:/home/tienluong/workspace/atlantis_fw/AsicFwS2/src/lcc_cmd_base_0000.c **** 			p_cmd.cmd_tid = in->tid;
 1855              		.loc 1 654 0
 1856 00bc 2946     		mov	r1, r5
 1857 00be 4FF0FF32 		mov	r2, #-1
 1858 00c2 2B46     		mov	r3, r5
 1859 00c4 E047     		blx	ip
 1860              	.LVL227:
 655:/home/tienluong/workspace/atlantis_fw/AsicFwS2/src/lcc_cmd_base_0000.c **** 			p_cmd.event = IMG_EVENT_CAM_RESOLUTION;
 1861              		.loc 1 655 0
 1862 00c6 6389     		ldrh	r3, [r4, #10]
 1863 00c8 ADF81030 		strh	r3, [sp, #16]	@ movhi
 656:/home/tienluong/workspace/atlantis_fw/AsicFwS2/src/lcc_cmd_base_0000.c **** 			memcpy(p_cam->image->settings[in->ucid]->resolution,
 1864              		.loc 1 656 0
 1865 00cc 0823     		movs	r3, #8
 658:/home/tienluong/workspace/atlantis_fw/AsicFwS2/src/lcc_cmd_base_0000.c **** 			/* TODO: Release semaphore after read data */
 1866              		.loc 1 658 0
 1867 00ce 9846     		mov	r8, r3
 657:/home/tienluong/workspace/atlantis_fw/AsicFwS2/src/lcc_cmd_base_0000.c **** 											&in->data[data_cnt], cmd.size);
 1868              		.loc 1 657 0
 1869 00d0 E289     		ldrh	r2, [r4, #14]
 656:/home/tienluong/workspace/atlantis_fw/AsicFwS2/src/lcc_cmd_base_0000.c **** 			memcpy(p_cam->image->settings[in->ucid]->resolution,
 1870              		.loc 1 656 0
 1871 00d2 0593     		str	r3, [sp, #20]
 657:/home/tienluong/workspace/atlantis_fw/AsicFwS2/src/lcc_cmd_base_0000.c **** 											&in->data[data_cnt], cmd.size);
 1872              		.loc 1 657 0
 1873 00d4 3368     		ldr	r3, [r6]
 658:/home/tienluong/workspace/atlantis_fw/AsicFwS2/src/lcc_cmd_base_0000.c **** 			/* TODO: Release semaphore after read data */
 1874              		.loc 1 658 0
 1875 00d6 6168     		ldr	r1, [r4, #4]
 657:/home/tienluong/workspace/atlantis_fw/AsicFwS2/src/lcc_cmd_base_0000.c **** 											&in->data[data_cnt], cmd.size);
 1876              		.loc 1 657 0
 1877 00d8 03EB8203 		add	r3, r3, r2, lsl #2
 1878 00dc 5944     		add	r1, r1, fp
 1879 00de 4246     		mov	r2, r8
 1880 00e0 5868     		ldr	r0, [r3, #4]
 1881 00e2 1D4B     		ldr	r3, .L160+16
 1882 00e4 4044     		add	r0, r0, r8
 1883 00e6 9847     		blx	r3
 1884              	.LVL228:
 660:/home/tienluong/workspace/atlantis_fw/AsicFwS2/src/lcc_cmd_base_0000.c **** 
 1885              		.loc 1 660 0
 1886 00e8 3368     		ldr	r3, [r6]
 1887 00ea DFF870C0 		ldr	ip, .L160+20
 1888 00ee 2946     		mov	r1, r5
 1889 00f0 2A46     		mov	r2, r5
 1890 00f2 D86B     		ldr	r0, [r3, #60]
 1891 00f4 2B46     		mov	r3, r5
 1892 00f6 CDF80CC0 		str	ip, [sp, #12]
 1893 00fa E047     		blx	ip
 1894              	.LVL229:
 663:/home/tienluong/workspace/atlantis_fw/AsicFwS2/src/lcc_cmd_base_0000.c **** 			{
 1895              		.loc 1 663 0
 1896 00fc 194B     		ldr	r3, .L160+28
 1897 00fe 0199     		ldr	r1, [sp, #4]
 1898 0100 DDF80CC0 		ldr	ip, [sp, #12]
 1899 0104 1B68     		ldr	r3, [r3]
 1900 0106 9A69     		ldr	r2, [r3, #24]
 1901 0108 1142     		tst	r1, r2
 1902 010a 0FD0     		beq	.L152
 665:/home/tienluong/workspace/atlantis_fw/AsicFwS2/src/lcc_cmd_base_0000.c **** 					xQueueSend(p_cam->queue, &p_cmd, (TickType_t)10);
 1903              		.loc 1 665 0
 1904 010c E289     		ldrh	r2, [r4, #14]
 1905 010e DB8C     		ldrh	r3, [r3, #38]
 1906 0110 9A42     		cmp	r2, r3
 1907 0112 05D1     		bne	.L153
 666:/home/tienluong/workspace/atlantis_fw/AsicFwS2/src/lcc_cmd_base_0000.c **** 				else
 1908              		.loc 1 666 0
 1909 0114 706B     		ldr	r0, [r6, #52]
 1910 0116 04A9     		add	r1, sp, #16
 1911 0118 0A22     		movs	r2, #10
 1912 011a 2B46     		mov	r3, r5
 1913 011c E047     		blx	ip
 1914              	.LVL230:
 1915 011e 05E0     		b	.L152
 1916              	.L153:
 669:/home/tienluong/workspace/atlantis_fw/AsicFwS2/src/lcc_cmd_base_0000.c **** 					/* Reset cam bit_mask to update the command status */
 1917              		.loc 1 669 0
 1918 0120 0123     		movs	r3, #1
 671:/home/tienluong/workspace/atlantis_fw/AsicFwS2/src/lcc_cmd_base_0000.c **** 				}
 1919              		.loc 1 671 0
 1920 0122 029A     		ldr	r2, [sp, #8]
 669:/home/tienluong/workspace/atlantis_fw/AsicFwS2/src/lcc_cmd_base_0000.c **** 					/* Reset cam bit_mask to update the command status */
 1921              		.loc 1 669 0
 1922 0124 2382     		strh	r3, [r4, #16]	@ movhi
 671:/home/tienluong/workspace/atlantis_fw/AsicFwS2/src/lcc_cmd_base_0000.c **** 				}
 1923              		.loc 1 671 0
 1924 0126 2368     		ldr	r3, [r4]
 1925 0128 1340     		ands	r3, r3, r2
 1926 012a 2360     		str	r3, [r4]
 1927              	.L152:
 1928              		.loc 1 676 0
 1929 012c E37C     		ldrb	r3, [r4, #19]	@ zero_extendqisi2
 1930 012e 13F0020F 		tst	r3, #2
 1931 0132 14BF     		ite	ne
 1932 0134 0025     		movne	r5, #0
 1933 0136 4546     		moveq	r5, r8
 1934 0138 AB44     		add	fp, fp, r5
 1935              	.LVL231:
 1936 013a 5FFA8BFB 		uxtb	fp, fp
 1937              	.LVL232:
 1938 013e A3E7     		b	.L151
 1939              	.LVL233:
 1940              	.L144:
 677:/home/tienluong/workspace/atlantis_fw/AsicFwS2/src/lcc_cmd_base_0000.c **** 		}
 678:/home/tienluong/workspace/atlantis_fw/AsicFwS2/src/lcc_cmd_base_0000.c **** 	}
 679:/home/tienluong/workspace/atlantis_fw/AsicFwS2/src/lcc_cmd_base_0000.c **** 	/* The command status will be updated in either lcc_cmd task
 680:/home/tienluong/workspace/atlantis_fw/AsicFwS2/src/lcc_cmd_base_0000.c **** 	 * (read command) or task_cam_ctrl (write command) */
 681:/home/tienluong/workspace/atlantis_fw/AsicFwS2/src/lcc_cmd_base_0000.c **** }
 1941              		.loc 1 681 0
 1942 0140 07B0     		add	sp, sp, #28
 1943              	.LCFI16:
 1944              		.cfi_def_cfa_offset 36
 1945              		@ sp needed
 1946 0142 BDE8F08F 		pop	{r4, r5, r6, r7, r8, r9, r10, fp, pc}
 1947              	.LVL234:
 1948              	.L161:
 1949 0146 00BF     		.align	2
 1950              	.L160:
 1951 0148 00000000 		.word	.LANCHOR9
 1952 014c 00000000 		.word	pvPortMalloc1
 1953 0150 00000000 		.word	.LC0
 1954 0154 00000000 		.word	slogf
 1955 0158 00000000 		.word	memcpy
 1956 015c 00000000 		.word	xQueueGenericSend
 1957 0160 00000000 		.word	idx_to_object
 1958 0164 00000000 		.word	light_system
 1959 0168 00000000 		.word	xQueueGenericReceive
 1960              		.cfi_endproc
 1961              	.LFE10:
 1963              		.section	.text.cmd_cam_module_sensitivity,"ax",%progbits
 1964              		.align	1
 1965              		.global	cmd_cam_module_sensitivity
 1966              		.thumb
 1967              		.thumb_func
 1969              	cmd_cam_module_sensitivity:
 1970              	.LFB11:
 682:/home/tienluong/workspace/atlantis_fw/AsicFwS2/src/lcc_cmd_base_0000.c **** 
 683:/home/tienluong/workspace/atlantis_fw/AsicFwS2/src/lcc_cmd_base_0000.c **** /**
 684:/home/tienluong/workspace/atlantis_fw/AsicFwS2/src/lcc_cmd_base_0000.c ****  * cmd_cam_module_sensitivity
 685:/home/tienluong/workspace/atlantis_fw/AsicFwS2/src/lcc_cmd_base_0000.c ****  */
 686:/home/tienluong/workspace/atlantis_fw/AsicFwS2/src/lcc_cmd_base_0000.c **** void cmd_cam_module_sensitivity(lcc_cmd_t *in, lcc_cmd_t *out)
 687:/home/tienluong/workspace/atlantis_fw/AsicFwS2/src/lcc_cmd_base_0000.c **** {
 1971              		.loc 1 687 0
 1972              		.cfi_startproc
 1973              		@ args = 0, pretend = 0, frame = 16
 1974              		@ frame_needed = 0, uses_anonymous_args = 0
 1975              	.LVL235:
 1976 0000 2DE9F04F 		push	{r4, r5, r6, r7, r8, r9, r10, fp, lr}
 1977              	.LCFI17:
 1978              		.cfi_def_cfa_offset 36
 1979              		.cfi_offset 4, -36
 1980              		.cfi_offset 5, -32
 1981              		.cfi_offset 6, -28
 1982              		.cfi_offset 7, -24
 1983              		.cfi_offset 8, -20
 1984              		.cfi_offset 9, -16
 1985              		.cfi_offset 10, -12
 1986              		.cfi_offset 11, -8
 1987              		.cfi_offset 14, -4
 688:/home/tienluong/workspace/atlantis_fw/AsicFwS2/src/lcc_cmd_base_0000.c **** 	lcc_cmd_tid_t p_cmd;
 689:/home/tienluong/workspace/atlantis_fw/AsicFwS2/src/lcc_cmd_base_0000.c **** 	cam_typedef_t *p_cam;
 690:/home/tienluong/workspace/atlantis_fw/AsicFwS2/src/lcc_cmd_base_0000.c **** 	lcc_cmd_info_t cmd = (lcc_cmd_info_t)(LCC_CMD_CAM_MODULE_SENSITIVITY);
 691:/home/tienluong/workspace/atlantis_fw/AsicFwS2/src/lcc_cmd_base_0000.c **** 	uint32_t m_bitmask = in->m_bitmask;
 692:/home/tienluong/workspace/atlantis_fw/AsicFwS2/src/lcc_cmd_base_0000.c **** 	uint8_t i, cam_idx, data_cnt = 0;
 693:/home/tienluong/workspace/atlantis_fw/AsicFwS2/src/lcc_cmd_base_0000.c **** 
 694:/home/tienluong/workspace/atlantis_fw/AsicFwS2/src/lcc_cmd_base_0000.c **** 	if (CMD_READ == in->action)
 1988              		.loc 1 694 0
 1989 0004 C37C     		ldrb	r3, [r0, #19]	@ zero_extendqisi2
 1990 0006 DB07     		lsls	r3, r3, #31
 687:/home/tienluong/workspace/atlantis_fw/AsicFwS2/src/lcc_cmd_base_0000.c **** 	lcc_cmd_tid_t p_cmd;
 1991              		.loc 1 687 0
 1992 0008 85B0     		sub	sp, sp, #20
 1993              	.LCFI18:
 1994              		.cfi_def_cfa_offset 56
 687:/home/tienluong/workspace/atlantis_fw/AsicFwS2/src/lcc_cmd_base_0000.c **** 	lcc_cmd_tid_t p_cmd;
 1995              		.loc 1 687 0
 1996 000a 0446     		mov	r4, r0
 1997 000c 0F46     		mov	r7, r1
 691:/home/tienluong/workspace/atlantis_fw/AsicFwS2/src/lcc_cmd_base_0000.c **** 	uint8_t i, cam_idx, data_cnt = 0;
 1998              		.loc 1 691 0
 1999 000e D0F80090 		ldr	r9, [r0]
 2000              	.LVL236:
 2001              		.loc 1 694 0
 2002 0012 03D4     		bmi	.L163
 2003              	.LVL237:
 2004              	.L165:
 695:/home/tienluong/workspace/atlantis_fw/AsicFwS2/src/lcc_cmd_base_0000.c **** 	{
 696:/home/tienluong/workspace/atlantis_fw/AsicFwS2/src/lcc_cmd_base_0000.c **** 		out->data = pvPortMalloc(in->m_number*cmd.size);
 697:/home/tienluong/workspace/atlantis_fw/AsicFwS2/src/lcc_cmd_base_0000.c **** 		if (NULL == out->data)
 698:/home/tienluong/workspace/atlantis_fw/AsicFwS2/src/lcc_cmd_base_0000.c **** 		{
 699:/home/tienluong/workspace/atlantis_fw/AsicFwS2/src/lcc_cmd_base_0000.c **** 			SLOGF(SLOG_ERROR, "%s: Lack of memory", __FUNCTION__);
 700:/home/tienluong/workspace/atlantis_fw/AsicFwS2/src/lcc_cmd_base_0000.c **** 			in->status = LCC_CMD_UNSUCCESS;
 701:/home/tienluong/workspace/atlantis_fw/AsicFwS2/src/lcc_cmd_base_0000.c **** 			return;
 702:/home/tienluong/workspace/atlantis_fw/AsicFwS2/src/lcc_cmd_base_0000.c **** 		}
 703:/home/tienluong/workspace/atlantis_fw/AsicFwS2/src/lcc_cmd_base_0000.c **** 	}
 704:/home/tienluong/workspace/atlantis_fw/AsicFwS2/src/lcc_cmd_base_0000.c **** 
 705:/home/tienluong/workspace/atlantis_fw/AsicFwS2/src/lcc_cmd_base_0000.c **** 	/* Scan camera bitmask  */
 706:/home/tienluong/workspace/atlantis_fw/AsicFwS2/src/lcc_cmd_base_0000.c **** 	for (i = 0; i < in->m_number; i++)
 707:/home/tienluong/workspace/atlantis_fw/AsicFwS2/src/lcc_cmd_base_0000.c **** 	{
 708:/home/tienluong/workspace/atlantis_fw/AsicFwS2/src/lcc_cmd_base_0000.c **** 		cam_idx = __builtin_ctz(m_bitmask);
 709:/home/tienluong/workspace/atlantis_fw/AsicFwS2/src/lcc_cmd_base_0000.c **** 		m_bitmask &= ~(1 << cam_idx);
 710:/home/tienluong/workspace/atlantis_fw/AsicFwS2/src/lcc_cmd_base_0000.c **** 		/* Get camera object from camera object list */
 711:/home/tienluong/workspace/atlantis_fw/AsicFwS2/src/lcc_cmd_base_0000.c **** 		p_cam = idx_to_object(cam_idx);
 712:/home/tienluong/workspace/atlantis_fw/AsicFwS2/src/lcc_cmd_base_0000.c **** 		if (NULL == p_cam)	/*Verify object is valid */
 713:/home/tienluong/workspace/atlantis_fw/AsicFwS2/src/lcc_cmd_base_0000.c **** 		{
 714:/home/tienluong/workspace/atlantis_fw/AsicFwS2/src/lcc_cmd_base_0000.c **** 			in->status = LCC_CMD_INVALID_ARG;
 715:/home/tienluong/workspace/atlantis_fw/AsicFwS2/src/lcc_cmd_base_0000.c **** 			return;
 716:/home/tienluong/workspace/atlantis_fw/AsicFwS2/src/lcc_cmd_base_0000.c **** 		}
 717:/home/tienluong/workspace/atlantis_fw/AsicFwS2/src/lcc_cmd_base_0000.c **** 
 718:/home/tienluong/workspace/atlantis_fw/AsicFwS2/src/lcc_cmd_base_0000.c **** 		/* Read command processing */
 719:/home/tienluong/workspace/atlantis_fw/AsicFwS2/src/lcc_cmd_base_0000.c **** 		if (CMD_READ == in->action)
 720:/home/tienluong/workspace/atlantis_fw/AsicFwS2/src/lcc_cmd_base_0000.c **** 		{
 721:/home/tienluong/workspace/atlantis_fw/AsicFwS2/src/lcc_cmd_base_0000.c **** 			/* TODO: Take semaphore to access settings memory */
 722:/home/tienluong/workspace/atlantis_fw/AsicFwS2/src/lcc_cmd_base_0000.c **** 			xSemaphoreTake(p_cam->image->semaphore, portMAX_DELAY);
 723:/home/tienluong/workspace/atlantis_fw/AsicFwS2/src/lcc_cmd_base_0000.c **** 			memcpy(&out->data[out->len],
 724:/home/tienluong/workspace/atlantis_fw/AsicFwS2/src/lcc_cmd_base_0000.c **** 					p_cam->image->settings[in->ucid]->sensitivity, cmd.size);
 725:/home/tienluong/workspace/atlantis_fw/AsicFwS2/src/lcc_cmd_base_0000.c **** 			out->len += cmd.size;
 726:/home/tienluong/workspace/atlantis_fw/AsicFwS2/src/lcc_cmd_base_0000.c **** 			/* TODO: Release semaphore after read data */
 727:/home/tienluong/workspace/atlantis_fw/AsicFwS2/src/lcc_cmd_base_0000.c **** 			xSemaphoreGive(p_cam->image->semaphore);
 728:/home/tienluong/workspace/atlantis_fw/AsicFwS2/src/lcc_cmd_base_0000.c **** 		}
 729:/home/tienluong/workspace/atlantis_fw/AsicFwS2/src/lcc_cmd_base_0000.c **** 		/* Write command processing */
 730:/home/tienluong/workspace/atlantis_fw/AsicFwS2/src/lcc_cmd_base_0000.c **** 		else
 731:/home/tienluong/workspace/atlantis_fw/AsicFwS2/src/lcc_cmd_base_0000.c **** 		{
 732:/home/tienluong/workspace/atlantis_fw/AsicFwS2/src/lcc_cmd_base_0000.c **** 			/* TODO: Take semaphore to access settings memory */
 733:/home/tienluong/workspace/atlantis_fw/AsicFwS2/src/lcc_cmd_base_0000.c **** 			p_cmd.cmd_tid = in->tid;
 734:/home/tienluong/workspace/atlantis_fw/AsicFwS2/src/lcc_cmd_base_0000.c **** 			p_cmd.event = IMG_EVENT_CAM_SENSITIVITY;
 735:/home/tienluong/workspace/atlantis_fw/AsicFwS2/src/lcc_cmd_base_0000.c **** 			xSemaphoreTake(p_cam->image->semaphore, portMAX_DELAY);
 736:/home/tienluong/workspace/atlantis_fw/AsicFwS2/src/lcc_cmd_base_0000.c **** 			memcpy(p_cam->image->settings[in->ucid]->sensitivity,
 737:/home/tienluong/workspace/atlantis_fw/AsicFwS2/src/lcc_cmd_base_0000.c **** 												&in->data[data_cnt], cmd.size);
 738:/home/tienluong/workspace/atlantis_fw/AsicFwS2/src/lcc_cmd_base_0000.c **** 			/* TODO: Release semaphore after read data */
 739:/home/tienluong/workspace/atlantis_fw/AsicFwS2/src/lcc_cmd_base_0000.c **** 			xSemaphoreGive(p_cam->image->semaphore);
 740:/home/tienluong/workspace/atlantis_fw/AsicFwS2/src/lcc_cmd_base_0000.c **** 
 741:/home/tienluong/workspace/atlantis_fw/AsicFwS2/src/lcc_cmd_base_0000.c **** 			/* Raise a updating signal to camera task for this ASIC */
 742:/home/tienluong/workspace/atlantis_fw/AsicFwS2/src/lcc_cmd_base_0000.c **** 			if (light_system->m_filter & (1 << cam_idx))
 743:/home/tienluong/workspace/atlantis_fw/AsicFwS2/src/lcc_cmd_base_0000.c **** 			{
 744:/home/tienluong/workspace/atlantis_fw/AsicFwS2/src/lcc_cmd_base_0000.c **** 				if (in->ucid == light_system->active_ucid)
 745:/home/tienluong/workspace/atlantis_fw/AsicFwS2/src/lcc_cmd_base_0000.c **** 					xQueueSend(p_cam->queue, &p_cmd, (TickType_t)10);
 746:/home/tienluong/workspace/atlantis_fw/AsicFwS2/src/lcc_cmd_base_0000.c **** 				else
 747:/home/tienluong/workspace/atlantis_fw/AsicFwS2/src/lcc_cmd_base_0000.c **** 				{
 748:/home/tienluong/workspace/atlantis_fw/AsicFwS2/src/lcc_cmd_base_0000.c **** 					in->status = LCC_CMD_SUCCESS;
 749:/home/tienluong/workspace/atlantis_fw/AsicFwS2/src/lcc_cmd_base_0000.c **** 					/* Reset cam bit_mask to update the command status */
 750:/home/tienluong/workspace/atlantis_fw/AsicFwS2/src/lcc_cmd_base_0000.c **** 					in->m_bitmask &= ~(1 << cam_idx);
 751:/home/tienluong/workspace/atlantis_fw/AsicFwS2/src/lcc_cmd_base_0000.c **** 				}
 752:/home/tienluong/workspace/atlantis_fw/AsicFwS2/src/lcc_cmd_base_0000.c **** 			}
 753:/home/tienluong/workspace/atlantis_fw/AsicFwS2/src/lcc_cmd_base_0000.c **** 
 754:/home/tienluong/workspace/atlantis_fw/AsicFwS2/src/lcc_cmd_base_0000.c **** 			/* Set data pointer when command was set for global */
 755:/home/tienluong/workspace/atlantis_fw/AsicFwS2/src/lcc_cmd_base_0000.c **** 			data_cnt += in->global ? 0 : cmd.size;
 2005              		.loc 1 755 0
 2006 0014 4FF00008 		mov	r8, #0
 2007 0018 C246     		mov	r10, r8
 2008 001a 36E0     		b	.L164
 2009              	.LVL238:
 2010              	.L163:
 696:/home/tienluong/workspace/atlantis_fw/AsicFwS2/src/lcc_cmd_base_0000.c **** 		if (NULL == out->data)
 2011              		.loc 1 696 0
 2012 001c 807C     		ldrb	r0, [r0, #18]	@ zero_extendqisi2
 2013              	.LVL239:
 2014 001e 4B49     		ldr	r1, .L178
 2015              	.LVL240:
 2016 0020 8000     		lsls	r0, r0, #2
 2017 0022 4FF42E72 		mov	r2, #696
 2018 0026 4A4B     		ldr	r3, .L178+4
 2019 0028 9847     		blx	r3
 2020              	.LVL241:
 2021 002a 0546     		mov	r5, r0
 2022 002c 7860     		str	r0, [r7, #4]
 697:/home/tienluong/workspace/atlantis_fw/AsicFwS2/src/lcc_cmd_base_0000.c **** 		{
 2023              		.loc 1 697 0
 2024 002e 0028     		cmp	r0, #0
 2025 0030 F0D1     		bne	.L165
 699:/home/tienluong/workspace/atlantis_fw/AsicFwS2/src/lcc_cmd_base_0000.c **** 			in->status = LCC_CMD_UNSUCCESS;
 2026              		.loc 1 699 0
 2027 0032 2120     		movs	r0, #33
 2028 0034 0221     		movs	r1, #2
 2029 0036 474A     		ldr	r2, .L178+8
 2030 0038 444B     		ldr	r3, .L178
 2031 003a 474E     		ldr	r6, .L178+12
 2032 003c B047     		blx	r6
 2033              	.LVL242:
 700:/home/tienluong/workspace/atlantis_fw/AsicFwS2/src/lcc_cmd_base_0000.c **** 			return;
 2034              		.loc 1 700 0
 2035 003e 2582     		strh	r5, [r4, #16]	@ movhi
 701:/home/tienluong/workspace/atlantis_fw/AsicFwS2/src/lcc_cmd_base_0000.c **** 		}
 2036              		.loc 1 701 0
 2037 0040 81E0     		b	.L162
 2038              	.LVL243:
 2039              	.L167:
 719:/home/tienluong/workspace/atlantis_fw/AsicFwS2/src/lcc_cmd_base_0000.c **** 		{
 2040              		.loc 1 719 0
 2041 0042 E57C     		ldrb	r5, [r4, #19]	@ zero_extendqisi2
 2042 0044 15F00105 		ands	r5, r5, #1
 2043 0048 38D0     		beq	.L168
 722:/home/tienluong/workspace/atlantis_fw/AsicFwS2/src/lcc_cmd_base_0000.c **** 			memcpy(&out->data[out->len],
 2044              		.loc 1 722 0
 2045 004a 0368     		ldr	r3, [r0]
 2046 004c 0021     		movs	r1, #0
 2047 004e 4FF0FF32 		mov	r2, #-1
 2048 0052 424D     		ldr	r5, .L178+16
 2049 0054 D86B     		ldr	r0, [r3, #60]
 2050              	.LVL244:
 2051 0056 0B46     		mov	r3, r1
 2052 0058 A847     		blx	r5
 2053              	.LVL245:
 724:/home/tienluong/workspace/atlantis_fw/AsicFwS2/src/lcc_cmd_base_0000.c **** 			out->len += cmd.size;
 2054              		.loc 1 724 0
 2055 005a 3368     		ldr	r3, [r6]
 2056 005c E189     		ldrh	r1, [r4, #14]
 723:/home/tienluong/workspace/atlantis_fw/AsicFwS2/src/lcc_cmd_base_0000.c **** 					p_cam->image->settings[in->ucid]->sensitivity, cmd.size);
 2057              		.loc 1 723 0
 2058 005e 7A68     		ldr	r2, [r7, #4]
 724:/home/tienluong/workspace/atlantis_fw/AsicFwS2/src/lcc_cmd_base_0000.c **** 			out->len += cmd.size;
 2059              		.loc 1 724 0
 2060 0060 03EB8103 		add	r3, r3, r1, lsl #2
 723:/home/tienluong/workspace/atlantis_fw/AsicFwS2/src/lcc_cmd_base_0000.c **** 					p_cam->image->settings[in->ucid]->sensitivity, cmd.size);
 2061              		.loc 1 723 0
 2062 0064 3889     		ldrh	r0, [r7, #8]
 2063 0066 1044     		add	r0, r0, r2
 2064 0068 0422     		movs	r2, #4
 2065 006a 5968     		ldr	r1, [r3, #4]
 2066 006c 3C4B     		ldr	r3, .L178+20
 2067 006e 1031     		adds	r1, r1, #16
 2068 0070 9847     		blx	r3
 2069              	.LVL246:
 725:/home/tienluong/workspace/atlantis_fw/AsicFwS2/src/lcc_cmd_base_0000.c **** 			/* TODO: Release semaphore after read data */
 2070              		.loc 1 725 0
 2071 0072 3B89     		ldrh	r3, [r7, #8]
 2072 0074 0433     		adds	r3, r3, #4
 727:/home/tienluong/workspace/atlantis_fw/AsicFwS2/src/lcc_cmd_base_0000.c **** 		}
 2073              		.loc 1 727 0
 2074 0076 0021     		movs	r1, #0
 725:/home/tienluong/workspace/atlantis_fw/AsicFwS2/src/lcc_cmd_base_0000.c **** 			/* TODO: Release semaphore after read data */
 2075              		.loc 1 725 0
 2076 0078 3B81     		strh	r3, [r7, #8]	@ movhi
 727:/home/tienluong/workspace/atlantis_fw/AsicFwS2/src/lcc_cmd_base_0000.c **** 		}
 2077              		.loc 1 727 0
 2078 007a 0A46     		mov	r2, r1
 2079 007c 3368     		ldr	r3, [r6]
 2080 007e 394D     		ldr	r5, .L178+24
 2081 0080 D86B     		ldr	r0, [r3, #60]
 2082 0082 0B46     		mov	r3, r1
 2083 0084 A847     		blx	r5
 2084              	.LVL247:
 2085              	.L169:
 2086 0086 08F10108 		add	r8, r8, #1
 2087              	.LVL248:
 2088              	.L164:
 706:/home/tienluong/workspace/atlantis_fw/AsicFwS2/src/lcc_cmd_base_0000.c **** 	{
 2089              		.loc 1 706 0 discriminator 1
 2090 008a 5FFA88F3 		uxtb	r3, r8
 2091 008e A27C     		ldrb	r2, [r4, #18]	@ zero_extendqisi2
 2092 0090 9A42     		cmp	r2, r3
 2093 0092 58D9     		bls	.L162
 709:/home/tienluong/workspace/atlantis_fw/AsicFwS2/src/lcc_cmd_base_0000.c **** 		/* Get camera object from camera object list */
 2094              		.loc 1 709 0
 2095 0094 0123     		movs	r3, #1
 708:/home/tienluong/workspace/atlantis_fw/AsicFwS2/src/lcc_cmd_base_0000.c **** 		m_bitmask &= ~(1 << cam_idx);
 2096              		.loc 1 708 0
 2097 0096 99FAA9F0 		rbit	r0, r9
 2098 009a B0FA80F0 		clz	r0, r0
 2099              	.LVL249:
 709:/home/tienluong/workspace/atlantis_fw/AsicFwS2/src/lcc_cmd_base_0000.c **** 		/* Get camera object from camera object list */
 2100              		.loc 1 709 0
 2101 009e 03FA00FB 		lsl	fp, r3, r0
 2102 00a2 6FEA0B03 		mvn	r3, fp
 2103 00a6 09EA0309 		and	r9, r9, r3
 2104              	.LVL250:
 2105 00aa 0093     		str	r3, [sp]
 711:/home/tienluong/workspace/atlantis_fw/AsicFwS2/src/lcc_cmd_base_0000.c **** 		if (NULL == p_cam)	/*Verify object is valid */
 2106              		.loc 1 711 0
 2107 00ac 2E4B     		ldr	r3, .L178+28
 2108 00ae 9847     		blx	r3
 2109              	.LVL251:
 712:/home/tienluong/workspace/atlantis_fw/AsicFwS2/src/lcc_cmd_base_0000.c **** 		{
 2110              		.loc 1 712 0
 2111 00b0 0646     		mov	r6, r0
 2112 00b2 0028     		cmp	r0, #0
 2113 00b4 C5D1     		bne	.L167
 714:/home/tienluong/workspace/atlantis_fw/AsicFwS2/src/lcc_cmd_base_0000.c **** 			return;
 2114              		.loc 1 714 0
 2115 00b6 0423     		movs	r3, #4
 2116 00b8 2382     		strh	r3, [r4, #16]	@ movhi
 715:/home/tienluong/workspace/atlantis_fw/AsicFwS2/src/lcc_cmd_base_0000.c **** 		}
 2117              		.loc 1 715 0
 2118 00ba 44E0     		b	.L162
 2119              	.L168:
 733:/home/tienluong/workspace/atlantis_fw/AsicFwS2/src/lcc_cmd_base_0000.c **** 			p_cmd.event = IMG_EVENT_CAM_SENSITIVITY;
 2120              		.loc 1 733 0
 2121 00bc 6389     		ldrh	r3, [r4, #10]
 2122 00be ADF80830 		strh	r3, [sp, #8]	@ movhi
 734:/home/tienluong/workspace/atlantis_fw/AsicFwS2/src/lcc_cmd_base_0000.c **** 			xSemaphoreTake(p_cam->image->semaphore, portMAX_DELAY);
 2123              		.loc 1 734 0
 2124 00c2 1023     		movs	r3, #16
 735:/home/tienluong/workspace/atlantis_fw/AsicFwS2/src/lcc_cmd_base_0000.c **** 			memcpy(p_cam->image->settings[in->ucid]->sensitivity,
 2125              		.loc 1 735 0
 2126 00c4 DFF894C0 		ldr	ip, .L178+16
 2127 00c8 2946     		mov	r1, r5
 734:/home/tienluong/workspace/atlantis_fw/AsicFwS2/src/lcc_cmd_base_0000.c **** 			xSemaphoreTake(p_cam->image->semaphore, portMAX_DELAY);
 2128              		.loc 1 734 0
 2129 00ca 0393     		str	r3, [sp, #12]
 735:/home/tienluong/workspace/atlantis_fw/AsicFwS2/src/lcc_cmd_base_0000.c **** 			memcpy(p_cam->image->settings[in->ucid]->sensitivity,
 2130              		.loc 1 735 0
 2131 00cc 4FF0FF32 		mov	r2, #-1
 2132 00d0 0368     		ldr	r3, [r0]
 2133 00d2 D86B     		ldr	r0, [r3, #60]
 2134              	.LVL252:
 2135 00d4 2B46     		mov	r3, r5
 2136 00d6 E047     		blx	ip
 2137              	.LVL253:
 736:/home/tienluong/workspace/atlantis_fw/AsicFwS2/src/lcc_cmd_base_0000.c **** 												&in->data[data_cnt], cmd.size);
 2138              		.loc 1 736 0
 2139 00d8 3368     		ldr	r3, [r6]
 2140 00da E289     		ldrh	r2, [r4, #14]
 737:/home/tienluong/workspace/atlantis_fw/AsicFwS2/src/lcc_cmd_base_0000.c **** 			/* TODO: Release semaphore after read data */
 2141              		.loc 1 737 0
 2142 00dc 6168     		ldr	r1, [r4, #4]
 736:/home/tienluong/workspace/atlantis_fw/AsicFwS2/src/lcc_cmd_base_0000.c **** 												&in->data[data_cnt], cmd.size);
 2143              		.loc 1 736 0
 2144 00de 03EB8203 		add	r3, r3, r2, lsl #2
 2145 00e2 5144     		add	r1, r1, r10
 2146 00e4 0422     		movs	r2, #4
 2147 00e6 5868     		ldr	r0, [r3, #4]
 2148 00e8 1D4B     		ldr	r3, .L178+20
 2149 00ea 1030     		adds	r0, r0, #16
 2150 00ec 9847     		blx	r3
 2151              	.LVL254:
 739:/home/tienluong/workspace/atlantis_fw/AsicFwS2/src/lcc_cmd_base_0000.c **** 
 2152              		.loc 1 739 0
 2153 00ee 3368     		ldr	r3, [r6]
 2154 00f0 DFF870C0 		ldr	ip, .L178+24
 2155 00f4 2A46     		mov	r2, r5
 2156 00f6 2946     		mov	r1, r5
 2157 00f8 D86B     		ldr	r0, [r3, #60]
 2158 00fa 2B46     		mov	r3, r5
 2159 00fc CDF804C0 		str	ip, [sp, #4]
 2160 0100 E047     		blx	ip
 2161              	.LVL255:
 742:/home/tienluong/workspace/atlantis_fw/AsicFwS2/src/lcc_cmd_base_0000.c **** 			{
 2162              		.loc 1 742 0
 2163 0102 1A4B     		ldr	r3, .L178+32
 2164 0104 DDF804C0 		ldr	ip, [sp, #4]
 2165 0108 1B68     		ldr	r3, [r3]
 2166 010a 9A69     		ldr	r2, [r3, #24]
 2167 010c 1BEA020F 		tst	fp, r2
 2168 0110 0FD0     		beq	.L170
 744:/home/tienluong/workspace/atlantis_fw/AsicFwS2/src/lcc_cmd_base_0000.c **** 					xQueueSend(p_cam->queue, &p_cmd, (TickType_t)10);
 2169              		.loc 1 744 0
 2170 0112 E289     		ldrh	r2, [r4, #14]
 2171 0114 DB8C     		ldrh	r3, [r3, #38]
 2172 0116 9A42     		cmp	r2, r3
 2173 0118 05D1     		bne	.L171
 745:/home/tienluong/workspace/atlantis_fw/AsicFwS2/src/lcc_cmd_base_0000.c **** 				else
 2174              		.loc 1 745 0
 2175 011a 706B     		ldr	r0, [r6, #52]
 2176 011c 02A9     		add	r1, sp, #8
 2177 011e 0A22     		movs	r2, #10
 2178 0120 2B46     		mov	r3, r5
 2179 0122 E047     		blx	ip
 2180              	.LVL256:
 2181 0124 05E0     		b	.L170
 2182              	.L171:
 748:/home/tienluong/workspace/atlantis_fw/AsicFwS2/src/lcc_cmd_base_0000.c **** 					/* Reset cam bit_mask to update the command status */
 2183              		.loc 1 748 0
 2184 0126 0123     		movs	r3, #1
 750:/home/tienluong/workspace/atlantis_fw/AsicFwS2/src/lcc_cmd_base_0000.c **** 				}
 2185              		.loc 1 750 0
 2186 0128 009A     		ldr	r2, [sp]
 748:/home/tienluong/workspace/atlantis_fw/AsicFwS2/src/lcc_cmd_base_0000.c **** 					/* Reset cam bit_mask to update the command status */
 2187              		.loc 1 748 0
 2188 012a 2382     		strh	r3, [r4, #16]	@ movhi
 750:/home/tienluong/workspace/atlantis_fw/AsicFwS2/src/lcc_cmd_base_0000.c **** 				}
 2189              		.loc 1 750 0
 2190 012c 2368     		ldr	r3, [r4]
 2191 012e 1340     		ands	r3, r3, r2
 2192 0130 2360     		str	r3, [r4]
 2193              	.L170:
 2194              		.loc 1 755 0
 2195 0132 E37C     		ldrb	r3, [r4, #19]	@ zero_extendqisi2
 2196 0134 13F0020F 		tst	r3, #2
 2197 0138 14BF     		ite	ne
 2198 013a 0025     		movne	r5, #0
 2199 013c 0425     		moveq	r5, #4
 2200 013e AA44     		add	r10, r10, r5
 2201              	.LVL257:
 2202 0140 5FFA8AFA 		uxtb	r10, r10
 2203              	.LVL258:
 2204 0144 9FE7     		b	.L169
 2205              	.LVL259:
 2206              	.L162:
 756:/home/tienluong/workspace/atlantis_fw/AsicFwS2/src/lcc_cmd_base_0000.c **** 		}
 757:/home/tienluong/workspace/atlantis_fw/AsicFwS2/src/lcc_cmd_base_0000.c **** 	}
 758:/home/tienluong/workspace/atlantis_fw/AsicFwS2/src/lcc_cmd_base_0000.c **** 	/* The command status will be updated in either lcc_cmd task
 759:/home/tienluong/workspace/atlantis_fw/AsicFwS2/src/lcc_cmd_base_0000.c **** 	 * (read command) or task_cam_ctrl (write command) */
 760:/home/tienluong/workspace/atlantis_fw/AsicFwS2/src/lcc_cmd_base_0000.c **** }
 2207              		.loc 1 760 0
 2208 0146 05B0     		add	sp, sp, #20
 2209              	.LCFI19:
 2210              		.cfi_def_cfa_offset 36
 2211              		@ sp needed
 2212 0148 BDE8F08F 		pop	{r4, r5, r6, r7, r8, r9, r10, fp, pc}
 2213              	.LVL260:
 2214              	.L179:
 2215              		.align	2
 2216              	.L178:
 2217 014c 00000000 		.word	.LANCHOR10
 2218 0150 00000000 		.word	pvPortMalloc1
 2219 0154 00000000 		.word	.LC0
 2220 0158 00000000 		.word	slogf
 2221 015c 00000000 		.word	xQueueGenericReceive
 2222 0160 00000000 		.word	memcpy
 2223 0164 00000000 		.word	xQueueGenericSend
 2224 0168 00000000 		.word	idx_to_object
 2225 016c 00000000 		.word	light_system
 2226              		.cfi_endproc
 2227              	.LFE11:
 2229              		.section	.text.cmd_cam_module_exposure_time,"ax",%progbits
 2230              		.align	1
 2231              		.global	cmd_cam_module_exposure_time
 2232              		.thumb
 2233              		.thumb_func
 2235              	cmd_cam_module_exposure_time:
 2236              	.LFB12:
 761:/home/tienluong/workspace/atlantis_fw/AsicFwS2/src/lcc_cmd_base_0000.c **** 
 762:/home/tienluong/workspace/atlantis_fw/AsicFwS2/src/lcc_cmd_base_0000.c **** /**
 763:/home/tienluong/workspace/atlantis_fw/AsicFwS2/src/lcc_cmd_base_0000.c ****  * cmd_cam_module_exposure_time
 764:/home/tienluong/workspace/atlantis_fw/AsicFwS2/src/lcc_cmd_base_0000.c ****  *
 765:/home/tienluong/workspace/atlantis_fw/AsicFwS2/src/lcc_cmd_base_0000.c ****  */
 766:/home/tienluong/workspace/atlantis_fw/AsicFwS2/src/lcc_cmd_base_0000.c **** void cmd_cam_module_exposure_time(lcc_cmd_t *in, lcc_cmd_t *out)
 767:/home/tienluong/workspace/atlantis_fw/AsicFwS2/src/lcc_cmd_base_0000.c **** {
 2237              		.loc 1 767 0
 2238              		.cfi_startproc
 2239              		@ args = 0, pretend = 0, frame = 16
 2240              		@ frame_needed = 0, uses_anonymous_args = 0
 2241              	.LVL261:
 2242 0000 2DE9F04F 		push	{r4, r5, r6, r7, r8, r9, r10, fp, lr}
 2243              	.LCFI20:
 2244              		.cfi_def_cfa_offset 36
 2245              		.cfi_offset 4, -36
 2246              		.cfi_offset 5, -32
 2247              		.cfi_offset 6, -28
 2248              		.cfi_offset 7, -24
 2249              		.cfi_offset 8, -20
 2250              		.cfi_offset 9, -16
 2251              		.cfi_offset 10, -12
 2252              		.cfi_offset 11, -8
 2253              		.cfi_offset 14, -4
 768:/home/tienluong/workspace/atlantis_fw/AsicFwS2/src/lcc_cmd_base_0000.c **** 	lcc_cmd_tid_t p_cmd;
 769:/home/tienluong/workspace/atlantis_fw/AsicFwS2/src/lcc_cmd_base_0000.c **** 	cam_typedef_t *p_cam;
 770:/home/tienluong/workspace/atlantis_fw/AsicFwS2/src/lcc_cmd_base_0000.c **** 	lcc_cmd_info_t cmd = (lcc_cmd_info_t)(LCC_CMD_CAM_MODULE_EXPOSURE_TIME);
 771:/home/tienluong/workspace/atlantis_fw/AsicFwS2/src/lcc_cmd_base_0000.c **** 	uint32_t m_bitmask = in->m_bitmask;
 772:/home/tienluong/workspace/atlantis_fw/AsicFwS2/src/lcc_cmd_base_0000.c **** 	uint8_t i, cam_idx, data_cnt = 0;
 773:/home/tienluong/workspace/atlantis_fw/AsicFwS2/src/lcc_cmd_base_0000.c **** 
 774:/home/tienluong/workspace/atlantis_fw/AsicFwS2/src/lcc_cmd_base_0000.c **** 	if (CMD_READ == in->action)
 2254              		.loc 1 774 0
 2255 0004 C37C     		ldrb	r3, [r0, #19]	@ zero_extendqisi2
 2256 0006 DB07     		lsls	r3, r3, #31
 767:/home/tienluong/workspace/atlantis_fw/AsicFwS2/src/lcc_cmd_base_0000.c **** 	lcc_cmd_tid_t p_cmd;
 2257              		.loc 1 767 0
 2258 0008 85B0     		sub	sp, sp, #20
 2259              	.LCFI21:
 2260              		.cfi_def_cfa_offset 56
 767:/home/tienluong/workspace/atlantis_fw/AsicFwS2/src/lcc_cmd_base_0000.c **** 	lcc_cmd_tid_t p_cmd;
 2261              		.loc 1 767 0
 2262 000a 0446     		mov	r4, r0
 2263 000c 0F46     		mov	r7, r1
 771:/home/tienluong/workspace/atlantis_fw/AsicFwS2/src/lcc_cmd_base_0000.c **** 	uint8_t i, cam_idx, data_cnt = 0;
 2264              		.loc 1 771 0
 2265 000e D0F80090 		ldr	r9, [r0]
 2266              	.LVL262:
 2267              		.loc 1 774 0
 2268 0012 03D4     		bmi	.L181
 2269              	.LVL263:
 2270              	.L183:
 775:/home/tienluong/workspace/atlantis_fw/AsicFwS2/src/lcc_cmd_base_0000.c **** 	{
 776:/home/tienluong/workspace/atlantis_fw/AsicFwS2/src/lcc_cmd_base_0000.c **** 		out->data = pvPortMalloc(in->m_number*cmd.size);
 777:/home/tienluong/workspace/atlantis_fw/AsicFwS2/src/lcc_cmd_base_0000.c **** 		if (NULL == out->data)
 778:/home/tienluong/workspace/atlantis_fw/AsicFwS2/src/lcc_cmd_base_0000.c **** 		{
 779:/home/tienluong/workspace/atlantis_fw/AsicFwS2/src/lcc_cmd_base_0000.c **** 			SLOGF(SLOG_ERROR, "%s: Lack of memory", __FUNCTION__);
 780:/home/tienluong/workspace/atlantis_fw/AsicFwS2/src/lcc_cmd_base_0000.c **** 			in->status = LCC_CMD_UNSUCCESS;
 781:/home/tienluong/workspace/atlantis_fw/AsicFwS2/src/lcc_cmd_base_0000.c **** 			return;
 782:/home/tienluong/workspace/atlantis_fw/AsicFwS2/src/lcc_cmd_base_0000.c **** 		}
 783:/home/tienluong/workspace/atlantis_fw/AsicFwS2/src/lcc_cmd_base_0000.c **** 	}
 784:/home/tienluong/workspace/atlantis_fw/AsicFwS2/src/lcc_cmd_base_0000.c **** 
 785:/home/tienluong/workspace/atlantis_fw/AsicFwS2/src/lcc_cmd_base_0000.c **** 	/* Scan camera bitmask  */
 786:/home/tienluong/workspace/atlantis_fw/AsicFwS2/src/lcc_cmd_base_0000.c **** 	for (i = 0; i < in->m_number; i++)
 787:/home/tienluong/workspace/atlantis_fw/AsicFwS2/src/lcc_cmd_base_0000.c **** 	{
 788:/home/tienluong/workspace/atlantis_fw/AsicFwS2/src/lcc_cmd_base_0000.c **** 		cam_idx = __builtin_ctz(m_bitmask);
 789:/home/tienluong/workspace/atlantis_fw/AsicFwS2/src/lcc_cmd_base_0000.c **** 		m_bitmask &= ~(1 << cam_idx);
 790:/home/tienluong/workspace/atlantis_fw/AsicFwS2/src/lcc_cmd_base_0000.c **** 		/* Get camera object from camera object list */
 791:/home/tienluong/workspace/atlantis_fw/AsicFwS2/src/lcc_cmd_base_0000.c **** 		p_cam = idx_to_object(cam_idx);
 792:/home/tienluong/workspace/atlantis_fw/AsicFwS2/src/lcc_cmd_base_0000.c **** 		if (NULL == p_cam)	/*Verify object is valid */
 793:/home/tienluong/workspace/atlantis_fw/AsicFwS2/src/lcc_cmd_base_0000.c **** 		{
 794:/home/tienluong/workspace/atlantis_fw/AsicFwS2/src/lcc_cmd_base_0000.c **** 			in->status = LCC_CMD_INVALID_ARG;
 795:/home/tienluong/workspace/atlantis_fw/AsicFwS2/src/lcc_cmd_base_0000.c **** 			return;
 796:/home/tienluong/workspace/atlantis_fw/AsicFwS2/src/lcc_cmd_base_0000.c **** 		}
 797:/home/tienluong/workspace/atlantis_fw/AsicFwS2/src/lcc_cmd_base_0000.c **** 
 798:/home/tienluong/workspace/atlantis_fw/AsicFwS2/src/lcc_cmd_base_0000.c **** 		/* Read command processing */
 799:/home/tienluong/workspace/atlantis_fw/AsicFwS2/src/lcc_cmd_base_0000.c **** 		if (CMD_READ == in->action)
 800:/home/tienluong/workspace/atlantis_fw/AsicFwS2/src/lcc_cmd_base_0000.c **** 		{
 801:/home/tienluong/workspace/atlantis_fw/AsicFwS2/src/lcc_cmd_base_0000.c **** 			/* TODO: Take semaphore to access settings memory */
 802:/home/tienluong/workspace/atlantis_fw/AsicFwS2/src/lcc_cmd_base_0000.c **** 			xSemaphoreTake(p_cam->image->semaphore, portMAX_DELAY);
 803:/home/tienluong/workspace/atlantis_fw/AsicFwS2/src/lcc_cmd_base_0000.c **** 			memcpy(&out->data[out->len],
 804:/home/tienluong/workspace/atlantis_fw/AsicFwS2/src/lcc_cmd_base_0000.c **** 						p_cam->image->settings[in->ucid]->exposure, cmd.size);
 805:/home/tienluong/workspace/atlantis_fw/AsicFwS2/src/lcc_cmd_base_0000.c **** 			out->len += cmd.size;
 806:/home/tienluong/workspace/atlantis_fw/AsicFwS2/src/lcc_cmd_base_0000.c **** 			/* TODO: Release semaphore after read data */
 807:/home/tienluong/workspace/atlantis_fw/AsicFwS2/src/lcc_cmd_base_0000.c **** 			xSemaphoreGive(p_cam->image->semaphore);
 808:/home/tienluong/workspace/atlantis_fw/AsicFwS2/src/lcc_cmd_base_0000.c **** 		}
 809:/home/tienluong/workspace/atlantis_fw/AsicFwS2/src/lcc_cmd_base_0000.c **** 		/* Write command processing */
 810:/home/tienluong/workspace/atlantis_fw/AsicFwS2/src/lcc_cmd_base_0000.c **** 		else
 811:/home/tienluong/workspace/atlantis_fw/AsicFwS2/src/lcc_cmd_base_0000.c **** 		{
 812:/home/tienluong/workspace/atlantis_fw/AsicFwS2/src/lcc_cmd_base_0000.c **** 			SLOGF(SLOG_DEBUG, "Exposure setting request for CAM-%X",
 813:/home/tienluong/workspace/atlantis_fw/AsicFwS2/src/lcc_cmd_base_0000.c **** 														p_cam->info.module);
 814:/home/tienluong/workspace/atlantis_fw/AsicFwS2/src/lcc_cmd_base_0000.c **** 			p_cmd.cmd_tid = in->tid;
 815:/home/tienluong/workspace/atlantis_fw/AsicFwS2/src/lcc_cmd_base_0000.c **** 			p_cmd.event = IMG_EVENT_CAM_EXPOSURE_TIME;
 816:/home/tienluong/workspace/atlantis_fw/AsicFwS2/src/lcc_cmd_base_0000.c **** 			/* TODO: Take semaphore to access settings memory */
 817:/home/tienluong/workspace/atlantis_fw/AsicFwS2/src/lcc_cmd_base_0000.c **** 			memcpy(p_cam->image->settings[in->ucid]->exposure,
 818:/home/tienluong/workspace/atlantis_fw/AsicFwS2/src/lcc_cmd_base_0000.c **** 												&in->data[data_cnt], cmd.size);
 819:/home/tienluong/workspace/atlantis_fw/AsicFwS2/src/lcc_cmd_base_0000.c **** 			/* TODO: Release semaphore after read data */
 820:/home/tienluong/workspace/atlantis_fw/AsicFwS2/src/lcc_cmd_base_0000.c **** 			/* Raise a updating signal to camera task for this ASIC */
 821:/home/tienluong/workspace/atlantis_fw/AsicFwS2/src/lcc_cmd_base_0000.c **** 			if (light_system->m_filter & (1 << cam_idx))
 822:/home/tienluong/workspace/atlantis_fw/AsicFwS2/src/lcc_cmd_base_0000.c **** 			{
 823:/home/tienluong/workspace/atlantis_fw/AsicFwS2/src/lcc_cmd_base_0000.c **** 				if (in->ucid == light_system->active_ucid)
 824:/home/tienluong/workspace/atlantis_fw/AsicFwS2/src/lcc_cmd_base_0000.c **** 					xQueueSend(p_cam->queue, &p_cmd, (TickType_t)10);
 825:/home/tienluong/workspace/atlantis_fw/AsicFwS2/src/lcc_cmd_base_0000.c **** 				else
 826:/home/tienluong/workspace/atlantis_fw/AsicFwS2/src/lcc_cmd_base_0000.c **** 				{
 827:/home/tienluong/workspace/atlantis_fw/AsicFwS2/src/lcc_cmd_base_0000.c **** 					in->status = LCC_CMD_SUCCESS;
 828:/home/tienluong/workspace/atlantis_fw/AsicFwS2/src/lcc_cmd_base_0000.c **** 					/* Reset cam bit_mask to update the command status */
 829:/home/tienluong/workspace/atlantis_fw/AsicFwS2/src/lcc_cmd_base_0000.c **** 					in->m_bitmask &= ~(1 << cam_idx);
 830:/home/tienluong/workspace/atlantis_fw/AsicFwS2/src/lcc_cmd_base_0000.c **** 				}
 831:/home/tienluong/workspace/atlantis_fw/AsicFwS2/src/lcc_cmd_base_0000.c **** 			}
 832:/home/tienluong/workspace/atlantis_fw/AsicFwS2/src/lcc_cmd_base_0000.c **** 
 833:/home/tienluong/workspace/atlantis_fw/AsicFwS2/src/lcc_cmd_base_0000.c **** 			/* Set data pointer when command was set for global */
 834:/home/tienluong/workspace/atlantis_fw/AsicFwS2/src/lcc_cmd_base_0000.c **** 			data_cnt += in->global ? 0 : cmd.size;
 2271              		.loc 1 834 0
 2272 0014 4FF00008 		mov	r8, #0
 2273 0018 C246     		mov	r10, r8
 2274 001a 35E0     		b	.L182
 2275              	.LVL264:
 2276              	.L181:
 776:/home/tienluong/workspace/atlantis_fw/AsicFwS2/src/lcc_cmd_base_0000.c **** 		if (NULL == out->data)
 2277              		.loc 1 776 0
 2278 001c 807C     		ldrb	r0, [r0, #18]	@ zero_extendqisi2
 2279              	.LVL265:
 2280 001e 4449     		ldr	r1, .L196
 2281              	.LVL266:
 2282 0020 C000     		lsls	r0, r0, #3
 2283 0022 4FF44272 		mov	r2, #776
 2284 0026 434B     		ldr	r3, .L196+4
 2285 0028 9847     		blx	r3
 2286              	.LVL267:
 2287 002a 0546     		mov	r5, r0
 2288 002c 7860     		str	r0, [r7, #4]
 777:/home/tienluong/workspace/atlantis_fw/AsicFwS2/src/lcc_cmd_base_0000.c **** 		{
 2289              		.loc 1 777 0
 2290 002e 0028     		cmp	r0, #0
 2291 0030 F0D1     		bne	.L183
 779:/home/tienluong/workspace/atlantis_fw/AsicFwS2/src/lcc_cmd_base_0000.c **** 			in->status = LCC_CMD_UNSUCCESS;
 2292              		.loc 1 779 0
 2293 0032 2120     		movs	r0, #33
 2294 0034 0221     		movs	r1, #2
 2295 0036 404A     		ldr	r2, .L196+8
 2296 0038 3D4B     		ldr	r3, .L196
 2297 003a 404E     		ldr	r6, .L196+12
 2298 003c B047     		blx	r6
 2299              	.LVL268:
 780:/home/tienluong/workspace/atlantis_fw/AsicFwS2/src/lcc_cmd_base_0000.c **** 			return;
 2300              		.loc 1 780 0
 2301 003e 2582     		strh	r5, [r4, #16]	@ movhi
 781:/home/tienluong/workspace/atlantis_fw/AsicFwS2/src/lcc_cmd_base_0000.c **** 		}
 2302              		.loc 1 781 0
 2303 0040 73E0     		b	.L180
 2304              	.LVL269:
 2305              	.L185:
 799:/home/tienluong/workspace/atlantis_fw/AsicFwS2/src/lcc_cmd_base_0000.c **** 		{
 2306              		.loc 1 799 0
 2307 0042 E57C     		ldrb	r5, [r4, #19]	@ zero_extendqisi2
 2308 0044 15F00105 		ands	r5, r5, #1
 2309 0048 37D0     		beq	.L186
 802:/home/tienluong/workspace/atlantis_fw/AsicFwS2/src/lcc_cmd_base_0000.c **** 			memcpy(&out->data[out->len],
 2310              		.loc 1 802 0
 2311 004a 0368     		ldr	r3, [r0]
 2312 004c 0021     		movs	r1, #0
 2313 004e 4FF0FF32 		mov	r2, #-1
 2314 0052 3B4D     		ldr	r5, .L196+16
 2315 0054 D86B     		ldr	r0, [r3, #60]
 2316              	.LVL270:
 2317 0056 0B46     		mov	r3, r1
 2318 0058 A847     		blx	r5
 2319              	.LVL271:
 804:/home/tienluong/workspace/atlantis_fw/AsicFwS2/src/lcc_cmd_base_0000.c **** 			out->len += cmd.size;
 2320              		.loc 1 804 0
 2321 005a 3368     		ldr	r3, [r6]
 2322 005c E189     		ldrh	r1, [r4, #14]
 803:/home/tienluong/workspace/atlantis_fw/AsicFwS2/src/lcc_cmd_base_0000.c **** 						p_cam->image->settings[in->ucid]->exposure, cmd.size);
 2323              		.loc 1 803 0
 2324 005e 7868     		ldr	r0, [r7, #4]
 804:/home/tienluong/workspace/atlantis_fw/AsicFwS2/src/lcc_cmd_base_0000.c **** 			out->len += cmd.size;
 2325              		.loc 1 804 0
 2326 0060 03EB8103 		add	r3, r3, r1, lsl #2
 803:/home/tienluong/workspace/atlantis_fw/AsicFwS2/src/lcc_cmd_base_0000.c **** 						p_cam->image->settings[in->ucid]->exposure, cmd.size);
 2327              		.loc 1 803 0
 2328 0064 3A89     		ldrh	r2, [r7, #8]
 2329 0066 1044     		add	r0, r0, r2
 2330 0068 0822     		movs	r2, #8
 2331 006a 5968     		ldr	r1, [r3, #4]
 2332 006c 354B     		ldr	r3, .L196+20
 2333 006e 9847     		blx	r3
 2334              	.LVL272:
 805:/home/tienluong/workspace/atlantis_fw/AsicFwS2/src/lcc_cmd_base_0000.c **** 			/* TODO: Release semaphore after read data */
 2335              		.loc 1 805 0
 2336 0070 3B89     		ldrh	r3, [r7, #8]
 2337 0072 0833     		adds	r3, r3, #8
 807:/home/tienluong/workspace/atlantis_fw/AsicFwS2/src/lcc_cmd_base_0000.c **** 		}
 2338              		.loc 1 807 0
 2339 0074 0021     		movs	r1, #0
 805:/home/tienluong/workspace/atlantis_fw/AsicFwS2/src/lcc_cmd_base_0000.c **** 			/* TODO: Release semaphore after read data */
 2340              		.loc 1 805 0
 2341 0076 3B81     		strh	r3, [r7, #8]	@ movhi
 807:/home/tienluong/workspace/atlantis_fw/AsicFwS2/src/lcc_cmd_base_0000.c **** 		}
 2342              		.loc 1 807 0
 2343 0078 0A46     		mov	r2, r1
 2344 007a 3368     		ldr	r3, [r6]
 2345 007c 324D     		ldr	r5, .L196+24
 2346 007e D86B     		ldr	r0, [r3, #60]
 2347 0080 0B46     		mov	r3, r1
 2348 0082 A847     		blx	r5
 2349              	.LVL273:
 2350              	.L187:
 2351 0084 08F10108 		add	r8, r8, #1
 2352              	.LVL274:
 2353              	.L182:
 786:/home/tienluong/workspace/atlantis_fw/AsicFwS2/src/lcc_cmd_base_0000.c **** 	{
 2354              		.loc 1 786 0 discriminator 1
 2355 0088 5FFA88F3 		uxtb	r3, r8
 2356 008c A27C     		ldrb	r2, [r4, #18]	@ zero_extendqisi2
 2357 008e 9A42     		cmp	r2, r3
 2358 0090 4BD9     		bls	.L180
 789:/home/tienluong/workspace/atlantis_fw/AsicFwS2/src/lcc_cmd_base_0000.c **** 		/* Get camera object from camera object list */
 2359              		.loc 1 789 0
 2360 0092 0123     		movs	r3, #1
 788:/home/tienluong/workspace/atlantis_fw/AsicFwS2/src/lcc_cmd_base_0000.c **** 		m_bitmask &= ~(1 << cam_idx);
 2361              		.loc 1 788 0
 2362 0094 99FAA9F0 		rbit	r0, r9
 2363 0098 B0FA80F0 		clz	r0, r0
 2364              	.LVL275:
 789:/home/tienluong/workspace/atlantis_fw/AsicFwS2/src/lcc_cmd_base_0000.c **** 		/* Get camera object from camera object list */
 2365              		.loc 1 789 0
 2366 009c 03FA00FB 		lsl	fp, r3, r0
 2367 00a0 6FEA0B03 		mvn	r3, fp
 2368 00a4 09EA0309 		and	r9, r9, r3
 2369              	.LVL276:
 2370 00a8 0193     		str	r3, [sp, #4]
 791:/home/tienluong/workspace/atlantis_fw/AsicFwS2/src/lcc_cmd_base_0000.c **** 		if (NULL == p_cam)	/*Verify object is valid */
 2371              		.loc 1 791 0
 2372 00aa 284B     		ldr	r3, .L196+28
 2373 00ac 9847     		blx	r3
 2374              	.LVL277:
 792:/home/tienluong/workspace/atlantis_fw/AsicFwS2/src/lcc_cmd_base_0000.c **** 		{
 2375              		.loc 1 792 0
 2376 00ae 0646     		mov	r6, r0
 2377 00b0 0028     		cmp	r0, #0
 2378 00b2 C6D1     		bne	.L185
 794:/home/tienluong/workspace/atlantis_fw/AsicFwS2/src/lcc_cmd_base_0000.c **** 			return;
 2379              		.loc 1 794 0
 2380 00b4 0423     		movs	r3, #4
 2381 00b6 2382     		strh	r3, [r4, #16]	@ movhi
 795:/home/tienluong/workspace/atlantis_fw/AsicFwS2/src/lcc_cmd_base_0000.c **** 		}
 2382              		.loc 1 795 0
 2383 00b8 37E0     		b	.L180
 2384              	.L186:
 812:/home/tienluong/workspace/atlantis_fw/AsicFwS2/src/lcc_cmd_base_0000.c **** 														p_cam->info.module);
 2385              		.loc 1 812 0
 2386 00ba 2120     		movs	r0, #33
 2387              	.LVL278:
 2388 00bc 96F82930 		ldrb	r3, [r6, #41]	@ zero_extendqisi2
 2389 00c0 1021     		movs	r1, #16
 2390 00c2 234A     		ldr	r2, .L196+32
 2391 00c4 DFF874C0 		ldr	ip, .L196+12
 2392 00c8 E047     		blx	ip
 2393              	.LVL279:
 814:/home/tienluong/workspace/atlantis_fw/AsicFwS2/src/lcc_cmd_base_0000.c **** 			p_cmd.event = IMG_EVENT_CAM_EXPOSURE_TIME;
 2394              		.loc 1 814 0
 2395 00ca 6389     		ldrh	r3, [r4, #10]
 2396 00cc ADF80830 		strh	r3, [sp, #8]	@ movhi
 815:/home/tienluong/workspace/atlantis_fw/AsicFwS2/src/lcc_cmd_base_0000.c **** 			/* TODO: Take semaphore to access settings memory */
 2397              		.loc 1 815 0
 2398 00d0 2023     		movs	r3, #32
 817:/home/tienluong/workspace/atlantis_fw/AsicFwS2/src/lcc_cmd_base_0000.c **** 												&in->data[data_cnt], cmd.size);
 2399              		.loc 1 817 0
 2400 00d2 E289     		ldrh	r2, [r4, #14]
 818:/home/tienluong/workspace/atlantis_fw/AsicFwS2/src/lcc_cmd_base_0000.c **** 			/* TODO: Release semaphore after read data */
 2401              		.loc 1 818 0
 2402 00d4 6168     		ldr	r1, [r4, #4]
 815:/home/tienluong/workspace/atlantis_fw/AsicFwS2/src/lcc_cmd_base_0000.c **** 			/* TODO: Take semaphore to access settings memory */
 2403              		.loc 1 815 0
 2404 00d6 0393     		str	r3, [sp, #12]
 817:/home/tienluong/workspace/atlantis_fw/AsicFwS2/src/lcc_cmd_base_0000.c **** 												&in->data[data_cnt], cmd.size);
 2405              		.loc 1 817 0
 2406 00d8 3368     		ldr	r3, [r6]
 2407 00da 5144     		add	r1, r1, r10
 2408 00dc 03EB8203 		add	r3, r3, r2, lsl #2
 2409 00e0 0822     		movs	r2, #8
 2410 00e2 5868     		ldr	r0, [r3, #4]
 2411 00e4 174B     		ldr	r3, .L196+20
 2412 00e6 9847     		blx	r3
 2413              	.LVL280:
 821:/home/tienluong/workspace/atlantis_fw/AsicFwS2/src/lcc_cmd_base_0000.c **** 			{
 2414              		.loc 1 821 0
 2415 00e8 1A4B     		ldr	r3, .L196+36
 2416 00ea 1B68     		ldr	r3, [r3]
 2417 00ec 9A69     		ldr	r2, [r3, #24]
 2418 00ee 1BEA020F 		tst	fp, r2
 2419 00f2 10D0     		beq	.L188
 823:/home/tienluong/workspace/atlantis_fw/AsicFwS2/src/lcc_cmd_base_0000.c **** 					xQueueSend(p_cam->queue, &p_cmd, (TickType_t)10);
 2420              		.loc 1 823 0
 2421 00f4 E289     		ldrh	r2, [r4, #14]
 2422 00f6 DB8C     		ldrh	r3, [r3, #38]
 2423 00f8 9A42     		cmp	r2, r3
 2424 00fa 06D1     		bne	.L189
 824:/home/tienluong/workspace/atlantis_fw/AsicFwS2/src/lcc_cmd_base_0000.c **** 				else
 2425              		.loc 1 824 0
 2426 00fc 2B46     		mov	r3, r5
 2427 00fe 02A9     		add	r1, sp, #8
 2428 0100 706B     		ldr	r0, [r6, #52]
 2429 0102 0A22     		movs	r2, #10
 2430 0104 104D     		ldr	r5, .L196+24
 2431 0106 A847     		blx	r5
 2432              	.LVL281:
 2433 0108 05E0     		b	.L188
 2434              	.L189:
 827:/home/tienluong/workspace/atlantis_fw/AsicFwS2/src/lcc_cmd_base_0000.c **** 					/* Reset cam bit_mask to update the command status */
 2435              		.loc 1 827 0
 2436 010a 0123     		movs	r3, #1
 829:/home/tienluong/workspace/atlantis_fw/AsicFwS2/src/lcc_cmd_base_0000.c **** 				}
 2437              		.loc 1 829 0
 2438 010c 019A     		ldr	r2, [sp, #4]
 827:/home/tienluong/workspace/atlantis_fw/AsicFwS2/src/lcc_cmd_base_0000.c **** 					/* Reset cam bit_mask to update the command status */
 2439              		.loc 1 827 0
 2440 010e 2382     		strh	r3, [r4, #16]	@ movhi
 829:/home/tienluong/workspace/atlantis_fw/AsicFwS2/src/lcc_cmd_base_0000.c **** 				}
 2441              		.loc 1 829 0
 2442 0110 2368     		ldr	r3, [r4]
 2443 0112 1340     		ands	r3, r3, r2
 2444 0114 2360     		str	r3, [r4]
 2445              	.L188:
 2446              		.loc 1 834 0
 2447 0116 E37C     		ldrb	r3, [r4, #19]	@ zero_extendqisi2
 2448 0118 13F0020F 		tst	r3, #2
 2449 011c 14BF     		ite	ne
 2450 011e 0025     		movne	r5, #0
 2451 0120 0825     		moveq	r5, #8
 2452 0122 AA44     		add	r10, r10, r5
 2453              	.LVL282:
 2454 0124 5FFA8AFA 		uxtb	r10, r10
 2455              	.LVL283:
 2456 0128 ACE7     		b	.L187
 2457              	.LVL284:
 2458              	.L180:
 835:/home/tienluong/workspace/atlantis_fw/AsicFwS2/src/lcc_cmd_base_0000.c **** 		}
 836:/home/tienluong/workspace/atlantis_fw/AsicFwS2/src/lcc_cmd_base_0000.c **** 	}
 837:/home/tienluong/workspace/atlantis_fw/AsicFwS2/src/lcc_cmd_base_0000.c **** 	/* The command status will be updated in either lcc_cmd task
 838:/home/tienluong/workspace/atlantis_fw/AsicFwS2/src/lcc_cmd_base_0000.c **** 	 * (read command) or task_cam_ctrl (write command) */
 839:/home/tienluong/workspace/atlantis_fw/AsicFwS2/src/lcc_cmd_base_0000.c **** }
 2459              		.loc 1 839 0
 2460 012a 05B0     		add	sp, sp, #20
 2461              	.LCFI22:
 2462              		.cfi_def_cfa_offset 36
 2463              		@ sp needed
 2464 012c BDE8F08F 		pop	{r4, r5, r6, r7, r8, r9, r10, fp, pc}
 2465              	.LVL285:
 2466              	.L197:
 2467              		.align	2
 2468              	.L196:
 2469 0130 00000000 		.word	.LANCHOR11
 2470 0134 00000000 		.word	pvPortMalloc1
 2471 0138 00000000 		.word	.LC0
 2472 013c 00000000 		.word	slogf
 2473 0140 00000000 		.word	xQueueGenericReceive
 2474 0144 00000000 		.word	memcpy
 2475 0148 00000000 		.word	xQueueGenericSend
 2476 014c 00000000 		.word	idx_to_object
 2477 0150 2C010000 		.word	.LC14
 2478 0154 00000000 		.word	light_system
 2479              		.cfi_endproc
 2480              	.LFE12:
 2482              		.section	.text.cmd_cam_module_fps,"ax",%progbits
 2483              		.align	1
 2484              		.global	cmd_cam_module_fps
 2485              		.thumb
 2486              		.thumb_func
 2488              	cmd_cam_module_fps:
 2489              	.LFB13:
 840:/home/tienluong/workspace/atlantis_fw/AsicFwS2/src/lcc_cmd_base_0000.c **** 
 841:/home/tienluong/workspace/atlantis_fw/AsicFwS2/src/lcc_cmd_base_0000.c **** /**
 842:/home/tienluong/workspace/atlantis_fw/AsicFwS2/src/lcc_cmd_base_0000.c ****  * cmd_cam_module_fps
 843:/home/tienluong/workspace/atlantis_fw/AsicFwS2/src/lcc_cmd_base_0000.c ****  *
 844:/home/tienluong/workspace/atlantis_fw/AsicFwS2/src/lcc_cmd_base_0000.c ****  */
 845:/home/tienluong/workspace/atlantis_fw/AsicFwS2/src/lcc_cmd_base_0000.c **** void cmd_cam_module_fps(lcc_cmd_t *in, lcc_cmd_t *out)
 846:/home/tienluong/workspace/atlantis_fw/AsicFwS2/src/lcc_cmd_base_0000.c **** {
 2490              		.loc 1 846 0
 2491              		.cfi_startproc
 2492              		@ args = 0, pretend = 0, frame = 16
 2493              		@ frame_needed = 0, uses_anonymous_args = 0
 2494              	.LVL286:
 2495 0000 2DE9F04F 		push	{r4, r5, r6, r7, r8, r9, r10, fp, lr}
 2496              	.LCFI23:
 2497              		.cfi_def_cfa_offset 36
 2498              		.cfi_offset 4, -36
 2499              		.cfi_offset 5, -32
 2500              		.cfi_offset 6, -28
 2501              		.cfi_offset 7, -24
 2502              		.cfi_offset 8, -20
 2503              		.cfi_offset 9, -16
 2504              		.cfi_offset 10, -12
 2505              		.cfi_offset 11, -8
 2506              		.cfi_offset 14, -4
 847:/home/tienluong/workspace/atlantis_fw/AsicFwS2/src/lcc_cmd_base_0000.c **** 	lcc_cmd_tid_t p_cmd;
 848:/home/tienluong/workspace/atlantis_fw/AsicFwS2/src/lcc_cmd_base_0000.c **** 	cam_typedef_t *p_cam;
 849:/home/tienluong/workspace/atlantis_fw/AsicFwS2/src/lcc_cmd_base_0000.c **** 	lcc_cmd_info_t cmd = (lcc_cmd_info_t)(LCC_CMD_CAM_MODULE_FPS);
 850:/home/tienluong/workspace/atlantis_fw/AsicFwS2/src/lcc_cmd_base_0000.c **** 	uint32_t m_bitmask = in->m_bitmask;
 851:/home/tienluong/workspace/atlantis_fw/AsicFwS2/src/lcc_cmd_base_0000.c **** 	uint8_t i, cam_idx, data_cnt = 0;
 852:/home/tienluong/workspace/atlantis_fw/AsicFwS2/src/lcc_cmd_base_0000.c **** 
 853:/home/tienluong/workspace/atlantis_fw/AsicFwS2/src/lcc_cmd_base_0000.c **** 	if (CMD_READ == in->action)
 2507              		.loc 1 853 0
 2508 0004 C37C     		ldrb	r3, [r0, #19]	@ zero_extendqisi2
 2509 0006 DA07     		lsls	r2, r3, #31
 846:/home/tienluong/workspace/atlantis_fw/AsicFwS2/src/lcc_cmd_base_0000.c **** 	lcc_cmd_tid_t p_cmd;
 2510              		.loc 1 846 0
 2511 0008 85B0     		sub	sp, sp, #20
 2512              	.LCFI24:
 2513              		.cfi_def_cfa_offset 56
 846:/home/tienluong/workspace/atlantis_fw/AsicFwS2/src/lcc_cmd_base_0000.c **** 	lcc_cmd_tid_t p_cmd;
 2514              		.loc 1 846 0
 2515 000a 0446     		mov	r4, r0
 2516 000c 8846     		mov	r8, r1
 850:/home/tienluong/workspace/atlantis_fw/AsicFwS2/src/lcc_cmd_base_0000.c **** 	uint8_t i, cam_idx, data_cnt = 0;
 2517              		.loc 1 850 0
 2518 000e D0F800A0 		ldr	r10, [r0]
 2519              	.LVL287:
 2520              		.loc 1 853 0
 2521 0012 03D4     		bmi	.L199
 2522              	.LVL288:
 2523              	.L201:
 854:/home/tienluong/workspace/atlantis_fw/AsicFwS2/src/lcc_cmd_base_0000.c **** 	{
 855:/home/tienluong/workspace/atlantis_fw/AsicFwS2/src/lcc_cmd_base_0000.c **** 		out->data = pvPortMalloc(in->m_number*cmd.size);
 856:/home/tienluong/workspace/atlantis_fw/AsicFwS2/src/lcc_cmd_base_0000.c **** 		if (NULL == out->data)
 857:/home/tienluong/workspace/atlantis_fw/AsicFwS2/src/lcc_cmd_base_0000.c **** 		{
 858:/home/tienluong/workspace/atlantis_fw/AsicFwS2/src/lcc_cmd_base_0000.c **** 			SLOGF(SLOG_ERROR, "%s: Lack of memory", __FUNCTION__);
 859:/home/tienluong/workspace/atlantis_fw/AsicFwS2/src/lcc_cmd_base_0000.c **** 			in->status = LCC_CMD_UNSUCCESS;
 860:/home/tienluong/workspace/atlantis_fw/AsicFwS2/src/lcc_cmd_base_0000.c **** 			return;
 861:/home/tienluong/workspace/atlantis_fw/AsicFwS2/src/lcc_cmd_base_0000.c **** 		}
 862:/home/tienluong/workspace/atlantis_fw/AsicFwS2/src/lcc_cmd_base_0000.c **** 	}
 863:/home/tienluong/workspace/atlantis_fw/AsicFwS2/src/lcc_cmd_base_0000.c **** 
 864:/home/tienluong/workspace/atlantis_fw/AsicFwS2/src/lcc_cmd_base_0000.c **** 	/* Scan camera bitmask  */
 865:/home/tienluong/workspace/atlantis_fw/AsicFwS2/src/lcc_cmd_base_0000.c **** 	for (i = 0; i < in->m_number; i++)
 866:/home/tienluong/workspace/atlantis_fw/AsicFwS2/src/lcc_cmd_base_0000.c **** 	{
 867:/home/tienluong/workspace/atlantis_fw/AsicFwS2/src/lcc_cmd_base_0000.c **** 		cam_idx = __builtin_ctz(m_bitmask);
 868:/home/tienluong/workspace/atlantis_fw/AsicFwS2/src/lcc_cmd_base_0000.c **** 		m_bitmask &= ~(1 << cam_idx);
 869:/home/tienluong/workspace/atlantis_fw/AsicFwS2/src/lcc_cmd_base_0000.c **** 		/* Get camera object from camera object list */
 870:/home/tienluong/workspace/atlantis_fw/AsicFwS2/src/lcc_cmd_base_0000.c **** 		p_cam = idx_to_object(cam_idx);
 871:/home/tienluong/workspace/atlantis_fw/AsicFwS2/src/lcc_cmd_base_0000.c **** 		if (NULL == p_cam)	/*Verify object is valid */
 872:/home/tienluong/workspace/atlantis_fw/AsicFwS2/src/lcc_cmd_base_0000.c **** 		{
 873:/home/tienluong/workspace/atlantis_fw/AsicFwS2/src/lcc_cmd_base_0000.c **** 			in->status = LCC_CMD_INVALID_ARG;
 874:/home/tienluong/workspace/atlantis_fw/AsicFwS2/src/lcc_cmd_base_0000.c **** 			return;
 875:/home/tienluong/workspace/atlantis_fw/AsicFwS2/src/lcc_cmd_base_0000.c **** 		}
 876:/home/tienluong/workspace/atlantis_fw/AsicFwS2/src/lcc_cmd_base_0000.c **** 
 877:/home/tienluong/workspace/atlantis_fw/AsicFwS2/src/lcc_cmd_base_0000.c **** 		/* Read command processing */
 878:/home/tienluong/workspace/atlantis_fw/AsicFwS2/src/lcc_cmd_base_0000.c **** 		if (CMD_READ == in->action)
 879:/home/tienluong/workspace/atlantis_fw/AsicFwS2/src/lcc_cmd_base_0000.c **** 		{
 880:/home/tienluong/workspace/atlantis_fw/AsicFwS2/src/lcc_cmd_base_0000.c **** 			/* TODO: Take semaphore to access settings memory */
 881:/home/tienluong/workspace/atlantis_fw/AsicFwS2/src/lcc_cmd_base_0000.c **** 			xSemaphoreTake(p_cam->image->semaphore, portMAX_DELAY);
 882:/home/tienluong/workspace/atlantis_fw/AsicFwS2/src/lcc_cmd_base_0000.c **** 			out->data[out->len++] = p_cam->image->settings[in->ucid]->fps[0];
 883:/home/tienluong/workspace/atlantis_fw/AsicFwS2/src/lcc_cmd_base_0000.c **** 			out->data[out->len++] = p_cam->image->settings[in->ucid]->fps[1];
 884:/home/tienluong/workspace/atlantis_fw/AsicFwS2/src/lcc_cmd_base_0000.c **** 			/* TODO: Release semaphore after read data */
 885:/home/tienluong/workspace/atlantis_fw/AsicFwS2/src/lcc_cmd_base_0000.c **** 			xSemaphoreGive(p_cam->image->semaphore);
 886:/home/tienluong/workspace/atlantis_fw/AsicFwS2/src/lcc_cmd_base_0000.c **** 		}
 887:/home/tienluong/workspace/atlantis_fw/AsicFwS2/src/lcc_cmd_base_0000.c **** 		/* Write command processing */
 888:/home/tienluong/workspace/atlantis_fw/AsicFwS2/src/lcc_cmd_base_0000.c **** 		else
 889:/home/tienluong/workspace/atlantis_fw/AsicFwS2/src/lcc_cmd_base_0000.c **** 		{
 890:/home/tienluong/workspace/atlantis_fw/AsicFwS2/src/lcc_cmd_base_0000.c **** 			/* TODO: Take semaphore to access settings memory */
 891:/home/tienluong/workspace/atlantis_fw/AsicFwS2/src/lcc_cmd_base_0000.c **** 			p_cmd.cmd_tid = in->tid;
 892:/home/tienluong/workspace/atlantis_fw/AsicFwS2/src/lcc_cmd_base_0000.c **** 			p_cmd.event = IMG_EVENT_CAM_FPS;
 893:/home/tienluong/workspace/atlantis_fw/AsicFwS2/src/lcc_cmd_base_0000.c **** 			xSemaphoreTake(p_cam->image->semaphore, portMAX_DELAY);
 894:/home/tienluong/workspace/atlantis_fw/AsicFwS2/src/lcc_cmd_base_0000.c **** 			p_cam->image->settings[in->ucid]->fps[0] = in->data[data_cnt++];
 895:/home/tienluong/workspace/atlantis_fw/AsicFwS2/src/lcc_cmd_base_0000.c **** 			p_cam->image->settings[in->ucid]->fps[1] = in->data[data_cnt++];
 896:/home/tienluong/workspace/atlantis_fw/AsicFwS2/src/lcc_cmd_base_0000.c **** 			/* TODO: Release semaphore after read data */
 897:/home/tienluong/workspace/atlantis_fw/AsicFwS2/src/lcc_cmd_base_0000.c **** 			xSemaphoreGive(p_cam->image->semaphore);
 898:/home/tienluong/workspace/atlantis_fw/AsicFwS2/src/lcc_cmd_base_0000.c **** 
 899:/home/tienluong/workspace/atlantis_fw/AsicFwS2/src/lcc_cmd_base_0000.c **** 			/* Raise a updating signal to camera task for this ASIC */
 900:/home/tienluong/workspace/atlantis_fw/AsicFwS2/src/lcc_cmd_base_0000.c **** 			if (light_system->m_filter & (1 << cam_idx))
 901:/home/tienluong/workspace/atlantis_fw/AsicFwS2/src/lcc_cmd_base_0000.c **** 			{
 902:/home/tienluong/workspace/atlantis_fw/AsicFwS2/src/lcc_cmd_base_0000.c **** 				if (in->ucid == light_system->active_ucid)
 903:/home/tienluong/workspace/atlantis_fw/AsicFwS2/src/lcc_cmd_base_0000.c **** 					xQueueSend(p_cam->queue, &p_cmd, (TickType_t)10);
 904:/home/tienluong/workspace/atlantis_fw/AsicFwS2/src/lcc_cmd_base_0000.c **** 				else
 905:/home/tienluong/workspace/atlantis_fw/AsicFwS2/src/lcc_cmd_base_0000.c **** 				{
 906:/home/tienluong/workspace/atlantis_fw/AsicFwS2/src/lcc_cmd_base_0000.c **** 					in->status = LCC_CMD_SUCCESS;
 907:/home/tienluong/workspace/atlantis_fw/AsicFwS2/src/lcc_cmd_base_0000.c **** 					/* Reset cam bit_mask to update the command status */
 908:/home/tienluong/workspace/atlantis_fw/AsicFwS2/src/lcc_cmd_base_0000.c **** 					in->m_bitmask &= ~(1 << cam_idx);
 909:/home/tienluong/workspace/atlantis_fw/AsicFwS2/src/lcc_cmd_base_0000.c **** 				}
 910:/home/tienluong/workspace/atlantis_fw/AsicFwS2/src/lcc_cmd_base_0000.c **** 			}
 911:/home/tienluong/workspace/atlantis_fw/AsicFwS2/src/lcc_cmd_base_0000.c **** 
 912:/home/tienluong/workspace/atlantis_fw/AsicFwS2/src/lcc_cmd_base_0000.c **** 			/* Set data pointer when command was set for global */
 913:/home/tienluong/workspace/atlantis_fw/AsicFwS2/src/lcc_cmd_base_0000.c **** 			if (in->global)
 914:/home/tienluong/workspace/atlantis_fw/AsicFwS2/src/lcc_cmd_base_0000.c **** 				data_cnt = 0;
 2524              		.loc 1 914 0
 2525 0014 4FF00009 		mov	r9, #0
 2526 0018 4F46     		mov	r7, r9
 2527 001a 44E0     		b	.L200
 2528              	.LVL289:
 2529              	.L199:
 855:/home/tienluong/workspace/atlantis_fw/AsicFwS2/src/lcc_cmd_base_0000.c **** 		if (NULL == out->data)
 2530              		.loc 1 855 0
 2531 001c 807C     		ldrb	r0, [r0, #18]	@ zero_extendqisi2
 2532              	.LVL290:
 2533 001e 5449     		ldr	r1, .L214
 2534              	.LVL291:
 2535 0020 4000     		lsls	r0, r0, #1
 2536 0022 40F25732 		movw	r2, #855
 2537 0026 534B     		ldr	r3, .L214+4
 2538 0028 9847     		blx	r3
 2539              	.LVL292:
 2540 002a 0546     		mov	r5, r0
 2541 002c C8F80400 		str	r0, [r8, #4]
 856:/home/tienluong/workspace/atlantis_fw/AsicFwS2/src/lcc_cmd_base_0000.c **** 		{
 2542              		.loc 1 856 0
 2543 0030 0028     		cmp	r0, #0
 2544 0032 EFD1     		bne	.L201
 858:/home/tienluong/workspace/atlantis_fw/AsicFwS2/src/lcc_cmd_base_0000.c **** 			in->status = LCC_CMD_UNSUCCESS;
 2545              		.loc 1 858 0
 2546 0034 2120     		movs	r0, #33
 2547 0036 0221     		movs	r1, #2
 2548 0038 4F4A     		ldr	r2, .L214+8
 2549 003a 4D4B     		ldr	r3, .L214
 2550 003c 4F4E     		ldr	r6, .L214+12
 2551 003e B047     		blx	r6
 2552              	.LVL293:
 859:/home/tienluong/workspace/atlantis_fw/AsicFwS2/src/lcc_cmd_base_0000.c **** 			return;
 2553              		.loc 1 859 0
 2554 0040 2582     		strh	r5, [r4, #16]	@ movhi
 860:/home/tienluong/workspace/atlantis_fw/AsicFwS2/src/lcc_cmd_base_0000.c **** 		}
 2555              		.loc 1 860 0
 2556 0042 92E0     		b	.L198
 2557              	.LVL294:
 2558              	.L203:
 878:/home/tienluong/workspace/atlantis_fw/AsicFwS2/src/lcc_cmd_base_0000.c **** 		{
 2559              		.loc 1 878 0
 2560 0044 E67C     		ldrb	r6, [r4, #19]	@ zero_extendqisi2
 2561 0046 16F00106 		ands	r6, r6, #1
 2562 004a 45D0     		beq	.L204
 881:/home/tienluong/workspace/atlantis_fw/AsicFwS2/src/lcc_cmd_base_0000.c **** 			out->data[out->len++] = p_cam->image->settings[in->ucid]->fps[0];
 2563              		.loc 1 881 0
 2564 004c 0368     		ldr	r3, [r0]
 2565 004e 0021     		movs	r1, #0
 2566 0050 4FF0FF32 		mov	r2, #-1
 2567 0054 4A4E     		ldr	r6, .L214+16
 2568 0056 D86B     		ldr	r0, [r3, #60]
 2569              	.LVL295:
 2570 0058 0B46     		mov	r3, r1
 2571 005a B047     		blx	r6
 2572              	.LVL296:
 882:/home/tienluong/workspace/atlantis_fw/AsicFwS2/src/lcc_cmd_base_0000.c **** 			out->data[out->len++] = p_cam->image->settings[in->ucid]->fps[1];
 2573              		.loc 1 882 0
 2574 005c B8F80820 		ldrh	r2, [r8, #8]
 2575 0060 531C     		adds	r3, r2, #1
 2576 0062 E089     		ldrh	r0, [r4, #14]
 2577 0064 D8F80410 		ldr	r1, [r8, #4]
 2578 0068 A8F80830 		strh	r3, [r8, #8]	@ movhi
 2579 006c 2B68     		ldr	r3, [r5]
 2580 006e 03EB8003 		add	r3, r3, r0, lsl #2
 2581 0072 5B68     		ldr	r3, [r3, #4]
 2582 0074 1B7D     		ldrb	r3, [r3, #20]	@ zero_extendqisi2
 2583 0076 8B54     		strb	r3, [r1, r2]
 883:/home/tienluong/workspace/atlantis_fw/AsicFwS2/src/lcc_cmd_base_0000.c **** 			/* TODO: Release semaphore after read data */
 2584              		.loc 1 883 0
 2585 0078 B8F80820 		ldrh	r2, [r8, #8]
 2586 007c 531C     		adds	r3, r2, #1
 2587 007e E089     		ldrh	r0, [r4, #14]
 2588 0080 D8F80410 		ldr	r1, [r8, #4]
 2589 0084 A8F80830 		strh	r3, [r8, #8]	@ movhi
 2590 0088 2B68     		ldr	r3, [r5]
 2591 008a 03EB8003 		add	r3, r3, r0, lsl #2
 2592 008e 5B68     		ldr	r3, [r3, #4]
 2593 0090 5B7D     		ldrb	r3, [r3, #21]	@ zero_extendqisi2
 2594 0092 8B54     		strb	r3, [r1, r2]
 885:/home/tienluong/workspace/atlantis_fw/AsicFwS2/src/lcc_cmd_base_0000.c **** 		}
 2595              		.loc 1 885 0
 2596 0094 0021     		movs	r1, #0
 2597 0096 2B68     		ldr	r3, [r5]
 2598 0098 0A46     		mov	r2, r1
 2599 009a 3A4D     		ldr	r5, .L214+20
 2600              	.LVL297:
 2601 009c D86B     		ldr	r0, [r3, #60]
 2602 009e 0B46     		mov	r3, r1
 2603 00a0 A847     		blx	r5
 2604              	.LVL298:
 2605              	.L205:
 2606 00a2 09F10109 		add	r9, r9, #1
 2607              	.LVL299:
 2608              	.L200:
 865:/home/tienluong/workspace/atlantis_fw/AsicFwS2/src/lcc_cmd_base_0000.c **** 	{
 2609              		.loc 1 865 0 discriminator 1
 2610 00a6 5FFA89F3 		uxtb	r3, r9
 2611 00aa A27C     		ldrb	r2, [r4, #18]	@ zero_extendqisi2
 2612 00ac 9A42     		cmp	r2, r3
 2613 00ae 5CD9     		bls	.L198
 868:/home/tienluong/workspace/atlantis_fw/AsicFwS2/src/lcc_cmd_base_0000.c **** 		/* Get camera object from camera object list */
 2614              		.loc 1 868 0
 2615 00b0 0123     		movs	r3, #1
 867:/home/tienluong/workspace/atlantis_fw/AsicFwS2/src/lcc_cmd_base_0000.c **** 		m_bitmask &= ~(1 << cam_idx);
 2616              		.loc 1 867 0
 2617 00b2 9AFAAAF0 		rbit	r0, r10
 2618 00b6 B0FA80F0 		clz	r0, r0
 2619              	.LVL300:
 868:/home/tienluong/workspace/atlantis_fw/AsicFwS2/src/lcc_cmd_base_0000.c **** 		/* Get camera object from camera object list */
 2620              		.loc 1 868 0
 2621 00ba 03FA00FB 		lsl	fp, r3, r0
 2622 00be 6FEA0B03 		mvn	r3, fp
 2623 00c2 0AEA030A 		and	r10, r10, r3
 2624              	.LVL301:
 2625 00c6 0093     		str	r3, [sp]
 870:/home/tienluong/workspace/atlantis_fw/AsicFwS2/src/lcc_cmd_base_0000.c **** 		if (NULL == p_cam)	/*Verify object is valid */
 2626              		.loc 1 870 0
 2627 00c8 2F4B     		ldr	r3, .L214+24
 2628 00ca 9847     		blx	r3
 2629              	.LVL302:
 871:/home/tienluong/workspace/atlantis_fw/AsicFwS2/src/lcc_cmd_base_0000.c **** 		{
 2630              		.loc 1 871 0
 2631 00cc 0546     		mov	r5, r0
 2632 00ce 0028     		cmp	r0, #0
 2633 00d0 B8D1     		bne	.L203
 873:/home/tienluong/workspace/atlantis_fw/AsicFwS2/src/lcc_cmd_base_0000.c **** 			return;
 2634              		.loc 1 873 0
 2635 00d2 0423     		movs	r3, #4
 2636 00d4 2382     		strh	r3, [r4, #16]	@ movhi
 874:/home/tienluong/workspace/atlantis_fw/AsicFwS2/src/lcc_cmd_base_0000.c **** 		}
 2637              		.loc 1 874 0
 2638 00d6 48E0     		b	.L198
 2639              	.L204:
 891:/home/tienluong/workspace/atlantis_fw/AsicFwS2/src/lcc_cmd_base_0000.c **** 			p_cmd.event = IMG_EVENT_CAM_FPS;
 2640              		.loc 1 891 0
 2641 00d8 6389     		ldrh	r3, [r4, #10]
 2642 00da ADF80830 		strh	r3, [sp, #8]	@ movhi
 892:/home/tienluong/workspace/atlantis_fw/AsicFwS2/src/lcc_cmd_base_0000.c **** 			xSemaphoreTake(p_cam->image->semaphore, portMAX_DELAY);
 2643              		.loc 1 892 0
 2644 00de 0423     		movs	r3, #4
 893:/home/tienluong/workspace/atlantis_fw/AsicFwS2/src/lcc_cmd_base_0000.c **** 			p_cam->image->settings[in->ucid]->fps[0] = in->data[data_cnt++];
 2645              		.loc 1 893 0
 2646 00e0 3146     		mov	r1, r6
 2647 00e2 4FF0FF32 		mov	r2, #-1
 892:/home/tienluong/workspace/atlantis_fw/AsicFwS2/src/lcc_cmd_base_0000.c **** 			xSemaphoreTake(p_cam->image->semaphore, portMAX_DELAY);
 2648              		.loc 1 892 0
 2649 00e6 0393     		str	r3, [sp, #12]
 893:/home/tienluong/workspace/atlantis_fw/AsicFwS2/src/lcc_cmd_base_0000.c **** 			p_cam->image->settings[in->ucid]->fps[0] = in->data[data_cnt++];
 2650              		.loc 1 893 0
 2651 00e8 0368     		ldr	r3, [r0]
 2652 00ea DFF894C0 		ldr	ip, .L214+16
 2653 00ee D86B     		ldr	r0, [r3, #60]
 2654              	.LVL303:
 2655 00f0 3346     		mov	r3, r6
 2656 00f2 E047     		blx	ip
 2657              	.LVL304:
 894:/home/tienluong/workspace/atlantis_fw/AsicFwS2/src/lcc_cmd_base_0000.c **** 			p_cam->image->settings[in->ucid]->fps[1] = in->data[data_cnt++];
 2658              		.loc 1 894 0
 2659 00f4 2B68     		ldr	r3, [r5]
 2660 00f6 E289     		ldrh	r2, [r4, #14]
 897:/home/tienluong/workspace/atlantis_fw/AsicFwS2/src/lcc_cmd_base_0000.c **** 
 2661              		.loc 1 897 0
 2662 00f8 DFF888C0 		ldr	ip, .L214+20
 894:/home/tienluong/workspace/atlantis_fw/AsicFwS2/src/lcc_cmd_base_0000.c **** 			p_cam->image->settings[in->ucid]->fps[1] = in->data[data_cnt++];
 2663              		.loc 1 894 0
 2664 00fc 03EB8203 		add	r3, r3, r2, lsl #2
 2665 0100 6268     		ldr	r2, [r4, #4]
 2666 0102 D25D     		ldrb	r2, [r2, r7]	@ zero_extendqisi2
 897:/home/tienluong/workspace/atlantis_fw/AsicFwS2/src/lcc_cmd_base_0000.c **** 
 2667              		.loc 1 897 0
 2668 0104 CDF804C0 		str	ip, [sp, #4]
 894:/home/tienluong/workspace/atlantis_fw/AsicFwS2/src/lcc_cmd_base_0000.c **** 			p_cam->image->settings[in->ucid]->fps[1] = in->data[data_cnt++];
 2669              		.loc 1 894 0
 2670 0108 5B68     		ldr	r3, [r3, #4]
 2671              	.LVL305:
 2672 010a 1A75     		strb	r2, [r3, #20]
 895:/home/tienluong/workspace/atlantis_fw/AsicFwS2/src/lcc_cmd_base_0000.c **** 			/* TODO: Release semaphore after read data */
 2673              		.loc 1 895 0
 2674 010c E289     		ldrh	r2, [r4, #14]
 2675 010e 2B68     		ldr	r3, [r5]
 2676 0110 6168     		ldr	r1, [r4, #4]
 2677 0112 03EB8203 		add	r3, r3, r2, lsl #2
 2678 0116 5A68     		ldr	r2, [r3, #4]
 2679              	.LVL306:
 894:/home/tienluong/workspace/atlantis_fw/AsicFwS2/src/lcc_cmd_base_0000.c **** 			p_cam->image->settings[in->ucid]->fps[1] = in->data[data_cnt++];
 2680              		.loc 1 894 0
 2681 0118 7B1C     		adds	r3, r7, #1
 895:/home/tienluong/workspace/atlantis_fw/AsicFwS2/src/lcc_cmd_base_0000.c **** 			/* TODO: Release semaphore after read data */
 2682              		.loc 1 895 0
 2683 011a DBB2     		uxtb	r3, r3
 2684 011c CB5C     		ldrb	r3, [r1, r3]	@ zero_extendqisi2
 2685 011e 5375     		strb	r3, [r2, #21]
 897:/home/tienluong/workspace/atlantis_fw/AsicFwS2/src/lcc_cmd_base_0000.c **** 
 2686              		.loc 1 897 0
 2687 0120 3146     		mov	r1, r6
 2688 0122 2B68     		ldr	r3, [r5]
 2689 0124 3246     		mov	r2, r6
 2690 0126 D86B     		ldr	r0, [r3, #60]
 2691 0128 3346     		mov	r3, r6
 2692 012a E047     		blx	ip
 2693              	.LVL307:
 900:/home/tienluong/workspace/atlantis_fw/AsicFwS2/src/lcc_cmd_base_0000.c **** 			{
 2694              		.loc 1 900 0
 2695 012c 174B     		ldr	r3, .L214+28
 2696 012e DDF804C0 		ldr	ip, [sp, #4]
 2697 0132 1B68     		ldr	r3, [r3]
 2698 0134 9A69     		ldr	r2, [r3, #24]
 2699 0136 1BEA020F 		tst	fp, r2
 2700 013a 0FD0     		beq	.L206
 902:/home/tienluong/workspace/atlantis_fw/AsicFwS2/src/lcc_cmd_base_0000.c **** 					xQueueSend(p_cam->queue, &p_cmd, (TickType_t)10);
 2701              		.loc 1 902 0
 2702 013c E289     		ldrh	r2, [r4, #14]
 2703 013e DB8C     		ldrh	r3, [r3, #38]
 2704 0140 9A42     		cmp	r2, r3
 2705 0142 05D1     		bne	.L207
 903:/home/tienluong/workspace/atlantis_fw/AsicFwS2/src/lcc_cmd_base_0000.c **** 				else
 2706              		.loc 1 903 0
 2707 0144 686B     		ldr	r0, [r5, #52]
 2708 0146 02A9     		add	r1, sp, #8
 2709 0148 0A22     		movs	r2, #10
 2710 014a 3346     		mov	r3, r6
 2711 014c E047     		blx	ip
 2712              	.LVL308:
 2713 014e 05E0     		b	.L206
 2714              	.L207:
 906:/home/tienluong/workspace/atlantis_fw/AsicFwS2/src/lcc_cmd_base_0000.c **** 					/* Reset cam bit_mask to update the command status */
 2715              		.loc 1 906 0
 2716 0150 0123     		movs	r3, #1
 908:/home/tienluong/workspace/atlantis_fw/AsicFwS2/src/lcc_cmd_base_0000.c **** 				}
 2717              		.loc 1 908 0
 2718 0152 009A     		ldr	r2, [sp]
 906:/home/tienluong/workspace/atlantis_fw/AsicFwS2/src/lcc_cmd_base_0000.c **** 					/* Reset cam bit_mask to update the command status */
 2719              		.loc 1 906 0
 2720 0154 2382     		strh	r3, [r4, #16]	@ movhi
 908:/home/tienluong/workspace/atlantis_fw/AsicFwS2/src/lcc_cmd_base_0000.c **** 				}
 2721              		.loc 1 908 0
 2722 0156 2368     		ldr	r3, [r4]
 2723 0158 1340     		ands	r3, r3, r2
 2724 015a 2360     		str	r3, [r4]
 2725              	.L206:
 913:/home/tienluong/workspace/atlantis_fw/AsicFwS2/src/lcc_cmd_base_0000.c **** 				data_cnt = 0;
 2726              		.loc 1 913 0
 2727 015c E37C     		ldrb	r3, [r4, #19]	@ zero_extendqisi2
 2728 015e 9B07     		lsls	r3, r3, #30
 895:/home/tienluong/workspace/atlantis_fw/AsicFwS2/src/lcc_cmd_base_0000.c **** 			/* TODO: Release semaphore after read data */
 2729              		.loc 1 895 0
 2730 0160 56BF     		itet	pl
 2731 0162 0237     		addpl	r7, r7, #2
 2732              	.LVL309:
 2733              		.loc 1 914 0
 2734 0164 0027     		movmi	r7, #0
 895:/home/tienluong/workspace/atlantis_fw/AsicFwS2/src/lcc_cmd_base_0000.c **** 			/* TODO: Release semaphore after read data */
 2735              		.loc 1 895 0
 2736 0166 FFB2     		uxtbpl	r7, r7
 2737 0168 9BE7     		b	.L205
 2738              	.LVL310:
 2739              	.L198:
 915:/home/tienluong/workspace/atlantis_fw/AsicFwS2/src/lcc_cmd_base_0000.c **** 		}
 916:/home/tienluong/workspace/atlantis_fw/AsicFwS2/src/lcc_cmd_base_0000.c **** 	}
 917:/home/tienluong/workspace/atlantis_fw/AsicFwS2/src/lcc_cmd_base_0000.c **** 	/* The command status will be updated in either lcc_cmd task
 918:/home/tienluong/workspace/atlantis_fw/AsicFwS2/src/lcc_cmd_base_0000.c **** 	 * (read command) or task_cam_ctrl (write command) */}
 2740              		.loc 1 918 0
 2741 016a 05B0     		add	sp, sp, #20
 2742              	.LCFI25:
 2743              		.cfi_def_cfa_offset 36
 2744              		@ sp needed
 2745 016c BDE8F08F 		pop	{r4, r5, r6, r7, r8, r9, r10, fp, pc}
 2746              	.LVL311:
 2747              	.L215:
 2748              		.align	2
 2749              	.L214:
 2750 0170 00000000 		.word	.LANCHOR12
 2751 0174 00000000 		.word	pvPortMalloc1
 2752 0178 00000000 		.word	.LC0
 2753 017c 00000000 		.word	slogf
 2754 0180 00000000 		.word	xQueueGenericReceive
 2755 0184 00000000 		.word	xQueueGenericSend
 2756 0188 00000000 		.word	idx_to_object
 2757 018c 00000000 		.word	light_system
 2758              		.cfi_endproc
 2759              	.LFE13:
 2761              		.section	.text.cmd_cam_module_focal_length,"ax",%progbits
 2762              		.align	1
 2763              		.global	cmd_cam_module_focal_length
 2764              		.thumb
 2765              		.thumb_func
 2767              	cmd_cam_module_focal_length:
 2768              	.LFB14:
 919:/home/tienluong/workspace/atlantis_fw/AsicFwS2/src/lcc_cmd_base_0000.c **** 
 920:/home/tienluong/workspace/atlantis_fw/AsicFwS2/src/lcc_cmd_base_0000.c **** /**
 921:/home/tienluong/workspace/atlantis_fw/AsicFwS2/src/lcc_cmd_base_0000.c ****  * cmd_cam_module_focal_length
 922:/home/tienluong/workspace/atlantis_fw/AsicFwS2/src/lcc_cmd_base_0000.c ****  *
 923:/home/tienluong/workspace/atlantis_fw/AsicFwS2/src/lcc_cmd_base_0000.c ****  */
 924:/home/tienluong/workspace/atlantis_fw/AsicFwS2/src/lcc_cmd_base_0000.c **** void cmd_cam_module_focal_length(lcc_cmd_t *in, lcc_cmd_t *out)
 925:/home/tienluong/workspace/atlantis_fw/AsicFwS2/src/lcc_cmd_base_0000.c **** {
 2769              		.loc 1 925 0
 2770              		.cfi_startproc
 2771              		@ args = 0, pretend = 0, frame = 0
 2772              		@ frame_needed = 0, uses_anonymous_args = 0
 2773              	.LVL312:
 2774 0000 2DE9F041 		push	{r4, r5, r6, r7, r8, lr}
 2775              	.LCFI26:
 2776              		.cfi_def_cfa_offset 24
 2777              		.cfi_offset 4, -24
 2778              		.cfi_offset 5, -20
 2779              		.cfi_offset 6, -16
 2780              		.cfi_offset 7, -12
 2781              		.cfi_offset 8, -8
 2782              		.cfi_offset 14, -4
 926:/home/tienluong/workspace/atlantis_fw/AsicFwS2/src/lcc_cmd_base_0000.c **** 	cam_typedef_t *p_cam;
 927:/home/tienluong/workspace/atlantis_fw/AsicFwS2/src/lcc_cmd_base_0000.c **** 	lcc_cmd_info_t cmd = (lcc_cmd_info_t)(LCC_CMD_CAM_MODULE_FOCAL_LENGTH);
 928:/home/tienluong/workspace/atlantis_fw/AsicFwS2/src/lcc_cmd_base_0000.c **** 	uint32_t m_bitmask = in->m_bitmask;
 929:/home/tienluong/workspace/atlantis_fw/AsicFwS2/src/lcc_cmd_base_0000.c **** 	uint8_t i, cam_idx;
 930:/home/tienluong/workspace/atlantis_fw/AsicFwS2/src/lcc_cmd_base_0000.c **** 
 931:/home/tienluong/workspace/atlantis_fw/AsicFwS2/src/lcc_cmd_base_0000.c **** 	out->data = pvPortMalloc(in->m_number*cmd.size);
 2783              		.loc 1 931 0
 2784 0004 40F2A332 		movw	r2, #931
 925:/home/tienluong/workspace/atlantis_fw/AsicFwS2/src/lcc_cmd_base_0000.c **** 	cam_typedef_t *p_cam;
 2785              		.loc 1 925 0
 2786 0008 0C46     		mov	r4, r1
 928:/home/tienluong/workspace/atlantis_fw/AsicFwS2/src/lcc_cmd_base_0000.c **** 	uint8_t i, cam_idx;
 2787              		.loc 1 928 0
 2788 000a D0F80080 		ldr	r8, [r0]
 2789              	.LVL313:
 925:/home/tienluong/workspace/atlantis_fw/AsicFwS2/src/lcc_cmd_base_0000.c **** 	cam_typedef_t *p_cam;
 2790              		.loc 1 925 0
 2791 000e 0546     		mov	r5, r0
 2792              		.loc 1 931 0
 2793 0010 2549     		ldr	r1, .L223
 2794              	.LVL314:
 2795 0012 807C     		ldrb	r0, [r0, #18]	@ zero_extendqisi2
 2796              	.LVL315:
 2797 0014 254B     		ldr	r3, .L223+4
 2798 0016 4000     		lsls	r0, r0, #1
 2799 0018 9847     		blx	r3
 2800              	.LVL316:
 2801 001a 0646     		mov	r6, r0
 2802 001c 6060     		str	r0, [r4, #4]
 932:/home/tienluong/workspace/atlantis_fw/AsicFwS2/src/lcc_cmd_base_0000.c **** 	if (NULL == out->data)
 2803              		.loc 1 932 0
 2804 001e 08B1     		cbz	r0, .L217
 2805              		.loc 1 932 0 is_stmt 0 discriminator 1
 2806 0020 0027     		movs	r7, #0
 2807 0022 28E0     		b	.L218
 2808              	.L217:
 933:/home/tienluong/workspace/atlantis_fw/AsicFwS2/src/lcc_cmd_base_0000.c **** 	{
 934:/home/tienluong/workspace/atlantis_fw/AsicFwS2/src/lcc_cmd_base_0000.c **** 		SLOGF(SLOG_ERROR, "%s: Lack of memory", __FUNCTION__);
 2809              		.loc 1 934 0 is_stmt 1
 2810 0024 2120     		movs	r0, #33
 2811 0026 0221     		movs	r1, #2
 2812 0028 214A     		ldr	r2, .L223+8
 2813 002a 1F4B     		ldr	r3, .L223
 2814 002c 214C     		ldr	r4, .L223+12
 2815              	.LVL317:
 2816 002e A047     		blx	r4
 2817              	.LVL318:
 935:/home/tienluong/workspace/atlantis_fw/AsicFwS2/src/lcc_cmd_base_0000.c **** 		in->status = LCC_CMD_UNSUCCESS;
 2818              		.loc 1 935 0
 2819 0030 2E82     		strh	r6, [r5, #16]	@ movhi
 936:/home/tienluong/workspace/atlantis_fw/AsicFwS2/src/lcc_cmd_base_0000.c **** 		return;
 2820              		.loc 1 936 0
 2821 0032 BDE8F081 		pop	{r4, r5, r6, r7, r8, pc}
 2822              	.LVL319:
 2823              	.L220:
 937:/home/tienluong/workspace/atlantis_fw/AsicFwS2/src/lcc_cmd_base_0000.c **** 	}
 938:/home/tienluong/workspace/atlantis_fw/AsicFwS2/src/lcc_cmd_base_0000.c **** 
 939:/home/tienluong/workspace/atlantis_fw/AsicFwS2/src/lcc_cmd_base_0000.c **** 	/* Scan camera bitmask  */
 940:/home/tienluong/workspace/atlantis_fw/AsicFwS2/src/lcc_cmd_base_0000.c **** 	for (i = 0; i < in->m_number; i++)
 941:/home/tienluong/workspace/atlantis_fw/AsicFwS2/src/lcc_cmd_base_0000.c **** 	{
 942:/home/tienluong/workspace/atlantis_fw/AsicFwS2/src/lcc_cmd_base_0000.c **** 		cam_idx = __builtin_ctz(m_bitmask);
 943:/home/tienluong/workspace/atlantis_fw/AsicFwS2/src/lcc_cmd_base_0000.c **** 		m_bitmask &= ~(1 << cam_idx);
 944:/home/tienluong/workspace/atlantis_fw/AsicFwS2/src/lcc_cmd_base_0000.c **** 		/* Get camera object from camera object list */
 945:/home/tienluong/workspace/atlantis_fw/AsicFwS2/src/lcc_cmd_base_0000.c **** 		p_cam = idx_to_object(cam_idx);
 946:/home/tienluong/workspace/atlantis_fw/AsicFwS2/src/lcc_cmd_base_0000.c **** 		if (NULL == p_cam)	/*Verify object is valid */
 947:/home/tienluong/workspace/atlantis_fw/AsicFwS2/src/lcc_cmd_base_0000.c **** 		{
 948:/home/tienluong/workspace/atlantis_fw/AsicFwS2/src/lcc_cmd_base_0000.c **** 			in->status = LCC_CMD_INVALID_ARG;
 949:/home/tienluong/workspace/atlantis_fw/AsicFwS2/src/lcc_cmd_base_0000.c **** 			return;
 950:/home/tienluong/workspace/atlantis_fw/AsicFwS2/src/lcc_cmd_base_0000.c **** 		}
 951:/home/tienluong/workspace/atlantis_fw/AsicFwS2/src/lcc_cmd_base_0000.c **** 
 952:/home/tienluong/workspace/atlantis_fw/AsicFwS2/src/lcc_cmd_base_0000.c **** 		/* TODO: Take semaphore to access settings memory */
 953:/home/tienluong/workspace/atlantis_fw/AsicFwS2/src/lcc_cmd_base_0000.c **** 		xSemaphoreTake(p_cam->optical->semaphore, portMAX_DELAY);
 2824              		.loc 1 953 0 discriminator 2
 2825 0036 4368     		ldr	r3, [r0, #4]
 2826 0038 0021     		movs	r1, #0
 2827 003a 4FF0FF32 		mov	r2, #-1
 2828 003e DFF880C0 		ldr	ip, .L223+24
 2829 0042 D868     		ldr	r0, [r3, #12]
 2830              	.LVL320:
 2831 0044 0B46     		mov	r3, r1
 2832 0046 E047     		blx	ip
 2833              	.LVL321:
 954:/home/tienluong/workspace/atlantis_fw/AsicFwS2/src/lcc_cmd_base_0000.c **** 		out->data[out->len++] = p_cam->optical->settings->focal_length[0];
 2834              		.loc 1 954 0 discriminator 2
 2835 0048 2389     		ldrh	r3, [r4, #8]
 2836 004a 591C     		adds	r1, r3, #1
 2837 004c 6268     		ldr	r2, [r4, #4]
 2838 004e 2181     		strh	r1, [r4, #8]	@ movhi
 2839 0050 7168     		ldr	r1, [r6, #4]
 2840 0052 8968     		ldr	r1, [r1, #8]
 2841 0054 0978     		ldrb	r1, [r1]	@ zero_extendqisi2
 2842 0056 D154     		strb	r1, [r2, r3]
 955:/home/tienluong/workspace/atlantis_fw/AsicFwS2/src/lcc_cmd_base_0000.c **** 		out->data[out->len++] = p_cam->optical->settings->focal_length[1];
 2843              		.loc 1 955 0 discriminator 2
 2844 0058 2389     		ldrh	r3, [r4, #8]
 2845 005a 591C     		adds	r1, r3, #1
 2846 005c 6268     		ldr	r2, [r4, #4]
 2847 005e 2181     		strh	r1, [r4, #8]	@ movhi
 2848 0060 7168     		ldr	r1, [r6, #4]
 2849 0062 8968     		ldr	r1, [r1, #8]
 2850 0064 4978     		ldrb	r1, [r1, #1]	@ zero_extendqisi2
 2851 0066 D154     		strb	r1, [r2, r3]
 956:/home/tienluong/workspace/atlantis_fw/AsicFwS2/src/lcc_cmd_base_0000.c **** 
 957:/home/tienluong/workspace/atlantis_fw/AsicFwS2/src/lcc_cmd_base_0000.c **** 		/* TODO: Release semaphore after read data */
 958:/home/tienluong/workspace/atlantis_fw/AsicFwS2/src/lcc_cmd_base_0000.c **** 		xSemaphoreGive(p_cam->optical->semaphore);
 2852              		.loc 1 958 0 discriminator 2
 2853 0068 0021     		movs	r1, #0
 2854 006a 7368     		ldr	r3, [r6, #4]
 2855 006c 0A46     		mov	r2, r1
 2856 006e 124E     		ldr	r6, .L223+16
 2857              	.LVL322:
 2858 0070 D868     		ldr	r0, [r3, #12]
 2859 0072 0B46     		mov	r3, r1
 2860 0074 B047     		blx	r6
 2861              	.LVL323:
 2862              	.L218:
 940:/home/tienluong/workspace/atlantis_fw/AsicFwS2/src/lcc_cmd_base_0000.c **** 	{
 2863              		.loc 1 940 0 discriminator 1
 2864 0076 FBB2     		uxtb	r3, r7
 2865 0078 AA7C     		ldrb	r2, [r5, #18]	@ zero_extendqisi2
 2866 007a 9A42     		cmp	r2, r3
 2867 007c 11D9     		bls	.L222
 943:/home/tienluong/workspace/atlantis_fw/AsicFwS2/src/lcc_cmd_base_0000.c **** 		/* Get camera object from camera object list */
 2868              		.loc 1 943 0
 2869 007e 0123     		movs	r3, #1
 942:/home/tienluong/workspace/atlantis_fw/AsicFwS2/src/lcc_cmd_base_0000.c **** 		m_bitmask &= ~(1 << cam_idx);
 2870              		.loc 1 942 0
 2871 0080 98FAA8F0 		rbit	r0, r8
 2872 0084 B0FA80F0 		clz	r0, r0
 2873              	.LVL324:
 2874 0088 0137     		adds	r7, r7, #1
 2875              	.LVL325:
 943:/home/tienluong/workspace/atlantis_fw/AsicFwS2/src/lcc_cmd_base_0000.c **** 		/* Get camera object from camera object list */
 2876              		.loc 1 943 0
 2877 008a 8340     		lsls	r3, r3, r0
 2878 008c 28EA0308 		bic	r8, r8, r3
 2879              	.LVL326:
 945:/home/tienluong/workspace/atlantis_fw/AsicFwS2/src/lcc_cmd_base_0000.c **** 		if (NULL == p_cam)	/*Verify object is valid */
 2880              		.loc 1 945 0
 2881 0090 0A4B     		ldr	r3, .L223+20
 2882 0092 9847     		blx	r3
 2883              	.LVL327:
 946:/home/tienluong/workspace/atlantis_fw/AsicFwS2/src/lcc_cmd_base_0000.c **** 		{
 2884              		.loc 1 946 0
 2885 0094 0646     		mov	r6, r0
 2886 0096 0028     		cmp	r0, #0
 2887 0098 CDD1     		bne	.L220
 948:/home/tienluong/workspace/atlantis_fw/AsicFwS2/src/lcc_cmd_base_0000.c **** 			return;
 2888              		.loc 1 948 0
 2889 009a 0423     		movs	r3, #4
 2890 009c 2B82     		strh	r3, [r5, #16]	@ movhi
 949:/home/tienluong/workspace/atlantis_fw/AsicFwS2/src/lcc_cmd_base_0000.c **** 		}
 2891              		.loc 1 949 0
 2892 009e BDE8F081 		pop	{r4, r5, r6, r7, r8, pc}
 2893              	.LVL328:
 2894              	.L222:
 2895 00a2 BDE8F081 		pop	{r4, r5, r6, r7, r8, pc}
 2896              	.LVL329:
 2897              	.L224:
 2898 00a6 00BF     		.align	2
 2899              	.L223:
 2900 00a8 00000000 		.word	.LANCHOR13
 2901 00ac 00000000 		.word	pvPortMalloc1
 2902 00b0 00000000 		.word	.LC0
 2903 00b4 00000000 		.word	slogf
 2904 00b8 00000000 		.word	xQueueGenericSend
 2905 00bc 00000000 		.word	idx_to_object
 2906 00c0 00000000 		.word	xQueueGenericReceive
 2907              		.cfi_endproc
 2908              	.LFE14:
 2910              		.section	.text.cmd_cam_module_focus_distance,"ax",%progbits
 2911              		.align	1
 2912              		.global	cmd_cam_module_focus_distance
 2913              		.thumb
 2914              		.thumb_func
 2916              	cmd_cam_module_focus_distance:
 2917              	.LFB15:
 959:/home/tienluong/workspace/atlantis_fw/AsicFwS2/src/lcc_cmd_base_0000.c **** 	}
 960:/home/tienluong/workspace/atlantis_fw/AsicFwS2/src/lcc_cmd_base_0000.c **** }
 961:/home/tienluong/workspace/atlantis_fw/AsicFwS2/src/lcc_cmd_base_0000.c **** /**
 962:/home/tienluong/workspace/atlantis_fw/AsicFwS2/src/lcc_cmd_base_0000.c ****  * cmd_cam_module_focus_distance
 963:/home/tienluong/workspace/atlantis_fw/AsicFwS2/src/lcc_cmd_base_0000.c ****  *
 964:/home/tienluong/workspace/atlantis_fw/AsicFwS2/src/lcc_cmd_base_0000.c ****  */
 965:/home/tienluong/workspace/atlantis_fw/AsicFwS2/src/lcc_cmd_base_0000.c **** void cmd_cam_module_focus_distance(lcc_cmd_t *in, lcc_cmd_t *out)
 966:/home/tienluong/workspace/atlantis_fw/AsicFwS2/src/lcc_cmd_base_0000.c **** {
 2918              		.loc 1 966 0
 2919              		.cfi_startproc
 2920              		@ args = 0, pretend = 0, frame = 16
 2921              		@ frame_needed = 0, uses_anonymous_args = 0
 2922              	.LVL330:
 2923 0000 2DE9F04F 		push	{r4, r5, r6, r7, r8, r9, r10, fp, lr}
 2924              	.LCFI27:
 2925              		.cfi_def_cfa_offset 36
 2926              		.cfi_offset 4, -36
 2927              		.cfi_offset 5, -32
 2928              		.cfi_offset 6, -28
 2929              		.cfi_offset 7, -24
 2930              		.cfi_offset 8, -20
 2931              		.cfi_offset 9, -16
 2932              		.cfi_offset 10, -12
 2933              		.cfi_offset 11, -8
 2934              		.cfi_offset 14, -4
 2935 0004 85B0     		sub	sp, sp, #20
 2936              	.LCFI28:
 2937              		.cfi_def_cfa_offset 56
 967:/home/tienluong/workspace/atlantis_fw/AsicFwS2/src/lcc_cmd_base_0000.c **** 	lcc_cmd_tid_t p_cmd;
 968:/home/tienluong/workspace/atlantis_fw/AsicFwS2/src/lcc_cmd_base_0000.c **** 	cam_typedef_t *p_cam;
 969:/home/tienluong/workspace/atlantis_fw/AsicFwS2/src/lcc_cmd_base_0000.c **** 	lcc_cmd_info_t cmd = (lcc_cmd_info_t)(LCC_CMD_CAM_MODULE_FOCUS_DISTANCE);
 970:/home/tienluong/workspace/atlantis_fw/AsicFwS2/src/lcc_cmd_base_0000.c **** 	uint32_t m_bitmask = in->m_bitmask;
 2938              		.loc 1 970 0
 2939 0006 0368     		ldr	r3, [r0]
 966:/home/tienluong/workspace/atlantis_fw/AsicFwS2/src/lcc_cmd_base_0000.c **** 	lcc_cmd_tid_t p_cmd;
 2940              		.loc 1 966 0
 2941 0008 0646     		mov	r6, r0
 2942              		.loc 1 970 0
 2943 000a 0093     		str	r3, [sp]
 2944              	.LVL331:
 971:/home/tienluong/workspace/atlantis_fw/AsicFwS2/src/lcc_cmd_base_0000.c **** 	uint8_t i, cam_idx, data_cnt = 0;
 972:/home/tienluong/workspace/atlantis_fw/AsicFwS2/src/lcc_cmd_base_0000.c **** 
 973:/home/tienluong/workspace/atlantis_fw/AsicFwS2/src/lcc_cmd_base_0000.c **** 	if (CMD_READ == in->action)
 2945              		.loc 1 973 0
 2946 000c C37C     		ldrb	r3, [r0, #19]	@ zero_extendqisi2
 2947              	.LVL332:
 2948 000e DB07     		lsls	r3, r3, #31
 966:/home/tienluong/workspace/atlantis_fw/AsicFwS2/src/lcc_cmd_base_0000.c **** 	lcc_cmd_tid_t p_cmd;
 2949              		.loc 1 966 0
 2950 0010 8946     		mov	r9, r1
 2951              		.loc 1 973 0
 2952 0012 03D4     		bmi	.L226
 2953              	.LVL333:
 2954              	.L228:
 966:/home/tienluong/workspace/atlantis_fw/AsicFwS2/src/lcc_cmd_base_0000.c **** 	lcc_cmd_tid_t p_cmd;
 2955              		.loc 1 966 0
 2956 0014 4FF0000B 		mov	fp, #0
 2957 0018 DA46     		mov	r10, fp
 2958 001a 44E0     		b	.L227
 2959              	.LVL334:
 2960              	.L226:
 974:/home/tienluong/workspace/atlantis_fw/AsicFwS2/src/lcc_cmd_base_0000.c **** 	{
 975:/home/tienluong/workspace/atlantis_fw/AsicFwS2/src/lcc_cmd_base_0000.c **** 		out->data = pvPortMalloc(in->m_number * cmd.size);
 2961              		.loc 1 975 0
 2962 001c 807C     		ldrb	r0, [r0, #18]	@ zero_extendqisi2
 2963              	.LVL335:
 2964 001e 7349     		ldr	r1, .L246
 2965              	.LVL336:
 2966 0020 8000     		lsls	r0, r0, #2
 2967 0022 40F2CF32 		movw	r2, #975
 2968 0026 724B     		ldr	r3, .L246+4
 2969 0028 9847     		blx	r3
 2970              	.LVL337:
 2971 002a 0446     		mov	r4, r0
 2972 002c C9F80400 		str	r0, [r9, #4]
 976:/home/tienluong/workspace/atlantis_fw/AsicFwS2/src/lcc_cmd_base_0000.c **** 		if (NULL == out->data)
 2973              		.loc 1 976 0
 2974 0030 0028     		cmp	r0, #0
 2975 0032 EFD1     		bne	.L228
 977:/home/tienluong/workspace/atlantis_fw/AsicFwS2/src/lcc_cmd_base_0000.c **** 		{
 978:/home/tienluong/workspace/atlantis_fw/AsicFwS2/src/lcc_cmd_base_0000.c **** 			SLOGF(SLOG_ERROR, "%s: Lack of memory", __FUNCTION__);
 2976              		.loc 1 978 0
 2977 0034 2120     		movs	r0, #33
 2978 0036 0221     		movs	r1, #2
 2979 0038 6E4A     		ldr	r2, .L246+8
 2980 003a 6C4B     		ldr	r3, .L246
 2981 003c 0AE0     		b	.L245
 2982              	.LVL338:
 2983              	.L235:
 2984              	.LBB7:
 979:/home/tienluong/workspace/atlantis_fw/AsicFwS2/src/lcc_cmd_base_0000.c **** 			in->status = LCC_CMD_UNSUCCESS;
 980:/home/tienluong/workspace/atlantis_fw/AsicFwS2/src/lcc_cmd_base_0000.c **** 			return;
 981:/home/tienluong/workspace/atlantis_fw/AsicFwS2/src/lcc_cmd_base_0000.c **** 		}
 982:/home/tienluong/workspace/atlantis_fw/AsicFwS2/src/lcc_cmd_base_0000.c **** 	}
 983:/home/tienluong/workspace/atlantis_fw/AsicFwS2/src/lcc_cmd_base_0000.c **** 
 984:/home/tienluong/workspace/atlantis_fw/AsicFwS2/src/lcc_cmd_base_0000.c **** 	/* Scan camera bitmask */
 985:/home/tienluong/workspace/atlantis_fw/AsicFwS2/src/lcc_cmd_base_0000.c **** 	for (i = 0; i < in->m_number; i++)
 986:/home/tienluong/workspace/atlantis_fw/AsicFwS2/src/lcc_cmd_base_0000.c **** 	{
 987:/home/tienluong/workspace/atlantis_fw/AsicFwS2/src/lcc_cmd_base_0000.c **** 		cam_idx = __builtin_ctz(m_bitmask);
 988:/home/tienluong/workspace/atlantis_fw/AsicFwS2/src/lcc_cmd_base_0000.c **** 		m_bitmask &= ~(1 << cam_idx);
 989:/home/tienluong/workspace/atlantis_fw/AsicFwS2/src/lcc_cmd_base_0000.c **** 		/* Get camera object from camera object list */
 990:/home/tienluong/workspace/atlantis_fw/AsicFwS2/src/lcc_cmd_base_0000.c **** 		p_cam = idx_to_object(cam_idx);
 991:/home/tienluong/workspace/atlantis_fw/AsicFwS2/src/lcc_cmd_base_0000.c **** 		if (NULL == p_cam)	/*Verify object is valid */
 992:/home/tienluong/workspace/atlantis_fw/AsicFwS2/src/lcc_cmd_base_0000.c **** 		{
 993:/home/tienluong/workspace/atlantis_fw/AsicFwS2/src/lcc_cmd_base_0000.c **** 			in->status = LCC_CMD_INVALID_ARG;
 994:/home/tienluong/workspace/atlantis_fw/AsicFwS2/src/lcc_cmd_base_0000.c **** 			return;
 995:/home/tienluong/workspace/atlantis_fw/AsicFwS2/src/lcc_cmd_base_0000.c **** 		}
 996:/home/tienluong/workspace/atlantis_fw/AsicFwS2/src/lcc_cmd_base_0000.c **** 
