   1              		.syntax unified
   2              		.cpu cortex-r4
   3              		.fpu softvfp
   4              		.eabi_attribute 20, 1
   5              		.eabi_attribute 21, 1
   6              		.eabi_attribute 23, 3
   7              		.eabi_attribute 24, 1
   8              		.eabi_attribute 25, 1
   9              		.eabi_attribute 26, 1
  10              		.eabi_attribute 30, 4
  11              		.eabi_attribute 34, 1
  12              		.eabi_attribute 18, 4
  13              		.thumb
  14              		.file	"lcc_cmd_base_0000.c"
  15              		.text
  16              	.Ltext0:
  17              		.cfi_sections	.debug_frame
  18              		.section	.text.cmd_cam_module_open,"ax",%progbits
  19              		.align	1
  20              		.global	cmd_cam_module_open
  21              		.thumb
  22              		.thumb_func
  24              	cmd_cam_module_open:
  25              	.LFB1:
  26              		.file 1 "/home/tienluong/workspace/atlantis_fw/AsicFwS2/src/lcc_cmd_base_0000.c"
   1:/home/tienluong/workspace/atlantis_fw/AsicFwS2/src/lcc_cmd_base_0000.c **** /*******************************************************************************
   2:/home/tienluong/workspace/atlantis_fw/AsicFwS2/src/lcc_cmd_base_0000.c ****  * Copyright (c) 2016, The LightCo
   3:/home/tienluong/workspace/atlantis_fw/AsicFwS2/src/lcc_cmd_base_0000.c ****  * All rights reserved.
   4:/home/tienluong/workspace/atlantis_fw/AsicFwS2/src/lcc_cmd_base_0000.c ****  * Redistribution and use in source and binary forms, with or without
   5:/home/tienluong/workspace/atlantis_fw/AsicFwS2/src/lcc_cmd_base_0000.c ****  * modification, are strictly prohibited without prior permission of
   6:/home/tienluong/workspace/atlantis_fw/AsicFwS2/src/lcc_cmd_base_0000.c ****  * The LightCo.
   7:/home/tienluong/workspace/atlantis_fw/AsicFwS2/src/lcc_cmd_base_0000.c ****  *
   8:/home/tienluong/workspace/atlantis_fw/AsicFwS2/src/lcc_cmd_base_0000.c ****  * @file    lcc_cmd_base_0000.c
   9:/home/tienluong/workspace/atlantis_fw/AsicFwS2/src/lcc_cmd_base_0000.c ****  * @author  The LightCo
  10:/home/tienluong/workspace/atlantis_fw/AsicFwS2/src/lcc_cmd_base_0000.c ****  * @version V1.0.0
  11:/home/tienluong/workspace/atlantis_fw/AsicFwS2/src/lcc_cmd_base_0000.c ****  * @date    Mar-10-2016
  12:/home/tienluong/workspace/atlantis_fw/AsicFwS2/src/lcc_cmd_base_0000.c ****  * @brief   This file contains expand of lcc_cmd_base_0000
  13:/home/tienluong/workspace/atlantis_fw/AsicFwS2/src/lcc_cmd_base_0000.c ****  *
  14:/home/tienluong/workspace/atlantis_fw/AsicFwS2/src/lcc_cmd_base_0000.c ****  ******************************************************************************/
  15:/home/tienluong/workspace/atlantis_fw/AsicFwS2/src/lcc_cmd_base_0000.c **** /* Includes ------------------------------------------------------------------*/
  16:/home/tienluong/workspace/atlantis_fw/AsicFwS2/src/lcc_cmd_base_0000.c **** #include "os.h"
  17:/home/tienluong/workspace/atlantis_fw/AsicFwS2/src/lcc_cmd_base_0000.c **** #include "assert.h"
  18:/home/tienluong/workspace/atlantis_fw/AsicFwS2/src/lcc_cmd_base_0000.c **** #include "log.h"
  19:/home/tienluong/workspace/atlantis_fw/AsicFwS2/src/lcc_cmd_base_0000.c **** #include "i2cm.h"
  20:/home/tienluong/workspace/atlantis_fw/AsicFwS2/src/lcc_cmd_base_0000.c **** #include "lcc_cmd.h"
  21:/home/tienluong/workspace/atlantis_fw/AsicFwS2/src/lcc_cmd_base_0000.c **** #include "lcc_cmd_log.h"
  22:/home/tienluong/workspace/atlantis_fw/AsicFwS2/src/lcc_cmd_base_0000.c **** #include "lcc_system.h"
  23:/home/tienluong/workspace/atlantis_fw/AsicFwS2/src/lcc_cmd_base_0000.c **** #include "light_system.h"
  24:/home/tienluong/workspace/atlantis_fw/AsicFwS2/src/lcc_cmd_base_0000.c **** #include "task_cam_ctrl.h"
  25:/home/tienluong/workspace/atlantis_fw/AsicFwS2/src/lcc_cmd_base_0000.c **** #include "task_ccb_ctrl.h"
  26:/home/tienluong/workspace/atlantis_fw/AsicFwS2/src/lcc_cmd_base_0000.c **** #include "optical.h"
  27:/home/tienluong/workspace/atlantis_fw/AsicFwS2/src/lcc_cmd_base_0000.c **** #include "usecase.h"
  28:/home/tienluong/workspace/atlantis_fw/AsicFwS2/src/lcc_cmd_base_0000.c **** #include "actuator.h"
  29:/home/tienluong/workspace/atlantis_fw/AsicFwS2/src/lcc_cmd_base_0000.c **** 
  30:/home/tienluong/workspace/atlantis_fw/AsicFwS2/src/lcc_cmd_base_0000.c **** /* Private defines------------------------------------------------------------*/
  31:/home/tienluong/workspace/atlantis_fw/AsicFwS2/src/lcc_cmd_base_0000.c **** #define SLOGF_ID				SLOG_ID_LCC_CMD_BASE_0000
  32:/home/tienluong/workspace/atlantis_fw/AsicFwS2/src/lcc_cmd_base_0000.c **** 
  33:/home/tienluong/workspace/atlantis_fw/AsicFwS2/src/lcc_cmd_base_0000.c **** #define CAM_COMMAND_STATUS_LEN	4
  34:/home/tienluong/workspace/atlantis_fw/AsicFwS2/src/lcc_cmd_base_0000.c **** 
  35:/home/tienluong/workspace/atlantis_fw/AsicFwS2/src/lcc_cmd_base_0000.c **** #define I2C_RW_MASK				0x01
  36:/home/tienluong/workspace/atlantis_fw/AsicFwS2/src/lcc_cmd_base_0000.c **** #define I2C_RW_READ				0x01
  37:/home/tienluong/workspace/atlantis_fw/AsicFwS2/src/lcc_cmd_base_0000.c **** #define I2C_RW_WRITE			0x00
  38:/home/tienluong/workspace/atlantis_fw/AsicFwS2/src/lcc_cmd_base_0000.c **** #define TIMEOUT					30
  39:/home/tienluong/workspace/atlantis_fw/AsicFwS2/src/lcc_cmd_base_0000.c **** 
  40:/home/tienluong/workspace/atlantis_fw/AsicFwS2/src/lcc_cmd_base_0000.c **** extern float i2c_write_delay_sec_asic1;
  41:/home/tienluong/workspace/atlantis_fw/AsicFwS2/src/lcc_cmd_base_0000.c **** extern float i2c_write_delay_sec_asic23;
  42:/home/tienluong/workspace/atlantis_fw/AsicFwS2/src/lcc_cmd_base_0000.c **** /* Exported functions --------------------------------------------------------*/
  43:/home/tienluong/workspace/atlantis_fw/AsicFwS2/src/lcc_cmd_base_0000.c **** /**
  44:/home/tienluong/workspace/atlantis_fw/AsicFwS2/src/lcc_cmd_base_0000.c ****  * cmd_cam_module_open
  45:/home/tienluong/workspace/atlantis_fw/AsicFwS2/src/lcc_cmd_base_0000.c ****  * Handle camera open command
  46:/home/tienluong/workspace/atlantis_fw/AsicFwS2/src/lcc_cmd_base_0000.c ****  */
  47:/home/tienluong/workspace/atlantis_fw/AsicFwS2/src/lcc_cmd_base_0000.c **** void cmd_cam_module_open(lcc_cmd_t *in, lcc_cmd_t *out)
  48:/home/tienluong/workspace/atlantis_fw/AsicFwS2/src/lcc_cmd_base_0000.c **** {
  27              		.loc 1 48 0
  28              		.cfi_startproc
  29              		@ args = 0, pretend = 0, frame = 16
  30              		@ frame_needed = 0, uses_anonymous_args = 0
  31              	.LVL0:
  32 0000 2DE9F04F 		push	{r4, r5, r6, r7, r8, r9, r10, fp, lr}
  33              	.LCFI0:
  34              		.cfi_def_cfa_offset 36
  35              		.cfi_offset 4, -36
  36              		.cfi_offset 5, -32
  37              		.cfi_offset 6, -28
  38              		.cfi_offset 7, -24
  39              		.cfi_offset 8, -20
  40              		.cfi_offset 9, -16
  41              		.cfi_offset 10, -12
  42              		.cfi_offset 11, -8
  43              		.cfi_offset 14, -4
  49:/home/tienluong/workspace/atlantis_fw/AsicFwS2/src/lcc_cmd_base_0000.c **** 	lcc_cmd_tid_t p_cmd;
  50:/home/tienluong/workspace/atlantis_fw/AsicFwS2/src/lcc_cmd_base_0000.c **** 	cam_typedef_t *p_cam;
  51:/home/tienluong/workspace/atlantis_fw/AsicFwS2/src/lcc_cmd_base_0000.c **** 	lcc_cmd_info_t cmd = (lcc_cmd_info_t)(LCC_CMD_CAM_MODULE_OPEN);
  52:/home/tienluong/workspace/atlantis_fw/AsicFwS2/src/lcc_cmd_base_0000.c **** 	uint32_t m_bitmask = in->m_bitmask;
  53:/home/tienluong/workspace/atlantis_fw/AsicFwS2/src/lcc_cmd_base_0000.c **** 	uint8_t i, cam_idx, data_cnt = 0;
  54:/home/tienluong/workspace/atlantis_fw/AsicFwS2/src/lcc_cmd_base_0000.c **** 	if (CMD_READ == in->action)
  44              		.loc 1 54 0
  45 0004 C37C     		ldrb	r3, [r0, #19]	@ zero_extendqisi2
  46 0006 DB07     		lsls	r3, r3, #31
  48:/home/tienluong/workspace/atlantis_fw/AsicFwS2/src/lcc_cmd_base_0000.c **** 	lcc_cmd_tid_t p_cmd;
  47              		.loc 1 48 0
  48 0008 85B0     		sub	sp, sp, #20
  49              	.LCFI1:
  50              		.cfi_def_cfa_offset 56
  48:/home/tienluong/workspace/atlantis_fw/AsicFwS2/src/lcc_cmd_base_0000.c **** 	lcc_cmd_tid_t p_cmd;
  51              		.loc 1 48 0
  52 000a 0546     		mov	r5, r0
  53 000c 8946     		mov	r9, r1
  52:/home/tienluong/workspace/atlantis_fw/AsicFwS2/src/lcc_cmd_base_0000.c **** 	uint8_t i, cam_idx, data_cnt = 0;
  54              		.loc 1 52 0
  55 000e D0F800A0 		ldr	r10, [r0]
  56              	.LVL1:
  57              		.loc 1 54 0
  58 0012 02D4     		bmi	.L2
  59              	.LVL2:
  60              	.L4:
  48:/home/tienluong/workspace/atlantis_fw/AsicFwS2/src/lcc_cmd_base_0000.c **** 	lcc_cmd_tid_t p_cmd;
  61              		.loc 1 48 0
  62 0014 0027     		movs	r7, #0
  63 0016 B846     		mov	r8, r7
  64 0018 2DE0     		b	.L3
  65              	.LVL3:
  66              	.L2:
  55:/home/tienluong/workspace/atlantis_fw/AsicFwS2/src/lcc_cmd_base_0000.c **** 	{
  56:/home/tienluong/workspace/atlantis_fw/AsicFwS2/src/lcc_cmd_base_0000.c **** 		out->data = pvPortMalloc(in->m_number*cmd.size);
  67              		.loc 1 56 0
  68 001a 807C     		ldrb	r0, [r0, #18]	@ zero_extendqisi2
  69              	.LVL4:
  70 001c 4449     		ldr	r1, .L18
  71              	.LVL5:
  72 001e 3822     		movs	r2, #56
  73 0020 444B     		ldr	r3, .L18+4
  74 0022 9847     		blx	r3
  75              	.LVL6:
  76 0024 0446     		mov	r4, r0
  77 0026 C9F80400 		str	r0, [r9, #4]
  57:/home/tienluong/workspace/atlantis_fw/AsicFwS2/src/lcc_cmd_base_0000.c **** 		if (NULL == out->data)
  78              		.loc 1 57 0
  79 002a 0028     		cmp	r0, #0
  80 002c F2D1     		bne	.L4
  58:/home/tienluong/workspace/atlantis_fw/AsicFwS2/src/lcc_cmd_base_0000.c **** 		{
  59:/home/tienluong/workspace/atlantis_fw/AsicFwS2/src/lcc_cmd_base_0000.c **** 			SLOGF(SLOG_ERROR, "%s: Lack of memory", __FUNCTION__);
  81              		.loc 1 59 0
  82 002e 2120     		movs	r0, #33
  83 0030 0221     		movs	r1, #2
  84 0032 414A     		ldr	r2, .L18+8
  85 0034 3E4B     		ldr	r3, .L18
  86 0036 414E     		ldr	r6, .L18+12
  87 0038 B047     		blx	r6
  88              	.LVL7:
  60:/home/tienluong/workspace/atlantis_fw/AsicFwS2/src/lcc_cmd_base_0000.c **** 			in->status = LCC_CMD_UNSUCCESS;
  89              		.loc 1 60 0
  90 003a 2C82     		strh	r4, [r5, #16]	@ movhi
  61:/home/tienluong/workspace/atlantis_fw/AsicFwS2/src/lcc_cmd_base_0000.c **** 			return;
  91              		.loc 1 61 0
  92 003c 74E0     		b	.L1
  93              	.LVL8:
  94              	.L6:
  62:/home/tienluong/workspace/atlantis_fw/AsicFwS2/src/lcc_cmd_base_0000.c **** 		}
  63:/home/tienluong/workspace/atlantis_fw/AsicFwS2/src/lcc_cmd_base_0000.c **** 	}
  64:/home/tienluong/workspace/atlantis_fw/AsicFwS2/src/lcc_cmd_base_0000.c **** 
  65:/home/tienluong/workspace/atlantis_fw/AsicFwS2/src/lcc_cmd_base_0000.c **** 	/* Scan camera bitmask */
  66:/home/tienluong/workspace/atlantis_fw/AsicFwS2/src/lcc_cmd_base_0000.c **** 	for (i = 0; i < in->m_number; i++)
  67:/home/tienluong/workspace/atlantis_fw/AsicFwS2/src/lcc_cmd_base_0000.c **** 	{
  68:/home/tienluong/workspace/atlantis_fw/AsicFwS2/src/lcc_cmd_base_0000.c **** 		cam_idx = __builtin_ctz(m_bitmask);
  69:/home/tienluong/workspace/atlantis_fw/AsicFwS2/src/lcc_cmd_base_0000.c **** 		m_bitmask &= ~(1 << cam_idx);
  70:/home/tienluong/workspace/atlantis_fw/AsicFwS2/src/lcc_cmd_base_0000.c **** 		/* Get camera object from camera object list */
  71:/home/tienluong/workspace/atlantis_fw/AsicFwS2/src/lcc_cmd_base_0000.c **** 		p_cam = idx_to_object(cam_idx);
  72:/home/tienluong/workspace/atlantis_fw/AsicFwS2/src/lcc_cmd_base_0000.c **** 		if (NULL == p_cam)	/* Verify object is valid */
  73:/home/tienluong/workspace/atlantis_fw/AsicFwS2/src/lcc_cmd_base_0000.c **** 		{
  74:/home/tienluong/workspace/atlantis_fw/AsicFwS2/src/lcc_cmd_base_0000.c **** 			in->status = LCC_CMD_ERROR_INVALID_MBITMASK;
  75:/home/tienluong/workspace/atlantis_fw/AsicFwS2/src/lcc_cmd_base_0000.c **** 			return;
  76:/home/tienluong/workspace/atlantis_fw/AsicFwS2/src/lcc_cmd_base_0000.c **** 		}
  77:/home/tienluong/workspace/atlantis_fw/AsicFwS2/src/lcc_cmd_base_0000.c **** 
  78:/home/tienluong/workspace/atlantis_fw/AsicFwS2/src/lcc_cmd_base_0000.c **** 		/* Read command processing */
  79:/home/tienluong/workspace/atlantis_fw/AsicFwS2/src/lcc_cmd_base_0000.c **** 		if (CMD_READ == in->action)
  95              		.loc 1 79 0
  96 003e EC7C     		ldrb	r4, [r5, #19]	@ zero_extendqisi2
  97 0040 14F00104 		ands	r4, r4, #1
  98 0044 2ED0     		beq	.L7
  80:/home/tienluong/workspace/atlantis_fw/AsicFwS2/src/lcc_cmd_base_0000.c **** 		{
  81:/home/tienluong/workspace/atlantis_fw/AsicFwS2/src/lcc_cmd_base_0000.c **** 			/* TODO: Take semaphore to access settings memory */
  82:/home/tienluong/workspace/atlantis_fw/AsicFwS2/src/lcc_cmd_base_0000.c **** 			xSemaphoreTake(p_cam->semaphore, portMAX_DELAY);
  99              		.loc 1 82 0
 100 0046 0021     		movs	r1, #0
 101 0048 0B46     		mov	r3, r1
 102 004a 4FF0FF32 		mov	r2, #-1
 103 004e 3C4C     		ldr	r4, .L18+16
 104 0050 006B     		ldr	r0, [r0, #48]
 105              	.LVL9:
 106 0052 A047     		blx	r4
 107              	.LVL10:
  83:/home/tienluong/workspace/atlantis_fw/AsicFwS2/src/lcc_cmd_base_0000.c **** 			out->data[out->len++] = p_cam->settings->open;
 108              		.loc 1 83 0
 109 0054 B9F80830 		ldrh	r3, [r9, #8]
 110 0058 591C     		adds	r1, r3, #1
 111 005a D9F80420 		ldr	r2, [r9, #4]
 112 005e A9F80810 		strh	r1, [r9, #8]	@ movhi
 113 0062 B168     		ldr	r1, [r6, #8]
 114 0064 0978     		ldrb	r1, [r1]	@ zero_extendqisi2
 115 0066 D154     		strb	r1, [r2, r3]
  84:/home/tienluong/workspace/atlantis_fw/AsicFwS2/src/lcc_cmd_base_0000.c **** 			/* TODO: Release semaphore after read data */
  85:/home/tienluong/workspace/atlantis_fw/AsicFwS2/src/lcc_cmd_base_0000.c **** 			xSemaphoreGive(p_cam->semaphore);
 116              		.loc 1 85 0
 117 0068 0021     		movs	r1, #0
 118 006a 306B     		ldr	r0, [r6, #48]
 119 006c 0A46     		mov	r2, r1
 120 006e 0B46     		mov	r3, r1
 121 0070 344C     		ldr	r4, .L18+20
 122 0072 A047     		blx	r4
 123              	.LVL11:
 124              	.L8:
 125 0074 0137     		adds	r7, r7, #1
 126              	.LVL12:
 127              	.L3:
  66:/home/tienluong/workspace/atlantis_fw/AsicFwS2/src/lcc_cmd_base_0000.c **** 	{
 128              		.loc 1 66 0 discriminator 1
 129 0076 FBB2     		uxtb	r3, r7
 130 0078 AA7C     		ldrb	r2, [r5, #18]	@ zero_extendqisi2
 131 007a 9A42     		cmp	r2, r3
 132 007c 54D9     		bls	.L1
  69:/home/tienluong/workspace/atlantis_fw/AsicFwS2/src/lcc_cmd_base_0000.c **** 		/* Get camera object from camera object list */
 133              		.loc 1 69 0
 134 007e 4FF0010B 		mov	fp, #1
  68:/home/tienluong/workspace/atlantis_fw/AsicFwS2/src/lcc_cmd_base_0000.c **** 		m_bitmask &= ~(1 << cam_idx);
 135              		.loc 1 68 0
 136 0082 9AFAAAF0 		rbit	r0, r10
 137 0086 B0FA80F0 		clz	r0, r0
 138              	.LVL13:
  69:/home/tienluong/workspace/atlantis_fw/AsicFwS2/src/lcc_cmd_base_0000.c **** 		/* Get camera object from camera object list */
 139              		.loc 1 69 0
 140 008a 0BFA00F3 		lsl	r3, fp, r0
 141 008e 2AEA030A 		bic	r10, r10, r3
 142              	.LVL14:
 143 0092 0193     		str	r3, [sp, #4]
  71:/home/tienluong/workspace/atlantis_fw/AsicFwS2/src/lcc_cmd_base_0000.c **** 		if (NULL == p_cam)	/* Verify object is valid */
 144              		.loc 1 71 0
 145 0094 2C4B     		ldr	r3, .L18+24
 146 0096 9847     		blx	r3
 147              	.LVL15:
  72:/home/tienluong/workspace/atlantis_fw/AsicFwS2/src/lcc_cmd_base_0000.c **** 		{
 148              		.loc 1 72 0
 149 0098 0646     		mov	r6, r0
 150 009a 0028     		cmp	r0, #0
 151 009c CFD1     		bne	.L6
  74:/home/tienluong/workspace/atlantis_fw/AsicFwS2/src/lcc_cmd_base_0000.c **** 			return;
 152              		.loc 1 74 0
 153 009e 0823     		movs	r3, #8
 154 00a0 2B82     		strh	r3, [r5, #16]	@ movhi
  75:/home/tienluong/workspace/atlantis_fw/AsicFwS2/src/lcc_cmd_base_0000.c **** 		}
 155              		.loc 1 75 0
 156 00a2 41E0     		b	.L1
 157              	.L7:
  86:/home/tienluong/workspace/atlantis_fw/AsicFwS2/src/lcc_cmd_base_0000.c **** 		}
  87:/home/tienluong/workspace/atlantis_fw/AsicFwS2/src/lcc_cmd_base_0000.c **** 		/* Write command processing */
  88:/home/tienluong/workspace/atlantis_fw/AsicFwS2/src/lcc_cmd_base_0000.c **** 		else
  89:/home/tienluong/workspace/atlantis_fw/AsicFwS2/src/lcc_cmd_base_0000.c **** 		{
  90:/home/tienluong/workspace/atlantis_fw/AsicFwS2/src/lcc_cmd_base_0000.c **** 			if (CAM_MODULE_MODE_MAX > in->data[data_cnt])
 158              		.loc 1 90 0
 159 00a4 6B68     		ldr	r3, [r5, #4]
 160 00a6 13F80830 		ldrb	r3, [r3, r8]	@ zero_extendqisi2
 161 00aa 022B     		cmp	r3, #2
  91:/home/tienluong/workspace/atlantis_fw/AsicFwS2/src/lcc_cmd_base_0000.c **** 			{
  92:/home/tienluong/workspace/atlantis_fw/AsicFwS2/src/lcc_cmd_base_0000.c **** 				SLOGF(SLOG_DEBUG, "Open CAM-%X request", p_cam->info.module);
 162              		.loc 1 92 0
 163 00ac 4FF02100 		mov	r0, #33
 164              	.LVL16:
 165 00b0 DFF888C0 		ldr	ip, .L18+12
  90:/home/tienluong/workspace/atlantis_fw/AsicFwS2/src/lcc_cmd_base_0000.c **** 			{
 166              		.loc 1 90 0
 167 00b4 29D8     		bhi	.L9
 168              		.loc 1 92 0
 169 00b6 1021     		movs	r1, #16
 170 00b8 96F82930 		ldrb	r3, [r6, #41]	@ zero_extendqisi2
 171 00bc 234A     		ldr	r2, .L18+28
 172 00be E047     		blx	ip
 173              	.LVL17:
  93:/home/tienluong/workspace/atlantis_fw/AsicFwS2/src/lcc_cmd_base_0000.c **** 				xSemaphoreTake(p_cam->semaphore, portMAX_DELAY);
 174              		.loc 1 93 0
 175 00c0 2146     		mov	r1, r4
 176 00c2 4FF0FF32 		mov	r2, #-1
 177 00c6 2346     		mov	r3, r4
 178 00c8 DFF874C0 		ldr	ip, .L18+16
 179 00cc 306B     		ldr	r0, [r6, #48]
 180 00ce E047     		blx	ip
 181              	.LVL18:
  94:/home/tienluong/workspace/atlantis_fw/AsicFwS2/src/lcc_cmd_base_0000.c **** 				p_cam->settings->open = in->data[data_cnt];
 182              		.loc 1 94 0
 183 00d0 B368     		ldr	r3, [r6, #8]
 184 00d2 6A68     		ldr	r2, [r5, #4]
  95:/home/tienluong/workspace/atlantis_fw/AsicFwS2/src/lcc_cmd_base_0000.c **** 				p_cmd.cmd_tid = in->tid;
  96:/home/tienluong/workspace/atlantis_fw/AsicFwS2/src/lcc_cmd_base_0000.c **** 				p_cmd.event = IMG_EVENT_CAM_OPEN;
  97:/home/tienluong/workspace/atlantis_fw/AsicFwS2/src/lcc_cmd_base_0000.c **** 				xSemaphoreGive(p_cam->semaphore);
 185              		.loc 1 97 0
 186 00d4 2146     		mov	r1, r4
  94:/home/tienluong/workspace/atlantis_fw/AsicFwS2/src/lcc_cmd_base_0000.c **** 				p_cam->settings->open = in->data[data_cnt];
 187              		.loc 1 94 0
 188 00d6 12F80820 		ldrb	r2, [r2, r8]	@ zero_extendqisi2
 189 00da 1A70     		strb	r2, [r3]
  96:/home/tienluong/workspace/atlantis_fw/AsicFwS2/src/lcc_cmd_base_0000.c **** 				xSemaphoreGive(p_cam->semaphore);
 190              		.loc 1 96 0
 191 00dc CDF80CB0 		str	fp, [sp, #12]
  95:/home/tienluong/workspace/atlantis_fw/AsicFwS2/src/lcc_cmd_base_0000.c **** 				p_cmd.cmd_tid = in->tid;
 192              		.loc 1 95 0
 193 00e0 6B89     		ldrh	r3, [r5, #10]
 194              		.loc 1 97 0
 195 00e2 2246     		mov	r2, r4
  95:/home/tienluong/workspace/atlantis_fw/AsicFwS2/src/lcc_cmd_base_0000.c **** 				p_cmd.cmd_tid = in->tid;
 196              		.loc 1 95 0
 197 00e4 ADF80830 		strh	r3, [sp, #8]	@ movhi
 198              		.loc 1 97 0
 199 00e8 2346     		mov	r3, r4
 200 00ea 306B     		ldr	r0, [r6, #48]
 201 00ec DFF854B0 		ldr	fp, .L18+20
 202 00f0 D847     		blx	fp
 203              	.LVL19:
  98:/home/tienluong/workspace/atlantis_fw/AsicFwS2/src/lcc_cmd_base_0000.c **** 				/* Raise a updating signal to camera task for this ASIC */
  99:/home/tienluong/workspace/atlantis_fw/AsicFwS2/src/lcc_cmd_base_0000.c **** 				if (light_system->m_filter & (1 << cam_idx))
 204              		.loc 1 99 0
 205 00f2 174B     		ldr	r3, .L18+32
 206 00f4 019A     		ldr	r2, [sp, #4]
 207 00f6 1B68     		ldr	r3, [r3]
 208 00f8 9B69     		ldr	r3, [r3, #24]
 209 00fa 1A42     		tst	r2, r3
 210 00fc 0AD0     		beq	.L10
 100:/home/tienluong/workspace/atlantis_fw/AsicFwS2/src/lcc_cmd_base_0000.c **** 				{
 101:/home/tienluong/workspace/atlantis_fw/AsicFwS2/src/lcc_cmd_base_0000.c **** 					xQueueSend(p_cam->queue, &p_cmd, (TickType_t)10);
 211              		.loc 1 101 0
 212 00fe 706B     		ldr	r0, [r6, #52]
 213 0100 02A9     		add	r1, sp, #8
 214 0102 0A22     		movs	r2, #10
 215 0104 2346     		mov	r3, r4
 216 0106 D847     		blx	fp
 217              	.LVL20:
 218 0108 04E0     		b	.L10
 219              	.L9:
 102:/home/tienluong/workspace/atlantis_fw/AsicFwS2/src/lcc_cmd_base_0000.c **** 				}
 103:/home/tienluong/workspace/atlantis_fw/AsicFwS2/src/lcc_cmd_base_0000.c **** 			}
 104:/home/tienluong/workspace/atlantis_fw/AsicFwS2/src/lcc_cmd_base_0000.c **** 			else
 105:/home/tienluong/workspace/atlantis_fw/AsicFwS2/src/lcc_cmd_base_0000.c **** 			{
 106:/home/tienluong/workspace/atlantis_fw/AsicFwS2/src/lcc_cmd_base_0000.c **** 				SLOGF(SLOG_WARN, "Open mode invalid!");
 220              		.loc 1 106 0
 221 010a 0421     		movs	r1, #4
 222 010c 114A     		ldr	r2, .L18+36
 223 010e E047     		blx	ip
 224              	.LVL21:
 107:/home/tienluong/workspace/atlantis_fw/AsicFwS2/src/lcc_cmd_base_0000.c **** 				in->status = LCC_CMD_INVALID_ARG;
 225              		.loc 1 107 0
 226 0110 0423     		movs	r3, #4
 227 0112 2B82     		strh	r3, [r5, #16]	@ movhi
 228              	.L10:
 108:/home/tienluong/workspace/atlantis_fw/AsicFwS2/src/lcc_cmd_base_0000.c **** 			}
 109:/home/tienluong/workspace/atlantis_fw/AsicFwS2/src/lcc_cmd_base_0000.c **** 			/* Set data pointer when command was set for global */
 110:/home/tienluong/workspace/atlantis_fw/AsicFwS2/src/lcc_cmd_base_0000.c **** 			data_cnt += in->global ? 0 : cmd.size;
 229              		.loc 1 110 0
 230 0114 EB7C     		ldrb	r3, [r5, #19]	@ zero_extendqisi2
 231 0116 13F0020F 		tst	r3, #2
 232 011a 0CBF     		ite	eq
 233 011c 0124     		moveq	r4, #1
 234 011e 0024     		movne	r4, #0
 235 0120 A044     		add	r8, r8, r4
 236              	.LVL22:
 237 0122 5FFA88F8 		uxtb	r8, r8
 238              	.LVL23:
 239 0126 A5E7     		b	.L8
 240              	.LVL24:
 241              	.L1:
 111:/home/tienluong/workspace/atlantis_fw/AsicFwS2/src/lcc_cmd_base_0000.c **** 		}
 112:/home/tienluong/workspace/atlantis_fw/AsicFwS2/src/lcc_cmd_base_0000.c **** 	}
 113:/home/tienluong/workspace/atlantis_fw/AsicFwS2/src/lcc_cmd_base_0000.c **** 	/* The command status will be updated in either lcc_cmd task
 114:/home/tienluong/workspace/atlantis_fw/AsicFwS2/src/lcc_cmd_base_0000.c **** 	 * (read command) or task_cam_ctrl (write command)*/
 115:/home/tienluong/workspace/atlantis_fw/AsicFwS2/src/lcc_cmd_base_0000.c **** }
 242              		.loc 1 115 0
 243 0128 05B0     		add	sp, sp, #20
 244              	.LCFI2:
 245              		.cfi_def_cfa_offset 36
 246              		@ sp needed
 247 012a BDE8F08F 		pop	{r4, r5, r6, r7, r8, r9, r10, fp, pc}
 248              	.LVL25:
 249              	.L19:
 250 012e 00BF     		.align	2
 251              	.L18:
 252 0130 00000000 		.word	.LANCHOR0
 253 0134 00000000 		.word	pvPortMalloc1
 254 0138 00000000 		.word	.LC0
 255 013c 00000000 		.word	slogf
 256 0140 00000000 		.word	xQueueGenericReceive
 257 0144 00000000 		.word	xQueueGenericSend
 258 0148 00000000 		.word	idx_to_object
 259 014c 13000000 		.word	.LC1
 260 0150 00000000 		.word	light_system
 261 0154 27000000 		.word	.LC2
 262              		.cfi_endproc
 263              	.LFE1:
 265              		.global	__popcountsi2
 266              		.section	.text.cmd_cam_streaming,"ax",%progbits
 267              		.align	1
 268              		.global	cmd_cam_streaming
 269              		.thumb
 270              		.thumb_func
 272              	cmd_cam_streaming:
 273              	.LFB2:
 116:/home/tienluong/workspace/atlantis_fw/AsicFwS2/src/lcc_cmd_base_0000.c **** 
 117:/home/tienluong/workspace/atlantis_fw/AsicFwS2/src/lcc_cmd_base_0000.c **** extern uint8_t rx_end_flag;
 118:/home/tienluong/workspace/atlantis_fw/AsicFwS2/src/lcc_cmd_base_0000.c **** /**
 119:/home/tienluong/workspace/atlantis_fw/AsicFwS2/src/lcc_cmd_base_0000.c ****  * cmd_cam_streaming
 120:/home/tienluong/workspace/atlantis_fw/AsicFwS2/src/lcc_cmd_base_0000.c ****  *
 121:/home/tienluong/workspace/atlantis_fw/AsicFwS2/src/lcc_cmd_base_0000.c ****  */
 122:/home/tienluong/workspace/atlantis_fw/AsicFwS2/src/lcc_cmd_base_0000.c **** void cmd_cam_streaming(lcc_cmd_t *in, lcc_cmd_t *out)
 123:/home/tienluong/workspace/atlantis_fw/AsicFwS2/src/lcc_cmd_base_0000.c **** {
 274              		.loc 1 123 0
 275              		.cfi_startproc
 276              		@ args = 0, pretend = 0, frame = 32
 277              		@ frame_needed = 0, uses_anonymous_args = 0
 278              	.LVL26:
 279 0000 2DE9F04F 		push	{r4, r5, r6, r7, r8, r9, r10, fp, lr}
 280              	.LCFI3:
 281              		.cfi_def_cfa_offset 36
 282              		.cfi_offset 4, -36
 283              		.cfi_offset 5, -32
 284              		.cfi_offset 6, -28
 285              		.cfi_offset 7, -24
 286              		.cfi_offset 8, -20
 287              		.cfi_offset 9, -16
 288              		.cfi_offset 10, -12
 289              		.cfi_offset 11, -8
 290              		.cfi_offset 14, -4
 291 0004 89B0     		sub	sp, sp, #36
 292              	.LCFI4:
 293              		.cfi_def_cfa_offset 72
 124:/home/tienluong/workspace/atlantis_fw/AsicFwS2/src/lcc_cmd_base_0000.c **** 	lcc_cmd_tid_t p_cmd;
 125:/home/tienluong/workspace/atlantis_fw/AsicFwS2/src/lcc_cmd_base_0000.c **** 	uint8_t idx = 0;
 126:/home/tienluong/workspace/atlantis_fw/AsicFwS2/src/lcc_cmd_base_0000.c **** 	uint16_t data_idx = 0;
 127:/home/tienluong/workspace/atlantis_fw/AsicFwS2/src/lcc_cmd_base_0000.c **** 	uint8_t cam_idx = 0;
 128:/home/tienluong/workspace/atlantis_fw/AsicFwS2/src/lcc_cmd_base_0000.c **** 	uint32_t m_bitmask = in->m_bitmask;
 294              		.loc 1 128 0
 295 0006 0368     		ldr	r3, [r0]
 123:/home/tienluong/workspace/atlantis_fw/AsicFwS2/src/lcc_cmd_base_0000.c **** 	lcc_cmd_tid_t p_cmd;
 296              		.loc 1 123 0
 297 0008 0446     		mov	r4, r0
 298              		.loc 1 128 0
 299 000a 0293     		str	r3, [sp, #8]
 300              	.LVL27:
 129:/home/tienluong/workspace/atlantis_fw/AsicFwS2/src/lcc_cmd_base_0000.c **** 	uint8_t control_status = 0;
 130:/home/tienluong/workspace/atlantis_fw/AsicFwS2/src/lcc_cmd_base_0000.c **** 	uint32_t cam_status = 0;
 301              		.loc 1 130 0
 302 000c 0023     		movs	r3, #0
 303              	.LVL28:
 123:/home/tienluong/workspace/atlantis_fw/AsicFwS2/src/lcc_cmd_base_0000.c **** 	lcc_cmd_tid_t p_cmd;
 304              		.loc 1 123 0
 305 000e 8946     		mov	r9, r1
 306              		.loc 1 130 0
 307 0010 0493     		str	r3, [sp, #16]
 308              	.LVL29:
 131:/home/tienluong/workspace/atlantis_fw/AsicFwS2/src/lcc_cmd_base_0000.c **** 	uint32_t stream_on_msk = 0;
 132:/home/tienluong/workspace/atlantis_fw/AsicFwS2/src/lcc_cmd_base_0000.c **** 	uint8_t wait_asics = 0;
 133:/home/tienluong/workspace/atlantis_fw/AsicFwS2/src/lcc_cmd_base_0000.c **** 	cam_data_t	*cache;
 134:/home/tienluong/workspace/atlantis_fw/AsicFwS2/src/lcc_cmd_base_0000.c **** 	cam_typedef_t *pcam = NULL;
 135:/home/tienluong/workspace/atlantis_fw/AsicFwS2/src/lcc_cmd_base_0000.c **** 	lcc_cmd_info_t cmd = (lcc_cmd_info_t)(LCC_CMD_CAM_STREAMING);
 136:/home/tienluong/workspace/atlantis_fw/AsicFwS2/src/lcc_cmd_base_0000.c **** 
 137:/home/tienluong/workspace/atlantis_fw/AsicFwS2/src/lcc_cmd_base_0000.c **** 	if (CMD_READ == in->action)
 309              		.loc 1 137 0
 310 0012 C37C     		ldrb	r3, [r0, #19]	@ zero_extendqisi2
 311 0014 DA07     		lsls	r2, r3, #31
 312 0016 04D4     		bmi	.L21
 313              	.LVL30:
 314              	.L23:
 315              	.LBB2:
 138:/home/tienluong/workspace/atlantis_fw/AsicFwS2/src/lcc_cmd_base_0000.c **** 	{
 139:/home/tienluong/workspace/atlantis_fw/AsicFwS2/src/lcc_cmd_base_0000.c **** 		out->data = pvPortMalloc(in->m_number * cmd.size);
 140:/home/tienluong/workspace/atlantis_fw/AsicFwS2/src/lcc_cmd_base_0000.c **** 		if (NULL == out->data)
 141:/home/tienluong/workspace/atlantis_fw/AsicFwS2/src/lcc_cmd_base_0000.c **** 		{
 142:/home/tienluong/workspace/atlantis_fw/AsicFwS2/src/lcc_cmd_base_0000.c **** 			SLOGF(SLOG_ERROR, "%s: Lack of memory", __FUNCTION__);
 143:/home/tienluong/workspace/atlantis_fw/AsicFwS2/src/lcc_cmd_base_0000.c **** 			in->status = LCC_CMD_UNSUCCESS;
 144:/home/tienluong/workspace/atlantis_fw/AsicFwS2/src/lcc_cmd_base_0000.c **** 			return;
 145:/home/tienluong/workspace/atlantis_fw/AsicFwS2/src/lcc_cmd_base_0000.c **** 		}
 146:/home/tienluong/workspace/atlantis_fw/AsicFwS2/src/lcc_cmd_base_0000.c **** 	}
 147:/home/tienluong/workspace/atlantis_fw/AsicFwS2/src/lcc_cmd_base_0000.c **** 
 148:/home/tienluong/workspace/atlantis_fw/AsicFwS2/src/lcc_cmd_base_0000.c **** 	for(idx = 0; idx < in->m_number; idx++)
 149:/home/tienluong/workspace/atlantis_fw/AsicFwS2/src/lcc_cmd_base_0000.c **** 	{
 150:/home/tienluong/workspace/atlantis_fw/AsicFwS2/src/lcc_cmd_base_0000.c **** 		cam_idx = __builtin_ctz(m_bitmask);
 151:/home/tienluong/workspace/atlantis_fw/AsicFwS2/src/lcc_cmd_base_0000.c **** 		m_bitmask &= ~(1 << cam_idx);
 152:/home/tienluong/workspace/atlantis_fw/AsicFwS2/src/lcc_cmd_base_0000.c **** 		pcam = idx_to_object(cam_idx);
 153:/home/tienluong/workspace/atlantis_fw/AsicFwS2/src/lcc_cmd_base_0000.c **** 		if(pcam)
 154:/home/tienluong/workspace/atlantis_fw/AsicFwS2/src/lcc_cmd_base_0000.c **** 		{
 155:/home/tienluong/workspace/atlantis_fw/AsicFwS2/src/lcc_cmd_base_0000.c **** 			if(CMD_READ == in->action)
 156:/home/tienluong/workspace/atlantis_fw/AsicFwS2/src/lcc_cmd_base_0000.c **** 			{
 157:/home/tienluong/workspace/atlantis_fw/AsicFwS2/src/lcc_cmd_base_0000.c **** 				xSemaphoreTake(pcam->semaphore, portMAX_DELAY);
 158:/home/tienluong/workspace/atlantis_fw/AsicFwS2/src/lcc_cmd_base_0000.c **** 				cache = pcam->settings;
 159:/home/tienluong/workspace/atlantis_fw/AsicFwS2/src/lcc_cmd_base_0000.c **** 				memcpy(&out->data[out->len], cache->stream, cmd.size);
 160:/home/tienluong/workspace/atlantis_fw/AsicFwS2/src/lcc_cmd_base_0000.c **** 				xSemaphoreGive(pcam->semaphore);
 161:/home/tienluong/workspace/atlantis_fw/AsicFwS2/src/lcc_cmd_base_0000.c **** 				out->len += cmd.size;
 162:/home/tienluong/workspace/atlantis_fw/AsicFwS2/src/lcc_cmd_base_0000.c **** 			}
 163:/home/tienluong/workspace/atlantis_fw/AsicFwS2/src/lcc_cmd_base_0000.c **** 			else
 164:/home/tienluong/workspace/atlantis_fw/AsicFwS2/src/lcc_cmd_base_0000.c **** 			{
 165:/home/tienluong/workspace/atlantis_fw/AsicFwS2/src/lcc_cmd_base_0000.c **** 				cache = pcam->settings;
 166:/home/tienluong/workspace/atlantis_fw/AsicFwS2/src/lcc_cmd_base_0000.c **** 				p_cmd.cmd_tid = in->tid;
 167:/home/tienluong/workspace/atlantis_fw/AsicFwS2/src/lcc_cmd_base_0000.c **** 				p_cmd.event = IMG_EVENT_CAM_STREAM;
 168:/home/tienluong/workspace/atlantis_fw/AsicFwS2/src/lcc_cmd_base_0000.c **** 				memcpy(&cam_status, cache->status, sizeof(uint32_t));
 169:/home/tienluong/workspace/atlantis_fw/AsicFwS2/src/lcc_cmd_base_0000.c **** 				control_status = in->data[data_idx + 0];
 170:/home/tienluong/workspace/atlantis_fw/AsicFwS2/src/lcc_cmd_base_0000.c **** 				uint8_t tx_ins = control_status & (BIT7 | BIT6 | BIT5 | BIT4);
 171:/home/tienluong/workspace/atlantis_fw/AsicFwS2/src/lcc_cmd_base_0000.c **** 				tx_ins = tx_ins >> 4;
 172:/home/tienluong/workspace/atlantis_fw/AsicFwS2/src/lcc_cmd_base_0000.c **** 				if(CSI_0 != tx_ins && CSI_1 != tx_ins)
 173:/home/tienluong/workspace/atlantis_fw/AsicFwS2/src/lcc_cmd_base_0000.c **** 				{
 174:/home/tienluong/workspace/atlantis_fw/AsicFwS2/src/lcc_cmd_base_0000.c **** 					SLOGF(SLOG_ERROR, "TX%d is not supported", tx_ins);
 175:/home/tienluong/workspace/atlantis_fw/AsicFwS2/src/lcc_cmd_base_0000.c **** 					continue;
 176:/home/tienluong/workspace/atlantis_fw/AsicFwS2/src/lcc_cmd_base_0000.c **** 				}
 177:/home/tienluong/workspace/atlantis_fw/AsicFwS2/src/lcc_cmd_base_0000.c **** 				uint32_t old_stream_cache = 0;
 178:/home/tienluong/workspace/atlantis_fw/AsicFwS2/src/lcc_cmd_base_0000.c **** 				memcpy(&old_stream_cache, cache->stream, cmd.size);
 179:/home/tienluong/workspace/atlantis_fw/AsicFwS2/src/lcc_cmd_base_0000.c **** 				memcpy(cache->stream, in->data + data_idx, cmd.size);
 180:/home/tienluong/workspace/atlantis_fw/AsicFwS2/src/lcc_cmd_base_0000.c **** 
 181:/home/tienluong/workspace/atlantis_fw/AsicFwS2/src/lcc_cmd_base_0000.c **** 				if((control_status & CAM_STREAM_ENABLE) &&
 182:/home/tienluong/workspace/atlantis_fw/AsicFwS2/src/lcc_cmd_base_0000.c **** 					(light_system->active_ucid != UCID_DEBUG))
 183:/home/tienluong/workspace/atlantis_fw/AsicFwS2/src/lcc_cmd_base_0000.c **** 				{
 184:/home/tienluong/workspace/atlantis_fw/AsicFwS2/src/lcc_cmd_base_0000.c **** 					if(light_system->m_filter & (1 << cam_idx))
 185:/home/tienluong/workspace/atlantis_fw/AsicFwS2/src/lcc_cmd_base_0000.c **** 					{
 186:/home/tienluong/workspace/atlantis_fw/AsicFwS2/src/lcc_cmd_base_0000.c **** 						if(!(cam_status & S_MODULE_SW_STANDBY))
 187:/home/tienluong/workspace/atlantis_fw/AsicFwS2/src/lcc_cmd_base_0000.c **** 						{
 188:/home/tienluong/workspace/atlantis_fw/AsicFwS2/src/lcc_cmd_base_0000.c **** 							SLOGF(SLOG_ERROR, "CAM-%X not in SW standby",
 189:/home/tienluong/workspace/atlantis_fw/AsicFwS2/src/lcc_cmd_base_0000.c **** 															pcam->info.module);
 190:/home/tienluong/workspace/atlantis_fw/AsicFwS2/src/lcc_cmd_base_0000.c **** 							SLOGF(SLOG_ERROR, "Canceled stream on request");
 191:/home/tienluong/workspace/atlantis_fw/AsicFwS2/src/lcc_cmd_base_0000.c **** 							in->m_bitmask &= ~(light_system->m_filter);
 192:/home/tienluong/workspace/atlantis_fw/AsicFwS2/src/lcc_cmd_base_0000.c **** 							in->status = LCC_CMD_UNSUCCESS;
 193:/home/tienluong/workspace/atlantis_fw/AsicFwS2/src/lcc_cmd_base_0000.c **** 							memcpy(cache->stream, &old_stream_cache, cmd.size);
 194:/home/tienluong/workspace/atlantis_fw/AsicFwS2/src/lcc_cmd_base_0000.c **** 							return;
 195:/home/tienluong/workspace/atlantis_fw/AsicFwS2/src/lcc_cmd_base_0000.c **** 						}
 196:/home/tienluong/workspace/atlantis_fw/AsicFwS2/src/lcc_cmd_base_0000.c **** 						stream_on_msk |= (1 << cam_idx);
 197:/home/tienluong/workspace/atlantis_fw/AsicFwS2/src/lcc_cmd_base_0000.c **** 					}
 198:/home/tienluong/workspace/atlantis_fw/AsicFwS2/src/lcc_cmd_base_0000.c **** 					else
 199:/home/tienluong/workspace/atlantis_fw/AsicFwS2/src/lcc_cmd_base_0000.c **** 					{
 200:/home/tienluong/workspace/atlantis_fw/AsicFwS2/src/lcc_cmd_base_0000.c **** 						if(light_system->m_filter_asic1 & (1 << cam_idx))
 201:/home/tienluong/workspace/atlantis_fw/AsicFwS2/src/lcc_cmd_base_0000.c **** 						{
 202:/home/tienluong/workspace/atlantis_fw/AsicFwS2/src/lcc_cmd_base_0000.c **** #if (ASIC_NUM == ASIC1)
 203:/home/tienluong/workspace/atlantis_fw/AsicFwS2/src/lcc_cmd_base_0000.c **** 							/* Indicate that ASIC1 waiting interrupt from
 204:/home/tienluong/workspace/atlantis_fw/AsicFwS2/src/lcc_cmd_base_0000.c **** 							 * ASIC2 in HDR capture mode */
 205:/home/tienluong/workspace/atlantis_fw/AsicFwS2/src/lcc_cmd_base_0000.c **** 							/*taskENTER_CRITICAL();*/
 206:/home/tienluong/workspace/atlantis_fw/AsicFwS2/src/lcc_cmd_base_0000.c **** 							light_system->wait_intr_stream |= ASIC_2;
 207:/home/tienluong/workspace/atlantis_fw/AsicFwS2/src/lcc_cmd_base_0000.c **** 							/*taskEXIT_CRITICAL();*/
 208:/home/tienluong/workspace/atlantis_fw/AsicFwS2/src/lcc_cmd_base_0000.c **** #endif
 209:/home/tienluong/workspace/atlantis_fw/AsicFwS2/src/lcc_cmd_base_0000.c **** 							wait_asics |= ASIC_2;
 210:/home/tienluong/workspace/atlantis_fw/AsicFwS2/src/lcc_cmd_base_0000.c **** 						}
 211:/home/tienluong/workspace/atlantis_fw/AsicFwS2/src/lcc_cmd_base_0000.c **** 						if(light_system->m_filter_asic2 & (1 << cam_idx))
 212:/home/tienluong/workspace/atlantis_fw/AsicFwS2/src/lcc_cmd_base_0000.c **** 						{
 213:/home/tienluong/workspace/atlantis_fw/AsicFwS2/src/lcc_cmd_base_0000.c **** #if (ASIC_NUM == ASIC1)
 214:/home/tienluong/workspace/atlantis_fw/AsicFwS2/src/lcc_cmd_base_0000.c **** 							/* Indicate that ASIC1 waiting interrupt from
 215:/home/tienluong/workspace/atlantis_fw/AsicFwS2/src/lcc_cmd_base_0000.c **** 							 * ASIC2 in HDR capture mode */
 216:/home/tienluong/workspace/atlantis_fw/AsicFwS2/src/lcc_cmd_base_0000.c **** 							/*taskENTER_CRITICAL();*/
 217:/home/tienluong/workspace/atlantis_fw/AsicFwS2/src/lcc_cmd_base_0000.c **** 							light_system->wait_intr_stream |= ASIC_3;
 218:/home/tienluong/workspace/atlantis_fw/AsicFwS2/src/lcc_cmd_base_0000.c **** 							/*taskEXIT_CRITICAL();*/
 219:/home/tienluong/workspace/atlantis_fw/AsicFwS2/src/lcc_cmd_base_0000.c **** #endif
 220:/home/tienluong/workspace/atlantis_fw/AsicFwS2/src/lcc_cmd_base_0000.c **** 							wait_asics |= ASIC_3;
 221:/home/tienluong/workspace/atlantis_fw/AsicFwS2/src/lcc_cmd_base_0000.c **** 						}
 222:/home/tienluong/workspace/atlantis_fw/AsicFwS2/src/lcc_cmd_base_0000.c **** 					}
 223:/home/tienluong/workspace/atlantis_fw/AsicFwS2/src/lcc_cmd_base_0000.c **** 				}
 224:/home/tienluong/workspace/atlantis_fw/AsicFwS2/src/lcc_cmd_base_0000.c **** 				else
 225:/home/tienluong/workspace/atlantis_fw/AsicFwS2/src/lcc_cmd_base_0000.c **** 				{
 226:/home/tienluong/workspace/atlantis_fw/AsicFwS2/src/lcc_cmd_base_0000.c **** 					if (light_system->m_filter & (1 << cam_idx))
 227:/home/tienluong/workspace/atlantis_fw/AsicFwS2/src/lcc_cmd_base_0000.c **** 						xQueueSend(pcam->queue, &p_cmd, (TickType_t)10);
 228:/home/tienluong/workspace/atlantis_fw/AsicFwS2/src/lcc_cmd_base_0000.c **** 				}
 229:/home/tienluong/workspace/atlantis_fw/AsicFwS2/src/lcc_cmd_base_0000.c **** 
 230:/home/tienluong/workspace/atlantis_fw/AsicFwS2/src/lcc_cmd_base_0000.c **** 				data_idx += in->global ? 0 : cmd.size;
 316              		.loc 1 230 0
 317 0018 0027     		movs	r7, #0
 318 001a 3E46     		mov	r6, r7
 319 001c 0097     		str	r7, [sp]
 320 001e 0197     		str	r7, [sp, #4]
 321 0020 23E0     		b	.L22
 322              	.LVL31:
 323              	.L21:
 324              	.LBE2:
 139:/home/tienluong/workspace/atlantis_fw/AsicFwS2/src/lcc_cmd_base_0000.c **** 		if (NULL == out->data)
 325              		.loc 1 139 0
 326 0022 807C     		ldrb	r0, [r0, #18]	@ zero_extendqisi2
 327              	.LVL32:
 328 0024 9949     		ldr	r1, .L78
 329              	.LVL33:
 330 0026 00EB4000 		add	r0, r0, r0, lsl #1
 331 002a 8B22     		movs	r2, #139
 332 002c 984B     		ldr	r3, .L78+4
 333 002e 9847     		blx	r3
 334              	.LVL34:
 335 0030 0546     		mov	r5, r0
 336 0032 C9F80400 		str	r0, [r9, #4]
 140:/home/tienluong/workspace/atlantis_fw/AsicFwS2/src/lcc_cmd_base_0000.c **** 		{
 337              		.loc 1 140 0
 338 0036 0028     		cmp	r0, #0
 339 0038 EED1     		bne	.L23
 142:/home/tienluong/workspace/atlantis_fw/AsicFwS2/src/lcc_cmd_base_0000.c **** 			in->status = LCC_CMD_UNSUCCESS;
 340              		.loc 1 142 0
 341 003a 2120     		movs	r0, #33
 342 003c 0221     		movs	r1, #2
 343 003e 954A     		ldr	r2, .L78+8
 344 0040 924B     		ldr	r3, .L78
 345 0042 954E     		ldr	r6, .L78+12
 346 0044 B047     		blx	r6
 347              	.LVL35:
 143:/home/tienluong/workspace/atlantis_fw/AsicFwS2/src/lcc_cmd_base_0000.c **** 			return;
 348              		.loc 1 143 0
 349 0046 2582     		strh	r5, [r4, #16]	@ movhi
 144:/home/tienluong/workspace/atlantis_fw/AsicFwS2/src/lcc_cmd_base_0000.c **** 		}
 350              		.loc 1 144 0
 351 0048 1CE1     		b	.L20
 352              	.LVL36:
 353              	.L34:
 151:/home/tienluong/workspace/atlantis_fw/AsicFwS2/src/lcc_cmd_base_0000.c **** 		pcam = idx_to_object(cam_idx);
 354              		.loc 1 151 0
 355 004a 0122     		movs	r2, #1
 150:/home/tienluong/workspace/atlantis_fw/AsicFwS2/src/lcc_cmd_base_0000.c **** 		m_bitmask &= ~(1 << cam_idx);
 356              		.loc 1 150 0
 357 004c 029B     		ldr	r3, [sp, #8]
 358 004e 93FAA3F0 		rbit	r0, r3
 359 0052 B0FA80F0 		clz	r0, r0
 360              	.LVL37:
 151:/home/tienluong/workspace/atlantis_fw/AsicFwS2/src/lcc_cmd_base_0000.c **** 		pcam = idx_to_object(cam_idx);
 361              		.loc 1 151 0
 362 0056 8240     		lsls	r2, r2, r0
 363 0058 23EA0203 		bic	r3, r3, r2
 364 005c 0392     		str	r2, [sp, #12]
 365 005e 0293     		str	r3, [sp, #8]
 366              	.LVL38:
 152:/home/tienluong/workspace/atlantis_fw/AsicFwS2/src/lcc_cmd_base_0000.c **** 		if(pcam)
 367              		.loc 1 152 0
 368 0060 8E4B     		ldr	r3, .L78+16
 369              	.LVL39:
 370 0062 9847     		blx	r3
 371              	.LVL40:
 153:/home/tienluong/workspace/atlantis_fw/AsicFwS2/src/lcc_cmd_base_0000.c **** 		{
 372              		.loc 1 153 0
 373 0064 0546     		mov	r5, r0
 374 0066 28B9     		cbnz	r0, .L74
 375              	.LVL41:
 376              	.L25:
 377 0068 0137     		adds	r7, r7, #1
 378              	.LVL42:
 379              	.L22:
 148:/home/tienluong/workspace/atlantis_fw/AsicFwS2/src/lcc_cmd_base_0000.c **** 	{
 380              		.loc 1 148 0 discriminator 1
 381 006a FBB2     		uxtb	r3, r7
 382 006c A17C     		ldrb	r1, [r4, #18]	@ zero_extendqisi2
 383 006e 8B42     		cmp	r3, r1
 384 0070 EBD3     		bcc	.L34
 385 0072 AEE0     		b	.L75
 386              	.LVL43:
 387              	.L74:
 155:/home/tienluong/workspace/atlantis_fw/AsicFwS2/src/lcc_cmd_base_0000.c **** 			{
 388              		.loc 1 155 0
 389 0074 E17C     		ldrb	r1, [r4, #19]	@ zero_extendqisi2
 390 0076 11F00101 		ands	r1, r1, #1
 391 007a 039A     		ldr	r2, [sp, #12]
 392 007c 1FD0     		beq	.L26
 157:/home/tienluong/workspace/atlantis_fw/AsicFwS2/src/lcc_cmd_base_0000.c **** 				cache = pcam->settings;
 393              		.loc 1 157 0
 394 007e 0021     		movs	r1, #0
 395 0080 0B46     		mov	r3, r1
 396 0082 4FF0FF32 		mov	r2, #-1
 397 0086 DFF84CC2 		ldr	ip, .L78+72
 398 008a 006B     		ldr	r0, [r0, #48]
 399              	.LVL44:
 400 008c E047     		blx	ip
 401              	.LVL45:
 159:/home/tienluong/workspace/atlantis_fw/AsicFwS2/src/lcc_cmd_base_0000.c **** 				xSemaphoreGive(pcam->semaphore);
 402              		.loc 1 159 0
 403 008e D9F80410 		ldr	r1, [r9, #4]
 404 0092 B9F80820 		ldrh	r2, [r9, #8]
 405 0096 AB68     		ldr	r3, [r5, #8]
 406 0098 8818     		adds	r0, r1, r2
 407 009a 33F801EF 		ldrh	lr, [r3, #1]!	@ unaligned
 408 009e 21F802E0 		strh	lr, [r1, r2]	@ unaligned
 409              	.LVL46:
 160:/home/tienluong/workspace/atlantis_fw/AsicFwS2/src/lcc_cmd_base_0000.c **** 				out->len += cmd.size;
 410              		.loc 1 160 0
 411 00a2 0021     		movs	r1, #0
 159:/home/tienluong/workspace/atlantis_fw/AsicFwS2/src/lcc_cmd_base_0000.c **** 				xSemaphoreGive(pcam->semaphore);
 412              		.loc 1 159 0
 413 00a4 9B78     		ldrb	r3, [r3, #2]	@ zero_extendqisi2
 414              	.LVL47:
 160:/home/tienluong/workspace/atlantis_fw/AsicFwS2/src/lcc_cmd_base_0000.c **** 				out->len += cmd.size;
 415              		.loc 1 160 0
 416 00a6 0A46     		mov	r2, r1
 159:/home/tienluong/workspace/atlantis_fw/AsicFwS2/src/lcc_cmd_base_0000.c **** 				xSemaphoreGive(pcam->semaphore);
 417              		.loc 1 159 0
 418 00a8 8370     		strb	r3, [r0, #2]
 160:/home/tienluong/workspace/atlantis_fw/AsicFwS2/src/lcc_cmd_base_0000.c **** 				out->len += cmd.size;
 419              		.loc 1 160 0
 420 00aa 0B46     		mov	r3, r1
 421 00ac 286B     		ldr	r0, [r5, #48]
 422 00ae 7C4D     		ldr	r5, .L78+20
 423              	.LVL48:
 424 00b0 A847     		blx	r5
 425              	.LVL49:
 161:/home/tienluong/workspace/atlantis_fw/AsicFwS2/src/lcc_cmd_base_0000.c **** 			}
 426              		.loc 1 161 0
 427 00b2 B9F80830 		ldrh	r3, [r9, #8]
 428 00b6 0333     		adds	r3, r3, #3
 429 00b8 A9F80830 		strh	r3, [r9, #8]	@ movhi
 430 00bc D4E7     		b	.L25
 431              	.LVL50:
 432              	.L26:
 433              	.LBB3:
 165:/home/tienluong/workspace/atlantis_fw/AsicFwS2/src/lcc_cmd_base_0000.c **** 				p_cmd.cmd_tid = in->tid;
 434              		.loc 1 165 0
 435 00be D0F808E0 		ldr	lr, [r0, #8]
 436              	.LVL51:
 166:/home/tienluong/workspace/atlantis_fw/AsicFwS2/src/lcc_cmd_base_0000.c **** 				p_cmd.event = IMG_EVENT_CAM_STREAM;
 437              		.loc 1 166 0
 438 00c2 6389     		ldrh	r3, [r4, #10]
 439 00c4 ADF81830 		strh	r3, [sp, #24]	@ movhi
 167:/home/tienluong/workspace/atlantis_fw/AsicFwS2/src/lcc_cmd_base_0000.c **** 				memcpy(&cam_status, cache->status, sizeof(uint32_t));
 440              		.loc 1 167 0
 441 00c8 0223     		movs	r3, #2
 442 00ca 0793     		str	r3, [sp, #28]
 168:/home/tienluong/workspace/atlantis_fw/AsicFwS2/src/lcc_cmd_base_0000.c **** 				control_status = in->data[data_idx + 0];
 443              		.loc 1 168 0
 444 00cc DEF80400 		ldr	r0, [lr, #4]	@ unaligned
 445              	.LVL52:
 169:/home/tienluong/workspace/atlantis_fw/AsicFwS2/src/lcc_cmd_base_0000.c **** 				uint8_t tx_ins = control_status & (BIT7 | BIT6 | BIT5 | BIT4);
 446              		.loc 1 169 0
 447 00d0 6368     		ldr	r3, [r4, #4]
 168:/home/tienluong/workspace/atlantis_fw/AsicFwS2/src/lcc_cmd_base_0000.c **** 				control_status = in->data[data_idx + 0];
 448              		.loc 1 168 0
 449 00d2 0490     		str	r0, [sp, #16]	@ unaligned
 169:/home/tienluong/workspace/atlantis_fw/AsicFwS2/src/lcc_cmd_base_0000.c **** 				uint8_t tx_ins = control_status & (BIT7 | BIT6 | BIT5 | BIT4);
 450              		.loc 1 169 0
 451 00d4 0198     		ldr	r0, [sp, #4]
 452 00d6 13F800A0 		ldrb	r10, [r3, r0]	@ zero_extendqisi2
 453              	.LVL53:
 454 00da 03EB000C 		add	ip, r3, r0
 171:/home/tienluong/workspace/atlantis_fw/AsicFwS2/src/lcc_cmd_base_0000.c **** 				if(CSI_0 != tx_ins && CSI_1 != tx_ins)
 455              		.loc 1 171 0
 456 00de 4FEA1A13 		lsr	r3, r10, #4
 457              	.LVL54:
 172:/home/tienluong/workspace/atlantis_fw/AsicFwS2/src/lcc_cmd_base_0000.c **** 				{
 458              		.loc 1 172 0
 459 00e2 581E     		subs	r0, r3, #1
 460 00e4 0128     		cmp	r0, #1
 461 00e6 05D9     		bls	.L27
 174:/home/tienluong/workspace/atlantis_fw/AsicFwS2/src/lcc_cmd_base_0000.c **** 					continue;
 462              		.loc 1 174 0
 463 00e8 2120     		movs	r0, #33
 464 00ea 0221     		movs	r1, #2
 465 00ec 6D4A     		ldr	r2, .L78+24
 466 00ee 6A4D     		ldr	r5, .L78+12
 467              	.LVL55:
 468 00f0 A847     		blx	r5
 469              	.LVL56:
 470 00f2 B9E7     		b	.L25
 471              	.LVL57:
 472              	.L27:
 178:/home/tienluong/workspace/atlantis_fw/AsicFwS2/src/lcc_cmd_base_0000.c **** 				memcpy(cache->stream, in->data + data_idx, cmd.size);
 473              		.loc 1 178 0
 474 00f4 F046     		mov	r8, lr
 177:/home/tienluong/workspace/atlantis_fw/AsicFwS2/src/lcc_cmd_base_0000.c **** 				memcpy(&old_stream_cache, cache->stream, cmd.size);
 475              		.loc 1 177 0
 476 00f6 0DF1200B 		add	fp, sp, #32
 181:/home/tienluong/workspace/atlantis_fw/AsicFwS2/src/lcc_cmd_base_0000.c **** 					(light_system->active_ucid != UCID_DEBUG))
 477              		.loc 1 181 0
 478 00fa 1AF0010F 		tst	r10, #1
 177:/home/tienluong/workspace/atlantis_fw/AsicFwS2/src/lcc_cmd_base_0000.c **** 				memcpy(&old_stream_cache, cache->stream, cmd.size);
 479              		.loc 1 177 0
 480 00fe 4BF80C1D 		str	r1, [fp, #-12]!
 178:/home/tienluong/workspace/atlantis_fw/AsicFwS2/src/lcc_cmd_base_0000.c **** 				memcpy(cache->stream, in->data + data_idx, cmd.size);
 481              		.loc 1 178 0
 482 0102 38F8011F 		ldrh	r1, [r8, #1]!	@ unaligned
 483 0106 98F80230 		ldrb	r3, [r8, #2]	@ zero_extendqisi2
 484              	.LVL58:
 485 010a ADF81410 		strh	r1, [sp, #20]	@ unaligned
 486 010e 8BF80230 		strb	r3, [fp, #2]
 179:/home/tienluong/workspace/atlantis_fw/AsicFwS2/src/lcc_cmd_base_0000.c **** 
 487              		.loc 1 179 0
 488 0112 BCF80030 		ldrh	r3, [ip]	@ unaligned
 489 0116 AEF80130 		strh	r3, [lr, #1]	@ unaligned
 490 011a 9CF80230 		ldrb	r3, [ip, #2]	@ zero_extendqisi2
 491 011e 88F80230 		strb	r3, [r8, #2]
 492 0122 614B     		ldr	r3, .L78+28
 181:/home/tienluong/workspace/atlantis_fw/AsicFwS2/src/lcc_cmd_base_0000.c **** 					(light_system->active_ucid != UCID_DEBUG))
 493              		.loc 1 181 0
 494 0124 40D0     		beq	.L28
 182:/home/tienluong/workspace/atlantis_fw/AsicFwS2/src/lcc_cmd_base_0000.c **** 				{
 495              		.loc 1 182 0 discriminator 1
 496 0126 D3F800A0 		ldr	r10, [r3]
 497              	.LVL59:
 181:/home/tienluong/workspace/atlantis_fw/AsicFwS2/src/lcc_cmd_base_0000.c **** 					(light_system->active_ucid != UCID_DEBUG))
 498              		.loc 1 181 0 discriminator 1
 499 012a BAF82610 		ldrh	r1, [r10, #38]
 500 012e 0229     		cmp	r1, #2
 501 0130 3AD0     		beq	.L28
 184:/home/tienluong/workspace/atlantis_fw/AsicFwS2/src/lcc_cmd_base_0000.c **** 					{
 502              		.loc 1 184 0
 503 0132 DAF81830 		ldr	r3, [r10, #24]
 504 0136 1A42     		tst	r2, r3
 505 0138 25D0     		beq	.L29
 186:/home/tienluong/workspace/atlantis_fw/AsicFwS2/src/lcc_cmd_base_0000.c **** 						{
 506              		.loc 1 186 0
 507 013a 049B     		ldr	r3, [sp, #16]
 508 013c 13F0080C 		ands	ip, r3, #8
 509 0140 1FD1     		bne	.L30
 188:/home/tienluong/workspace/atlantis_fw/AsicFwS2/src/lcc_cmd_base_0000.c **** 															pcam->info.module);
 510              		.loc 1 188 0
 511 0142 95F82930 		ldrb	r3, [r5, #41]	@ zero_extendqisi2
 512 0146 2120     		movs	r0, #33
 513              	.LVL60:
 514 0148 0221     		movs	r1, #2
 515 014a 584A     		ldr	r2, .L78+32
 516 014c 524D     		ldr	r5, .L78+12
 517              	.LVL61:
 518 014e CDF800C0 		str	ip, [sp]
 519              	.LVL62:
 520 0152 A847     		blx	r5
 521              	.LVL63:
 190:/home/tienluong/workspace/atlantis_fw/AsicFwS2/src/lcc_cmd_base_0000.c **** 							in->m_bitmask &= ~(light_system->m_filter);
 522              		.loc 1 190 0
 523 0154 564A     		ldr	r2, .L78+36
 524 0156 2120     		movs	r0, #33
 525 0158 0221     		movs	r1, #2
 526 015a A847     		blx	r5
 527              	.LVL64:
 191:/home/tienluong/workspace/atlantis_fw/AsicFwS2/src/lcc_cmd_base_0000.c **** 							in->status = LCC_CMD_UNSUCCESS;
 528              		.loc 1 191 0
 529 015c DAF81820 		ldr	r2, [r10, #24]
 530 0160 2368     		ldr	r3, [r4]
 192:/home/tienluong/workspace/atlantis_fw/AsicFwS2/src/lcc_cmd_base_0000.c **** 							memcpy(cache->stream, &old_stream_cache, cmd.size);
 531              		.loc 1 192 0
 532 0162 DDF800C0 		ldr	ip, [sp]
 191:/home/tienluong/workspace/atlantis_fw/AsicFwS2/src/lcc_cmd_base_0000.c **** 							in->status = LCC_CMD_UNSUCCESS;
 533              		.loc 1 191 0
 534 0166 23EA0203 		bic	r3, r3, r2
 193:/home/tienluong/workspace/atlantis_fw/AsicFwS2/src/lcc_cmd_base_0000.c **** 							return;
 535              		.loc 1 193 0
 536 016a BBF80020 		ldrh	r2, [fp]	@ unaligned
 192:/home/tienluong/workspace/atlantis_fw/AsicFwS2/src/lcc_cmd_base_0000.c **** 							memcpy(cache->stream, &old_stream_cache, cmd.size);
 537              		.loc 1 192 0
 538 016e A4F810C0 		strh	ip, [r4, #16]	@ movhi
 191:/home/tienluong/workspace/atlantis_fw/AsicFwS2/src/lcc_cmd_base_0000.c **** 							in->status = LCC_CMD_UNSUCCESS;
 539              		.loc 1 191 0
 540 0172 2360     		str	r3, [r4]
 193:/home/tienluong/workspace/atlantis_fw/AsicFwS2/src/lcc_cmd_base_0000.c **** 							return;
 541              		.loc 1 193 0
 542 0174 9BF80230 		ldrb	r3, [fp, #2]	@ zero_extendqisi2
 543 0178 A8F80020 		strh	r2, [r8]	@ unaligned
 544 017c 88F80230 		strb	r3, [r8, #2]
 545 0180 80E0     		b	.L20
 546              	.LVL65:
 547              	.L30:
 196:/home/tienluong/workspace/atlantis_fw/AsicFwS2/src/lcc_cmd_base_0000.c **** 					}
 548              		.loc 1 196 0
 549 0182 1643     		orrs	r6, r6, r2
 550              	.LVL66:
 551 0184 1AE0     		b	.L31
 552              	.L29:
 200:/home/tienluong/workspace/atlantis_fw/AsicFwS2/src/lcc_cmd_base_0000.c **** 						{
 553              		.loc 1 200 0
 554 0186 DAF81C30 		ldr	r3, [r10, #28]
 555 018a 1A42     		tst	r2, r3
 209:/home/tienluong/workspace/atlantis_fw/AsicFwS2/src/lcc_cmd_base_0000.c **** 						}
 556              		.loc 1 209 0
 557 018c 1EBF     		ittt	ne
 558 018e 009B     		ldrne	r3, [sp]
 559 0190 43F00403 		orrne	r3, r3, #4
 560 0194 0093     		strne	r3, [sp]
 561              	.LVL67:
 211:/home/tienluong/workspace/atlantis_fw/AsicFwS2/src/lcc_cmd_base_0000.c **** 						{
 562              		.loc 1 211 0
 563 0196 DAF82030 		ldr	r3, [r10, #32]
 564 019a 1A42     		tst	r2, r3
 565 019c 0ED0     		beq	.L31
 220:/home/tienluong/workspace/atlantis_fw/AsicFwS2/src/lcc_cmd_base_0000.c **** 						}
 566              		.loc 1 220 0
 567 019e 009B     		ldr	r3, [sp]
 568 01a0 43F00803 		orr	r3, r3, #8
 569 01a4 0093     		str	r3, [sp]
 570              	.LVL68:
 571 01a6 09E0     		b	.L31
 572              	.L28:
 226:/home/tienluong/workspace/atlantis_fw/AsicFwS2/src/lcc_cmd_base_0000.c **** 						xQueueSend(pcam->queue, &p_cmd, (TickType_t)10);
 573              		.loc 1 226 0
 574 01a8 1B68     		ldr	r3, [r3]
 575 01aa 9B69     		ldr	r3, [r3, #24]
 576 01ac 1A42     		tst	r2, r3
 577 01ae 05D0     		beq	.L31
 227:/home/tienluong/workspace/atlantis_fw/AsicFwS2/src/lcc_cmd_base_0000.c **** 				}
 578              		.loc 1 227 0
 579 01b0 686B     		ldr	r0, [r5, #52]
 580              	.LVL69:
 581 01b2 06A9     		add	r1, sp, #24
 582 01b4 0A22     		movs	r2, #10
 583 01b6 0023     		movs	r3, #0
 584 01b8 394D     		ldr	r5, .L78+20
 585              	.LVL70:
 586 01ba A847     		blx	r5
 587              	.LVL71:
 588              	.L31:
 589              		.loc 1 230 0
 590 01bc E37C     		ldrb	r3, [r4, #19]	@ zero_extendqisi2
 591 01be 019A     		ldr	r2, [sp, #4]
 592 01c0 13F0020F 		tst	r3, #2
 593 01c4 14BF     		ite	ne
 594 01c6 0023     		movne	r3, #0
 595 01c8 0323     		moveq	r3, #3
 596 01ca 1344     		add	r3, r3, r2
 597 01cc 9BB2     		uxth	r3, r3
 598 01ce 0193     		str	r3, [sp, #4]
 599              	.LVL72:
 600 01d0 4AE7     		b	.L25
 601              	.LVL73:
 602              	.L75:
 603              	.LBE3:
 231:/home/tienluong/workspace/atlantis_fw/AsicFwS2/src/lcc_cmd_base_0000.c **** 			}
 232:/home/tienluong/workspace/atlantis_fw/AsicFwS2/src/lcc_cmd_base_0000.c **** 		}
 233:/home/tienluong/workspace/atlantis_fw/AsicFwS2/src/lcc_cmd_base_0000.c **** 	}
 234:/home/tienluong/workspace/atlantis_fw/AsicFwS2/src/lcc_cmd_base_0000.c **** 
 235:/home/tienluong/workspace/atlantis_fw/AsicFwS2/src/lcc_cmd_base_0000.c **** 	if(stream_on_msk)
 604              		.loc 1 235 0
 605 01d2 002E     		cmp	r6, #0
 606 01d4 56D0     		beq	.L20
 236:/home/tienluong/workspace/atlantis_fw/AsicFwS2/src/lcc_cmd_base_0000.c **** 	{
 237:/home/tienluong/workspace/atlantis_fw/AsicFwS2/src/lcc_cmd_base_0000.c **** 		switch(light_system->active_ucid)
 607              		.loc 1 237 0
 608 01d6 344B     		ldr	r3, .L78+28
 609 01d8 1F68     		ldr	r7, [r3]
 610              	.LVL74:
 611 01da FB8C     		ldrh	r3, [r7, #38]
 612 01dc 032B     		cmp	r3, #3
 613 01de 0DD0     		beq	.L37
 614 01e0 052B     		cmp	r3, #5
 615 01e2 43D1     		bne	.L76
 238:/home/tienluong/workspace/atlantis_fw/AsicFwS2/src/lcc_cmd_base_0000.c **** 		{
 239:/home/tienluong/workspace/atlantis_fw/AsicFwS2/src/lcc_cmd_base_0000.c **** 			case UCID_PREVIEW:
 240:/home/tienluong/workspace/atlantis_fw/AsicFwS2/src/lcc_cmd_base_0000.c **** 			{
 241:/home/tienluong/workspace/atlantis_fw/AsicFwS2/src/lcc_cmd_base_0000.c **** 				int stream_off_bitmask = ~(stream_on_msk) & light_system->m_filter;
 242:/home/tienluong/workspace/atlantis_fw/AsicFwS2/src/lcc_cmd_base_0000.c **** 				cam_typedef_t *pcam = NULL;
 243:/home/tienluong/workspace/atlantis_fw/AsicFwS2/src/lcc_cmd_base_0000.c **** 				uint8_t cam_idx;
 244:/home/tienluong/workspace/atlantis_fw/AsicFwS2/src/lcc_cmd_base_0000.c **** 				uint32_t cs;
 245:/home/tienluong/workspace/atlantis_fw/AsicFwS2/src/lcc_cmd_base_0000.c **** 				for (uint8_t i = 0; __builtin_popcount(stream_off_bitmask) > 0; i++)
 246:/home/tienluong/workspace/atlantis_fw/AsicFwS2/src/lcc_cmd_base_0000.c **** 				{
 247:/home/tienluong/workspace/atlantis_fw/AsicFwS2/src/lcc_cmd_base_0000.c **** 					cam_idx = __builtin_ctz(stream_off_bitmask);
 248:/home/tienluong/workspace/atlantis_fw/AsicFwS2/src/lcc_cmd_base_0000.c **** 					stream_off_bitmask &= ~(1 << cam_idx);
 249:/home/tienluong/workspace/atlantis_fw/AsicFwS2/src/lcc_cmd_base_0000.c **** 					pcam = idx_to_object(cam_idx);
 250:/home/tienluong/workspace/atlantis_fw/AsicFwS2/src/lcc_cmd_base_0000.c **** 					if (pcam != NULL)
 251:/home/tienluong/workspace/atlantis_fw/AsicFwS2/src/lcc_cmd_base_0000.c **** 					{
 252:/home/tienluong/workspace/atlantis_fw/AsicFwS2/src/lcc_cmd_base_0000.c **** 						memcpy(&cs, pcam->settings->status, sizeof(uint32_t));
 253:/home/tienluong/workspace/atlantis_fw/AsicFwS2/src/lcc_cmd_base_0000.c **** 						if (cs & S_MODULE_STREAM_ON)
 254:/home/tienluong/workspace/atlantis_fw/AsicFwS2/src/lcc_cmd_base_0000.c **** 						{
 255:/home/tienluong/workspace/atlantis_fw/AsicFwS2/src/lcc_cmd_base_0000.c **** 							SLOGF(SLOG_ERROR, "Streaming off CAM-%X", pcam->info.module);
 256:/home/tienluong/workspace/atlantis_fw/AsicFwS2/src/lcc_cmd_base_0000.c **** 							cam_ctrl_stream(pcam);
 257:/home/tienluong/workspace/atlantis_fw/AsicFwS2/src/lcc_cmd_base_0000.c **** 						}
 258:/home/tienluong/workspace/atlantis_fw/AsicFwS2/src/lcc_cmd_base_0000.c **** 					}
 259:/home/tienluong/workspace/atlantis_fw/AsicFwS2/src/lcc_cmd_base_0000.c **** 				}
 260:/home/tienluong/workspace/atlantis_fw/AsicFwS2/src/lcc_cmd_base_0000.c **** 				while(rx_end_flag)
 261:/home/tienluong/workspace/atlantis_fw/AsicFwS2/src/lcc_cmd_base_0000.c **** 				{
 262:/home/tienluong/workspace/atlantis_fw/AsicFwS2/src/lcc_cmd_base_0000.c **** 					vTaskDelay(1);
 263:/home/tienluong/workspace/atlantis_fw/AsicFwS2/src/lcc_cmd_base_0000.c **** 				}
 264:/home/tienluong/workspace/atlantis_fw/AsicFwS2/src/lcc_cmd_base_0000.c **** 				ucid_preview_hdl(stream_on_msk, in->m_number);
 265:/home/tienluong/workspace/atlantis_fw/AsicFwS2/src/lcc_cmd_base_0000.c **** 				in->m_bitmask &= ~(light_system->m_filter);
 266:/home/tienluong/workspace/atlantis_fw/AsicFwS2/src/lcc_cmd_base_0000.c **** 				in->status = LCC_CMD_SUCCESS;
 267:/home/tienluong/workspace/atlantis_fw/AsicFwS2/src/lcc_cmd_base_0000.c **** 				break;
 268:/home/tienluong/workspace/atlantis_fw/AsicFwS2/src/lcc_cmd_base_0000.c **** 			}
 269:/home/tienluong/workspace/atlantis_fw/AsicFwS2/src/lcc_cmd_base_0000.c **** 			case UCID_HIRES_CAPTURE:
 270:/home/tienluong/workspace/atlantis_fw/AsicFwS2/src/lcc_cmd_base_0000.c **** 			{
 271:/home/tienluong/workspace/atlantis_fw/AsicFwS2/src/lcc_cmd_base_0000.c **** 				ucid_hires_hdl(stream_on_msk, in->m_number, wait_asics);
 616              		.loc 1 271 0
 617 01e4 009A     		ldr	r2, [sp]
 618 01e6 3046     		mov	r0, r6
 619 01e8 324B     		ldr	r3, .L78+40
 620 01ea 9847     		blx	r3
 621              	.LVL75:
 272:/home/tienluong/workspace/atlantis_fw/AsicFwS2/src/lcc_cmd_base_0000.c **** 				in->status = LCC_CMD_SUCCESS;
 622              		.loc 1 272 0
 623 01ec 0123     		movs	r3, #1
 273:/home/tienluong/workspace/atlantis_fw/AsicFwS2/src/lcc_cmd_base_0000.c **** #if (ASIC_NUM == ASIC1)
 274:/home/tienluong/workspace/atlantis_fw/AsicFwS2/src/lcc_cmd_base_0000.c **** 				in->m_bitmask = 0;
 275:/home/tienluong/workspace/atlantis_fw/AsicFwS2/src/lcc_cmd_base_0000.c **** #else
 276:/home/tienluong/workspace/atlantis_fw/AsicFwS2/src/lcc_cmd_base_0000.c **** 				in->m_bitmask &= ~(light_system->m_filter);
 624              		.loc 1 276 0
 625 01ee BA69     		ldr	r2, [r7, #24]
 272:/home/tienluong/workspace/atlantis_fw/AsicFwS2/src/lcc_cmd_base_0000.c **** 				in->status = LCC_CMD_SUCCESS;
 626              		.loc 1 272 0
 627 01f0 2382     		strh	r3, [r4, #16]	@ movhi
 628              		.loc 1 276 0
 629 01f2 2368     		ldr	r3, [r4]
 630 01f4 23EA0203 		bic	r3, r3, r2
 631 01f8 2360     		str	r3, [r4]
 277:/home/tienluong/workspace/atlantis_fw/AsicFwS2/src/lcc_cmd_base_0000.c **** #endif
 278:/home/tienluong/workspace/atlantis_fw/AsicFwS2/src/lcc_cmd_base_0000.c **** 				break;
 632              		.loc 1 278 0
 633 01fa 43E0     		b	.L20
 634              	.L37:
 635              	.LBB4:
 241:/home/tienluong/workspace/atlantis_fw/AsicFwS2/src/lcc_cmd_base_0000.c **** 				cam_typedef_t *pcam = NULL;
 636              		.loc 1 241 0
 637 01fc BD69     		ldr	r5, [r7, #24]
 638 01fe 25EA0605 		bic	r5, r5, r6
 639              	.LVL76:
 640              	.L39:
 641              	.LBB5:
 245:/home/tienluong/workspace/atlantis_fw/AsicFwS2/src/lcc_cmd_base_0000.c **** 				{
 642              		.loc 1 245 0 discriminator 1
 643 0202 2846     		mov	r0, r5
 644 0204 2C4B     		ldr	r3, .L78+44
 645 0206 9847     		blx	r3
 646              	.LVL77:
 647 0208 F0B1     		cbz	r0, .L44
 248:/home/tienluong/workspace/atlantis_fw/AsicFwS2/src/lcc_cmd_base_0000.c **** 					pcam = idx_to_object(cam_idx);
 648              		.loc 1 248 0
 649 020a 0123     		movs	r3, #1
 247:/home/tienluong/workspace/atlantis_fw/AsicFwS2/src/lcc_cmd_base_0000.c **** 					stream_off_bitmask &= ~(1 << cam_idx);
 650              		.loc 1 247 0
 651 020c 95FAA5F0 		rbit	r0, r5
 652 0210 B0FA80F0 		clz	r0, r0
 653              	.LVL78:
 248:/home/tienluong/workspace/atlantis_fw/AsicFwS2/src/lcc_cmd_base_0000.c **** 					pcam = idx_to_object(cam_idx);
 654              		.loc 1 248 0
 655 0214 8340     		lsls	r3, r3, r0
 656 0216 25EA0305 		bic	r5, r5, r3
 657              	.LVL79:
 249:/home/tienluong/workspace/atlantis_fw/AsicFwS2/src/lcc_cmd_base_0000.c **** 					if (pcam != NULL)
 658              		.loc 1 249 0
 659 021a 204B     		ldr	r3, .L78+16
 660 021c 9847     		blx	r3
 661              	.LVL80:
 250:/home/tienluong/workspace/atlantis_fw/AsicFwS2/src/lcc_cmd_base_0000.c **** 					{
 662              		.loc 1 250 0
 663 021e 8046     		mov	r8, r0
 664 0220 0028     		cmp	r0, #0
 665 0222 EED0     		beq	.L39
 252:/home/tienluong/workspace/atlantis_fw/AsicFwS2/src/lcc_cmd_base_0000.c **** 						if (cs & S_MODULE_STREAM_ON)
 666              		.loc 1 252 0
 667 0224 8368     		ldr	r3, [r0, #8]
 668 0226 5868     		ldr	r0, [r3, #4]	@ unaligned
 669              	.LVL81:
 670 0228 0590     		str	r0, [sp, #20]	@ unaligned
 253:/home/tienluong/workspace/atlantis_fw/AsicFwS2/src/lcc_cmd_base_0000.c **** 						{
 671              		.loc 1 253 0
 672 022a 059B     		ldr	r3, [sp, #20]
 673 022c DB06     		lsls	r3, r3, #27
 674 022e E8D5     		bpl	.L39
 255:/home/tienluong/workspace/atlantis_fw/AsicFwS2/src/lcc_cmd_base_0000.c **** 							cam_ctrl_stream(pcam);
 675              		.loc 1 255 0
 676 0230 98F82930 		ldrb	r3, [r8, #41]	@ zero_extendqisi2
 677 0234 2120     		movs	r0, #33
 678 0236 0221     		movs	r1, #2
 679 0238 204A     		ldr	r2, .L78+48
 680 023a DFF85CC0 		ldr	ip, .L78+12
 681 023e E047     		blx	ip
 682              	.LVL82:
 256:/home/tienluong/workspace/atlantis_fw/AsicFwS2/src/lcc_cmd_base_0000.c **** 						}
 683              		.loc 1 256 0
 684 0240 4046     		mov	r0, r8
 685 0242 1F4B     		ldr	r3, .L78+52
 686 0244 9847     		blx	r3
 687              	.LVL83:
 688 0246 DCE7     		b	.L39
 689              	.LVL84:
 690              	.L44:
 691              	.LBE5:
 260:/home/tienluong/workspace/atlantis_fw/AsicFwS2/src/lcc_cmd_base_0000.c **** 				{
 692              		.loc 1 260 0
 693 0248 1E4B     		ldr	r3, .L78+56
 694 024a 1B78     		ldrb	r3, [r3]	@ zero_extendqisi2
 695 024c 1BB1     		cbz	r3, .L77
 262:/home/tienluong/workspace/atlantis_fw/AsicFwS2/src/lcc_cmd_base_0000.c **** 				}
 696              		.loc 1 262 0
 697 024e 0120     		movs	r0, #1
 698 0250 1D4B     		ldr	r3, .L78+60
 699 0252 9847     		blx	r3
 700              	.LVL85:
 701 0254 F8E7     		b	.L44
 702              	.L77:
 264:/home/tienluong/workspace/atlantis_fw/AsicFwS2/src/lcc_cmd_base_0000.c **** 				in->m_bitmask &= ~(light_system->m_filter);
 703              		.loc 1 264 0
 704 0256 1D4B     		ldr	r3, .L78+64
 705 0258 3046     		mov	r0, r6
 706 025a A17C     		ldrb	r1, [r4, #18]	@ zero_extendqisi2
 707 025c 9847     		blx	r3
 708              	.LVL86:
 265:/home/tienluong/workspace/atlantis_fw/AsicFwS2/src/lcc_cmd_base_0000.c **** 				in->status = LCC_CMD_SUCCESS;
 709              		.loc 1 265 0
 710 025e BA69     		ldr	r2, [r7, #24]
 711 0260 2368     		ldr	r3, [r4]
 712 0262 23EA0203 		bic	r3, r3, r2
 713 0266 2360     		str	r3, [r4]
 266:/home/tienluong/workspace/atlantis_fw/AsicFwS2/src/lcc_cmd_base_0000.c **** 				break;
 714              		.loc 1 266 0
 715 0268 0123     		movs	r3, #1
 716 026a 0AE0     		b	.L73
 717              	.LVL87:
 718              	.L76:
 719              	.LBE4:
 279:/home/tienluong/workspace/atlantis_fw/AsicFwS2/src/lcc_cmd_base_0000.c **** 			}
 280:/home/tienluong/workspace/atlantis_fw/AsicFwS2/src/lcc_cmd_base_0000.c **** 			default:
 281:/home/tienluong/workspace/atlantis_fw/AsicFwS2/src/lcc_cmd_base_0000.c **** 			{
 282:/home/tienluong/workspace/atlantis_fw/AsicFwS2/src/lcc_cmd_base_0000.c **** 				SLOGF(SLOG_ERROR, "Unsupported UCID %x", light_system->active_ucid);
 720              		.loc 1 282 0
 721 026c 184A     		ldr	r2, .L78+68
 722 026e 2120     		movs	r0, #33
 723 0270 0221     		movs	r1, #2
 724 0272 094D     		ldr	r5, .L78+12
 725 0274 A847     		blx	r5
 726              	.LVL88:
 283:/home/tienluong/workspace/atlantis_fw/AsicFwS2/src/lcc_cmd_base_0000.c **** #if (ASIC_NUM == ASIC1)
 284:/home/tienluong/workspace/atlantis_fw/AsicFwS2/src/lcc_cmd_base_0000.c **** 				in->m_bitmask = 0;
 285:/home/tienluong/workspace/atlantis_fw/AsicFwS2/src/lcc_cmd_base_0000.c **** #else
 286:/home/tienluong/workspace/atlantis_fw/AsicFwS2/src/lcc_cmd_base_0000.c **** 				in->m_bitmask &= ~(light_system->m_filter);
 727              		.loc 1 286 0
 728 0276 BA69     		ldr	r2, [r7, #24]
 729 0278 2368     		ldr	r3, [r4]
 730 027a 23EA0203 		bic	r3, r3, r2
 731 027e 2360     		str	r3, [r4]
 287:/home/tienluong/workspace/atlantis_fw/AsicFwS2/src/lcc_cmd_base_0000.c **** #endif
 288:/home/tienluong/workspace/atlantis_fw/AsicFwS2/src/lcc_cmd_base_0000.c **** 				in->status = LCC_CMD_UNSUCCESS;
 732              		.loc 1 288 0
 733 0280 0023     		movs	r3, #0
 734              	.L73:
 735 0282 2382     		strh	r3, [r4, #16]	@ movhi
 736              	.LVL89:
 737              	.L20:
 289:/home/tienluong/workspace/atlantis_fw/AsicFwS2/src/lcc_cmd_base_0000.c **** 				break;
 290:/home/tienluong/workspace/atlantis_fw/AsicFwS2/src/lcc_cmd_base_0000.c **** 			}
 291:/home/tienluong/workspace/atlantis_fw/AsicFwS2/src/lcc_cmd_base_0000.c **** 		}
 292:/home/tienluong/workspace/atlantis_fw/AsicFwS2/src/lcc_cmd_base_0000.c **** 	}
 293:/home/tienluong/workspace/atlantis_fw/AsicFwS2/src/lcc_cmd_base_0000.c **** 	else
 294:/home/tienluong/workspace/atlantis_fw/AsicFwS2/src/lcc_cmd_base_0000.c **** 	{
 295:/home/tienluong/workspace/atlantis_fw/AsicFwS2/src/lcc_cmd_base_0000.c **** #if (ASIC_NUM == ASIC1)
 296:/home/tienluong/workspace/atlantis_fw/AsicFwS2/src/lcc_cmd_base_0000.c **** 		if(light_system->active_ucid == UCID_HIRES_CAPTURE)
 297:/home/tienluong/workspace/atlantis_fw/AsicFwS2/src/lcc_cmd_base_0000.c **** 		{
 298:/home/tienluong/workspace/atlantis_fw/AsicFwS2/src/lcc_cmd_base_0000.c **** 			if(!wait_asics)
 299:/home/tienluong/workspace/atlantis_fw/AsicFwS2/src/lcc_cmd_base_0000.c **** 			{
 300:/home/tienluong/workspace/atlantis_fw/AsicFwS2/src/lcc_cmd_base_0000.c **** 				in->status = LCC_CMD_SUCCESS;
 301:/home/tienluong/workspace/atlantis_fw/AsicFwS2/src/lcc_cmd_base_0000.c **** 			}
 302:/home/tienluong/workspace/atlantis_fw/AsicFwS2/src/lcc_cmd_base_0000.c **** 			else if(wait_asics == wait_intr_signal(wait_asics, 1000, 1))
 303:/home/tienluong/workspace/atlantis_fw/AsicFwS2/src/lcc_cmd_base_0000.c **** 			{
 304:/home/tienluong/workspace/atlantis_fw/AsicFwS2/src/lcc_cmd_base_0000.c **** 				SLOGF(SLOG_INFO, "Sending interrupt signal");
 305:/home/tienluong/workspace/atlantis_fw/AsicFwS2/src/lcc_cmd_base_0000.c **** 				send_hw_sync_trigger();
 306:/home/tienluong/workspace/atlantis_fw/AsicFwS2/src/lcc_cmd_base_0000.c **** 				in->status = LCC_CMD_SUCCESS;
 307:/home/tienluong/workspace/atlantis_fw/AsicFwS2/src/lcc_cmd_base_0000.c **** 			}
 308:/home/tienluong/workspace/atlantis_fw/AsicFwS2/src/lcc_cmd_base_0000.c **** 			else
 309:/home/tienluong/workspace/atlantis_fw/AsicFwS2/src/lcc_cmd_base_0000.c **** 			{
 310:/home/tienluong/workspace/atlantis_fw/AsicFwS2/src/lcc_cmd_base_0000.c **** 				SLOGF(SLOG_ERROR, "Timeout waiting for interrupt signal");
 311:/home/tienluong/workspace/atlantis_fw/AsicFwS2/src/lcc_cmd_base_0000.c **** 				in->status = LCC_CMD_UNSUCCESS;
 312:/home/tienluong/workspace/atlantis_fw/AsicFwS2/src/lcc_cmd_base_0000.c **** 			}
 313:/home/tienluong/workspace/atlantis_fw/AsicFwS2/src/lcc_cmd_base_0000.c **** 		}
 314:/home/tienluong/workspace/atlantis_fw/AsicFwS2/src/lcc_cmd_base_0000.c **** 		else
 315:/home/tienluong/workspace/atlantis_fw/AsicFwS2/src/lcc_cmd_base_0000.c **** 		{
 316:/home/tienluong/workspace/atlantis_fw/AsicFwS2/src/lcc_cmd_base_0000.c **** 			in->status = LCC_CMD_UNSUCCESS;
 317:/home/tienluong/workspace/atlantis_fw/AsicFwS2/src/lcc_cmd_base_0000.c **** 		}
 318:/home/tienluong/workspace/atlantis_fw/AsicFwS2/src/lcc_cmd_base_0000.c **** #endif
 319:/home/tienluong/workspace/atlantis_fw/AsicFwS2/src/lcc_cmd_base_0000.c **** 	}
 320:/home/tienluong/workspace/atlantis_fw/AsicFwS2/src/lcc_cmd_base_0000.c **** 	/* The command status will be updated in either lcc_cmd task
 321:/home/tienluong/workspace/atlantis_fw/AsicFwS2/src/lcc_cmd_base_0000.c **** 	 * (read command) or task_cam_ctrl (write command) */
 322:/home/tienluong/workspace/atlantis_fw/AsicFwS2/src/lcc_cmd_base_0000.c **** }
 738              		.loc 1 322 0
 739 0284 09B0     		add	sp, sp, #36
 740              	.LCFI5:
 741              		.cfi_def_cfa_offset 36
 742              		@ sp needed
 743 0286 BDE8F08F 		pop	{r4, r5, r6, r7, r8, r9, r10, fp, pc}
 744              	.LVL90:
 745              	.L79:
 746 028a 00BF     		.align	2
 747              	.L78:
 748 028c 00000000 		.word	.LANCHOR1
 749 0290 00000000 		.word	pvPortMalloc1
 750 0294 00000000 		.word	.LC0
 751 0298 00000000 		.word	slogf
 752 029c 00000000 		.word	idx_to_object
 753 02a0 00000000 		.word	xQueueGenericSend
 754 02a4 3A000000 		.word	.LC3
 755 02a8 00000000 		.word	light_system
 756 02ac 50000000 		.word	.LC4
 757 02b0 69000000 		.word	.LC5
 758 02b4 00000000 		.word	ucid_hires_hdl
 759 02b8 00000000 		.word	__popcountsi2
 760 02bc 84000000 		.word	.LC6
 761 02c0 00000000 		.word	cam_ctrl_stream
 762 02c4 00000000 		.word	rx_end_flag
 763 02c8 00000000 		.word	vTaskDelay
 764 02cc 00000000 		.word	ucid_preview_hdl
 765 02d0 99000000 		.word	.LC7
 766 02d4 00000000 		.word	xQueueGenericReceive
 767              		.cfi_endproc
 768              	.LFE2:
 770              		.section	.text.cmd_cam_burst_requested,"ax",%progbits
 771              		.align	1
 772              		.global	cmd_cam_burst_requested
 773              		.thumb
 774              		.thumb_func
 776              	cmd_cam_burst_requested:
 777              	.LFB3:
 323:/home/tienluong/workspace/atlantis_fw/AsicFwS2/src/lcc_cmd_base_0000.c **** 
 324:/home/tienluong/workspace/atlantis_fw/AsicFwS2/src/lcc_cmd_base_0000.c **** /**
 325:/home/tienluong/workspace/atlantis_fw/AsicFwS2/src/lcc_cmd_base_0000.c ****  * cmd_cam_burst_requested
 326:/home/tienluong/workspace/atlantis_fw/AsicFwS2/src/lcc_cmd_base_0000.c ****  *
 327:/home/tienluong/workspace/atlantis_fw/AsicFwS2/src/lcc_cmd_base_0000.c ****  */
 328:/home/tienluong/workspace/atlantis_fw/AsicFwS2/src/lcc_cmd_base_0000.c **** void cmd_cam_burst_requested(lcc_cmd_t *in, lcc_cmd_t *out)
 329:/home/tienluong/workspace/atlantis_fw/AsicFwS2/src/lcc_cmd_base_0000.c **** {
 778              		.loc 1 329 0
 779              		.cfi_startproc
 780              		@ args = 0, pretend = 0, frame = 0
 781              		@ frame_needed = 0, uses_anonymous_args = 0
 782              	.LVL91:
 783 0000 2DE9F041 		push	{r4, r5, r6, r7, r8, lr}
 784              	.LCFI6:
 785              		.cfi_def_cfa_offset 24
 786              		.cfi_offset 4, -24
 787              		.cfi_offset 5, -20
 788              		.cfi_offset 6, -16
 789              		.cfi_offset 7, -12
 790              		.cfi_offset 8, -8
 791              		.cfi_offset 14, -4
 330:/home/tienluong/workspace/atlantis_fw/AsicFwS2/src/lcc_cmd_base_0000.c **** 	lcc_cmd_info_t cmd = (lcc_cmd_info_t)(LCC_CMD_CAM_BURST_REQUESTED);
 331:/home/tienluong/workspace/atlantis_fw/AsicFwS2/src/lcc_cmd_base_0000.c **** 	uint16_t ucid = in->ucid;
 332:/home/tienluong/workspace/atlantis_fw/AsicFwS2/src/lcc_cmd_base_0000.c **** 	/* Read command processing */
 333:/home/tienluong/workspace/atlantis_fw/AsicFwS2/src/lcc_cmd_base_0000.c **** 	if (CMD_READ == in->action)
 792              		.loc 1 333 0
 793 0004 C37C     		ldrb	r3, [r0, #19]	@ zero_extendqisi2
 331:/home/tienluong/workspace/atlantis_fw/AsicFwS2/src/lcc_cmd_base_0000.c **** 	/* Read command processing */
 794              		.loc 1 331 0
 795 0006 C489     		ldrh	r4, [r0, #14]
 796              	.LVL92:
 797              		.loc 1 333 0
 798 0008 13F0010F 		tst	r3, #1
 329:/home/tienluong/workspace/atlantis_fw/AsicFwS2/src/lcc_cmd_base_0000.c **** 	lcc_cmd_info_t cmd = (lcc_cmd_info_t)(LCC_CMD_CAM_BURST_REQUESTED);
 799              		.loc 1 329 0
 800 000c 0546     		mov	r5, r0
 801 000e 0F46     		mov	r7, r1
 802 0010 1E4E     		ldr	r6, .L84
 803              		.loc 1 333 0
 804 0012 27D0     		beq	.L81
 334:/home/tienluong/workspace/atlantis_fw/AsicFwS2/src/lcc_cmd_base_0000.c **** 	{
 335:/home/tienluong/workspace/atlantis_fw/AsicFwS2/src/lcc_cmd_base_0000.c **** 		out->data = pvPortMalloc(cmd.size);
 805              		.loc 1 335 0
 806 0014 0120     		movs	r0, #1
 807              	.LVL93:
 808 0016 1E49     		ldr	r1, .L84+4
 809              	.LVL94:
 810 0018 40F24F12 		movw	r2, #335
 811 001c 1D4B     		ldr	r3, .L84+8
 812 001e 9847     		blx	r3
 813              	.LVL95:
 814 0020 8046     		mov	r8, r0
 815 0022 7860     		str	r0, [r7, #4]
 336:/home/tienluong/workspace/atlantis_fw/AsicFwS2/src/lcc_cmd_base_0000.c **** 		if (NULL == out->data)
 816              		.loc 1 336 0
 817 0024 40B9     		cbnz	r0, .L82
 337:/home/tienluong/workspace/atlantis_fw/AsicFwS2/src/lcc_cmd_base_0000.c **** 		{
 338:/home/tienluong/workspace/atlantis_fw/AsicFwS2/src/lcc_cmd_base_0000.c **** 			SLOGF(SLOG_ERROR, "%s: Lack of memory", __FUNCTION__);
 818              		.loc 1 338 0
 819 0026 2120     		movs	r0, #33
 820 0028 0221     		movs	r1, #2
 821 002a 1B4A     		ldr	r2, .L84+12
 822 002c 184B     		ldr	r3, .L84+4
 823 002e B047     		blx	r6
 824              	.LVL96:
 339:/home/tienluong/workspace/atlantis_fw/AsicFwS2/src/lcc_cmd_base_0000.c **** 			in->status = LCC_CMD_UNSUCCESS;
 825              		.loc 1 339 0
 826 0030 A5F81080 		strh	r8, [r5, #16]	@ movhi
 827 0034 BDE8F081 		pop	{r4, r5, r6, r7, r8, pc}
 828              	.LVL97:
 829              	.L82:
 340:/home/tienluong/workspace/atlantis_fw/AsicFwS2/src/lcc_cmd_base_0000.c **** 			return;
 341:/home/tienluong/workspace/atlantis_fw/AsicFwS2/src/lcc_cmd_base_0000.c **** 		}
 342:/home/tienluong/workspace/atlantis_fw/AsicFwS2/src/lcc_cmd_base_0000.c **** 		SLOGF(SLOG_DEBUG, "Requested burst %d",
 830              		.loc 1 342 0
 831 0038 184B     		ldr	r3, .L84+16
 832 003a 04EB4404 		add	r4, r4, r4, lsl #1
 833              	.LVL98:
 834 003e 184A     		ldr	r2, .L84+20
 835 0040 2120     		movs	r0, #33
 836 0042 1021     		movs	r1, #16
 837 0044 1D68     		ldr	r5, [r3]
 838              	.LVL99:
 839 0046 AB68     		ldr	r3, [r5, #8]
 840 0048 2344     		add	r3, r3, r4
 841 004a 93F82F30 		ldrb	r3, [r3, #47]	@ zero_extendqisi2
 842 004e B047     		blx	r6
 843              	.LVL100:
 343:/home/tienluong/workspace/atlantis_fw/AsicFwS2/src/lcc_cmd_base_0000.c **** 									light_system->settings->burst[ucid].burst_requested);
 344:/home/tienluong/workspace/atlantis_fw/AsicFwS2/src/lcc_cmd_base_0000.c **** 		/* TODO: Take semaphore to access settings memory */
 345:/home/tienluong/workspace/atlantis_fw/AsicFwS2/src/lcc_cmd_base_0000.c **** 		memcpy(out->data, &light_system->settings->burst[ucid].burst_requested, cmd.size);
 844              		.loc 1 345 0
 845 0050 AA68     		ldr	r2, [r5, #8]
 846 0052 7B68     		ldr	r3, [r7, #4]
 847 0054 1444     		add	r4, r4, r2
 848 0056 94F82F20 		ldrb	r2, [r4, #47]	@ zero_extendqisi2
 849 005a 1A70     		strb	r2, [r3]
 346:/home/tienluong/workspace/atlantis_fw/AsicFwS2/src/lcc_cmd_base_0000.c **** 		/* TODO: Release semaphore after read data */
 347:/home/tienluong/workspace/atlantis_fw/AsicFwS2/src/lcc_cmd_base_0000.c **** 		out->len = cmd.size;
 850              		.loc 1 347 0
 851 005c 0123     		movs	r3, #1
 852 005e 3B81     		strh	r3, [r7, #8]	@ movhi
 853 0060 BDE8F081 		pop	{r4, r5, r6, r7, r8, pc}
 854              	.LVL101:
 855              	.L81:
 348:/home/tienluong/workspace/atlantis_fw/AsicFwS2/src/lcc_cmd_base_0000.c **** 	}
 349:/home/tienluong/workspace/atlantis_fw/AsicFwS2/src/lcc_cmd_base_0000.c **** 	else
 350:/home/tienluong/workspace/atlantis_fw/AsicFwS2/src/lcc_cmd_base_0000.c **** 	{
 351:/home/tienluong/workspace/atlantis_fw/AsicFwS2/src/lcc_cmd_base_0000.c **** 
 352:/home/tienluong/workspace/atlantis_fw/AsicFwS2/src/lcc_cmd_base_0000.c **** 
 353:/home/tienluong/workspace/atlantis_fw/AsicFwS2/src/lcc_cmd_base_0000.c **** 		SLOGF(SLOG_DEBUG, "Requested burst %d", in->data[0]);
 856              		.loc 1 353 0
 857 0064 4368     		ldr	r3, [r0, #4]
 858 0066 1021     		movs	r1, #16
 859              	.LVL102:
 860 0068 0D4A     		ldr	r2, .L84+20
 861 006a 1B78     		ldrb	r3, [r3]	@ zero_extendqisi2
 862 006c 2120     		movs	r0, #33
 863              	.LVL103:
 864 006e B047     		blx	r6
 865              	.LVL104:
 354:/home/tienluong/workspace/atlantis_fw/AsicFwS2/src/lcc_cmd_base_0000.c **** 		/* TODO: Take semaphore to access settings memory */
 355:/home/tienluong/workspace/atlantis_fw/AsicFwS2/src/lcc_cmd_base_0000.c **** 		light_system->settings->burst[ucid].burst_requested = in->data[0];
 866              		.loc 1 355 0
 867 0070 0A4B     		ldr	r3, .L84+16
 868 0072 04EB4404 		add	r4, r4, r4, lsl #1
 869              	.LVL105:
 870 0076 1B68     		ldr	r3, [r3]
 871 0078 9A68     		ldr	r2, [r3, #8]
 872 007a 6B68     		ldr	r3, [r5, #4]
 873 007c 1B78     		ldrb	r3, [r3]	@ zero_extendqisi2
 874 007e 1444     		add	r4, r4, r2
 875 0080 84F82F30 		strb	r3, [r4, #47]
 356:/home/tienluong/workspace/atlantis_fw/AsicFwS2/src/lcc_cmd_base_0000.c **** 		/* TODO: Release semaphore after read data */
 357:/home/tienluong/workspace/atlantis_fw/AsicFwS2/src/lcc_cmd_base_0000.c **** 		/* Update the command status */
 358:/home/tienluong/workspace/atlantis_fw/AsicFwS2/src/lcc_cmd_base_0000.c **** 		in->status = LCC_CMD_SUCCESS;
 876              		.loc 1 358 0
 877 0084 0123     		movs	r3, #1
 878 0086 2B82     		strh	r3, [r5, #16]	@ movhi
 879 0088 BDE8F081 		pop	{r4, r5, r6, r7, r8, pc}
 880              	.LVL106:
 881              	.L85:
 882              		.align	2
 883              	.L84:
 884 008c 00000000 		.word	slogf
 885 0090 00000000 		.word	.LANCHOR2
 886 0094 00000000 		.word	pvPortMalloc1
 887 0098 00000000 		.word	.LC0
 888 009c 00000000 		.word	light_system
 889 00a0 AD000000 		.word	.LC8
 890              		.cfi_endproc
 891              	.LFE3:
 893              		.section	.text.cmd_cam_burst_available,"ax",%progbits
 894              		.align	1
 895              		.global	cmd_cam_burst_available
 896              		.thumb
 897              		.thumb_func
 899              	cmd_cam_burst_available:
 900              	.LFB4:
 359:/home/tienluong/workspace/atlantis_fw/AsicFwS2/src/lcc_cmd_base_0000.c **** 	}
 360:/home/tienluong/workspace/atlantis_fw/AsicFwS2/src/lcc_cmd_base_0000.c **** }
 361:/home/tienluong/workspace/atlantis_fw/AsicFwS2/src/lcc_cmd_base_0000.c **** /**
 362:/home/tienluong/workspace/atlantis_fw/AsicFwS2/src/lcc_cmd_base_0000.c ****  * cmd_cam_burst_available
 363:/home/tienluong/workspace/atlantis_fw/AsicFwS2/src/lcc_cmd_base_0000.c ****  *
 364:/home/tienluong/workspace/atlantis_fw/AsicFwS2/src/lcc_cmd_base_0000.c ****  */
 365:/home/tienluong/workspace/atlantis_fw/AsicFwS2/src/lcc_cmd_base_0000.c **** void cmd_cam_burst_available(lcc_cmd_t *in, lcc_cmd_t *out)
 366:/home/tienluong/workspace/atlantis_fw/AsicFwS2/src/lcc_cmd_base_0000.c **** {
 901              		.loc 1 366 0
 902              		.cfi_startproc
 903              		@ args = 0, pretend = 0, frame = 0
 904              		@ frame_needed = 0, uses_anonymous_args = 0
 905              	.LVL107:
 906 0000 F8B5     		push	{r3, r4, r5, r6, r7, lr}
 907              	.LCFI7:
 908              		.cfi_def_cfa_offset 24
 909              		.cfi_offset 3, -24
 910              		.cfi_offset 4, -20
 911              		.cfi_offset 5, -16
 912              		.cfi_offset 6, -12
 913              		.cfi_offset 7, -8
 914              		.cfi_offset 14, -4
 367:/home/tienluong/workspace/atlantis_fw/AsicFwS2/src/lcc_cmd_base_0000.c **** 	lcc_cmd_info_t cmd = (lcc_cmd_info_t)(LCC_CMD_CAM_BURST_AVAILABLE);
 368:/home/tienluong/workspace/atlantis_fw/AsicFwS2/src/lcc_cmd_base_0000.c **** 	uint16_t ucid = in->ucid;
 369:/home/tienluong/workspace/atlantis_fw/AsicFwS2/src/lcc_cmd_base_0000.c **** 	/* Read command processing */
 370:/home/tienluong/workspace/atlantis_fw/AsicFwS2/src/lcc_cmd_base_0000.c **** 	if (CMD_READ == in->action)
 915              		.loc 1 370 0
 916 0002 C37C     		ldrb	r3, [r0, #19]	@ zero_extendqisi2
 368:/home/tienluong/workspace/atlantis_fw/AsicFwS2/src/lcc_cmd_base_0000.c **** 	/* Read command processing */
 917              		.loc 1 368 0
 918 0004 C489     		ldrh	r4, [r0, #14]
 919              	.LVL108:
 920              		.loc 1 370 0
 921 0006 DB07     		lsls	r3, r3, #31
 366:/home/tienluong/workspace/atlantis_fw/AsicFwS2/src/lcc_cmd_base_0000.c **** 	lcc_cmd_info_t cmd = (lcc_cmd_info_t)(LCC_CMD_CAM_BURST_AVAILABLE);
 922              		.loc 1 366 0
 923 0008 0546     		mov	r5, r0
 924 000a 0F46     		mov	r7, r1
 925              		.loc 1 370 0
 926 000c 1FD5     		bpl	.L86
 371:/home/tienluong/workspace/atlantis_fw/AsicFwS2/src/lcc_cmd_base_0000.c **** 	{
 372:/home/tienluong/workspace/atlantis_fw/AsicFwS2/src/lcc_cmd_base_0000.c **** 		out->data = pvPortMalloc(cmd.size);
 927              		.loc 1 372 0
 928 000e 0020     		movs	r0, #0
 929              	.LVL109:
 930 0010 0F49     		ldr	r1, .L92
 931              	.LVL110:
 932 0012 4FF4BA72 		mov	r2, #372
 933 0016 0F4B     		ldr	r3, .L92+4
 934 0018 9847     		blx	r3
 935              	.LVL111:
 936 001a DFF848C0 		ldr	ip, .L92+20
 937 001e 0646     		mov	r6, r0
 938 0020 7860     		str	r0, [r7, #4]
 373:/home/tienluong/workspace/atlantis_fw/AsicFwS2/src/lcc_cmd_base_0000.c **** 		if (NULL == out->data)
 939              		.loc 1 373 0
 940 0022 30B9     		cbnz	r0, .L88
 374:/home/tienluong/workspace/atlantis_fw/AsicFwS2/src/lcc_cmd_base_0000.c **** 		{
 375:/home/tienluong/workspace/atlantis_fw/AsicFwS2/src/lcc_cmd_base_0000.c **** 			SLOGF(SLOG_ERROR, "%s: Lack of memory", __FUNCTION__);
 941              		.loc 1 375 0
 942 0024 2120     		movs	r0, #33
 943 0026 0221     		movs	r1, #2
 944 0028 0B4A     		ldr	r2, .L92+8
 945 002a 094B     		ldr	r3, .L92
 946 002c E047     		blx	ip
 947              	.LVL112:
 376:/home/tienluong/workspace/atlantis_fw/AsicFwS2/src/lcc_cmd_base_0000.c **** 			in->status = LCC_CMD_UNSUCCESS;
 948              		.loc 1 376 0
 949 002e 2E82     		strh	r6, [r5, #16]	@ movhi
 950 0030 F8BD     		pop	{r3, r4, r5, r6, r7, pc}
 951              	.LVL113:
 952              	.L88:
 377:/home/tienluong/workspace/atlantis_fw/AsicFwS2/src/lcc_cmd_base_0000.c **** 			return;
 378:/home/tienluong/workspace/atlantis_fw/AsicFwS2/src/lcc_cmd_base_0000.c **** 		}
 379:/home/tienluong/workspace/atlantis_fw/AsicFwS2/src/lcc_cmd_base_0000.c **** 		SLOGF(SLOG_DEBUG, "Available burst %d",
 953              		.loc 1 379 0
 954 0032 0A4B     		ldr	r3, .L92+12
 955 0034 04EB4404 		add	r4, r4, r4, lsl #1
 956              	.LVL114:
 957 0038 2120     		movs	r0, #33
 958 003a 1021     		movs	r1, #16
 959 003c 1B68     		ldr	r3, [r3]
 960 003e 084A     		ldr	r2, .L92+16
 961 0040 9B68     		ldr	r3, [r3, #8]
 962 0042 1C44     		add	r4, r4, r3
 963 0044 94F83030 		ldrb	r3, [r4, #48]	@ zero_extendqisi2
 964 0048 E047     		blx	ip
 965              	.LVL115:
 380:/home/tienluong/workspace/atlantis_fw/AsicFwS2/src/lcc_cmd_base_0000.c **** 									light_system->settings->burst[ucid].burst_available);
 381:/home/tienluong/workspace/atlantis_fw/AsicFwS2/src/lcc_cmd_base_0000.c **** 		/* TODO: Take semaphore to access settings memory */
 382:/home/tienluong/workspace/atlantis_fw/AsicFwS2/src/lcc_cmd_base_0000.c **** 		memcpy(out->data, &light_system->settings->burst[ucid].burst_available, cmd.size);
 383:/home/tienluong/workspace/atlantis_fw/AsicFwS2/src/lcc_cmd_base_0000.c **** 		/* TODO: Release semaphore after read data */
 384:/home/tienluong/workspace/atlantis_fw/AsicFwS2/src/lcc_cmd_base_0000.c **** 		out->len = cmd.size;
 966              		.loc 1 384 0
 967 004a 0023     		movs	r3, #0
 968 004c 3B81     		strh	r3, [r7, #8]	@ movhi
 969              	.L86:
 970 004e F8BD     		pop	{r3, r4, r5, r6, r7, pc}
 971              	.LVL116:
 972              	.L93:
 973              		.align	2
 974              	.L92:
 975 0050 00000000 		.word	.LANCHOR3
 976 0054 00000000 		.word	pvPortMalloc1
 977 0058 00000000 		.word	.LC0
 978 005c 00000000 		.word	light_system
 979 0060 C0000000 		.word	.LC9
 980 0064 00000000 		.word	slogf
 981              		.cfi_endproc
 982              	.LFE4:
 984              		.section	.text.cmd_cam_burst_actual,"ax",%progbits
 985              		.align	1
 986              		.global	cmd_cam_burst_actual
 987              		.thumb
 988              		.thumb_func
 990              	cmd_cam_burst_actual:
 991              	.LFB5:
 385:/home/tienluong/workspace/atlantis_fw/AsicFwS2/src/lcc_cmd_base_0000.c **** 	}
 386:/home/tienluong/workspace/atlantis_fw/AsicFwS2/src/lcc_cmd_base_0000.c **** }
 387:/home/tienluong/workspace/atlantis_fw/AsicFwS2/src/lcc_cmd_base_0000.c **** 
 388:/home/tienluong/workspace/atlantis_fw/AsicFwS2/src/lcc_cmd_base_0000.c **** /**
 389:/home/tienluong/workspace/atlantis_fw/AsicFwS2/src/lcc_cmd_base_0000.c ****  * cmd_cam_burst_actual
 390:/home/tienluong/workspace/atlantis_fw/AsicFwS2/src/lcc_cmd_base_0000.c ****  *
 391:/home/tienluong/workspace/atlantis_fw/AsicFwS2/src/lcc_cmd_base_0000.c ****  */
 392:/home/tienluong/workspace/atlantis_fw/AsicFwS2/src/lcc_cmd_base_0000.c **** void cmd_cam_burst_actual(lcc_cmd_t *in, lcc_cmd_t *out)
 393:/home/tienluong/workspace/atlantis_fw/AsicFwS2/src/lcc_cmd_base_0000.c **** {
 992              		.loc 1 393 0
 993              		.cfi_startproc
 994              		@ args = 0, pretend = 0, frame = 0
 995              		@ frame_needed = 0, uses_anonymous_args = 0
 996              	.LVL117:
 997 0000 F8B5     		push	{r3, r4, r5, r6, r7, lr}
 998              	.LCFI8:
 999              		.cfi_def_cfa_offset 24
 1000              		.cfi_offset 3, -24
 1001              		.cfi_offset 4, -20
 1002              		.cfi_offset 5, -16
 1003              		.cfi_offset 6, -12
 1004              		.cfi_offset 7, -8
 1005              		.cfi_offset 14, -4
 394:/home/tienluong/workspace/atlantis_fw/AsicFwS2/src/lcc_cmd_base_0000.c **** 	lcc_cmd_info_t cmd = (lcc_cmd_info_t)(LCC_CMD_CAM_BURST_ACTUAL);
 395:/home/tienluong/workspace/atlantis_fw/AsicFwS2/src/lcc_cmd_base_0000.c **** 	uint16_t ucid = in->ucid;
 396:/home/tienluong/workspace/atlantis_fw/AsicFwS2/src/lcc_cmd_base_0000.c **** 	/* Read command processing */
 397:/home/tienluong/workspace/atlantis_fw/AsicFwS2/src/lcc_cmd_base_0000.c **** 	if (CMD_READ == in->action)
 1006              		.loc 1 397 0
 1007 0002 C37C     		ldrb	r3, [r0, #19]	@ zero_extendqisi2
 395:/home/tienluong/workspace/atlantis_fw/AsicFwS2/src/lcc_cmd_base_0000.c **** 	/* Read command processing */
 1008              		.loc 1 395 0
 1009 0004 C489     		ldrh	r4, [r0, #14]
 1010              	.LVL118:
 1011              		.loc 1 397 0
 1012 0006 DB07     		lsls	r3, r3, #31
 393:/home/tienluong/workspace/atlantis_fw/AsicFwS2/src/lcc_cmd_base_0000.c **** 	lcc_cmd_info_t cmd = (lcc_cmd_info_t)(LCC_CMD_CAM_BURST_ACTUAL);
 1013              		.loc 1 393 0
 1014 0008 0546     		mov	r5, r0
 1015 000a 0F46     		mov	r7, r1
 1016              		.loc 1 397 0
 1017 000c 1FD5     		bpl	.L94
 398:/home/tienluong/workspace/atlantis_fw/AsicFwS2/src/lcc_cmd_base_0000.c **** 	{
 399:/home/tienluong/workspace/atlantis_fw/AsicFwS2/src/lcc_cmd_base_0000.c **** 		out->data = pvPortMalloc(cmd.size);
 1018              		.loc 1 399 0
 1019 000e 0020     		movs	r0, #0
 1020              	.LVL119:
 1021 0010 0F49     		ldr	r1, .L100
 1022              	.LVL120:
 1023 0012 40F28F12 		movw	r2, #399
 1024 0016 0F4B     		ldr	r3, .L100+4
 1025 0018 9847     		blx	r3
 1026              	.LVL121:
 1027 001a DFF848C0 		ldr	ip, .L100+20
 1028 001e 0646     		mov	r6, r0
 1029 0020 7860     		str	r0, [r7, #4]
 400:/home/tienluong/workspace/atlantis_fw/AsicFwS2/src/lcc_cmd_base_0000.c **** 		if (NULL == out->data)
 1030              		.loc 1 400 0
 1031 0022 30B9     		cbnz	r0, .L96
 401:/home/tienluong/workspace/atlantis_fw/AsicFwS2/src/lcc_cmd_base_0000.c **** 		{
 402:/home/tienluong/workspace/atlantis_fw/AsicFwS2/src/lcc_cmd_base_0000.c **** 			SLOGF(SLOG_ERROR, "%s: Lack of memory", __FUNCTION__);
 1032              		.loc 1 402 0
 1033 0024 2120     		movs	r0, #33
 1034 0026 0221     		movs	r1, #2
 1035 0028 0B4A     		ldr	r2, .L100+8
 1036 002a 094B     		ldr	r3, .L100
 1037 002c E047     		blx	ip
 1038              	.LVL122:
 403:/home/tienluong/workspace/atlantis_fw/AsicFwS2/src/lcc_cmd_base_0000.c **** 			in->status = LCC_CMD_UNSUCCESS;
 1039              		.loc 1 403 0
 1040 002e 2E82     		strh	r6, [r5, #16]	@ movhi
 1041 0030 F8BD     		pop	{r3, r4, r5, r6, r7, pc}
 1042              	.LVL123:
 1043              	.L96:
 404:/home/tienluong/workspace/atlantis_fw/AsicFwS2/src/lcc_cmd_base_0000.c **** 			return;
 405:/home/tienluong/workspace/atlantis_fw/AsicFwS2/src/lcc_cmd_base_0000.c **** 		}
 406:/home/tienluong/workspace/atlantis_fw/AsicFwS2/src/lcc_cmd_base_0000.c **** 		SLOGF(SLOG_DEBUG, "Actual burst %d",
 1044              		.loc 1 406 0
 1045 0032 0A4B     		ldr	r3, .L100+12
 1046 0034 04EB4404 		add	r4, r4, r4, lsl #1
 1047              	.LVL124:
 1048 0038 2120     		movs	r0, #33
 1049 003a 1021     		movs	r1, #16
 1050 003c 1B68     		ldr	r3, [r3]
 1051 003e 084A     		ldr	r2, .L100+16
 1052 0040 9B68     		ldr	r3, [r3, #8]
 1053 0042 1C44     		add	r4, r4, r3
 1054 0044 94F83130 		ldrb	r3, [r4, #49]	@ zero_extendqisi2
 1055 0048 E047     		blx	ip
 1056              	.LVL125:
 407:/home/tienluong/workspace/atlantis_fw/AsicFwS2/src/lcc_cmd_base_0000.c **** 									light_system->settings->burst[ucid].burst_actual);
 408:/home/tienluong/workspace/atlantis_fw/AsicFwS2/src/lcc_cmd_base_0000.c **** 		/* TODO: Take semaphore to access settings memory */
 409:/home/tienluong/workspace/atlantis_fw/AsicFwS2/src/lcc_cmd_base_0000.c **** 		memcpy(out->data, &light_system->settings->burst[ucid].burst_actual, cmd.size);
 410:/home/tienluong/workspace/atlantis_fw/AsicFwS2/src/lcc_cmd_base_0000.c **** 		/* TODO: Release semaphore after read data */
 411:/home/tienluong/workspace/atlantis_fw/AsicFwS2/src/lcc_cmd_base_0000.c **** 		out->len = cmd.size;
 1057              		.loc 1 411 0
 1058 004a 0023     		movs	r3, #0
 1059 004c 3B81     		strh	r3, [r7, #8]	@ movhi
 1060              	.L94:
 1061 004e F8BD     		pop	{r3, r4, r5, r6, r7, pc}
 1062              	.LVL126:
 1063              	.L101:
 1064              		.align	2
 1065              	.L100:
 1066 0050 00000000 		.word	.LANCHOR4
 1067 0054 00000000 		.word	pvPortMalloc1
 1068 0058 00000000 		.word	.LC0
 1069 005c 00000000 		.word	light_system
 1070 0060 D3000000 		.word	.LC10
 1071 0064 00000000 		.word	slogf
 1072              		.cfi_endproc
 1073              	.LFE5:
 1075              		.section	.text.cmd_cam_snapshot_uuid,"ax",%progbits
 1076              		.align	1
 1077              		.global	cmd_cam_snapshot_uuid
 1078              		.thumb
 1079              		.thumb_func
 1081              	cmd_cam_snapshot_uuid:
 1082              	.LFB6:
 412:/home/tienluong/workspace/atlantis_fw/AsicFwS2/src/lcc_cmd_base_0000.c **** 	}
 413:/home/tienluong/workspace/atlantis_fw/AsicFwS2/src/lcc_cmd_base_0000.c **** }
 414:/home/tienluong/workspace/atlantis_fw/AsicFwS2/src/lcc_cmd_base_0000.c **** 
 415:/home/tienluong/workspace/atlantis_fw/AsicFwS2/src/lcc_cmd_base_0000.c **** /**
 416:/home/tienluong/workspace/atlantis_fw/AsicFwS2/src/lcc_cmd_base_0000.c ****  * cmd_cam_snapshot_uuid
 417:/home/tienluong/workspace/atlantis_fw/AsicFwS2/src/lcc_cmd_base_0000.c ****  *
 418:/home/tienluong/workspace/atlantis_fw/AsicFwS2/src/lcc_cmd_base_0000.c ****  */
 419:/home/tienluong/workspace/atlantis_fw/AsicFwS2/src/lcc_cmd_base_0000.c **** void cmd_cam_snapshot_uuid(lcc_cmd_t *in, lcc_cmd_t *out)
 420:/home/tienluong/workspace/atlantis_fw/AsicFwS2/src/lcc_cmd_base_0000.c **** {
 1083              		.loc 1 420 0
 1084              		.cfi_startproc
 1085              		@ args = 0, pretend = 0, frame = 0
 1086              		@ frame_needed = 0, uses_anonymous_args = 0
 1087              	.LVL127:
 1088 0000 F8B5     		push	{r3, r4, r5, r6, r7, lr}
 1089              	.LCFI9:
 1090              		.cfi_def_cfa_offset 24
 1091              		.cfi_offset 3, -24
 1092              		.cfi_offset 4, -20
 1093              		.cfi_offset 5, -16
 1094              		.cfi_offset 6, -12
 1095              		.cfi_offset 7, -8
 1096              		.cfi_offset 14, -4
 421:/home/tienluong/workspace/atlantis_fw/AsicFwS2/src/lcc_cmd_base_0000.c **** 	lcc_cmd_info_t cmd = (lcc_cmd_info_t)(LCC_CMD_CAM_SNAPSHOT_UUID);
 422:/home/tienluong/workspace/atlantis_fw/AsicFwS2/src/lcc_cmd_base_0000.c **** 
 423:/home/tienluong/workspace/atlantis_fw/AsicFwS2/src/lcc_cmd_base_0000.c **** 	/* Read command processing */
 424:/home/tienluong/workspace/atlantis_fw/AsicFwS2/src/lcc_cmd_base_0000.c **** 	if (CMD_READ == in->action)
 1097              		.loc 1 424 0
 1098 0002 C37C     		ldrb	r3, [r0, #19]	@ zero_extendqisi2
 1099 0004 DB07     		lsls	r3, r3, #31
 420:/home/tienluong/workspace/atlantis_fw/AsicFwS2/src/lcc_cmd_base_0000.c **** 	lcc_cmd_info_t cmd = (lcc_cmd_info_t)(LCC_CMD_CAM_SNAPSHOT_UUID);
 1100              		.loc 1 420 0
 1101 0006 0546     		mov	r5, r0
 1102 0008 0E46     		mov	r6, r1
 1103              		.loc 1 424 0
 1104 000a 1FD5     		bpl	.L103
 425:/home/tienluong/workspace/atlantis_fw/AsicFwS2/src/lcc_cmd_base_0000.c **** 	{
 426:/home/tienluong/workspace/atlantis_fw/AsicFwS2/src/lcc_cmd_base_0000.c **** 		out->data = pvPortMalloc(cmd.size);
 1105              		.loc 1 426 0
 1106 000c 1020     		movs	r0, #16
 1107              	.LVL128:
 1108 000e 2349     		ldr	r1, .L110
 1109              	.LVL129:
 1110 0010 4FF4D572 		mov	r2, #426
 1111 0014 224B     		ldr	r3, .L110+4
 1112 0016 9847     		blx	r3
 1113              	.LVL130:
 1114 0018 0446     		mov	r4, r0
 1115 001a 7060     		str	r0, [r6, #4]
 427:/home/tienluong/workspace/atlantis_fw/AsicFwS2/src/lcc_cmd_base_0000.c **** 		if (NULL == out->data)
 1116              		.loc 1 427 0
 1117 001c 38B9     		cbnz	r0, .L104
 428:/home/tienluong/workspace/atlantis_fw/AsicFwS2/src/lcc_cmd_base_0000.c **** 		{
 429:/home/tienluong/workspace/atlantis_fw/AsicFwS2/src/lcc_cmd_base_0000.c **** 			SLOGF(SLOG_ERROR, "%s: Lack of memory", __FUNCTION__);
 1118              		.loc 1 429 0
 1119 001e 2120     		movs	r0, #33
 1120 0020 0221     		movs	r1, #2
 1121 0022 204A     		ldr	r2, .L110+8
 1122 0024 1D4B     		ldr	r3, .L110
 1123 0026 204E     		ldr	r6, .L110+12
 1124              	.LVL131:
 1125 0028 B047     		blx	r6
 1126              	.LVL132:
 430:/home/tienluong/workspace/atlantis_fw/AsicFwS2/src/lcc_cmd_base_0000.c **** 			in->status = LCC_CMD_UNSUCCESS;
 1127              		.loc 1 430 0
 1128 002a 2C82     		strh	r4, [r5, #16]	@ movhi
 1129 002c F8BD     		pop	{r3, r4, r5, r6, r7, pc}
 1130              	.LVL133:
 1131              	.L104:
 431:/home/tienluong/workspace/atlantis_fw/AsicFwS2/src/lcc_cmd_base_0000.c **** 			return;
 432:/home/tienluong/workspace/atlantis_fw/AsicFwS2/src/lcc_cmd_base_0000.c **** 		}
 433:/home/tienluong/workspace/atlantis_fw/AsicFwS2/src/lcc_cmd_base_0000.c **** 		/* TODO: Take semaphore to access settings memory */
 434:/home/tienluong/workspace/atlantis_fw/AsicFwS2/src/lcc_cmd_base_0000.c **** 		memcpy(out->data, light_system->settings->snapshot_uuid, cmd.size);
 1132              		.loc 1 434 0
 1133 002e 1F4B     		ldr	r3, .L110+16
 1134 0030 1B68     		ldr	r3, [r3]
 1135 0032 9B68     		ldr	r3, [r3, #8]
 1136 0034 03F11F02 		add	r2, r3, #31
 1137 0038 2F33     		adds	r3, r3, #47
 1138              	.L106:
 1139 003a 52F8041B 		ldr	r1, [r2], #4	@ unaligned
 1140 003e 44F8041B 		str	r1, [r4], #4	@ unaligned
 1141 0042 9A42     		cmp	r2, r3
 1142 0044 F9D1     		bne	.L106
 435:/home/tienluong/workspace/atlantis_fw/AsicFwS2/src/lcc_cmd_base_0000.c **** 		/* TODO: Release semaphore after read data */
 436:/home/tienluong/workspace/atlantis_fw/AsicFwS2/src/lcc_cmd_base_0000.c **** 		out->len = cmd.size;
 1143              		.loc 1 436 0
 1144 0046 1023     		movs	r3, #16
 1145 0048 3381     		strh	r3, [r6, #8]	@ movhi
 1146 004a F8BD     		pop	{r3, r4, r5, r6, r7, pc}
 1147              	.LVL134:
 1148              	.L103:
 1149              	.LBB6:
 437:/home/tienluong/workspace/atlantis_fw/AsicFwS2/src/lcc_cmd_base_0000.c **** 	}
 438:/home/tienluong/workspace/atlantis_fw/AsicFwS2/src/lcc_cmd_base_0000.c **** 	else
 439:/home/tienluong/workspace/atlantis_fw/AsicFwS2/src/lcc_cmd_base_0000.c **** 	{
 440:/home/tienluong/workspace/atlantis_fw/AsicFwS2/src/lcc_cmd_base_0000.c **** 		uint32_t suuid = 0;
 441:/home/tienluong/workspace/atlantis_fw/AsicFwS2/src/lcc_cmd_base_0000.c **** 		uint8_t *puuid = light_system->settings->snapshot_uuid;
 1150              		.loc 1 441 0
 1151 004c 174B     		ldr	r3, .L110+16
 442:/home/tienluong/workspace/atlantis_fw/AsicFwS2/src/lcc_cmd_base_0000.c **** 		SLOGF(SLOG_DEBUG, "Received snapshot UUID");
 1152              		.loc 1 442 0
 1153 004e 1021     		movs	r1, #16
 1154              	.LVL135:
 1155 0050 174A     		ldr	r2, .L110+20
 1156 0052 2120     		movs	r0, #33
 1157              	.LVL136:
 1158 0054 144C     		ldr	r4, .L110+12
 441:/home/tienluong/workspace/atlantis_fw/AsicFwS2/src/lcc_cmd_base_0000.c **** 		SLOGF(SLOG_DEBUG, "Received snapshot UUID");
 1159              		.loc 1 441 0
 1160 0056 1F68     		ldr	r7, [r3]
 1161 0058 BE68     		ldr	r6, [r7, #8]
 1162              	.LVL137:
 1163              		.loc 1 442 0
 1164 005a A047     		blx	r4
 1165              	.LVL138:
 443:/home/tienluong/workspace/atlantis_fw/AsicFwS2/src/lcc_cmd_base_0000.c **** 		/* TODO: Take semaphore to access settings memory */
 444:/home/tienluong/workspace/atlantis_fw/AsicFwS2/src/lcc_cmd_base_0000.c **** 		memcpy(light_system->settings->snapshot_uuid, in->data, cmd.size);
 1166              		.loc 1 444 0
 1167 005c BA68     		ldr	r2, [r7, #8]
 1168 005e 6B68     		ldr	r3, [r5, #4]
 1169 0060 1F32     		adds	r2, r2, #31
 1170 0062 03F11001 		add	r1, r3, #16
 1171              	.L107:
 1172 0066 53F8040B 		ldr	r0, [r3], #4	@ unaligned
 1173 006a 42F8040B 		str	r0, [r2], #4	@ unaligned
 1174 006e 8B42     		cmp	r3, r1
 1175 0070 F9D1     		bne	.L107
 1176              	.LVL139:
 445:/home/tienluong/workspace/atlantis_fw/AsicFwS2/src/lcc_cmd_base_0000.c **** 		suuid = (puuid[3] << 24 | puuid[2] << 16 | puuid[1] << 8 | puuid[0]);
 1177              		.loc 1 445 0
 1178 0072 96F82130 		ldrb	r3, [r6, #33]	@ zero_extendqisi2
 1179              	.LVL140:
 1180 0076 1B04     		lsls	r3, r3, #16
 1181              	.LVL141:
 1182 0078 96F82220 		ldrb	r2, [r6, #34]	@ zero_extendqisi2
 1183              	.LVL142:
 1184 007c 43EA0263 		orr	r3, r3, r2, lsl #24
 1185 0080 F27F     		ldrb	r2, [r6, #31]	@ zero_extendqisi2
 1186              	.LVL143:
 1187 0082 1343     		orrs	r3, r3, r2
 1188 0084 96F82060 		ldrb	r6, [r6, #32]	@ zero_extendqisi2
 1189              	.LVL144:
 446:/home/tienluong/workspace/atlantis_fw/AsicFwS2/src/lcc_cmd_base_0000.c **** 		SLOGF(SLOG_DEBUG, "SUUID: 0x%04x", (unsigned int)suuid);
 1190              		.loc 1 446 0
 1191 0088 2120     		movs	r0, #33
 1192 008a 43EA0623 		orr	r3, r3, r6, lsl #8
 1193 008e 1021     		movs	r1, #16
 1194 0090 084A     		ldr	r2, .L110+24
 1195 0092 A047     		blx	r4
 1196              	.LVL145:
 447:/home/tienluong/workspace/atlantis_fw/AsicFwS2/src/lcc_cmd_base_0000.c **** 		/* TODO: Release semaphore after read data */
 448:/home/tienluong/workspace/atlantis_fw/AsicFwS2/src/lcc_cmd_base_0000.c **** 		/* Update the command status */
 449:/home/tienluong/workspace/atlantis_fw/AsicFwS2/src/lcc_cmd_base_0000.c **** 		in->status = LCC_CMD_SUCCESS;
 1197              		.loc 1 449 0
 1198 0094 0123     		movs	r3, #1
 1199 0096 2B82     		strh	r3, [r5, #16]	@ movhi
 1200 0098 F8BD     		pop	{r3, r4, r5, r6, r7, pc}
 1201              	.LVL146:
 1202              	.L111:
 1203 009a 00BF     		.align	2
 1204              	.L110:
 1205 009c 00000000 		.word	.LANCHOR5
 1206 00a0 00000000 		.word	pvPortMalloc1
 1207 00a4 00000000 		.word	.LC0
 1208 00a8 00000000 		.word	slogf
 1209 00ac 00000000 		.word	light_system
 1210 00b0 E3000000 		.word	.LC11
 1211 00b4 FA000000 		.word	.LC12
 1212              	.LBE6:
 1213              		.cfi_endproc
 1214              	.LFE6:
 1216              		.section	.text.cmd_cam_snapshot_tid,"ax",%progbits
 1217              		.align	1
 1218              		.global	cmd_cam_snapshot_tid
 1219              		.thumb
 1220              		.thumb_func
 1222              	cmd_cam_snapshot_tid:
 1223              	.LFB7:
 450:/home/tienluong/workspace/atlantis_fw/AsicFwS2/src/lcc_cmd_base_0000.c **** 	}
 451:/home/tienluong/workspace/atlantis_fw/AsicFwS2/src/lcc_cmd_base_0000.c **** }
 452:/home/tienluong/workspace/atlantis_fw/AsicFwS2/src/lcc_cmd_base_0000.c **** /**
 453:/home/tienluong/workspace/atlantis_fw/AsicFwS2/src/lcc_cmd_base_0000.c ****  * cmd_cam_snapshot_tid
 454:/home/tienluong/workspace/atlantis_fw/AsicFwS2/src/lcc_cmd_base_0000.c ****  *
 455:/home/tienluong/workspace/atlantis_fw/AsicFwS2/src/lcc_cmd_base_0000.c ****  */
 456:/home/tienluong/workspace/atlantis_fw/AsicFwS2/src/lcc_cmd_base_0000.c **** void cmd_cam_snapshot_tid(lcc_cmd_t *in, lcc_cmd_t *out)
 457:/home/tienluong/workspace/atlantis_fw/AsicFwS2/src/lcc_cmd_base_0000.c **** {
 1224              		.loc 1 457 0
 1225              		.cfi_startproc
 1226              		@ args = 0, pretend = 0, frame = 0
 1227              		@ frame_needed = 0, uses_anonymous_args = 0
 1228              	.LVL147:
 1229 0000 2DE9F84F 		push	{r3, r4, r5, r6, r7, r8, r9, r10, fp, lr}
 1230              	.LCFI10:
 1231              		.cfi_def_cfa_offset 40
 1232              		.cfi_offset 3, -40
 1233              		.cfi_offset 4, -36
 1234              		.cfi_offset 5, -32
 1235              		.cfi_offset 6, -28
 1236              		.cfi_offset 7, -24
 1237              		.cfi_offset 8, -20
 1238              		.cfi_offset 9, -16
 1239              		.cfi_offset 10, -12
 1240              		.cfi_offset 11, -8
 1241              		.cfi_offset 14, -4
 458:/home/tienluong/workspace/atlantis_fw/AsicFwS2/src/lcc_cmd_base_0000.c **** 	cam_typedef_t *p_cam;
 459:/home/tienluong/workspace/atlantis_fw/AsicFwS2/src/lcc_cmd_base_0000.c **** 	lcc_cmd_info_t cmd = (lcc_cmd_info_t)(LCC_CMD_CAM_SNAPSHOT_TID);
 460:/home/tienluong/workspace/atlantis_fw/AsicFwS2/src/lcc_cmd_base_0000.c **** 	uint32_t m_bitmask = in->m_bitmask;
 461:/home/tienluong/workspace/atlantis_fw/AsicFwS2/src/lcc_cmd_base_0000.c **** 	uint8_t i, cam_idx, data_cnt = 0;
 462:/home/tienluong/workspace/atlantis_fw/AsicFwS2/src/lcc_cmd_base_0000.c **** 
 463:/home/tienluong/workspace/atlantis_fw/AsicFwS2/src/lcc_cmd_base_0000.c **** 	if (CMD_READ == in->action)
 1242              		.loc 1 463 0
 1243 0004 C37C     		ldrb	r3, [r0, #19]	@ zero_extendqisi2
 1244 0006 DB07     		lsls	r3, r3, #31
 457:/home/tienluong/workspace/atlantis_fw/AsicFwS2/src/lcc_cmd_base_0000.c **** 	cam_typedef_t *p_cam;
 1245              		.loc 1 457 0
 1246 0008 0546     		mov	r5, r0
 1247 000a 0F46     		mov	r7, r1
 460:/home/tienluong/workspace/atlantis_fw/AsicFwS2/src/lcc_cmd_base_0000.c **** 	uint8_t i, cam_idx, data_cnt = 0;
 1248              		.loc 1 460 0
 1249 000c D0F80090 		ldr	r9, [r0]
 1250              	.LVL148:
 1251              		.loc 1 463 0
 1252 0010 03D4     		bmi	.L113
 1253              	.LVL149:
 1254              	.L115:
 464:/home/tienluong/workspace/atlantis_fw/AsicFwS2/src/lcc_cmd_base_0000.c **** 	{
 465:/home/tienluong/workspace/atlantis_fw/AsicFwS2/src/lcc_cmd_base_0000.c **** 		out->data = pvPortMalloc(in->m_number*cmd.size);
 466:/home/tienluong/workspace/atlantis_fw/AsicFwS2/src/lcc_cmd_base_0000.c **** 		if (NULL == out->data)
 467:/home/tienluong/workspace/atlantis_fw/AsicFwS2/src/lcc_cmd_base_0000.c **** 		{
 468:/home/tienluong/workspace/atlantis_fw/AsicFwS2/src/lcc_cmd_base_0000.c **** 			SLOGF(SLOG_ERROR, "%s: Lack of memory", __FUNCTION__);
 469:/home/tienluong/workspace/atlantis_fw/AsicFwS2/src/lcc_cmd_base_0000.c **** 			in->status = LCC_CMD_UNSUCCESS;
 470:/home/tienluong/workspace/atlantis_fw/AsicFwS2/src/lcc_cmd_base_0000.c **** 			return;
 471:/home/tienluong/workspace/atlantis_fw/AsicFwS2/src/lcc_cmd_base_0000.c **** 		}
 472:/home/tienluong/workspace/atlantis_fw/AsicFwS2/src/lcc_cmd_base_0000.c **** 	}
 473:/home/tienluong/workspace/atlantis_fw/AsicFwS2/src/lcc_cmd_base_0000.c **** 
 474:/home/tienluong/workspace/atlantis_fw/AsicFwS2/src/lcc_cmd_base_0000.c **** 	/* Scan camera bitmask */
 475:/home/tienluong/workspace/atlantis_fw/AsicFwS2/src/lcc_cmd_base_0000.c **** 	for (i = 0; i < in->m_number; i++)
 476:/home/tienluong/workspace/atlantis_fw/AsicFwS2/src/lcc_cmd_base_0000.c **** 	{
 477:/home/tienluong/workspace/atlantis_fw/AsicFwS2/src/lcc_cmd_base_0000.c **** 		cam_idx = __builtin_ctz(m_bitmask);
 478:/home/tienluong/workspace/atlantis_fw/AsicFwS2/src/lcc_cmd_base_0000.c **** 		m_bitmask &= ~(1 << cam_idx);
 479:/home/tienluong/workspace/atlantis_fw/AsicFwS2/src/lcc_cmd_base_0000.c **** 		/* Get camera object from camera object list */
 480:/home/tienluong/workspace/atlantis_fw/AsicFwS2/src/lcc_cmd_base_0000.c **** 		p_cam = idx_to_object(cam_idx);
 481:/home/tienluong/workspace/atlantis_fw/AsicFwS2/src/lcc_cmd_base_0000.c **** 		if (NULL == p_cam)	/* Verify object is valid */
 482:/home/tienluong/workspace/atlantis_fw/AsicFwS2/src/lcc_cmd_base_0000.c **** 		{
 483:/home/tienluong/workspace/atlantis_fw/AsicFwS2/src/lcc_cmd_base_0000.c **** 			in->status = LCC_CMD_ERROR_INVALID_MBITMASK;
 484:/home/tienluong/workspace/atlantis_fw/AsicFwS2/src/lcc_cmd_base_0000.c **** 			return;
 485:/home/tienluong/workspace/atlantis_fw/AsicFwS2/src/lcc_cmd_base_0000.c **** 		}
 486:/home/tienluong/workspace/atlantis_fw/AsicFwS2/src/lcc_cmd_base_0000.c **** 
 487:/home/tienluong/workspace/atlantis_fw/AsicFwS2/src/lcc_cmd_base_0000.c **** 		/* Read command processing */
 488:/home/tienluong/workspace/atlantis_fw/AsicFwS2/src/lcc_cmd_base_0000.c **** 		if (CMD_READ == in->action)
 489:/home/tienluong/workspace/atlantis_fw/AsicFwS2/src/lcc_cmd_base_0000.c **** 		{
 490:/home/tienluong/workspace/atlantis_fw/AsicFwS2/src/lcc_cmd_base_0000.c **** 			/* TODO: Take semaphore to access settings memory */
 491:/home/tienluong/workspace/atlantis_fw/AsicFwS2/src/lcc_cmd_base_0000.c **** 			xSemaphoreTake(p_cam->semaphore, portMAX_DELAY);
 492:/home/tienluong/workspace/atlantis_fw/AsicFwS2/src/lcc_cmd_base_0000.c **** 			memcpy(&out->data[out->len], p_cam->settings->thumb_id, cmd.size);
 493:/home/tienluong/workspace/atlantis_fw/AsicFwS2/src/lcc_cmd_base_0000.c **** 			out->len += cmd.size;
 494:/home/tienluong/workspace/atlantis_fw/AsicFwS2/src/lcc_cmd_base_0000.c **** 			/* TODO: Release semaphore after read data */
 495:/home/tienluong/workspace/atlantis_fw/AsicFwS2/src/lcc_cmd_base_0000.c **** 			xSemaphoreGive(p_cam->semaphore);
 496:/home/tienluong/workspace/atlantis_fw/AsicFwS2/src/lcc_cmd_base_0000.c **** 		}
 497:/home/tienluong/workspace/atlantis_fw/AsicFwS2/src/lcc_cmd_base_0000.c **** 		/* Write command processing */
 498:/home/tienluong/workspace/atlantis_fw/AsicFwS2/src/lcc_cmd_base_0000.c **** 		else
 499:/home/tienluong/workspace/atlantis_fw/AsicFwS2/src/lcc_cmd_base_0000.c **** 		{
 500:/home/tienluong/workspace/atlantis_fw/AsicFwS2/src/lcc_cmd_base_0000.c **** 			/* TODO: Take semaphore to access settings memory */
 501:/home/tienluong/workspace/atlantis_fw/AsicFwS2/src/lcc_cmd_base_0000.c **** 			xSemaphoreTake(p_cam->semaphore, portMAX_DELAY);
 502:/home/tienluong/workspace/atlantis_fw/AsicFwS2/src/lcc_cmd_base_0000.c **** 			memcpy(p_cam->settings->thumb_id, &in->data[data_cnt], cmd.size);
 503:/home/tienluong/workspace/atlantis_fw/AsicFwS2/src/lcc_cmd_base_0000.c **** 			xSemaphoreGive(p_cam->semaphore);
 504:/home/tienluong/workspace/atlantis_fw/AsicFwS2/src/lcc_cmd_base_0000.c **** 
 505:/home/tienluong/workspace/atlantis_fw/AsicFwS2/src/lcc_cmd_base_0000.c **** 			/* Set data pointer when command was set for global */
 506:/home/tienluong/workspace/atlantis_fw/AsicFwS2/src/lcc_cmd_base_0000.c **** 			data_cnt += in->global ? 0 : cmd.size;
 1255              		.loc 1 506 0
 1256 0012 4FF00008 		mov	r8, #0
 1257 0016 C246     		mov	r10, r8
 1258 0018 32E0     		b	.L114
 1259              	.LVL150:
 1260              	.L113:
 465:/home/tienluong/workspace/atlantis_fw/AsicFwS2/src/lcc_cmd_base_0000.c **** 		if (NULL == out->data)
 1261              		.loc 1 465 0
 1262 001a 807C     		ldrb	r0, [r0, #18]	@ zero_extendqisi2
 1263              	.LVL151:
 1264 001c 3449     		ldr	r1, .L124
 1265              	.LVL152:
 1266 001e C000     		lsls	r0, r0, #3
 1267 0020 40F2D112 		movw	r2, #465
 1268 0024 334B     		ldr	r3, .L124+4
 1269 0026 9847     		blx	r3
 1270              	.LVL153:
 1271 0028 0446     		mov	r4, r0
 1272 002a 7860     		str	r0, [r7, #4]
 466:/home/tienluong/workspace/atlantis_fw/AsicFwS2/src/lcc_cmd_base_0000.c **** 		{
 1273              		.loc 1 466 0
 1274 002c 0028     		cmp	r0, #0
 1275 002e F0D1     		bne	.L115
 468:/home/tienluong/workspace/atlantis_fw/AsicFwS2/src/lcc_cmd_base_0000.c **** 			in->status = LCC_CMD_UNSUCCESS;
 1276              		.loc 1 468 0
 1277 0030 2120     		movs	r0, #33
 1278 0032 0221     		movs	r1, #2
 1279 0034 304A     		ldr	r2, .L124+8
 1280 0036 2E4B     		ldr	r3, .L124
 1281 0038 304E     		ldr	r6, .L124+12
 1282 003a B047     		blx	r6
 1283              	.LVL154:
 469:/home/tienluong/workspace/atlantis_fw/AsicFwS2/src/lcc_cmd_base_0000.c **** 			return;
 1284              		.loc 1 469 0
 1285 003c 2C82     		strh	r4, [r5, #16]	@ movhi
 470:/home/tienluong/workspace/atlantis_fw/AsicFwS2/src/lcc_cmd_base_0000.c **** 		}
 1286              		.loc 1 470 0
 1287 003e BDE8F88F 		pop	{r3, r4, r5, r6, r7, r8, r9, r10, fp, pc}
 1288              	.LVL155:
 1289              	.L117:
 488:/home/tienluong/workspace/atlantis_fw/AsicFwS2/src/lcc_cmd_base_0000.c **** 		{
 1290              		.loc 1 488 0
 1291 0042 EC7C     		ldrb	r4, [r5, #19]	@ zero_extendqisi2
 1292 0044 14F00104 		ands	r4, r4, #1
 491:/home/tienluong/workspace/atlantis_fw/AsicFwS2/src/lcc_cmd_base_0000.c **** 			memcpy(&out->data[out->len], p_cam->settings->thumb_id, cmd.size);
 1293              		.loc 1 491 0
 1294 0048 006B     		ldr	r0, [r0, #48]
 1295              	.LVL156:
 1296 004a DFF8C0C0 		ldr	ip, .L124+28
 488:/home/tienluong/workspace/atlantis_fw/AsicFwS2/src/lcc_cmd_base_0000.c **** 		{
 1297              		.loc 1 488 0
 1298 004e 2FD0     		beq	.L118
 491:/home/tienluong/workspace/atlantis_fw/AsicFwS2/src/lcc_cmd_base_0000.c **** 			memcpy(&out->data[out->len], p_cam->settings->thumb_id, cmd.size);
 1299              		.loc 1 491 0
 1300 0050 0021     		movs	r1, #0
 1301 0052 0B46     		mov	r3, r1
 1302 0054 4FF0FF32 		mov	r2, #-1
 1303 0058 E047     		blx	ip
 1304              	.LVL157:
 492:/home/tienluong/workspace/atlantis_fw/AsicFwS2/src/lcc_cmd_base_0000.c **** 			out->len += cmd.size;
 1305              		.loc 1 492 0
 1306 005a 7868     		ldr	r0, [r7, #4]
 1307 005c B168     		ldr	r1, [r6, #8]
 1308 005e 3B89     		ldrh	r3, [r7, #8]
 1309 0060 0822     		movs	r2, #8
 1310 0062 1844     		add	r0, r0, r3
 1311 0064 1831     		adds	r1, r1, #24
 1312 0066 264B     		ldr	r3, .L124+16
 1313 0068 9847     		blx	r3
 1314              	.LVL158:
 493:/home/tienluong/workspace/atlantis_fw/AsicFwS2/src/lcc_cmd_base_0000.c **** 			/* TODO: Release semaphore after read data */
 1315              		.loc 1 493 0
 1316 006a 3B89     		ldrh	r3, [r7, #8]
 1317 006c 0833     		adds	r3, r3, #8
 495:/home/tienluong/workspace/atlantis_fw/AsicFwS2/src/lcc_cmd_base_0000.c **** 		}
 1318              		.loc 1 495 0
 1319 006e 0021     		movs	r1, #0
 493:/home/tienluong/workspace/atlantis_fw/AsicFwS2/src/lcc_cmd_base_0000.c **** 			/* TODO: Release semaphore after read data */
 1320              		.loc 1 493 0
 1321 0070 3B81     		strh	r3, [r7, #8]	@ movhi
 495:/home/tienluong/workspace/atlantis_fw/AsicFwS2/src/lcc_cmd_base_0000.c **** 		}
 1322              		.loc 1 495 0
 1323 0072 0A46     		mov	r2, r1
 1324 0074 306B     		ldr	r0, [r6, #48]
 1325 0076 0B46     		mov	r3, r1
 1326 0078 224C     		ldr	r4, .L124+20
 1327 007a A047     		blx	r4
 1328              	.LVL159:
 1329              	.L119:
 1330 007c 08F10108 		add	r8, r8, #1
 1331              	.LVL160:
 1332              	.L114:
 475:/home/tienluong/workspace/atlantis_fw/AsicFwS2/src/lcc_cmd_base_0000.c **** 	{
 1333              		.loc 1 475 0 discriminator 1
 1334 0080 5FFA88F3 		uxtb	r3, r8
 1335 0084 AA7C     		ldrb	r2, [r5, #18]	@ zero_extendqisi2
 1336 0086 9A42     		cmp	r2, r3
 1337 0088 2FD9     		bls	.L123
 478:/home/tienluong/workspace/atlantis_fw/AsicFwS2/src/lcc_cmd_base_0000.c **** 		/* Get camera object from camera object list */
 1338              		.loc 1 478 0
 1339 008a 4FF0010B 		mov	fp, #1
 477:/home/tienluong/workspace/atlantis_fw/AsicFwS2/src/lcc_cmd_base_0000.c **** 		m_bitmask &= ~(1 << cam_idx);
 1340              		.loc 1 477 0
 1341 008e 99FAA9F0 		rbit	r0, r9
 1342 0092 B0FA80F0 		clz	r0, r0
 1343              	.LVL161:
 478:/home/tienluong/workspace/atlantis_fw/AsicFwS2/src/lcc_cmd_base_0000.c **** 		/* Get camera object from camera object list */
 1344              		.loc 1 478 0
 1345 0096 0BFA00F3 		lsl	r3, fp, r0
 1346 009a 29EA0309 		bic	r9, r9, r3
 1347              	.LVL162:
 480:/home/tienluong/workspace/atlantis_fw/AsicFwS2/src/lcc_cmd_base_0000.c **** 		if (NULL == p_cam)	/* Verify object is valid */
 1348              		.loc 1 480 0
 1349 009e 1A4B     		ldr	r3, .L124+24
 1350 00a0 9847     		blx	r3
 1351              	.LVL163:
 481:/home/tienluong/workspace/atlantis_fw/AsicFwS2/src/lcc_cmd_base_0000.c **** 		{
 1352              		.loc 1 481 0
 1353 00a2 0646     		mov	r6, r0
 1354 00a4 0028     		cmp	r0, #0
 1355 00a6 CCD1     		bne	.L117
 483:/home/tienluong/workspace/atlantis_fw/AsicFwS2/src/lcc_cmd_base_0000.c **** 			return;
 1356              		.loc 1 483 0
 1357 00a8 0823     		movs	r3, #8
 1358 00aa 2B82     		strh	r3, [r5, #16]	@ movhi
 484:/home/tienluong/workspace/atlantis_fw/AsicFwS2/src/lcc_cmd_base_0000.c **** 		}
 1359              		.loc 1 484 0
 1360 00ac BDE8F88F 		pop	{r3, r4, r5, r6, r7, r8, r9, r10, fp, pc}
 1361              	.LVL164:
 1362              	.L118:
 501:/home/tienluong/workspace/atlantis_fw/AsicFwS2/src/lcc_cmd_base_0000.c **** 			memcpy(p_cam->settings->thumb_id, &in->data[data_cnt], cmd.size);
 1363              		.loc 1 501 0
 1364 00b0 2146     		mov	r1, r4
 1365 00b2 2346     		mov	r3, r4
 1366 00b4 4FF0FF32 		mov	r2, #-1
 1367 00b8 E047     		blx	ip
 1368              	.LVL165:
 502:/home/tienluong/workspace/atlantis_fw/AsicFwS2/src/lcc_cmd_base_0000.c **** 			xSemaphoreGive(p_cam->semaphore);
 1369              		.loc 1 502 0
 1370 00ba B068     		ldr	r0, [r6, #8]
 1371 00bc 6968     		ldr	r1, [r5, #4]
 1372 00be 0822     		movs	r2, #8
 1373 00c0 0F4B     		ldr	r3, .L124+16
 1374 00c2 1830     		adds	r0, r0, #24
 1375 00c4 5144     		add	r1, r1, r10
 1376 00c6 9847     		blx	r3
 1377              	.LVL166:
 503:/home/tienluong/workspace/atlantis_fw/AsicFwS2/src/lcc_cmd_base_0000.c **** 
 1378              		.loc 1 503 0
 1379 00c8 2346     		mov	r3, r4
 1380 00ca 306B     		ldr	r0, [r6, #48]
 1381 00cc 2146     		mov	r1, r4
 1382 00ce 2246     		mov	r2, r4
 1383 00d0 0C4E     		ldr	r6, .L124+20
 1384              	.LVL167:
 1385 00d2 B047     		blx	r6
 1386              	.LVL168:
 1387              		.loc 1 506 0
 1388 00d4 EB7C     		ldrb	r3, [r5, #19]	@ zero_extendqisi2
 1389 00d6 13F0020F 		tst	r3, #2
 1390 00da 08BF     		it	eq
 1391 00dc 0824     		moveq	r4, #8
 1392 00de A244     		add	r10, r10, r4
 1393              	.LVL169:
 507:/home/tienluong/workspace/atlantis_fw/AsicFwS2/src/lcc_cmd_base_0000.c **** 			/* Update the command status */
 508:/home/tienluong/workspace/atlantis_fw/AsicFwS2/src/lcc_cmd_base_0000.c **** 			in->status = LCC_CMD_SUCCESS;
 1394              		.loc 1 508 0
 1395 00e0 A5F810B0 		strh	fp, [r5, #16]	@ movhi
 506:/home/tienluong/workspace/atlantis_fw/AsicFwS2/src/lcc_cmd_base_0000.c **** 			/* Update the command status */
 1396              		.loc 1 506 0
 1397 00e4 5FFA8AFA 		uxtb	r10, r10
 1398              	.LVL170:
 1399 00e8 C8E7     		b	.L119
 1400              	.L123:
 1401 00ea BDE8F88F 		pop	{r3, r4, r5, r6, r7, r8, r9, r10, fp, pc}
 1402              	.LVL171:
 1403              	.L125:
 1404 00ee 00BF     		.align	2
 1405              	.L124:
 1406 00f0 00000000 		.word	.LANCHOR6
 1407 00f4 00000000 		.word	pvPortMalloc1
 1408 00f8 00000000 		.word	.LC0
 1409 00fc 00000000 		.word	slogf
 1410 0100 00000000 		.word	memcpy
 1411 0104 00000000 		.word	xQueueGenericSend
 1412 0108 00000000 		.word	idx_to_object
 1413 010c 00000000 		.word	xQueueGenericReceive
 1414              		.cfi_endproc
 1415              	.LFE7:
 1417              		.section	.text.cmd_cam_command_status,"ax",%progbits
 1418              		.align	1
 1419              		.global	cmd_cam_command_status
 1420              		.thumb
 1421              		.thumb_func
 1423              	cmd_cam_command_status:
 1424              	.LFB8:
 509:/home/tienluong/workspace/atlantis_fw/AsicFwS2/src/lcc_cmd_base_0000.c **** 		}
 510:/home/tienluong/workspace/atlantis_fw/AsicFwS2/src/lcc_cmd_base_0000.c **** 	}
 511:/home/tienluong/workspace/atlantis_fw/AsicFwS2/src/lcc_cmd_base_0000.c **** }
 512:/home/tienluong/workspace/atlantis_fw/AsicFwS2/src/lcc_cmd_base_0000.c **** /**
 513:/home/tienluong/workspace/atlantis_fw/AsicFwS2/src/lcc_cmd_base_0000.c ****  * cmd_cam_command_status
 514:/home/tienluong/workspace/atlantis_fw/AsicFwS2/src/lcc_cmd_base_0000.c ****  *
 515:/home/tienluong/workspace/atlantis_fw/AsicFwS2/src/lcc_cmd_base_0000.c ****  */
 516:/home/tienluong/workspace/atlantis_fw/AsicFwS2/src/lcc_cmd_base_0000.c **** void cmd_cam_command_status(lcc_cmd_t *in, lcc_cmd_t *out)
 517:/home/tienluong/workspace/atlantis_fw/AsicFwS2/src/lcc_cmd_base_0000.c **** {
 1425              		.loc 1 517 0
 1426              		.cfi_startproc
 1427              		@ args = 0, pretend = 0, frame = 0
 1428              		@ frame_needed = 0, uses_anonymous_args = 0
 1429              	.LVL172:
 1430 0000 F7B5     		push	{r0, r1, r2, r4, r5, r6, r7, lr}
 1431              	.LCFI11:
 1432              		.cfi_def_cfa_offset 32
 1433              		.cfi_offset 4, -20
 1434              		.cfi_offset 5, -16
 1435              		.cfi_offset 6, -12
 1436              		.cfi_offset 7, -8
 1437              		.cfi_offset 14, -4
 518:/home/tienluong/workspace/atlantis_fw/AsicFwS2/src/lcc_cmd_base_0000.c **** 	uint16_t id_query = 0;
 519:/home/tienluong/workspace/atlantis_fw/AsicFwS2/src/lcc_cmd_base_0000.c **** 	struct lcc_cmd_log_t *cmd_info = NULL;
 520:/home/tienluong/workspace/atlantis_fw/AsicFwS2/src/lcc_cmd_base_0000.c **** 
 521:/home/tienluong/workspace/atlantis_fw/AsicFwS2/src/lcc_cmd_base_0000.c **** 	if (CMD_READ == in->action)
 1438              		.loc 1 521 0
 1439 0002 C37C     		ldrb	r3, [r0, #19]	@ zero_extendqisi2
 1440 0004 DB07     		lsls	r3, r3, #31
 517:/home/tienluong/workspace/atlantis_fw/AsicFwS2/src/lcc_cmd_base_0000.c **** 	uint16_t id_query = 0;
 1441              		.loc 1 517 0
 1442 0006 0446     		mov	r4, r0
 1443 0008 0D46     		mov	r5, r1
 1444              		.loc 1 521 0
 1445 000a 37D4     		bmi	.L126
 522:/home/tienluong/workspace/atlantis_fw/AsicFwS2/src/lcc_cmd_base_0000.c **** 	{
 523:/home/tienluong/workspace/atlantis_fw/AsicFwS2/src/lcc_cmd_base_0000.c **** 	    /* Read command processing */
 524:/home/tienluong/workspace/atlantis_fw/AsicFwS2/src/lcc_cmd_base_0000.c **** 	}
 525:/home/tienluong/workspace/atlantis_fw/AsicFwS2/src/lcc_cmd_base_0000.c **** 	else
 526:/home/tienluong/workspace/atlantis_fw/AsicFwS2/src/lcc_cmd_base_0000.c **** 	{
 527:/home/tienluong/workspace/atlantis_fw/AsicFwS2/src/lcc_cmd_base_0000.c **** 	    /* Write command processing */
 528:/home/tienluong/workspace/atlantis_fw/AsicFwS2/src/lcc_cmd_base_0000.c **** 		out->data = pvPortMalloc(LCC_CMD_CAM_COMMAND_STATUS_READ_SIZE);
 1446              		.loc 1 528 0
 1447 000c 0420     		movs	r0, #4
 1448              	.LVL173:
 1449 000e 1C49     		ldr	r1, .L133
 1450              	.LVL174:
 1451 0010 4FF40472 		mov	r2, #528
 1452 0014 1B4B     		ldr	r3, .L133+4
 1453 0016 9847     		blx	r3
 1454              	.LVL175:
 1455 0018 0646     		mov	r6, r0
 1456 001a 6860     		str	r0, [r5, #4]
 529:/home/tienluong/workspace/atlantis_fw/AsicFwS2/src/lcc_cmd_base_0000.c **** 		if (NULL == out->data)
 1457              		.loc 1 529 0
 1458 001c 38B9     		cbnz	r0, .L128
 530:/home/tienluong/workspace/atlantis_fw/AsicFwS2/src/lcc_cmd_base_0000.c **** 		{
 531:/home/tienluong/workspace/atlantis_fw/AsicFwS2/src/lcc_cmd_base_0000.c **** 			SLOGF(SLOG_ERROR, "%s: Lack of memory", __FUNCTION__);
 1459              		.loc 1 531 0
 1460 001e 2120     		movs	r0, #33
 1461 0020 0221     		movs	r1, #2
 1462 0022 194A     		ldr	r2, .L133+8
 1463 0024 164B     		ldr	r3, .L133
 1464 0026 194D     		ldr	r5, .L133+12
 1465              	.LVL176:
 1466 0028 A847     		blx	r5
 1467              	.LVL177:
 532:/home/tienluong/workspace/atlantis_fw/AsicFwS2/src/lcc_cmd_base_0000.c **** 			in->status = LCC_CMD_UNSUCCESS;
 1468              		.loc 1 532 0
 1469 002a 2682     		strh	r6, [r4, #16]	@ movhi
 533:/home/tienluong/workspace/atlantis_fw/AsicFwS2/src/lcc_cmd_base_0000.c **** 			return;
 1470              		.loc 1 533 0
 1471 002c 26E0     		b	.L126
 1472              	.LVL178:
 1473              	.L128:
 534:/home/tienluong/workspace/atlantis_fw/AsicFwS2/src/lcc_cmd_base_0000.c **** 		}
 535:/home/tienluong/workspace/atlantis_fw/AsicFwS2/src/lcc_cmd_base_0000.c **** 
 536:/home/tienluong/workspace/atlantis_fw/AsicFwS2/src/lcc_cmd_base_0000.c **** 		id_query = U16(in->data[0]);
 1474              		.loc 1 536 0
 1475 002e 6368     		ldr	r3, [r4, #4]
 1476 0030 1F88     		ldrh	r7, [r3]
 1477              	.LVL179:
 537:/home/tienluong/workspace/atlantis_fw/AsicFwS2/src/lcc_cmd_base_0000.c **** 		cmd_info = lcc_cmd_log_pull(id_query);
 1478              		.loc 1 537 0
 1479 0032 174B     		ldr	r3, .L133+16
 1480 0034 3846     		mov	r0, r7
 1481 0036 9847     		blx	r3
 1482              	.LVL180:
 538:/home/tienluong/workspace/atlantis_fw/AsicFwS2/src/lcc_cmd_base_0000.c **** 		if(cmd_info != NULL)
 1483              		.loc 1 538 0
 1484 0038 0646     		mov	r6, r0
 1485 003a A0B1     		cbz	r0, .L129
 539:/home/tienluong/workspace/atlantis_fw/AsicFwS2/src/lcc_cmd_base_0000.c **** 		{
 540:/home/tienluong/workspace/atlantis_fw/AsicFwS2/src/lcc_cmd_base_0000.c **** 			SLOGF(SLOG_DEBUG, "%s: CMD_TID %x is queried status %x",
 1486              		.loc 1 540 0
 1487 003c 0097     		str	r7, [sp]
 1488 003e 0746     		mov	r7, r0
 1489              	.LVL181:
 1490 0040 144A     		ldr	r2, .L133+20
 1491 0042 2120     		movs	r0, #33
 1492              	.LVL182:
 1493 0044 1021     		movs	r1, #16
 1494 0046 57F8083F 		ldr	r3, [r7, #8]!
 1495 004a 0193     		str	r3, [sp, #4]
 1496 004c DFF83CC0 		ldr	ip, .L133+12
 1497 0050 0B4B     		ldr	r3, .L133
 1498 0052 E047     		blx	ip
 1499              	.LVL183:
 541:/home/tienluong/workspace/atlantis_fw/AsicFwS2/src/lcc_cmd_base_0000.c **** 				__FUNCTION__, id_query, cmd_info->status);
 542:/home/tienluong/workspace/atlantis_fw/AsicFwS2/src/lcc_cmd_base_0000.c **** 
 543:/home/tienluong/workspace/atlantis_fw/AsicFwS2/src/lcc_cmd_base_0000.c **** 			memcpy(out->data, &cmd_info->status,
 1500              		.loc 1 543 0
 1501 0054 6B68     		ldr	r3, [r5, #4]
 1502 0056 3A68     		ldr	r2, [r7]	@ unaligned
 1503 0058 1A60     		str	r2, [r3]	@ unaligned
 544:/home/tienluong/workspace/atlantis_fw/AsicFwS2/src/lcc_cmd_base_0000.c **** 					LCC_CMD_CAM_COMMAND_STATUS_READ_SIZE);
 545:/home/tienluong/workspace/atlantis_fw/AsicFwS2/src/lcc_cmd_base_0000.c **** 			if(cmd_info->cmd_bitmask == 0)
 1504              		.loc 1 545 0
 1505 005a 7368     		ldr	r3, [r6, #4]
 1506 005c 43B9     		cbnz	r3, .L132
 546:/home/tienluong/workspace/atlantis_fw/AsicFwS2/src/lcc_cmd_base_0000.c **** 			{
 547:/home/tienluong/workspace/atlantis_fw/AsicFwS2/src/lcc_cmd_base_0000.c **** 				lcc_cmd_log_delete_tid(cmd_info);
 1507              		.loc 1 547 0
 1508 005e 3046     		mov	r0, r6
 1509 0060 0D4B     		ldr	r3, .L133+24
 1510 0062 9847     		blx	r3
 1511              	.LVL184:
 1512 0064 04E0     		b	.L132
 1513              	.LVL185:
 1514              	.L129:
 548:/home/tienluong/workspace/atlantis_fw/AsicFwS2/src/lcc_cmd_base_0000.c **** 			}
 549:/home/tienluong/workspace/atlantis_fw/AsicFwS2/src/lcc_cmd_base_0000.c **** 			out->len = LCC_CMD_CAM_COMMAND_STATUS_READ_SIZE;
 550:/home/tienluong/workspace/atlantis_fw/AsicFwS2/src/lcc_cmd_base_0000.c **** 			cmd_info = NULL;
 551:/home/tienluong/workspace/atlantis_fw/AsicFwS2/src/lcc_cmd_base_0000.c **** 		}
 552:/home/tienluong/workspace/atlantis_fw/AsicFwS2/src/lcc_cmd_base_0000.c **** 		else
 553:/home/tienluong/workspace/atlantis_fw/AsicFwS2/src/lcc_cmd_base_0000.c **** 		{
 554:/home/tienluong/workspace/atlantis_fw/AsicFwS2/src/lcc_cmd_base_0000.c **** 			memset(out->data, 0xFF, LCC_CMD_CAM_COMMAND_STATUS_READ_SIZE);
 1515              		.loc 1 554 0
 1516 0066 6868     		ldr	r0, [r5, #4]
 1517              	.LVL186:
 1518 0068 FF21     		movs	r1, #255
 1519 006a 0422     		movs	r2, #4
 1520 006c 0B4B     		ldr	r3, .L133+28
 1521 006e 9847     		blx	r3
 1522              	.LVL187:
 1523              	.L132:
 555:/home/tienluong/workspace/atlantis_fw/AsicFwS2/src/lcc_cmd_base_0000.c **** 			out->len = LCC_CMD_CAM_COMMAND_STATUS_READ_SIZE;
 1524              		.loc 1 555 0
 1525 0070 0423     		movs	r3, #4
 1526 0072 2B81     		strh	r3, [r5, #8]	@ movhi
 556:/home/tienluong/workspace/atlantis_fw/AsicFwS2/src/lcc_cmd_base_0000.c **** 		}
 557:/home/tienluong/workspace/atlantis_fw/AsicFwS2/src/lcc_cmd_base_0000.c **** 		/* set Action to READ to send data to i2c buffer */
 558:/home/tienluong/workspace/atlantis_fw/AsicFwS2/src/lcc_cmd_base_0000.c **** 		in->action = CMD_READ;
 1527              		.loc 1 558 0
 1528 0074 E37C     		ldrb	r3, [r4, #19]	@ zero_extendqisi2
 1529 0076 43F00103 		orr	r3, r3, #1
 1530 007a E374     		strb	r3, [r4, #19]
 1531              	.LVL188:
 1532              	.L126:
 559:/home/tienluong/workspace/atlantis_fw/AsicFwS2/src/lcc_cmd_base_0000.c **** 	}
 560:/home/tienluong/workspace/atlantis_fw/AsicFwS2/src/lcc_cmd_base_0000.c **** }
 1533              		.loc 1 560 0
 1534 007c 03B0     		add	sp, sp, #12
 1535              	.LCFI12:
 1536              		.cfi_def_cfa_offset 20
 1537              		@ sp needed
 1538 007e F0BD     		pop	{r4, r5, r6, r7, pc}
 1539              	.LVL189:
 1540              	.L134:
 1541              		.align	2
 1542              	.L133:
 1543 0080 00000000 		.word	.LANCHOR7
 1544 0084 00000000 		.word	pvPortMalloc1
 1545 0088 00000000 		.word	.LC0
 1546 008c 00000000 		.word	slogf
 1547 0090 00000000 		.word	lcc_cmd_log_pull
 1548 0094 08010000 		.word	.LC13
 1549 0098 00000000 		.word	lcc_cmd_log_delete_tid
 1550 009c 00000000 		.word	memset
 1551              		.cfi_endproc
 1552              	.LFE8:
 1554              		.section	.text.cmd_cam_module_status,"ax",%progbits
 1555              		.align	1
 1556              		.global	cmd_cam_module_status
 1557              		.thumb
 1558              		.thumb_func
 1560              	cmd_cam_module_status:
 1561              	.LFB9:
 561:/home/tienluong/workspace/atlantis_fw/AsicFwS2/src/lcc_cmd_base_0000.c **** 
 562:/home/tienluong/workspace/atlantis_fw/AsicFwS2/src/lcc_cmd_base_0000.c **** /**
 563:/home/tienluong/workspace/atlantis_fw/AsicFwS2/src/lcc_cmd_base_0000.c ****  * cmd_cam_module_status
 564:/home/tienluong/workspace/atlantis_fw/AsicFwS2/src/lcc_cmd_base_0000.c ****  *
 565:/home/tienluong/workspace/atlantis_fw/AsicFwS2/src/lcc_cmd_base_0000.c ****  */
 566:/home/tienluong/workspace/atlantis_fw/AsicFwS2/src/lcc_cmd_base_0000.c **** void cmd_cam_module_status(lcc_cmd_t *in, lcc_cmd_t *out)
 567:/home/tienluong/workspace/atlantis_fw/AsicFwS2/src/lcc_cmd_base_0000.c **** {
 1562              		.loc 1 567 0
 1563              		.cfi_startproc
 1564              		@ args = 0, pretend = 0, frame = 0
 1565              		@ frame_needed = 0, uses_anonymous_args = 0
 1566              	.LVL190:
 1567 0000 2DE9F041 		push	{r4, r5, r6, r7, r8, lr}
 1568              	.LCFI13:
 1569              		.cfi_def_cfa_offset 24
 1570              		.cfi_offset 4, -24
 1571              		.cfi_offset 5, -20
 1572              		.cfi_offset 6, -16
 1573              		.cfi_offset 7, -12
 1574              		.cfi_offset 8, -8
 1575              		.cfi_offset 14, -4
 568:/home/tienluong/workspace/atlantis_fw/AsicFwS2/src/lcc_cmd_base_0000.c **** 	cam_typedef_t *p_cam;
 569:/home/tienluong/workspace/atlantis_fw/AsicFwS2/src/lcc_cmd_base_0000.c **** 	lcc_cmd_info_t cmd = (lcc_cmd_info_t)(LCC_CMD_CAM_MODULE_STATUS);
 570:/home/tienluong/workspace/atlantis_fw/AsicFwS2/src/lcc_cmd_base_0000.c **** 	uint32_t m_bitmask = in->m_bitmask;
 571:/home/tienluong/workspace/atlantis_fw/AsicFwS2/src/lcc_cmd_base_0000.c **** 	uint8_t i, cam_idx;
 572:/home/tienluong/workspace/atlantis_fw/AsicFwS2/src/lcc_cmd_base_0000.c **** 
 573:/home/tienluong/workspace/atlantis_fw/AsicFwS2/src/lcc_cmd_base_0000.c **** 	out->data = pvPortMalloc(in->m_number * cmd.size);
 1576              		.loc 1 573 0
 1577 0004 40F23D22 		movw	r2, #573
 567:/home/tienluong/workspace/atlantis_fw/AsicFwS2/src/lcc_cmd_base_0000.c **** 	cam_typedef_t *p_cam;
 1578              		.loc 1 567 0
 1579 0008 0D46     		mov	r5, r1
 570:/home/tienluong/workspace/atlantis_fw/AsicFwS2/src/lcc_cmd_base_0000.c **** 	uint8_t i, cam_idx;
 1580              		.loc 1 570 0
 1581 000a D0F80080 		ldr	r8, [r0]
 1582              	.LVL191:
 567:/home/tienluong/workspace/atlantis_fw/AsicFwS2/src/lcc_cmd_base_0000.c **** 	cam_typedef_t *p_cam;
 1583              		.loc 1 567 0
 1584 000e 0446     		mov	r4, r0
 1585              		.loc 1 573 0
 1586 0010 2049     		ldr	r1, .L142
 1587              	.LVL192:
 1588 0012 807C     		ldrb	r0, [r0, #18]	@ zero_extendqisi2
 1589              	.LVL193:
 1590 0014 204B     		ldr	r3, .L142+4
 1591 0016 8000     		lsls	r0, r0, #2
 1592 0018 9847     		blx	r3
 1593              	.LVL194:
 1594 001a 0646     		mov	r6, r0
 1595 001c 6860     		str	r0, [r5, #4]
 574:/home/tienluong/workspace/atlantis_fw/AsicFwS2/src/lcc_cmd_base_0000.c **** 	if (NULL == out->data)
 1596              		.loc 1 574 0
 1597 001e 08B1     		cbz	r0, .L136
 1598              		.loc 1 574 0 is_stmt 0 discriminator 1
 1599 0020 0027     		movs	r7, #0
 1600 0022 1EE0     		b	.L137
 1601              	.L136:
 575:/home/tienluong/workspace/atlantis_fw/AsicFwS2/src/lcc_cmd_base_0000.c **** 	{
 576:/home/tienluong/workspace/atlantis_fw/AsicFwS2/src/lcc_cmd_base_0000.c **** 		SLOGF(SLOG_ERROR, "%s: Lack of memory", __FUNCTION__);
 1602              		.loc 1 576 0 is_stmt 1
 1603 0024 2120     		movs	r0, #33
 1604 0026 0221     		movs	r1, #2
 1605 0028 1C4A     		ldr	r2, .L142+8
 1606 002a 1A4B     		ldr	r3, .L142
 1607 002c 1C4D     		ldr	r5, .L142+12
 1608              	.LVL195:
 1609 002e A847     		blx	r5
 1610              	.LVL196:
 577:/home/tienluong/workspace/atlantis_fw/AsicFwS2/src/lcc_cmd_base_0000.c **** 		in->status = LCC_CMD_UNSUCCESS;
 1611              		.loc 1 577 0
 1612 0030 2682     		strh	r6, [r4, #16]	@ movhi
 578:/home/tienluong/workspace/atlantis_fw/AsicFwS2/src/lcc_cmd_base_0000.c **** 		return;
 1613              		.loc 1 578 0
 1614 0032 BDE8F081 		pop	{r4, r5, r6, r7, r8, pc}
 1615              	.LVL197:
 1616              	.L139:
 579:/home/tienluong/workspace/atlantis_fw/AsicFwS2/src/lcc_cmd_base_0000.c **** 	}
 580:/home/tienluong/workspace/atlantis_fw/AsicFwS2/src/lcc_cmd_base_0000.c **** 
 581:/home/tienluong/workspace/atlantis_fw/AsicFwS2/src/lcc_cmd_base_0000.c **** 	/* Scan camera bitmask */
 582:/home/tienluong/workspace/atlantis_fw/AsicFwS2/src/lcc_cmd_base_0000.c **** 	for (i = 0; i < in->m_number; i++)
 583:/home/tienluong/workspace/atlantis_fw/AsicFwS2/src/lcc_cmd_base_0000.c **** 	{
 584:/home/tienluong/workspace/atlantis_fw/AsicFwS2/src/lcc_cmd_base_0000.c **** 		cam_idx = __builtin_ctz(m_bitmask);
 585:/home/tienluong/workspace/atlantis_fw/AsicFwS2/src/lcc_cmd_base_0000.c **** 		m_bitmask &= ~(1 << cam_idx);
 586:/home/tienluong/workspace/atlantis_fw/AsicFwS2/src/lcc_cmd_base_0000.c **** 		/* Get camera object from camera object list */
 587:/home/tienluong/workspace/atlantis_fw/AsicFwS2/src/lcc_cmd_base_0000.c **** 		p_cam = idx_to_object(cam_idx);
 588:/home/tienluong/workspace/atlantis_fw/AsicFwS2/src/lcc_cmd_base_0000.c **** 		if (NULL == p_cam)	/*Verify object is valid */
 589:/home/tienluong/workspace/atlantis_fw/AsicFwS2/src/lcc_cmd_base_0000.c **** 		{
 590:/home/tienluong/workspace/atlantis_fw/AsicFwS2/src/lcc_cmd_base_0000.c **** 			in->status = LCC_CMD_ERROR_INVALID_MBITMASK;
 591:/home/tienluong/workspace/atlantis_fw/AsicFwS2/src/lcc_cmd_base_0000.c **** 			return;
 592:/home/tienluong/workspace/atlantis_fw/AsicFwS2/src/lcc_cmd_base_0000.c **** 		}
 593:/home/tienluong/workspace/atlantis_fw/AsicFwS2/src/lcc_cmd_base_0000.c **** 
 594:/home/tienluong/workspace/atlantis_fw/AsicFwS2/src/lcc_cmd_base_0000.c **** 		/* Take semaphore to access settings memory */
 595:/home/tienluong/workspace/atlantis_fw/AsicFwS2/src/lcc_cmd_base_0000.c **** 		xSemaphoreTake(p_cam->semaphore, portMAX_DELAY);
 1617              		.loc 1 595 0 discriminator 2
 1618 0036 0021     		movs	r1, #0
 1619 0038 0B46     		mov	r3, r1
 1620 003a 4FF0FF32 		mov	r2, #-1
 1621 003e DFF86CC0 		ldr	ip, .L142+24
 1622 0042 006B     		ldr	r0, [r0, #48]
 1623              	.LVL198:
 1624 0044 E047     		blx	ip
 1625              	.LVL199:
 596:/home/tienluong/workspace/atlantis_fw/AsicFwS2/src/lcc_cmd_base_0000.c **** 		memcpy(&out->data[out->len], p_cam->settings->status, cmd.size);
 1626              		.loc 1 596 0 discriminator 2
 1627 0046 B168     		ldr	r1, [r6, #8]
 1628 0048 6A68     		ldr	r2, [r5, #4]
 1629 004a 2B89     		ldrh	r3, [r5, #8]
 1630 004c 4968     		ldr	r1, [r1, #4]	@ unaligned
 1631 004e D150     		str	r1, [r2, r3]	@ unaligned
 597:/home/tienluong/workspace/atlantis_fw/AsicFwS2/src/lcc_cmd_base_0000.c **** 		/* Release semaphore after read data */
 598:/home/tienluong/workspace/atlantis_fw/AsicFwS2/src/lcc_cmd_base_0000.c **** 		xSemaphoreGive(p_cam->semaphore);
 1632              		.loc 1 598 0 discriminator 2
 1633 0050 0021     		movs	r1, #0
 1634 0052 306B     		ldr	r0, [r6, #48]
 1635 0054 0B46     		mov	r3, r1
 1636 0056 0A46     		mov	r2, r1
 1637 0058 124E     		ldr	r6, .L142+16
 1638              	.LVL200:
 1639 005a B047     		blx	r6
 1640              	.LVL201:
 599:/home/tienluong/workspace/atlantis_fw/AsicFwS2/src/lcc_cmd_base_0000.c **** 		out->len += cmd.size;
 1641              		.loc 1 599 0 discriminator 2
 1642 005c 2B89     		ldrh	r3, [r5, #8]
 1643 005e 0433     		adds	r3, r3, #4
 1644 0060 2B81     		strh	r3, [r5, #8]	@ movhi
 1645              	.LVL202:
 1646              	.L137:
 582:/home/tienluong/workspace/atlantis_fw/AsicFwS2/src/lcc_cmd_base_0000.c **** 	{
 1647              		.loc 1 582 0 discriminator 1
 1648 0062 FBB2     		uxtb	r3, r7
 1649 0064 A27C     		ldrb	r2, [r4, #18]	@ zero_extendqisi2
 1650 0066 9A42     		cmp	r2, r3
 1651 0068 11D9     		bls	.L141
 585:/home/tienluong/workspace/atlantis_fw/AsicFwS2/src/lcc_cmd_base_0000.c **** 		/* Get camera object from camera object list */
 1652              		.loc 1 585 0
 1653 006a 0123     		movs	r3, #1
 584:/home/tienluong/workspace/atlantis_fw/AsicFwS2/src/lcc_cmd_base_0000.c **** 		m_bitmask &= ~(1 << cam_idx);
 1654              		.loc 1 584 0
 1655 006c 98FAA8F0 		rbit	r0, r8
 1656 0070 B0FA80F0 		clz	r0, r0
 1657              	.LVL203:
 1658 0074 0137     		adds	r7, r7, #1
 1659              	.LVL204:
 585:/home/tienluong/workspace/atlantis_fw/AsicFwS2/src/lcc_cmd_base_0000.c **** 		/* Get camera object from camera object list */
 1660              		.loc 1 585 0
 1661 0076 8340     		lsls	r3, r3, r0
 1662 0078 28EA0308 		bic	r8, r8, r3
 1663              	.LVL205:
 587:/home/tienluong/workspace/atlantis_fw/AsicFwS2/src/lcc_cmd_base_0000.c **** 		if (NULL == p_cam)	/*Verify object is valid */
 1664              		.loc 1 587 0
 1665 007c 0A4B     		ldr	r3, .L142+20
 1666 007e 9847     		blx	r3
 1667              	.LVL206:
 588:/home/tienluong/workspace/atlantis_fw/AsicFwS2/src/lcc_cmd_base_0000.c **** 		{
 1668              		.loc 1 588 0
 1669 0080 0646     		mov	r6, r0
 1670 0082 0028     		cmp	r0, #0
 1671 0084 D7D1     		bne	.L139
 590:/home/tienluong/workspace/atlantis_fw/AsicFwS2/src/lcc_cmd_base_0000.c **** 			return;
 1672              		.loc 1 590 0
 1673 0086 0823     		movs	r3, #8
 1674 0088 2382     		strh	r3, [r4, #16]	@ movhi
 591:/home/tienluong/workspace/atlantis_fw/AsicFwS2/src/lcc_cmd_base_0000.c **** 		}
 1675              		.loc 1 591 0
 1676 008a BDE8F081 		pop	{r4, r5, r6, r7, r8, pc}
 1677              	.LVL207:
 1678              	.L141:
 1679 008e BDE8F081 		pop	{r4, r5, r6, r7, r8, pc}
 1680              	.LVL208:
 1681              	.L143:
 1682 0092 00BF     		.align	2
 1683              	.L142:
 1684 0094 00000000 		.word	.LANCHOR8
 1685 0098 00000000 		.word	pvPortMalloc1
 1686 009c 00000000 		.word	.LC0
 1687 00a0 00000000 		.word	slogf
 1688 00a4 00000000 		.word	xQueueGenericSend
 1689 00a8 00000000 		.word	idx_to_object
 1690 00ac 00000000 		.word	xQueueGenericReceive
 1691              		.cfi_endproc
 1692              	.LFE9:
 1694              		.section	.text.cmd_cam_module_resolution,"ax",%progbits
 1695              		.align	1
 1696              		.global	cmd_cam_module_resolution
 1697              		.thumb
 1698              		.thumb_func
 1700              	cmd_cam_module_resolution:
 1701              	.LFB10:
 600:/home/tienluong/workspace/atlantis_fw/AsicFwS2/src/lcc_cmd_base_0000.c **** 	}
 601:/home/tienluong/workspace/atlantis_fw/AsicFwS2/src/lcc_cmd_base_0000.c **** }
 602:/home/tienluong/workspace/atlantis_fw/AsicFwS2/src/lcc_cmd_base_0000.c **** 
 603:/home/tienluong/workspace/atlantis_fw/AsicFwS2/src/lcc_cmd_base_0000.c **** /**
 604:/home/tienluong/workspace/atlantis_fw/AsicFwS2/src/lcc_cmd_base_0000.c ****  * cmd_cam_module_resolution
 605:/home/tienluong/workspace/atlantis_fw/AsicFwS2/src/lcc_cmd_base_0000.c ****  *
 606:/home/tienluong/workspace/atlantis_fw/AsicFwS2/src/lcc_cmd_base_0000.c ****  */
 607:/home/tienluong/workspace/atlantis_fw/AsicFwS2/src/lcc_cmd_base_0000.c **** void cmd_cam_module_resolution(lcc_cmd_t *in, lcc_cmd_t *out)
 608:/home/tienluong/workspace/atlantis_fw/AsicFwS2/src/lcc_cmd_base_0000.c **** {
 1702              		.loc 1 608 0
 1703              		.cfi_startproc
 1704              		@ args = 0, pretend = 0, frame = 24
 1705              		@ frame_needed = 0, uses_anonymous_args = 0
 1706              	.LVL209:
 1707 0000 2DE9F04F 		push	{r4, r5, r6, r7, r8, r9, r10, fp, lr}
 1708              	.LCFI14:
 1709              		.cfi_def_cfa_offset 36
 1710              		.cfi_offset 4, -36
 1711              		.cfi_offset 5, -32
 1712              		.cfi_offset 6, -28
 1713              		.cfi_offset 7, -24
 1714              		.cfi_offset 8, -20
 1715              		.cfi_offset 9, -16
 1716              		.cfi_offset 10, -12
 1717              		.cfi_offset 11, -8
 1718              		.cfi_offset 14, -4
 609:/home/tienluong/workspace/atlantis_fw/AsicFwS2/src/lcc_cmd_base_0000.c **** 	lcc_cmd_tid_t p_cmd;
 610:/home/tienluong/workspace/atlantis_fw/AsicFwS2/src/lcc_cmd_base_0000.c **** 	cam_typedef_t *p_cam;
 611:/home/tienluong/workspace/atlantis_fw/AsicFwS2/src/lcc_cmd_base_0000.c **** 	lcc_cmd_info_t cmd = (lcc_cmd_info_t)(LCC_CMD_CAM_MODULE_RESOLUTION);
 612:/home/tienluong/workspace/atlantis_fw/AsicFwS2/src/lcc_cmd_base_0000.c **** 	uint32_t m_bitmask = in->m_bitmask;
 613:/home/tienluong/workspace/atlantis_fw/AsicFwS2/src/lcc_cmd_base_0000.c **** 	uint8_t i, cam_idx, data_cnt = 0;
 614:/home/tienluong/workspace/atlantis_fw/AsicFwS2/src/lcc_cmd_base_0000.c **** 
 615:/home/tienluong/workspace/atlantis_fw/AsicFwS2/src/lcc_cmd_base_0000.c **** 	if (CMD_READ == in->action)
 1719              		.loc 1 615 0
 1720 0004 C37C     		ldrb	r3, [r0, #19]	@ zero_extendqisi2
 1721 0006 DB07     		lsls	r3, r3, #31
 608:/home/tienluong/workspace/atlantis_fw/AsicFwS2/src/lcc_cmd_base_0000.c **** 	lcc_cmd_tid_t p_cmd;
 1722              		.loc 1 608 0
 1723 0008 87B0     		sub	sp, sp, #28
 1724              	.LCFI15:
 1725              		.cfi_def_cfa_offset 64
 608:/home/tienluong/workspace/atlantis_fw/AsicFwS2/src/lcc_cmd_base_0000.c **** 	lcc_cmd_tid_t p_cmd;
 1726              		.loc 1 608 0
 1727 000a 0446     		mov	r4, r0
 1728 000c 0F46     		mov	r7, r1
 612:/home/tienluong/workspace/atlantis_fw/AsicFwS2/src/lcc_cmd_base_0000.c **** 	uint8_t i, cam_idx, data_cnt = 0;
 1729              		.loc 1 612 0
 1730 000e D0F800A0 		ldr	r10, [r0]
 1731              	.LVL210:
 1732              		.loc 1 615 0
 1733 0012 03D4     		bmi	.L145
 1734              	.LVL211:
 1735              	.L147:
 616:/home/tienluong/workspace/atlantis_fw/AsicFwS2/src/lcc_cmd_base_0000.c **** 	{
 617:/home/tienluong/workspace/atlantis_fw/AsicFwS2/src/lcc_cmd_base_0000.c **** 		out->data = pvPortMalloc(in->m_number*cmd.size);
 618:/home/tienluong/workspace/atlantis_fw/AsicFwS2/src/lcc_cmd_base_0000.c **** 		if (NULL == out->data)
 619:/home/tienluong/workspace/atlantis_fw/AsicFwS2/src/lcc_cmd_base_0000.c **** 		{
 620:/home/tienluong/workspace/atlantis_fw/AsicFwS2/src/lcc_cmd_base_0000.c **** 			SLOGF(SLOG_ERROR, "%s: Lack of memory", __FUNCTION__);
 621:/home/tienluong/workspace/atlantis_fw/AsicFwS2/src/lcc_cmd_base_0000.c **** 			in->status = LCC_CMD_UNSUCCESS;
 622:/home/tienluong/workspace/atlantis_fw/AsicFwS2/src/lcc_cmd_base_0000.c **** 			return;
 623:/home/tienluong/workspace/atlantis_fw/AsicFwS2/src/lcc_cmd_base_0000.c **** 		}
 624:/home/tienluong/workspace/atlantis_fw/AsicFwS2/src/lcc_cmd_base_0000.c **** 	}
 625:/home/tienluong/workspace/atlantis_fw/AsicFwS2/src/lcc_cmd_base_0000.c **** 
 626:/home/tienluong/workspace/atlantis_fw/AsicFwS2/src/lcc_cmd_base_0000.c **** 	/* Scan camera bitmask  */
 627:/home/tienluong/workspace/atlantis_fw/AsicFwS2/src/lcc_cmd_base_0000.c **** 	for (i = 0; i < in->m_number; i++)
 628:/home/tienluong/workspace/atlantis_fw/AsicFwS2/src/lcc_cmd_base_0000.c **** 	{
 629:/home/tienluong/workspace/atlantis_fw/AsicFwS2/src/lcc_cmd_base_0000.c **** 		cam_idx = __builtin_ctz(m_bitmask);
 630:/home/tienluong/workspace/atlantis_fw/AsicFwS2/src/lcc_cmd_base_0000.c **** 		m_bitmask &= ~(1 << cam_idx);
 631:/home/tienluong/workspace/atlantis_fw/AsicFwS2/src/lcc_cmd_base_0000.c **** 		/* Get camera object from camera object list */
 632:/home/tienluong/workspace/atlantis_fw/AsicFwS2/src/lcc_cmd_base_0000.c **** 		p_cam = idx_to_object(cam_idx);
 633:/home/tienluong/workspace/atlantis_fw/AsicFwS2/src/lcc_cmd_base_0000.c **** 		if (NULL == p_cam)	/*Verify object is valid */
 634:/home/tienluong/workspace/atlantis_fw/AsicFwS2/src/lcc_cmd_base_0000.c **** 		{
 635:/home/tienluong/workspace/atlantis_fw/AsicFwS2/src/lcc_cmd_base_0000.c **** 			in->status = LCC_CMD_ERROR_INVALID_MBITMASK;
 636:/home/tienluong/workspace/atlantis_fw/AsicFwS2/src/lcc_cmd_base_0000.c **** 			return;
 637:/home/tienluong/workspace/atlantis_fw/AsicFwS2/src/lcc_cmd_base_0000.c **** 		}
 638:/home/tienluong/workspace/atlantis_fw/AsicFwS2/src/lcc_cmd_base_0000.c **** 
 639:/home/tienluong/workspace/atlantis_fw/AsicFwS2/src/lcc_cmd_base_0000.c **** 		/* Read command processing */
 640:/home/tienluong/workspace/atlantis_fw/AsicFwS2/src/lcc_cmd_base_0000.c **** 		if (CMD_READ == in->action)
 641:/home/tienluong/workspace/atlantis_fw/AsicFwS2/src/lcc_cmd_base_0000.c **** 		{
 642:/home/tienluong/workspace/atlantis_fw/AsicFwS2/src/lcc_cmd_base_0000.c **** 			/* TODO: Take semaphore to access settings memory */
 643:/home/tienluong/workspace/atlantis_fw/AsicFwS2/src/lcc_cmd_base_0000.c **** 			xSemaphoreTake(p_cam->image->semaphore, portMAX_DELAY);
 644:/home/tienluong/workspace/atlantis_fw/AsicFwS2/src/lcc_cmd_base_0000.c **** 			memcpy(&out->data[out->len],
 645:/home/tienluong/workspace/atlantis_fw/AsicFwS2/src/lcc_cmd_base_0000.c **** 					p_cam->image->settings[in->ucid]->resolution, cmd.size);
 646:/home/tienluong/workspace/atlantis_fw/AsicFwS2/src/lcc_cmd_base_0000.c **** 			out->len += cmd.size;
 647:/home/tienluong/workspace/atlantis_fw/AsicFwS2/src/lcc_cmd_base_0000.c **** 			/* TODO: Release semaphore after read data */
 648:/home/tienluong/workspace/atlantis_fw/AsicFwS2/src/lcc_cmd_base_0000.c **** 			xSemaphoreGive(p_cam->image->semaphore);
 649:/home/tienluong/workspace/atlantis_fw/AsicFwS2/src/lcc_cmd_base_0000.c **** 		}
 650:/home/tienluong/workspace/atlantis_fw/AsicFwS2/src/lcc_cmd_base_0000.c **** 		/* Write command processing */
 651:/home/tienluong/workspace/atlantis_fw/AsicFwS2/src/lcc_cmd_base_0000.c **** 		else
 652:/home/tienluong/workspace/atlantis_fw/AsicFwS2/src/lcc_cmd_base_0000.c **** 		{
 653:/home/tienluong/workspace/atlantis_fw/AsicFwS2/src/lcc_cmd_base_0000.c **** 			/* TODO: Take semaphore to access settings memory */
 654:/home/tienluong/workspace/atlantis_fw/AsicFwS2/src/lcc_cmd_base_0000.c **** 			xSemaphoreTake(p_cam->image->semaphore, portMAX_DELAY);
 655:/home/tienluong/workspace/atlantis_fw/AsicFwS2/src/lcc_cmd_base_0000.c **** 			p_cmd.cmd_tid = in->tid;
 656:/home/tienluong/workspace/atlantis_fw/AsicFwS2/src/lcc_cmd_base_0000.c **** 			p_cmd.event = IMG_EVENT_CAM_RESOLUTION;
 657:/home/tienluong/workspace/atlantis_fw/AsicFwS2/src/lcc_cmd_base_0000.c **** 			memcpy(p_cam->image->settings[in->ucid]->resolution,
 658:/home/tienluong/workspace/atlantis_fw/AsicFwS2/src/lcc_cmd_base_0000.c **** 											&in->data[data_cnt], cmd.size);
 659:/home/tienluong/workspace/atlantis_fw/AsicFwS2/src/lcc_cmd_base_0000.c **** 			/* TODO: Release semaphore after read data */
 660:/home/tienluong/workspace/atlantis_fw/AsicFwS2/src/lcc_cmd_base_0000.c **** 			xSemaphoreGive(p_cam->image->semaphore);
 661:/home/tienluong/workspace/atlantis_fw/AsicFwS2/src/lcc_cmd_base_0000.c **** 
 662:/home/tienluong/workspace/atlantis_fw/AsicFwS2/src/lcc_cmd_base_0000.c **** 			/* Raise a updating signal to camera task for this ASIC */
 663:/home/tienluong/workspace/atlantis_fw/AsicFwS2/src/lcc_cmd_base_0000.c **** 			if (light_system->m_filter & (1 << cam_idx))
 664:/home/tienluong/workspace/atlantis_fw/AsicFwS2/src/lcc_cmd_base_0000.c **** 			{
 665:/home/tienluong/workspace/atlantis_fw/AsicFwS2/src/lcc_cmd_base_0000.c **** 				if (in->ucid == light_system->active_ucid)
 666:/home/tienluong/workspace/atlantis_fw/AsicFwS2/src/lcc_cmd_base_0000.c **** 					xQueueSend(p_cam->queue, &p_cmd, (TickType_t)10);
 667:/home/tienluong/workspace/atlantis_fw/AsicFwS2/src/lcc_cmd_base_0000.c **** 				else
 668:/home/tienluong/workspace/atlantis_fw/AsicFwS2/src/lcc_cmd_base_0000.c **** 				{
 669:/home/tienluong/workspace/atlantis_fw/AsicFwS2/src/lcc_cmd_base_0000.c **** 					in->status = LCC_CMD_SUCCESS;
 670:/home/tienluong/workspace/atlantis_fw/AsicFwS2/src/lcc_cmd_base_0000.c **** 					/* Reset cam bit_mask to update the command status */
 671:/home/tienluong/workspace/atlantis_fw/AsicFwS2/src/lcc_cmd_base_0000.c **** 					in->m_bitmask &= ~(1 << cam_idx);
 672:/home/tienluong/workspace/atlantis_fw/AsicFwS2/src/lcc_cmd_base_0000.c **** 				}
 673:/home/tienluong/workspace/atlantis_fw/AsicFwS2/src/lcc_cmd_base_0000.c **** 			}
 674:/home/tienluong/workspace/atlantis_fw/AsicFwS2/src/lcc_cmd_base_0000.c **** 
 675:/home/tienluong/workspace/atlantis_fw/AsicFwS2/src/lcc_cmd_base_0000.c **** 			/* Set data pointer when command was set for global */
 676:/home/tienluong/workspace/atlantis_fw/AsicFwS2/src/lcc_cmd_base_0000.c **** 			data_cnt += in->global ? 0 : cmd.size;
 1736              		.loc 1 676 0
 1737 0014 4FF00009 		mov	r9, #0
 1738 0018 CB46     		mov	fp, r9
 1739 001a 37E0     		b	.L146
 1740              	.LVL212:
 1741              	.L145:
 617:/home/tienluong/workspace/atlantis_fw/AsicFwS2/src/lcc_cmd_base_0000.c **** 		if (NULL == out->data)
 1742              		.loc 1 617 0
 1743 001c 807C     		ldrb	r0, [r0, #18]	@ zero_extendqisi2
 1744              	.LVL213:
 1745 001e 4A49     		ldr	r1, .L160
 1746              	.LVL214:
 1747 0020 C000     		lsls	r0, r0, #3
 1748 0022 40F26922 		movw	r2, #617
 1749 0026 494B     		ldr	r3, .L160+4
 1750 0028 9847     		blx	r3
 1751              	.LVL215:
 1752 002a 0546     		mov	r5, r0
 1753 002c 7860     		str	r0, [r7, #4]
 618:/home/tienluong/workspace/atlantis_fw/AsicFwS2/src/lcc_cmd_base_0000.c **** 		{
 1754              		.loc 1 618 0
 1755 002e 0028     		cmp	r0, #0
 1756 0030 F0D1     		bne	.L147
 620:/home/tienluong/workspace/atlantis_fw/AsicFwS2/src/lcc_cmd_base_0000.c **** 			in->status = LCC_CMD_UNSUCCESS;
 1757              		.loc 1 620 0
 1758 0032 2120     		movs	r0, #33
 1759 0034 0221     		movs	r1, #2
 1760 0036 464A     		ldr	r2, .L160+8
 1761 0038 434B     		ldr	r3, .L160
 1762 003a 464E     		ldr	r6, .L160+12
 1763 003c B047     		blx	r6
 1764              	.LVL216:
 621:/home/tienluong/workspace/atlantis_fw/AsicFwS2/src/lcc_cmd_base_0000.c **** 			return;
 1765              		.loc 1 621 0
 1766 003e 2582     		strh	r5, [r4, #16]	@ movhi
 622:/home/tienluong/workspace/atlantis_fw/AsicFwS2/src/lcc_cmd_base_0000.c **** 		}
 1767              		.loc 1 622 0
 1768 0040 7EE0     		b	.L144
 1769              	.LVL217:
 1770              	.L149:
 1771 0042 0368     		ldr	r3, [r0]
 640:/home/tienluong/workspace/atlantis_fw/AsicFwS2/src/lcc_cmd_base_0000.c **** 		{
 1772              		.loc 1 640 0
 1773 0044 E57C     		ldrb	r5, [r4, #19]	@ zero_extendqisi2
 1774 0046 15F00105 		ands	r5, r5, #1
 1775 004a DFF81CC1 		ldr	ip, .L160+32
 643:/home/tienluong/workspace/atlantis_fw/AsicFwS2/src/lcc_cmd_base_0000.c **** 			memcpy(&out->data[out->len],
 1776              		.loc 1 643 0
 1777 004e D86B     		ldr	r0, [r3, #60]
 1778              	.LVL218:
 640:/home/tienluong/workspace/atlantis_fw/AsicFwS2/src/lcc_cmd_base_0000.c **** 		{
 1779              		.loc 1 640 0
 1780 0050 34D0     		beq	.L150
 643:/home/tienluong/workspace/atlantis_fw/AsicFwS2/src/lcc_cmd_base_0000.c **** 			memcpy(&out->data[out->len],
 1781              		.loc 1 643 0
 1782 0052 0021     		movs	r1, #0
 1783 0054 0B46     		mov	r3, r1
 1784 0056 4FF0FF32 		mov	r2, #-1
 1785 005a E047     		blx	ip
 1786              	.LVL219:
 645:/home/tienluong/workspace/atlantis_fw/AsicFwS2/src/lcc_cmd_base_0000.c **** 			out->len += cmd.size;
 1787              		.loc 1 645 0
 1788 005c 3368     		ldr	r3, [r6]
 1789 005e E189     		ldrh	r1, [r4, #14]
 644:/home/tienluong/workspace/atlantis_fw/AsicFwS2/src/lcc_cmd_base_0000.c **** 					p_cam->image->settings[in->ucid]->resolution, cmd.size);
 1790              		.loc 1 644 0
 1791 0060 7A68     		ldr	r2, [r7, #4]
 645:/home/tienluong/workspace/atlantis_fw/AsicFwS2/src/lcc_cmd_base_0000.c **** 			out->len += cmd.size;
 1792              		.loc 1 645 0
 1793 0062 03EB8103 		add	r3, r3, r1, lsl #2
 644:/home/tienluong/workspace/atlantis_fw/AsicFwS2/src/lcc_cmd_base_0000.c **** 					p_cam->image->settings[in->ucid]->resolution, cmd.size);
 1794              		.loc 1 644 0
 1795 0066 3889     		ldrh	r0, [r7, #8]
 1796 0068 1044     		add	r0, r0, r2
 1797 006a 0822     		movs	r2, #8
 1798 006c 5968     		ldr	r1, [r3, #4]
 1799 006e 3A4B     		ldr	r3, .L160+16
 1800 0070 0831     		adds	r1, r1, #8
 1801 0072 9847     		blx	r3
 1802              	.LVL220:
 646:/home/tienluong/workspace/atlantis_fw/AsicFwS2/src/lcc_cmd_base_0000.c **** 			/* TODO: Release semaphore after read data */
 1803              		.loc 1 646 0
 1804 0074 3B89     		ldrh	r3, [r7, #8]
 1805 0076 0833     		adds	r3, r3, #8
 648:/home/tienluong/workspace/atlantis_fw/AsicFwS2/src/lcc_cmd_base_0000.c **** 		}
 1806              		.loc 1 648 0
 1807 0078 0021     		movs	r1, #0
 646:/home/tienluong/workspace/atlantis_fw/AsicFwS2/src/lcc_cmd_base_0000.c **** 			/* TODO: Release semaphore after read data */
 1808              		.loc 1 646 0
 1809 007a 3B81     		strh	r3, [r7, #8]	@ movhi
 648:/home/tienluong/workspace/atlantis_fw/AsicFwS2/src/lcc_cmd_base_0000.c **** 		}
 1810              		.loc 1 648 0
 1811 007c 0A46     		mov	r2, r1
 1812 007e 3368     		ldr	r3, [r6]
 1813 0080 364D     		ldr	r5, .L160+20
 1814 0082 D86B     		ldr	r0, [r3, #60]
 1815 0084 0B46     		mov	r3, r1
 1816 0086 A847     		blx	r5
 1817              	.LVL221:
 1818              	.L151:
 1819 0088 09F10109 		add	r9, r9, #1
 1820              	.LVL222:
 1821              	.L146:
 627:/home/tienluong/workspace/atlantis_fw/AsicFwS2/src/lcc_cmd_base_0000.c **** 	{
 1822              		.loc 1 627 0 discriminator 1
 1823 008c 5FFA89F3 		uxtb	r3, r9
 1824 0090 A27C     		ldrb	r2, [r4, #18]	@ zero_extendqisi2
 1825 0092 9A42     		cmp	r2, r3
 1826 0094 54D9     		bls	.L144
 630:/home/tienluong/workspace/atlantis_fw/AsicFwS2/src/lcc_cmd_base_0000.c **** 		/* Get camera object from camera object list */
 1827              		.loc 1 630 0
 1828 0096 0123     		movs	r3, #1
 629:/home/tienluong/workspace/atlantis_fw/AsicFwS2/src/lcc_cmd_base_0000.c **** 		m_bitmask &= ~(1 << cam_idx);
 1829              		.loc 1 629 0
 1830 0098 9AFAAAF0 		rbit	r0, r10
 1831 009c B0FA80F0 		clz	r0, r0
 1832              	.LVL223:
 630:/home/tienluong/workspace/atlantis_fw/AsicFwS2/src/lcc_cmd_base_0000.c **** 		/* Get camera object from camera object list */
 1833              		.loc 1 630 0
 1834 00a0 8340     		lsls	r3, r3, r0
 1835 00a2 0193     		str	r3, [sp, #4]
 1836 00a4 DB43     		mvns	r3, r3
 1837 00a6 0AEA030A 		and	r10, r10, r3
 1838              	.LVL224:
 1839 00aa 0293     		str	r3, [sp, #8]
 632:/home/tienluong/workspace/atlantis_fw/AsicFwS2/src/lcc_cmd_base_0000.c **** 		if (NULL == p_cam)	/*Verify object is valid */
 1840              		.loc 1 632 0
 1841 00ac 2C4B     		ldr	r3, .L160+24
 1842 00ae 9847     		blx	r3
 1843              	.LVL225:
 633:/home/tienluong/workspace/atlantis_fw/AsicFwS2/src/lcc_cmd_base_0000.c **** 		{
 1844              		.loc 1 633 0
 1845 00b0 0646     		mov	r6, r0
 1846 00b2 0028     		cmp	r0, #0
 1847 00b4 C5D1     		bne	.L149
 635:/home/tienluong/workspace/atlantis_fw/AsicFwS2/src/lcc_cmd_base_0000.c **** 			return;
 1848              		.loc 1 635 0
 1849 00b6 0823     		movs	r3, #8
 1850 00b8 2382     		strh	r3, [r4, #16]	@ movhi
 636:/home/tienluong/workspace/atlantis_fw/AsicFwS2/src/lcc_cmd_base_0000.c **** 		}
 1851              		.loc 1 636 0
 1852 00ba 41E0     		b	.L144
 1853              	.LVL226:
 1854              	.L150:
 654:/home/tienluong/workspace/atlantis_fw/AsicFwS2/src/lcc_cmd_base_0000.c **** 			p_cmd.cmd_tid = in->tid;
 1855              		.loc 1 654 0
 1856 00bc 2946     		mov	r1, r5
 1857 00be 4FF0FF32 		mov	r2, #-1
 1858 00c2 2B46     		mov	r3, r5
 1859 00c4 E047     		blx	ip
 1860              	.LVL227:
 655:/home/tienluong/workspace/atlantis_fw/AsicFwS2/src/lcc_cmd_base_0000.c **** 			p_cmd.event = IMG_EVENT_CAM_RESOLUTION;
 1861              		.loc 1 655 0
 1862 00c6 6389     		ldrh	r3, [r4, #10]
 1863 00c8 ADF81030 		strh	r3, [sp, #16]	@ movhi
 656:/home/tienluong/workspace/atlantis_fw/AsicFwS2/src/lcc_cmd_base_0000.c **** 			memcpy(p_cam->image->settings[in->ucid]->resolution,
 1864              		.loc 1 656 0
 1865 00cc 0823     		movs	r3, #8
 658:/home/tienluong/workspace/atlantis_fw/AsicFwS2/src/lcc_cmd_base_0000.c **** 			/* TODO: Release semaphore after read data */
 1866              		.loc 1 658 0
 1867 00ce 9846     		mov	r8, r3
 657:/home/tienluong/workspace/atlantis_fw/AsicFwS2/src/lcc_cmd_base_0000.c **** 											&in->data[data_cnt], cmd.size);
 1868              		.loc 1 657 0
 1869 00d0 E289     		ldrh	r2, [r4, #14]
 656:/home/tienluong/workspace/atlantis_fw/AsicFwS2/src/lcc_cmd_base_0000.c **** 			memcpy(p_cam->image->settings[in->ucid]->resolution,
 1870              		.loc 1 656 0
 1871 00d2 0593     		str	r3, [sp, #20]
 657:/home/tienluong/workspace/atlantis_fw/AsicFwS2/src/lcc_cmd_base_0000.c **** 											&in->data[data_cnt], cmd.size);
 1872              		.loc 1 657 0
 1873 00d4 3368     		ldr	r3, [r6]
 658:/home/tienluong/workspace/atlantis_fw/AsicFwS2/src/lcc_cmd_base_0000.c **** 			/* TODO: Release semaphore after read data */
 1874              		.loc 1 658 0
 1875 00d6 6168     		ldr	r1, [r4, #4]
 657:/home/tienluong/workspace/atlantis_fw/AsicFwS2/src/lcc_cmd_base_0000.c **** 											&in->data[data_cnt], cmd.size);
 1876              		.loc 1 657 0
 1877 00d8 03EB8203 		add	r3, r3, r2, lsl #2
 1878 00dc 5944     		add	r1, r1, fp
 1879 00de 4246     		mov	r2, r8
 1880 00e0 5868     		ldr	r0, [r3, #4]
 1881 00e2 1D4B     		ldr	r3, .L160+16
 1882 00e4 4044     		add	r0, r0, r8
 1883 00e6 9847     		blx	r3
 1884              	.LVL228:
 660:/home/tienluong/workspace/atlantis_fw/AsicFwS2/src/lcc_cmd_base_0000.c **** 
 1885              		.loc 1 660 0
 1886 00e8 3368     		ldr	r3, [r6]
 1887 00ea DFF870C0 		ldr	ip, .L160+20
 1888 00ee 2946     		mov	r1, r5
 1889 00f0 2A46     		mov	r2, r5
 1890 00f2 D86B     		ldr	r0, [r3, #60]
 1891 00f4 2B46     		mov	r3, r5
 1892 00f6 CDF80CC0 		str	ip, [sp, #12]
 1893 00fa E047     		blx	ip
 1894              	.LVL229:
 663:/home/tienluong/workspace/atlantis_fw/AsicFwS2/src/lcc_cmd_base_0000.c **** 			{
 1895              		.loc 1 663 0
 1896 00fc 194B     		ldr	r3, .L160+28
 1897 00fe 0199     		ldr	r1, [sp, #4]
 1898 0100 DDF80CC0 		ldr	ip, [sp, #12]
 1899 0104 1B68     		ldr	r3, [r3]
 1900 0106 9A69     		ldr	r2, [r3, #24]
 1901 0108 1142     		tst	r1, r2
 1902 010a 0FD0     		beq	.L152
 665:/home/tienluong/workspace/atlantis_fw/AsicFwS2/src/lcc_cmd_base_0000.c **** 					xQueueSend(p_cam->queue, &p_cmd, (TickType_t)10);
 1903              		.loc 1 665 0
 1904 010c E289     		ldrh	r2, [r4, #14]
 1905 010e DB8C     		ldrh	r3, [r3, #38]
 1906 0110 9A42     		cmp	r2, r3
 1907 0112 05D1     		bne	.L153
 666:/home/tienluong/workspace/atlantis_fw/AsicFwS2/src/lcc_cmd_base_0000.c **** 				else
 1908              		.loc 1 666 0
 1909 0114 706B     		ldr	r0, [r6, #52]
 1910 0116 04A9     		add	r1, sp, #16
 1911 0118 0A22     		movs	r2, #10
 1912 011a 2B46     		mov	r3, r5
 1913 011c E047     		blx	ip
 1914              	.LVL230:
 1915 011e 05E0     		b	.L152
 1916              	.L153:
 669:/home/tienluong/workspace/atlantis_fw/AsicFwS2/src/lcc_cmd_base_0000.c **** 					/* Reset cam bit_mask to update the command status */
 1917              		.loc 1 669 0
 1918 0120 0123     		movs	r3, #1
 671:/home/tienluong/workspace/atlantis_fw/AsicFwS2/src/lcc_cmd_base_0000.c **** 				}
 1919              		.loc 1 671 0
 1920 0122 029A     		ldr	r2, [sp, #8]
 669:/home/tienluong/workspace/atlantis_fw/AsicFwS2/src/lcc_cmd_base_0000.c **** 					/* Reset cam bit_mask to update the command status */
 1921              		.loc 1 669 0
 1922 0124 2382     		strh	r3, [r4, #16]	@ movhi
 671:/home/tienluong/workspace/atlantis_fw/AsicFwS2/src/lcc_cmd_base_0000.c **** 				}
 1923              		.loc 1 671 0
 1924 0126 2368     		ldr	r3, [r4]
 1925 0128 1340     		ands	r3, r3, r2
 1926 012a 2360     		str	r3, [r4]
 1927              	.L152:
 1928              		.loc 1 676 0
 1929 012c E37C     		ldrb	r3, [r4, #19]	@ zero_extendqisi2
 1930 012e 13F0020F 		tst	r3, #2
 1931 0132 14BF     		ite	ne
 1932 0134 0025     		movne	r5, #0
 1933 0136 4546     		moveq	r5, r8
 1934 0138 AB44     		add	fp, fp, r5
 1935              	.LVL231:
 1936 013a 5FFA8BFB 		uxtb	fp, fp
 1937              	.LVL232:
 1938 013e A3E7     		b	.L151
 1939              	.LVL233:
 1940              	.L144:
 677:/home/tienluong/workspace/atlantis_fw/AsicFwS2/src/lcc_cmd_base_0000.c **** 		}
 678:/home/tienluong/workspace/atlantis_fw/AsicFwS2/src/lcc_cmd_base_0000.c **** 	}
 679:/home/tienluong/workspace/atlantis_fw/AsicFwS2/src/lcc_cmd_base_0000.c **** 	/* The command status will be updated in either lcc_cmd task
 680:/home/tienluong/workspace/atlantis_fw/AsicFwS2/src/lcc_cmd_base_0000.c **** 	 * (read command) or task_cam_ctrl (write command) */
 681:/home/tienluong/workspace/atlantis_fw/AsicFwS2/src/lcc_cmd_base_0000.c **** }
 1941              		.loc 1 681 0
 1942 0140 07B0     		add	sp, sp, #28
 1943              	.LCFI16:
 1944              		.cfi_def_cfa_offset 36
 1945              		@ sp needed
 1946 0142 BDE8F08F 		pop	{r4, r5, r6, r7, r8, r9, r10, fp, pc}
 1947              	.LVL234:
 1948              	.L161:
 1949 0146 00BF     		.align	2
 1950              	.L160:
 1951 0148 00000000 		.word	.LANCHOR9
 1952 014c 00000000 		.word	pvPortMalloc1
 1953 0150 00000000 		.word	.LC0
 1954 0154 00000000 		.word	slogf
 1955 0158 00000000 		.word	memcpy
 1956 015c 00000000 		.word	xQueueGenericSend
 1957 0160 00000000 		.word	idx_to_object
 1958 0164 00000000 		.word	light_system
 1959 0168 00000000 		.word	xQueueGenericReceive
 1960              		.cfi_endproc
 1961              	.LFE10:
 1963              		.section	.text.cmd_cam_module_sensitivity,"ax",%progbits
 1964              		.align	1
 1965              		.global	cmd_cam_module_sensitivity
 1966              		.thumb
 1967              		.thumb_func
 1969              	cmd_cam_module_sensitivity:
 1970              	.LFB11:
 682:/home/tienluong/workspace/atlantis_fw/AsicFwS2/src/lcc_cmd_base_0000.c **** 
 683:/home/tienluong/workspace/atlantis_fw/AsicFwS2/src/lcc_cmd_base_0000.c **** /**
 684:/home/tienluong/workspace/atlantis_fw/AsicFwS2/src/lcc_cmd_base_0000.c ****  * cmd_cam_module_sensitivity
 685:/home/tienluong/workspace/atlantis_fw/AsicFwS2/src/lcc_cmd_base_0000.c ****  */
 686:/home/tienluong/workspace/atlantis_fw/AsicFwS2/src/lcc_cmd_base_0000.c **** void cmd_cam_module_sensitivity(lcc_cmd_t *in, lcc_cmd_t *out)
 687:/home/tienluong/workspace/atlantis_fw/AsicFwS2/src/lcc_cmd_base_0000.c **** {
 1971              		.loc 1 687 0
 1972              		.cfi_startproc
 1973              		@ args = 0, pretend = 0, frame = 16
 1974              		@ frame_needed = 0, uses_anonymous_args = 0
 1975              	.LVL235:
 1976 0000 2DE9F04F 		push	{r4, r5, r6, r7, r8, r9, r10, fp, lr}
 1977              	.LCFI17:
 1978              		.cfi_def_cfa_offset 36
 1979              		.cfi_offset 4, -36
 1980              		.cfi_offset 5, -32
 1981              		.cfi_offset 6, -28
 1982              		.cfi_offset 7, -24
 1983              		.cfi_offset 8, -20
 1984              		.cfi_offset 9, -16
 1985              		.cfi_offset 10, -12
 1986              		.cfi_offset 11, -8
 1987              		.cfi_offset 14, -4
 688:/home/tienluong/workspace/atlantis_fw/AsicFwS2/src/lcc_cmd_base_0000.c **** 	lcc_cmd_tid_t p_cmd;
 689:/home/tienluong/workspace/atlantis_fw/AsicFwS2/src/lcc_cmd_base_0000.c **** 	cam_typedef_t *p_cam;
 690:/home/tienluong/workspace/atlantis_fw/AsicFwS2/src/lcc_cmd_base_0000.c **** 	lcc_cmd_info_t cmd = (lcc_cmd_info_t)(LCC_CMD_CAM_MODULE_SENSITIVITY);
 691:/home/tienluong/workspace/atlantis_fw/AsicFwS2/src/lcc_cmd_base_0000.c **** 	uint32_t m_bitmask = in->m_bitmask;
 692:/home/tienluong/workspace/atlantis_fw/AsicFwS2/src/lcc_cmd_base_0000.c **** 	uint8_t i, cam_idx, data_cnt = 0;
 693:/home/tienluong/workspace/atlantis_fw/AsicFwS2/src/lcc_cmd_base_0000.c **** 
 694:/home/tienluong/workspace/atlantis_fw/AsicFwS2/src/lcc_cmd_base_0000.c **** 	if (CMD_READ == in->action)
 1988              		.loc 1 694 0
 1989 0004 C37C     		ldrb	r3, [r0, #19]	@ zero_extendqisi2
 1990 0006 DB07     		lsls	r3, r3, #31
 687:/home/tienluong/workspace/atlantis_fw/AsicFwS2/src/lcc_cmd_base_0000.c **** 	lcc_cmd_tid_t p_cmd;
 1991              		.loc 1 687 0
 1992 0008 85B0     		sub	sp, sp, #20
 1993              	.LCFI18:
 1994              		.cfi_def_cfa_offset 56
 687:/home/tienluong/workspace/atlantis_fw/AsicFwS2/src/lcc_cmd_base_0000.c **** 	lcc_cmd_tid_t p_cmd;
 1995              		.loc 1 687 0
 1996 000a 0446     		mov	r4, r0
 1997 000c 0F46     		mov	r7, r1
 691:/home/tienluong/workspace/atlantis_fw/AsicFwS2/src/lcc_cmd_base_0000.c **** 	uint8_t i, cam_idx, data_cnt = 0;
 1998              		.loc 1 691 0
 1999 000e D0F80090 		ldr	r9, [r0]
 2000              	.LVL236:
 2001              		.loc 1 694 0
 2002 0012 03D4     		bmi	.L163
 2003              	.LVL237:
 2004              	.L165:
 695:/home/tienluong/workspace/atlantis_fw/AsicFwS2/src/lcc_cmd_base_0000.c **** 	{
 696:/home/tienluong/workspace/atlantis_fw/AsicFwS2/src/lcc_cmd_base_0000.c **** 		out->data = pvPortMalloc(in->m_number*cmd.size);
 697:/home/tienluong/workspace/atlantis_fw/AsicFwS2/src/lcc_cmd_base_0000.c **** 		if (NULL == out->data)
 698:/home/tienluong/workspace/atlantis_fw/AsicFwS2/src/lcc_cmd_base_0000.c **** 		{
 699:/home/tienluong/workspace/atlantis_fw/AsicFwS2/src/lcc_cmd_base_0000.c **** 			SLOGF(SLOG_ERROR, "%s: Lack of memory", __FUNCTION__);
 700:/home/tienluong/workspace/atlantis_fw/AsicFwS2/src/lcc_cmd_base_0000.c **** 			in->status = LCC_CMD_UNSUCCESS;
 701:/home/tienluong/workspace/atlantis_fw/AsicFwS2/src/lcc_cmd_base_0000.c **** 			return;
 702:/home/tienluong/workspace/atlantis_fw/AsicFwS2/src/lcc_cmd_base_0000.c **** 		}
 703:/home/tienluong/workspace/atlantis_fw/AsicFwS2/src/lcc_cmd_base_0000.c **** 	}
 704:/home/tienluong/workspace/atlantis_fw/AsicFwS2/src/lcc_cmd_base_0000.c **** 
 705:/home/tienluong/workspace/atlantis_fw/AsicFwS2/src/lcc_cmd_base_0000.c **** 	/* Scan camera bitmask  */
 706:/home/tienluong/workspace/atlantis_fw/AsicFwS2/src/lcc_cmd_base_0000.c **** 	for (i = 0; i < in->m_number; i++)
 707:/home/tienluong/workspace/atlantis_fw/AsicFwS2/src/lcc_cmd_base_0000.c **** 	{
 708:/home/tienluong/workspace/atlantis_fw/AsicFwS2/src/lcc_cmd_base_0000.c **** 		cam_idx = __builtin_ctz(m_bitmask);
 709:/home/tienluong/workspace/atlantis_fw/AsicFwS2/src/lcc_cmd_base_0000.c **** 		m_bitmask &= ~(1 << cam_idx);
 710:/home/tienluong/workspace/atlantis_fw/AsicFwS2/src/lcc_cmd_base_0000.c **** 		/* Get camera object from camera object list */
 711:/home/tienluong/workspace/atlantis_fw/AsicFwS2/src/lcc_cmd_base_0000.c **** 		p_cam = idx_to_object(cam_idx);
 712:/home/tienluong/workspace/atlantis_fw/AsicFwS2/src/lcc_cmd_base_0000.c **** 		if (NULL == p_cam)	/*Verify object is valid */
 713:/home/tienluong/workspace/atlantis_fw/AsicFwS2/src/lcc_cmd_base_0000.c **** 		{
 714:/home/tienluong/workspace/atlantis_fw/AsicFwS2/src/lcc_cmd_base_0000.c **** 			in->status = LCC_CMD_INVALID_ARG;
 715:/home/tienluong/workspace/atlantis_fw/AsicFwS2/src/lcc_cmd_base_0000.c **** 			return;
 716:/home/tienluong/workspace/atlantis_fw/AsicFwS2/src/lcc_cmd_base_0000.c **** 		}
 717:/home/tienluong/workspace/atlantis_fw/AsicFwS2/src/lcc_cmd_base_0000.c **** 
 718:/home/tienluong/workspace/atlantis_fw/AsicFwS2/src/lcc_cmd_base_0000.c **** 		/* Read command processing */
 719:/home/tienluong/workspace/atlantis_fw/AsicFwS2/src/lcc_cmd_base_0000.c **** 		if (CMD_READ == in->action)
 720:/home/tienluong/workspace/atlantis_fw/AsicFwS2/src/lcc_cmd_base_0000.c **** 		{
 721:/home/tienluong/workspace/atlantis_fw/AsicFwS2/src/lcc_cmd_base_0000.c **** 			/* TODO: Take semaphore to access settings memory */
 722:/home/tienluong/workspace/atlantis_fw/AsicFwS2/src/lcc_cmd_base_0000.c **** 			xSemaphoreTake(p_cam->image->semaphore, portMAX_DELAY);
 723:/home/tienluong/workspace/atlantis_fw/AsicFwS2/src/lcc_cmd_base_0000.c **** 			memcpy(&out->data[out->len],
 724:/home/tienluong/workspace/atlantis_fw/AsicFwS2/src/lcc_cmd_base_0000.c **** 					p_cam->image->settings[in->ucid]->sensitivity, cmd.size);
 725:/home/tienluong/workspace/atlantis_fw/AsicFwS2/src/lcc_cmd_base_0000.c **** 			out->len += cmd.size;
 726:/home/tienluong/workspace/atlantis_fw/AsicFwS2/src/lcc_cmd_base_0000.c **** 			/* TODO: Release semaphore after read data */
 727:/home/tienluong/workspace/atlantis_fw/AsicFwS2/src/lcc_cmd_base_0000.c **** 			xSemaphoreGive(p_cam->image->semaphore);
 728:/home/tienluong/workspace/atlantis_fw/AsicFwS2/src/lcc_cmd_base_0000.c **** 		}
 729:/home/tienluong/workspace/atlantis_fw/AsicFwS2/src/lcc_cmd_base_0000.c **** 		/* Write command processing */
 730:/home/tienluong/workspace/atlantis_fw/AsicFwS2/src/lcc_cmd_base_0000.c **** 		else
 731:/home/tienluong/workspace/atlantis_fw/AsicFwS2/src/lcc_cmd_base_0000.c **** 		{
 732:/home/tienluong/workspace/atlantis_fw/AsicFwS2/src/lcc_cmd_base_0000.c **** 			/* TODO: Take semaphore to access settings memory */
 733:/home/tienluong/workspace/atlantis_fw/AsicFwS2/src/lcc_cmd_base_0000.c **** 			p_cmd.cmd_tid = in->tid;
 734:/home/tienluong/workspace/atlantis_fw/AsicFwS2/src/lcc_cmd_base_0000.c **** 			p_cmd.event = IMG_EVENT_CAM_SENSITIVITY;
 735:/home/tienluong/workspace/atlantis_fw/AsicFwS2/src/lcc_cmd_base_0000.c **** 			xSemaphoreTake(p_cam->image->semaphore, portMAX_DELAY);
 736:/home/tienluong/workspace/atlantis_fw/AsicFwS2/src/lcc_cmd_base_0000.c **** 			memcpy(p_cam->image->settings[in->ucid]->sensitivity,
 737:/home/tienluong/workspace/atlantis_fw/AsicFwS2/src/lcc_cmd_base_0000.c **** 												&in->data[data_cnt], cmd.size);
 738:/home/tienluong/workspace/atlantis_fw/AsicFwS2/src/lcc_cmd_base_0000.c **** 			/* TODO: Release semaphore after read data */
 739:/home/tienluong/workspace/atlantis_fw/AsicFwS2/src/lcc_cmd_base_0000.c **** 			xSemaphoreGive(p_cam->image->semaphore);
 740:/home/tienluong/workspace/atlantis_fw/AsicFwS2/src/lcc_cmd_base_0000.c **** 
 741:/home/tienluong/workspace/atlantis_fw/AsicFwS2/src/lcc_cmd_base_0000.c **** 			/* Raise a updating signal to camera task for this ASIC */
 742:/home/tienluong/workspace/atlantis_fw/AsicFwS2/src/lcc_cmd_base_0000.c **** 			if (light_system->m_filter & (1 << cam_idx))
 743:/home/tienluong/workspace/atlantis_fw/AsicFwS2/src/lcc_cmd_base_0000.c **** 			{
 744:/home/tienluong/workspace/atlantis_fw/AsicFwS2/src/lcc_cmd_base_0000.c **** 				if (in->ucid == light_system->active_ucid)
 745:/home/tienluong/workspace/atlantis_fw/AsicFwS2/src/lcc_cmd_base_0000.c **** 					xQueueSend(p_cam->queue, &p_cmd, (TickType_t)10);
 746:/home/tienluong/workspace/atlantis_fw/AsicFwS2/src/lcc_cmd_base_0000.c **** 				else
 747:/home/tienluong/workspace/atlantis_fw/AsicFwS2/src/lcc_cmd_base_0000.c **** 				{
 748:/home/tienluong/workspace/atlantis_fw/AsicFwS2/src/lcc_cmd_base_0000.c **** 					in->status = LCC_CMD_SUCCESS;
 749:/home/tienluong/workspace/atlantis_fw/AsicFwS2/src/lcc_cmd_base_0000.c **** 					/* Reset cam bit_mask to update the command status */
 750:/home/tienluong/workspace/atlantis_fw/AsicFwS2/src/lcc_cmd_base_0000.c **** 					in->m_bitmask &= ~(1 << cam_idx);
 751:/home/tienluong/workspace/atlantis_fw/AsicFwS2/src/lcc_cmd_base_0000.c **** 				}
 752:/home/tienluong/workspace/atlantis_fw/AsicFwS2/src/lcc_cmd_base_0000.c **** 			}
 753:/home/tienluong/workspace/atlantis_fw/AsicFwS2/src/lcc_cmd_base_0000.c **** 
 754:/home/tienluong/workspace/atlantis_fw/AsicFwS2/src/lcc_cmd_base_0000.c **** 			/* Set data pointer when command was set for global */
 755:/home/tienluong/workspace/atlantis_fw/AsicFwS2/src/lcc_cmd_base_0000.c **** 			data_cnt += in->global ? 0 : cmd.size;
 2005              		.loc 1 755 0
 2006 0014 4FF00008 		mov	r8, #0
 2007 0018 C246     		mov	r10, r8
 2008 001a 36E0     		b	.L164
 2009              	.LVL238:
 2010              	.L163:
 696:/home/tienluong/workspace/atlantis_fw/AsicFwS2/src/lcc_cmd_base_0000.c **** 		if (NULL == out->data)
 2011              		.loc 1 696 0
 2012 001c 807C     		ldrb	r0, [r0, #18]	@ zero_extendqisi2
 2013              	.LVL239:
 2014 001e 4B49     		ldr	r1, .L178
 2015              	.LVL240:
 2016 0020 8000     		lsls	r0, r0, #2
 2017 0022 4FF42E72 		mov	r2, #696
 2018 0026 4A4B     		ldr	r3, .L178+4
 2019 0028 9847     		blx	r3
 2020              	.LVL241:
 2021 002a 0546     		mov	r5, r0
 2022 002c 7860     		str	r0, [r7, #4]
 697:/home/tienluong/workspace/atlantis_fw/AsicFwS2/src/lcc_cmd_base_0000.c **** 		{
 2023              		.loc 1 697 0
 2024 002e 0028     		cmp	r0, #0
 2025 0030 F0D1     		bne	.L165
 699:/home/tienluong/workspace/atlantis_fw/AsicFwS2/src/lcc_cmd_base_0000.c **** 			in->status = LCC_CMD_UNSUCCESS;
 2026              		.loc 1 699 0
 2027 0032 2120     		movs	r0, #33
 2028 0034 0221     		movs	r1, #2
 2029 0036 474A     		ldr	r2, .L178+8
 2030 0038 444B     		ldr	r3, .L178
 2031 003a 474E     		ldr	r6, .L178+12
 2032 003c B047     		blx	r6
 2033              	.LVL242:
 700:/home/tienluong/workspace/atlantis_fw/AsicFwS2/src/lcc_cmd_base_0000.c **** 			return;
 2034              		.loc 1 700 0
 2035 003e 2582     		strh	r5, [r4, #16]	@ movhi
 701:/home/tienluong/workspace/atlantis_fw/AsicFwS2/src/lcc_cmd_base_0000.c **** 		}
 2036              		.loc 1 701 0
 2037 0040 81E0     		b	.L162
 2038              	.LVL243:
 2039              	.L167:
 719:/home/tienluong/workspace/atlantis_fw/AsicFwS2/src/lcc_cmd_base_0000.c **** 		{
 2040              		.loc 1 719 0
 2041 0042 E57C     		ldrb	r5, [r4, #19]	@ zero_extendqisi2
 2042 0044 15F00105 		ands	r5, r5, #1
 2043 0048 38D0     		beq	.L168
 722:/home/tienluong/workspace/atlantis_fw/AsicFwS2/src/lcc_cmd_base_0000.c **** 			memcpy(&out->data[out->len],
 2044              		.loc 1 722 0
 2045 004a 0368     		ldr	r3, [r0]
 2046 004c 0021     		movs	r1, #0
 2047 004e 4FF0FF32 		mov	r2, #-1
 2048 0052 424D     		ldr	r5, .L178+16
 2049 0054 D86B     		ldr	r0, [r3, #60]
 2050              	.LVL244:
 2051 0056 0B46     		mov	r3, r1
 2052 0058 A847     		blx	r5
 2053              	.LVL245:
 724:/home/tienluong/workspace/atlantis_fw/AsicFwS2/src/lcc_cmd_base_0000.c **** 			out->len += cmd.size;
 2054              		.loc 1 724 0
 2055 005a 3368     		ldr	r3, [r6]
 2056 005c E189     		ldrh	r1, [r4, #14]
 723:/home/tienluong/workspace/atlantis_fw/AsicFwS2/src/lcc_cmd_base_0000.c **** 					p_cam->image->settings[in->ucid]->sensitivity, cmd.size);
 2057              		.loc 1 723 0
 2058 005e 7A68     		ldr	r2, [r7, #4]
 724:/home/tienluong/workspace/atlantis_fw/AsicFwS2/src/lcc_cmd_base_0000.c **** 			out->len += cmd.size;
 2059              		.loc 1 724 0
 2060 0060 03EB8103 		add	r3, r3, r1, lsl #2
 723:/home/tienluong/workspace/atlantis_fw/AsicFwS2/src/lcc_cmd_base_0000.c **** 					p_cam->image->settings[in->ucid]->sensitivity, cmd.size);
 2061              		.loc 1 723 0
 2062 0064 3889     		ldrh	r0, [r7, #8]
 2063 0066 1044     		add	r0, r0, r2
 2064 0068 0422     		movs	r2, #4
 2065 006a 5968     		ldr	r1, [r3, #4]
 2066 006c 3C4B     		ldr	r3, .L178+20
 2067 006e 1031     		adds	r1, r1, #16
 2068 0070 9847     		blx	r3
 2069              	.LVL246:
 725:/home/tienluong/workspace/atlantis_fw/AsicFwS2/src/lcc_cmd_base_0000.c **** 			/* TODO: Release semaphore after read data */
 2070              		.loc 1 725 0
 2071 0072 3B89     		ldrh	r3, [r7, #8]
 2072 0074 0433     		adds	r3, r3, #4
 727:/home/tienluong/workspace/atlantis_fw/AsicFwS2/src/lcc_cmd_base_0000.c **** 		}
 2073              		.loc 1 727 0
 2074 0076 0021     		movs	r1, #0
 725:/home/tienluong/workspace/atlantis_fw/AsicFwS2/src/lcc_cmd_base_0000.c **** 			/* TODO: Release semaphore after read data */
 2075              		.loc 1 725 0
 2076 0078 3B81     		strh	r3, [r7, #8]	@ movhi
 727:/home/tienluong/workspace/atlantis_fw/AsicFwS2/src/lcc_cmd_base_0000.c **** 		}
 2077              		.loc 1 727 0
 2078 007a 0A46     		mov	r2, r1
 2079 007c 3368     		ldr	r3, [r6]
 2080 007e 394D     		ldr	r5, .L178+24
 2081 0080 D86B     		ldr	r0, [r3, #60]
 2082 0082 0B46     		mov	r3, r1
 2083 0084 A847     		blx	r5
 2084              	.LVL247:
 2085              	.L169:
 2086 0086 08F10108 		add	r8, r8, #1
 2087              	.LVL248:
 2088              	.L164:
 706:/home/tienluong/workspace/atlantis_fw/AsicFwS2/src/lcc_cmd_base_0000.c **** 	{
 2089              		.loc 1 706 0 discriminator 1
 2090 008a 5FFA88F3 		uxtb	r3, r8
 2091 008e A27C     		ldrb	r2, [r4, #18]	@ zero_extendqisi2
 2092 0090 9A42     		cmp	r2, r3
 2093 0092 58D9     		bls	.L162
 709:/home/tienluong/workspace/atlantis_fw/AsicFwS2/src/lcc_cmd_base_0000.c **** 		/* Get camera object from camera object list */
 2094              		.loc 1 709 0
 2095 0094 0123     		movs	r3, #1
 708:/home/tienluong/workspace/atlantis_fw/AsicFwS2/src/lcc_cmd_base_0000.c **** 		m_bitmask &= ~(1 << cam_idx);
 2096              		.loc 1 708 0
 2097 0096 99FAA9F0 		rbit	r0, r9
 2098 009a B0FA80F0 		clz	r0, r0
 2099              	.LVL249:
 709:/home/tienluong/workspace/atlantis_fw/AsicFwS2/src/lcc_cmd_base_0000.c **** 		/* Get camera object from camera object list */
 2100              		.loc 1 709 0
 2101 009e 03FA00FB 		lsl	fp, r3, r0
 2102 00a2 6FEA0B03 		mvn	r3, fp
 2103 00a6 09EA0309 		and	r9, r9, r3
 2104              	.LVL250:
 2105 00aa 0093     		str	r3, [sp]
 711:/home/tienluong/workspace/atlantis_fw/AsicFwS2/src/lcc_cmd_base_0000.c **** 		if (NULL == p_cam)	/*Verify object is valid */
 2106              		.loc 1 711 0
 2107 00ac 2E4B     		ldr	r3, .L178+28
 2108 00ae 9847     		blx	r3
 2109              	.LVL251:
 712:/home/tienluong/workspace/atlantis_fw/AsicFwS2/src/lcc_cmd_base_0000.c **** 		{
 2110              		.loc 1 712 0
 2111 00b0 0646     		mov	r6, r0
 2112 00b2 0028     		cmp	r0, #0
 2113 00b4 C5D1     		bne	.L167
 714:/home/tienluong/workspace/atlantis_fw/AsicFwS2/src/lcc_cmd_base_0000.c **** 			return;
 2114              		.loc 1 714 0
 2115 00b6 0423     		movs	r3, #4
 2116 00b8 2382     		strh	r3, [r4, #16]	@ movhi
 715:/home/tienluong/workspace/atlantis_fw/AsicFwS2/src/lcc_cmd_base_0000.c **** 		}
 2117              		.loc 1 715 0
 2118 00ba 44E0     		b	.L162
 2119              	.L168:
 733:/home/tienluong/workspace/atlantis_fw/AsicFwS2/src/lcc_cmd_base_0000.c **** 			p_cmd.event = IMG_EVENT_CAM_SENSITIVITY;
 2120              		.loc 1 733 0
 2121 00bc 6389     		ldrh	r3, [r4, #10]
 2122 00be ADF80830 		strh	r3, [sp, #8]	@ movhi
 734:/home/tienluong/workspace/atlantis_fw/AsicFwS2/src/lcc_cmd_base_0000.c **** 			xSemaphoreTake(p_cam->image->semaphore, portMAX_DELAY);
 2123              		.loc 1 734 0
 2124 00c2 1023     		movs	r3, #16
 735:/home/tienluong/workspace/atlantis_fw/AsicFwS2/src/lcc_cmd_base_0000.c **** 			memcpy(p_cam->image->settings[in->ucid]->sensitivity,
 2125              		.loc 1 735 0
 2126 00c4 DFF894C0 		ldr	ip, .L178+16
 2127 00c8 2946     		mov	r1, r5
 734:/home/tienluong/workspace/atlantis_fw/AsicFwS2/src/lcc_cmd_base_0000.c **** 			xSemaphoreTake(p_cam->image->semaphore, portMAX_DELAY);
 2128              		.loc 1 734 0
 2129 00ca 0393     		str	r3, [sp, #12]
 735:/home/tienluong/workspace/atlantis_fw/AsicFwS2/src/lcc_cmd_base_0000.c **** 			memcpy(p_cam->image->settings[in->ucid]->sensitivity,
 2130              		.loc 1 735 0
 2131 00cc 4FF0FF32 		mov	r2, #-1
 2132 00d0 0368     		ldr	r3, [r0]
 2133 00d2 D86B     		ldr	r0, [r3, #60]
 2134              	.LVL252:
 2135 00d4 2B46     		mov	r3, r5
 2136 00d6 E047     		blx	ip
 2137              	.LVL253:
 736:/home/tienluong/workspace/atlantis_fw/AsicFwS2/src/lcc_cmd_base_0000.c **** 												&in->data[data_cnt], cmd.size);
 2138              		.loc 1 736 0
 2139 00d8 3368     		ldr	r3, [r6]
 2140 00da E289     		ldrh	r2, [r4, #14]
 737:/home/tienluong/workspace/atlantis_fw/AsicFwS2/src/lcc_cmd_base_0000.c **** 			/* TODO: Release semaphore after read data */
 2141              		.loc 1 737 0
 2142 00dc 6168     		ldr	r1, [r4, #4]
 736:/home/tienluong/workspace/atlantis_fw/AsicFwS2/src/lcc_cmd_base_0000.c **** 												&in->data[data_cnt], cmd.size);
 2143              		.loc 1 736 0
 2144 00de 03EB8203 		add	r3, r3, r2, lsl #2
 2145 00e2 5144     		add	r1, r1, r10
 2146 00e4 0422     		movs	r2, #4
 2147 00e6 5868     		ldr	r0, [r3, #4]
 2148 00e8 1D4B     		ldr	r3, .L178+20
 2149 00ea 1030     		adds	r0, r0, #16
 2150 00ec 9847     		blx	r3
 2151              	.LVL254:
 739:/home/tienluong/workspace/atlantis_fw/AsicFwS2/src/lcc_cmd_base_0000.c **** 
 2152              		.loc 1 739 0
 2153 00ee 3368     		ldr	r3, [r6]
 2154 00f0 DFF870C0 		ldr	ip, .L178+24
 2155 00f4 2A46     		mov	r2, r5
 2156 00f6 2946     		mov	r1, r5
 2157 00f8 D86B     		ldr	r0, [r3, #60]
 2158 00fa 2B46     		mov	r3, r5
 2159 00fc CDF804C0 		str	ip, [sp, #4]
 2160 0100 E047     		blx	ip
 2161              	.LVL255:
 742:/home/tienluong/workspace/atlantis_fw/AsicFwS2/src/lcc_cmd_base_0000.c **** 			{
 2162              		.loc 1 742 0
 2163 0102 1A4B     		ldr	r3, .L178+32
 2164 0104 DDF804C0 		ldr	ip, [sp, #4]
 2165 0108 1B68     		ldr	r3, [r3]
 2166 010a 9A69     		ldr	r2, [r3, #24]
 2167 010c 1BEA020F 		tst	fp, r2
 2168 0110 0FD0     		beq	.L170
 744:/home/tienluong/workspace/atlantis_fw/AsicFwS2/src/lcc_cmd_base_0000.c **** 					xQueueSend(p_cam->queue, &p_cmd, (TickType_t)10);
 2169              		.loc 1 744 0
 2170 0112 E289     		ldrh	r2, [r4, #14]
 2171 0114 DB8C     		ldrh	r3, [r3, #38]
 2172 0116 9A42     		cmp	r2, r3
 2173 0118 05D1     		bne	.L171
 745:/home/tienluong/workspace/atlantis_fw/AsicFwS2/src/lcc_cmd_base_0000.c **** 				else
 2174              		.loc 1 745 0
 2175 011a 706B     		ldr	r0, [r6, #52]
 2176 011c 02A9     		add	r1, sp, #8
 2177 011e 0A22     		movs	r2, #10
 2178 0120 2B46     		mov	r3, r5
 2179 0122 E047     		blx	ip
 2180              	.LVL256:
 2181 0124 05E0     		b	.L170
 2182              	.L171:
 748:/home/tienluong/workspace/atlantis_fw/AsicFwS2/src/lcc_cmd_base_0000.c **** 					/* Reset cam bit_mask to update the command status */
 2183              		.loc 1 748 0
 2184 0126 0123     		movs	r3, #1
 750:/home/tienluong/workspace/atlantis_fw/AsicFwS2/src/lcc_cmd_base_0000.c **** 				}
 2185              		.loc 1 750 0
 2186 0128 009A     		ldr	r2, [sp]
 748:/home/tienluong/workspace/atlantis_fw/AsicFwS2/src/lcc_cmd_base_0000.c **** 					/* Reset cam bit_mask to update the command status */
 2187              		.loc 1 748 0
 2188 012a 2382     		strh	r3, [r4, #16]	@ movhi
 750:/home/tienluong/workspace/atlantis_fw/AsicFwS2/src/lcc_cmd_base_0000.c **** 				}
 2189              		.loc 1 750 0
 2190 012c 2368     		ldr	r3, [r4]
 2191 012e 1340     		ands	r3, r3, r2
 2192 0130 2360     		str	r3, [r4]
 2193              	.L170:
 2194              		.loc 1 755 0
 2195 0132 E37C     		ldrb	r3, [r4, #19]	@ zero_extendqisi2
 2196 0134 13F0020F 		tst	r3, #2
 2197 0138 14BF     		ite	ne
 2198 013a 0025     		movne	r5, #0
 2199 013c 0425     		moveq	r5, #4
 2200 013e AA44     		add	r10, r10, r5
 2201              	.LVL257:
 2202 0140 5FFA8AFA 		uxtb	r10, r10
 2203              	.LVL258:
 2204 0144 9FE7     		b	.L169
 2205              	.LVL259:
 2206              	.L162:
 756:/home/tienluong/workspace/atlantis_fw/AsicFwS2/src/lcc_cmd_base_0000.c **** 		}
 757:/home/tienluong/workspace/atlantis_fw/AsicFwS2/src/lcc_cmd_base_0000.c **** 	}
 758:/home/tienluong/workspace/atlantis_fw/AsicFwS2/src/lcc_cmd_base_0000.c **** 	/* The command status will be updated in either lcc_cmd task
 759:/home/tienluong/workspace/atlantis_fw/AsicFwS2/src/lcc_cmd_base_0000.c **** 	 * (read command) or task_cam_ctrl (write command) */
 760:/home/tienluong/workspace/atlantis_fw/AsicFwS2/src/lcc_cmd_base_0000.c **** }
 2207              		.loc 1 760 0
 2208 0146 05B0     		add	sp, sp, #20
 2209              	.LCFI19:
 2210              		.cfi_def_cfa_offset 36
 2211              		@ sp needed
 2212 0148 BDE8F08F 		pop	{r4, r5, r6, r7, r8, r9, r10, fp, pc}
 2213              	.LVL260:
 2214              	.L179:
 2215              		.align	2
 2216              	.L178:
 2217 014c 00000000 		.word	.LANCHOR10
 2218 0150 00000000 		.word	pvPortMalloc1
 2219 0154 00000000 		.word	.LC0
 2220 0158 00000000 		.word	slogf
 2221 015c 00000000 		.word	xQueueGenericReceive
 2222 0160 00000000 		.word	memcpy
 2223 0164 00000000 		.word	xQueueGenericSend
 2224 0168 00000000 		.word	idx_to_object
 2225 016c 00000000 		.word	light_system
 2226              		.cfi_endproc
 2227              	.LFE11:
 2229              		.section	.text.cmd_cam_module_exposure_time,"ax",%progbits
 2230              		.align	1
 2231              		.global	cmd_cam_module_exposure_time
 2232              		.thumb
 2233              		.thumb_func
 2235              	cmd_cam_module_exposure_time:
 2236              	.LFB12:
 761:/home/tienluong/workspace/atlantis_fw/AsicFwS2/src/lcc_cmd_base_0000.c **** 
 762:/home/tienluong/workspace/atlantis_fw/AsicFwS2/src/lcc_cmd_base_0000.c **** /**
 763:/home/tienluong/workspace/atlantis_fw/AsicFwS2/src/lcc_cmd_base_0000.c ****  * cmd_cam_module_exposure_time
 764:/home/tienluong/workspace/atlantis_fw/AsicFwS2/src/lcc_cmd_base_0000.c ****  *
 765:/home/tienluong/workspace/atlantis_fw/AsicFwS2/src/lcc_cmd_base_0000.c ****  */
 766:/home/tienluong/workspace/atlantis_fw/AsicFwS2/src/lcc_cmd_base_0000.c **** void cmd_cam_module_exposure_time(lcc_cmd_t *in, lcc_cmd_t *out)
 767:/home/tienluong/workspace/atlantis_fw/AsicFwS2/src/lcc_cmd_base_0000.c **** {
 2237              		.loc 1 767 0
 2238              		.cfi_startproc
 2239              		@ args = 0, pretend = 0, frame = 16
 2240              		@ frame_needed = 0, uses_anonymous_args = 0
 2241              	.LVL261:
 2242 0000 2DE9F04F 		push	{r4, r5, r6, r7, r8, r9, r10, fp, lr}
 2243              	.LCFI20:
 2244              		.cfi_def_cfa_offset 36
 2245              		.cfi_offset 4, -36
 2246              		.cfi_offset 5, -32
 2247              		.cfi_offset 6, -28
 2248              		.cfi_offset 7, -24
 2249              		.cfi_offset 8, -20
 2250              		.cfi_offset 9, -16
 2251              		.cfi_offset 10, -12
 2252              		.cfi_offset 11, -8
 2253              		.cfi_offset 14, -4
 768:/home/tienluong/workspace/atlantis_fw/AsicFwS2/src/lcc_cmd_base_0000.c **** 	lcc_cmd_tid_t p_cmd;
 769:/home/tienluong/workspace/atlantis_fw/AsicFwS2/src/lcc_cmd_base_0000.c **** 	cam_typedef_t *p_cam;
 770:/home/tienluong/workspace/atlantis_fw/AsicFwS2/src/lcc_cmd_base_0000.c **** 	lcc_cmd_info_t cmd = (lcc_cmd_info_t)(LCC_CMD_CAM_MODULE_EXPOSURE_TIME);
 771:/home/tienluong/workspace/atlantis_fw/AsicFwS2/src/lcc_cmd_base_0000.c **** 	uint32_t m_bitmask = in->m_bitmask;
 772:/home/tienluong/workspace/atlantis_fw/AsicFwS2/src/lcc_cmd_base_0000.c **** 	uint8_t i, cam_idx, data_cnt = 0;
 773:/home/tienluong/workspace/atlantis_fw/AsicFwS2/src/lcc_cmd_base_0000.c **** 
 774:/home/tienluong/workspace/atlantis_fw/AsicFwS2/src/lcc_cmd_base_0000.c **** 	if (CMD_READ == in->action)
 2254              		.loc 1 774 0
 2255 0004 C37C     		ldrb	r3, [r0, #19]	@ zero_extendqisi2
 2256 0006 DB07     		lsls	r3, r3, #31
 767:/home/tienluong/workspace/atlantis_fw/AsicFwS2/src/lcc_cmd_base_0000.c **** 	lcc_cmd_tid_t p_cmd;
 2257              		.loc 1 767 0
 2258 0008 85B0     		sub	sp, sp, #20
 2259              	.LCFI21:
 2260              		.cfi_def_cfa_offset 56
 767:/home/tienluong/workspace/atlantis_fw/AsicFwS2/src/lcc_cmd_base_0000.c **** 	lcc_cmd_tid_t p_cmd;
 2261              		.loc 1 767 0
 2262 000a 0446     		mov	r4, r0
 2263 000c 0F46     		mov	r7, r1
 771:/home/tienluong/workspace/atlantis_fw/AsicFwS2/src/lcc_cmd_base_0000.c **** 	uint8_t i, cam_idx, data_cnt = 0;
 2264              		.loc 1 771 0
 2265 000e D0F80090 		ldr	r9, [r0]
 2266              	.LVL262:
 2267              		.loc 1 774 0
 2268 0012 03D4     		bmi	.L181
 2269              	.LVL263:
 2270              	.L183:
 775:/home/tienluong/workspace/atlantis_fw/AsicFwS2/src/lcc_cmd_base_0000.c **** 	{
 776:/home/tienluong/workspace/atlantis_fw/AsicFwS2/src/lcc_cmd_base_0000.c **** 		out->data = pvPortMalloc(in->m_number*cmd.size);
 777:/home/tienluong/workspace/atlantis_fw/AsicFwS2/src/lcc_cmd_base_0000.c **** 		if (NULL == out->data)
 778:/home/tienluong/workspace/atlantis_fw/AsicFwS2/src/lcc_cmd_base_0000.c **** 		{
 779:/home/tienluong/workspace/atlantis_fw/AsicFwS2/src/lcc_cmd_base_0000.c **** 			SLOGF(SLOG_ERROR, "%s: Lack of memory", __FUNCTION__);
 780:/home/tienluong/workspace/atlantis_fw/AsicFwS2/src/lcc_cmd_base_0000.c **** 			in->status = LCC_CMD_UNSUCCESS;
 781:/home/tienluong/workspace/atlantis_fw/AsicFwS2/src/lcc_cmd_base_0000.c **** 			return;
 782:/home/tienluong/workspace/atlantis_fw/AsicFwS2/src/lcc_cmd_base_0000.c **** 		}
 783:/home/tienluong/workspace/atlantis_fw/AsicFwS2/src/lcc_cmd_base_0000.c **** 	}
 784:/home/tienluong/workspace/atlantis_fw/AsicFwS2/src/lcc_cmd_base_0000.c **** 
 785:/home/tienluong/workspace/atlantis_fw/AsicFwS2/src/lcc_cmd_base_0000.c **** 	/* Scan camera bitmask  */
 786:/home/tienluong/workspace/atlantis_fw/AsicFwS2/src/lcc_cmd_base_0000.c **** 	for (i = 0; i < in->m_number; i++)
 787:/home/tienluong/workspace/atlantis_fw/AsicFwS2/src/lcc_cmd_base_0000.c **** 	{
 788:/home/tienluong/workspace/atlantis_fw/AsicFwS2/src/lcc_cmd_base_0000.c **** 		cam_idx = __builtin_ctz(m_bitmask);
 789:/home/tienluong/workspace/atlantis_fw/AsicFwS2/src/lcc_cmd_base_0000.c **** 		m_bitmask &= ~(1 << cam_idx);
 790:/home/tienluong/workspace/atlantis_fw/AsicFwS2/src/lcc_cmd_base_0000.c **** 		/* Get camera object from camera object list */
 791:/home/tienluong/workspace/atlantis_fw/AsicFwS2/src/lcc_cmd_base_0000.c **** 		p_cam = idx_to_object(cam_idx);
 792:/home/tienluong/workspace/atlantis_fw/AsicFwS2/src/lcc_cmd_base_0000.c **** 		if (NULL == p_cam)	/*Verify object is valid */
 793:/home/tienluong/workspace/atlantis_fw/AsicFwS2/src/lcc_cmd_base_0000.c **** 		{
 794:/home/tienluong/workspace/atlantis_fw/AsicFwS2/src/lcc_cmd_base_0000.c **** 			in->status = LCC_CMD_INVALID_ARG;
 795:/home/tienluong/workspace/atlantis_fw/AsicFwS2/src/lcc_cmd_base_0000.c **** 			return;
 796:/home/tienluong/workspace/atlantis_fw/AsicFwS2/src/lcc_cmd_base_0000.c **** 		}
 797:/home/tienluong/workspace/atlantis_fw/AsicFwS2/src/lcc_cmd_base_0000.c **** 
 798:/home/tienluong/workspace/atlantis_fw/AsicFwS2/src/lcc_cmd_base_0000.c **** 		/* Read command processing */
 799:/home/tienluong/workspace/atlantis_fw/AsicFwS2/src/lcc_cmd_base_0000.c **** 		if (CMD_READ == in->action)
 800:/home/tienluong/workspace/atlantis_fw/AsicFwS2/src/lcc_cmd_base_0000.c **** 		{
 801:/home/tienluong/workspace/atlantis_fw/AsicFwS2/src/lcc_cmd_base_0000.c **** 			/* TODO: Take semaphore to access settings memory */
 802:/home/tienluong/workspace/atlantis_fw/AsicFwS2/src/lcc_cmd_base_0000.c **** 			xSemaphoreTake(p_cam->image->semaphore, portMAX_DELAY);
 803:/home/tienluong/workspace/atlantis_fw/AsicFwS2/src/lcc_cmd_base_0000.c **** 			memcpy(&out->data[out->len],
 804:/home/tienluong/workspace/atlantis_fw/AsicFwS2/src/lcc_cmd_base_0000.c **** 						p_cam->image->settings[in->ucid]->exposure, cmd.size);
 805:/home/tienluong/workspace/atlantis_fw/AsicFwS2/src/lcc_cmd_base_0000.c **** 			out->len += cmd.size;
 806:/home/tienluong/workspace/atlantis_fw/AsicFwS2/src/lcc_cmd_base_0000.c **** 			/* TODO: Release semaphore after read data */
 807:/home/tienluong/workspace/atlantis_fw/AsicFwS2/src/lcc_cmd_base_0000.c **** 			xSemaphoreGive(p_cam->image->semaphore);
 808:/home/tienluong/workspace/atlantis_fw/AsicFwS2/src/lcc_cmd_base_0000.c **** 		}
 809:/home/tienluong/workspace/atlantis_fw/AsicFwS2/src/lcc_cmd_base_0000.c **** 		/* Write command processing */
 810:/home/tienluong/workspace/atlantis_fw/AsicFwS2/src/lcc_cmd_base_0000.c **** 		else
 811:/home/tienluong/workspace/atlantis_fw/AsicFwS2/src/lcc_cmd_base_0000.c **** 		{
 812:/home/tienluong/workspace/atlantis_fw/AsicFwS2/src/lcc_cmd_base_0000.c **** 			SLOGF(SLOG_DEBUG, "Exposure setting request for CAM-%X",
 813:/home/tienluong/workspace/atlantis_fw/AsicFwS2/src/lcc_cmd_base_0000.c **** 														p_cam->info.module);
 814:/home/tienluong/workspace/atlantis_fw/AsicFwS2/src/lcc_cmd_base_0000.c **** 			p_cmd.cmd_tid = in->tid;
 815:/home/tienluong/workspace/atlantis_fw/AsicFwS2/src/lcc_cmd_base_0000.c **** 			p_cmd.event = IMG_EVENT_CAM_EXPOSURE_TIME;
 816:/home/tienluong/workspace/atlantis_fw/AsicFwS2/src/lcc_cmd_base_0000.c **** 			/* TODO: Take semaphore to access settings memory */
 817:/home/tienluong/workspace/atlantis_fw/AsicFwS2/src/lcc_cmd_base_0000.c **** 			memcpy(p_cam->image->settings[in->ucid]->exposure,
 818:/home/tienluong/workspace/atlantis_fw/AsicFwS2/src/lcc_cmd_base_0000.c **** 												&in->data[data_cnt], cmd.size);
 819:/home/tienluong/workspace/atlantis_fw/AsicFwS2/src/lcc_cmd_base_0000.c **** 			/* TODO: Release semaphore after read data */
 820:/home/tienluong/workspace/atlantis_fw/AsicFwS2/src/lcc_cmd_base_0000.c **** 			/* Raise a updating signal to camera task for this ASIC */
 821:/home/tienluong/workspace/atlantis_fw/AsicFwS2/src/lcc_cmd_base_0000.c **** 			if (light_system->m_filter & (1 << cam_idx))
 822:/home/tienluong/workspace/atlantis_fw/AsicFwS2/src/lcc_cmd_base_0000.c **** 			{
 823:/home/tienluong/workspace/atlantis_fw/AsicFwS2/src/lcc_cmd_base_0000.c **** 				if (in->ucid == light_system->active_ucid)
 824:/home/tienluong/workspace/atlantis_fw/AsicFwS2/src/lcc_cmd_base_0000.c **** 					xQueueSend(p_cam->queue, &p_cmd, (TickType_t)10);
 825:/home/tienluong/workspace/atlantis_fw/AsicFwS2/src/lcc_cmd_base_0000.c **** 				else
 826:/home/tienluong/workspace/atlantis_fw/AsicFwS2/src/lcc_cmd_base_0000.c **** 				{
 827:/home/tienluong/workspace/atlantis_fw/AsicFwS2/src/lcc_cmd_base_0000.c **** 					in->status = LCC_CMD_SUCCESS;
 828:/home/tienluong/workspace/atlantis_fw/AsicFwS2/src/lcc_cmd_base_0000.c **** 					/* Reset cam bit_mask to update the command status */
 829:/home/tienluong/workspace/atlantis_fw/AsicFwS2/src/lcc_cmd_base_0000.c **** 					in->m_bitmask &= ~(1 << cam_idx);
 830:/home/tienluong/workspace/atlantis_fw/AsicFwS2/src/lcc_cmd_base_0000.c **** 				}
 831:/home/tienluong/workspace/atlantis_fw/AsicFwS2/src/lcc_cmd_base_0000.c **** 			}
 832:/home/tienluong/workspace/atlantis_fw/AsicFwS2/src/lcc_cmd_base_0000.c **** 
 833:/home/tienluong/workspace/atlantis_fw/AsicFwS2/src/lcc_cmd_base_0000.c **** 			/* Set data pointer when command was set for global */
 834:/home/tienluong/workspace/atlantis_fw/AsicFwS2/src/lcc_cmd_base_0000.c **** 			data_cnt += in->global ? 0 : cmd.size;
 2271              		.loc 1 834 0
 2272 0014 4FF00008 		mov	r8, #0
 2273 0018 C246     		mov	r10, r8
 2274 001a 35E0     		b	.L182
 2275              	.LVL264:
 2276              	.L181:
 776:/home/tienluong/workspace/atlantis_fw/AsicFwS2/src/lcc_cmd_base_0000.c **** 		if (NULL == out->data)
 2277              		.loc 1 776 0
 2278 001c 807C     		ldrb	r0, [r0, #18]	@ zero_extendqisi2
 2279              	.LVL265:
 2280 001e 4449     		ldr	r1, .L196
 2281              	.LVL266:
 2282 0020 C000     		lsls	r0, r0, #3
 2283 0022 4FF44272 		mov	r2, #776
 2284 0026 434B     		ldr	r3, .L196+4
 2285 0028 9847     		blx	r3
 2286              	.LVL267:
 2287 002a 0546     		mov	r5, r0
 2288 002c 7860     		str	r0, [r7, #4]
 777:/home/tienluong/workspace/atlantis_fw/AsicFwS2/src/lcc_cmd_base_0000.c **** 		{
 2289              		.loc 1 777 0
 2290 002e 0028     		cmp	r0, #0
 2291 0030 F0D1     		bne	.L183
 779:/home/tienluong/workspace/atlantis_fw/AsicFwS2/src/lcc_cmd_base_0000.c **** 			in->status = LCC_CMD_UNSUCCESS;
 2292              		.loc 1 779 0
 2293 0032 2120     		movs	r0, #33
 2294 0034 0221     		movs	r1, #2
 2295 0036 404A     		ldr	r2, .L196+8
 2296 0038 3D4B     		ldr	r3, .L196
 2297 003a 404E     		ldr	r6, .L196+12
 2298 003c B047     		blx	r6
 2299              	.LVL268:
 780:/home/tienluong/workspace/atlantis_fw/AsicFwS2/src/lcc_cmd_base_0000.c **** 			return;
 2300              		.loc 1 780 0
 2301 003e 2582     		strh	r5, [r4, #16]	@ movhi
 781:/home/tienluong/workspace/atlantis_fw/AsicFwS2/src/lcc_cmd_base_0000.c **** 		}
 2302              		.loc 1 781 0
 2303 0040 73E0     		b	.L180
 2304              	.LVL269:
 2305              	.L185:
 799:/home/tienluong/workspace/atlantis_fw/AsicFwS2/src/lcc_cmd_base_0000.c **** 		{
 2306              		.loc 1 799 0
 2307 0042 E57C     		ldrb	r5, [r4, #19]	@ zero_extendqisi2
 2308 0044 15F00105 		ands	r5, r5, #1
 2309 0048 37D0     		beq	.L186
 802:/home/tienluong/workspace/atlantis_fw/AsicFwS2/src/lcc_cmd_base_0000.c **** 			memcpy(&out->data[out->len],
 2310              		.loc 1 802 0
 2311 004a 0368     		ldr	r3, [r0]
 2312 004c 0021     		movs	r1, #0
 2313 004e 4FF0FF32 		mov	r2, #-1
 2314 0052 3B4D     		ldr	r5, .L196+16
 2315 0054 D86B     		ldr	r0, [r3, #60]
 2316              	.LVL270:
 2317 0056 0B46     		mov	r3, r1
 2318 0058 A847     		blx	r5
 2319              	.LVL271:
 804:/home/tienluong/workspace/atlantis_fw/AsicFwS2/src/lcc_cmd_base_0000.c **** 			out->len += cmd.size;
 2320              		.loc 1 804 0
 2321 005a 3368     		ldr	r3, [r6]
 2322 005c E189     		ldrh	r1, [r4, #14]
 803:/home/tienluong/workspace/atlantis_fw/AsicFwS2/src/lcc_cmd_base_0000.c **** 						p_cam->image->settings[in->ucid]->exposure, cmd.size);
 2323              		.loc 1 803 0
 2324 005e 7868     		ldr	r0, [r7, #4]
 804:/home/tienluong/workspace/atlantis_fw/AsicFwS2/src/lcc_cmd_base_0000.c **** 			out->len += cmd.size;
 2325              		.loc 1 804 0
 2326 0060 03EB8103 		add	r3, r3, r1, lsl #2
 803:/home/tienluong/workspace/atlantis_fw/AsicFwS2/src/lcc_cmd_base_0000.c **** 						p_cam->image->settings[in->ucid]->exposure, cmd.size);
 2327              		.loc 1 803 0
 2328 0064 3A89     		ldrh	r2, [r7, #8]
 2329 0066 1044     		add	r0, r0, r2
 2330 0068 0822     		movs	r2, #8
 2331 006a 5968     		ldr	r1, [r3, #4]
 2332 006c 354B     		ldr	r3, .L196+20
 2333 006e 9847     		blx	r3
 2334              	.LVL272:
 805:/home/tienluong/workspace/atlantis_fw/AsicFwS2/src/lcc_cmd_base_0000.c **** 			/* TODO: Release semaphore after read data */
 2335              		.loc 1 805 0
 2336 0070 3B89     		ldrh	r3, [r7, #8]
 2337 0072 0833     		adds	r3, r3, #8
 807:/home/tienluong/workspace/atlantis_fw/AsicFwS2/src/lcc_cmd_base_0000.c **** 		}
 2338              		.loc 1 807 0
 2339 0074 0021     		movs	r1, #0
 805:/home/tienluong/workspace/atlantis_fw/AsicFwS2/src/lcc_cmd_base_0000.c **** 			/* TODO: Release semaphore after read data */
 2340              		.loc 1 805 0
 2341 0076 3B81     		strh	r3, [r7, #8]	@ movhi
 807:/home/tienluong/workspace/atlantis_fw/AsicFwS2/src/lcc_cmd_base_0000.c **** 		}
 2342              		.loc 1 807 0
 2343 0078 0A46     		mov	r2, r1
 2344 007a 3368     		ldr	r3, [r6]
 2345 007c 324D     		ldr	r5, .L196+24
 2346 007e D86B     		ldr	r0, [r3, #60]
 2347 0080 0B46     		mov	r3, r1
 2348 0082 A847     		blx	r5
 2349              	.LVL273:
 2350              	.L187:
 2351 0084 08F10108 		add	r8, r8, #1
 2352              	.LVL274:
 2353              	.L182:
 786:/home/tienluong/workspace/atlantis_fw/AsicFwS2/src/lcc_cmd_base_0000.c **** 	{
 2354              		.loc 1 786 0 discriminator 1
 2355 0088 5FFA88F3 		uxtb	r3, r8
 2356 008c A27C     		ldrb	r2, [r4, #18]	@ zero_extendqisi2
 2357 008e 9A42     		cmp	r2, r3
 2358 0090 4BD9     		bls	.L180
 789:/home/tienluong/workspace/atlantis_fw/AsicFwS2/src/lcc_cmd_base_0000.c **** 		/* Get camera object from camera object list */
 2359              		.loc 1 789 0
 2360 0092 0123     		movs	r3, #1
 788:/home/tienluong/workspace/atlantis_fw/AsicFwS2/src/lcc_cmd_base_0000.c **** 		m_bitmask &= ~(1 << cam_idx);
 2361              		.loc 1 788 0
 2362 0094 99FAA9F0 		rbit	r0, r9
 2363 0098 B0FA80F0 		clz	r0, r0
 2364              	.LVL275:
 789:/home/tienluong/workspace/atlantis_fw/AsicFwS2/src/lcc_cmd_base_0000.c **** 		/* Get camera object from camera object list */
 2365              		.loc 1 789 0
 2366 009c 03FA00FB 		lsl	fp, r3, r0
 2367 00a0 6FEA0B03 		mvn	r3, fp
 2368 00a4 09EA0309 		and	r9, r9, r3
 2369              	.LVL276:
 2370 00a8 0193     		str	r3, [sp, #4]
 791:/home/tienluong/workspace/atlantis_fw/AsicFwS2/src/lcc_cmd_base_0000.c **** 		if (NULL == p_cam)	/*Verify object is valid */
 2371              		.loc 1 791 0
 2372 00aa 284B     		ldr	r3, .L196+28
 2373 00ac 9847     		blx	r3
 2374              	.LVL277:
 792:/home/tienluong/workspace/atlantis_fw/AsicFwS2/src/lcc_cmd_base_0000.c **** 		{
 2375              		.loc 1 792 0
 2376 00ae 0646     		mov	r6, r0
 2377 00b0 0028     		cmp	r0, #0
 2378 00b2 C6D1     		bne	.L185
 794:/home/tienluong/workspace/atlantis_fw/AsicFwS2/src/lcc_cmd_base_0000.c **** 			return;
 2379              		.loc 1 794 0
 2380 00b4 0423     		movs	r3, #4
 2381 00b6 2382     		strh	r3, [r4, #16]	@ movhi
 795:/home/tienluong/workspace/atlantis_fw/AsicFwS2/src/lcc_cmd_base_0000.c **** 		}
 2382              		.loc 1 795 0
 2383 00b8 37E0     		b	.L180
 2384              	.L186:
 812:/home/tienluong/workspace/atlantis_fw/AsicFwS2/src/lcc_cmd_base_0000.c **** 														p_cam->info.module);
 2385              		.loc 1 812 0
 2386 00ba 2120     		movs	r0, #33
 2387              	.LVL278:
 2388 00bc 96F82930 		ldrb	r3, [r6, #41]	@ zero_extendqisi2
 2389 00c0 1021     		movs	r1, #16
 2390 00c2 234A     		ldr	r2, .L196+32
 2391 00c4 DFF874C0 		ldr	ip, .L196+12
 2392 00c8 E047     		blx	ip
 2393              	.LVL279:
 814:/home/tienluong/workspace/atlantis_fw/AsicFwS2/src/lcc_cmd_base_0000.c **** 			p_cmd.event = IMG_EVENT_CAM_EXPOSURE_TIME;
 2394              		.loc 1 814 0
 2395 00ca 6389     		ldrh	r3, [r4, #10]
 2396 00cc ADF80830 		strh	r3, [sp, #8]	@ movhi
 815:/home/tienluong/workspace/atlantis_fw/AsicFwS2/src/lcc_cmd_base_0000.c **** 			/* TODO: Take semaphore to access settings memory */
 2397              		.loc 1 815 0
 2398 00d0 2023     		movs	r3, #32
 817:/home/tienluong/workspace/atlantis_fw/AsicFwS2/src/lcc_cmd_base_0000.c **** 												&in->data[data_cnt], cmd.size);
 2399              		.loc 1 817 0
 2400 00d2 E289     		ldrh	r2, [r4, #14]
 818:/home/tienluong/workspace/atlantis_fw/AsicFwS2/src/lcc_cmd_base_0000.c **** 			/* TODO: Release semaphore after read data */
 2401              		.loc 1 818 0
 2402 00d4 6168     		ldr	r1, [r4, #4]
 815:/home/tienluong/workspace/atlantis_fw/AsicFwS2/src/lcc_cmd_base_0000.c **** 			/* TODO: Take semaphore to access settings memory */
 2403              		.loc 1 815 0
 2404 00d6 0393     		str	r3, [sp, #12]
 817:/home/tienluong/workspace/atlantis_fw/AsicFwS2/src/lcc_cmd_base_0000.c **** 												&in->data[data_cnt], cmd.size);
 2405              		.loc 1 817 0
 2406 00d8 3368     		ldr	r3, [r6]
 2407 00da 5144     		add	r1, r1, r10
 2408 00dc 03EB8203 		add	r3, r3, r2, lsl #2
 2409 00e0 0822     		movs	r2, #8
 2410 00e2 5868     		ldr	r0, [r3, #4]
 2411 00e4 174B     		ldr	r3, .L196+20
 2412 00e6 9847     		blx	r3
 2413              	.LVL280:
 821:/home/tienluong/workspace/atlantis_fw/AsicFwS2/src/lcc_cmd_base_0000.c **** 			{
 2414              		.loc 1 821 0
 2415 00e8 1A4B     		ldr	r3, .L196+36
 2416 00ea 1B68     		ldr	r3, [r3]
 2417 00ec 9A69     		ldr	r2, [r3, #24]
 2418 00ee 1BEA020F 		tst	fp, r2
 2419 00f2 10D0     		beq	.L188
 823:/home/tienluong/workspace/atlantis_fw/AsicFwS2/src/lcc_cmd_base_0000.c **** 					xQueueSend(p_cam->queue, &p_cmd, (TickType_t)10);
 2420              		.loc 1 823 0
 2421 00f4 E289     		ldrh	r2, [r4, #14]
 2422 00f6 DB8C     		ldrh	r3, [r3, #38]
 2423 00f8 9A42     		cmp	r2, r3
 2424 00fa 06D1     		bne	.L189
 824:/home/tienluong/workspace/atlantis_fw/AsicFwS2/src/lcc_cmd_base_0000.c **** 				else
 2425              		.loc 1 824 0
 2426 00fc 2B46     		mov	r3, r5
 2427 00fe 02A9     		add	r1, sp, #8
 2428 0100 706B     		ldr	r0, [r6, #52]
 2429 0102 0A22     		movs	r2, #10
 2430 0104 104D     		ldr	r5, .L196+24
 2431 0106 A847     		blx	r5
 2432              	.LVL281:
 2433 0108 05E0     		b	.L188
 2434              	.L189:
 827:/home/tienluong/workspace/atlantis_fw/AsicFwS2/src/lcc_cmd_base_0000.c **** 					/* Reset cam bit_mask to update the command status */
 2435              		.loc 1 827 0
 2436 010a 0123     		movs	r3, #1
 829:/home/tienluong/workspace/atlantis_fw/AsicFwS2/src/lcc_cmd_base_0000.c **** 				}
 2437              		.loc 1 829 0
 2438 010c 019A     		ldr	r2, [sp, #4]
 827:/home/tienluong/workspace/atlantis_fw/AsicFwS2/src/lcc_cmd_base_0000.c **** 					/* Reset cam bit_mask to update the command status */
 2439              		.loc 1 827 0
 2440 010e 2382     		strh	r3, [r4, #16]	@ movhi
 829:/home/tienluong/workspace/atlantis_fw/AsicFwS2/src/lcc_cmd_base_0000.c **** 				}
 2441              		.loc 1 829 0
 2442 0110 2368     		ldr	r3, [r4]
 2443 0112 1340     		ands	r3, r3, r2
 2444 0114 2360     		str	r3, [r4]
 2445              	.L188:
 2446              		.loc 1 834 0
 2447 0116 E37C     		ldrb	r3, [r4, #19]	@ zero_extendqisi2
 2448 0118 13F0020F 		tst	r3, #2
 2449 011c 14BF     		ite	ne
 2450 011e 0025     		movne	r5, #0
 2451 0120 0825     		moveq	r5, #8
 2452 0122 AA44     		add	r10, r10, r5
 2453              	.LVL282:
 2454 0124 5FFA8AFA 		uxtb	r10, r10
 2455              	.LVL283:
 2456 0128 ACE7     		b	.L187
 2457              	.LVL284:
 2458              	.L180:
 835:/home/tienluong/workspace/atlantis_fw/AsicFwS2/src/lcc_cmd_base_0000.c **** 		}
 836:/home/tienluong/workspace/atlantis_fw/AsicFwS2/src/lcc_cmd_base_0000.c **** 	}
 837:/home/tienluong/workspace/atlantis_fw/AsicFwS2/src/lcc_cmd_base_0000.c **** 	/* The command status will be updated in either lcc_cmd task
 838:/home/tienluong/workspace/atlantis_fw/AsicFwS2/src/lcc_cmd_base_0000.c **** 	 * (read command) or task_cam_ctrl (write command) */
 839:/home/tienluong/workspace/atlantis_fw/AsicFwS2/src/lcc_cmd_base_0000.c **** }
 2459              		.loc 1 839 0
 2460 012a 05B0     		add	sp, sp, #20
 2461              	.LCFI22:
 2462              		.cfi_def_cfa_offset 36
 2463              		@ sp needed
 2464 012c BDE8F08F 		pop	{r4, r5, r6, r7, r8, r9, r10, fp, pc}
 2465              	.LVL285:
 2466              	.L197:
 2467              		.align	2
 2468              	.L196:
 2469 0130 00000000 		.word	.LANCHOR11
 2470 0134 00000000 		.word	pvPortMalloc1
 2471 0138 00000000 		.word	.LC0
 2472 013c 00000000 		.word	slogf
 2473 0140 00000000 		.word	xQueueGenericReceive
 2474 0144 00000000 		.word	memcpy
 2475 0148 00000000 		.word	xQueueGenericSend
 2476 014c 00000000 		.word	idx_to_object
 2477 0150 2C010000 		.word	.LC14
 2478 0154 00000000 		.word	light_system
 2479              		.cfi_endproc
 2480              	.LFE12:
 2482              		.section	.text.cmd_cam_module_fps,"ax",%progbits
 2483              		.align	1
 2484              		.global	cmd_cam_module_fps
 2485              		.thumb
 2486              		.thumb_func
 2488              	cmd_cam_module_fps:
 2489              	.LFB13:
 840:/home/tienluong/workspace/atlantis_fw/AsicFwS2/src/lcc_cmd_base_0000.c **** 
 841:/home/tienluong/workspace/atlantis_fw/AsicFwS2/src/lcc_cmd_base_0000.c **** /**
 842:/home/tienluong/workspace/atlantis_fw/AsicFwS2/src/lcc_cmd_base_0000.c ****  * cmd_cam_module_fps
 843:/home/tienluong/workspace/atlantis_fw/AsicFwS2/src/lcc_cmd_base_0000.c ****  *
 844:/home/tienluong/workspace/atlantis_fw/AsicFwS2/src/lcc_cmd_base_0000.c ****  */
 845:/home/tienluong/workspace/atlantis_fw/AsicFwS2/src/lcc_cmd_base_0000.c **** void cmd_cam_module_fps(lcc_cmd_t *in, lcc_cmd_t *out)
 846:/home/tienluong/workspace/atlantis_fw/AsicFwS2/src/lcc_cmd_base_0000.c **** {
 2490              		.loc 1 846 0
 2491              		.cfi_startproc
 2492              		@ args = 0, pretend = 0, frame = 16
 2493              		@ frame_needed = 0, uses_anonymous_args = 0
 2494              	.LVL286:
 2495 0000 2DE9F04F 		push	{r4, r5, r6, r7, r8, r9, r10, fp, lr}
 2496              	.LCFI23:
 2497              		.cfi_def_cfa_offset 36
 2498              		.cfi_offset 4, -36
 2499              		.cfi_offset 5, -32
 2500              		.cfi_offset 6, -28
 2501              		.cfi_offset 7, -24
 2502              		.cfi_offset 8, -20
 2503              		.cfi_offset 9, -16
 2504              		.cfi_offset 10, -12
 2505              		.cfi_offset 11, -8
 2506              		.cfi_offset 14, -4
 847:/home/tienluong/workspace/atlantis_fw/AsicFwS2/src/lcc_cmd_base_0000.c **** 	lcc_cmd_tid_t p_cmd;
 848:/home/tienluong/workspace/atlantis_fw/AsicFwS2/src/lcc_cmd_base_0000.c **** 	cam_typedef_t *p_cam;
 849:/home/tienluong/workspace/atlantis_fw/AsicFwS2/src/lcc_cmd_base_0000.c **** 	lcc_cmd_info_t cmd = (lcc_cmd_info_t)(LCC_CMD_CAM_MODULE_FPS);
 850:/home/tienluong/workspace/atlantis_fw/AsicFwS2/src/lcc_cmd_base_0000.c **** 	uint32_t m_bitmask = in->m_bitmask;
 851:/home/tienluong/workspace/atlantis_fw/AsicFwS2/src/lcc_cmd_base_0000.c **** 	uint8_t i, cam_idx, data_cnt = 0;
 852:/home/tienluong/workspace/atlantis_fw/AsicFwS2/src/lcc_cmd_base_0000.c **** 
 853:/home/tienluong/workspace/atlantis_fw/AsicFwS2/src/lcc_cmd_base_0000.c **** 	if (CMD_READ == in->action)
 2507              		.loc 1 853 0
 2508 0004 C37C     		ldrb	r3, [r0, #19]	@ zero_extendqisi2
 2509 0006 DA07     		lsls	r2, r3, #31
 846:/home/tienluong/workspace/atlantis_fw/AsicFwS2/src/lcc_cmd_base_0000.c **** 	lcc_cmd_tid_t p_cmd;
 2510              		.loc 1 846 0
 2511 0008 85B0     		sub	sp, sp, #20
 2512              	.LCFI24:
 2513              		.cfi_def_cfa_offset 56
 846:/home/tienluong/workspace/atlantis_fw/AsicFwS2/src/lcc_cmd_base_0000.c **** 	lcc_cmd_tid_t p_cmd;
 2514              		.loc 1 846 0
 2515 000a 0446     		mov	r4, r0
 2516 000c 8846     		mov	r8, r1
 850:/home/tienluong/workspace/atlantis_fw/AsicFwS2/src/lcc_cmd_base_0000.c **** 	uint8_t i, cam_idx, data_cnt = 0;
 2517              		.loc 1 850 0
 2518 000e D0F800A0 		ldr	r10, [r0]
 2519              	.LVL287:
 2520              		.loc 1 853 0
 2521 0012 03D4     		bmi	.L199
 2522              	.LVL288:
 2523              	.L201:
 854:/home/tienluong/workspace/atlantis_fw/AsicFwS2/src/lcc_cmd_base_0000.c **** 	{
 855:/home/tienluong/workspace/atlantis_fw/AsicFwS2/src/lcc_cmd_base_0000.c **** 		out->data = pvPortMalloc(in->m_number*cmd.size);
 856:/home/tienluong/workspace/atlantis_fw/AsicFwS2/src/lcc_cmd_base_0000.c **** 		if (NULL == out->data)
 857:/home/tienluong/workspace/atlantis_fw/AsicFwS2/src/lcc_cmd_base_0000.c **** 		{
 858:/home/tienluong/workspace/atlantis_fw/AsicFwS2/src/lcc_cmd_base_0000.c **** 			SLOGF(SLOG_ERROR, "%s: Lack of memory", __FUNCTION__);
 859:/home/tienluong/workspace/atlantis_fw/AsicFwS2/src/lcc_cmd_base_0000.c **** 			in->status = LCC_CMD_UNSUCCESS;
 860:/home/tienluong/workspace/atlantis_fw/AsicFwS2/src/lcc_cmd_base_0000.c **** 			return;
 861:/home/tienluong/workspace/atlantis_fw/AsicFwS2/src/lcc_cmd_base_0000.c **** 		}
 862:/home/tienluong/workspace/atlantis_fw/AsicFwS2/src/lcc_cmd_base_0000.c **** 	}
 863:/home/tienluong/workspace/atlantis_fw/AsicFwS2/src/lcc_cmd_base_0000.c **** 
 864:/home/tienluong/workspace/atlantis_fw/AsicFwS2/src/lcc_cmd_base_0000.c **** 	/* Scan camera bitmask  */
 865:/home/tienluong/workspace/atlantis_fw/AsicFwS2/src/lcc_cmd_base_0000.c **** 	for (i = 0; i < in->m_number; i++)
 866:/home/tienluong/workspace/atlantis_fw/AsicFwS2/src/lcc_cmd_base_0000.c **** 	{
 867:/home/tienluong/workspace/atlantis_fw/AsicFwS2/src/lcc_cmd_base_0000.c **** 		cam_idx = __builtin_ctz(m_bitmask);
 868:/home/tienluong/workspace/atlantis_fw/AsicFwS2/src/lcc_cmd_base_0000.c **** 		m_bitmask &= ~(1 << cam_idx);
 869:/home/tienluong/workspace/atlantis_fw/AsicFwS2/src/lcc_cmd_base_0000.c **** 		/* Get camera object from camera object list */
 870:/home/tienluong/workspace/atlantis_fw/AsicFwS2/src/lcc_cmd_base_0000.c **** 		p_cam = idx_to_object(cam_idx);
 871:/home/tienluong/workspace/atlantis_fw/AsicFwS2/src/lcc_cmd_base_0000.c **** 		if (NULL == p_cam)	/*Verify object is valid */
 872:/home/tienluong/workspace/atlantis_fw/AsicFwS2/src/lcc_cmd_base_0000.c **** 		{
 873:/home/tienluong/workspace/atlantis_fw/AsicFwS2/src/lcc_cmd_base_0000.c **** 			in->status = LCC_CMD_INVALID_ARG;
 874:/home/tienluong/workspace/atlantis_fw/AsicFwS2/src/lcc_cmd_base_0000.c **** 			return;
 875:/home/tienluong/workspace/atlantis_fw/AsicFwS2/src/lcc_cmd_base_0000.c **** 		}
 876:/home/tienluong/workspace/atlantis_fw/AsicFwS2/src/lcc_cmd_base_0000.c **** 
 877:/home/tienluong/workspace/atlantis_fw/AsicFwS2/src/lcc_cmd_base_0000.c **** 		/* Read command processing */
 878:/home/tienluong/workspace/atlantis_fw/AsicFwS2/src/lcc_cmd_base_0000.c **** 		if (CMD_READ == in->action)
 879:/home/tienluong/workspace/atlantis_fw/AsicFwS2/src/lcc_cmd_base_0000.c **** 		{
 880:/home/tienluong/workspace/atlantis_fw/AsicFwS2/src/lcc_cmd_base_0000.c **** 			/* TODO: Take semaphore to access settings memory */
 881:/home/tienluong/workspace/atlantis_fw/AsicFwS2/src/lcc_cmd_base_0000.c **** 			xSemaphoreTake(p_cam->image->semaphore, portMAX_DELAY);
 882:/home/tienluong/workspace/atlantis_fw/AsicFwS2/src/lcc_cmd_base_0000.c **** 			out->data[out->len++] = p_cam->image->settings[in->ucid]->fps[0];
 883:/home/tienluong/workspace/atlantis_fw/AsicFwS2/src/lcc_cmd_base_0000.c **** 			out->data[out->len++] = p_cam->image->settings[in->ucid]->fps[1];
 884:/home/tienluong/workspace/atlantis_fw/AsicFwS2/src/lcc_cmd_base_0000.c **** 			/* TODO: Release semaphore after read data */
 885:/home/tienluong/workspace/atlantis_fw/AsicFwS2/src/lcc_cmd_base_0000.c **** 			xSemaphoreGive(p_cam->image->semaphore);
 886:/home/tienluong/workspace/atlantis_fw/AsicFwS2/src/lcc_cmd_base_0000.c **** 		}
 887:/home/tienluong/workspace/atlantis_fw/AsicFwS2/src/lcc_cmd_base_0000.c **** 		/* Write command processing */
 888:/home/tienluong/workspace/atlantis_fw/AsicFwS2/src/lcc_cmd_base_0000.c **** 		else
 889:/home/tienluong/workspace/atlantis_fw/AsicFwS2/src/lcc_cmd_base_0000.c **** 		{
 890:/home/tienluong/workspace/atlantis_fw/AsicFwS2/src/lcc_cmd_base_0000.c **** 			/* TODO: Take semaphore to access settings memory */
 891:/home/tienluong/workspace/atlantis_fw/AsicFwS2/src/lcc_cmd_base_0000.c **** 			p_cmd.cmd_tid = in->tid;
 892:/home/tienluong/workspace/atlantis_fw/AsicFwS2/src/lcc_cmd_base_0000.c **** 			p_cmd.event = IMG_EVENT_CAM_FPS;
 893:/home/tienluong/workspace/atlantis_fw/AsicFwS2/src/lcc_cmd_base_0000.c **** 			xSemaphoreTake(p_cam->image->semaphore, portMAX_DELAY);
 894:/home/tienluong/workspace/atlantis_fw/AsicFwS2/src/lcc_cmd_base_0000.c **** 			p_cam->image->settings[in->ucid]->fps[0] = in->data[data_cnt++];
 895:/home/tienluong/workspace/atlantis_fw/AsicFwS2/src/lcc_cmd_base_0000.c **** 			p_cam->image->settings[in->ucid]->fps[1] = in->data[data_cnt++];
 896:/home/tienluong/workspace/atlantis_fw/AsicFwS2/src/lcc_cmd_base_0000.c **** 			/* TODO: Release semaphore after read data */
 897:/home/tienluong/workspace/atlantis_fw/AsicFwS2/src/lcc_cmd_base_0000.c **** 			xSemaphoreGive(p_cam->image->semaphore);
 898:/home/tienluong/workspace/atlantis_fw/AsicFwS2/src/lcc_cmd_base_0000.c **** 
 899:/home/tienluong/workspace/atlantis_fw/AsicFwS2/src/lcc_cmd_base_0000.c **** 			/* Raise a updating signal to camera task for this ASIC */
 900:/home/tienluong/workspace/atlantis_fw/AsicFwS2/src/lcc_cmd_base_0000.c **** 			if (light_system->m_filter & (1 << cam_idx))
 901:/home/tienluong/workspace/atlantis_fw/AsicFwS2/src/lcc_cmd_base_0000.c **** 			{
 902:/home/tienluong/workspace/atlantis_fw/AsicFwS2/src/lcc_cmd_base_0000.c **** 				if (in->ucid == light_system->active_ucid)
 903:/home/tienluong/workspace/atlantis_fw/AsicFwS2/src/lcc_cmd_base_0000.c **** 					xQueueSend(p_cam->queue, &p_cmd, (TickType_t)10);
 904:/home/tienluong/workspace/atlantis_fw/AsicFwS2/src/lcc_cmd_base_0000.c **** 				else
 905:/home/tienluong/workspace/atlantis_fw/AsicFwS2/src/lcc_cmd_base_0000.c **** 				{
 906:/home/tienluong/workspace/atlantis_fw/AsicFwS2/src/lcc_cmd_base_0000.c **** 					in->status = LCC_CMD_SUCCESS;
 907:/home/tienluong/workspace/atlantis_fw/AsicFwS2/src/lcc_cmd_base_0000.c **** 					/* Reset cam bit_mask to update the command status */
 908:/home/tienluong/workspace/atlantis_fw/AsicFwS2/src/lcc_cmd_base_0000.c **** 					in->m_bitmask &= ~(1 << cam_idx);
 909:/home/tienluong/workspace/atlantis_fw/AsicFwS2/src/lcc_cmd_base_0000.c **** 				}
 910:/home/tienluong/workspace/atlantis_fw/AsicFwS2/src/lcc_cmd_base_0000.c **** 			}
 911:/home/tienluong/workspace/atlantis_fw/AsicFwS2/src/lcc_cmd_base_0000.c **** 
 912:/home/tienluong/workspace/atlantis_fw/AsicFwS2/src/lcc_cmd_base_0000.c **** 			/* Set data pointer when command was set for global */
 913:/home/tienluong/workspace/atlantis_fw/AsicFwS2/src/lcc_cmd_base_0000.c **** 			if (in->global)
 914:/home/tienluong/workspace/atlantis_fw/AsicFwS2/src/lcc_cmd_base_0000.c **** 				data_cnt = 0;
 2524              		.loc 1 914 0
 2525 0014 4FF00009 		mov	r9, #0
 2526 0018 4F46     		mov	r7, r9
 2527 001a 44E0     		b	.L200
 2528              	.LVL289:
 2529              	.L199:
 855:/home/tienluong/workspace/atlantis_fw/AsicFwS2/src/lcc_cmd_base_0000.c **** 		if (NULL == out->data)
 2530              		.loc 1 855 0
 2531 001c 807C     		ldrb	r0, [r0, #18]	@ zero_extendqisi2
 2532              	.LVL290:
 2533 001e 5449     		ldr	r1, .L214
 2534              	.LVL291:
 2535 0020 4000     		lsls	r0, r0, #1
 2536 0022 40F25732 		movw	r2, #855
 2537 0026 534B     		ldr	r3, .L214+4
 2538 0028 9847     		blx	r3
 2539              	.LVL292:
 2540 002a 0546     		mov	r5, r0
 2541 002c C8F80400 		str	r0, [r8, #4]
 856:/home/tienluong/workspace/atlantis_fw/AsicFwS2/src/lcc_cmd_base_0000.c **** 		{
 2542              		.loc 1 856 0
 2543 0030 0028     		cmp	r0, #0
 2544 0032 EFD1     		bne	.L201
 858:/home/tienluong/workspace/atlantis_fw/AsicFwS2/src/lcc_cmd_base_0000.c **** 			in->status = LCC_CMD_UNSUCCESS;
 2545              		.loc 1 858 0
 2546 0034 2120     		movs	r0, #33
 2547 0036 0221     		movs	r1, #2
 2548 0038 4F4A     		ldr	r2, .L214+8
 2549 003a 4D4B     		ldr	r3, .L214
 2550 003c 4F4E     		ldr	r6, .L214+12
 2551 003e B047     		blx	r6
 2552              	.LVL293:
 859:/home/tienluong/workspace/atlantis_fw/AsicFwS2/src/lcc_cmd_base_0000.c **** 			return;
 2553              		.loc 1 859 0
 2554 0040 2582     		strh	r5, [r4, #16]	@ movhi
 860:/home/tienluong/workspace/atlantis_fw/AsicFwS2/src/lcc_cmd_base_0000.c **** 		}
 2555              		.loc 1 860 0
 2556 0042 92E0     		b	.L198
 2557              	.LVL294:
 2558              	.L203:
 878:/home/tienluong/workspace/atlantis_fw/AsicFwS2/src/lcc_cmd_base_0000.c **** 		{
 2559              		.loc 1 878 0
 2560 0044 E67C     		ldrb	r6, [r4, #19]	@ zero_extendqisi2
 2561 0046 16F00106 		ands	r6, r6, #1
 2562 004a 45D0     		beq	.L204
 881:/home/tienluong/workspace/atlantis_fw/AsicFwS2/src/lcc_cmd_base_0000.c **** 			out->data[out->len++] = p_cam->image->settings[in->ucid]->fps[0];
 2563              		.loc 1 881 0
 2564 004c 0368     		ldr	r3, [r0]
 2565 004e 0021     		movs	r1, #0
 2566 0050 4FF0FF32 		mov	r2, #-1
 2567 0054 4A4E     		ldr	r6, .L214+16
 2568 0056 D86B     		ldr	r0, [r3, #60]
 2569              	.LVL295:
 2570 0058 0B46     		mov	r3, r1
 2571 005a B047     		blx	r6
 2572              	.LVL296:
 882:/home/tienluong/workspace/atlantis_fw/AsicFwS2/src/lcc_cmd_base_0000.c **** 			out->data[out->len++] = p_cam->image->settings[in->ucid]->fps[1];
 2573              		.loc 1 882 0
 2574 005c B8F80820 		ldrh	r2, [r8, #8]
 2575 0060 531C     		adds	r3, r2, #1
 2576 0062 E089     		ldrh	r0, [r4, #14]
 2577 0064 D8F80410 		ldr	r1, [r8, #4]
 2578 0068 A8F80830 		strh	r3, [r8, #8]	@ movhi
 2579 006c 2B68     		ldr	r3, [r5]
 2580 006e 03EB8003 		add	r3, r3, r0, lsl #2
 2581 0072 5B68     		ldr	r3, [r3, #4]
 2582 0074 1B7D     		ldrb	r3, [r3, #20]	@ zero_extendqisi2
 2583 0076 8B54     		strb	r3, [r1, r2]
 883:/home/tienluong/workspace/atlantis_fw/AsicFwS2/src/lcc_cmd_base_0000.c **** 			/* TODO: Release semaphore after read data */
 2584              		.loc 1 883 0
 2585 0078 B8F80820 		ldrh	r2, [r8, #8]
 2586 007c 531C     		adds	r3, r2, #1
 2587 007e E089     		ldrh	r0, [r4, #14]
 2588 0080 D8F80410 		ldr	r1, [r8, #4]
 2589 0084 A8F80830 		strh	r3, [r8, #8]	@ movhi
 2590 0088 2B68     		ldr	r3, [r5]
 2591 008a 03EB8003 		add	r3, r3, r0, lsl #2
 2592 008e 5B68     		ldr	r3, [r3, #4]
 2593 0090 5B7D     		ldrb	r3, [r3, #21]	@ zero_extendqisi2
 2594 0092 8B54     		strb	r3, [r1, r2]
 885:/home/tienluong/workspace/atlantis_fw/AsicFwS2/src/lcc_cmd_base_0000.c **** 		}
 2595              		.loc 1 885 0
 2596 0094 0021     		movs	r1, #0
 2597 0096 2B68     		ldr	r3, [r5]
 2598 0098 0A46     		mov	r2, r1
 2599 009a 3A4D     		ldr	r5, .L214+20
 2600              	.LVL297:
 2601 009c D86B     		ldr	r0, [r3, #60]
 2602 009e 0B46     		mov	r3, r1
 2603 00a0 A847     		blx	r5
 2604              	.LVL298:
 2605              	.L205:
 2606 00a2 09F10109 		add	r9, r9, #1
 2607              	.LVL299:
 2608              	.L200:
 865:/home/tienluong/workspace/atlantis_fw/AsicFwS2/src/lcc_cmd_base_0000.c **** 	{
 2609              		.loc 1 865 0 discriminator 1
 2610 00a6 5FFA89F3 		uxtb	r3, r9
 2611 00aa A27C     		ldrb	r2, [r4, #18]	@ zero_extendqisi2
 2612 00ac 9A42     		cmp	r2, r3
 2613 00ae 5CD9     		bls	.L198
 868:/home/tienluong/workspace/atlantis_fw/AsicFwS2/src/lcc_cmd_base_0000.c **** 		/* Get camera object from camera object list */
 2614              		.loc 1 868 0
 2615 00b0 0123     		movs	r3, #1
 867:/home/tienluong/workspace/atlantis_fw/AsicFwS2/src/lcc_cmd_base_0000.c **** 		m_bitmask &= ~(1 << cam_idx);
 2616              		.loc 1 867 0
 2617 00b2 9AFAAAF0 		rbit	r0, r10
 2618 00b6 B0FA80F0 		clz	r0, r0
 2619              	.LVL300:
 868:/home/tienluong/workspace/atlantis_fw/AsicFwS2/src/lcc_cmd_base_0000.c **** 		/* Get camera object from camera object list */
 2620              		.loc 1 868 0
 2621 00ba 03FA00FB 		lsl	fp, r3, r0
 2622 00be 6FEA0B03 		mvn	r3, fp
 2623 00c2 0AEA030A 		and	r10, r10, r3
 2624              	.LVL301:
 2625 00c6 0093     		str	r3, [sp]
 870:/home/tienluong/workspace/atlantis_fw/AsicFwS2/src/lcc_cmd_base_0000.c **** 		if (NULL == p_cam)	/*Verify object is valid */
 2626              		.loc 1 870 0
 2627 00c8 2F4B     		ldr	r3, .L214+24
 2628 00ca 9847     		blx	r3
 2629              	.LVL302:
 871:/home/tienluong/workspace/atlantis_fw/AsicFwS2/src/lcc_cmd_base_0000.c **** 		{
 2630              		.loc 1 871 0
 2631 00cc 0546     		mov	r5, r0
 2632 00ce 0028     		cmp	r0, #0
 2633 00d0 B8D1     		bne	.L203
 873:/home/tienluong/workspace/atlantis_fw/AsicFwS2/src/lcc_cmd_base_0000.c **** 			return;
 2634              		.loc 1 873 0
 2635 00d2 0423     		movs	r3, #4
 2636 00d4 2382     		strh	r3, [r4, #16]	@ movhi
 874:/home/tienluong/workspace/atlantis_fw/AsicFwS2/src/lcc_cmd_base_0000.c **** 		}
 2637              		.loc 1 874 0
 2638 00d6 48E0     		b	.L198
 2639              	.L204:
 891:/home/tienluong/workspace/atlantis_fw/AsicFwS2/src/lcc_cmd_base_0000.c **** 			p_cmd.event = IMG_EVENT_CAM_FPS;
 2640              		.loc 1 891 0
 2641 00d8 6389     		ldrh	r3, [r4, #10]
 2642 00da ADF80830 		strh	r3, [sp, #8]	@ movhi
 892:/home/tienluong/workspace/atlantis_fw/AsicFwS2/src/lcc_cmd_base_0000.c **** 			xSemaphoreTake(p_cam->image->semaphore, portMAX_DELAY);
 2643              		.loc 1 892 0
 2644 00de 0423     		movs	r3, #4
 893:/home/tienluong/workspace/atlantis_fw/AsicFwS2/src/lcc_cmd_base_0000.c **** 			p_cam->image->settings[in->ucid]->fps[0] = in->data[data_cnt++];
 2645              		.loc 1 893 0
 2646 00e0 3146     		mov	r1, r6
 2647 00e2 4FF0FF32 		mov	r2, #-1
 892:/home/tienluong/workspace/atlantis_fw/AsicFwS2/src/lcc_cmd_base_0000.c **** 			xSemaphoreTake(p_cam->image->semaphore, portMAX_DELAY);
 2648              		.loc 1 892 0
 2649 00e6 0393     		str	r3, [sp, #12]
 893:/home/tienluong/workspace/atlantis_fw/AsicFwS2/src/lcc_cmd_base_0000.c **** 			p_cam->image->settings[in->ucid]->fps[0] = in->data[data_cnt++];
 2650              		.loc 1 893 0
 2651 00e8 0368     		ldr	r3, [r0]
 2652 00ea DFF894C0 		ldr	ip, .L214+16
 2653 00ee D86B     		ldr	r0, [r3, #60]
 2654              	.LVL303:
 2655 00f0 3346     		mov	r3, r6
 2656 00f2 E047     		blx	ip
 2657              	.LVL304:
 894:/home/tienluong/workspace/atlantis_fw/AsicFwS2/src/lcc_cmd_base_0000.c **** 			p_cam->image->settings[in->ucid]->fps[1] = in->data[data_cnt++];
 2658              		.loc 1 894 0
 2659 00f4 2B68     		ldr	r3, [r5]
 2660 00f6 E289     		ldrh	r2, [r4, #14]
 897:/home/tienluong/workspace/atlantis_fw/AsicFwS2/src/lcc_cmd_base_0000.c **** 
 2661              		.loc 1 897 0
 2662 00f8 DFF888C0 		ldr	ip, .L214+20
 894:/home/tienluong/workspace/atlantis_fw/AsicFwS2/src/lcc_cmd_base_0000.c **** 			p_cam->image->settings[in->ucid]->fps[1] = in->data[data_cnt++];
 2663              		.loc 1 894 0
 2664 00fc 03EB8203 		add	r3, r3, r2, lsl #2
 2665 0100 6268     		ldr	r2, [r4, #4]
 2666 0102 D25D     		ldrb	r2, [r2, r7]	@ zero_extendqisi2
 897:/home/tienluong/workspace/atlantis_fw/AsicFwS2/src/lcc_cmd_base_0000.c **** 
 2667              		.loc 1 897 0
 2668 0104 CDF804C0 		str	ip, [sp, #4]
 894:/home/tienluong/workspace/atlantis_fw/AsicFwS2/src/lcc_cmd_base_0000.c **** 			p_cam->image->settings[in->ucid]->fps[1] = in->data[data_cnt++];
 2669              		.loc 1 894 0
 2670 0108 5B68     		ldr	r3, [r3, #4]
 2671              	.LVL305:
 2672 010a 1A75     		strb	r2, [r3, #20]
 895:/home/tienluong/workspace/atlantis_fw/AsicFwS2/src/lcc_cmd_base_0000.c **** 			/* TODO: Release semaphore after read data */
 2673              		.loc 1 895 0
 2674 010c E289     		ldrh	r2, [r4, #14]
 2675 010e 2B68     		ldr	r3, [r5]
 2676 0110 6168     		ldr	r1, [r4, #4]
 2677 0112 03EB8203 		add	r3, r3, r2, lsl #2
 2678 0116 5A68     		ldr	r2, [r3, #4]
 2679              	.LVL306:
 894:/home/tienluong/workspace/atlantis_fw/AsicFwS2/src/lcc_cmd_base_0000.c **** 			p_cam->image->settings[in->ucid]->fps[1] = in->data[data_cnt++];
 2680              		.loc 1 894 0
 2681 0118 7B1C     		adds	r3, r7, #1
 895:/home/tienluong/workspace/atlantis_fw/AsicFwS2/src/lcc_cmd_base_0000.c **** 			/* TODO: Release semaphore after read data */
 2682              		.loc 1 895 0
 2683 011a DBB2     		uxtb	r3, r3
 2684 011c CB5C     		ldrb	r3, [r1, r3]	@ zero_extendqisi2
 2685 011e 5375     		strb	r3, [r2, #21]
 897:/home/tienluong/workspace/atlantis_fw/AsicFwS2/src/lcc_cmd_base_0000.c **** 
 2686              		.loc 1 897 0
 2687 0120 3146     		mov	r1, r6
 2688 0122 2B68     		ldr	r3, [r5]
 2689 0124 3246     		mov	r2, r6
 2690 0126 D86B     		ldr	r0, [r3, #60]
 2691 0128 3346     		mov	r3, r6
 2692 012a E047     		blx	ip
 2693              	.LVL307:
 900:/home/tienluong/workspace/atlantis_fw/AsicFwS2/src/lcc_cmd_base_0000.c **** 			{
 2694              		.loc 1 900 0
 2695 012c 174B     		ldr	r3, .L214+28
 2696 012e DDF804C0 		ldr	ip, [sp, #4]
 2697 0132 1B68     		ldr	r3, [r3]
 2698 0134 9A69     		ldr	r2, [r3, #24]
 2699 0136 1BEA020F 		tst	fp, r2
 2700 013a 0FD0     		beq	.L206
 902:/home/tienluong/workspace/atlantis_fw/AsicFwS2/src/lcc_cmd_base_0000.c **** 					xQueueSend(p_cam->queue, &p_cmd, (TickType_t)10);
 2701              		.loc 1 902 0
 2702 013c E289     		ldrh	r2, [r4, #14]
 2703 013e DB8C     		ldrh	r3, [r3, #38]
 2704 0140 9A42     		cmp	r2, r3
 2705 0142 05D1     		bne	.L207
 903:/home/tienluong/workspace/atlantis_fw/AsicFwS2/src/lcc_cmd_base_0000.c **** 				else
 2706              		.loc 1 903 0
 2707 0144 686B     		ldr	r0, [r5, #52]
 2708 0146 02A9     		add	r1, sp, #8
 2709 0148 0A22     		movs	r2, #10
 2710 014a 3346     		mov	r3, r6
 2711 014c E047     		blx	ip
 2712              	.LVL308:
 2713 014e 05E0     		b	.L206
 2714              	.L207:
 906:/home/tienluong/workspace/atlantis_fw/AsicFwS2/src/lcc_cmd_base_0000.c **** 					/* Reset cam bit_mask to update the command status */
 2715              		.loc 1 906 0
 2716 0150 0123     		movs	r3, #1
 908:/home/tienluong/workspace/atlantis_fw/AsicFwS2/src/lcc_cmd_base_0000.c **** 				}
 2717              		.loc 1 908 0
 2718 0152 009A     		ldr	r2, [sp]
 906:/home/tienluong/workspace/atlantis_fw/AsicFwS2/src/lcc_cmd_base_0000.c **** 					/* Reset cam bit_mask to update the command status */
 2719              		.loc 1 906 0
 2720 0154 2382     		strh	r3, [r4, #16]	@ movhi
 908:/home/tienluong/workspace/atlantis_fw/AsicFwS2/src/lcc_cmd_base_0000.c **** 				}
 2721              		.loc 1 908 0
 2722 0156 2368     		ldr	r3, [r4]
 2723 0158 1340     		ands	r3, r3, r2
 2724 015a 2360     		str	r3, [r4]
 2725              	.L206:
 913:/home/tienluong/workspace/atlantis_fw/AsicFwS2/src/lcc_cmd_base_0000.c **** 				data_cnt = 0;
 2726              		.loc 1 913 0
 2727 015c E37C     		ldrb	r3, [r4, #19]	@ zero_extendqisi2
 2728 015e 9B07     		lsls	r3, r3, #30
 895:/home/tienluong/workspace/atlantis_fw/AsicFwS2/src/lcc_cmd_base_0000.c **** 			/* TODO: Release semaphore after read data */
 2729              		.loc 1 895 0
 2730 0160 56BF     		itet	pl
 2731 0162 0237     		addpl	r7, r7, #2
 2732              	.LVL309:
 2733              		.loc 1 914 0
 2734 0164 0027     		movmi	r7, #0
 895:/home/tienluong/workspace/atlantis_fw/AsicFwS2/src/lcc_cmd_base_0000.c **** 			/* TODO: Release semaphore after read data */
 2735              		.loc 1 895 0
 2736 0166 FFB2     		uxtbpl	r7, r7
 2737 0168 9BE7     		b	.L205
 2738              	.LVL310:
 2739              	.L198:
 915:/home/tienluong/workspace/atlantis_fw/AsicFwS2/src/lcc_cmd_base_0000.c **** 		}
 916:/home/tienluong/workspace/atlantis_fw/AsicFwS2/src/lcc_cmd_base_0000.c **** 	}
 917:/home/tienluong/workspace/atlantis_fw/AsicFwS2/src/lcc_cmd_base_0000.c **** 	/* The command status will be updated in either lcc_cmd task
 918:/home/tienluong/workspace/atlantis_fw/AsicFwS2/src/lcc_cmd_base_0000.c **** 	 * (read command) or task_cam_ctrl (write command) */}
 2740              		.loc 1 918 0
 2741 016a 05B0     		add	sp, sp, #20
 2742              	.LCFI25:
 2743              		.cfi_def_cfa_offset 36
 2744              		@ sp needed
 2745 016c BDE8F08F 		pop	{r4, r5, r6, r7, r8, r9, r10, fp, pc}
 2746              	.LVL311:
 2747              	.L215:
 2748              		.align	2
 2749              	.L214:
 2750 0170 00000000 		.word	.LANCHOR12
 2751 0174 00000000 		.word	pvPortMalloc1
 2752 0178 00000000 		.word	.LC0
 2753 017c 00000000 		.word	slogf
 2754 0180 00000000 		.word	xQueueGenericReceive
 2755 0184 00000000 		.word	xQueueGenericSend
 2756 0188 00000000 		.word	idx_to_object
 2757 018c 00000000 		.word	light_system
 2758              		.cfi_endproc
 2759              	.LFE13:
 2761              		.section	.text.cmd_cam_module_focal_length,"ax",%progbits
 2762              		.align	1
 2763              		.global	cmd_cam_module_focal_length
 2764              		.thumb
 2765              		.thumb_func
 2767              	cmd_cam_module_focal_length:
 2768              	.LFB14:
 919:/home/tienluong/workspace/atlantis_fw/AsicFwS2/src/lcc_cmd_base_0000.c **** 
 920:/home/tienluong/workspace/atlantis_fw/AsicFwS2/src/lcc_cmd_base_0000.c **** /**
 921:/home/tienluong/workspace/atlantis_fw/AsicFwS2/src/lcc_cmd_base_0000.c ****  * cmd_cam_module_focal_length
 922:/home/tienluong/workspace/atlantis_fw/AsicFwS2/src/lcc_cmd_base_0000.c ****  *
 923:/home/tienluong/workspace/atlantis_fw/AsicFwS2/src/lcc_cmd_base_0000.c ****  */
 924:/home/tienluong/workspace/atlantis_fw/AsicFwS2/src/lcc_cmd_base_0000.c **** void cmd_cam_module_focal_length(lcc_cmd_t *in, lcc_cmd_t *out)
 925:/home/tienluong/workspace/atlantis_fw/AsicFwS2/src/lcc_cmd_base_0000.c **** {
 2769              		.loc 1 925 0
 2770              		.cfi_startproc
 2771              		@ args = 0, pretend = 0, frame = 0
 2772              		@ frame_needed = 0, uses_anonymous_args = 0
 2773              	.LVL312:
 2774 0000 2DE9F041 		push	{r4, r5, r6, r7, r8, lr}
 2775              	.LCFI26:
 2776              		.cfi_def_cfa_offset 24
 2777              		.cfi_offset 4, -24
 2778              		.cfi_offset 5, -20
 2779              		.cfi_offset 6, -16
 2780              		.cfi_offset 7, -12
 2781              		.cfi_offset 8, -8
 2782              		.cfi_offset 14, -4
 926:/home/tienluong/workspace/atlantis_fw/AsicFwS2/src/lcc_cmd_base_0000.c **** 	cam_typedef_t *p_cam;
 927:/home/tienluong/workspace/atlantis_fw/AsicFwS2/src/lcc_cmd_base_0000.c **** 	lcc_cmd_info_t cmd = (lcc_cmd_info_t)(LCC_CMD_CAM_MODULE_FOCAL_LENGTH);
 928:/home/tienluong/workspace/atlantis_fw/AsicFwS2/src/lcc_cmd_base_0000.c **** 	uint32_t m_bitmask = in->m_bitmask;
 929:/home/tienluong/workspace/atlantis_fw/AsicFwS2/src/lcc_cmd_base_0000.c **** 	uint8_t i, cam_idx;
 930:/home/tienluong/workspace/atlantis_fw/AsicFwS2/src/lcc_cmd_base_0000.c **** 
 931:/home/tienluong/workspace/atlantis_fw/AsicFwS2/src/lcc_cmd_base_0000.c **** 	out->data = pvPortMalloc(in->m_number*cmd.size);
 2783              		.loc 1 931 0
 2784 0004 40F2A332 		movw	r2, #931
 925:/home/tienluong/workspace/atlantis_fw/AsicFwS2/src/lcc_cmd_base_0000.c **** 	cam_typedef_t *p_cam;
 2785              		.loc 1 925 0
 2786 0008 0C46     		mov	r4, r1
 928:/home/tienluong/workspace/atlantis_fw/AsicFwS2/src/lcc_cmd_base_0000.c **** 	uint8_t i, cam_idx;
 2787              		.loc 1 928 0
 2788 000a D0F80080 		ldr	r8, [r0]
 2789              	.LVL313:
 925:/home/tienluong/workspace/atlantis_fw/AsicFwS2/src/lcc_cmd_base_0000.c **** 	cam_typedef_t *p_cam;
 2790              		.loc 1 925 0
 2791 000e 0546     		mov	r5, r0
 2792              		.loc 1 931 0
 2793 0010 2549     		ldr	r1, .L223
 2794              	.LVL314:
 2795 0012 807C     		ldrb	r0, [r0, #18]	@ zero_extendqisi2
 2796              	.LVL315:
 2797 0014 254B     		ldr	r3, .L223+4
 2798 0016 4000     		lsls	r0, r0, #1
 2799 0018 9847     		blx	r3
 2800              	.LVL316:
 2801 001a 0646     		mov	r6, r0
 2802 001c 6060     		str	r0, [r4, #4]
 932:/home/tienluong/workspace/atlantis_fw/AsicFwS2/src/lcc_cmd_base_0000.c **** 	if (NULL == out->data)
 2803              		.loc 1 932 0
 2804 001e 08B1     		cbz	r0, .L217
 2805              		.loc 1 932 0 is_stmt 0 discriminator 1
 2806 0020 0027     		movs	r7, #0
 2807 0022 28E0     		b	.L218
 2808              	.L217:
 933:/home/tienluong/workspace/atlantis_fw/AsicFwS2/src/lcc_cmd_base_0000.c **** 	{
 934:/home/tienluong/workspace/atlantis_fw/AsicFwS2/src/lcc_cmd_base_0000.c **** 		SLOGF(SLOG_ERROR, "%s: Lack of memory", __FUNCTION__);
 2809              		.loc 1 934 0 is_stmt 1
 2810 0024 2120     		movs	r0, #33
 2811 0026 0221     		movs	r1, #2
 2812 0028 214A     		ldr	r2, .L223+8
 2813 002a 1F4B     		ldr	r3, .L223
 2814 002c 214C     		ldr	r4, .L223+12
 2815              	.LVL317:
 2816 002e A047     		blx	r4
 2817              	.LVL318:
 935:/home/tienluong/workspace/atlantis_fw/AsicFwS2/src/lcc_cmd_base_0000.c **** 		in->status = LCC_CMD_UNSUCCESS;
 2818              		.loc 1 935 0
 2819 0030 2E82     		strh	r6, [r5, #16]	@ movhi
 936:/home/tienluong/workspace/atlantis_fw/AsicFwS2/src/lcc_cmd_base_0000.c **** 		return;
 2820              		.loc 1 936 0
 2821 0032 BDE8F081 		pop	{r4, r5, r6, r7, r8, pc}
 2822              	.LVL319:
 2823              	.L220:
 937:/home/tienluong/workspace/atlantis_fw/AsicFwS2/src/lcc_cmd_base_0000.c **** 	}
 938:/home/tienluong/workspace/atlantis_fw/AsicFwS2/src/lcc_cmd_base_0000.c **** 
 939:/home/tienluong/workspace/atlantis_fw/AsicFwS2/src/lcc_cmd_base_0000.c **** 	/* Scan camera bitmask  */
 940:/home/tienluong/workspace/atlantis_fw/AsicFwS2/src/lcc_cmd_base_0000.c **** 	for (i = 0; i < in->m_number; i++)
 941:/home/tienluong/workspace/atlantis_fw/AsicFwS2/src/lcc_cmd_base_0000.c **** 	{
 942:/home/tienluong/workspace/atlantis_fw/AsicFwS2/src/lcc_cmd_base_0000.c **** 		cam_idx = __builtin_ctz(m_bitmask);
 943:/home/tienluong/workspace/atlantis_fw/AsicFwS2/src/lcc_cmd_base_0000.c **** 		m_bitmask &= ~(1 << cam_idx);
 944:/home/tienluong/workspace/atlantis_fw/AsicFwS2/src/lcc_cmd_base_0000.c **** 		/* Get camera object from camera object list */
 945:/home/tienluong/workspace/atlantis_fw/AsicFwS2/src/lcc_cmd_base_0000.c **** 		p_cam = idx_to_object(cam_idx);
 946:/home/tienluong/workspace/atlantis_fw/AsicFwS2/src/lcc_cmd_base_0000.c **** 		if (NULL == p_cam)	/*Verify object is valid */
 947:/home/tienluong/workspace/atlantis_fw/AsicFwS2/src/lcc_cmd_base_0000.c **** 		{
 948:/home/tienluong/workspace/atlantis_fw/AsicFwS2/src/lcc_cmd_base_0000.c **** 			in->status = LCC_CMD_INVALID_ARG;
 949:/home/tienluong/workspace/atlantis_fw/AsicFwS2/src/lcc_cmd_base_0000.c **** 			return;
 950:/home/tienluong/workspace/atlantis_fw/AsicFwS2/src/lcc_cmd_base_0000.c **** 		}
 951:/home/tienluong/workspace/atlantis_fw/AsicFwS2/src/lcc_cmd_base_0000.c **** 
 952:/home/tienluong/workspace/atlantis_fw/AsicFwS2/src/lcc_cmd_base_0000.c **** 		/* TODO: Take semaphore to access settings memory */
 953:/home/tienluong/workspace/atlantis_fw/AsicFwS2/src/lcc_cmd_base_0000.c **** 		xSemaphoreTake(p_cam->optical->semaphore, portMAX_DELAY);
 2824              		.loc 1 953 0 discriminator 2
 2825 0036 4368     		ldr	r3, [r0, #4]
 2826 0038 0021     		movs	r1, #0
 2827 003a 4FF0FF32 		mov	r2, #-1
 2828 003e DFF880C0 		ldr	ip, .L223+24
 2829 0042 D868     		ldr	r0, [r3, #12]
 2830              	.LVL320:
 2831 0044 0B46     		mov	r3, r1
 2832 0046 E047     		blx	ip
 2833              	.LVL321:
 954:/home/tienluong/workspace/atlantis_fw/AsicFwS2/src/lcc_cmd_base_0000.c **** 		out->data[out->len++] = p_cam->optical->settings->focal_length[0];
 2834              		.loc 1 954 0 discriminator 2
 2835 0048 2389     		ldrh	r3, [r4, #8]
 2836 004a 591C     		adds	r1, r3, #1
 2837 004c 6268     		ldr	r2, [r4, #4]
 2838 004e 2181     		strh	r1, [r4, #8]	@ movhi
 2839 0050 7168     		ldr	r1, [r6, #4]
 2840 0052 8968     		ldr	r1, [r1, #8]
 2841 0054 0978     		ldrb	r1, [r1]	@ zero_extendqisi2
 2842 0056 D154     		strb	r1, [r2, r3]
 955:/home/tienluong/workspace/atlantis_fw/AsicFwS2/src/lcc_cmd_base_0000.c **** 		out->data[out->len++] = p_cam->optical->settings->focal_length[1];
 2843              		.loc 1 955 0 discriminator 2
 2844 0058 2389     		ldrh	r3, [r4, #8]
 2845 005a 591C     		adds	r1, r3, #1
 2846 005c 6268     		ldr	r2, [r4, #4]
 2847 005e 2181     		strh	r1, [r4, #8]	@ movhi
 2848 0060 7168     		ldr	r1, [r6, #4]
 2849 0062 8968     		ldr	r1, [r1, #8]
 2850 0064 4978     		ldrb	r1, [r1, #1]	@ zero_extendqisi2
 2851 0066 D154     		strb	r1, [r2, r3]
 956:/home/tienluong/workspace/atlantis_fw/AsicFwS2/src/lcc_cmd_base_0000.c **** 
 957:/home/tienluong/workspace/atlantis_fw/AsicFwS2/src/lcc_cmd_base_0000.c **** 		/* TODO: Release semaphore after read data */
 958:/home/tienluong/workspace/atlantis_fw/AsicFwS2/src/lcc_cmd_base_0000.c **** 		xSemaphoreGive(p_cam->optical->semaphore);
 2852              		.loc 1 958 0 discriminator 2
 2853 0068 0021     		movs	r1, #0
 2854 006a 7368     		ldr	r3, [r6, #4]
 2855 006c 0A46     		mov	r2, r1
 2856 006e 124E     		ldr	r6, .L223+16
 2857              	.LVL322:
 2858 0070 D868     		ldr	r0, [r3, #12]
 2859 0072 0B46     		mov	r3, r1
 2860 0074 B047     		blx	r6
 2861              	.LVL323:
 2862              	.L218:
 940:/home/tienluong/workspace/atlantis_fw/AsicFwS2/src/lcc_cmd_base_0000.c **** 	{
 2863              		.loc 1 940 0 discriminator 1
 2864 0076 FBB2     		uxtb	r3, r7
 2865 0078 AA7C     		ldrb	r2, [r5, #18]	@ zero_extendqisi2
 2866 007a 9A42     		cmp	r2, r3
 2867 007c 11D9     		bls	.L222
 943:/home/tienluong/workspace/atlantis_fw/AsicFwS2/src/lcc_cmd_base_0000.c **** 		/* Get camera object from camera object list */
 2868              		.loc 1 943 0
 2869 007e 0123     		movs	r3, #1
 942:/home/tienluong/workspace/atlantis_fw/AsicFwS2/src/lcc_cmd_base_0000.c **** 		m_bitmask &= ~(1 << cam_idx);
 2870              		.loc 1 942 0
 2871 0080 98FAA8F0 		rbit	r0, r8
 2872 0084 B0FA80F0 		clz	r0, r0
 2873              	.LVL324:
 2874 0088 0137     		adds	r7, r7, #1
 2875              	.LVL325:
 943:/home/tienluong/workspace/atlantis_fw/AsicFwS2/src/lcc_cmd_base_0000.c **** 		/* Get camera object from camera object list */
 2876              		.loc 1 943 0
 2877 008a 8340     		lsls	r3, r3, r0
 2878 008c 28EA0308 		bic	r8, r8, r3
 2879              	.LVL326:
 945:/home/tienluong/workspace/atlantis_fw/AsicFwS2/src/lcc_cmd_base_0000.c **** 		if (NULL == p_cam)	/*Verify object is valid */
 2880              		.loc 1 945 0
 2881 0090 0A4B     		ldr	r3, .L223+20
 2882 0092 9847     		blx	r3
 2883              	.LVL327:
 946:/home/tienluong/workspace/atlantis_fw/AsicFwS2/src/lcc_cmd_base_0000.c **** 		{
 2884              		.loc 1 946 0
 2885 0094 0646     		mov	r6, r0
 2886 0096 0028     		cmp	r0, #0
 2887 0098 CDD1     		bne	.L220
 948:/home/tienluong/workspace/atlantis_fw/AsicFwS2/src/lcc_cmd_base_0000.c **** 			return;
 2888              		.loc 1 948 0
 2889 009a 0423     		movs	r3, #4
 2890 009c 2B82     		strh	r3, [r5, #16]	@ movhi
 949:/home/tienluong/workspace/atlantis_fw/AsicFwS2/src/lcc_cmd_base_0000.c **** 		}
 2891              		.loc 1 949 0
 2892 009e BDE8F081 		pop	{r4, r5, r6, r7, r8, pc}
 2893              	.LVL328:
 2894              	.L222:
 2895 00a2 BDE8F081 		pop	{r4, r5, r6, r7, r8, pc}
 2896              	.LVL329:
 2897              	.L224:
 2898 00a6 00BF     		.align	2
 2899              	.L223:
 2900 00a8 00000000 		.word	.LANCHOR13
 2901 00ac 00000000 		.word	pvPortMalloc1
 2902 00b0 00000000 		.word	.LC0
 2903 00b4 00000000 		.word	slogf
 2904 00b8 00000000 		.word	xQueueGenericSend
 2905 00bc 00000000 		.word	idx_to_object
 2906 00c0 00000000 		.word	xQueueGenericReceive
 2907              		.cfi_endproc
 2908              	.LFE14:
 2910              		.section	.text.cmd_cam_module_focus_distance,"ax",%progbits
 2911              		.align	1
 2912              		.global	cmd_cam_module_focus_distance
 2913              		.thumb
 2914              		.thumb_func
 2916              	cmd_cam_module_focus_distance:
 2917              	.LFB15:
 959:/home/tienluong/workspace/atlantis_fw/AsicFwS2/src/lcc_cmd_base_0000.c **** 	}
 960:/home/tienluong/workspace/atlantis_fw/AsicFwS2/src/lcc_cmd_base_0000.c **** }
 961:/home/tienluong/workspace/atlantis_fw/AsicFwS2/src/lcc_cmd_base_0000.c **** /**
 962:/home/tienluong/workspace/atlantis_fw/AsicFwS2/src/lcc_cmd_base_0000.c ****  * cmd_cam_module_focus_distance
 963:/home/tienluong/workspace/atlantis_fw/AsicFwS2/src/lcc_cmd_base_0000.c ****  *
 964:/home/tienluong/workspace/atlantis_fw/AsicFwS2/src/lcc_cmd_base_0000.c ****  */
 965:/home/tienluong/workspace/atlantis_fw/AsicFwS2/src/lcc_cmd_base_0000.c **** void cmd_cam_module_focus_distance(lcc_cmd_t *in, lcc_cmd_t *out)
 966:/home/tienluong/workspace/atlantis_fw/AsicFwS2/src/lcc_cmd_base_0000.c **** {
 2918              		.loc 1 966 0
 2919              		.cfi_startproc
 2920              		@ args = 0, pretend = 0, frame = 16
 2921              		@ frame_needed = 0, uses_anonymous_args = 0
 2922              	.LVL330:
 2923 0000 2DE9F04F 		push	{r4, r5, r6, r7, r8, r9, r10, fp, lr}
 2924              	.LCFI27:
 2925              		.cfi_def_cfa_offset 36
 2926              		.cfi_offset 4, -36
 2927              		.cfi_offset 5, -32
 2928              		.cfi_offset 6, -28
 2929              		.cfi_offset 7, -24
 2930              		.cfi_offset 8, -20
 2931              		.cfi_offset 9, -16
 2932              		.cfi_offset 10, -12
 2933              		.cfi_offset 11, -8
 2934              		.cfi_offset 14, -4
 2935 0004 85B0     		sub	sp, sp, #20
 2936              	.LCFI28:
 2937              		.cfi_def_cfa_offset 56
 967:/home/tienluong/workspace/atlantis_fw/AsicFwS2/src/lcc_cmd_base_0000.c **** 	lcc_cmd_tid_t p_cmd;
 968:/home/tienluong/workspace/atlantis_fw/AsicFwS2/src/lcc_cmd_base_0000.c **** 	cam_typedef_t *p_cam;
 969:/home/tienluong/workspace/atlantis_fw/AsicFwS2/src/lcc_cmd_base_0000.c **** 	lcc_cmd_info_t cmd = (lcc_cmd_info_t)(LCC_CMD_CAM_MODULE_FOCUS_DISTANCE);
 970:/home/tienluong/workspace/atlantis_fw/AsicFwS2/src/lcc_cmd_base_0000.c **** 	uint32_t m_bitmask = in->m_bitmask;
 2938              		.loc 1 970 0
 2939 0006 0368     		ldr	r3, [r0]
 966:/home/tienluong/workspace/atlantis_fw/AsicFwS2/src/lcc_cmd_base_0000.c **** 	lcc_cmd_tid_t p_cmd;
 2940              		.loc 1 966 0
 2941 0008 0646     		mov	r6, r0
 2942              		.loc 1 970 0
 2943 000a 0093     		str	r3, [sp]
 2944              	.LVL331:
 971:/home/tienluong/workspace/atlantis_fw/AsicFwS2/src/lcc_cmd_base_0000.c **** 	uint8_t i, cam_idx, data_cnt = 0;
 972:/home/tienluong/workspace/atlantis_fw/AsicFwS2/src/lcc_cmd_base_0000.c **** 
 973:/home/tienluong/workspace/atlantis_fw/AsicFwS2/src/lcc_cmd_base_0000.c **** 	if (CMD_READ == in->action)
 2945              		.loc 1 973 0
 2946 000c C37C     		ldrb	r3, [r0, #19]	@ zero_extendqisi2
 2947              	.LVL332:
 2948 000e DB07     		lsls	r3, r3, #31
 966:/home/tienluong/workspace/atlantis_fw/AsicFwS2/src/lcc_cmd_base_0000.c **** 	lcc_cmd_tid_t p_cmd;
 2949              		.loc 1 966 0
 2950 0010 8946     		mov	r9, r1
 2951              		.loc 1 973 0
 2952 0012 03D4     		bmi	.L226
 2953              	.LVL333:
 2954              	.L228:
 966:/home/tienluong/workspace/atlantis_fw/AsicFwS2/src/lcc_cmd_base_0000.c **** 	lcc_cmd_tid_t p_cmd;
 2955              		.loc 1 966 0
 2956 0014 4FF0000B 		mov	fp, #0
 2957 0018 DA46     		mov	r10, fp
 2958 001a 44E0     		b	.L227
 2959              	.LVL334:
 2960              	.L226:
 974:/home/tienluong/workspace/atlantis_fw/AsicFwS2/src/lcc_cmd_base_0000.c **** 	{
 975:/home/tienluong/workspace/atlantis_fw/AsicFwS2/src/lcc_cmd_base_0000.c **** 		out->data = pvPortMalloc(in->m_number * cmd.size);
 2961              		.loc 1 975 0
 2962 001c 807C     		ldrb	r0, [r0, #18]	@ zero_extendqisi2
 2963              	.LVL335:
 2964 001e 7349     		ldr	r1, .L246
 2965              	.LVL336:
 2966 0020 8000     		lsls	r0, r0, #2
 2967 0022 40F2CF32 		movw	r2, #975
 2968 0026 724B     		ldr	r3, .L246+4
 2969 0028 9847     		blx	r3
 2970              	.LVL337:
 2971 002a 0446     		mov	r4, r0
 2972 002c C9F80400 		str	r0, [r9, #4]
 976:/home/tienluong/workspace/atlantis_fw/AsicFwS2/src/lcc_cmd_base_0000.c **** 		if (NULL == out->data)
 2973              		.loc 1 976 0
 2974 0030 0028     		cmp	r0, #0
 2975 0032 EFD1     		bne	.L228
 977:/home/tienluong/workspace/atlantis_fw/AsicFwS2/src/lcc_cmd_base_0000.c **** 		{
 978:/home/tienluong/workspace/atlantis_fw/AsicFwS2/src/lcc_cmd_base_0000.c **** 			SLOGF(SLOG_ERROR, "%s: Lack of memory", __FUNCTION__);
 2976              		.loc 1 978 0
 2977 0034 2120     		movs	r0, #33
 2978 0036 0221     		movs	r1, #2
 2979 0038 6E4A     		ldr	r2, .L246+8
 2980 003a 6C4B     		ldr	r3, .L246
 2981 003c 0AE0     		b	.L245
 2982              	.LVL338:
 2983              	.L235:
 2984              	.LBB7:
 979:/home/tienluong/workspace/atlantis_fw/AsicFwS2/src/lcc_cmd_base_0000.c **** 			in->status = LCC_CMD_UNSUCCESS;
 980:/home/tienluong/workspace/atlantis_fw/AsicFwS2/src/lcc_cmd_base_0000.c **** 			return;
 981:/home/tienluong/workspace/atlantis_fw/AsicFwS2/src/lcc_cmd_base_0000.c **** 		}
 982:/home/tienluong/workspace/atlantis_fw/AsicFwS2/src/lcc_cmd_base_0000.c **** 	}
 983:/home/tienluong/workspace/atlantis_fw/AsicFwS2/src/lcc_cmd_base_0000.c **** 
 984:/home/tienluong/workspace/atlantis_fw/AsicFwS2/src/lcc_cmd_base_0000.c **** 	/* Scan camera bitmask */
 985:/home/tienluong/workspace/atlantis_fw/AsicFwS2/src/lcc_cmd_base_0000.c **** 	for (i = 0; i < in->m_number; i++)
 986:/home/tienluong/workspace/atlantis_fw/AsicFwS2/src/lcc_cmd_base_0000.c **** 	{
 987:/home/tienluong/workspace/atlantis_fw/AsicFwS2/src/lcc_cmd_base_0000.c **** 		cam_idx = __builtin_ctz(m_bitmask);
 988:/home/tienluong/workspace/atlantis_fw/AsicFwS2/src/lcc_cmd_base_0000.c **** 		m_bitmask &= ~(1 << cam_idx);
 989:/home/tienluong/workspace/atlantis_fw/AsicFwS2/src/lcc_cmd_base_0000.c **** 		/* Get camera object from camera object list */
 990:/home/tienluong/workspace/atlantis_fw/AsicFwS2/src/lcc_cmd_base_0000.c **** 		p_cam = idx_to_object(cam_idx);
 991:/home/tienluong/workspace/atlantis_fw/AsicFwS2/src/lcc_cmd_base_0000.c **** 		if (NULL == p_cam)	/*Verify object is valid */
 992:/home/tienluong/workspace/atlantis_fw/AsicFwS2/src/lcc_cmd_base_0000.c **** 		{
 993:/home/tienluong/workspace/atlantis_fw/AsicFwS2/src/lcc_cmd_base_0000.c **** 			in->status = LCC_CMD_INVALID_ARG;
 994:/home/tienluong/workspace/atlantis_fw/AsicFwS2/src/lcc_cmd_base_0000.c **** 			return;
 995:/home/tienluong/workspace/atlantis_fw/AsicFwS2/src/lcc_cmd_base_0000.c **** 		}
 996:/home/tienluong/workspace/atlantis_fw/AsicFwS2/src/lcc_cmd_base_0000.c **** 
 997:/home/tienluong/workspace/atlantis_fw/AsicFwS2/src/lcc_cmd_base_0000.c **** 		/* Read command processing */
 998:/home/tienluong/workspace/atlantis_fw/AsicFwS2/src/lcc_cmd_base_0000.c **** 		if (CMD_READ == in->action)
 999:/home/tienluong/workspace/atlantis_fw/AsicFwS2/src/lcc_cmd_base_0000.c **** 		{
1000:/home/tienluong/workspace/atlantis_fw/AsicFwS2/src/lcc_cmd_base_0000.c **** 			/* Take semaphore to access settings memory */
1001:/home/tienluong/workspace/atlantis_fw/AsicFwS2/src/lcc_cmd_base_0000.c **** 			xSemaphoreTake(p_cam->optical->semaphore, portMAX_DELAY);
1002:/home/tienluong/workspace/atlantis_fw/AsicFwS2/src/lcc_cmd_base_0000.c **** 			memcpy(&out->data[out->len],
1003:/home/tienluong/workspace/atlantis_fw/AsicFwS2/src/lcc_cmd_base_0000.c **** 					p_cam->optical->settings->focus_distance, cmd.size);
1004:/home/tienluong/workspace/atlantis_fw/AsicFwS2/src/lcc_cmd_base_0000.c **** 			/* Release semaphore after reading data */
1005:/home/tienluong/workspace/atlantis_fw/AsicFwS2/src/lcc_cmd_base_0000.c **** 			xSemaphoreGive(p_cam->optical->semaphore);
1006:/home/tienluong/workspace/atlantis_fw/AsicFwS2/src/lcc_cmd_base_0000.c **** 			out->len += cmd.size;
1007:/home/tienluong/workspace/atlantis_fw/AsicFwS2/src/lcc_cmd_base_0000.c **** 		}
1008:/home/tienluong/workspace/atlantis_fw/AsicFwS2/src/lcc_cmd_base_0000.c **** 		/* Write command processing */
1009:/home/tienluong/workspace/atlantis_fw/AsicFwS2/src/lcc_cmd_base_0000.c **** 		else
1010:/home/tienluong/workspace/atlantis_fw/AsicFwS2/src/lcc_cmd_base_0000.c **** 		{
1011:/home/tienluong/workspace/atlantis_fw/AsicFwS2/src/lcc_cmd_base_0000.c **** 			p_cmd.cmd_tid = in->tid;
1012:/home/tienluong/workspace/atlantis_fw/AsicFwS2/src/lcc_cmd_base_0000.c **** 			/* Raise a updating signal to camera task for this ASIC */
1013:/home/tienluong/workspace/atlantis_fw/AsicFwS2/src/lcc_cmd_base_0000.c **** 			if (light_system->m_filter & (1 << cam_idx))
1014:/home/tienluong/workspace/atlantis_fw/AsicFwS2/src/lcc_cmd_base_0000.c **** 			{
1015:/home/tienluong/workspace/atlantis_fw/AsicFwS2/src/lcc_cmd_base_0000.c **** 				if(p_cam->info.grp == GRP_A)
1016:/home/tienluong/workspace/atlantis_fw/AsicFwS2/src/lcc_cmd_base_0000.c **** 				{
1017:/home/tienluong/workspace/atlantis_fw/AsicFwS2/src/lcc_cmd_base_0000.c **** 					vcm_t *vcm = p_cam->optical->lens;
1018:/home/tienluong/workspace/atlantis_fw/AsicFwS2/src/lcc_cmd_base_0000.c **** 					/* Take semaphore to access settings memory */
1019:/home/tienluong/workspace/atlantis_fw/AsicFwS2/src/lcc_cmd_base_0000.c **** 					xSemaphoreTake(vcm->semaphore, portMAX_DELAY);
1020:/home/tienluong/workspace/atlantis_fw/AsicFwS2/src/lcc_cmd_base_0000.c **** 					if (vcm->moving == FALSE)
1021:/home/tienluong/workspace/atlantis_fw/AsicFwS2/src/lcc_cmd_base_0000.c **** 					{
1022:/home/tienluong/workspace/atlantis_fw/AsicFwS2/src/lcc_cmd_base_0000.c **** 						/* set moving status */
1023:/home/tienluong/workspace/atlantis_fw/AsicFwS2/src/lcc_cmd_base_0000.c **** 						vcm->moving = TRUE;
1024:/home/tienluong/workspace/atlantis_fw/AsicFwS2/src/lcc_cmd_base_0000.c **** 						/* Release semaphore after accessing data */
1025:/home/tienluong/workspace/atlantis_fw/AsicFwS2/src/lcc_cmd_base_0000.c **** 						xSemaphoreGive(vcm->semaphore);
1026:/home/tienluong/workspace/atlantis_fw/AsicFwS2/src/lcc_cmd_base_0000.c **** 						/* Take semaphore to access settings memory */
1027:/home/tienluong/workspace/atlantis_fw/AsicFwS2/src/lcc_cmd_base_0000.c **** 						xSemaphoreTake(p_cam->optical->semaphore, portMAX_DELAY);
1028:/home/tienluong/workspace/atlantis_fw/AsicFwS2/src/lcc_cmd_base_0000.c **** 						memcpy(p_cam->optical->settings->focus_distance,
1029:/home/tienluong/workspace/atlantis_fw/AsicFwS2/src/lcc_cmd_base_0000.c **** 								&in->data[data_cnt], cmd.size);
1030:/home/tienluong/workspace/atlantis_fw/AsicFwS2/src/lcc_cmd_base_0000.c **** 						/* Release semaphore after writing data */
1031:/home/tienluong/workspace/atlantis_fw/AsicFwS2/src/lcc_cmd_base_0000.c **** 						xSemaphoreGive(p_cam->optical->semaphore);
1032:/home/tienluong/workspace/atlantis_fw/AsicFwS2/src/lcc_cmd_base_0000.c **** 						p_cmd.event = IMG_EVENT_VCM_DISTANCE;
1033:/home/tienluong/workspace/atlantis_fw/AsicFwS2/src/lcc_cmd_base_0000.c **** 						xQueueSend(p_cam->queue, &p_cmd, (TickType_t)10);
1034:/home/tienluong/workspace/atlantis_fw/AsicFwS2/src/lcc_cmd_base_0000.c **** 					}
1035:/home/tienluong/workspace/atlantis_fw/AsicFwS2/src/lcc_cmd_base_0000.c **** 					else
1036:/home/tienluong/workspace/atlantis_fw/AsicFwS2/src/lcc_cmd_base_0000.c **** 					{
1037:/home/tienluong/workspace/atlantis_fw/AsicFwS2/src/lcc_cmd_base_0000.c **** 						/* Release semaphore after accessing data */
1038:/home/tienluong/workspace/atlantis_fw/AsicFwS2/src/lcc_cmd_base_0000.c **** 						xSemaphoreGive(vcm->semaphore);
 2985              		.loc 1 1038 0
 2986 003e 2146     		mov	r1, r4
 2987 0040 2246     		mov	r2, r4
 2988 0042 DCF80C00 		ldr	r0, [ip, #12]
 2989 0046 2346     		mov	r3, r4
 2990 0048 C047     		blx	r8
 2991              	.LVL339:
1039:/home/tienluong/workspace/atlantis_fw/AsicFwS2/src/lcc_cmd_base_0000.c **** 						SLOGF(SLOG_ERROR, "CAM-%X : VCM is moving",
 2992              		.loc 1 1039 0
 2993 004a 6B4A     		ldr	r2, .L246+12
 2994 004c 2120     		movs	r0, #33
 2995 004e 0221     		movs	r1, #2
 2996              	.L244:
 2997              	.LBE7:
 2998              	.LBB8:
1040:/home/tienluong/workspace/atlantis_fw/AsicFwS2/src/lcc_cmd_base_0000.c **** 								p_cam->info.module);
1041:/home/tienluong/workspace/atlantis_fw/AsicFwS2/src/lcc_cmd_base_0000.c **** 						in->status = LCC_CMD_UNSUCCESS;
1042:/home/tienluong/workspace/atlantis_fw/AsicFwS2/src/lcc_cmd_base_0000.c **** 						return;
1043:/home/tienluong/workspace/atlantis_fw/AsicFwS2/src/lcc_cmd_base_0000.c **** 					}
1044:/home/tienluong/workspace/atlantis_fw/AsicFwS2/src/lcc_cmd_base_0000.c **** 				}
1045:/home/tienluong/workspace/atlantis_fw/AsicFwS2/src/lcc_cmd_base_0000.c **** 				else
1046:/home/tienluong/workspace/atlantis_fw/AsicFwS2/src/lcc_cmd_base_0000.c **** 				{
1047:/home/tienluong/workspace/atlantis_fw/AsicFwS2/src/lcc_cmd_base_0000.c **** 					actuator_t *plens = (actuator_t *)p_cam->optical->lens;
1048:/home/tienluong/workspace/atlantis_fw/AsicFwS2/src/lcc_cmd_base_0000.c **** 					/* Take semaphore to access settings memory */
1049:/home/tienluong/workspace/atlantis_fw/AsicFwS2/src/lcc_cmd_base_0000.c **** 					xSemaphoreTake(plens->semaphore, portMAX_DELAY);
1050:/home/tienluong/workspace/atlantis_fw/AsicFwS2/src/lcc_cmd_base_0000.c **** 					if (plens->moving == FALSE)
1051:/home/tienluong/workspace/atlantis_fw/AsicFwS2/src/lcc_cmd_base_0000.c **** 					{
1052:/home/tienluong/workspace/atlantis_fw/AsicFwS2/src/lcc_cmd_base_0000.c **** 						/* set moving status */
1053:/home/tienluong/workspace/atlantis_fw/AsicFwS2/src/lcc_cmd_base_0000.c **** 						plens->moving = TRUE;
1054:/home/tienluong/workspace/atlantis_fw/AsicFwS2/src/lcc_cmd_base_0000.c **** 						/* Release semaphore after accessing data */
1055:/home/tienluong/workspace/atlantis_fw/AsicFwS2/src/lcc_cmd_base_0000.c **** 						xSemaphoreGive(plens->semaphore);
1056:/home/tienluong/workspace/atlantis_fw/AsicFwS2/src/lcc_cmd_base_0000.c **** 						/* Take semaphore to access settings memory */
1057:/home/tienluong/workspace/atlantis_fw/AsicFwS2/src/lcc_cmd_base_0000.c **** 						xSemaphoreTake(p_cam->optical->semaphore, portMAX_DELAY);
1058:/home/tienluong/workspace/atlantis_fw/AsicFwS2/src/lcc_cmd_base_0000.c **** 						memcpy(p_cam->optical->settings->focus_distance,
1059:/home/tienluong/workspace/atlantis_fw/AsicFwS2/src/lcc_cmd_base_0000.c **** 								&in->data[data_cnt], cmd.size);
1060:/home/tienluong/workspace/atlantis_fw/AsicFwS2/src/lcc_cmd_base_0000.c **** 						/* Release semaphore after writing data */
1061:/home/tienluong/workspace/atlantis_fw/AsicFwS2/src/lcc_cmd_base_0000.c **** 						xSemaphoreGive(p_cam->optical->semaphore);
1062:/home/tienluong/workspace/atlantis_fw/AsicFwS2/src/lcc_cmd_base_0000.c **** 						p_cmd.event = OPT_EVENT_FOCUS_DISTANCE;
1063:/home/tienluong/workspace/atlantis_fw/AsicFwS2/src/lcc_cmd_base_0000.c **** 						xQueueSend(p_cam->queue, &p_cmd, (TickType_t)10);
1064:/home/tienluong/workspace/atlantis_fw/AsicFwS2/src/lcc_cmd_base_0000.c **** 					}
1065:/home/tienluong/workspace/atlantis_fw/AsicFwS2/src/lcc_cmd_base_0000.c **** 					else
1066:/home/tienluong/workspace/atlantis_fw/AsicFwS2/src/lcc_cmd_base_0000.c **** 					{
1067:/home/tienluong/workspace/atlantis_fw/AsicFwS2/src/lcc_cmd_base_0000.c **** 						/* Release semaphore after accessing data */
1068:/home/tienluong/workspace/atlantis_fw/AsicFwS2/src/lcc_cmd_base_0000.c **** 						xSemaphoreGive(plens->semaphore);
1069:/home/tienluong/workspace/atlantis_fw/AsicFwS2/src/lcc_cmd_base_0000.c **** 						SLOGF(SLOG_ERROR, "CAM-%X : Lens is moving",
 2999              		.loc 1 1069 0
 3000 0050 95F82930 		ldrb	r3, [r5, #41]	@ zero_extendqisi2
 3001              	.LVL340:
 3002              	.L245:
 3003 0054 694D     		ldr	r5, .L246+16
 3004 0056 A847     		blx	r5
 3005              	.LVL341:
1070:/home/tienluong/workspace/atlantis_fw/AsicFwS2/src/lcc_cmd_base_0000.c **** 								p_cam->info.module);
1071:/home/tienluong/workspace/atlantis_fw/AsicFwS2/src/lcc_cmd_base_0000.c **** 						in->status = LCC_CMD_UNSUCCESS;
 3006              		.loc 1 1071 0
 3007 0058 3482     		strh	r4, [r6, #16]	@ movhi
1072:/home/tienluong/workspace/atlantis_fw/AsicFwS2/src/lcc_cmd_base_0000.c **** 						return;
 3008              		.loc 1 1072 0
 3009 005a C3E0     		b	.L225
 3010              	.LVL342:
 3011              	.L230:
 3012              	.LBE8:
 998:/home/tienluong/workspace/atlantis_fw/AsicFwS2/src/lcc_cmd_base_0000.c **** 		{
 3013              		.loc 1 998 0
 3014 005c F47C     		ldrb	r4, [r6, #19]	@ zero_extendqisi2
 3015 005e 14F00104 		ands	r4, r4, #1
 3016 0062 3AD0     		beq	.L231
1001:/home/tienluong/workspace/atlantis_fw/AsicFwS2/src/lcc_cmd_base_0000.c **** 			memcpy(&out->data[out->len],
 3017              		.loc 1 1001 0
 3018 0064 4368     		ldr	r3, [r0, #4]
 3019 0066 0021     		movs	r1, #0
 3020 0068 4FF0FF32 		mov	r2, #-1
 3021 006c 644C     		ldr	r4, .L246+20
 3022 006e D868     		ldr	r0, [r3, #12]
 3023              	.LVL343:
 3024 0070 0B46     		mov	r3, r1
 3025 0072 A047     		blx	r4
 3026              	.LVL344:
1003:/home/tienluong/workspace/atlantis_fw/AsicFwS2/src/lcc_cmd_base_0000.c **** 			/* Release semaphore after reading data */
 3027              		.loc 1 1003 0
 3028 0074 6A68     		ldr	r2, [r5, #4]
1002:/home/tienluong/workspace/atlantis_fw/AsicFwS2/src/lcc_cmd_base_0000.c **** 					p_cam->optical->settings->focus_distance, cmd.size);
 3029              		.loc 1 1002 0
 3030 0076 D9F80400 		ldr	r0, [r9, #4]
 3031 007a B9F80830 		ldrh	r3, [r9, #8]
1005:/home/tienluong/workspace/atlantis_fw/AsicFwS2/src/lcc_cmd_base_0000.c **** 			out->len += cmd.size;
 3032              		.loc 1 1005 0
 3033 007e 614C     		ldr	r4, .L246+24
1002:/home/tienluong/workspace/atlantis_fw/AsicFwS2/src/lcc_cmd_base_0000.c **** 					p_cam->optical->settings->focus_distance, cmd.size);
 3034              		.loc 1 1002 0
 3035 0080 9168     		ldr	r1, [r2, #8]
 3036 0082 1844     		add	r0, r0, r3
 3037 0084 0422     		movs	r2, #4
 3038 0086 0231     		adds	r1, r1, #2
 3039 0088 5F4B     		ldr	r3, .L246+28
 3040 008a 9847     		blx	r3
 3041              	.LVL345:
1005:/home/tienluong/workspace/atlantis_fw/AsicFwS2/src/lcc_cmd_base_0000.c **** 			out->len += cmd.size;
 3042              		.loc 1 1005 0
 3043 008c 6B68     		ldr	r3, [r5, #4]
 3044 008e 0021     		movs	r1, #0
 3045 0090 0A46     		mov	r2, r1
 3046 0092 D868     		ldr	r0, [r3, #12]
 3047 0094 0B46     		mov	r3, r1
 3048 0096 A047     		blx	r4
 3049              	.LVL346:
1006:/home/tienluong/workspace/atlantis_fw/AsicFwS2/src/lcc_cmd_base_0000.c **** 		}
 3050              		.loc 1 1006 0
 3051 0098 B9F80830 		ldrh	r3, [r9, #8]
 3052 009c 0433     		adds	r3, r3, #4
 3053 009e A9F80830 		strh	r3, [r9, #8]	@ movhi
 3054              	.L232:
 3055              	.LVL347:
 3056 00a2 0BF1010B 		add	fp, fp, #1
 3057              	.LVL348:
 3058              	.L227:
 985:/home/tienluong/workspace/atlantis_fw/AsicFwS2/src/lcc_cmd_base_0000.c **** 	{
 3059              		.loc 1 985 0 discriminator 1
 3060 00a6 5FFA8BF3 		uxtb	r3, fp
 3061 00aa B27C     		ldrb	r2, [r6, #18]	@ zero_extendqisi2
 3062 00ac 9A42     		cmp	r2, r3
 3063 00ae 40F29980 		bls	.L225
 987:/home/tienluong/workspace/atlantis_fw/AsicFwS2/src/lcc_cmd_base_0000.c **** 		m_bitmask &= ~(1 << cam_idx);
 3064              		.loc 1 987 0
 3065 00b2 009B     		ldr	r3, [sp]
 3066 00b4 93FAA3F0 		rbit	r0, r3
 988:/home/tienluong/workspace/atlantis_fw/AsicFwS2/src/lcc_cmd_base_0000.c **** 		/* Get camera object from camera object list */
 3067              		.loc 1 988 0
 3068 00b8 0123     		movs	r3, #1
 987:/home/tienluong/workspace/atlantis_fw/AsicFwS2/src/lcc_cmd_base_0000.c **** 		m_bitmask &= ~(1 << cam_idx);
 3069              		.loc 1 987 0
 3070 00ba B0FA80F0 		clz	r0, r0
 3071              	.LVL349:
 988:/home/tienluong/workspace/atlantis_fw/AsicFwS2/src/lcc_cmd_base_0000.c **** 		/* Get camera object from camera object list */
 3072              		.loc 1 988 0
 3073 00be 03FA00F7 		lsl	r7, r3, r0
 3074 00c2 009B     		ldr	r3, [sp]
 3075 00c4 23EA0703 		bic	r3, r3, r7
 3076 00c8 0093     		str	r3, [sp]
 3077              	.LVL350:
 990:/home/tienluong/workspace/atlantis_fw/AsicFwS2/src/lcc_cmd_base_0000.c **** 		if (NULL == p_cam)	/*Verify object is valid */
 3078              		.loc 1 990 0
 3079 00ca 504B     		ldr	r3, .L246+32
 3080              	.LVL351:
 3081 00cc 9847     		blx	r3
 3082              	.LVL352:
 991:/home/tienluong/workspace/atlantis_fw/AsicFwS2/src/lcc_cmd_base_0000.c **** 		{
 3083              		.loc 1 991 0
 3084 00ce 0546     		mov	r5, r0
 3085 00d0 0028     		cmp	r0, #0
 3086 00d2 C3D1     		bne	.L230
 993:/home/tienluong/workspace/atlantis_fw/AsicFwS2/src/lcc_cmd_base_0000.c **** 			return;
 3087              		.loc 1 993 0
 3088 00d4 0423     		movs	r3, #4
 3089 00d6 3382     		strh	r3, [r6, #16]	@ movhi
 994:/home/tienluong/workspace/atlantis_fw/AsicFwS2/src/lcc_cmd_base_0000.c **** 		}
 3090              		.loc 1 994 0
 3091 00d8 84E0     		b	.L225
 3092              	.L231:
1011:/home/tienluong/workspace/atlantis_fw/AsicFwS2/src/lcc_cmd_base_0000.c **** 			/* Raise a updating signal to camera task for this ASIC */
 3093              		.loc 1 1011 0
 3094 00da 7389     		ldrh	r3, [r6, #10]
 3095 00dc ADF80830 		strh	r3, [sp, #8]	@ movhi
1013:/home/tienluong/workspace/atlantis_fw/AsicFwS2/src/lcc_cmd_base_0000.c **** 			{
 3096              		.loc 1 1013 0
 3097 00e0 4B4B     		ldr	r3, .L246+36
 3098 00e2 1B68     		ldr	r3, [r3]
 3099 00e4 9B69     		ldr	r3, [r3, #24]
 3100 00e6 1F42     		tst	r7, r3
 3101 00e8 72D0     		beq	.L233
1015:/home/tienluong/workspace/atlantis_fw/AsicFwS2/src/lcc_cmd_base_0000.c **** 				{
 3102              		.loc 1 1015 0
 3103 00ea 90F82930 		ldrb	r3, [r0, #41]	@ zero_extendqisi2
 3104 00ee 03F0F003 		and	r3, r3, #240
 3105 00f2 A02B     		cmp	r3, #160
 3106 00f4 4368     		ldr	r3, [r0, #4]
 3107              	.LBB9:
1019:/home/tienluong/workspace/atlantis_fw/AsicFwS2/src/lcc_cmd_base_0000.c **** 					if (vcm->moving == FALSE)
 3108              		.loc 1 1019 0
 3109 00f6 2146     		mov	r1, r4
 3110 00f8 DFF80881 		ldr	r8, .L246+24
 3111 00fc 4FF0FF32 		mov	r2, #-1
 3112 0100 3F4F     		ldr	r7, .L246+20
1017:/home/tienluong/workspace/atlantis_fw/AsicFwS2/src/lcc_cmd_base_0000.c **** 					/* Take semaphore to access settings memory */
 3113              		.loc 1 1017 0
 3114 0102 D3F800C0 		ldr	ip, [r3]
 3115              	.LVL353:
1019:/home/tienluong/workspace/atlantis_fw/AsicFwS2/src/lcc_cmd_base_0000.c **** 					if (vcm->moving == FALSE)
 3116              		.loc 1 1019 0
 3117 0106 2346     		mov	r3, r4
 3118 0108 DCF80C00 		ldr	r0, [ip, #12]
 3119              	.LVL354:
 3120 010c CDF804C0 		str	ip, [sp, #4]
 3121              	.LBE9:
1015:/home/tienluong/workspace/atlantis_fw/AsicFwS2/src/lcc_cmd_base_0000.c **** 				{
 3122              		.loc 1 1015 0
 3123 0110 27D1     		bne	.L234
 3124              	.LBB10:
1019:/home/tienluong/workspace/atlantis_fw/AsicFwS2/src/lcc_cmd_base_0000.c **** 					if (vcm->moving == FALSE)
 3125              		.loc 1 1019 0
 3126 0112 B847     		blx	r7
 3127              	.LVL355:
1020:/home/tienluong/workspace/atlantis_fw/AsicFwS2/src/lcc_cmd_base_0000.c **** 					{
 3128              		.loc 1 1020 0
 3129 0114 DDF804C0 		ldr	ip, [sp, #4]
 3130 0118 9CF81870 		ldrb	r7, [ip, #24]	@ zero_extendqisi2
 3131 011c 002F     		cmp	r7, #0
 3132 011e 8ED1     		bne	.L235
1023:/home/tienluong/workspace/atlantis_fw/AsicFwS2/src/lcc_cmd_base_0000.c **** 						/* Release semaphore after accessing data */
 3133              		.loc 1 1023 0
 3134 0120 0123     		movs	r3, #1
1025:/home/tienluong/workspace/atlantis_fw/AsicFwS2/src/lcc_cmd_base_0000.c **** 						/* Take semaphore to access settings memory */
 3135              		.loc 1 1025 0
 3136 0122 DCF80C00 		ldr	r0, [ip, #12]
 3137 0126 3946     		mov	r1, r7
1023:/home/tienluong/workspace/atlantis_fw/AsicFwS2/src/lcc_cmd_base_0000.c **** 						/* Release semaphore after accessing data */
 3138              		.loc 1 1023 0
 3139 0128 8CF81830 		strb	r3, [ip, #24]
1025:/home/tienluong/workspace/atlantis_fw/AsicFwS2/src/lcc_cmd_base_0000.c **** 						/* Take semaphore to access settings memory */
 3140              		.loc 1 1025 0
 3141 012c 3A46     		mov	r2, r7
 3142 012e 3B46     		mov	r3, r7
 3143 0130 C047     		blx	r8
 3144              	.LVL356:
1027:/home/tienluong/workspace/atlantis_fw/AsicFwS2/src/lcc_cmd_base_0000.c **** 						memcpy(p_cam->optical->settings->focus_distance,
 3145              		.loc 1 1027 0
 3146 0132 6B68     		ldr	r3, [r5, #4]
 3147 0134 3946     		mov	r1, r7
 3148 0136 4FF0FF32 		mov	r2, #-1
 3149 013a 314C     		ldr	r4, .L246+20
 3150 013c D868     		ldr	r0, [r3, #12]
 3151 013e 3B46     		mov	r3, r7
 3152 0140 A047     		blx	r4
 3153              	.LVL357:
1028:/home/tienluong/workspace/atlantis_fw/AsicFwS2/src/lcc_cmd_base_0000.c **** 								&in->data[data_cnt], cmd.size);
 3154              		.loc 1 1028 0
 3155 0142 6B68     		ldr	r3, [r5, #4]
1029:/home/tienluong/workspace/atlantis_fw/AsicFwS2/src/lcc_cmd_base_0000.c **** 						/* Release semaphore after writing data */
 3156              		.loc 1 1029 0
 3157 0144 7168     		ldr	r1, [r6, #4]
1028:/home/tienluong/workspace/atlantis_fw/AsicFwS2/src/lcc_cmd_base_0000.c **** 								&in->data[data_cnt], cmd.size);
 3158              		.loc 1 1028 0
 3159 0146 0422     		movs	r2, #4
 3160 0148 9868     		ldr	r0, [r3, #8]
 3161 014a 5144     		add	r1, r1, r10
 3162 014c 2E4B     		ldr	r3, .L246+28
 3163 014e 0230     		adds	r0, r0, #2
 3164 0150 9847     		blx	r3
 3165              	.LVL358:
1031:/home/tienluong/workspace/atlantis_fw/AsicFwS2/src/lcc_cmd_base_0000.c **** 						p_cmd.event = IMG_EVENT_VCM_DISTANCE;
 3166              		.loc 1 1031 0
 3167 0152 6B68     		ldr	r3, [r5, #4]
 3168 0154 3946     		mov	r1, r7
 3169 0156 3A46     		mov	r2, r7
 3170 0158 D868     		ldr	r0, [r3, #12]
 3171 015a 3B46     		mov	r3, r7
 3172 015c C047     		blx	r8
 3173              	.LVL359:
1032:/home/tienluong/workspace/atlantis_fw/AsicFwS2/src/lcc_cmd_base_0000.c **** 						xQueueSend(p_cam->queue, &p_cmd, (TickType_t)10);
 3174              		.loc 1 1032 0
 3175 015e 8023     		movs	r3, #128
 3176 0160 25E0     		b	.L243
 3177              	.LVL360:
 3178              	.L234:
 3179              	.LBE10:
 3180              	.LBB11:
1049:/home/tienluong/workspace/atlantis_fw/AsicFwS2/src/lcc_cmd_base_0000.c **** 					if (plens->moving == FALSE)
 3181              		.loc 1 1049 0
 3182 0162 B847     		blx	r7
 3183              	.LVL361:
1050:/home/tienluong/workspace/atlantis_fw/AsicFwS2/src/lcc_cmd_base_0000.c **** 					{
 3184              		.loc 1 1050 0
 3185 0164 DDF804C0 		ldr	ip, [sp, #4]
 3186 0168 9CF81C70 		ldrb	r7, [ip, #28]	@ zero_extendqisi2
 3187 016c 37BB     		cbnz	r7, .L236
1053:/home/tienluong/workspace/atlantis_fw/AsicFwS2/src/lcc_cmd_base_0000.c **** 						/* Release semaphore after accessing data */
 3188              		.loc 1 1053 0
 3189 016e 0123     		movs	r3, #1
1055:/home/tienluong/workspace/atlantis_fw/AsicFwS2/src/lcc_cmd_base_0000.c **** 						/* Take semaphore to access settings memory */
 3190              		.loc 1 1055 0
 3191 0170 DCF80C00 		ldr	r0, [ip, #12]
 3192 0174 3946     		mov	r1, r7
1053:/home/tienluong/workspace/atlantis_fw/AsicFwS2/src/lcc_cmd_base_0000.c **** 						/* Release semaphore after accessing data */
 3193              		.loc 1 1053 0
 3194 0176 8CF81C30 		strb	r3, [ip, #28]
1055:/home/tienluong/workspace/atlantis_fw/AsicFwS2/src/lcc_cmd_base_0000.c **** 						/* Take semaphore to access settings memory */
 3195              		.loc 1 1055 0
 3196 017a 3A46     		mov	r2, r7
 3197 017c 3B46     		mov	r3, r7
 3198 017e C047     		blx	r8
 3199              	.LVL362:
1057:/home/tienluong/workspace/atlantis_fw/AsicFwS2/src/lcc_cmd_base_0000.c **** 						memcpy(p_cam->optical->settings->focus_distance,
 3200              		.loc 1 1057 0
 3201 0180 6B68     		ldr	r3, [r5, #4]
 3202 0182 3946     		mov	r1, r7
 3203 0184 4FF0FF32 		mov	r2, #-1
 3204 0188 1D4C     		ldr	r4, .L246+20
 3205 018a D868     		ldr	r0, [r3, #12]
 3206 018c 3B46     		mov	r3, r7
 3207 018e A047     		blx	r4
 3208              	.LVL363:
1058:/home/tienluong/workspace/atlantis_fw/AsicFwS2/src/lcc_cmd_base_0000.c **** 								&in->data[data_cnt], cmd.size);
 3209              		.loc 1 1058 0
 3210 0190 6B68     		ldr	r3, [r5, #4]
1059:/home/tienluong/workspace/atlantis_fw/AsicFwS2/src/lcc_cmd_base_0000.c **** 						/* Release semaphore after writing data */
 3211              		.loc 1 1059 0
 3212 0192 7168     		ldr	r1, [r6, #4]
1058:/home/tienluong/workspace/atlantis_fw/AsicFwS2/src/lcc_cmd_base_0000.c **** 								&in->data[data_cnt], cmd.size);
 3213              		.loc 1 1058 0
 3214 0194 0422     		movs	r2, #4
 3215 0196 9868     		ldr	r0, [r3, #8]
 3216 0198 5144     		add	r1, r1, r10
 3217 019a 1B4B     		ldr	r3, .L246+28
 3218 019c 0230     		adds	r0, r0, #2
 3219 019e 9847     		blx	r3
 3220              	.LVL364:
1061:/home/tienluong/workspace/atlantis_fw/AsicFwS2/src/lcc_cmd_base_0000.c **** 						p_cmd.event = OPT_EVENT_FOCUS_DISTANCE;
 3221              		.loc 1 1061 0
 3222 01a0 6B68     		ldr	r3, [r5, #4]
 3223 01a2 3946     		mov	r1, r7
 3224 01a4 3A46     		mov	r2, r7
 3225 01a6 D868     		ldr	r0, [r3, #12]
 3226 01a8 3B46     		mov	r3, r7
 3227 01aa C047     		blx	r8
 3228              	.LVL365:
1062:/home/tienluong/workspace/atlantis_fw/AsicFwS2/src/lcc_cmd_base_0000.c **** 						xQueueSend(p_cam->queue, &p_cmd, (TickType_t)10);
 3229              		.loc 1 1062 0
 3230 01ac 0123     		movs	r3, #1
 3231              	.L243:
 3232 01ae 0393     		str	r3, [sp, #12]
1063:/home/tienluong/workspace/atlantis_fw/AsicFwS2/src/lcc_cmd_base_0000.c **** 					}
 3233              		.loc 1 1063 0
 3234 01b0 02A9     		add	r1, sp, #8
 3235 01b2 686B     		ldr	r0, [r5, #52]
 3236 01b4 0A22     		movs	r2, #10
 3237 01b6 3B46     		mov	r3, r7
 3238 01b8 C047     		blx	r8
 3239              	.LVL366:
 3240 01ba 09E0     		b	.L233
 3241              	.L236:
1068:/home/tienluong/workspace/atlantis_fw/AsicFwS2/src/lcc_cmd_base_0000.c **** 						SLOGF(SLOG_ERROR, "CAM-%X : Lens is moving",
 3242              		.loc 1 1068 0
 3243 01bc 2146     		mov	r1, r4
 3244 01be 2246     		mov	r2, r4
 3245 01c0 DCF80C00 		ldr	r0, [ip, #12]
 3246 01c4 2346     		mov	r3, r4
 3247 01c6 C047     		blx	r8
 3248              	.LVL367:
1069:/home/tienluong/workspace/atlantis_fw/AsicFwS2/src/lcc_cmd_base_0000.c **** 								p_cam->info.module);
 3249              		.loc 1 1069 0
 3250 01c8 2120     		movs	r0, #33
 3251 01ca 0221     		movs	r1, #2
 3252 01cc 114A     		ldr	r2, .L246+40
 3253 01ce 3FE7     		b	.L244
 3254              	.LVL368:
 3255              	.L233:
 3256              	.LBE11:
1073:/home/tienluong/workspace/atlantis_fw/AsicFwS2/src/lcc_cmd_base_0000.c **** 					}
1074:/home/tienluong/workspace/atlantis_fw/AsicFwS2/src/lcc_cmd_base_0000.c **** 				}
1075:/home/tienluong/workspace/atlantis_fw/AsicFwS2/src/lcc_cmd_base_0000.c **** 			}
1076:/home/tienluong/workspace/atlantis_fw/AsicFwS2/src/lcc_cmd_base_0000.c **** 
1077:/home/tienluong/workspace/atlantis_fw/AsicFwS2/src/lcc_cmd_base_0000.c **** 			/* Set data pointer when command was not set for global */
1078:/home/tienluong/workspace/atlantis_fw/AsicFwS2/src/lcc_cmd_base_0000.c **** 			data_cnt += in->global ? 0 : cmd.size;
 3257              		.loc 1 1078 0
 3258 01d0 F37C     		ldrb	r3, [r6, #19]	@ zero_extendqisi2
 3259 01d2 13F0020F 		tst	r3, #2
 3260 01d6 14BF     		ite	ne
 3261 01d8 0024     		movne	r4, #0
 3262 01da 0424     		moveq	r4, #4
 3263 01dc 5444     		add	r4, r4, r10
 3264 01de 5FFA84FA 		uxtb	r10, r4
 3265              	.LVL369:
 3266 01e2 5EE7     		b	.L232
 3267              	.LVL370:
 3268              	.L225:
1079:/home/tienluong/workspace/atlantis_fw/AsicFwS2/src/lcc_cmd_base_0000.c **** 		}
1080:/home/tienluong/workspace/atlantis_fw/AsicFwS2/src/lcc_cmd_base_0000.c **** 	}
1081:/home/tienluong/workspace/atlantis_fw/AsicFwS2/src/lcc_cmd_base_0000.c **** 	/* The command status will be updated in either lcc_cmd task
1082:/home/tienluong/workspace/atlantis_fw/AsicFwS2/src/lcc_cmd_base_0000.c **** 	 * (read command) or task_cam_ctrl (write command) */
1083:/home/tienluong/workspace/atlantis_fw/AsicFwS2/src/lcc_cmd_base_0000.c **** }
 3269              		.loc 1 1083 0
 3270 01e4 05B0     		add	sp, sp, #20
 3271              	.LCFI29:
 3272              		.cfi_def_cfa_offset 36
 3273              	.LVL371:
 3274              		@ sp needed
 3275 01e6 BDE8F08F 		pop	{r4, r5, r6, r7, r8, r9, r10, fp, pc}
 3276              	.LVL372:
 3277              	.L247:
 3278 01ea 00BF     		.align	2
 3279              	.L246:
 3280 01ec 00000000 		.word	.LANCHOR14
 3281 01f0 00000000 		.word	pvPortMalloc1
 3282 01f4 00000000 		.word	.LC0
 3283 01f8 50010000 		.word	.LC15
 3284 01fc 00000000 		.word	slogf
 3285 0200 00000000 		.word	xQueueGenericReceive
 3286 0204 00000000 		.word	xQueueGenericSend
 3287 0208 00000000 		.word	memcpy
 3288 020c 00000000 		.word	idx_to_object
 3289 0210 00000000 		.word	light_system
 3290 0214 67010000 		.word	.LC16
 3291              		.cfi_endproc
 3292              	.LFE15:
 3294              		.section	.text.cmd_cam_module_lens_position,"ax",%progbits
 3295              		.align	1
 3296              		.global	cmd_cam_module_lens_position
 3297              		.thumb
 3298              		.thumb_func
 3300              	cmd_cam_module_lens_position:
 3301              	.LFB16:
1084:/home/tienluong/workspace/atlantis_fw/AsicFwS2/src/lcc_cmd_base_0000.c **** 
1085:/home/tienluong/workspace/atlantis_fw/AsicFwS2/src/lcc_cmd_base_0000.c **** /**
1086:/home/tienluong/workspace/atlantis_fw/AsicFwS2/src/lcc_cmd_base_0000.c ****  * cmd_cam_module_lens_position
1087:/home/tienluong/workspace/atlantis_fw/AsicFwS2/src/lcc_cmd_base_0000.c ****  *
1088:/home/tienluong/workspace/atlantis_fw/AsicFwS2/src/lcc_cmd_base_0000.c ****  */
1089:/home/tienluong/workspace/atlantis_fw/AsicFwS2/src/lcc_cmd_base_0000.c **** void cmd_cam_module_lens_position(lcc_cmd_t *in, lcc_cmd_t *out)
1090:/home/tienluong/workspace/atlantis_fw/AsicFwS2/src/lcc_cmd_base_0000.c **** {
 3302              		.loc 1 1090 0
 3303              		.cfi_startproc
 3304              		@ args = 0, pretend = 0, frame = 24
 3305              		@ frame_needed = 0, uses_anonymous_args = 0
 3306              	.LVL373:
 3307 0000 2DE9F04F 		push	{r4, r5, r6, r7, r8, r9, r10, fp, lr}
 3308              	.LCFI30:
 3309              		.cfi_def_cfa_offset 36
 3310              		.cfi_offset 4, -36
 3311              		.cfi_offset 5, -32
 3312              		.cfi_offset 6, -28
 3313              		.cfi_offset 7, -24
 3314              		.cfi_offset 8, -20
 3315              		.cfi_offset 9, -16
 3316              		.cfi_offset 10, -12
 3317              		.cfi_offset 11, -8
 3318              		.cfi_offset 14, -4
 3319 0004 87B0     		sub	sp, sp, #28
 3320              	.LCFI31:
 3321              		.cfi_def_cfa_offset 64
1091:/home/tienluong/workspace/atlantis_fw/AsicFwS2/src/lcc_cmd_base_0000.c **** 	lcc_cmd_tid_t p_cmd;
1092:/home/tienluong/workspace/atlantis_fw/AsicFwS2/src/lcc_cmd_base_0000.c **** 	cam_typedef_t *p_cam;
1093:/home/tienluong/workspace/atlantis_fw/AsicFwS2/src/lcc_cmd_base_0000.c **** 	lcc_cmd_info_t cmd = (lcc_cmd_info_t)(LCC_CMD_CAM_MODULE_LENS_POSITION);
1094:/home/tienluong/workspace/atlantis_fw/AsicFwS2/src/lcc_cmd_base_0000.c **** 	uint32_t m_bitmask = in->m_bitmask;
 3322              		.loc 1 1094 0
 3323 0006 0368     		ldr	r3, [r0]
1090:/home/tienluong/workspace/atlantis_fw/AsicFwS2/src/lcc_cmd_base_0000.c **** 	lcc_cmd_tid_t p_cmd;
 3324              		.loc 1 1090 0
 3325 0008 0646     		mov	r6, r0
 3326              		.loc 1 1094 0
 3327 000a 0193     		str	r3, [sp, #4]
 3328              	.LVL374:
1095:/home/tienluong/workspace/atlantis_fw/AsicFwS2/src/lcc_cmd_base_0000.c **** 	uint8_t i, cam_idx, data_cnt = 0;
1096:/home/tienluong/workspace/atlantis_fw/AsicFwS2/src/lcc_cmd_base_0000.c **** 
1097:/home/tienluong/workspace/atlantis_fw/AsicFwS2/src/lcc_cmd_base_0000.c **** 	if (CMD_READ == in->action)
 3329              		.loc 1 1097 0
 3330 000c C37C     		ldrb	r3, [r0, #19]	@ zero_extendqisi2
 3331              	.LVL375:
 3332 000e DB07     		lsls	r3, r3, #31
1090:/home/tienluong/workspace/atlantis_fw/AsicFwS2/src/lcc_cmd_base_0000.c **** 	lcc_cmd_tid_t p_cmd;
 3333              		.loc 1 1090 0
 3334 0010 8946     		mov	r9, r1
 3335              		.loc 1 1097 0
 3336 0012 04D4     		bmi	.L249
 3337              	.LVL376:
 3338              	.L251:
1098:/home/tienluong/workspace/atlantis_fw/AsicFwS2/src/lcc_cmd_base_0000.c **** 	{
1099:/home/tienluong/workspace/atlantis_fw/AsicFwS2/src/lcc_cmd_base_0000.c **** 		out->data = pvPortMalloc(in->m_number * cmd.size);
1100:/home/tienluong/workspace/atlantis_fw/AsicFwS2/src/lcc_cmd_base_0000.c **** 		if (NULL == out->data)
1101:/home/tienluong/workspace/atlantis_fw/AsicFwS2/src/lcc_cmd_base_0000.c **** 		{
1102:/home/tienluong/workspace/atlantis_fw/AsicFwS2/src/lcc_cmd_base_0000.c **** 			SLOGF(SLOG_ERROR, "%s: Lack of memory", __FUNCTION__);
1103:/home/tienluong/workspace/atlantis_fw/AsicFwS2/src/lcc_cmd_base_0000.c **** 			in->status = LCC_CMD_UNSUCCESS;
1104:/home/tienluong/workspace/atlantis_fw/AsicFwS2/src/lcc_cmd_base_0000.c **** 			return;
1105:/home/tienluong/workspace/atlantis_fw/AsicFwS2/src/lcc_cmd_base_0000.c **** 		}
1106:/home/tienluong/workspace/atlantis_fw/AsicFwS2/src/lcc_cmd_base_0000.c **** 	}
1107:/home/tienluong/workspace/atlantis_fw/AsicFwS2/src/lcc_cmd_base_0000.c **** 
1108:/home/tienluong/workspace/atlantis_fw/AsicFwS2/src/lcc_cmd_base_0000.c **** 	/* Scan camera bitmask */
1109:/home/tienluong/workspace/atlantis_fw/AsicFwS2/src/lcc_cmd_base_0000.c **** 	for (i = 0; i < in->m_number; i++)
1110:/home/tienluong/workspace/atlantis_fw/AsicFwS2/src/lcc_cmd_base_0000.c **** 	{
1111:/home/tienluong/workspace/atlantis_fw/AsicFwS2/src/lcc_cmd_base_0000.c **** 		cam_idx = __builtin_ctz(m_bitmask);
1112:/home/tienluong/workspace/atlantis_fw/AsicFwS2/src/lcc_cmd_base_0000.c **** 		m_bitmask &= ~(1 << cam_idx);
1113:/home/tienluong/workspace/atlantis_fw/AsicFwS2/src/lcc_cmd_base_0000.c **** 		/* Get camera object from camera object list */
1114:/home/tienluong/workspace/atlantis_fw/AsicFwS2/src/lcc_cmd_base_0000.c **** 		p_cam = idx_to_object(cam_idx);
1115:/home/tienluong/workspace/atlantis_fw/AsicFwS2/src/lcc_cmd_base_0000.c **** 		if (NULL == p_cam)	/*Verify object is valid */
1116:/home/tienluong/workspace/atlantis_fw/AsicFwS2/src/lcc_cmd_base_0000.c **** 		{
1117:/home/tienluong/workspace/atlantis_fw/AsicFwS2/src/lcc_cmd_base_0000.c **** 			in->status = LCC_CMD_INVALID_ARG;
1118:/home/tienluong/workspace/atlantis_fw/AsicFwS2/src/lcc_cmd_base_0000.c **** 			return;
1119:/home/tienluong/workspace/atlantis_fw/AsicFwS2/src/lcc_cmd_base_0000.c **** 		}
1120:/home/tienluong/workspace/atlantis_fw/AsicFwS2/src/lcc_cmd_base_0000.c **** 
1121:/home/tienluong/workspace/atlantis_fw/AsicFwS2/src/lcc_cmd_base_0000.c **** 		/* Read command processing */
1122:/home/tienluong/workspace/atlantis_fw/AsicFwS2/src/lcc_cmd_base_0000.c **** 		if (CMD_READ == in->action)
1123:/home/tienluong/workspace/atlantis_fw/AsicFwS2/src/lcc_cmd_base_0000.c **** 		{
1124:/home/tienluong/workspace/atlantis_fw/AsicFwS2/src/lcc_cmd_base_0000.c **** 			/* Take semaphore to access settings memory */
1125:/home/tienluong/workspace/atlantis_fw/AsicFwS2/src/lcc_cmd_base_0000.c **** 			xSemaphoreTake(p_cam->optical->semaphore, portMAX_DELAY);
1126:/home/tienluong/workspace/atlantis_fw/AsicFwS2/src/lcc_cmd_base_0000.c **** 			memcpy(&out->data[out->len],
1127:/home/tienluong/workspace/atlantis_fw/AsicFwS2/src/lcc_cmd_base_0000.c **** 					p_cam->optical->settings->lens_position, cmd.size);
1128:/home/tienluong/workspace/atlantis_fw/AsicFwS2/src/lcc_cmd_base_0000.c **** 			/* Release semaphore after reading data */
1129:/home/tienluong/workspace/atlantis_fw/AsicFwS2/src/lcc_cmd_base_0000.c **** 			xSemaphoreGive(p_cam->optical->semaphore);
1130:/home/tienluong/workspace/atlantis_fw/AsicFwS2/src/lcc_cmd_base_0000.c **** 			out->len += cmd.size;
1131:/home/tienluong/workspace/atlantis_fw/AsicFwS2/src/lcc_cmd_base_0000.c **** 		}
1132:/home/tienluong/workspace/atlantis_fw/AsicFwS2/src/lcc_cmd_base_0000.c **** 		/* Write command processing */
1133:/home/tienluong/workspace/atlantis_fw/AsicFwS2/src/lcc_cmd_base_0000.c **** 		else
1134:/home/tienluong/workspace/atlantis_fw/AsicFwS2/src/lcc_cmd_base_0000.c **** 		{
1135:/home/tienluong/workspace/atlantis_fw/AsicFwS2/src/lcc_cmd_base_0000.c **** 			p_cmd.cmd_tid = in->tid;
1136:/home/tienluong/workspace/atlantis_fw/AsicFwS2/src/lcc_cmd_base_0000.c **** 			/* Take semaphore to access settings memory */
1137:/home/tienluong/workspace/atlantis_fw/AsicFwS2/src/lcc_cmd_base_0000.c **** 			xSemaphoreTake(p_cam->optical->semaphore, portMAX_DELAY);
1138:/home/tienluong/workspace/atlantis_fw/AsicFwS2/src/lcc_cmd_base_0000.c **** 			memcpy(p_cam->optical->settings->lens_position,
1139:/home/tienluong/workspace/atlantis_fw/AsicFwS2/src/lcc_cmd_base_0000.c **** 					&in->data[data_cnt], cmd.size);
1140:/home/tienluong/workspace/atlantis_fw/AsicFwS2/src/lcc_cmd_base_0000.c **** 			/* Release semaphore after writing data */
1141:/home/tienluong/workspace/atlantis_fw/AsicFwS2/src/lcc_cmd_base_0000.c **** 			xSemaphoreGive(p_cam->optical->semaphore);
1142:/home/tienluong/workspace/atlantis_fw/AsicFwS2/src/lcc_cmd_base_0000.c **** 			/* Raise a updating signal to camera task for this ASIC */
1143:/home/tienluong/workspace/atlantis_fw/AsicFwS2/src/lcc_cmd_base_0000.c **** 			if (light_system->m_filter & (1 << cam_idx))
1144:/home/tienluong/workspace/atlantis_fw/AsicFwS2/src/lcc_cmd_base_0000.c **** 			{
1145:/home/tienluong/workspace/atlantis_fw/AsicFwS2/src/lcc_cmd_base_0000.c **** 				if(p_cam->info.grp == GRP_A)
1146:/home/tienluong/workspace/atlantis_fw/AsicFwS2/src/lcc_cmd_base_0000.c **** 				{
1147:/home/tienluong/workspace/atlantis_fw/AsicFwS2/src/lcc_cmd_base_0000.c **** 					vcm_t *vcm = p_cam->optical->lens;
1148:/home/tienluong/workspace/atlantis_fw/AsicFwS2/src/lcc_cmd_base_0000.c **** 					/* Take semaphore to access settings memory */
1149:/home/tienluong/workspace/atlantis_fw/AsicFwS2/src/lcc_cmd_base_0000.c **** 					xSemaphoreTake(vcm->semaphore, portMAX_DELAY);
1150:/home/tienluong/workspace/atlantis_fw/AsicFwS2/src/lcc_cmd_base_0000.c **** 					if (vcm->moving == FALSE)
1151:/home/tienluong/workspace/atlantis_fw/AsicFwS2/src/lcc_cmd_base_0000.c **** 					{
1152:/home/tienluong/workspace/atlantis_fw/AsicFwS2/src/lcc_cmd_base_0000.c **** 						/* set moving status */
1153:/home/tienluong/workspace/atlantis_fw/AsicFwS2/src/lcc_cmd_base_0000.c **** 						vcm->moving = TRUE;
1154:/home/tienluong/workspace/atlantis_fw/AsicFwS2/src/lcc_cmd_base_0000.c **** 						/* Release semaphore after accessing data */
1155:/home/tienluong/workspace/atlantis_fw/AsicFwS2/src/lcc_cmd_base_0000.c **** 						xSemaphoreGive(vcm->semaphore);
1156:/home/tienluong/workspace/atlantis_fw/AsicFwS2/src/lcc_cmd_base_0000.c **** 
1157:/home/tienluong/workspace/atlantis_fw/AsicFwS2/src/lcc_cmd_base_0000.c **** 						p_cmd.event = IMG_EVENT_VCM_POSITION;
1158:/home/tienluong/workspace/atlantis_fw/AsicFwS2/src/lcc_cmd_base_0000.c **** 						xQueueSend(p_cam->queue, &p_cmd, (TickType_t)10);
1159:/home/tienluong/workspace/atlantis_fw/AsicFwS2/src/lcc_cmd_base_0000.c **** 					}
1160:/home/tienluong/workspace/atlantis_fw/AsicFwS2/src/lcc_cmd_base_0000.c **** 					else
1161:/home/tienluong/workspace/atlantis_fw/AsicFwS2/src/lcc_cmd_base_0000.c **** 					{
1162:/home/tienluong/workspace/atlantis_fw/AsicFwS2/src/lcc_cmd_base_0000.c **** 						/* Release semaphore after accessing data */
1163:/home/tienluong/workspace/atlantis_fw/AsicFwS2/src/lcc_cmd_base_0000.c **** 						xSemaphoreGive(vcm->semaphore);
1164:/home/tienluong/workspace/atlantis_fw/AsicFwS2/src/lcc_cmd_base_0000.c **** 						SLOGF(SLOG_ERROR, "CAM-%X : VCM is moving",
1165:/home/tienluong/workspace/atlantis_fw/AsicFwS2/src/lcc_cmd_base_0000.c **** 								p_cam->info.module);
1166:/home/tienluong/workspace/atlantis_fw/AsicFwS2/src/lcc_cmd_base_0000.c **** 						in->status = LCC_CMD_UNSUCCESS;
1167:/home/tienluong/workspace/atlantis_fw/AsicFwS2/src/lcc_cmd_base_0000.c **** 						return;
1168:/home/tienluong/workspace/atlantis_fw/AsicFwS2/src/lcc_cmd_base_0000.c **** 					}
1169:/home/tienluong/workspace/atlantis_fw/AsicFwS2/src/lcc_cmd_base_0000.c **** 				}
1170:/home/tienluong/workspace/atlantis_fw/AsicFwS2/src/lcc_cmd_base_0000.c **** 				else
1171:/home/tienluong/workspace/atlantis_fw/AsicFwS2/src/lcc_cmd_base_0000.c **** 				{
1172:/home/tienluong/workspace/atlantis_fw/AsicFwS2/src/lcc_cmd_base_0000.c **** 					actuator_t *plens = (actuator_t *)p_cam->optical->lens;
1173:/home/tienluong/workspace/atlantis_fw/AsicFwS2/src/lcc_cmd_base_0000.c **** 					/* Take semaphore to access settings memory */
1174:/home/tienluong/workspace/atlantis_fw/AsicFwS2/src/lcc_cmd_base_0000.c **** 					xSemaphoreTake(plens->semaphore, portMAX_DELAY);
1175:/home/tienluong/workspace/atlantis_fw/AsicFwS2/src/lcc_cmd_base_0000.c **** 					if (plens->moving == FALSE)
1176:/home/tienluong/workspace/atlantis_fw/AsicFwS2/src/lcc_cmd_base_0000.c **** 					{
1177:/home/tienluong/workspace/atlantis_fw/AsicFwS2/src/lcc_cmd_base_0000.c **** 						/* set moving status */
1178:/home/tienluong/workspace/atlantis_fw/AsicFwS2/src/lcc_cmd_base_0000.c **** 						plens->moving = TRUE;
1179:/home/tienluong/workspace/atlantis_fw/AsicFwS2/src/lcc_cmd_base_0000.c **** 						/* Release semaphore after accessing data */
1180:/home/tienluong/workspace/atlantis_fw/AsicFwS2/src/lcc_cmd_base_0000.c **** 						xSemaphoreGive(plens->semaphore);
1181:/home/tienluong/workspace/atlantis_fw/AsicFwS2/src/lcc_cmd_base_0000.c **** 						/* Take semaphore to access settings memory */
1182:/home/tienluong/workspace/atlantis_fw/AsicFwS2/src/lcc_cmd_base_0000.c **** 						xSemaphoreTake(p_cam->optical->semaphore, portMAX_DELAY);
1183:/home/tienluong/workspace/atlantis_fw/AsicFwS2/src/lcc_cmd_base_0000.c **** 			            // FIXME set tolerance from command
1184:/home/tienluong/workspace/atlantis_fw/AsicFwS2/src/lcc_cmd_base_0000.c **** 			            p_cam->optical->settings->lens_position_tolerance = 2;
1185:/home/tienluong/workspace/atlantis_fw/AsicFwS2/src/lcc_cmd_base_0000.c **** 						/* Release semaphore after writing data */
1186:/home/tienluong/workspace/atlantis_fw/AsicFwS2/src/lcc_cmd_base_0000.c **** 						xSemaphoreGive(p_cam->optical->semaphore);
1187:/home/tienluong/workspace/atlantis_fw/AsicFwS2/src/lcc_cmd_base_0000.c **** 						p_cmd.event = OPT_EVENT_LENS_POSITION;
1188:/home/tienluong/workspace/atlantis_fw/AsicFwS2/src/lcc_cmd_base_0000.c **** 						xQueueSend(plens->queue, &p_cmd, (TickType_t)10);
1189:/home/tienluong/workspace/atlantis_fw/AsicFwS2/src/lcc_cmd_base_0000.c **** 					}
1190:/home/tienluong/workspace/atlantis_fw/AsicFwS2/src/lcc_cmd_base_0000.c **** 					else
1191:/home/tienluong/workspace/atlantis_fw/AsicFwS2/src/lcc_cmd_base_0000.c **** 					{
1192:/home/tienluong/workspace/atlantis_fw/AsicFwS2/src/lcc_cmd_base_0000.c **** 						/* Release semaphore after accessing data */
1193:/home/tienluong/workspace/atlantis_fw/AsicFwS2/src/lcc_cmd_base_0000.c **** 						xSemaphoreGive(plens->semaphore);
1194:/home/tienluong/workspace/atlantis_fw/AsicFwS2/src/lcc_cmd_base_0000.c **** 						SLOGF(SLOG_ERROR, "CAM-%X : Lens is moving",
1195:/home/tienluong/workspace/atlantis_fw/AsicFwS2/src/lcc_cmd_base_0000.c **** 								p_cam->info.module);
1196:/home/tienluong/workspace/atlantis_fw/AsicFwS2/src/lcc_cmd_base_0000.c **** 						in->status = LCC_CMD_UNSUCCESS;
1197:/home/tienluong/workspace/atlantis_fw/AsicFwS2/src/lcc_cmd_base_0000.c **** 						return;
1198:/home/tienluong/workspace/atlantis_fw/AsicFwS2/src/lcc_cmd_base_0000.c **** 					}
1199:/home/tienluong/workspace/atlantis_fw/AsicFwS2/src/lcc_cmd_base_0000.c **** 				}
1200:/home/tienluong/workspace/atlantis_fw/AsicFwS2/src/lcc_cmd_base_0000.c **** 			}
1201:/home/tienluong/workspace/atlantis_fw/AsicFwS2/src/lcc_cmd_base_0000.c **** 
1202:/home/tienluong/workspace/atlantis_fw/AsicFwS2/src/lcc_cmd_base_0000.c **** 			/* Set data pointer when command was not set for global */
1203:/home/tienluong/workspace/atlantis_fw/AsicFwS2/src/lcc_cmd_base_0000.c **** 			data_cnt += in->global ? 0 : cmd.size;
 3339              		.loc 1 1203 0
 3340 0014 4FF0000B 		mov	fp, #0
 3341 0018 CDF808B0 		str	fp, [sp, #8]
 3342 001c 44E0     		b	.L250
 3343              	.LVL377:
 3344              	.L249:
1099:/home/tienluong/workspace/atlantis_fw/AsicFwS2/src/lcc_cmd_base_0000.c **** 		if (NULL == out->data)
 3345              		.loc 1 1099 0
 3346 001e 807C     		ldrb	r0, [r0, #18]	@ zero_extendqisi2
 3347              	.LVL378:
 3348 0020 7549     		ldr	r1, .L269
 3349              	.LVL379:
 3350 0022 4000     		lsls	r0, r0, #1
 3351 0024 40F24B42 		movw	r2, #1099
 3352 0028 744B     		ldr	r3, .L269+4
 3353 002a 9847     		blx	r3
 3354              	.LVL380:
 3355 002c 0446     		mov	r4, r0
 3356 002e C9F80400 		str	r0, [r9, #4]
1100:/home/tienluong/workspace/atlantis_fw/AsicFwS2/src/lcc_cmd_base_0000.c **** 		{
 3357              		.loc 1 1100 0
 3358 0032 0028     		cmp	r0, #0
 3359 0034 EED1     		bne	.L251
1102:/home/tienluong/workspace/atlantis_fw/AsicFwS2/src/lcc_cmd_base_0000.c **** 			in->status = LCC_CMD_UNSUCCESS;
 3360              		.loc 1 1102 0
 3361 0036 2120     		movs	r0, #33
 3362 0038 0221     		movs	r1, #2
 3363 003a 714A     		ldr	r2, .L269+8
 3364 003c 6E4B     		ldr	r3, .L269
 3365 003e 09E0     		b	.L268
 3366              	.LVL381:
 3367              	.L258:
 3368              	.LBB12:
1163:/home/tienluong/workspace/atlantis_fw/AsicFwS2/src/lcc_cmd_base_0000.c **** 						SLOGF(SLOG_ERROR, "CAM-%X : VCM is moving",
 3369              		.loc 1 1163 0
 3370 0040 2146     		mov	r1, r4
 3371 0042 2246     		mov	r2, r4
 3372 0044 F868     		ldr	r0, [r7, #12]
 3373 0046 2346     		mov	r3, r4
 3374 0048 C047     		blx	r8
 3375              	.LVL382:
1164:/home/tienluong/workspace/atlantis_fw/AsicFwS2/src/lcc_cmd_base_0000.c **** 								p_cam->info.module);
 3376              		.loc 1 1164 0
 3377 004a 6E4A     		ldr	r2, .L269+12
 3378 004c 2120     		movs	r0, #33
 3379 004e 0221     		movs	r1, #2
 3380              	.LVL383:
 3381              	.L267:
 3382              	.LBE12:
 3383              	.LBB13:
1194:/home/tienluong/workspace/atlantis_fw/AsicFwS2/src/lcc_cmd_base_0000.c **** 								p_cam->info.module);
 3384              		.loc 1 1194 0
 3385 0050 95F82930 		ldrb	r3, [r5, #41]	@ zero_extendqisi2
 3386              	.LVL384:
 3387              	.L268:
 3388 0054 6C4D     		ldr	r5, .L269+16
 3389 0056 A847     		blx	r5
 3390              	.LVL385:
1196:/home/tienluong/workspace/atlantis_fw/AsicFwS2/src/lcc_cmd_base_0000.c **** 						return;
 3391              		.loc 1 1196 0
 3392 0058 3482     		strh	r4, [r6, #16]	@ movhi
1197:/home/tienluong/workspace/atlantis_fw/AsicFwS2/src/lcc_cmd_base_0000.c **** 					}
 3393              		.loc 1 1197 0
 3394 005a C9E0     		b	.L248
 3395              	.LVL386:
 3396              	.L253:
 3397              	.LBE13:
1122:/home/tienluong/workspace/atlantis_fw/AsicFwS2/src/lcc_cmd_base_0000.c **** 		{
 3398              		.loc 1 1122 0
 3399 005c F47C     		ldrb	r4, [r6, #19]	@ zero_extendqisi2
 3400 005e 14F00104 		ands	r4, r4, #1
 3401 0062 4368     		ldr	r3, [r0, #4]
 3402 0064 DFF8B8A1 		ldr	r10, .L269+40
 3403 0068 38D0     		beq	.L254
1125:/home/tienluong/workspace/atlantis_fw/AsicFwS2/src/lcc_cmd_base_0000.c **** 			memcpy(&out->data[out->len],
 3404              		.loc 1 1125 0
 3405 006a 0021     		movs	r1, #0
 3406 006c D868     		ldr	r0, [r3, #12]
 3407              	.LVL387:
 3408 006e 4FF0FF32 		mov	r2, #-1
 3409 0072 0B46     		mov	r3, r1
 3410 0074 D047     		blx	r10
 3411              	.LVL388:
1127:/home/tienluong/workspace/atlantis_fw/AsicFwS2/src/lcc_cmd_base_0000.c **** 			/* Release semaphore after reading data */
 3412              		.loc 1 1127 0
 3413 0076 6A68     		ldr	r2, [r5, #4]
1126:/home/tienluong/workspace/atlantis_fw/AsicFwS2/src/lcc_cmd_base_0000.c **** 					p_cam->optical->settings->lens_position, cmd.size);
 3414              		.loc 1 1126 0
 3415 0078 D9F80400 		ldr	r0, [r9, #4]
 3416 007c B9F80830 		ldrh	r3, [r9, #8]
1129:/home/tienluong/workspace/atlantis_fw/AsicFwS2/src/lcc_cmd_base_0000.c **** 			out->len += cmd.size;
 3417              		.loc 1 1129 0
 3418 0080 624C     		ldr	r4, .L269+20
1126:/home/tienluong/workspace/atlantis_fw/AsicFwS2/src/lcc_cmd_base_0000.c **** 					p_cam->optical->settings->lens_position, cmd.size);
 3419              		.loc 1 1126 0
 3420 0082 9168     		ldr	r1, [r2, #8]
 3421 0084 1844     		add	r0, r0, r3
 3422 0086 0222     		movs	r2, #2
 3423 0088 0631     		adds	r1, r1, #6
 3424 008a 614B     		ldr	r3, .L269+24
 3425 008c 9847     		blx	r3
 3426              	.LVL389:
1129:/home/tienluong/workspace/atlantis_fw/AsicFwS2/src/lcc_cmd_base_0000.c **** 			out->len += cmd.size;
 3427              		.loc 1 1129 0
 3428 008e 6B68     		ldr	r3, [r5, #4]
 3429 0090 0021     		movs	r1, #0
 3430 0092 0A46     		mov	r2, r1
 3431 0094 D868     		ldr	r0, [r3, #12]
 3432 0096 0B46     		mov	r3, r1
 3433 0098 A047     		blx	r4
 3434              	.LVL390:
1130:/home/tienluong/workspace/atlantis_fw/AsicFwS2/src/lcc_cmd_base_0000.c **** 		}
 3435              		.loc 1 1130 0
 3436 009a B9F80830 		ldrh	r3, [r9, #8]
 3437 009e 0233     		adds	r3, r3, #2
 3438 00a0 A9F80830 		strh	r3, [r9, #8]	@ movhi
 3439              	.L255:
 3440              	.LVL391:
 3441 00a4 0BF1010B 		add	fp, fp, #1
 3442              	.LVL392:
 3443              	.L250:
1109:/home/tienluong/workspace/atlantis_fw/AsicFwS2/src/lcc_cmd_base_0000.c **** 	{
 3444              		.loc 1 1109 0 discriminator 1
 3445 00a8 5FFA8BF3 		uxtb	r3, fp
 3446 00ac B27C     		ldrb	r2, [r6, #18]	@ zero_extendqisi2
 3447 00ae 9A42     		cmp	r2, r3
 3448 00b0 40F29E80 		bls	.L248
1111:/home/tienluong/workspace/atlantis_fw/AsicFwS2/src/lcc_cmd_base_0000.c **** 		m_bitmask &= ~(1 << cam_idx);
 3449              		.loc 1 1111 0
 3450 00b4 019B     		ldr	r3, [sp, #4]
 3451 00b6 93FAA3F0 		rbit	r0, r3
1112:/home/tienluong/workspace/atlantis_fw/AsicFwS2/src/lcc_cmd_base_0000.c **** 		/* Get camera object from camera object list */
 3452              		.loc 1 1112 0
 3453 00ba 0123     		movs	r3, #1
1111:/home/tienluong/workspace/atlantis_fw/AsicFwS2/src/lcc_cmd_base_0000.c **** 		m_bitmask &= ~(1 << cam_idx);
 3454              		.loc 1 1111 0
 3455 00bc B0FA80F0 		clz	r0, r0
 3456              	.LVL393:
1112:/home/tienluong/workspace/atlantis_fw/AsicFwS2/src/lcc_cmd_base_0000.c **** 		/* Get camera object from camera object list */
 3457              		.loc 1 1112 0
 3458 00c0 03FA00F7 		lsl	r7, r3, r0
 3459 00c4 019B     		ldr	r3, [sp, #4]
 3460 00c6 23EA0703 		bic	r3, r3, r7
 3461 00ca 0193     		str	r3, [sp, #4]
 3462              	.LVL394:
1114:/home/tienluong/workspace/atlantis_fw/AsicFwS2/src/lcc_cmd_base_0000.c **** 		if (NULL == p_cam)	/*Verify object is valid */
 3463              		.loc 1 1114 0
 3464 00cc 514B     		ldr	r3, .L269+28
 3465              	.LVL395:
 3466 00ce 9847     		blx	r3
 3467              	.LVL396:
1115:/home/tienluong/workspace/atlantis_fw/AsicFwS2/src/lcc_cmd_base_0000.c **** 		{
 3468              		.loc 1 1115 0
 3469 00d0 0546     		mov	r5, r0
 3470 00d2 0028     		cmp	r0, #0
 3471 00d4 C2D1     		bne	.L253
1117:/home/tienluong/workspace/atlantis_fw/AsicFwS2/src/lcc_cmd_base_0000.c **** 			return;
 3472              		.loc 1 1117 0
 3473 00d6 0423     		movs	r3, #4
 3474 00d8 3382     		strh	r3, [r6, #16]	@ movhi
1118:/home/tienluong/workspace/atlantis_fw/AsicFwS2/src/lcc_cmd_base_0000.c **** 		}
 3475              		.loc 1 1118 0
 3476 00da 89E0     		b	.L248
 3477              	.L254:
1135:/home/tienluong/workspace/atlantis_fw/AsicFwS2/src/lcc_cmd_base_0000.c **** 			/* Take semaphore to access settings memory */
 3478              		.loc 1 1135 0
 3479 00dc 7289     		ldrh	r2, [r6, #10]
1137:/home/tienluong/workspace/atlantis_fw/AsicFwS2/src/lcc_cmd_base_0000.c **** 			memcpy(p_cam->optical->settings->lens_position,
 3480              		.loc 1 1137 0
 3481 00de D868     		ldr	r0, [r3, #12]
 3482              	.LVL397:
1135:/home/tienluong/workspace/atlantis_fw/AsicFwS2/src/lcc_cmd_base_0000.c **** 			/* Take semaphore to access settings memory */
 3483              		.loc 1 1135 0
 3484 00e0 ADF81020 		strh	r2, [sp, #16]	@ movhi
1137:/home/tienluong/workspace/atlantis_fw/AsicFwS2/src/lcc_cmd_base_0000.c **** 			memcpy(p_cam->optical->settings->lens_position,
 3485              		.loc 1 1137 0
 3486 00e4 2146     		mov	r1, r4
 3487 00e6 4FF0FF32 		mov	r2, #-1
 3488 00ea 2346     		mov	r3, r4
 3489 00ec D047     		blx	r10
 3490              	.LVL398:
1138:/home/tienluong/workspace/atlantis_fw/AsicFwS2/src/lcc_cmd_base_0000.c **** 					&in->data[data_cnt], cmd.size);
 3491              		.loc 1 1138 0
 3492 00ee 6B68     		ldr	r3, [r5, #4]
1139:/home/tienluong/workspace/atlantis_fw/AsicFwS2/src/lcc_cmd_base_0000.c **** 			/* Release semaphore after writing data */
 3493              		.loc 1 1139 0
 3494 00f0 7168     		ldr	r1, [r6, #4]
1138:/home/tienluong/workspace/atlantis_fw/AsicFwS2/src/lcc_cmd_base_0000.c **** 					&in->data[data_cnt], cmd.size);
 3495              		.loc 1 1138 0
 3496 00f2 0222     		movs	r2, #2
1141:/home/tienluong/workspace/atlantis_fw/AsicFwS2/src/lcc_cmd_base_0000.c **** 			/* Raise a updating signal to camera task for this ASIC */
 3497              		.loc 1 1141 0
 3498 00f4 DFF81481 		ldr	r8, .L269+20
1138:/home/tienluong/workspace/atlantis_fw/AsicFwS2/src/lcc_cmd_base_0000.c **** 					&in->data[data_cnt], cmd.size);
 3499              		.loc 1 1138 0
 3500 00f8 9868     		ldr	r0, [r3, #8]
 3501 00fa 029B     		ldr	r3, [sp, #8]
 3502 00fc 0630     		adds	r0, r0, #6
 3503 00fe 1944     		add	r1, r1, r3
 3504 0100 434B     		ldr	r3, .L269+24
 3505 0102 9847     		blx	r3
 3506              	.LVL399:
1141:/home/tienluong/workspace/atlantis_fw/AsicFwS2/src/lcc_cmd_base_0000.c **** 			/* Raise a updating signal to camera task for this ASIC */
 3507              		.loc 1 1141 0
 3508 0104 6B68     		ldr	r3, [r5, #4]
 3509 0106 2146     		mov	r1, r4
 3510 0108 2246     		mov	r2, r4
 3511 010a D868     		ldr	r0, [r3, #12]
 3512 010c 2346     		mov	r3, r4
 3513 010e C047     		blx	r8
 3514              	.LVL400:
1143:/home/tienluong/workspace/atlantis_fw/AsicFwS2/src/lcc_cmd_base_0000.c **** 			{
 3515              		.loc 1 1143 0
 3516 0110 414B     		ldr	r3, .L269+32
 3517 0112 1B68     		ldr	r3, [r3]
 3518 0114 9B69     		ldr	r3, [r3, #24]
 3519 0116 1F42     		tst	r7, r3
 3520 0118 5FD0     		beq	.L256
1145:/home/tienluong/workspace/atlantis_fw/AsicFwS2/src/lcc_cmd_base_0000.c **** 				{
 3521              		.loc 1 1145 0
 3522 011a 95F82930 		ldrb	r3, [r5, #41]	@ zero_extendqisi2
 3523 011e 03F0F003 		and	r3, r3, #240
 3524 0122 A02B     		cmp	r3, #160
 3525 0124 6B68     		ldr	r3, [r5, #4]
 3526 0126 1BD1     		bne	.L257
 3527              	.LBB14:
1147:/home/tienluong/workspace/atlantis_fw/AsicFwS2/src/lcc_cmd_base_0000.c **** 					/* Take semaphore to access settings memory */
 3528              		.loc 1 1147 0
 3529 0128 1F68     		ldr	r7, [r3]
 3530              	.LVL401:
1149:/home/tienluong/workspace/atlantis_fw/AsicFwS2/src/lcc_cmd_base_0000.c **** 					if (vcm->moving == FALSE)
 3531              		.loc 1 1149 0
 3532 012a 2146     		mov	r1, r4
 3533 012c 4FF0FF32 		mov	r2, #-1
 3534 0130 2346     		mov	r3, r4
 3535 0132 F868     		ldr	r0, [r7, #12]
 3536 0134 D047     		blx	r10
 3537              	.LVL402:
1150:/home/tienluong/workspace/atlantis_fw/AsicFwS2/src/lcc_cmd_base_0000.c **** 					{
 3538              		.loc 1 1150 0
 3539 0136 97F818A0 		ldrb	r10, [r7, #24]	@ zero_extendqisi2
 3540 013a BAF1000F 		cmp	r10, #0
 3541 013e 7FF47FAF 		bne	.L258
1153:/home/tienluong/workspace/atlantis_fw/AsicFwS2/src/lcc_cmd_base_0000.c **** 						/* Release semaphore after accessing data */
 3542              		.loc 1 1153 0
 3543 0142 0123     		movs	r3, #1
1155:/home/tienluong/workspace/atlantis_fw/AsicFwS2/src/lcc_cmd_base_0000.c **** 
 3544              		.loc 1 1155 0
 3545 0144 5146     		mov	r1, r10
 3546 0146 5246     		mov	r2, r10
1153:/home/tienluong/workspace/atlantis_fw/AsicFwS2/src/lcc_cmd_base_0000.c **** 						/* Release semaphore after accessing data */
 3547              		.loc 1 1153 0
 3548 0148 3B76     		strb	r3, [r7, #24]
1155:/home/tienluong/workspace/atlantis_fw/AsicFwS2/src/lcc_cmd_base_0000.c **** 
 3549              		.loc 1 1155 0
 3550 014a 5346     		mov	r3, r10
 3551 014c F868     		ldr	r0, [r7, #12]
 3552 014e C047     		blx	r8
 3553              	.LVL403:
1157:/home/tienluong/workspace/atlantis_fw/AsicFwS2/src/lcc_cmd_base_0000.c **** 						xQueueSend(p_cam->queue, &p_cmd, (TickType_t)10);
 3554              		.loc 1 1157 0
 3555 0150 4FF48073 		mov	r3, #256
1158:/home/tienluong/workspace/atlantis_fw/AsicFwS2/src/lcc_cmd_base_0000.c **** 					}
 3556              		.loc 1 1158 0
 3557 0154 686B     		ldr	r0, [r5, #52]
 3558 0156 04A9     		add	r1, sp, #16
1157:/home/tienluong/workspace/atlantis_fw/AsicFwS2/src/lcc_cmd_base_0000.c **** 						xQueueSend(p_cam->queue, &p_cmd, (TickType_t)10);
 3559              		.loc 1 1157 0
 3560 0158 0593     		str	r3, [sp, #20]
1158:/home/tienluong/workspace/atlantis_fw/AsicFwS2/src/lcc_cmd_base_0000.c **** 					}
 3561              		.loc 1 1158 0
 3562 015a 0A22     		movs	r2, #10
 3563 015c 5346     		mov	r3, r10
 3564 015e 30E0     		b	.L266
 3565              	.LVL404:
 3566              	.L257:
 3567              	.LBE14:
 3568              	.LBB15:
1172:/home/tienluong/workspace/atlantis_fw/AsicFwS2/src/lcc_cmd_base_0000.c **** 					/* Take semaphore to access settings memory */
 3569              		.loc 1 1172 0
 3570 0160 D3F800C0 		ldr	ip, [r3]
 3571              	.LVL405:
1174:/home/tienluong/workspace/atlantis_fw/AsicFwS2/src/lcc_cmd_base_0000.c **** 					if (plens->moving == FALSE)
 3572              		.loc 1 1174 0
 3573 0164 2146     		mov	r1, r4
 3574 0166 4FF0FF32 		mov	r2, #-1
 3575 016a 2346     		mov	r3, r4
 3576 016c DCF80C00 		ldr	r0, [ip, #12]
 3577 0170 CDF80CC0 		str	ip, [sp, #12]
 3578 0174 D047     		blx	r10
 3579              	.LVL406:
1175:/home/tienluong/workspace/atlantis_fw/AsicFwS2/src/lcc_cmd_base_0000.c **** 					{
 3580              		.loc 1 1175 0
 3581 0176 DDF80CC0 		ldr	ip, [sp, #12]
 3582 017a 9CF81C70 		ldrb	r7, [ip, #28]	@ zero_extendqisi2
 3583 017e 17BB     		cbnz	r7, .L259
1178:/home/tienluong/workspace/atlantis_fw/AsicFwS2/src/lcc_cmd_base_0000.c **** 						/* Release semaphore after accessing data */
 3584              		.loc 1 1178 0
 3585 0180 0123     		movs	r3, #1
1180:/home/tienluong/workspace/atlantis_fw/AsicFwS2/src/lcc_cmd_base_0000.c **** 						/* Take semaphore to access settings memory */
 3586              		.loc 1 1180 0
 3587 0182 DCF80C00 		ldr	r0, [ip, #12]
 3588 0186 3946     		mov	r1, r7
1178:/home/tienluong/workspace/atlantis_fw/AsicFwS2/src/lcc_cmd_base_0000.c **** 						/* Release semaphore after accessing data */
 3589              		.loc 1 1178 0
 3590 0188 8CF81C30 		strb	r3, [ip, #28]
1180:/home/tienluong/workspace/atlantis_fw/AsicFwS2/src/lcc_cmd_base_0000.c **** 						/* Take semaphore to access settings memory */
 3591              		.loc 1 1180 0
 3592 018c 3A46     		mov	r2, r7
 3593 018e 3B46     		mov	r3, r7
1184:/home/tienluong/workspace/atlantis_fw/AsicFwS2/src/lcc_cmd_base_0000.c **** 						/* Release semaphore after writing data */
 3594              		.loc 1 1184 0
 3595 0190 0224     		movs	r4, #2
1180:/home/tienluong/workspace/atlantis_fw/AsicFwS2/src/lcc_cmd_base_0000.c **** 						/* Take semaphore to access settings memory */
 3596              		.loc 1 1180 0
 3597 0192 C047     		blx	r8
 3598              	.LVL407:
1182:/home/tienluong/workspace/atlantis_fw/AsicFwS2/src/lcc_cmd_base_0000.c **** 			            // FIXME set tolerance from command
 3599              		.loc 1 1182 0
 3600 0194 6B68     		ldr	r3, [r5, #4]
 3601 0196 3946     		mov	r1, r7
 3602 0198 4FF0FF32 		mov	r2, #-1
 3603 019c D868     		ldr	r0, [r3, #12]
 3604 019e 3B46     		mov	r3, r7
 3605 01a0 D047     		blx	r10
 3606              	.LVL408:
1184:/home/tienluong/workspace/atlantis_fw/AsicFwS2/src/lcc_cmd_base_0000.c **** 						/* Release semaphore after writing data */
 3607              		.loc 1 1184 0
 3608 01a2 6B68     		ldr	r3, [r5, #4]
1186:/home/tienluong/workspace/atlantis_fw/AsicFwS2/src/lcc_cmd_base_0000.c **** 						p_cmd.event = OPT_EVENT_LENS_POSITION;
 3609              		.loc 1 1186 0
 3610 01a4 3946     		mov	r1, r7
1184:/home/tienluong/workspace/atlantis_fw/AsicFwS2/src/lcc_cmd_base_0000.c **** 						/* Release semaphore after writing data */
 3611              		.loc 1 1184 0
 3612 01a6 9A68     		ldr	r2, [r3, #8]
 3613 01a8 1481     		strh	r4, [r2, #8]	@ movhi
1186:/home/tienluong/workspace/atlantis_fw/AsicFwS2/src/lcc_cmd_base_0000.c **** 						p_cmd.event = OPT_EVENT_LENS_POSITION;
 3614              		.loc 1 1186 0
 3615 01aa 3A46     		mov	r2, r7
 3616 01ac D868     		ldr	r0, [r3, #12]
 3617 01ae 3B46     		mov	r3, r7
 3618 01b0 C047     		blx	r8
 3619              	.LVL409:
1188:/home/tienluong/workspace/atlantis_fw/AsicFwS2/src/lcc_cmd_base_0000.c **** 					}
 3620              		.loc 1 1188 0
 3621 01b2 DDF80CC0 		ldr	ip, [sp, #12]
 3622 01b6 04A9     		add	r1, sp, #16
 3623 01b8 0A22     		movs	r2, #10
 3624 01ba DCF81000 		ldr	r0, [ip, #16]
 3625 01be 3B46     		mov	r3, r7
1187:/home/tienluong/workspace/atlantis_fw/AsicFwS2/src/lcc_cmd_base_0000.c **** 						xQueueSend(plens->queue, &p_cmd, (TickType_t)10);
 3626              		.loc 1 1187 0
 3627 01c0 0594     		str	r4, [sp, #20]
 3628              	.LVL410:
 3629              	.L266:
1188:/home/tienluong/workspace/atlantis_fw/AsicFwS2/src/lcc_cmd_base_0000.c **** 					}
 3630              		.loc 1 1188 0
 3631 01c2 C047     		blx	r8
 3632              	.LVL411:
 3633 01c4 09E0     		b	.L256
 3634              	.LVL412:
 3635              	.L259:
1193:/home/tienluong/workspace/atlantis_fw/AsicFwS2/src/lcc_cmd_base_0000.c **** 						SLOGF(SLOG_ERROR, "CAM-%X : Lens is moving",
 3636              		.loc 1 1193 0
 3637 01c6 2146     		mov	r1, r4
 3638 01c8 2246     		mov	r2, r4
 3639 01ca DCF80C00 		ldr	r0, [ip, #12]
 3640 01ce 2346     		mov	r3, r4
 3641 01d0 C047     		blx	r8
 3642              	.LVL413:
1194:/home/tienluong/workspace/atlantis_fw/AsicFwS2/src/lcc_cmd_base_0000.c **** 								p_cam->info.module);
 3643              		.loc 1 1194 0
 3644 01d2 2120     		movs	r0, #33
 3645 01d4 0221     		movs	r1, #2
 3646 01d6 114A     		ldr	r2, .L269+36
 3647 01d8 3AE7     		b	.L267
 3648              	.LVL414:
 3649              	.L256:
 3650              	.LBE15:
 3651              		.loc 1 1203 0
 3652 01da F37C     		ldrb	r3, [r6, #19]	@ zero_extendqisi2
 3653 01dc 13F0020F 		tst	r3, #2
 3654 01e0 029B     		ldr	r3, [sp, #8]
 3655 01e2 14BF     		ite	ne
 3656 01e4 0024     		movne	r4, #0
 3657 01e6 0224     		moveq	r4, #2
 3658 01e8 1C44     		add	r4, r4, r3
 3659 01ea E3B2     		uxtb	r3, r4
 3660 01ec 0293     		str	r3, [sp, #8]
 3661              	.LVL415:
 3662 01ee 59E7     		b	.L255
 3663              	.LVL416:
 3664              	.L248:
1204:/home/tienluong/workspace/atlantis_fw/AsicFwS2/src/lcc_cmd_base_0000.c **** 		}
1205:/home/tienluong/workspace/atlantis_fw/AsicFwS2/src/lcc_cmd_base_0000.c **** 	}
1206:/home/tienluong/workspace/atlantis_fw/AsicFwS2/src/lcc_cmd_base_0000.c **** 	/* The command status will be updated in either lcc_cmd task
1207:/home/tienluong/workspace/atlantis_fw/AsicFwS2/src/lcc_cmd_base_0000.c **** 	 * (read command) or task_cam_ctrl (write command) */
1208:/home/tienluong/workspace/atlantis_fw/AsicFwS2/src/lcc_cmd_base_0000.c **** }
 3665              		.loc 1 1208 0
 3666 01f0 07B0     		add	sp, sp, #28
 3667              	.LCFI32:
 3668              		.cfi_def_cfa_offset 36
 3669              		@ sp needed
 3670 01f2 BDE8F08F 		pop	{r4, r5, r6, r7, r8, r9, r10, fp, pc}
 3671              	.LVL417:
 3672              	.L270:
 3673 01f6 00BF     		.align	2
 3674              	.L269:
 3675 01f8 00000000 		.word	.LANCHOR15
 3676 01fc 00000000 		.word	pvPortMalloc1
 3677 0200 00000000 		.word	.LC0
 3678 0204 50010000 		.word	.LC15
 3679 0208 00000000 		.word	slogf
 3680 020c 00000000 		.word	xQueueGenericSend
 3681 0210 00000000 		.word	memcpy
 3682 0214 00000000 		.word	idx_to_object
 3683 0218 00000000 		.word	light_system
 3684 021c 67010000 		.word	.LC16
 3685 0220 00000000 		.word	xQueueGenericReceive
 3686              		.cfi_endproc
 3687              	.LFE16:
 3689              		.section	.text.cmd_cam_module_mirror_position,"ax",%progbits
 3690              		.align	1
 3691              		.global	cmd_cam_module_mirror_position
 3692              		.thumb
 3693              		.thumb_func
 3695              	cmd_cam_module_mirror_position:
 3696              	.LFB17:
1209:/home/tienluong/workspace/atlantis_fw/AsicFwS2/src/lcc_cmd_base_0000.c **** 
1210:/home/tienluong/workspace/atlantis_fw/AsicFwS2/src/lcc_cmd_base_0000.c **** /**
1211:/home/tienluong/workspace/atlantis_fw/AsicFwS2/src/lcc_cmd_base_0000.c ****  * cmd_cam_module_mirror_position
1212:/home/tienluong/workspace/atlantis_fw/AsicFwS2/src/lcc_cmd_base_0000.c ****  *
1213:/home/tienluong/workspace/atlantis_fw/AsicFwS2/src/lcc_cmd_base_0000.c ****  */
1214:/home/tienluong/workspace/atlantis_fw/AsicFwS2/src/lcc_cmd_base_0000.c **** void cmd_cam_module_mirror_position(lcc_cmd_t *in, lcc_cmd_t *out)
1215:/home/tienluong/workspace/atlantis_fw/AsicFwS2/src/lcc_cmd_base_0000.c **** {
 3697              		.loc 1 1215 0
 3698              		.cfi_startproc
 3699              		@ args = 0, pretend = 0, frame = 16
 3700              		@ frame_needed = 0, uses_anonymous_args = 0
 3701              	.LVL418:
 3702 0000 2DE9F04F 		push	{r4, r5, r6, r7, r8, r9, r10, fp, lr}
 3703              	.LCFI33:
 3704              		.cfi_def_cfa_offset 36
 3705              		.cfi_offset 4, -36
 3706              		.cfi_offset 5, -32
 3707              		.cfi_offset 6, -28
 3708              		.cfi_offset 7, -24
 3709              		.cfi_offset 8, -20
 3710              		.cfi_offset 9, -16
 3711              		.cfi_offset 10, -12
 3712              		.cfi_offset 11, -8
 3713              		.cfi_offset 14, -4
 3714 0004 85B0     		sub	sp, sp, #20
 3715              	.LCFI34:
 3716              		.cfi_def_cfa_offset 56
1216:/home/tienluong/workspace/atlantis_fw/AsicFwS2/src/lcc_cmd_base_0000.c **** 	lcc_cmd_tid_t p_cmd;
1217:/home/tienluong/workspace/atlantis_fw/AsicFwS2/src/lcc_cmd_base_0000.c **** 	cam_typedef_t *p_cam;
1218:/home/tienluong/workspace/atlantis_fw/AsicFwS2/src/lcc_cmd_base_0000.c **** 	lcc_cmd_info_t cmd = (lcc_cmd_info_t)(LCC_CMD_CAM_MODULE_MIRROR_POSITION);
1219:/home/tienluong/workspace/atlantis_fw/AsicFwS2/src/lcc_cmd_base_0000.c **** 	uint32_t m_bitmask = in->m_bitmask;
 3717              		.loc 1 1219 0
 3718 0006 0368     		ldr	r3, [r0]
1215:/home/tienluong/workspace/atlantis_fw/AsicFwS2/src/lcc_cmd_base_0000.c **** 	lcc_cmd_tid_t p_cmd;
 3719              		.loc 1 1215 0
 3720 0008 0546     		mov	r5, r0
 3721              		.loc 1 1219 0
 3722 000a 0093     		str	r3, [sp]
 3723              	.LVL419:
1220:/home/tienluong/workspace/atlantis_fw/AsicFwS2/src/lcc_cmd_base_0000.c **** 	uint8_t i, cam_idx, data_cnt = 0;
1221:/home/tienluong/workspace/atlantis_fw/AsicFwS2/src/lcc_cmd_base_0000.c **** 
1222:/home/tienluong/workspace/atlantis_fw/AsicFwS2/src/lcc_cmd_base_0000.c **** 	if (CMD_READ == in->action)
 3724              		.loc 1 1222 0
 3725 000c C37C     		ldrb	r3, [r0, #19]	@ zero_extendqisi2
 3726              	.LVL420:
 3727 000e DB07     		lsls	r3, r3, #31
1215:/home/tienluong/workspace/atlantis_fw/AsicFwS2/src/lcc_cmd_base_0000.c **** 	lcc_cmd_tid_t p_cmd;
 3728              		.loc 1 1215 0
 3729 0010 8846     		mov	r8, r1
 3730              		.loc 1 1222 0
 3731 0012 03D4     		bmi	.L272
 3732              	.LVL421:
 3733              	.L274:
1215:/home/tienluong/workspace/atlantis_fw/AsicFwS2/src/lcc_cmd_base_0000.c **** 	lcc_cmd_tid_t p_cmd;
 3734              		.loc 1 1215 0
 3735 0014 4FF00009 		mov	r9, #0
 3736 0018 CB46     		mov	fp, r9
 3737 001a 43E0     		b	.L273
 3738              	.LVL422:
 3739              	.L272:
1223:/home/tienluong/workspace/atlantis_fw/AsicFwS2/src/lcc_cmd_base_0000.c **** 	{
1224:/home/tienluong/workspace/atlantis_fw/AsicFwS2/src/lcc_cmd_base_0000.c **** 		out->data = pvPortMalloc(in->m_number * cmd.size);
 3740              		.loc 1 1224 0
 3741 001c 807C     		ldrb	r0, [r0, #18]	@ zero_extendqisi2
 3742              	.LVL423:
 3743 001e 6249     		ldr	r1, .L295
 3744              	.LVL424:
 3745 0020 4000     		lsls	r0, r0, #1
 3746 0022 4FF49962 		mov	r2, #1224
 3747 0026 614B     		ldr	r3, .L295+4
 3748 0028 9847     		blx	r3
 3749              	.LVL425:
 3750 002a 0446     		mov	r4, r0
 3751 002c C8F80400 		str	r0, [r8, #4]
1225:/home/tienluong/workspace/atlantis_fw/AsicFwS2/src/lcc_cmd_base_0000.c **** 		if (NULL == out->data)
 3752              		.loc 1 1225 0
 3753 0030 0028     		cmp	r0, #0
 3754 0032 EFD1     		bne	.L274
1226:/home/tienluong/workspace/atlantis_fw/AsicFwS2/src/lcc_cmd_base_0000.c **** 		{
1227:/home/tienluong/workspace/atlantis_fw/AsicFwS2/src/lcc_cmd_base_0000.c **** 			SLOGF(SLOG_ERROR, "%s: Lack of memory", __FUNCTION__);
 3755              		.loc 1 1227 0
 3756 0034 2120     		movs	r0, #33
 3757 0036 0221     		movs	r1, #2
 3758 0038 5D4A     		ldr	r2, .L295+8
 3759 003a 5B4B     		ldr	r3, .L295
 3760 003c 09E0     		b	.L294
 3761              	.LVL426:
 3762              	.L281:
 3763              	.LBB16:
1228:/home/tienluong/workspace/atlantis_fw/AsicFwS2/src/lcc_cmd_base_0000.c **** 			in->status = LCC_CMD_UNSUCCESS;
1229:/home/tienluong/workspace/atlantis_fw/AsicFwS2/src/lcc_cmd_base_0000.c **** 			return;
1230:/home/tienluong/workspace/atlantis_fw/AsicFwS2/src/lcc_cmd_base_0000.c **** 		}
1231:/home/tienluong/workspace/atlantis_fw/AsicFwS2/src/lcc_cmd_base_0000.c **** 	}
1232:/home/tienluong/workspace/atlantis_fw/AsicFwS2/src/lcc_cmd_base_0000.c **** 
1233:/home/tienluong/workspace/atlantis_fw/AsicFwS2/src/lcc_cmd_base_0000.c **** 	/* Scan camera bitmask */
1234:/home/tienluong/workspace/atlantis_fw/AsicFwS2/src/lcc_cmd_base_0000.c **** 	for (i = 0; i < in->m_number; i++)
1235:/home/tienluong/workspace/atlantis_fw/AsicFwS2/src/lcc_cmd_base_0000.c **** 	{
1236:/home/tienluong/workspace/atlantis_fw/AsicFwS2/src/lcc_cmd_base_0000.c **** 		cam_idx = __builtin_ctz(m_bitmask);
1237:/home/tienluong/workspace/atlantis_fw/AsicFwS2/src/lcc_cmd_base_0000.c **** 		m_bitmask &= ~(1 << cam_idx);
1238:/home/tienluong/workspace/atlantis_fw/AsicFwS2/src/lcc_cmd_base_0000.c **** 		/* Get camera object from camera object list */
1239:/home/tienluong/workspace/atlantis_fw/AsicFwS2/src/lcc_cmd_base_0000.c **** 		p_cam = idx_to_object(cam_idx);
1240:/home/tienluong/workspace/atlantis_fw/AsicFwS2/src/lcc_cmd_base_0000.c **** 		if (NULL == p_cam)	/*Verify object is valid */
1241:/home/tienluong/workspace/atlantis_fw/AsicFwS2/src/lcc_cmd_base_0000.c **** 		{
1242:/home/tienluong/workspace/atlantis_fw/AsicFwS2/src/lcc_cmd_base_0000.c **** 			in->status = LCC_CMD_INVALID_ARG;
1243:/home/tienluong/workspace/atlantis_fw/AsicFwS2/src/lcc_cmd_base_0000.c **** 			return;
1244:/home/tienluong/workspace/atlantis_fw/AsicFwS2/src/lcc_cmd_base_0000.c **** 		}
1245:/home/tienluong/workspace/atlantis_fw/AsicFwS2/src/lcc_cmd_base_0000.c **** 
1246:/home/tienluong/workspace/atlantis_fw/AsicFwS2/src/lcc_cmd_base_0000.c **** 		/* Read command processing */
1247:/home/tienluong/workspace/atlantis_fw/AsicFwS2/src/lcc_cmd_base_0000.c **** 		if (CMD_READ == in->action)
1248:/home/tienluong/workspace/atlantis_fw/AsicFwS2/src/lcc_cmd_base_0000.c **** 		{
1249:/home/tienluong/workspace/atlantis_fw/AsicFwS2/src/lcc_cmd_base_0000.c **** 			/* Take semaphore to access settings memory */
1250:/home/tienluong/workspace/atlantis_fw/AsicFwS2/src/lcc_cmd_base_0000.c **** 			xSemaphoreTake(p_cam->optical->semaphore, portMAX_DELAY);
1251:/home/tienluong/workspace/atlantis_fw/AsicFwS2/src/lcc_cmd_base_0000.c **** 			memcpy(&out->data[out->len],
1252:/home/tienluong/workspace/atlantis_fw/AsicFwS2/src/lcc_cmd_base_0000.c **** 					p_cam->optical->settings->mirr_position, cmd.size);
1253:/home/tienluong/workspace/atlantis_fw/AsicFwS2/src/lcc_cmd_base_0000.c **** 			/* Release semaphore after reading data */
1254:/home/tienluong/workspace/atlantis_fw/AsicFwS2/src/lcc_cmd_base_0000.c **** 			xSemaphoreGive(p_cam->optical->semaphore);
1255:/home/tienluong/workspace/atlantis_fw/AsicFwS2/src/lcc_cmd_base_0000.c **** 			out->len += cmd.size;
1256:/home/tienluong/workspace/atlantis_fw/AsicFwS2/src/lcc_cmd_base_0000.c **** 		}
1257:/home/tienluong/workspace/atlantis_fw/AsicFwS2/src/lcc_cmd_base_0000.c **** 		/* Write command processing */
1258:/home/tienluong/workspace/atlantis_fw/AsicFwS2/src/lcc_cmd_base_0000.c **** 		else
1259:/home/tienluong/workspace/atlantis_fw/AsicFwS2/src/lcc_cmd_base_0000.c **** 		{
1260:/home/tienluong/workspace/atlantis_fw/AsicFwS2/src/lcc_cmd_base_0000.c **** 			p_cmd.cmd_tid = in->tid;
1261:/home/tienluong/workspace/atlantis_fw/AsicFwS2/src/lcc_cmd_base_0000.c **** 			p_cmd.event = OPT_EVENT_MIRROR_POSITION;
1262:/home/tienluong/workspace/atlantis_fw/AsicFwS2/src/lcc_cmd_base_0000.c **** 			/* Raise a updating signal to camera task for this ASIC */
1263:/home/tienluong/workspace/atlantis_fw/AsicFwS2/src/lcc_cmd_base_0000.c **** 			if ((p_cam->info.grp != GRP_A) &&
1264:/home/tienluong/workspace/atlantis_fw/AsicFwS2/src/lcc_cmd_base_0000.c **** 				(p_cam->info.module != CAM_B4) &&
1265:/home/tienluong/workspace/atlantis_fw/AsicFwS2/src/lcc_cmd_base_0000.c **** 				(p_cam->info.module != CAM_C5) &&
1266:/home/tienluong/workspace/atlantis_fw/AsicFwS2/src/lcc_cmd_base_0000.c **** 				(p_cam->info.module != CAM_C6))
1267:/home/tienluong/workspace/atlantis_fw/AsicFwS2/src/lcc_cmd_base_0000.c **** 			{
1268:/home/tienluong/workspace/atlantis_fw/AsicFwS2/src/lcc_cmd_base_0000.c **** 				/* Take semaphore to access settings memory */
1269:/home/tienluong/workspace/atlantis_fw/AsicFwS2/src/lcc_cmd_base_0000.c **** 				xSemaphoreTake(p_cam->optical->semaphore, portMAX_DELAY);
1270:/home/tienluong/workspace/atlantis_fw/AsicFwS2/src/lcc_cmd_base_0000.c **** 				memcpy(p_cam->optical->settings->mirr_position,
1271:/home/tienluong/workspace/atlantis_fw/AsicFwS2/src/lcc_cmd_base_0000.c **** 					&in->data[data_cnt], cmd.size);
1272:/home/tienluong/workspace/atlantis_fw/AsicFwS2/src/lcc_cmd_base_0000.c **** 				/* Release semaphore after writing data */
1273:/home/tienluong/workspace/atlantis_fw/AsicFwS2/src/lcc_cmd_base_0000.c **** 				xSemaphoreGive(p_cam->optical->semaphore);
1274:/home/tienluong/workspace/atlantis_fw/AsicFwS2/src/lcc_cmd_base_0000.c **** 				if(light_system->m_filter & (1 << cam_idx))
1275:/home/tienluong/workspace/atlantis_fw/AsicFwS2/src/lcc_cmd_base_0000.c **** 				{
1276:/home/tienluong/workspace/atlantis_fw/AsicFwS2/src/lcc_cmd_base_0000.c **** 					actuator_t *pmirr = (actuator_t *)p_cam->optical->mirr;
1277:/home/tienluong/workspace/atlantis_fw/AsicFwS2/src/lcc_cmd_base_0000.c **** 					/* Take semaphore to access settings memory */
1278:/home/tienluong/workspace/atlantis_fw/AsicFwS2/src/lcc_cmd_base_0000.c **** 					xSemaphoreTake(pmirr->semaphore, portMAX_DELAY);
1279:/home/tienluong/workspace/atlantis_fw/AsicFwS2/src/lcc_cmd_base_0000.c **** 					if (pmirr->moving == FALSE)
1280:/home/tienluong/workspace/atlantis_fw/AsicFwS2/src/lcc_cmd_base_0000.c **** 					{
1281:/home/tienluong/workspace/atlantis_fw/AsicFwS2/src/lcc_cmd_base_0000.c **** 						/* set moving status */
1282:/home/tienluong/workspace/atlantis_fw/AsicFwS2/src/lcc_cmd_base_0000.c **** 						pmirr->moving = TRUE;
1283:/home/tienluong/workspace/atlantis_fw/AsicFwS2/src/lcc_cmd_base_0000.c **** 						/* Release semaphore after accessing data */
1284:/home/tienluong/workspace/atlantis_fw/AsicFwS2/src/lcc_cmd_base_0000.c **** 						xSemaphoreGive(pmirr->semaphore);
1285:/home/tienluong/workspace/atlantis_fw/AsicFwS2/src/lcc_cmd_base_0000.c **** 						xQueueSend(pmirr->queue, &p_cmd, (TickType_t)10);
1286:/home/tienluong/workspace/atlantis_fw/AsicFwS2/src/lcc_cmd_base_0000.c **** 					}
1287:/home/tienluong/workspace/atlantis_fw/AsicFwS2/src/lcc_cmd_base_0000.c **** 					else
1288:/home/tienluong/workspace/atlantis_fw/AsicFwS2/src/lcc_cmd_base_0000.c **** 					{
1289:/home/tienluong/workspace/atlantis_fw/AsicFwS2/src/lcc_cmd_base_0000.c **** 						/* Release semaphore after accessing data */
1290:/home/tienluong/workspace/atlantis_fw/AsicFwS2/src/lcc_cmd_base_0000.c **** 						xSemaphoreGive(pmirr->semaphore);
 3764              		.loc 1 1290 0
 3765 003e 2146     		mov	r1, r4
 3766 0040 2246     		mov	r2, r4
 3767 0042 2346     		mov	r3, r4
 3768 0044 F868     		ldr	r0, [r7, #12]
 3769 0046 D047     		blx	r10
 3770              	.LVL427:
1291:/home/tienluong/workspace/atlantis_fw/AsicFwS2/src/lcc_cmd_base_0000.c **** 						SLOGF(SLOG_ERROR, "CAM-%X : Mirror is moving",
 3771              		.loc 1 1291 0
 3772 0048 5A4A     		ldr	r2, .L295+12
 3773 004a 2120     		movs	r0, #33
 3774 004c 96F82930 		ldrb	r3, [r6, #41]	@ zero_extendqisi2
 3775 0050 0221     		movs	r1, #2
 3776              	.LVL428:
 3777              	.L294:
 3778 0052 594E     		ldr	r6, .L295+16
 3779 0054 B047     		blx	r6
 3780              	.LVL429:
1292:/home/tienluong/workspace/atlantis_fw/AsicFwS2/src/lcc_cmd_base_0000.c **** 								p_cam->info.module);
1293:/home/tienluong/workspace/atlantis_fw/AsicFwS2/src/lcc_cmd_base_0000.c **** 						in->status = LCC_CMD_UNSUCCESS;
 3781              		.loc 1 1293 0
 3782 0056 2C82     		strh	r4, [r5, #16]	@ movhi
1294:/home/tienluong/workspace/atlantis_fw/AsicFwS2/src/lcc_cmd_base_0000.c **** 						return;
 3783              		.loc 1 1294 0
 3784 0058 A2E0     		b	.L271
 3785              	.LVL430:
 3786              	.L276:
 3787              	.LBE16:
1247:/home/tienluong/workspace/atlantis_fw/AsicFwS2/src/lcc_cmd_base_0000.c **** 		{
 3788              		.loc 1 1247 0
 3789 005a EC7C     		ldrb	r4, [r5, #19]	@ zero_extendqisi2
 3790 005c 14F00104 		ands	r4, r4, #1
 3791 0060 39D0     		beq	.L277
1250:/home/tienluong/workspace/atlantis_fw/AsicFwS2/src/lcc_cmd_base_0000.c **** 			memcpy(&out->data[out->len],
 3792              		.loc 1 1250 0
 3793 0062 4368     		ldr	r3, [r0, #4]
 3794 0064 0021     		movs	r1, #0
 3795 0066 4FF0FF32 		mov	r2, #-1
 3796 006a 544C     		ldr	r4, .L295+20
 3797 006c D868     		ldr	r0, [r3, #12]
 3798              	.LVL431:
 3799 006e 0B46     		mov	r3, r1
 3800 0070 A047     		blx	r4
 3801              	.LVL432:
1252:/home/tienluong/workspace/atlantis_fw/AsicFwS2/src/lcc_cmd_base_0000.c **** 			/* Release semaphore after reading data */
 3802              		.loc 1 1252 0
 3803 0072 7268     		ldr	r2, [r6, #4]
1251:/home/tienluong/workspace/atlantis_fw/AsicFwS2/src/lcc_cmd_base_0000.c **** 					p_cam->optical->settings->mirr_position, cmd.size);
 3804              		.loc 1 1251 0
 3805 0074 D8F80400 		ldr	r0, [r8, #4]
 3806 0078 B8F80830 		ldrh	r3, [r8, #8]
1254:/home/tienluong/workspace/atlantis_fw/AsicFwS2/src/lcc_cmd_base_0000.c **** 			out->len += cmd.size;
 3807              		.loc 1 1254 0
 3808 007c 504C     		ldr	r4, .L295+24
1251:/home/tienluong/workspace/atlantis_fw/AsicFwS2/src/lcc_cmd_base_0000.c **** 					p_cam->optical->settings->mirr_position, cmd.size);
 3809              		.loc 1 1251 0
 3810 007e 9168     		ldr	r1, [r2, #8]
 3811 0080 1844     		add	r0, r0, r3
 3812 0082 0222     		movs	r2, #2
 3813 0084 0A31     		adds	r1, r1, #10
 3814 0086 4F4B     		ldr	r3, .L295+28
 3815 0088 9847     		blx	r3
 3816              	.LVL433:
1254:/home/tienluong/workspace/atlantis_fw/AsicFwS2/src/lcc_cmd_base_0000.c **** 			out->len += cmd.size;
 3817              		.loc 1 1254 0
 3818 008a 7368     		ldr	r3, [r6, #4]
 3819 008c 0021     		movs	r1, #0
 3820 008e 0A46     		mov	r2, r1
 3821 0090 D868     		ldr	r0, [r3, #12]
 3822 0092 0B46     		mov	r3, r1
 3823 0094 A047     		blx	r4
 3824              	.LVL434:
1255:/home/tienluong/workspace/atlantis_fw/AsicFwS2/src/lcc_cmd_base_0000.c **** 		}
 3825              		.loc 1 1255 0
 3826 0096 B8F80830 		ldrh	r3, [r8, #8]
 3827 009a 0233     		adds	r3, r3, #2
 3828 009c A8F80830 		strh	r3, [r8, #8]	@ movhi
 3829              	.L278:
 3830              	.LVL435:
 3831 00a0 09F10109 		add	r9, r9, #1
 3832              	.LVL436:
 3833              	.L273:
1234:/home/tienluong/workspace/atlantis_fw/AsicFwS2/src/lcc_cmd_base_0000.c **** 	{
 3834              		.loc 1 1234 0 discriminator 1
 3835 00a4 5FFA89F3 		uxtb	r3, r9
 3836 00a8 AA7C     		ldrb	r2, [r5, #18]	@ zero_extendqisi2
 3837 00aa 9A42     		cmp	r2, r3
 3838 00ac 78D9     		bls	.L271
1236:/home/tienluong/workspace/atlantis_fw/AsicFwS2/src/lcc_cmd_base_0000.c **** 		m_bitmask &= ~(1 << cam_idx);
 3839              		.loc 1 1236 0
 3840 00ae 009B     		ldr	r3, [sp]
 3841 00b0 93FAA3F0 		rbit	r0, r3
1237:/home/tienluong/workspace/atlantis_fw/AsicFwS2/src/lcc_cmd_base_0000.c **** 		/* Get camera object from camera object list */
 3842              		.loc 1 1237 0
 3843 00b4 0123     		movs	r3, #1
1236:/home/tienluong/workspace/atlantis_fw/AsicFwS2/src/lcc_cmd_base_0000.c **** 		m_bitmask &= ~(1 << cam_idx);
 3844              		.loc 1 1236 0
 3845 00b6 B0FA80F0 		clz	r0, r0
 3846              	.LVL437:
1237:/home/tienluong/workspace/atlantis_fw/AsicFwS2/src/lcc_cmd_base_0000.c **** 		/* Get camera object from camera object list */
 3847              		.loc 1 1237 0
 3848 00ba 03FA00F7 		lsl	r7, r3, r0
 3849 00be 009B     		ldr	r3, [sp]
 3850 00c0 23EA0703 		bic	r3, r3, r7
 3851 00c4 0093     		str	r3, [sp]
 3852              	.LVL438:
1239:/home/tienluong/workspace/atlantis_fw/AsicFwS2/src/lcc_cmd_base_0000.c **** 		if (NULL == p_cam)	/*Verify object is valid */
 3853              		.loc 1 1239 0
 3854 00c6 404B     		ldr	r3, .L295+32
 3855              	.LVL439:
 3856 00c8 9847     		blx	r3
 3857              	.LVL440:
1240:/home/tienluong/workspace/atlantis_fw/AsicFwS2/src/lcc_cmd_base_0000.c **** 		{
 3858              		.loc 1 1240 0
 3859 00ca 0646     		mov	r6, r0
 3860 00cc 0028     		cmp	r0, #0
 3861 00ce C4D1     		bne	.L276
1242:/home/tienluong/workspace/atlantis_fw/AsicFwS2/src/lcc_cmd_base_0000.c **** 			return;
 3862              		.loc 1 1242 0
 3863 00d0 0423     		movs	r3, #4
 3864 00d2 2B82     		strh	r3, [r5, #16]	@ movhi
1243:/home/tienluong/workspace/atlantis_fw/AsicFwS2/src/lcc_cmd_base_0000.c **** 		}
 3865              		.loc 1 1243 0
 3866 00d4 64E0     		b	.L271
 3867              	.L277:
1260:/home/tienluong/workspace/atlantis_fw/AsicFwS2/src/lcc_cmd_base_0000.c **** 			p_cmd.event = OPT_EVENT_MIRROR_POSITION;
 3868              		.loc 1 1260 0
 3869 00d6 6B89     		ldrh	r3, [r5, #10]
 3870 00d8 ADF80830 		strh	r3, [sp, #8]	@ movhi
1261:/home/tienluong/workspace/atlantis_fw/AsicFwS2/src/lcc_cmd_base_0000.c **** 			/* Raise a updating signal to camera task for this ASIC */
 3871              		.loc 1 1261 0
 3872 00dc 0423     		movs	r3, #4
 3873 00de 0393     		str	r3, [sp, #12]
1263:/home/tienluong/workspace/atlantis_fw/AsicFwS2/src/lcc_cmd_base_0000.c **** 				(p_cam->info.module != CAM_B4) &&
 3874              		.loc 1 1263 0
 3875 00e0 90F82930 		ldrb	r3, [r0, #41]	@ zero_extendqisi2
 3876 00e4 03F0F002 		and	r2, r3, #240
 3877 00e8 A02A     		cmp	r2, #160
 3878 00ea 46D0     		beq	.L279
1263:/home/tienluong/workspace/atlantis_fw/AsicFwS2/src/lcc_cmd_base_0000.c **** 				(p_cam->info.module != CAM_B4) &&
 3879              		.loc 1 1263 0 is_stmt 0 discriminator 1
 3880 00ec B42B     		cmp	r3, #180
 3881 00ee 44D0     		beq	.L279
1264:/home/tienluong/workspace/atlantis_fw/AsicFwS2/src/lcc_cmd_base_0000.c **** 				(p_cam->info.module != CAM_C5) &&
 3882              		.loc 1 1264 0 is_stmt 1
 3883 00f0 3B33     		adds	r3, r3, #59
 3884 00f2 DBB2     		uxtb	r3, r3
 3885 00f4 012B     		cmp	r3, #1
 3886 00f6 40D9     		bls	.L279
1269:/home/tienluong/workspace/atlantis_fw/AsicFwS2/src/lcc_cmd_base_0000.c **** 				memcpy(p_cam->optical->settings->mirr_position,
 3887              		.loc 1 1269 0
 3888 00f8 4368     		ldr	r3, [r0, #4]
 3889 00fa 2146     		mov	r1, r4
 3890 00fc DFF8BCC0 		ldr	ip, .L295+20
 3891 0100 4FF0FF32 		mov	r2, #-1
 3892 0104 CDF804C0 		str	ip, [sp, #4]
 3893 0108 D868     		ldr	r0, [r3, #12]
 3894              	.LVL441:
 3895 010a 2346     		mov	r3, r4
 3896 010c E047     		blx	ip
 3897              	.LVL442:
1270:/home/tienluong/workspace/atlantis_fw/AsicFwS2/src/lcc_cmd_base_0000.c **** 					&in->data[data_cnt], cmd.size);
 3898              		.loc 1 1270 0
 3899 010e 7368     		ldr	r3, [r6, #4]
1271:/home/tienluong/workspace/atlantis_fw/AsicFwS2/src/lcc_cmd_base_0000.c **** 				/* Release semaphore after writing data */
 3900              		.loc 1 1271 0
 3901 0110 6968     		ldr	r1, [r5, #4]
1270:/home/tienluong/workspace/atlantis_fw/AsicFwS2/src/lcc_cmd_base_0000.c **** 					&in->data[data_cnt], cmd.size);
 3902              		.loc 1 1270 0
 3903 0112 0222     		movs	r2, #2
1273:/home/tienluong/workspace/atlantis_fw/AsicFwS2/src/lcc_cmd_base_0000.c **** 				if(light_system->m_filter & (1 << cam_idx))
 3904              		.loc 1 1273 0
 3905 0114 DFF8A8A0 		ldr	r10, .L295+24
1270:/home/tienluong/workspace/atlantis_fw/AsicFwS2/src/lcc_cmd_base_0000.c **** 					&in->data[data_cnt], cmd.size);
 3906              		.loc 1 1270 0
 3907 0118 9868     		ldr	r0, [r3, #8]
 3908 011a 5944     		add	r1, r1, fp
 3909 011c 294B     		ldr	r3, .L295+28
 3910 011e 0A30     		adds	r0, r0, #10
 3911 0120 9847     		blx	r3
 3912              	.LVL443:
1273:/home/tienluong/workspace/atlantis_fw/AsicFwS2/src/lcc_cmd_base_0000.c **** 				if(light_system->m_filter & (1 << cam_idx))
 3913              		.loc 1 1273 0
 3914 0122 7368     		ldr	r3, [r6, #4]
 3915 0124 2146     		mov	r1, r4
 3916 0126 2246     		mov	r2, r4
 3917 0128 D868     		ldr	r0, [r3, #12]
 3918 012a 2346     		mov	r3, r4
 3919 012c D047     		blx	r10
 3920              	.LVL444:
1274:/home/tienluong/workspace/atlantis_fw/AsicFwS2/src/lcc_cmd_base_0000.c **** 				{
 3921              		.loc 1 1274 0
 3922 012e 274B     		ldr	r3, .L295+36
 3923 0130 DDF804C0 		ldr	ip, [sp, #4]
 3924 0134 1B68     		ldr	r3, [r3]
 3925 0136 9B69     		ldr	r3, [r3, #24]
 3926 0138 1F42     		tst	r7, r3
 3927 013a 27D0     		beq	.L280
 3928              	.LBB17:
1276:/home/tienluong/workspace/atlantis_fw/AsicFwS2/src/lcc_cmd_base_0000.c **** 					/* Take semaphore to access settings memory */
 3929              		.loc 1 1276 0
 3930 013c 7368     		ldr	r3, [r6, #4]
1278:/home/tienluong/workspace/atlantis_fw/AsicFwS2/src/lcc_cmd_base_0000.c **** 					if (pmirr->moving == FALSE)
 3931              		.loc 1 1278 0
 3932 013e 2146     		mov	r1, r4
 3933 0140 4FF0FF32 		mov	r2, #-1
1276:/home/tienluong/workspace/atlantis_fw/AsicFwS2/src/lcc_cmd_base_0000.c **** 					/* Take semaphore to access settings memory */
 3934              		.loc 1 1276 0
 3935 0144 5F68     		ldr	r7, [r3, #4]
 3936              	.LVL445:
1278:/home/tienluong/workspace/atlantis_fw/AsicFwS2/src/lcc_cmd_base_0000.c **** 					if (pmirr->moving == FALSE)
 3937              		.loc 1 1278 0
 3938 0146 2346     		mov	r3, r4
 3939 0148 F868     		ldr	r0, [r7, #12]
 3940 014a E047     		blx	ip
 3941              	.LVL446:
1279:/home/tienluong/workspace/atlantis_fw/AsicFwS2/src/lcc_cmd_base_0000.c **** 					{
 3942              		.loc 1 1279 0
 3943 014c 97F81CC0 		ldrb	ip, [r7, #28]	@ zero_extendqisi2
 3944 0150 BCF1000F 		cmp	ip, #0
 3945 0154 7FF473AF 		bne	.L281
1282:/home/tienluong/workspace/atlantis_fw/AsicFwS2/src/lcc_cmd_base_0000.c **** 						/* Release semaphore after accessing data */
 3946              		.loc 1 1282 0
 3947 0158 0123     		movs	r3, #1
1284:/home/tienluong/workspace/atlantis_fw/AsicFwS2/src/lcc_cmd_base_0000.c **** 						xQueueSend(pmirr->queue, &p_cmd, (TickType_t)10);
 3948              		.loc 1 1284 0
 3949 015a 6146     		mov	r1, ip
 3950 015c 6246     		mov	r2, ip
1282:/home/tienluong/workspace/atlantis_fw/AsicFwS2/src/lcc_cmd_base_0000.c **** 						/* Release semaphore after accessing data */
 3951              		.loc 1 1282 0
 3952 015e 3B77     		strb	r3, [r7, #28]
1284:/home/tienluong/workspace/atlantis_fw/AsicFwS2/src/lcc_cmd_base_0000.c **** 						xQueueSend(pmirr->queue, &p_cmd, (TickType_t)10);
 3953              		.loc 1 1284 0
 3954 0160 6346     		mov	r3, ip
 3955 0162 F868     		ldr	r0, [r7, #12]
 3956 0164 CDF804C0 		str	ip, [sp, #4]
 3957 0168 D047     		blx	r10
 3958              	.LVL447:
1285:/home/tienluong/workspace/atlantis_fw/AsicFwS2/src/lcc_cmd_base_0000.c **** 					}
 3959              		.loc 1 1285 0
 3960 016a DDF804C0 		ldr	ip, [sp, #4]
 3961 016e 02A9     		add	r1, sp, #8
 3962 0170 3869     		ldr	r0, [r7, #16]
 3963 0172 0A22     		movs	r2, #10
 3964 0174 6346     		mov	r3, ip
 3965 0176 D047     		blx	r10
 3966              	.LVL448:
 3967 0178 08E0     		b	.L280
 3968              	.LVL449:
 3969              	.L279:
 3970              	.LBE17:
1295:/home/tienluong/workspace/atlantis_fw/AsicFwS2/src/lcc_cmd_base_0000.c **** 					}
1296:/home/tienluong/workspace/atlantis_fw/AsicFwS2/src/lcc_cmd_base_0000.c **** 				}
1297:/home/tienluong/workspace/atlantis_fw/AsicFwS2/src/lcc_cmd_base_0000.c **** 			}
1298:/home/tienluong/workspace/atlantis_fw/AsicFwS2/src/lcc_cmd_base_0000.c **** 			else
1299:/home/tienluong/workspace/atlantis_fw/AsicFwS2/src/lcc_cmd_base_0000.c **** 			{
1300:/home/tienluong/workspace/atlantis_fw/AsicFwS2/src/lcc_cmd_base_0000.c **** 				in->status = LCC_CMD_SUCCESS;
 3971              		.loc 1 1300 0
 3972 017a 0123     		movs	r3, #1
1301:/home/tienluong/workspace/atlantis_fw/AsicFwS2/src/lcc_cmd_base_0000.c **** 				/* Reset bit of CAM if it have not MIRROR */
1302:/home/tienluong/workspace/atlantis_fw/AsicFwS2/src/lcc_cmd_base_0000.c **** 				in->m_bitmask &= ~(object_to_cam_bitmask(p_cam));
 3973              		.loc 1 1302 0
 3974 017c 3046     		mov	r0, r6
 3975              	.LVL450:
1300:/home/tienluong/workspace/atlantis_fw/AsicFwS2/src/lcc_cmd_base_0000.c **** 				/* Reset bit of CAM if it have not MIRROR */
 3976              		.loc 1 1300 0
 3977 017e 2B82     		strh	r3, [r5, #16]	@ movhi
 3978              		.loc 1 1302 0
 3979 0180 134B     		ldr	r3, .L295+40
 3980 0182 9847     		blx	r3
 3981              	.LVL451:
 3982 0184 2B68     		ldr	r3, [r5]
 3983 0186 23EA0000 		bic	r0, r3, r0
 3984 018a 2860     		str	r0, [r5]
 3985              	.L280:
1303:/home/tienluong/workspace/atlantis_fw/AsicFwS2/src/lcc_cmd_base_0000.c **** 			}
1304:/home/tienluong/workspace/atlantis_fw/AsicFwS2/src/lcc_cmd_base_0000.c **** 
1305:/home/tienluong/workspace/atlantis_fw/AsicFwS2/src/lcc_cmd_base_0000.c **** 			/* Set data pointer when command was not set for global */
1306:/home/tienluong/workspace/atlantis_fw/AsicFwS2/src/lcc_cmd_base_0000.c **** 			data_cnt += in->global ? 0 : cmd.size;
 3986              		.loc 1 1306 0
 3987 018c EB7C     		ldrb	r3, [r5, #19]	@ zero_extendqisi2
 3988 018e 13F0020F 		tst	r3, #2
 3989 0192 14BF     		ite	ne
 3990 0194 0024     		movne	r4, #0
 3991 0196 0224     		moveq	r4, #2
 3992 0198 A344     		add	fp, fp, r4
 3993              	.LVL452:
 3994 019a 5FFA8BFB 		uxtb	fp, fp
 3995              	.LVL453:
 3996 019e 7FE7     		b	.L278
 3997              	.LVL454:
 3998              	.L271:
1307:/home/tienluong/workspace/atlantis_fw/AsicFwS2/src/lcc_cmd_base_0000.c **** 		}
1308:/home/tienluong/workspace/atlantis_fw/AsicFwS2/src/lcc_cmd_base_0000.c **** 	}
1309:/home/tienluong/workspace/atlantis_fw/AsicFwS2/src/lcc_cmd_base_0000.c **** 	/* The command status will be updated in either lcc_cmd task
1310:/home/tienluong/workspace/atlantis_fw/AsicFwS2/src/lcc_cmd_base_0000.c **** 	 * (read command) or task_cam_ctrl (write command) */
1311:/home/tienluong/workspace/atlantis_fw/AsicFwS2/src/lcc_cmd_base_0000.c **** }
 3999              		.loc 1 1311 0
 4000 01a0 05B0     		add	sp, sp, #20
 4001              	.LCFI35:
 4002              		.cfi_def_cfa_offset 36
 4003              	.LVL455:
 4004              		@ sp needed
 4005 01a2 BDE8F08F 		pop	{r4, r5, r6, r7, r8, r9, r10, fp, pc}
 4006              	.LVL456:
 4007              	.L296:
 4008 01a6 00BF     		.align	2
 4009              	.L295:
 4010 01a8 00000000 		.word	.LANCHOR16
 4011 01ac 00000000 		.word	pvPortMalloc1
 4012 01b0 00000000 		.word	.LC0
 4013 01b4 7F010000 		.word	.LC17
 4014 01b8 00000000 		.word	slogf
 4015 01bc 00000000 		.word	xQueueGenericReceive
 4016 01c0 00000000 		.word	xQueueGenericSend
 4017 01c4 00000000 		.word	memcpy
 4018 01c8 00000000 		.word	idx_to_object
 4019 01cc 00000000 		.word	light_system
 4020 01d0 00000000 		.word	object_to_cam_bitmask
 4021              		.cfi_endproc
 4022              	.LFE17:
 4024              		.section	.text.cmd_cam_roi,"ax",%progbits
 4025              		.align	1
 4026              		.global	cmd_cam_roi
 4027              		.thumb
 4028              		.thumb_func
 4030              	cmd_cam_roi:
 4031              	.LFB18:
1312:/home/tienluong/workspace/atlantis_fw/AsicFwS2/src/lcc_cmd_base_0000.c **** /**
1313:/home/tienluong/workspace/atlantis_fw/AsicFwS2/src/lcc_cmd_base_0000.c ****  * cmd_cam_roi
1314:/home/tienluong/workspace/atlantis_fw/AsicFwS2/src/lcc_cmd_base_0000.c ****  *
1315:/home/tienluong/workspace/atlantis_fw/AsicFwS2/src/lcc_cmd_base_0000.c ****  */
1316:/home/tienluong/workspace/atlantis_fw/AsicFwS2/src/lcc_cmd_base_0000.c **** void cmd_cam_roi(lcc_cmd_t *in, lcc_cmd_t *out)
1317:/home/tienluong/workspace/atlantis_fw/AsicFwS2/src/lcc_cmd_base_0000.c **** {
 4032              		.loc 1 1317 0
 4033              		.cfi_startproc
 4034              		@ args = 0, pretend = 0, frame = 16
 4035              		@ frame_needed = 0, uses_anonymous_args = 0
 4036              	.LVL457:
 4037 0000 2DE9F04F 		push	{r4, r5, r6, r7, r8, r9, r10, fp, lr}
 4038              	.LCFI36:
 4039              		.cfi_def_cfa_offset 36
 4040              		.cfi_offset 4, -36
 4041              		.cfi_offset 5, -32
 4042              		.cfi_offset 6, -28
 4043              		.cfi_offset 7, -24
 4044              		.cfi_offset 8, -20
 4045              		.cfi_offset 9, -16
 4046              		.cfi_offset 10, -12
 4047              		.cfi_offset 11, -8
 4048              		.cfi_offset 14, -4
1318:/home/tienluong/workspace/atlantis_fw/AsicFwS2/src/lcc_cmd_base_0000.c **** 	uint16_t data_cnt = 0;
1319:/home/tienluong/workspace/atlantis_fw/AsicFwS2/src/lcc_cmd_base_0000.c **** 	SLOGF(SLOG_DEBUG, "Entering %s", __FUNCTION__);
 4049              		.loc 1 1319 0
 4050 0004 9F4A     		ldr	r2, .L315
1317:/home/tienluong/workspace/atlantis_fw/AsicFwS2/src/lcc_cmd_base_0000.c **** 	uint16_t data_cnt = 0;
 4051              		.loc 1 1317 0
 4052 0006 0546     		mov	r5, r0
 4053              		.loc 1 1319 0
 4054 0008 DFF8C492 		ldr	r9, .L315+76
1317:/home/tienluong/workspace/atlantis_fw/AsicFwS2/src/lcc_cmd_base_0000.c **** 	uint16_t data_cnt = 0;
 4055              		.loc 1 1317 0
 4056 000c 8FB0     		sub	sp, sp, #60
 4057              	.LCFI37:
 4058              		.cfi_def_cfa_offset 96
1317:/home/tienluong/workspace/atlantis_fw/AsicFwS2/src/lcc_cmd_base_0000.c **** 	uint16_t data_cnt = 0;
 4059              		.loc 1 1317 0
 4060 000e 0C46     		mov	r4, r1
 4061              		.loc 1 1319 0
 4062 0010 2120     		movs	r0, #33
 4063              	.LVL458:
 4064 0012 1021     		movs	r1, #16
 4065              	.LVL459:
 4066 0014 9C4B     		ldr	r3, .L315+4
 4067 0016 4F46     		mov	r7, r9
 4068 0018 C847     		blx	r9
 4069              	.LVL460:
1320:/home/tienluong/workspace/atlantis_fw/AsicFwS2/src/lcc_cmd_base_0000.c **** 
1321:/home/tienluong/workspace/atlantis_fw/AsicFwS2/src/lcc_cmd_base_0000.c **** 	/* Read command processing */
1322:/home/tienluong/workspace/atlantis_fw/AsicFwS2/src/lcc_cmd_base_0000.c **** 	if (CMD_READ == in->action)
 4070              		.loc 1 1322 0
 4071 001a 95F81380 		ldrb	r8, [r5, #19]	@ zero_extendqisi2
 4072 001e 18F00108 		ands	r8, r8, #1
 4073 0022 00F0AB80 		beq	.L298
 4074              	.LBB18:
1323:/home/tienluong/workspace/atlantis_fw/AsicFwS2/src/lcc_cmd_base_0000.c **** 	{
1324:/home/tienluong/workspace/atlantis_fw/AsicFwS2/src/lcc_cmd_base_0000.c **** 		/* Read data from cache */
1325:/home/tienluong/workspace/atlantis_fw/AsicFwS2/src/lcc_cmd_base_0000.c **** 		uint8_t roi_cnt_af = light_system->settings->roi_count_af;
 4075              		.loc 1 1325 0
 4076 0026 994B     		ldr	r3, .L315+8
 4077 0028 D3F80080 		ldr	r8, [r3]
 4078 002c D8F80830 		ldr	r3, [r8, #8]
 4079 0030 93F88CA0 		ldrb	r10, [r3, #140]	@ zero_extendqisi2
 4080              	.LVL461:
1326:/home/tienluong/workspace/atlantis_fw/AsicFwS2/src/lcc_cmd_base_0000.c **** 		uint8_t roi_cnt_ae = light_system->settings->roi_count_ae;
 4081              		.loc 1 1326 0
 4082 0034 93F88D60 		ldrb	r6, [r3, #141]	@ zero_extendqisi2
 4083              	.LVL462:
1327:/home/tienluong/workspace/atlantis_fw/AsicFwS2/src/lcc_cmd_base_0000.c **** 		out->len = CAM_ROI_DATA_SIZE * (roi_cnt_af + roi_cnt_ae);
 4084              		.loc 1 1327 0
 4085 0038 0AEB060B 		add	fp, r10, r6
 4086 003c 0BEB8B0B 		add	fp, fp, fp, lsl #2
 4087 0040 4FEA4B0B 		lsl	fp, fp, #1
 4088 0044 1FFA8BFB 		uxth	fp, fp
 4089 0048 A4F808B0 		strh	fp, [r4, #8]	@ movhi
1328:/home/tienluong/workspace/atlantis_fw/AsicFwS2/src/lcc_cmd_base_0000.c **** 		if(0 == out->len)
 4090              		.loc 1 1328 0
 4091 004c BBF1000F 		cmp	fp, #0
 4092 0050 04D1     		bne	.L299
1329:/home/tienluong/workspace/atlantis_fw/AsicFwS2/src/lcc_cmd_base_0000.c **** 		{
1330:/home/tienluong/workspace/atlantis_fw/AsicFwS2/src/lcc_cmd_base_0000.c **** 			SLOGF(SLOG_DEBUG, "ROI hasn't been set");
 4093              		.loc 1 1330 0
 4094 0052 2120     		movs	r0, #33
 4095 0054 1021     		movs	r1, #16
 4096 0056 8E4A     		ldr	r2, .L315+12
 4097 0058 C847     		blx	r9
 4098              	.LVL463:
 4099 005a 0FE0     		b	.L313
 4100              	.L299:
1331:/home/tienluong/workspace/atlantis_fw/AsicFwS2/src/lcc_cmd_base_0000.c **** 			in->status = LCC_CMD_UNSUCCESS;
1332:/home/tienluong/workspace/atlantis_fw/AsicFwS2/src/lcc_cmd_base_0000.c **** 			return;
1333:/home/tienluong/workspace/atlantis_fw/AsicFwS2/src/lcc_cmd_base_0000.c **** 		}
1334:/home/tienluong/workspace/atlantis_fw/AsicFwS2/src/lcc_cmd_base_0000.c **** 		out->data = pvPortMalloc(out->len);
 4101              		.loc 1 1334 0
 4102 005c 5846     		mov	r0, fp
 4103 005e 40F23652 		movw	r2, #1334
 4104 0062 8949     		ldr	r1, .L315+4
 4105 0064 8B4B     		ldr	r3, .L315+16
 4106 0066 9847     		blx	r3
 4107              	.LVL464:
 4108 0068 8346     		mov	fp, r0
 4109 006a 6060     		str	r0, [r4, #4]
1335:/home/tienluong/workspace/atlantis_fw/AsicFwS2/src/lcc_cmd_base_0000.c **** 		if (NULL == out->data)
1336:/home/tienluong/workspace/atlantis_fw/AsicFwS2/src/lcc_cmd_base_0000.c **** 		{
1337:/home/tienluong/workspace/atlantis_fw/AsicFwS2/src/lcc_cmd_base_0000.c **** 			SLOGF(SLOG_ERROR, "%s: Lack of memory", __FUNCTION__);
 4110              		.loc 1 1337 0
 4111 006c 2120     		movs	r0, #33
1335:/home/tienluong/workspace/atlantis_fw/AsicFwS2/src/lcc_cmd_base_0000.c **** 		if (NULL == out->data)
 4112              		.loc 1 1335 0
 4113 006e BBF1000F 		cmp	fp, #0
 4114 0072 06D1     		bne	.L301
 4115              		.loc 1 1337 0
 4116 0074 0221     		movs	r1, #2
 4117 0076 884A     		ldr	r2, .L315+20
 4118 0078 834B     		ldr	r3, .L315+4
 4119 007a C847     		blx	r9
 4120              	.LVL465:
 4121              	.L313:
1338:/home/tienluong/workspace/atlantis_fw/AsicFwS2/src/lcc_cmd_base_0000.c **** 			in->status = LCC_CMD_UNSUCCESS;
 4122              		.loc 1 1338 0
 4123 007c A5F810B0 		strh	fp, [r5, #16]	@ movhi
1339:/home/tienluong/workspace/atlantis_fw/AsicFwS2/src/lcc_cmd_base_0000.c **** 			return;
 4124              		.loc 1 1339 0
 4125 0080 FDE0     		b	.L297
 4126              	.L301:
1340:/home/tienluong/workspace/atlantis_fw/AsicFwS2/src/lcc_cmd_base_0000.c **** 		}
1341:/home/tienluong/workspace/atlantis_fw/AsicFwS2/src/lcc_cmd_base_0000.c **** 		SLOGF(SLOG_DEBUG, "Get ROI settings");
 4127              		.loc 1 1341 0
 4128 0082 1021     		movs	r1, #16
 4129 0084 854A     		ldr	r2, .L315+24
 4130 0086 C847     		blx	r9
 4131              	.LVL466:
1342:/home/tienluong/workspace/atlantis_fw/AsicFwS2/src/lcc_cmd_base_0000.c **** 		/* TODO: Take semaphore to access settings memory */
1343:/home/tienluong/workspace/atlantis_fw/AsicFwS2/src/lcc_cmd_base_0000.c **** 		/* Get af ROI data */
1344:/home/tienluong/workspace/atlantis_fw/AsicFwS2/src/lcc_cmd_base_0000.c **** 		uint8_t n_bytes = CAM_ROI_DATA_SIZE * roi_cnt_af;
 4132              		.loc 1 1344 0
 4133 0088 0AEB8A02 		add	r2, r10, r10, lsl #2
1345:/home/tienluong/workspace/atlantis_fw/AsicFwS2/src/lcc_cmd_base_0000.c **** 		memcpy(out->data, light_system->settings->roi_af, n_bytes);
 4134              		.loc 1 1345 0
 4135 008c D8F80810 		ldr	r1, [r8, #8]
1344:/home/tienluong/workspace/atlantis_fw/AsicFwS2/src/lcc_cmd_base_0000.c **** 		memcpy(out->data, light_system->settings->roi_af, n_bytes);
 4136              		.loc 1 1344 0
 4137 0090 5200     		lsls	r2, r2, #1
 4138              		.loc 1 1345 0
 4139 0092 834D     		ldr	r5, .L315+28
 4140              	.LVL467:
 4141 0094 5031     		adds	r1, r1, #80
 4142 0096 6068     		ldr	r0, [r4, #4]
 4143 0098 02F0FE02 		and	r2, r2, #254
 4144 009c A847     		blx	r5
 4145              	.LVL468:
1346:/home/tienluong/workspace/atlantis_fw/AsicFwS2/src/lcc_cmd_base_0000.c **** 		/* Get ae ROI data */
1347:/home/tienluong/workspace/atlantis_fw/AsicFwS2/src/lcc_cmd_base_0000.c **** 		n_bytes = CAM_ROI_DATA_SIZE * roi_cnt_ae;
 4146              		.loc 1 1347 0
 4147 009e 06EB8602 		add	r2, r6, r6, lsl #2
1348:/home/tienluong/workspace/atlantis_fw/AsicFwS2/src/lcc_cmd_base_0000.c **** 		memcpy(out->data + n_bytes, light_system->settings->roi_ae, n_bytes);
 4148              		.loc 1 1348 0
 4149 00a2 6068     		ldr	r0, [r4, #4]
1347:/home/tienluong/workspace/atlantis_fw/AsicFwS2/src/lcc_cmd_base_0000.c **** 		memcpy(out->data + n_bytes, light_system->settings->roi_ae, n_bytes);
 4150              		.loc 1 1347 0
 4151 00a4 5200     		lsls	r2, r2, #1
 4152              		.loc 1 1348 0
 4153 00a6 D8F80810 		ldr	r1, [r8, #8]
 4154 00aa D2B2     		uxtb	r2, r2
 4155 00ac 1044     		add	r0, r0, r2
 4156 00ae 6E31     		adds	r1, r1, #110
 4157 00b0 A847     		blx	r5
 4158              	.LVL469:
1349:/home/tienluong/workspace/atlantis_fw/AsicFwS2/src/lcc_cmd_base_0000.c **** #if(LOG_VERBOSE == STD_ON)
1350:/home/tienluong/workspace/atlantis_fw/AsicFwS2/src/lcc_cmd_base_0000.c **** 		uint8_t *pd = out->data;
1351:/home/tienluong/workspace/atlantis_fw/AsicFwS2/src/lcc_cmd_base_0000.c **** 		SLOGF(SLOG_INFO, "AF ROI data");
 4159              		.loc 1 1351 0
 4160 00b2 2120     		movs	r0, #33
 4161 00b4 0821     		movs	r1, #8
 4162 00b6 7B4A     		ldr	r2, .L315+32
1350:/home/tienluong/workspace/atlantis_fw/AsicFwS2/src/lcc_cmd_base_0000.c **** 		SLOGF(SLOG_INFO, "AF ROI data");
 4163              		.loc 1 1350 0
 4164 00b8 6568     		ldr	r5, [r4, #4]
 4165              	.LVL470:
 4166              		.loc 1 1351 0
 4167 00ba C847     		blx	r9
 4168              	.LVL471:
 4169 00bc 0A23     		movs	r3, #10
 4170 00be 05F10A04 		add	r4, r5, #10
 4171              	.LVL472:
 4172 00c2 0AFB0333 		mla	r3, r10, r3, r3
 4173 00c6 05EB030A 		add	r10, r5, r3
 4174              	.LVL473:
 4175              	.L302:
 4176              	.LBB19:
1352:/home/tienluong/workspace/atlantis_fw/AsicFwS2/src/lcc_cmd_base_0000.c **** 		for(int i = 0; i < roi_cnt_af; i++)
 4177              		.loc 1 1352 0 discriminator 1
 4178 00ca 5445     		cmp	r4, r10
 4179 00cc 22D0     		beq	.L314
1353:/home/tienluong/workspace/atlantis_fw/AsicFwS2/src/lcc_cmd_base_0000.c **** 		{
1354:/home/tienluong/workspace/atlantis_fw/AsicFwS2/src/lcc_cmd_base_0000.c **** 			SLOGF(SLOG_DEBUG,
 4180              		.loc 1 1354 0 discriminator 3
 4181 00ce 14F8092C 		ldrb	r2, [r4, #-9]	@ zero_extendqisi2
 4182 00d2 14F80A3C 		ldrb	r3, [r4, #-10]	@ zero_extendqisi2
 4183 00d6 2120     		movs	r0, #33
 4184 00d8 0092     		str	r2, [sp]
 4185 00da 1021     		movs	r1, #16
 4186 00dc 14F8082C 		ldrb	r2, [r4, #-8]	@ zero_extendqisi2
 4187 00e0 0192     		str	r2, [sp, #4]
 4188 00e2 14F8072C 		ldrb	r2, [r4, #-7]	@ zero_extendqisi2
 4189 00e6 0292     		str	r2, [sp, #8]
 4190 00e8 14F8062C 		ldrb	r2, [r4, #-6]	@ zero_extendqisi2
 4191 00ec 0392     		str	r2, [sp, #12]
 4192 00ee 14F8052C 		ldrb	r2, [r4, #-5]	@ zero_extendqisi2
 4193 00f2 0492     		str	r2, [sp, #16]
 4194 00f4 14F8042C 		ldrb	r2, [r4, #-4]	@ zero_extendqisi2
 4195 00f8 0592     		str	r2, [sp, #20]
 4196 00fa 14F8032C 		ldrb	r2, [r4, #-3]	@ zero_extendqisi2
 4197 00fe 0692     		str	r2, [sp, #24]
 4198 0100 14F8022C 		ldrb	r2, [r4, #-2]	@ zero_extendqisi2
 4199 0104 0792     		str	r2, [sp, #28]
 4200 0106 14F8012C 		ldrb	r2, [r4, #-1]	@ zero_extendqisi2
 4201 010a 0892     		str	r2, [sp, #32]
 4202 010c 664A     		ldr	r2, .L315+36
 4203 010e 0A34     		adds	r4, r4, #10
 4204              	.LVL474:
 4205 0110 B847     		blx	r7
 4206              	.LVL475:
 4207 0112 DAE7     		b	.L302
 4208              	.LVL476:
 4209              	.L314:
 4210              	.LBE19:
1355:/home/tienluong/workspace/atlantis_fw/AsicFwS2/src/lcc_cmd_base_0000.c **** 				"ROI: 0x%x, 0x%x, 0x%x, 0x%x, 0x%x, 0x%x, 0x%x, 0x%x, 0x%x, 0x%x",
1356:/home/tienluong/workspace/atlantis_fw/AsicFwS2/src/lcc_cmd_base_0000.c **** 				pd[0], pd[1], pd[2], pd[3], pd[4], pd[5], pd[6], pd[7],
1357:/home/tienluong/workspace/atlantis_fw/AsicFwS2/src/lcc_cmd_base_0000.c **** 				pd[8], pd[9]);
1358:/home/tienluong/workspace/atlantis_fw/AsicFwS2/src/lcc_cmd_base_0000.c **** 			pd += CAM_ROI_DATA_SIZE;
1359:/home/tienluong/workspace/atlantis_fw/AsicFwS2/src/lcc_cmd_base_0000.c **** 		}
1360:/home/tienluong/workspace/atlantis_fw/AsicFwS2/src/lcc_cmd_base_0000.c **** 		SLOGF(SLOG_INFO, "AE ROI data");
 4211              		.loc 1 1360 0
 4212 0114 654A     		ldr	r2, .L315+40
 4213 0116 2120     		movs	r0, #33
 4214 0118 0821     		movs	r1, #8
 4215 011a B847     		blx	r7
 4216              	.LVL477:
1361:/home/tienluong/workspace/atlantis_fw/AsicFwS2/src/lcc_cmd_base_0000.c **** 		pd = light_system->settings->roi_ae;
 4217              		.loc 1 1361 0
 4218 011c D8F80830 		ldr	r3, [r8, #8]
 4219              	.LVL478:
 4220 0120 03F16E02 		add	r2, r3, #110
 4221              	.LVL479:
 4222 0124 03F17804 		add	r4, r3, #120
 4223 0128 0A23     		movs	r3, #10
 4224 012a 06FB0333 		mla	r3, r6, r3, r3
 4225 012e D618     		adds	r6, r2, r3
 4226              	.LVL480:
 4227              	.L304:
 4228              	.LBB20:
1362:/home/tienluong/workspace/atlantis_fw/AsicFwS2/src/lcc_cmd_base_0000.c **** 		for(int i = 0; i < roi_cnt_ae; i++)
 4229              		.loc 1 1362 0 discriminator 1
 4230 0130 B442     		cmp	r4, r6
 4231 0132 00F09F80 		beq	.L306
1363:/home/tienluong/workspace/atlantis_fw/AsicFwS2/src/lcc_cmd_base_0000.c **** 		{
1364:/home/tienluong/workspace/atlantis_fw/AsicFwS2/src/lcc_cmd_base_0000.c **** 			SLOGF(SLOG_DEBUG,
 4232              		.loc 1 1364 0 discriminator 3
 4233 0136 14F8092C 		ldrb	r2, [r4, #-9]	@ zero_extendqisi2
 4234 013a 14F80A3C 		ldrb	r3, [r4, #-10]	@ zero_extendqisi2
 4235 013e 2120     		movs	r0, #33
 4236 0140 0092     		str	r2, [sp]
 4237 0142 1021     		movs	r1, #16
 4238 0144 14F8082C 		ldrb	r2, [r4, #-8]	@ zero_extendqisi2
 4239 0148 0192     		str	r2, [sp, #4]
 4240 014a 14F8072C 		ldrb	r2, [r4, #-7]	@ zero_extendqisi2
 4241 014e 0292     		str	r2, [sp, #8]
 4242 0150 14F8062C 		ldrb	r2, [r4, #-6]	@ zero_extendqisi2
 4243 0154 0392     		str	r2, [sp, #12]
 4244 0156 14F8052C 		ldrb	r2, [r4, #-5]	@ zero_extendqisi2
 4245 015a 0492     		str	r2, [sp, #16]
 4246 015c 14F8042C 		ldrb	r2, [r4, #-4]	@ zero_extendqisi2
 4247 0160 0592     		str	r2, [sp, #20]
 4248 0162 14F8032C 		ldrb	r2, [r4, #-3]	@ zero_extendqisi2
 4249 0166 0692     		str	r2, [sp, #24]
 4250 0168 14F8022C 		ldrb	r2, [r4, #-2]	@ zero_extendqisi2
 4251 016c 0792     		str	r2, [sp, #28]
 4252 016e 14F8012C 		ldrb	r2, [r4, #-1]	@ zero_extendqisi2
 4253 0172 0892     		str	r2, [sp, #32]
 4254 0174 4C4A     		ldr	r2, .L315+36
 4255 0176 0A34     		adds	r4, r4, #10
 4256              	.LVL481:
 4257 0178 B847     		blx	r7
 4258              	.LVL482:
 4259 017a D9E7     		b	.L304
 4260              	.LVL483:
 4261              	.L298:
 4262              	.LBE20:
 4263              	.LBE18:
 4264              	.LBB21:
1365:/home/tienluong/workspace/atlantis_fw/AsicFwS2/src/lcc_cmd_base_0000.c **** 				"ROI: 0x%x, 0x%x, 0x%x, 0x%x, 0x%x, 0x%x, 0x%x, 0x%x, 0x%x, 0x%x",
1366:/home/tienluong/workspace/atlantis_fw/AsicFwS2/src/lcc_cmd_base_0000.c **** 				pd[0], pd[1], pd[2], pd[3], pd[4], pd[5], pd[6], pd[7],
1367:/home/tienluong/workspace/atlantis_fw/AsicFwS2/src/lcc_cmd_base_0000.c **** 				pd[8], pd[9]);
1368:/home/tienluong/workspace/atlantis_fw/AsicFwS2/src/lcc_cmd_base_0000.c **** 			pd += CAM_ROI_DATA_SIZE;
1369:/home/tienluong/workspace/atlantis_fw/AsicFwS2/src/lcc_cmd_base_0000.c **** 		}
1370:/home/tienluong/workspace/atlantis_fw/AsicFwS2/src/lcc_cmd_base_0000.c **** #endif
1371:/home/tienluong/workspace/atlantis_fw/AsicFwS2/src/lcc_cmd_base_0000.c **** 		/* TODO: Release semaphore after read data */
1372:/home/tienluong/workspace/atlantis_fw/AsicFwS2/src/lcc_cmd_base_0000.c **** 	}
1373:/home/tienluong/workspace/atlantis_fw/AsicFwS2/src/lcc_cmd_base_0000.c **** 	/* Write command processing */
1374:/home/tienluong/workspace/atlantis_fw/AsicFwS2/src/lcc_cmd_base_0000.c **** 	else
1375:/home/tienluong/workspace/atlantis_fw/AsicFwS2/src/lcc_cmd_base_0000.c **** 	{
1376:/home/tienluong/workspace/atlantis_fw/AsicFwS2/src/lcc_cmd_base_0000.c **** 		/* Write data to cache */
1377:/home/tienluong/workspace/atlantis_fw/AsicFwS2/src/lcc_cmd_base_0000.c **** 		uint8_t roi_cnt_af = in->data[data_cnt++];
 4265              		.loc 1 1377 0
 4266 017c 6B68     		ldr	r3, [r5, #4]
 4267              	.LVL484:
1378:/home/tienluong/workspace/atlantis_fw/AsicFwS2/src/lcc_cmd_base_0000.c **** 		uint8_t roi_cnt_ae = in->data[data_cnt++];
1379:/home/tienluong/workspace/atlantis_fw/AsicFwS2/src/lcc_cmd_base_0000.c **** 		SLOGF(SLOG_DEBUG, "Set ROI cnt_af: %d cnt_ae: %d", roi_cnt_af, roi_cnt_ae);
 4268              		.loc 1 1379 0
 4269 017e 1021     		movs	r1, #16
1377:/home/tienluong/workspace/atlantis_fw/AsicFwS2/src/lcc_cmd_base_0000.c **** 		uint8_t roi_cnt_ae = in->data[data_cnt++];
 4270              		.loc 1 1377 0
 4271 0180 1C78     		ldrb	r4, [r3]	@ zero_extendqisi2
 4272              	.LVL485:
1378:/home/tienluong/workspace/atlantis_fw/AsicFwS2/src/lcc_cmd_base_0000.c **** 		uint8_t roi_cnt_ae = in->data[data_cnt++];
 4273              		.loc 1 1378 0
 4274 0182 5E78     		ldrb	r6, [r3, #1]	@ zero_extendqisi2
 4275              	.LVL486:
 4276              		.loc 1 1379 0
 4277 0184 4A4A     		ldr	r2, .L315+44
 4278 0186 2346     		mov	r3, r4
 4279 0188 0096     		str	r6, [sp]
 4280 018a 2120     		movs	r0, #33
 4281 018c C847     		blx	r9
 4282              	.LVL487:
1380:/home/tienluong/workspace/atlantis_fw/AsicFwS2/src/lcc_cmd_base_0000.c **** 		if(in->len != (CAM_ROI_DATA_SIZE * (roi_cnt_af + roi_cnt_ae) + 2))
 4283              		.loc 1 1380 0
 4284 018e 4FF00A0B 		mov	fp, #10
 4285 0192 A219     		adds	r2, r4, r6
 4286 0194 2989     		ldrh	r1, [r5, #8]
 4287 0196 0BFB02F3 		mul	r3, fp, r2
 4288 019a 0233     		adds	r3, r3, #2
 4289 019c 9942     		cmp	r1, r3
 4290 019e 09D0     		beq	.L307
1381:/home/tienluong/workspace/atlantis_fw/AsicFwS2/src/lcc_cmd_base_0000.c **** 		{
1382:/home/tienluong/workspace/atlantis_fw/AsicFwS2/src/lcc_cmd_base_0000.c **** 			SLOGF(SLOG_ERROR, "%s:%d Data Length is invalid %d",
 4291              		.loc 1 1382 0
 4292 01a0 40F26753 		movw	r3, #1383
 4293 01a4 2120     		movs	r0, #33
 4294 01a6 0191     		str	r1, [sp, #4]
 4295 01a8 0221     		movs	r1, #2
 4296 01aa 0093     		str	r3, [sp]
 4297 01ac 414A     		ldr	r2, .L315+48
 4298 01ae 364B     		ldr	r3, .L315+4
 4299 01b0 C847     		blx	r9
 4300              	.LVL488:
 4301 01b2 0CE0     		b	.L312
 4302              	.L307:
1383:/home/tienluong/workspace/atlantis_fw/AsicFwS2/src/lcc_cmd_base_0000.c **** 					__FUNCTION__, __LINE__, in->len);
1384:/home/tienluong/workspace/atlantis_fw/AsicFwS2/src/lcc_cmd_base_0000.c **** 			in->status = LCC_CMD_INVALID_ARG;
1385:/home/tienluong/workspace/atlantis_fw/AsicFwS2/src/lcc_cmd_base_0000.c **** 			return;
1386:/home/tienluong/workspace/atlantis_fw/AsicFwS2/src/lcc_cmd_base_0000.c **** 		}
1387:/home/tienluong/workspace/atlantis_fw/AsicFwS2/src/lcc_cmd_base_0000.c **** 		else if(CAM_ROI_DATA_MAX_COUNT < roi_cnt_af
 4303              		.loc 1 1387 0
 4304 01b4 032C     		cmp	r4, #3
 4305 01b6 01D8     		bhi	.L308
1388:/home/tienluong/workspace/atlantis_fw/AsicFwS2/src/lcc_cmd_base_0000.c **** 				|| CAM_ROI_DATA_MAX_COUNT < roi_cnt_ae)
 4306              		.loc 1 1388 0
 4307 01b8 032E     		cmp	r6, #3
 4308 01ba 0BD9     		bls	.L309
 4309              	.L308:
1389:/home/tienluong/workspace/atlantis_fw/AsicFwS2/src/lcc_cmd_base_0000.c **** 		{
1390:/home/tienluong/workspace/atlantis_fw/AsicFwS2/src/lcc_cmd_base_0000.c **** 			SLOGF(SLOG_ERROR, "%s:%d Number of ROI data is too large %d",
 4310              		.loc 1 1390 0
 4311 01bc 40F26F53 		movw	r3, #1391
 4312 01c0 2120     		movs	r0, #33
 4313 01c2 0192     		str	r2, [sp, #4]
 4314 01c4 0221     		movs	r1, #2
 4315 01c6 0093     		str	r3, [sp]
 4316 01c8 3B4A     		ldr	r2, .L315+52
 4317 01ca 2F4B     		ldr	r3, .L315+4
 4318 01cc B847     		blx	r7
 4319              	.LVL489:
 4320              	.L312:
1391:/home/tienluong/workspace/atlantis_fw/AsicFwS2/src/lcc_cmd_base_0000.c **** 					__FUNCTION__, __LINE__, (roi_cnt_af + roi_cnt_ae));
1392:/home/tienluong/workspace/atlantis_fw/AsicFwS2/src/lcc_cmd_base_0000.c **** 			in->status = LCC_CMD_INVALID_ARG;
 4321              		.loc 1 1392 0
 4322 01ce 0423     		movs	r3, #4
 4323 01d0 2B82     		strh	r3, [r5, #16]	@ movhi
1393:/home/tienluong/workspace/atlantis_fw/AsicFwS2/src/lcc_cmd_base_0000.c **** 			return;
 4324              		.loc 1 1393 0
 4325 01d2 54E0     		b	.L297
 4326              	.L309:
 4327              	.LBB22:
1394:/home/tienluong/workspace/atlantis_fw/AsicFwS2/src/lcc_cmd_base_0000.c **** 		}
1395:/home/tienluong/workspace/atlantis_fw/AsicFwS2/src/lcc_cmd_base_0000.c **** 		else
1396:/home/tienluong/workspace/atlantis_fw/AsicFwS2/src/lcc_cmd_base_0000.c **** 		{
1397:/home/tienluong/workspace/atlantis_fw/AsicFwS2/src/lcc_cmd_base_0000.c **** 			/* TODO: Take semaphore to access settings memory */
1398:/home/tienluong/workspace/atlantis_fw/AsicFwS2/src/lcc_cmd_base_0000.c **** 			SLOGF(SLOG_DEBUG, "roi_cnt_af: %d, offset: %d", roi_cnt_af, data_cnt);
 4328              		.loc 1 1398 0
 4329 01d4 4FF0020A 		mov	r10, #2
 4330 01d8 2346     		mov	r3, r4
 4331 01da 2120     		movs	r0, #33
 4332 01dc 1021     		movs	r1, #16
 4333 01de 374A     		ldr	r2, .L315+56
 4334 01e0 CDF800A0 		str	r10, [sp]
 4335 01e4 C847     		blx	r9
 4336              	.LVL490:
1399:/home/tienluong/workspace/atlantis_fw/AsicFwS2/src/lcc_cmd_base_0000.c **** 			light_system->settings->roi_count_af = roi_cnt_af;
 4337              		.loc 1 1399 0
 4338 01e6 294B     		ldr	r3, .L315+8
1400:/home/tienluong/workspace/atlantis_fw/AsicFwS2/src/lcc_cmd_base_0000.c **** 			uint8_t n_bytes = roi_cnt_af * CAM_ROI_DATA_SIZE;
1401:/home/tienluong/workspace/atlantis_fw/AsicFwS2/src/lcc_cmd_base_0000.c **** 			memcpy(light_system->settings->roi_af, in->data+data_cnt, n_bytes);
 4339              		.loc 1 1401 0
 4340 01e8 DFF8B4C0 		ldr	ip, .L315+28
 4341 01ec CDF82CC0 		str	ip, [sp, #44]
1399:/home/tienluong/workspace/atlantis_fw/AsicFwS2/src/lcc_cmd_base_0000.c **** 			light_system->settings->roi_count_af = roi_cnt_af;
 4342              		.loc 1 1399 0
 4343 01f0 D3F80090 		ldr	r9, [r3]
 4344 01f4 D9F80830 		ldr	r3, [r9, #8]
 4345 01f8 83F88C40 		strb	r4, [r3, #140]
1400:/home/tienluong/workspace/atlantis_fw/AsicFwS2/src/lcc_cmd_base_0000.c **** 			uint8_t n_bytes = roi_cnt_af * CAM_ROI_DATA_SIZE;
 4346              		.loc 1 1400 0
 4347 01fc 04EB8404 		add	r4, r4, r4, lsl #2
 4348              	.LVL491:
 4349              		.loc 1 1401 0
 4350 0200 D9F80800 		ldr	r0, [r9, #8]
1400:/home/tienluong/workspace/atlantis_fw/AsicFwS2/src/lcc_cmd_base_0000.c **** 			uint8_t n_bytes = roi_cnt_af * CAM_ROI_DATA_SIZE;
 4351              		.loc 1 1400 0
 4352 0204 6400     		lsls	r4, r4, #1
 4353              		.loc 1 1401 0
 4354 0206 6968     		ldr	r1, [r5, #4]
 4355 0208 5030     		adds	r0, r0, #80
1400:/home/tienluong/workspace/atlantis_fw/AsicFwS2/src/lcc_cmd_base_0000.c **** 			uint8_t n_bytes = roi_cnt_af * CAM_ROI_DATA_SIZE;
 4356              		.loc 1 1400 0
 4357 020a E4B2     		uxtb	r4, r4
 4358              	.LVL492:
 4359              		.loc 1 1401 0
 4360 020c 2246     		mov	r2, r4
1402:/home/tienluong/workspace/atlantis_fw/AsicFwS2/src/lcc_cmd_base_0000.c **** 			data_cnt += n_bytes;
 4361              		.loc 1 1402 0
 4362 020e 5444     		add	r4, r4, r10
 4363              	.LVL493:
1401:/home/tienluong/workspace/atlantis_fw/AsicFwS2/src/lcc_cmd_base_0000.c **** 			data_cnt += n_bytes;
 4364              		.loc 1 1401 0
 4365 0210 5144     		add	r1, r1, r10
 4366 0212 E047     		blx	ip
 4367              	.LVL494:
1403:/home/tienluong/workspace/atlantis_fw/AsicFwS2/src/lcc_cmd_base_0000.c **** 			SLOGF(SLOG_DEBUG, "roi_cnt_ae: %d, offset: %d", roi_cnt_ae, data_cnt);
 4368              		.loc 1 1403 0
 4369 0214 3346     		mov	r3, r6
 4370 0216 0094     		str	r4, [sp]
 4371 0218 2120     		movs	r0, #33
 4372 021a 1021     		movs	r1, #16
 4373 021c 284A     		ldr	r2, .L315+60
 4374 021e B847     		blx	r7
 4375              	.LVL495:
1404:/home/tienluong/workspace/atlantis_fw/AsicFwS2/src/lcc_cmd_base_0000.c **** 			n_bytes = roi_cnt_ae * CAM_ROI_DATA_SIZE;
1405:/home/tienluong/workspace/atlantis_fw/AsicFwS2/src/lcc_cmd_base_0000.c **** 			light_system->settings->roi_count_ae = roi_cnt_ae;
 4376              		.loc 1 1405 0
 4377 0220 D9F80830 		ldr	r3, [r9, #8]
 4378 0224 83F88D60 		strb	r6, [r3, #141]
1404:/home/tienluong/workspace/atlantis_fw/AsicFwS2/src/lcc_cmd_base_0000.c **** 			n_bytes = roi_cnt_ae * CAM_ROI_DATA_SIZE;
 4379              		.loc 1 1404 0
 4380 0228 06EB8606 		add	r6, r6, r6, lsl #2
 4381              	.LVL496:
1406:/home/tienluong/workspace/atlantis_fw/AsicFwS2/src/lcc_cmd_base_0000.c **** 			memcpy(light_system->settings->roi_ae, in->data+data_cnt, n_bytes);
 4382              		.loc 1 1406 0
 4383 022c D9F80800 		ldr	r0, [r9, #8]
 4384 0230 6968     		ldr	r1, [r5, #4]
1404:/home/tienluong/workspace/atlantis_fw/AsicFwS2/src/lcc_cmd_base_0000.c **** 			n_bytes = roi_cnt_ae * CAM_ROI_DATA_SIZE;
 4385              		.loc 1 1404 0
 4386 0232 7200     		lsls	r2, r6, #1
 4387              		.loc 1 1406 0
 4388 0234 02F0FE02 		and	r2, r2, #254
 4389 0238 2144     		add	r1, r1, r4
 4390 023a DDF82CC0 		ldr	ip, [sp, #44]
 4391 023e 6E30     		adds	r0, r0, #110
 4392 0240 E047     		blx	ip
 4393              	.LVL497:
1407:/home/tienluong/workspace/atlantis_fw/AsicFwS2/src/lcc_cmd_base_0000.c **** 			/* TODO: Release semaphore after read data */
1408:/home/tienluong/workspace/atlantis_fw/AsicFwS2/src/lcc_cmd_base_0000.c **** 			/* Queue request to process received data */
1409:/home/tienluong/workspace/atlantis_fw/AsicFwS2/src/lcc_cmd_base_0000.c **** 	        lcc_cmd_tid_t p_cmd;
1410:/home/tienluong/workspace/atlantis_fw/AsicFwS2/src/lcc_cmd_base_0000.c **** 	        p_cmd.cmd_tid = in->tid;
 4394              		.loc 1 1410 0
 4395 0242 6B89     		ldrh	r3, [r5, #10]
 4396 0244 ADF83030 		strh	r3, [sp, #48]	@ movhi
1411:/home/tienluong/workspace/atlantis_fw/AsicFwS2/src/lcc_cmd_base_0000.c **** 	        p_cmd.event = AF_EVENT_AFAE;
 4397              		.loc 1 1411 0
 4398 0248 4FF48053 		mov	r3, #4096
1412:/home/tienluong/workspace/atlantis_fw/AsicFwS2/src/lcc_cmd_base_0000.c **** 	        if (xQueueSend(light_system->af_ctrl->queue, &p_cmd, (TickType_t)10) == pdPASS)
 4399              		.loc 1 1412 0
 4400 024c 0CA9     		add	r1, sp, #48
1411:/home/tienluong/workspace/atlantis_fw/AsicFwS2/src/lcc_cmd_base_0000.c **** 	        p_cmd.event = AF_EVENT_AFAE;
 4401              		.loc 1 1411 0
 4402 024e 0D93     		str	r3, [sp, #52]
 4403              		.loc 1 1412 0
 4404 0250 5A46     		mov	r2, fp
 4405 0252 D9F80430 		ldr	r3, [r9, #4]
 4406 0256 1B4C     		ldr	r4, .L315+64
 4407              	.LVL498:
 4408 0258 1868     		ldr	r0, [r3]
 4409 025a 4346     		mov	r3, r8
 4410 025c A047     		blx	r4
 4411              	.LVL499:
 4412 025e 0128     		cmp	r0, #1
 4413 0260 02D1     		bne	.L310
1413:/home/tienluong/workspace/atlantis_fw/AsicFwS2/src/lcc_cmd_base_0000.c **** 	            in->status = LCC_CMD_PENDING;
 4414              		.loc 1 1413 0
 4415 0262 A5F810A0 		strh	r10, [r5, #16]	@ movhi
 4416 0266 05E0     		b	.L306
 4417              	.L310:
1414:/home/tienluong/workspace/atlantis_fw/AsicFwS2/src/lcc_cmd_base_0000.c **** 	        else
1415:/home/tienluong/workspace/atlantis_fw/AsicFwS2/src/lcc_cmd_base_0000.c **** 	        {
1416:/home/tienluong/workspace/atlantis_fw/AsicFwS2/src/lcc_cmd_base_0000.c **** 	            SLOGF(SLOG_ERROR, "Failed to queue AF command");
 4418              		.loc 1 1416 0
 4419 0268 2120     		movs	r0, #33
 4420 026a 5146     		mov	r1, r10
 4421 026c 164A     		ldr	r2, .L315+68
 4422 026e B847     		blx	r7
 4423              	.LVL500:
1417:/home/tienluong/workspace/atlantis_fw/AsicFwS2/src/lcc_cmd_base_0000.c **** 	            in->status = LCC_CMD_UNSUCCESS;
 4424              		.loc 1 1417 0
 4425 0270 A5F81080 		strh	r8, [r5, #16]	@ movhi
 4426              	.LVL501:
 4427              	.L306:
 4428              	.LBE22:
 4429              	.LBE21:
1418:/home/tienluong/workspace/atlantis_fw/AsicFwS2/src/lcc_cmd_base_0000.c **** 	        }
1419:/home/tienluong/workspace/atlantis_fw/AsicFwS2/src/lcc_cmd_base_0000.c **** 		}
1420:/home/tienluong/workspace/atlantis_fw/AsicFwS2/src/lcc_cmd_base_0000.c **** 	}
1421:/home/tienluong/workspace/atlantis_fw/AsicFwS2/src/lcc_cmd_base_0000.c **** 
1422:/home/tienluong/workspace/atlantis_fw/AsicFwS2/src/lcc_cmd_base_0000.c **** 	SLOGF(SLOG_DEBUG, "Exiting %s", __FUNCTION__);
 4430              		.loc 1 1422 0
 4431 0274 2120     		movs	r0, #33
 4432 0276 1021     		movs	r1, #16
 4433 0278 144A     		ldr	r2, .L315+72
 4434 027a 034B     		ldr	r3, .L315+4
 4435 027c B847     		blx	r7
 4436              	.LVL502:
 4437              	.L297:
1423:/home/tienluong/workspace/atlantis_fw/AsicFwS2/src/lcc_cmd_base_0000.c **** 	/* The command status will be updated in either lcc_cmd task
1424:/home/tienluong/workspace/atlantis_fw/AsicFwS2/src/lcc_cmd_base_0000.c **** 	 * (read command) or task_cam_ctrl (write command) */
1425:/home/tienluong/workspace/atlantis_fw/AsicFwS2/src/lcc_cmd_base_0000.c **** }
 4438              		.loc 1 1425 0
 4439 027e 0FB0     		add	sp, sp, #60
 4440              	.LCFI38:
 4441              		.cfi_def_cfa_offset 36
 4442              		@ sp needed
 4443 0280 BDE8F08F 		pop	{r4, r5, r6, r7, r8, r9, r10, fp, pc}
 4444              	.L316:
 4445              		.align	2
 4446              	.L315:
 4447 0284 99010000 		.word	.LC18
 4448 0288 00000000 		.word	.LANCHOR17
 4449 028c 00000000 		.word	light_system
 4450 0290 A5010000 		.word	.LC19
 4451 0294 00000000 		.word	pvPortMalloc1
 4452 0298 00000000 		.word	.LC0
 4453 029c B9010000 		.word	.LC20
 4454 02a0 00000000 		.word	memcpy
 4455 02a4 CA010000 		.word	.LC21
 4456 02a8 D6010000 		.word	.LC22
 4457 02ac 16020000 		.word	.LC23
 4458 02b0 22020000 		.word	.LC24
 4459 02b4 40020000 		.word	.LC25
 4460 02b8 60020000 		.word	.LC26
 4461 02bc 89020000 		.word	.LC27
 4462 02c0 A4020000 		.word	.LC28
 4463 02c4 00000000 		.word	xQueueGenericSend
 4464 02c8 BF020000 		.word	.LC29
 4465 02cc DA020000 		.word	.LC30
 4466 02d0 00000000 		.word	slogf
 4467              		.cfi_endproc
 4468              	.LFE18:
 4470              		.section	.text.cmd_cam_roi_transfer,"ax",%progbits
 4471              		.align	1
 4472              		.global	cmd_cam_roi_transfer
 4473              		.thumb
 4474              		.thumb_func
 4476              	cmd_cam_roi_transfer:
 4477              	.LFB19:
1426:/home/tienluong/workspace/atlantis_fw/AsicFwS2/src/lcc_cmd_base_0000.c **** /**
1427:/home/tienluong/workspace/atlantis_fw/AsicFwS2/src/lcc_cmd_base_0000.c ****  * cmd_cam_roi_transfer
1428:/home/tienluong/workspace/atlantis_fw/AsicFwS2/src/lcc_cmd_base_0000.c ****  *
1429:/home/tienluong/workspace/atlantis_fw/AsicFwS2/src/lcc_cmd_base_0000.c ****  */
1430:/home/tienluong/workspace/atlantis_fw/AsicFwS2/src/lcc_cmd_base_0000.c **** void cmd_cam_roi_transfer(lcc_cmd_t *in, lcc_cmd_t *out)
1431:/home/tienluong/workspace/atlantis_fw/AsicFwS2/src/lcc_cmd_base_0000.c **** {
 4478              		.loc 1 1431 0
 4479              		.cfi_startproc
 4480              		@ args = 0, pretend = 0, frame = 24
 4481              		@ frame_needed = 0, uses_anonymous_args = 0
 4482              	.LVL503:
 4483 0000 2DE9F04F 		push	{r4, r5, r6, r7, r8, r9, r10, fp, lr}
 4484              	.LCFI39:
 4485              		.cfi_def_cfa_offset 36
 4486              		.cfi_offset 4, -36
 4487              		.cfi_offset 5, -32
 4488              		.cfi_offset 6, -28
 4489              		.cfi_offset 7, -24
 4490              		.cfi_offset 8, -20
 4491              		.cfi_offset 9, -16
 4492              		.cfi_offset 10, -12
 4493              		.cfi_offset 11, -8
 4494              		.cfi_offset 14, -4
1432:/home/tienluong/workspace/atlantis_fw/AsicFwS2/src/lcc_cmd_base_0000.c ****     cam_typedef_t *p_cam;
1433:/home/tienluong/workspace/atlantis_fw/AsicFwS2/src/lcc_cmd_base_0000.c ****     //lcc_cmd_info_t cmd = (lcc_cmd_info_t)(LCC_CMD_CAM_ROI_TRANSFER);
1434:/home/tienluong/workspace/atlantis_fw/AsicFwS2/src/lcc_cmd_base_0000.c ****     uint32_t m_bitmask = in->m_bitmask;
1435:/home/tienluong/workspace/atlantis_fw/AsicFwS2/src/lcc_cmd_base_0000.c ****     uint8_t i, cam_idx, data_cnt = 0;
1436:/home/tienluong/workspace/atlantis_fw/AsicFwS2/src/lcc_cmd_base_0000.c **** 
1437:/home/tienluong/workspace/atlantis_fw/AsicFwS2/src/lcc_cmd_base_0000.c ****     SLOGF(SLOG_DEBUG, "Entering %s", __FUNCTION__);
 4495              		.loc 1 1437 0
 4496 0004 494B     		ldr	r3, .L338
1431:/home/tienluong/workspace/atlantis_fw/AsicFwS2/src/lcc_cmd_base_0000.c ****     cam_typedef_t *p_cam;
 4497              		.loc 1 1431 0
 4498 0006 0446     		mov	r4, r0
1434:/home/tienluong/workspace/atlantis_fw/AsicFwS2/src/lcc_cmd_base_0000.c ****     uint8_t i, cam_idx, data_cnt = 0;
 4499              		.loc 1 1434 0
 4500 0008 0768     		ldr	r7, [r0]
 4501              	.LVL504:
1431:/home/tienluong/workspace/atlantis_fw/AsicFwS2/src/lcc_cmd_base_0000.c ****     cam_typedef_t *p_cam;
 4502              		.loc 1 1431 0
 4503 000a 8DB0     		sub	sp, sp, #52
 4504              	.LCFI40:
 4505              		.cfi_def_cfa_offset 88
 4506              		.loc 1 1437 0
 4507 000c 2120     		movs	r0, #33
 4508              	.LVL505:
 4509 000e 1021     		movs	r1, #16
 4510              	.LVL506:
 4511 0010 474A     		ldr	r2, .L338+4
 4512 0012 484D     		ldr	r5, .L338+8
 4513 0014 A847     		blx	r5
 4514              	.LVL507:
1438:/home/tienluong/workspace/atlantis_fw/AsicFwS2/src/lcc_cmd_base_0000.c **** 
1439:/home/tienluong/workspace/atlantis_fw/AsicFwS2/src/lcc_cmd_base_0000.c ****     /* Only write supported */
1440:/home/tienluong/workspace/atlantis_fw/AsicFwS2/src/lcc_cmd_base_0000.c ****     assert(CMD_WRITE == in->action);
 4515              		.loc 1 1440 0
 4516 0016 E37C     		ldrb	r3, [r4, #19]	@ zero_extendqisi2
 4517 0018 DB07     		lsls	r3, r3, #31
 4518 001a 04D5     		bpl	.L318
 4519              		.loc 1 1440 0 is_stmt 0 discriminator 1
 4520 001c 4348     		ldr	r0, .L338
 4521 001e 4FF4B461 		mov	r1, #1440
 4522 0022 454B     		ldr	r3, .L338+12
 4523 0024 9847     		blx	r3
 4524              	.LVL508:
 4525              	.L318:
1441:/home/tienluong/workspace/atlantis_fw/AsicFwS2/src/lcc_cmd_base_0000.c **** 
1442:/home/tienluong/workspace/atlantis_fw/AsicFwS2/src/lcc_cmd_base_0000.c ****     roi_transfer_t roi_transfer;
1443:/home/tienluong/workspace/atlantis_fw/AsicFwS2/src/lcc_cmd_base_0000.c ****     SLOGF(SLOG_DEBUG, "Set ROI transfer");
 4526              		.loc 1 1443 0 is_stmt 1
 4527 0026 2120     		movs	r0, #33
 4528 0028 1021     		movs	r1, #16
 4529 002a 444A     		ldr	r2, .L338+16
1444:/home/tienluong/workspace/atlantis_fw/AsicFwS2/src/lcc_cmd_base_0000.c ****     uint8_t n_bytes = sizeof(roi_transfer.distance_mm);
1445:/home/tienluong/workspace/atlantis_fw/AsicFwS2/src/lcc_cmd_base_0000.c ****     memcpy(&roi_transfer.distance_mm, in->data+data_cnt, n_bytes);
1446:/home/tienluong/workspace/atlantis_fw/AsicFwS2/src/lcc_cmd_base_0000.c ****     data_cnt += n_bytes;
1447:/home/tienluong/workspace/atlantis_fw/AsicFwS2/src/lcc_cmd_base_0000.c ****     n_bytes = sizeof(roi_transfer.ref_mod_idx);
1448:/home/tienluong/workspace/atlantis_fw/AsicFwS2/src/lcc_cmd_base_0000.c ****     memcpy(&roi_transfer.ref_mod_idx, in->data+data_cnt, n_bytes);
1449:/home/tienluong/workspace/atlantis_fw/AsicFwS2/src/lcc_cmd_base_0000.c ****     data_cnt += n_bytes;
1450:/home/tienluong/workspace/atlantis_fw/AsicFwS2/src/lcc_cmd_base_0000.c ****     n_bytes = sizeof(roi_transfer.ref_mod_roi);
1451:/home/tienluong/workspace/atlantis_fw/AsicFwS2/src/lcc_cmd_base_0000.c ****     memcpy(&roi_transfer.ref_mod_roi, in->data+data_cnt, n_bytes);
1452:/home/tienluong/workspace/atlantis_fw/AsicFwS2/src/lcc_cmd_base_0000.c ****     data_cnt += n_bytes;
1453:/home/tienluong/workspace/atlantis_fw/AsicFwS2/src/lcc_cmd_base_0000.c **** 
1454:/home/tienluong/workspace/atlantis_fw/AsicFwS2/src/lcc_cmd_base_0000.c ****     /* TODO: Take semaphore to access settings memory */
1455:/home/tienluong/workspace/atlantis_fw/AsicFwS2/src/lcc_cmd_base_0000.c ****     light_system->settings->roi_transfer  = roi_transfer;
1456:/home/tienluong/workspace/atlantis_fw/AsicFwS2/src/lcc_cmd_base_0000.c ****     /* TODO: Release semaphore after read data */
1457:/home/tienluong/workspace/atlantis_fw/AsicFwS2/src/lcc_cmd_base_0000.c **** 
1458:/home/tienluong/workspace/atlantis_fw/AsicFwS2/src/lcc_cmd_base_0000.c ****     SLOGF(SLOG_DEBUG, "ROI transfer distance: %u, ref_mod_idx: %u, roi_left_x: %u, roi_top_y: %u, w
1459:/home/tienluong/workspace/atlantis_fw/AsicFwS2/src/lcc_cmd_base_0000.c ****           (unsigned int)roi_transfer.distance_mm, (unsigned int)roi_transfer.ref_mod_idx,
1460:/home/tienluong/workspace/atlantis_fw/AsicFwS2/src/lcc_cmd_base_0000.c ****           (unsigned int)roi_transfer.ref_mod_roi.left_x, (unsigned int)roi_transfer.ref_mod_roi.top
1461:/home/tienluong/workspace/atlantis_fw/AsicFwS2/src/lcc_cmd_base_0000.c ****           (unsigned int)roi_transfer.ref_mod_roi.width, (unsigned int)roi_transfer.ref_mod_roi.heig
1462:/home/tienluong/workspace/atlantis_fw/AsicFwS2/src/lcc_cmd_base_0000.c **** 
1463:/home/tienluong/workspace/atlantis_fw/AsicFwS2/src/lcc_cmd_base_0000.c ****     uint32_t events_to_set = 0;
1464:/home/tienluong/workspace/atlantis_fw/AsicFwS2/src/lcc_cmd_base_0000.c ****     /* Scan camera bitmask */
1465:/home/tienluong/workspace/atlantis_fw/AsicFwS2/src/lcc_cmd_base_0000.c ****     for (i = 0; i < in->m_number; i++)
 4530              		.loc 1 1465 0
 4531 002c 4FF00009 		mov	r9, #0
1443:/home/tienluong/workspace/atlantis_fw/AsicFwS2/src/lcc_cmd_base_0000.c ****     uint8_t n_bytes = sizeof(roi_transfer.distance_mm);
 4532              		.loc 1 1443 0
 4533 0030 A847     		blx	r5
 4534              	.LVL509:
1445:/home/tienluong/workspace/atlantis_fw/AsicFwS2/src/lcc_cmd_base_0000.c ****     data_cnt += n_bytes;
 4535              		.loc 1 1445 0
 4536 0032 6368     		ldr	r3, [r4, #4]
1448:/home/tienluong/workspace/atlantis_fw/AsicFwS2/src/lcc_cmd_base_0000.c ****     data_cnt += n_bytes;
 4537              		.loc 1 1448 0
 4538 0034 93F804E0 		ldrb	lr, [r3, #4]	@ zero_extendqisi2
 4539 0038 8DF824E0 		strb	lr, [sp, #36]
1445:/home/tienluong/workspace/atlantis_fw/AsicFwS2/src/lcc_cmd_base_0000.c ****     data_cnt += n_bytes;
 4540              		.loc 1 1445 0
 4541 003c 1868     		ldr	r0, [r3]	@ unaligned
1451:/home/tienluong/workspace/atlantis_fw/AsicFwS2/src/lcc_cmd_base_0000.c ****     data_cnt += n_bytes;
 4542              		.loc 1 1451 0
 4543 003e 53F8052F 		ldr	r2, [r3, #5]!	@ unaligned
 4544 0042 CDF82620 		str	r2, [sp, #38]	@ unaligned
1445:/home/tienluong/workspace/atlantis_fw/AsicFwS2/src/lcc_cmd_base_0000.c ****     data_cnt += n_bytes;
 4545              		.loc 1 1445 0
 4546 0046 0890     		str	r0, [sp, #32]	@ unaligned
 4547              	.LVL510:
1451:/home/tienluong/workspace/atlantis_fw/AsicFwS2/src/lcc_cmd_base_0000.c ****     data_cnt += n_bytes;
 4548              		.loc 1 1451 0
 4549 0048 5A68     		ldr	r2, [r3, #4]	@ unaligned
1455:/home/tienluong/workspace/atlantis_fw/AsicFwS2/src/lcc_cmd_base_0000.c ****     /* TODO: Release semaphore after read data */
 4550              		.loc 1 1455 0
 4551 004a 3D4B     		ldr	r3, .L338+20
1451:/home/tienluong/workspace/atlantis_fw/AsicFwS2/src/lcc_cmd_base_0000.c ****     data_cnt += n_bytes;
 4552              		.loc 1 1451 0
 4553 004c CDF82A20 		str	r2, [sp, #42]	@ unaligned
 4554              	.LVL511:
1455:/home/tienluong/workspace/atlantis_fw/AsicFwS2/src/lcc_cmd_base_0000.c ****     /* TODO: Release semaphore after read data */
 4555              		.loc 1 1455 0
 4556 0050 D3F80080 		ldr	r8, [r3]
 4557 0054 0CAB     		add	r3, sp, #48
 4558 0056 D8F80860 		ldr	r6, [r8, #8]
 4559 005a 13E90F00 		ldmdb	r3, {r0, r1, r2, r3}
 4560 005e 9036     		adds	r6, r6, #144
 4561 0060 86E80F00 		stmia	r6, {r0, r1, r2, r3}
1458:/home/tienluong/workspace/atlantis_fw/AsicFwS2/src/lcc_cmd_base_0000.c ****           (unsigned int)roi_transfer.distance_mm, (unsigned int)roi_transfer.ref_mod_idx,
 4562              		.loc 1 1458 0
 4563 0064 BDF92630 		ldrsh	r3, [sp, #38]
 4564 0068 2120     		movs	r0, #33
 4565 006a 0193     		str	r3, [sp, #4]
 4566 006c 1021     		movs	r1, #16
 4567 006e BDF92830 		ldrsh	r3, [sp, #40]
 4568 0072 344A     		ldr	r2, .L338+24
 4569 0074 0293     		str	r3, [sp, #8]
 4570 0076 BDF82A30 		ldrh	r3, [sp, #42]
 4571 007a 0393     		str	r3, [sp, #12]
 4572 007c BDF82C30 		ldrh	r3, [sp, #44]
 4573 0080 0493     		str	r3, [sp, #16]
1463:/home/tienluong/workspace/atlantis_fw/AsicFwS2/src/lcc_cmd_base_0000.c ****     /* Scan camera bitmask */
 4574              		.loc 1 1463 0
 4575 0082 4E46     		mov	r6, r9
1458:/home/tienluong/workspace/atlantis_fw/AsicFwS2/src/lcc_cmd_base_0000.c ****           (unsigned int)roi_transfer.distance_mm, (unsigned int)roi_transfer.ref_mod_idx,
 4576              		.loc 1 1458 0
 4577 0084 089B     		ldr	r3, [sp, #32]
 4578 0086 CDF800E0 		str	lr, [sp]
 4579 008a A847     		blx	r5
 4580              	.LVL512:
 4581              	.L319:
 4582              		.loc 1 1465 0 discriminator 1
 4583 008c 5FFA89F3 		uxtb	r3, r9
 4584 0090 A27C     		ldrb	r2, [r4, #18]	@ zero_extendqisi2
 4585 0092 9A42     		cmp	r2, r3
 4586 0094 2AD9     		bls	.L337
1466:/home/tienluong/workspace/atlantis_fw/AsicFwS2/src/lcc_cmd_base_0000.c ****     {
1467:/home/tienluong/workspace/atlantis_fw/AsicFwS2/src/lcc_cmd_base_0000.c ****         cam_idx = __builtin_ctz(m_bitmask);
1468:/home/tienluong/workspace/atlantis_fw/AsicFwS2/src/lcc_cmd_base_0000.c ****         m_bitmask &= ~(1 << cam_idx);
 4587              		.loc 1 1468 0
 4588 0096 4FF0010A 		mov	r10, #1
1467:/home/tienluong/workspace/atlantis_fw/AsicFwS2/src/lcc_cmd_base_0000.c ****         m_bitmask &= ~(1 << cam_idx);
 4589              		.loc 1 1467 0
 4590 009a 97FAA7F0 		rbit	r0, r7
1469:/home/tienluong/workspace/atlantis_fw/AsicFwS2/src/lcc_cmd_base_0000.c ****         /* Get camera object from camera object list */
1470:/home/tienluong/workspace/atlantis_fw/AsicFwS2/src/lcc_cmd_base_0000.c ****         p_cam = idx_to_object(cam_idx);
 4591              		.loc 1 1470 0
 4592 009e 2A4B     		ldr	r3, .L338+28
1467:/home/tienluong/workspace/atlantis_fw/AsicFwS2/src/lcc_cmd_base_0000.c ****         m_bitmask &= ~(1 << cam_idx);
 4593              		.loc 1 1467 0
 4594 00a0 B0FA80F0 		clz	r0, r0
 4595              	.LVL513:
1468:/home/tienluong/workspace/atlantis_fw/AsicFwS2/src/lcc_cmd_base_0000.c ****         /* Get camera object from camera object list */
 4596              		.loc 1 1468 0
 4597 00a4 0AFA00FA 		lsl	r10, r10, r0
 4598              		.loc 1 1470 0
 4599 00a8 9847     		blx	r3
 4600              	.LVL514:
1468:/home/tienluong/workspace/atlantis_fw/AsicFwS2/src/lcc_cmd_base_0000.c ****         /* Get camera object from camera object list */
 4601              		.loc 1 1468 0
 4602 00aa 27EA0A07 		bic	r7, r7, r10
 4603              	.LVL515:
1471:/home/tienluong/workspace/atlantis_fw/AsicFwS2/src/lcc_cmd_base_0000.c ****         if (NULL == p_cam)  /*Verify object is valid */
 4604              		.loc 1 1471 0
 4605 00ae 8346     		mov	fp, r0
 4606 00b0 10B9     		cbnz	r0, .L320
1472:/home/tienluong/workspace/atlantis_fw/AsicFwS2/src/lcc_cmd_base_0000.c ****         {
1473:/home/tienluong/workspace/atlantis_fw/AsicFwS2/src/lcc_cmd_base_0000.c ****             in->status = LCC_CMD_ERROR_INVALID_MBITMASK;
 4607              		.loc 1 1473 0
 4608 00b2 0823     		movs	r3, #8
 4609 00b4 2382     		strh	r3, [r4, #16]	@ movhi
 4610 00b6 35E0     		b	.L317
 4611              	.L320:
1474:/home/tienluong/workspace/atlantis_fw/AsicFwS2/src/lcc_cmd_base_0000.c ****             return;
1475:/home/tienluong/workspace/atlantis_fw/AsicFwS2/src/lcc_cmd_base_0000.c ****         }
1476:/home/tienluong/workspace/atlantis_fw/AsicFwS2/src/lcc_cmd_base_0000.c **** 
1477:/home/tienluong/workspace/atlantis_fw/AsicFwS2/src/lcc_cmd_base_0000.c ****         SLOGF(SLOG_DEBUG, "Set ROI transfer for CAM-%X", p_cam->info.module);
 4612              		.loc 1 1477 0
 4613 00b8 244A     		ldr	r2, .L338+32
 4614 00ba 9BF82930 		ldrb	r3, [fp, #41]	@ zero_extendqisi2
 4615 00be 2120     		movs	r0, #33
 4616              	.LVL516:
 4617 00c0 1021     		movs	r1, #16
 4618 00c2 A847     		blx	r5
 4619              	.LVL517:
1478:/home/tienluong/workspace/atlantis_fw/AsicFwS2/src/lcc_cmd_base_0000.c ****         if (light_system->m_filter & (1 << cam_idx))
 4620              		.loc 1 1478 0
 4621 00c4 D8F81830 		ldr	r3, [r8, #24]
 4622 00c8 1AEA030F 		tst	r10, r3
1479:/home/tienluong/workspace/atlantis_fw/AsicFwS2/src/lcc_cmd_base_0000.c ****         {
1480:/home/tienluong/workspace/atlantis_fw/AsicFwS2/src/lcc_cmd_base_0000.c ****             events_to_set |= (AF_EVENT_ROI_TRANSFER_CH0 << (p_cam->info.ch - 1));
 4623              		.loc 1 1480 0
 4624 00cc 1FBF     		itttt	ne
 4625 00ce 9BF82830 		ldrbne	r3, [fp, #40]	@ zero_extendqisi2
 4626 00d2 4022     		movne	r2, #64
 4627 00d4 03F00F03 		andne	r3, r3, #15
 4628 00d8 03F1FF33 		addne	r3, r3, #-1
 4629 00dc 1CBF     		itt	ne
 4630 00de 02FA03F3 		lslne	r3, r2, r3
 4631 00e2 1E43     		orrne	r6, r6, r3
 4632              	.LVL518:
1481:/home/tienluong/workspace/atlantis_fw/AsicFwS2/src/lcc_cmd_base_0000.c ****         }
1482:/home/tienluong/workspace/atlantis_fw/AsicFwS2/src/lcc_cmd_base_0000.c **** 
1483:/home/tienluong/workspace/atlantis_fw/AsicFwS2/src/lcc_cmd_base_0000.c ****         /* Update command status */
1484:/home/tienluong/workspace/atlantis_fw/AsicFwS2/src/lcc_cmd_base_0000.c ****         in->status = LCC_CMD_SUCCESS;
 4633              		.loc 1 1484 0
 4634 00e4 0123     		movs	r3, #1
 4635 00e6 9944     		add	r9, r9, r3
 4636              	.LVL519:
 4637 00e8 2382     		strh	r3, [r4, #16]	@ movhi
 4638 00ea CFE7     		b	.L319
 4639              	.LVL520:
 4640              	.L337:
1485:/home/tienluong/workspace/atlantis_fw/AsicFwS2/src/lcc_cmd_base_0000.c ****     }
1486:/home/tienluong/workspace/atlantis_fw/AsicFwS2/src/lcc_cmd_base_0000.c ****     if (events_to_set != 0)
 4641              		.loc 1 1486 0
 4642 00ec AEB1     		cbz	r6, .L324
 4643              	.LBB23:
1487:/home/tienluong/workspace/atlantis_fw/AsicFwS2/src/lcc_cmd_base_0000.c ****     {
1488:/home/tienluong/workspace/atlantis_fw/AsicFwS2/src/lcc_cmd_base_0000.c ****         lcc_cmd_tid_t p_cmd;
1489:/home/tienluong/workspace/atlantis_fw/AsicFwS2/src/lcc_cmd_base_0000.c ****         p_cmd.cmd_tid = in->tid;
 4644              		.loc 1 1489 0
 4645 00ee 6389     		ldrh	r3, [r4, #10]
 4646 00f0 ADF81830 		strh	r3, [sp, #24]	@ movhi
1490:/home/tienluong/workspace/atlantis_fw/AsicFwS2/src/lcc_cmd_base_0000.c ****         p_cmd.event = events_to_set;
1491:/home/tienluong/workspace/atlantis_fw/AsicFwS2/src/lcc_cmd_base_0000.c ****         if (xQueueSend(light_system->af_ctrl->queue, &p_cmd, (TickType_t)10) == pdPASS)
 4647              		.loc 1 1491 0
 4648 00f4 D8F80430 		ldr	r3, [r8, #4]
 4649 00f8 06A9     		add	r1, sp, #24
1490:/home/tienluong/workspace/atlantis_fw/AsicFwS2/src/lcc_cmd_base_0000.c ****         p_cmd.event = events_to_set;
 4650              		.loc 1 1490 0
 4651 00fa 0796     		str	r6, [sp, #28]
 4652              		.loc 1 1491 0
 4653 00fc 0A22     		movs	r2, #10
 4654 00fe 144E     		ldr	r6, .L338+36
 4655              	.LVL521:
 4656 0100 1868     		ldr	r0, [r3]
 4657 0102 0023     		movs	r3, #0
 4658 0104 B047     		blx	r6
 4659              	.LVL522:
 4660 0106 0128     		cmp	r0, #1
 4661 0108 01D1     		bne	.L325
1492:/home/tienluong/workspace/atlantis_fw/AsicFwS2/src/lcc_cmd_base_0000.c ****             in->status = LCC_CMD_PENDING;
 4662              		.loc 1 1492 0
 4663 010a 0223     		movs	r3, #2
 4664 010c 04E0     		b	.L336
 4665              	.L325:
1493:/home/tienluong/workspace/atlantis_fw/AsicFwS2/src/lcc_cmd_base_0000.c ****         else
1494:/home/tienluong/workspace/atlantis_fw/AsicFwS2/src/lcc_cmd_base_0000.c ****         {
1495:/home/tienluong/workspace/atlantis_fw/AsicFwS2/src/lcc_cmd_base_0000.c ****             SLOGF(SLOG_ERROR, "Failed to queue AF command");
 4666              		.loc 1 1495 0
 4667 010e 2120     		movs	r0, #33
 4668 0110 0221     		movs	r1, #2
 4669 0112 104A     		ldr	r2, .L338+40
 4670 0114 A847     		blx	r5
 4671              	.LVL523:
1496:/home/tienluong/workspace/atlantis_fw/AsicFwS2/src/lcc_cmd_base_0000.c ****             in->status = LCC_CMD_UNSUCCESS;
 4672              		.loc 1 1496 0
 4673 0116 0023     		movs	r3, #0
 4674              	.L336:
 4675 0118 2382     		strh	r3, [r4, #16]	@ movhi
 4676              	.L324:
 4677              	.LBE23:
1497:/home/tienluong/workspace/atlantis_fw/AsicFwS2/src/lcc_cmd_base_0000.c ****         }
1498:/home/tienluong/workspace/atlantis_fw/AsicFwS2/src/lcc_cmd_base_0000.c ****     }
1499:/home/tienluong/workspace/atlantis_fw/AsicFwS2/src/lcc_cmd_base_0000.c **** 
1500:/home/tienluong/workspace/atlantis_fw/AsicFwS2/src/lcc_cmd_base_0000.c ****     SLOGF(SLOG_DEBUG, "Exiting %s", __FUNCTION__);
 4678              		.loc 1 1500 0 discriminator 1
 4679 011a 2120     		movs	r0, #33
 4680 011c 1021     		movs	r1, #16
 4681 011e 0E4A     		ldr	r2, .L338+44
 4682 0120 024B     		ldr	r3, .L338
 4683 0122 A847     		blx	r5
 4684              	.LVL524:
 4685              	.L317:
1501:/home/tienluong/workspace/atlantis_fw/AsicFwS2/src/lcc_cmd_base_0000.c **** }
 4686              		.loc 1 1501 0
 4687 0124 0DB0     		add	sp, sp, #52
 4688              	.LCFI41:
 4689              		.cfi_def_cfa_offset 36
 4690              		@ sp needed
 4691 0126 BDE8F08F 		pop	{r4, r5, r6, r7, r8, r9, r10, fp, pc}
 4692              	.LVL525:
 4693              	.L339:
 4694 012a 00BF     		.align	2
 4695              	.L338:
 4696 012c 00000000 		.word	.LANCHOR18
 4697 0130 99010000 		.word	.LC18
 4698 0134 00000000 		.word	slogf
 4699 0138 00000000 		.word	assert_failed
 4700 013c E5020000 		.word	.LC31
 4701 0140 00000000 		.word	light_system
 4702 0144 F6020000 		.word	.LC32
 4703 0148 00000000 		.word	idx_to_object
 4704 014c 57030000 		.word	.LC33
 4705 0150 00000000 		.word	xQueueGenericSend
 4706 0154 BF020000 		.word	.LC29
 4707 0158 DA020000 		.word	.LC30
 4708              		.cfi_endproc
 4709              	.LFE19:
 4711              		.section	.text.cmd_cam_roi_calibration,"ax",%progbits
 4712              		.align	1
 4713              		.global	cmd_cam_roi_calibration
 4714              		.thumb
 4715              		.thumb_func
 4717              	cmd_cam_roi_calibration:
 4718              	.LFB20:
1502:/home/tienluong/workspace/atlantis_fw/AsicFwS2/src/lcc_cmd_base_0000.c **** /**
1503:/home/tienluong/workspace/atlantis_fw/AsicFwS2/src/lcc_cmd_base_0000.c ****  * cmd_roi_calibration
1504:/home/tienluong/workspace/atlantis_fw/AsicFwS2/src/lcc_cmd_base_0000.c ****  *
1505:/home/tienluong/workspace/atlantis_fw/AsicFwS2/src/lcc_cmd_base_0000.c ****  */
1506:/home/tienluong/workspace/atlantis_fw/AsicFwS2/src/lcc_cmd_base_0000.c **** void cmd_cam_roi_calibration(lcc_cmd_t *in, lcc_cmd_t *out)
1507:/home/tienluong/workspace/atlantis_fw/AsicFwS2/src/lcc_cmd_base_0000.c **** {
 4719              		.loc 1 1507 0
 4720              		.cfi_startproc
 4721              		@ args = 0, pretend = 0, frame = 16
 4722              		@ frame_needed = 0, uses_anonymous_args = 0
 4723              	.LVL526:
 4724 0000 2DE9F04F 		push	{r4, r5, r6, r7, r8, r9, r10, fp, lr}
 4725              	.LCFI42:
 4726              		.cfi_def_cfa_offset 36
 4727              		.cfi_offset 4, -36
 4728              		.cfi_offset 5, -32
 4729              		.cfi_offset 6, -28
 4730              		.cfi_offset 7, -24
 4731              		.cfi_offset 8, -20
 4732              		.cfi_offset 9, -16
 4733              		.cfi_offset 10, -12
 4734              		.cfi_offset 11, -8
 4735              		.cfi_offset 14, -4
1508:/home/tienluong/workspace/atlantis_fw/AsicFwS2/src/lcc_cmd_base_0000.c **** 	cam_typedef_t *p_cam;
1509:/home/tienluong/workspace/atlantis_fw/AsicFwS2/src/lcc_cmd_base_0000.c **** 	lcc_cmd_info_t cmd = (lcc_cmd_info_t)(LCC_CMD_CAM_ROI_CALIBRATION);
1510:/home/tienluong/workspace/atlantis_fw/AsicFwS2/src/lcc_cmd_base_0000.c **** 	uint32_t m_bitmask = in->m_bitmask;
1511:/home/tienluong/workspace/atlantis_fw/AsicFwS2/src/lcc_cmd_base_0000.c **** 	uint8_t i, cam_idx, data_cnt = 0;
1512:/home/tienluong/workspace/atlantis_fw/AsicFwS2/src/lcc_cmd_base_0000.c **** 
1513:/home/tienluong/workspace/atlantis_fw/AsicFwS2/src/lcc_cmd_base_0000.c **** 	SLOGF(SLOG_DEBUG, "Entering %s", __FUNCTION__);
 4736              		.loc 1 1513 0
 4737 0004 684B     		ldr	r3, .L366
1507:/home/tienluong/workspace/atlantis_fw/AsicFwS2/src/lcc_cmd_base_0000.c **** 	cam_typedef_t *p_cam;
 4738              		.loc 1 1507 0
 4739 0006 0446     		mov	r4, r0
1510:/home/tienluong/workspace/atlantis_fw/AsicFwS2/src/lcc_cmd_base_0000.c **** 	uint8_t i, cam_idx, data_cnt = 0;
 4740              		.loc 1 1510 0
 4741 0008 D0F800A0 		ldr	r10, [r0]
 4742              	.LVL527:
1507:/home/tienluong/workspace/atlantis_fw/AsicFwS2/src/lcc_cmd_base_0000.c **** 	cam_typedef_t *p_cam;
 4743              		.loc 1 1507 0
 4744 000c 89B0     		sub	sp, sp, #36
 4745              	.LCFI43:
 4746              		.cfi_def_cfa_offset 72
1507:/home/tienluong/workspace/atlantis_fw/AsicFwS2/src/lcc_cmd_base_0000.c **** 	cam_typedef_t *p_cam;
 4747              		.loc 1 1507 0
 4748 000e 8846     		mov	r8, r1
 4749              		.loc 1 1513 0
 4750 0010 2120     		movs	r0, #33
 4751              	.LVL528:
 4752 0012 1021     		movs	r1, #16
 4753              	.LVL529:
 4754 0014 654A     		ldr	r2, .L366+4
 4755 0016 664E     		ldr	r6, .L366+8
 4756 0018 B047     		blx	r6
 4757              	.LVL530:
1514:/home/tienluong/workspace/atlantis_fw/AsicFwS2/src/lcc_cmd_base_0000.c **** 
1515:/home/tienluong/workspace/atlantis_fw/AsicFwS2/src/lcc_cmd_base_0000.c **** 	/* Read command processing */
1516:/home/tienluong/workspace/atlantis_fw/AsicFwS2/src/lcc_cmd_base_0000.c **** 	if (CMD_READ == in->action && in->m_number != 0)
 4758              		.loc 1 1516 0
 4759 001a E37C     		ldrb	r3, [r4, #19]	@ zero_extendqisi2
 4760 001c DB07     		lsls	r3, r3, #31
 4761 001e 03D4     		bmi	.L341
 4762              	.L343:
1517:/home/tienluong/workspace/atlantis_fw/AsicFwS2/src/lcc_cmd_base_0000.c **** 	{
1518:/home/tienluong/workspace/atlantis_fw/AsicFwS2/src/lcc_cmd_base_0000.c **** 		out->data = pvPortMalloc(in->m_number * cmd.size);
1519:/home/tienluong/workspace/atlantis_fw/AsicFwS2/src/lcc_cmd_base_0000.c **** 		if (NULL == out->data)
1520:/home/tienluong/workspace/atlantis_fw/AsicFwS2/src/lcc_cmd_base_0000.c **** 		{
1521:/home/tienluong/workspace/atlantis_fw/AsicFwS2/src/lcc_cmd_base_0000.c **** 			SLOGF(SLOG_ERROR, "%s: Lack of memory", __FUNCTION__);
1522:/home/tienluong/workspace/atlantis_fw/AsicFwS2/src/lcc_cmd_base_0000.c **** 			in->status = LCC_CMD_UNSUCCESS;
1523:/home/tienluong/workspace/atlantis_fw/AsicFwS2/src/lcc_cmd_base_0000.c **** 			return;
1524:/home/tienluong/workspace/atlantis_fw/AsicFwS2/src/lcc_cmd_base_0000.c **** 		}
1525:/home/tienluong/workspace/atlantis_fw/AsicFwS2/src/lcc_cmd_base_0000.c **** 	}
1526:/home/tienluong/workspace/atlantis_fw/AsicFwS2/src/lcc_cmd_base_0000.c **** 
1527:/home/tienluong/workspace/atlantis_fw/AsicFwS2/src/lcc_cmd_base_0000.c **** 	uint32_t events_to_set = 0;
1528:/home/tienluong/workspace/atlantis_fw/AsicFwS2/src/lcc_cmd_base_0000.c **** 	/* Scan camera bitmask */
1529:/home/tienluong/workspace/atlantis_fw/AsicFwS2/src/lcc_cmd_base_0000.c **** 	for (i = 0; i < in->m_number; i++)
1530:/home/tienluong/workspace/atlantis_fw/AsicFwS2/src/lcc_cmd_base_0000.c **** 	{
1531:/home/tienluong/workspace/atlantis_fw/AsicFwS2/src/lcc_cmd_base_0000.c **** 		cam_idx = __builtin_ctz(m_bitmask);
1532:/home/tienluong/workspace/atlantis_fw/AsicFwS2/src/lcc_cmd_base_0000.c **** 		m_bitmask &= ~(1 << cam_idx);
1533:/home/tienluong/workspace/atlantis_fw/AsicFwS2/src/lcc_cmd_base_0000.c **** 		/* Get camera object from camera object list */
1534:/home/tienluong/workspace/atlantis_fw/AsicFwS2/src/lcc_cmd_base_0000.c **** 		p_cam = idx_to_object(cam_idx);
1535:/home/tienluong/workspace/atlantis_fw/AsicFwS2/src/lcc_cmd_base_0000.c **** 		if (NULL == p_cam)	/*Verify object is valid */
1536:/home/tienluong/workspace/atlantis_fw/AsicFwS2/src/lcc_cmd_base_0000.c **** 		{
1537:/home/tienluong/workspace/atlantis_fw/AsicFwS2/src/lcc_cmd_base_0000.c **** 			in->status = LCC_CMD_ERROR_INVALID_MBITMASK;
1538:/home/tienluong/workspace/atlantis_fw/AsicFwS2/src/lcc_cmd_base_0000.c **** 			return;
1539:/home/tienluong/workspace/atlantis_fw/AsicFwS2/src/lcc_cmd_base_0000.c **** 		}
1540:/home/tienluong/workspace/atlantis_fw/AsicFwS2/src/lcc_cmd_base_0000.c **** 
1541:/home/tienluong/workspace/atlantis_fw/AsicFwS2/src/lcc_cmd_base_0000.c **** 		/* Read command processing */
1542:/home/tienluong/workspace/atlantis_fw/AsicFwS2/src/lcc_cmd_base_0000.c **** 		if (CMD_READ == in->action)
1543:/home/tienluong/workspace/atlantis_fw/AsicFwS2/src/lcc_cmd_base_0000.c **** 		{
1544:/home/tienluong/workspace/atlantis_fw/AsicFwS2/src/lcc_cmd_base_0000.c **** 			SLOGF(SLOG_DEBUG, "Get ROI calibration of CAM-%X",
1545:/home/tienluong/workspace/atlantis_fw/AsicFwS2/src/lcc_cmd_base_0000.c **** 								p_cam->info.module);
1546:/home/tienluong/workspace/atlantis_fw/AsicFwS2/src/lcc_cmd_base_0000.c **** 			/* Take semaphore to access settings memory */
1547:/home/tienluong/workspace/atlantis_fw/AsicFwS2/src/lcc_cmd_base_0000.c **** 			xSemaphoreTake(p_cam->semaphore, portMAX_DELAY);
1548:/home/tienluong/workspace/atlantis_fw/AsicFwS2/src/lcc_cmd_base_0000.c **** 			memcpy(&out->data[out->len], &p_cam->cam_common_data.roi_rectangle,
1549:/home/tienluong/workspace/atlantis_fw/AsicFwS2/src/lcc_cmd_base_0000.c **** 					cmd.size);
1550:/home/tienluong/workspace/atlantis_fw/AsicFwS2/src/lcc_cmd_base_0000.c **** 			/* Release semaphore after read data */
1551:/home/tienluong/workspace/atlantis_fw/AsicFwS2/src/lcc_cmd_base_0000.c **** 			xSemaphoreGive(p_cam->semaphore);
1552:/home/tienluong/workspace/atlantis_fw/AsicFwS2/src/lcc_cmd_base_0000.c **** 			out->len += cmd.size;
1553:/home/tienluong/workspace/atlantis_fw/AsicFwS2/src/lcc_cmd_base_0000.c **** #if(LOG_VERBOSE == STD_ON)
1554:/home/tienluong/workspace/atlantis_fw/AsicFwS2/src/lcc_cmd_base_0000.c **** 			SLOGF(SLOG_DEBUG,
1555:/home/tienluong/workspace/atlantis_fw/AsicFwS2/src/lcc_cmd_base_0000.c **** 				"ROI calib: %u, %u, %u, %u",
1556:/home/tienluong/workspace/atlantis_fw/AsicFwS2/src/lcc_cmd_base_0000.c **** 				(unsigned int)p_cam->cam_common_data.roi_rectangle.left_x,
1557:/home/tienluong/workspace/atlantis_fw/AsicFwS2/src/lcc_cmd_base_0000.c ****                 (unsigned int)p_cam->cam_common_data.roi_rectangle.top_y,
1558:/home/tienluong/workspace/atlantis_fw/AsicFwS2/src/lcc_cmd_base_0000.c ****                 (unsigned int)p_cam->cam_common_data.roi_rectangle.width,
1559:/home/tienluong/workspace/atlantis_fw/AsicFwS2/src/lcc_cmd_base_0000.c ****                 (unsigned int)p_cam->cam_common_data.roi_rectangle.height);
1560:/home/tienluong/workspace/atlantis_fw/AsicFwS2/src/lcc_cmd_base_0000.c **** #endif
1561:/home/tienluong/workspace/atlantis_fw/AsicFwS2/src/lcc_cmd_base_0000.c **** 		}
1562:/home/tienluong/workspace/atlantis_fw/AsicFwS2/src/lcc_cmd_base_0000.c **** 		/* Write command processing */
1563:/home/tienluong/workspace/atlantis_fw/AsicFwS2/src/lcc_cmd_base_0000.c **** 		else
1564:/home/tienluong/workspace/atlantis_fw/AsicFwS2/src/lcc_cmd_base_0000.c **** 		{
1565:/home/tienluong/workspace/atlantis_fw/AsicFwS2/src/lcc_cmd_base_0000.c **** 			SLOGF(SLOG_DEBUG, "Set ROI calibration for CAM-%X",
1566:/home/tienluong/workspace/atlantis_fw/AsicFwS2/src/lcc_cmd_base_0000.c **** 					p_cam->info.module);
1567:/home/tienluong/workspace/atlantis_fw/AsicFwS2/src/lcc_cmd_base_0000.c **** 			/* Take semaphore to access settings memory */
1568:/home/tienluong/workspace/atlantis_fw/AsicFwS2/src/lcc_cmd_base_0000.c **** 			xSemaphoreTake(p_cam->semaphore, portMAX_DELAY);
1569:/home/tienluong/workspace/atlantis_fw/AsicFwS2/src/lcc_cmd_base_0000.c **** 			memcpy(&p_cam->cam_common_data.roi_rectangle,
1570:/home/tienluong/workspace/atlantis_fw/AsicFwS2/src/lcc_cmd_base_0000.c **** 					&in->data[data_cnt], cmd.size);
1571:/home/tienluong/workspace/atlantis_fw/AsicFwS2/src/lcc_cmd_base_0000.c **** 			/* Release semaphore after read data */
1572:/home/tienluong/workspace/atlantis_fw/AsicFwS2/src/lcc_cmd_base_0000.c **** 			xSemaphoreGive(p_cam->semaphore);
1573:/home/tienluong/workspace/atlantis_fw/AsicFwS2/src/lcc_cmd_base_0000.c ****             if (light_system->m_filter & (1 << cam_idx))
1574:/home/tienluong/workspace/atlantis_fw/AsicFwS2/src/lcc_cmd_base_0000.c ****             {
1575:/home/tienluong/workspace/atlantis_fw/AsicFwS2/src/lcc_cmd_base_0000.c ****                 events_to_set |= (AF_EVENT_FULL_SWEEP_CH0 << (p_cam->info.ch - 1));
1576:/home/tienluong/workspace/atlantis_fw/AsicFwS2/src/lcc_cmd_base_0000.c ****             }
1577:/home/tienluong/workspace/atlantis_fw/AsicFwS2/src/lcc_cmd_base_0000.c **** 
1578:/home/tienluong/workspace/atlantis_fw/AsicFwS2/src/lcc_cmd_base_0000.c **** 			/* Set data pointer when command was set for global */
1579:/home/tienluong/workspace/atlantis_fw/AsicFwS2/src/lcc_cmd_base_0000.c **** 			data_cnt += in->global ? 0 : cmd.size;
 4763              		.loc 1 1579 0
 4764 0020 0027     		movs	r7, #0
 4765 0022 B946     		mov	r9, r7
 4766 0024 BB46     		mov	fp, r7
 4767 0026 50E0     		b	.L342
 4768              	.L341:
1516:/home/tienluong/workspace/atlantis_fw/AsicFwS2/src/lcc_cmd_base_0000.c **** 	{
 4769              		.loc 1 1516 0 discriminator 1
 4770 0028 A07C     		ldrb	r0, [r4, #18]	@ zero_extendqisi2
 4771 002a 0028     		cmp	r0, #0
 4772 002c F8D0     		beq	.L343
1518:/home/tienluong/workspace/atlantis_fw/AsicFwS2/src/lcc_cmd_base_0000.c **** 		if (NULL == out->data)
 4773              		.loc 1 1518 0
 4774 002e C000     		lsls	r0, r0, #3
 4775 0030 5D49     		ldr	r1, .L366
 4776 0032 40F2EE52 		movw	r2, #1518
 4777 0036 5F4B     		ldr	r3, .L366+12
 4778 0038 9847     		blx	r3
 4779              	.LVL531:
 4780 003a 0546     		mov	r5, r0
 4781 003c C8F80400 		str	r0, [r8, #4]
1519:/home/tienluong/workspace/atlantis_fw/AsicFwS2/src/lcc_cmd_base_0000.c **** 		{
 4782              		.loc 1 1519 0
 4783 0040 0028     		cmp	r0, #0
 4784 0042 EDD1     		bne	.L343
1521:/home/tienluong/workspace/atlantis_fw/AsicFwS2/src/lcc_cmd_base_0000.c **** 			in->status = LCC_CMD_UNSUCCESS;
 4785              		.loc 1 1521 0
 4786 0044 2120     		movs	r0, #33
 4787 0046 0221     		movs	r1, #2
 4788 0048 5B4A     		ldr	r2, .L366+16
 4789 004a 574B     		ldr	r3, .L366
 4790 004c B047     		blx	r6
 4791              	.LVL532:
1522:/home/tienluong/workspace/atlantis_fw/AsicFwS2/src/lcc_cmd_base_0000.c **** 			return;
 4792              		.loc 1 1522 0
 4793 004e 2582     		strh	r5, [r4, #16]	@ movhi
1523:/home/tienluong/workspace/atlantis_fw/AsicFwS2/src/lcc_cmd_base_0000.c **** 		}
 4794              		.loc 1 1523 0
 4795 0050 A6E0     		b	.L340
 4796              	.LVL533:
 4797              	.L345:
1542:/home/tienluong/workspace/atlantis_fw/AsicFwS2/src/lcc_cmd_base_0000.c **** 		{
 4798              		.loc 1 1542 0
 4799 0052 E67C     		ldrb	r6, [r4, #19]	@ zero_extendqisi2
 4800 0054 16F00106 		ands	r6, r6, #1
1544:/home/tienluong/workspace/atlantis_fw/AsicFwS2/src/lcc_cmd_base_0000.c **** 								p_cam->info.module);
 4801              		.loc 1 1544 0
 4802 0058 4FF02100 		mov	r0, #33
 4803              	.LVL534:
 4804 005c 95F82930 		ldrb	r3, [r5, #41]	@ zero_extendqisi2
 4805 0060 4FF01001 		mov	r1, #16
 4806 0064 DFF848C1 		ldr	ip, .L366+8
1542:/home/tienluong/workspace/atlantis_fw/AsicFwS2/src/lcc_cmd_base_0000.c **** 		{
 4807              		.loc 1 1542 0
 4808 0068 44D0     		beq	.L346
1544:/home/tienluong/workspace/atlantis_fw/AsicFwS2/src/lcc_cmd_base_0000.c **** 								p_cam->info.module);
 4809              		.loc 1 1544 0
 4810 006a 544A     		ldr	r2, .L366+20
 4811 006c CDF814C0 		str	ip, [sp, #20]
 4812 0070 E047     		blx	ip
 4813              	.LVL535:
1547:/home/tienluong/workspace/atlantis_fw/AsicFwS2/src/lcc_cmd_base_0000.c **** 			memcpy(&out->data[out->len], &p_cam->cam_common_data.roi_rectangle,
 4814              		.loc 1 1547 0
 4815 0072 0021     		movs	r1, #0
 4816 0074 0B46     		mov	r3, r1
 4817 0076 4FF0FF32 		mov	r2, #-1
 4818 007a 514E     		ldr	r6, .L366+24
 4819 007c 286B     		ldr	r0, [r5, #48]
 4820 007e B047     		blx	r6
 4821              	.LVL536:
1548:/home/tienluong/workspace/atlantis_fw/AsicFwS2/src/lcc_cmd_base_0000.c **** 					cmd.size);
 4822              		.loc 1 1548 0
 4823 0080 D8F80400 		ldr	r0, [r8, #4]
 4824 0084 B8F80830 		ldrh	r3, [r8, #8]
 4825 0088 05F10C01 		add	r1, r5, #12
 4826 008c 1844     		add	r0, r0, r3
 4827 008e 0822     		movs	r2, #8
 4828 0090 4C4B     		ldr	r3, .L366+28
 4829 0092 9847     		blx	r3
 4830              	.LVL537:
1551:/home/tienluong/workspace/atlantis_fw/AsicFwS2/src/lcc_cmd_base_0000.c **** 			out->len += cmd.size;
 4831              		.loc 1 1551 0
 4832 0094 0021     		movs	r1, #0
 4833 0096 0A46     		mov	r2, r1
 4834 0098 0B46     		mov	r3, r1
 4835 009a 286B     		ldr	r0, [r5, #48]
 4836 009c 4A4E     		ldr	r6, .L366+32
 4837 009e B047     		blx	r6
 4838              	.LVL538:
1552:/home/tienluong/workspace/atlantis_fw/AsicFwS2/src/lcc_cmd_base_0000.c **** #if(LOG_VERBOSE == STD_ON)
 4839              		.loc 1 1552 0
 4840 00a0 B8F80830 		ldrh	r3, [r8, #8]
 4841 00a4 0833     		adds	r3, r3, #8
1554:/home/tienluong/workspace/atlantis_fw/AsicFwS2/src/lcc_cmd_base_0000.c **** 				"ROI calib: %u, %u, %u, %u",
 4842              		.loc 1 1554 0
 4843 00a6 B5F90E20 		ldrsh	r2, [r5, #14]
 4844 00aa 2120     		movs	r0, #33
1552:/home/tienluong/workspace/atlantis_fw/AsicFwS2/src/lcc_cmd_base_0000.c **** #if(LOG_VERBOSE == STD_ON)
 4845              		.loc 1 1552 0
 4846 00ac A8F80830 		strh	r3, [r8, #8]	@ movhi
1554:/home/tienluong/workspace/atlantis_fw/AsicFwS2/src/lcc_cmd_base_0000.c **** 				"ROI calib: %u, %u, %u, %u",
 4847              		.loc 1 1554 0
 4848 00b0 1021     		movs	r1, #16
 4849 00b2 B5F90C30 		ldrsh	r3, [r5, #12]
 4850 00b6 DDF814C0 		ldr	ip, [sp, #20]
 4851 00ba 0092     		str	r2, [sp]
 4852 00bc 2A8A     		ldrh	r2, [r5, #16]
 4853 00be 0192     		str	r2, [sp, #4]
 4854 00c0 6A8A     		ldrh	r2, [r5, #18]
 4855 00c2 0292     		str	r2, [sp, #8]
 4856 00c4 414A     		ldr	r2, .L366+36
 4857 00c6 E047     		blx	ip
 4858              	.LVL539:
 4859              	.L347:
 4860 00c8 0137     		adds	r7, r7, #1
 4861              	.LVL540:
 4862              	.L342:
1529:/home/tienluong/workspace/atlantis_fw/AsicFwS2/src/lcc_cmd_base_0000.c **** 	{
 4863              		.loc 1 1529 0 discriminator 1
 4864 00ca FBB2     		uxtb	r3, r7
 4865 00cc A27C     		ldrb	r2, [r4, #18]	@ zero_extendqisi2
 4866 00ce 9A42     		cmp	r2, r3
 4867 00d0 45D9     		bls	.L365
1532:/home/tienluong/workspace/atlantis_fw/AsicFwS2/src/lcc_cmd_base_0000.c **** 		/* Get camera object from camera object list */
 4868              		.loc 1 1532 0
 4869 00d2 0123     		movs	r3, #1
1531:/home/tienluong/workspace/atlantis_fw/AsicFwS2/src/lcc_cmd_base_0000.c **** 		m_bitmask &= ~(1 << cam_idx);
 4870              		.loc 1 1531 0
 4871 00d4 9AFAAAF0 		rbit	r0, r10
 4872 00d8 B0FA80F0 		clz	r0, r0
 4873              	.LVL541:
1532:/home/tienluong/workspace/atlantis_fw/AsicFwS2/src/lcc_cmd_base_0000.c **** 		/* Get camera object from camera object list */
 4874              		.loc 1 1532 0
 4875 00dc 8340     		lsls	r3, r3, r0
 4876 00de 2AEA030A 		bic	r10, r10, r3
 4877              	.LVL542:
 4878 00e2 0593     		str	r3, [sp, #20]
1534:/home/tienluong/workspace/atlantis_fw/AsicFwS2/src/lcc_cmd_base_0000.c **** 		if (NULL == p_cam)	/*Verify object is valid */
 4879              		.loc 1 1534 0
 4880 00e4 3A4B     		ldr	r3, .L366+40
 4881 00e6 9847     		blx	r3
 4882              	.LVL543:
1535:/home/tienluong/workspace/atlantis_fw/AsicFwS2/src/lcc_cmd_base_0000.c **** 		{
 4883              		.loc 1 1535 0
 4884 00e8 0546     		mov	r5, r0
 4885 00ea 0028     		cmp	r0, #0
 4886 00ec B1D1     		bne	.L345
1537:/home/tienluong/workspace/atlantis_fw/AsicFwS2/src/lcc_cmd_base_0000.c **** 			return;
 4887              		.loc 1 1537 0
 4888 00ee 0823     		movs	r3, #8
 4889 00f0 2382     		strh	r3, [r4, #16]	@ movhi
1538:/home/tienluong/workspace/atlantis_fw/AsicFwS2/src/lcc_cmd_base_0000.c **** 		}
 4890              		.loc 1 1538 0
 4891 00f2 55E0     		b	.L340
 4892              	.LVL544:
 4893              	.L346:
1565:/home/tienluong/workspace/atlantis_fw/AsicFwS2/src/lcc_cmd_base_0000.c **** 					p_cam->info.module);
 4894              		.loc 1 1565 0
 4895 00f4 374A     		ldr	r2, .L366+44
 4896 00f6 E047     		blx	ip
 4897              	.LVL545:
1568:/home/tienluong/workspace/atlantis_fw/AsicFwS2/src/lcc_cmd_base_0000.c **** 			memcpy(&p_cam->cam_common_data.roi_rectangle,
 4898              		.loc 1 1568 0
 4899 00f8 3146     		mov	r1, r6
 4900 00fa 3346     		mov	r3, r6
 4901 00fc 4FF0FF32 		mov	r2, #-1
 4902 0100 DFF8BCC0 		ldr	ip, .L366+24
 4903 0104 286B     		ldr	r0, [r5, #48]
 4904 0106 E047     		blx	ip
 4905              	.LVL546:
1570:/home/tienluong/workspace/atlantis_fw/AsicFwS2/src/lcc_cmd_base_0000.c **** 			/* Release semaphore after read data */
 4906              		.loc 1 1570 0
 4907 0108 6168     		ldr	r1, [r4, #4]
1569:/home/tienluong/workspace/atlantis_fw/AsicFwS2/src/lcc_cmd_base_0000.c **** 					&in->data[data_cnt], cmd.size);
 4908              		.loc 1 1569 0
 4909 010a 0822     		movs	r2, #8
 4910 010c 5944     		add	r1, r1, fp
 4911 010e 2D4B     		ldr	r3, .L366+28
 4912 0110 05F10C00 		add	r0, r5, #12
 4913 0114 9847     		blx	r3
 4914              	.LVL547:
1572:/home/tienluong/workspace/atlantis_fw/AsicFwS2/src/lcc_cmd_base_0000.c ****             if (light_system->m_filter & (1 << cam_idx))
 4915              		.loc 1 1572 0
 4916 0116 3246     		mov	r2, r6
 4917 0118 3346     		mov	r3, r6
 4918 011a 3146     		mov	r1, r6
 4919 011c 286B     		ldr	r0, [r5, #48]
 4920 011e 2A4E     		ldr	r6, .L366+32
 4921 0120 B047     		blx	r6
 4922              	.LVL548:
1573:/home/tienluong/workspace/atlantis_fw/AsicFwS2/src/lcc_cmd_base_0000.c ****             {
 4923              		.loc 1 1573 0
 4924 0122 2D4B     		ldr	r3, .L366+48
 4925 0124 059A     		ldr	r2, [sp, #20]
 4926 0126 1B68     		ldr	r3, [r3]
 4927 0128 9B69     		ldr	r3, [r3, #24]
 4928 012a 1A42     		tst	r2, r3
1575:/home/tienluong/workspace/atlantis_fw/AsicFwS2/src/lcc_cmd_base_0000.c ****             }
 4929              		.loc 1 1575 0
 4930 012c 1FBF     		itttt	ne
 4931 012e 95F82830 		ldrbne	r3, [r5, #40]	@ zero_extendqisi2
 4932 0132 0122     		movne	r2, #1
 4933 0134 03F00F03 		andne	r3, r3, #15
 4934 0138 03F1FF33 		addne	r3, r3, #-1
 4935 013c 1CBF     		itt	ne
 4936 013e 02FA03F3 		lslne	r3, r2, r3
 4937 0142 49EA0309 		orrne	r9, r9, r3
 4938              	.LVL549:
 4939              		.loc 1 1579 0
 4940 0146 E37C     		ldrb	r3, [r4, #19]	@ zero_extendqisi2
 4941 0148 13F0020F 		tst	r3, #2
 4942 014c 14BF     		ite	ne
 4943 014e 0026     		movne	r6, #0
 4944 0150 0826     		moveq	r6, #8
 4945 0152 B344     		add	fp, fp, r6
 4946              	.LVL550:
1580:/home/tienluong/workspace/atlantis_fw/AsicFwS2/src/lcc_cmd_base_0000.c **** 
1581:/home/tienluong/workspace/atlantis_fw/AsicFwS2/src/lcc_cmd_base_0000.c **** 			/* Update command status */
1582:/home/tienluong/workspace/atlantis_fw/AsicFwS2/src/lcc_cmd_base_0000.c **** 			in->status = LCC_CMD_SUCCESS;
 4947              		.loc 1 1582 0
 4948 0154 0123     		movs	r3, #1
1579:/home/tienluong/workspace/atlantis_fw/AsicFwS2/src/lcc_cmd_base_0000.c **** 
 4949              		.loc 1 1579 0
 4950 0156 5FFA8BFB 		uxtb	fp, fp
 4951              	.LVL551:
 4952              		.loc 1 1582 0
 4953 015a 2382     		strh	r3, [r4, #16]	@ movhi
 4954 015c B4E7     		b	.L347
 4955              	.LVL552:
 4956              	.L365:
 4957 015e 144D     		ldr	r5, .L366+8
1583:/home/tienluong/workspace/atlantis_fw/AsicFwS2/src/lcc_cmd_base_0000.c **** 		}
1584:/home/tienluong/workspace/atlantis_fw/AsicFwS2/src/lcc_cmd_base_0000.c **** 	}
1585:/home/tienluong/workspace/atlantis_fw/AsicFwS2/src/lcc_cmd_base_0000.c **** 	if (events_to_set != 0)
 4958              		.loc 1 1585 0
 4959 0160 B9F1000F 		cmp	r9, #0
 4960 0164 17D0     		beq	.L351
 4961              	.LBB24:
1586:/home/tienluong/workspace/atlantis_fw/AsicFwS2/src/lcc_cmd_base_0000.c **** 	{
1587:/home/tienluong/workspace/atlantis_fw/AsicFwS2/src/lcc_cmd_base_0000.c ****         lcc_cmd_tid_t p_cmd;
1588:/home/tienluong/workspace/atlantis_fw/AsicFwS2/src/lcc_cmd_base_0000.c ****         p_cmd.cmd_tid = in->tid;
 4962              		.loc 1 1588 0
 4963 0166 6389     		ldrh	r3, [r4, #10]
 4964 0168 ADF81830 		strh	r3, [sp, #24]	@ movhi
1589:/home/tienluong/workspace/atlantis_fw/AsicFwS2/src/lcc_cmd_base_0000.c ****         p_cmd.event = events_to_set;
1590:/home/tienluong/workspace/atlantis_fw/AsicFwS2/src/lcc_cmd_base_0000.c ****         if (xQueueSend(light_system->af_ctrl->queue, &p_cmd, (TickType_t)10) == pdPASS)
 4965              		.loc 1 1590 0
 4966 016c 1A4B     		ldr	r3, .L366+48
 4967 016e 06A9     		add	r1, sp, #24
 4968 0170 0A22     		movs	r2, #10
 4969 0172 154E     		ldr	r6, .L366+32
 4970 0174 1B68     		ldr	r3, [r3]
1589:/home/tienluong/workspace/atlantis_fw/AsicFwS2/src/lcc_cmd_base_0000.c ****         p_cmd.event = events_to_set;
 4971              		.loc 1 1589 0
 4972 0176 CDF81C90 		str	r9, [sp, #28]
 4973              		.loc 1 1590 0
 4974 017a 5B68     		ldr	r3, [r3, #4]
 4975 017c 1868     		ldr	r0, [r3]
 4976 017e 0023     		movs	r3, #0
 4977 0180 B047     		blx	r6
 4978              	.LVL553:
 4979 0182 0128     		cmp	r0, #1
 4980 0184 01D1     		bne	.L352
1591:/home/tienluong/workspace/atlantis_fw/AsicFwS2/src/lcc_cmd_base_0000.c ****             in->status = LCC_CMD_PENDING;
 4981              		.loc 1 1591 0
 4982 0186 0223     		movs	r3, #2
 4983 0188 04E0     		b	.L364
 4984              	.L352:
1592:/home/tienluong/workspace/atlantis_fw/AsicFwS2/src/lcc_cmd_base_0000.c ****         else
1593:/home/tienluong/workspace/atlantis_fw/AsicFwS2/src/lcc_cmd_base_0000.c ****         {
1594:/home/tienluong/workspace/atlantis_fw/AsicFwS2/src/lcc_cmd_base_0000.c ****             SLOGF(SLOG_ERROR, "Failed to queue AF command");
 4985              		.loc 1 1594 0
 4986 018a 2120     		movs	r0, #33
 4987 018c 0221     		movs	r1, #2
 4988 018e 134A     		ldr	r2, .L366+52
 4989 0190 A847     		blx	r5
 4990              	.LVL554:
1595:/home/tienluong/workspace/atlantis_fw/AsicFwS2/src/lcc_cmd_base_0000.c ****             in->status = LCC_CMD_UNSUCCESS;
 4991              		.loc 1 1595 0
 4992 0192 0023     		movs	r3, #0
 4993              	.L364:
 4994 0194 2382     		strh	r3, [r4, #16]	@ movhi
 4995              	.L351:
 4996              	.LBE24:
1596:/home/tienluong/workspace/atlantis_fw/AsicFwS2/src/lcc_cmd_base_0000.c ****         }
1597:/home/tienluong/workspace/atlantis_fw/AsicFwS2/src/lcc_cmd_base_0000.c **** 	}
1598:/home/tienluong/workspace/atlantis_fw/AsicFwS2/src/lcc_cmd_base_0000.c **** 
1599:/home/tienluong/workspace/atlantis_fw/AsicFwS2/src/lcc_cmd_base_0000.c **** 	SLOGF(SLOG_DEBUG, "Exiting %s", __FUNCTION__);
 4997              		.loc 1 1599 0 discriminator 1
 4998 0196 2120     		movs	r0, #33
 4999 0198 1021     		movs	r1, #16
 5000 019a 114A     		ldr	r2, .L366+56
 5001 019c 024B     		ldr	r3, .L366
 5002 019e A847     		blx	r5
 5003              	.LVL555:
 5004              	.L340:
1600:/home/tienluong/workspace/atlantis_fw/AsicFwS2/src/lcc_cmd_base_0000.c **** }
 5005              		.loc 1 1600 0
 5006 01a0 09B0     		add	sp, sp, #36
 5007              	.LCFI44:
 5008              		.cfi_def_cfa_offset 36
 5009              		@ sp needed
 5010 01a2 BDE8F08F 		pop	{r4, r5, r6, r7, r8, r9, r10, fp, pc}
 5011              	.LVL556:
 5012              	.L367:
 5013 01a6 00BF     		.align	2
 5014              	.L366:
 5015 01a8 00000000 		.word	.LANCHOR19
 5016 01ac 99010000 		.word	.LC18
 5017 01b0 00000000 		.word	slogf
 5018 01b4 00000000 		.word	pvPortMalloc1
 5019 01b8 00000000 		.word	.LC0
 5020 01bc 73030000 		.word	.LC34
 5021 01c0 00000000 		.word	xQueueGenericReceive
 5022 01c4 00000000 		.word	memcpy
 5023 01c8 00000000 		.word	xQueueGenericSend
 5024 01cc 91030000 		.word	.LC35
 5025 01d0 00000000 		.word	idx_to_object
 5026 01d4 AB030000 		.word	.LC36
 5027 01d8 00000000 		.word	light_system
 5028 01dc BF020000 		.word	.LC29
 5029 01e0 DA020000 		.word	.LC30
 5030              		.cfi_endproc
 5031              	.LFE20:
 5033              		.section	.text.cmd_cam_module_uuid,"ax",%progbits
 5034              		.align	1
 5035              		.global	cmd_cam_module_uuid
 5036              		.thumb
 5037              		.thumb_func
 5039              	cmd_cam_module_uuid:
 5040              	.LFB21:
1601:/home/tienluong/workspace/atlantis_fw/AsicFwS2/src/lcc_cmd_base_0000.c **** /**
1602:/home/tienluong/workspace/atlantis_fw/AsicFwS2/src/lcc_cmd_base_0000.c ****  * cmd_cam_module_uuid
1603:/home/tienluong/workspace/atlantis_fw/AsicFwS2/src/lcc_cmd_base_0000.c ****  *
1604:/home/tienluong/workspace/atlantis_fw/AsicFwS2/src/lcc_cmd_base_0000.c ****  */
1605:/home/tienluong/workspace/atlantis_fw/AsicFwS2/src/lcc_cmd_base_0000.c **** void cmd_cam_module_uuid(lcc_cmd_t *in, lcc_cmd_t *out)
1606:/home/tienluong/workspace/atlantis_fw/AsicFwS2/src/lcc_cmd_base_0000.c **** {
 5041              		.loc 1 1606 0
 5042              		.cfi_startproc
 5043              		@ args = 0, pretend = 0, frame = 0
 5044              		@ frame_needed = 0, uses_anonymous_args = 0
 5045              	.LVL557:
 5046 0000 2DE9F041 		push	{r4, r5, r6, r7, r8, lr}
 5047              	.LCFI45:
 5048              		.cfi_def_cfa_offset 24
 5049              		.cfi_offset 4, -24
 5050              		.cfi_offset 5, -20
 5051              		.cfi_offset 6, -16
 5052              		.cfi_offset 7, -12
 5053              		.cfi_offset 8, -8
 5054              		.cfi_offset 14, -4
1607:/home/tienluong/workspace/atlantis_fw/AsicFwS2/src/lcc_cmd_base_0000.c **** 	cam_typedef_t *p_cam;
1608:/home/tienluong/workspace/atlantis_fw/AsicFwS2/src/lcc_cmd_base_0000.c **** 	lcc_cmd_info_t cmd = (lcc_cmd_info_t)(LCC_CMD_CAM_MODULE_UUID);
1609:/home/tienluong/workspace/atlantis_fw/AsicFwS2/src/lcc_cmd_base_0000.c **** 	uint32_t m_bitmask = in->m_bitmask;
1610:/home/tienluong/workspace/atlantis_fw/AsicFwS2/src/lcc_cmd_base_0000.c **** 	uint8_t i, cam_idx;
1611:/home/tienluong/workspace/atlantis_fw/AsicFwS2/src/lcc_cmd_base_0000.c **** 
1612:/home/tienluong/workspace/atlantis_fw/AsicFwS2/src/lcc_cmd_base_0000.c **** 	out->data = pvPortMalloc(in->m_number * cmd.size);
 5055              		.loc 1 1612 0
 5056 0004 40F24C62 		movw	r2, #1612
1606:/home/tienluong/workspace/atlantis_fw/AsicFwS2/src/lcc_cmd_base_0000.c **** 	cam_typedef_t *p_cam;
 5057              		.loc 1 1606 0
 5058 0008 0D46     		mov	r5, r1
1609:/home/tienluong/workspace/atlantis_fw/AsicFwS2/src/lcc_cmd_base_0000.c **** 	uint8_t i, cam_idx;
 5059              		.loc 1 1609 0
 5060 000a D0F80080 		ldr	r8, [r0]
 5061              	.LVL558:
1606:/home/tienluong/workspace/atlantis_fw/AsicFwS2/src/lcc_cmd_base_0000.c **** 	cam_typedef_t *p_cam;
 5062              		.loc 1 1606 0
 5063 000e 0446     		mov	r4, r0
 5064              		.loc 1 1612 0
 5065 0010 2449     		ldr	r1, .L377
 5066              	.LVL559:
 5067 0012 807C     		ldrb	r0, [r0, #18]	@ zero_extendqisi2
 5068              	.LVL560:
 5069 0014 244B     		ldr	r3, .L377+4
 5070 0016 0001     		lsls	r0, r0, #4
 5071 0018 9847     		blx	r3
 5072              	.LVL561:
 5073 001a 0646     		mov	r6, r0
 5074 001c 6860     		str	r0, [r5, #4]
1613:/home/tienluong/workspace/atlantis_fw/AsicFwS2/src/lcc_cmd_base_0000.c **** 	if (NULL == out->data)
 5075              		.loc 1 1613 0
 5076 001e 08B1     		cbz	r0, .L369
 5077              		.loc 1 1613 0 is_stmt 0 discriminator 1
 5078 0020 0027     		movs	r7, #0
 5079 0022 26E0     		b	.L370
 5080              	.L369:
1614:/home/tienluong/workspace/atlantis_fw/AsicFwS2/src/lcc_cmd_base_0000.c **** 	{
1615:/home/tienluong/workspace/atlantis_fw/AsicFwS2/src/lcc_cmd_base_0000.c **** 		SLOGF(SLOG_ERROR, "%s: Lack of memory", __FUNCTION__);
 5081              		.loc 1 1615 0 is_stmt 1
 5082 0024 2120     		movs	r0, #33
 5083 0026 0221     		movs	r1, #2
 5084 0028 204A     		ldr	r2, .L377+8
 5085 002a 1E4B     		ldr	r3, .L377
 5086 002c 204D     		ldr	r5, .L377+12
 5087              	.LVL562:
 5088 002e A847     		blx	r5
 5089              	.LVL563:
1616:/home/tienluong/workspace/atlantis_fw/AsicFwS2/src/lcc_cmd_base_0000.c **** 		in->status = LCC_CMD_UNSUCCESS;
 5090              		.loc 1 1616 0
 5091 0030 2682     		strh	r6, [r4, #16]	@ movhi
1617:/home/tienluong/workspace/atlantis_fw/AsicFwS2/src/lcc_cmd_base_0000.c **** 		return;
 5092              		.loc 1 1617 0
 5093 0032 BDE8F081 		pop	{r4, r5, r6, r7, r8, pc}
 5094              	.LVL564:
 5095              	.L372:
1618:/home/tienluong/workspace/atlantis_fw/AsicFwS2/src/lcc_cmd_base_0000.c **** 	}
1619:/home/tienluong/workspace/atlantis_fw/AsicFwS2/src/lcc_cmd_base_0000.c **** 
1620:/home/tienluong/workspace/atlantis_fw/AsicFwS2/src/lcc_cmd_base_0000.c **** 	/* Scan camera bitmask */
1621:/home/tienluong/workspace/atlantis_fw/AsicFwS2/src/lcc_cmd_base_0000.c **** 	for (i = 0; i < in->m_number; i++)
1622:/home/tienluong/workspace/atlantis_fw/AsicFwS2/src/lcc_cmd_base_0000.c **** 	{
1623:/home/tienluong/workspace/atlantis_fw/AsicFwS2/src/lcc_cmd_base_0000.c **** 		cam_idx = __builtin_ctz(m_bitmask);
1624:/home/tienluong/workspace/atlantis_fw/AsicFwS2/src/lcc_cmd_base_0000.c **** 		m_bitmask &= ~(1 << cam_idx);
1625:/home/tienluong/workspace/atlantis_fw/AsicFwS2/src/lcc_cmd_base_0000.c **** 		/* Get camera object from camera object list */
1626:/home/tienluong/workspace/atlantis_fw/AsicFwS2/src/lcc_cmd_base_0000.c **** 		p_cam = idx_to_object(cam_idx);
1627:/home/tienluong/workspace/atlantis_fw/AsicFwS2/src/lcc_cmd_base_0000.c **** 		if (NULL == p_cam)	/*Verify object is valid */
1628:/home/tienluong/workspace/atlantis_fw/AsicFwS2/src/lcc_cmd_base_0000.c **** 		{
1629:/home/tienluong/workspace/atlantis_fw/AsicFwS2/src/lcc_cmd_base_0000.c **** 			in->status = LCC_CMD_INVALID_ARG;
1630:/home/tienluong/workspace/atlantis_fw/AsicFwS2/src/lcc_cmd_base_0000.c **** 			return;
1631:/home/tienluong/workspace/atlantis_fw/AsicFwS2/src/lcc_cmd_base_0000.c **** 		}
1632:/home/tienluong/workspace/atlantis_fw/AsicFwS2/src/lcc_cmd_base_0000.c **** 
1633:/home/tienluong/workspace/atlantis_fw/AsicFwS2/src/lcc_cmd_base_0000.c **** 		/* Take semaphore to access settings memory */
1634:/home/tienluong/workspace/atlantis_fw/AsicFwS2/src/lcc_cmd_base_0000.c **** 		xSemaphoreTake(p_cam->semaphore, portMAX_DELAY);
 5096              		.loc 1 1634 0 discriminator 2
 5097 0036 0021     		movs	r1, #0
 5098 0038 0B46     		mov	r3, r1
 5099 003a 4FF0FF32 		mov	r2, #-1
 5100 003e 006B     		ldr	r0, [r0, #48]
 5101              	.LVL565:
 5102 0040 DFF878C0 		ldr	ip, .L377+24
 5103 0044 E047     		blx	ip
 5104              	.LVL566:
1635:/home/tienluong/workspace/atlantis_fw/AsicFwS2/src/lcc_cmd_base_0000.c **** 		memcpy(&out->data[out->len], p_cam->settings->uuid, cmd.size);
 5105              		.loc 1 1635 0 discriminator 2
 5106 0046 B368     		ldr	r3, [r6, #8]
 5107 0048 6868     		ldr	r0, [r5, #4]
 5108 004a 2A89     		ldrh	r2, [r5, #8]
 5109 004c 03F10801 		add	r1, r3, #8
 5110 0050 0244     		add	r2, r2, r0
 5111 0052 1833     		adds	r3, r3, #24
 5112              	.L373:
 5113 0054 51F8040B 		ldr	r0, [r1], #4	@ unaligned
 5114 0058 42F8040B 		str	r0, [r2], #4	@ unaligned
 5115 005c 9942     		cmp	r1, r3
 5116 005e F9D1     		bne	.L373
1636:/home/tienluong/workspace/atlantis_fw/AsicFwS2/src/lcc_cmd_base_0000.c **** 		/* Release semaphore after read data */
1637:/home/tienluong/workspace/atlantis_fw/AsicFwS2/src/lcc_cmd_base_0000.c **** 		xSemaphoreGive(p_cam->semaphore);
 5117              		.loc 1 1637 0 discriminator 2
 5118 0060 0021     		movs	r1, #0
 5119 0062 306B     		ldr	r0, [r6, #48]
 5120 0064 0B46     		mov	r3, r1
 5121 0066 0A46     		mov	r2, r1
 5122 0068 124E     		ldr	r6, .L377+16
 5123              	.LVL567:
 5124 006a B047     		blx	r6
 5125              	.LVL568:
1638:/home/tienluong/workspace/atlantis_fw/AsicFwS2/src/lcc_cmd_base_0000.c **** 		out->len += cmd.size;
 5126              		.loc 1 1638 0 discriminator 2
 5127 006c 2B89     		ldrh	r3, [r5, #8]
 5128 006e 1033     		adds	r3, r3, #16
 5129 0070 2B81     		strh	r3, [r5, #8]	@ movhi
 5130              	.LVL569:
 5131              	.L370:
1621:/home/tienluong/workspace/atlantis_fw/AsicFwS2/src/lcc_cmd_base_0000.c **** 	{
 5132              		.loc 1 1621 0 discriminator 1
 5133 0072 FBB2     		uxtb	r3, r7
 5134 0074 A27C     		ldrb	r2, [r4, #18]	@ zero_extendqisi2
 5135 0076 9A42     		cmp	r2, r3
 5136 0078 11D9     		bls	.L376
1624:/home/tienluong/workspace/atlantis_fw/AsicFwS2/src/lcc_cmd_base_0000.c **** 		/* Get camera object from camera object list */
 5137              		.loc 1 1624 0
 5138 007a 0123     		movs	r3, #1
1623:/home/tienluong/workspace/atlantis_fw/AsicFwS2/src/lcc_cmd_base_0000.c **** 		m_bitmask &= ~(1 << cam_idx);
 5139              		.loc 1 1623 0
 5140 007c 98FAA8F0 		rbit	r0, r8
 5141 0080 B0FA80F0 		clz	r0, r0
 5142              	.LVL570:
 5143 0084 0137     		adds	r7, r7, #1
 5144              	.LVL571:
1624:/home/tienluong/workspace/atlantis_fw/AsicFwS2/src/lcc_cmd_base_0000.c **** 		/* Get camera object from camera object list */
 5145              		.loc 1 1624 0
 5146 0086 8340     		lsls	r3, r3, r0
 5147 0088 28EA0308 		bic	r8, r8, r3
 5148              	.LVL572:
1626:/home/tienluong/workspace/atlantis_fw/AsicFwS2/src/lcc_cmd_base_0000.c **** 		if (NULL == p_cam)	/*Verify object is valid */
 5149              		.loc 1 1626 0
 5150 008c 0A4B     		ldr	r3, .L377+20
 5151 008e 9847     		blx	r3
 5152              	.LVL573:
1627:/home/tienluong/workspace/atlantis_fw/AsicFwS2/src/lcc_cmd_base_0000.c **** 		{
 5153              		.loc 1 1627 0
 5154 0090 0646     		mov	r6, r0
 5155 0092 0028     		cmp	r0, #0
 5156 0094 CFD1     		bne	.L372
1629:/home/tienluong/workspace/atlantis_fw/AsicFwS2/src/lcc_cmd_base_0000.c **** 			return;
 5157              		.loc 1 1629 0
 5158 0096 0423     		movs	r3, #4
 5159 0098 2382     		strh	r3, [r4, #16]	@ movhi
1630:/home/tienluong/workspace/atlantis_fw/AsicFwS2/src/lcc_cmd_base_0000.c **** 		}
 5160              		.loc 1 1630 0
 5161 009a BDE8F081 		pop	{r4, r5, r6, r7, r8, pc}
 5162              	.LVL574:
 5163              	.L376:
 5164 009e BDE8F081 		pop	{r4, r5, r6, r7, r8, pc}
 5165              	.LVL575:
 5166              	.L378:
 5167 00a2 00BF     		.align	2
 5168              	.L377:
 5169 00a4 00000000 		.word	.LANCHOR20
 5170 00a8 00000000 		.word	pvPortMalloc1
 5171 00ac 00000000 		.word	.LC0
 5172 00b0 00000000 		.word	slogf
 5173 00b4 00000000 		.word	xQueueGenericSend
 5174 00b8 00000000 		.word	idx_to_object
 5175 00bc 00000000 		.word	xQueueGenericReceive
 5176              		.cfi_endproc
 5177              	.LFE21:
 5179              		.section	.text.cmd_cam_module_type,"ax",%progbits
 5180              		.align	1
 5181              		.global	cmd_cam_module_type
 5182              		.thumb
 5183              		.thumb_func
 5185              	cmd_cam_module_type:
 5186              	.LFB22:
1639:/home/tienluong/workspace/atlantis_fw/AsicFwS2/src/lcc_cmd_base_0000.c **** 	}
1640:/home/tienluong/workspace/atlantis_fw/AsicFwS2/src/lcc_cmd_base_0000.c **** }
1641:/home/tienluong/workspace/atlantis_fw/AsicFwS2/src/lcc_cmd_base_0000.c **** /**
1642:/home/tienluong/workspace/atlantis_fw/AsicFwS2/src/lcc_cmd_base_0000.c ****  * cmd_cam_module_type
1643:/home/tienluong/workspace/atlantis_fw/AsicFwS2/src/lcc_cmd_base_0000.c ****  *
1644:/home/tienluong/workspace/atlantis_fw/AsicFwS2/src/lcc_cmd_base_0000.c ****  */
1645:/home/tienluong/workspace/atlantis_fw/AsicFwS2/src/lcc_cmd_base_0000.c **** void cmd_cam_module_type(lcc_cmd_t *in, lcc_cmd_t *out)
1646:/home/tienluong/workspace/atlantis_fw/AsicFwS2/src/lcc_cmd_base_0000.c **** {
 5187              		.loc 1 1646 0
 5188              		.cfi_startproc
 5189              		@ args = 0, pretend = 0, frame = 0
 5190              		@ frame_needed = 0, uses_anonymous_args = 0
 5191              	.LVL576:
 5192 0000 2DE9F041 		push	{r4, r5, r6, r7, r8, lr}
 5193              	.LCFI46:
 5194              		.cfi_def_cfa_offset 24
 5195              		.cfi_offset 4, -24
 5196              		.cfi_offset 5, -20
 5197              		.cfi_offset 6, -16
 5198              		.cfi_offset 7, -12
 5199              		.cfi_offset 8, -8
 5200              		.cfi_offset 14, -4
1647:/home/tienluong/workspace/atlantis_fw/AsicFwS2/src/lcc_cmd_base_0000.c **** 	cam_typedef_t *p_cam;
1648:/home/tienluong/workspace/atlantis_fw/AsicFwS2/src/lcc_cmd_base_0000.c **** 	lcc_cmd_info_t cmd = (lcc_cmd_info_t)(LCC_CMD_CAM_MODULE_TYPE);
1649:/home/tienluong/workspace/atlantis_fw/AsicFwS2/src/lcc_cmd_base_0000.c **** 	uint32_t m_bitmask = in->m_bitmask;
1650:/home/tienluong/workspace/atlantis_fw/AsicFwS2/src/lcc_cmd_base_0000.c **** 	uint8_t i, cam_idx;
1651:/home/tienluong/workspace/atlantis_fw/AsicFwS2/src/lcc_cmd_base_0000.c **** 
1652:/home/tienluong/workspace/atlantis_fw/AsicFwS2/src/lcc_cmd_base_0000.c **** 	out->data = pvPortMalloc(in->m_number * cmd.size);
 5201              		.loc 1 1652 0
 5202 0004 40F27462 		movw	r2, #1652
1646:/home/tienluong/workspace/atlantis_fw/AsicFwS2/src/lcc_cmd_base_0000.c **** 	cam_typedef_t *p_cam;
 5203              		.loc 1 1646 0
 5204 0008 0D46     		mov	r5, r1
1649:/home/tienluong/workspace/atlantis_fw/AsicFwS2/src/lcc_cmd_base_0000.c **** 	uint8_t i, cam_idx;
 5205              		.loc 1 1649 0
 5206 000a D0F80080 		ldr	r8, [r0]
 5207              	.LVL577:
1646:/home/tienluong/workspace/atlantis_fw/AsicFwS2/src/lcc_cmd_base_0000.c **** 	cam_typedef_t *p_cam;
 5208              		.loc 1 1646 0
 5209 000e 0446     		mov	r4, r0
 5210              		.loc 1 1652 0
 5211 0010 2049     		ldr	r1, .L386
 5212              	.LVL578:
 5213 0012 807C     		ldrb	r0, [r0, #18]	@ zero_extendqisi2
 5214              	.LVL579:
 5215 0014 204B     		ldr	r3, .L386+4
 5216 0016 9847     		blx	r3
 5217              	.LVL580:
 5218 0018 0646     		mov	r6, r0
 5219 001a 6860     		str	r0, [r5, #4]
1653:/home/tienluong/workspace/atlantis_fw/AsicFwS2/src/lcc_cmd_base_0000.c **** 	if (NULL == out->data)
 5220              		.loc 1 1653 0
 5221 001c 08B1     		cbz	r0, .L380
 5222              		.loc 1 1653 0 is_stmt 0 discriminator 1
 5223 001e 0027     		movs	r7, #0
 5224 0020 1FE0     		b	.L381
 5225              	.L380:
1654:/home/tienluong/workspace/atlantis_fw/AsicFwS2/src/lcc_cmd_base_0000.c **** 	{
1655:/home/tienluong/workspace/atlantis_fw/AsicFwS2/src/lcc_cmd_base_0000.c **** 		SLOGF(SLOG_ERROR, "%s: Lack of memory", __FUNCTION__);
 5226              		.loc 1 1655 0 is_stmt 1
 5227 0022 2120     		movs	r0, #33
 5228 0024 0221     		movs	r1, #2
 5229 0026 1D4A     		ldr	r2, .L386+8
 5230 0028 1A4B     		ldr	r3, .L386
 5231 002a 1D4D     		ldr	r5, .L386+12
 5232              	.LVL581:
 5233 002c A847     		blx	r5
 5234              	.LVL582:
1656:/home/tienluong/workspace/atlantis_fw/AsicFwS2/src/lcc_cmd_base_0000.c **** 		in->status = LCC_CMD_UNSUCCESS;
 5235              		.loc 1 1656 0
 5236 002e 2682     		strh	r6, [r4, #16]	@ movhi
1657:/home/tienluong/workspace/atlantis_fw/AsicFwS2/src/lcc_cmd_base_0000.c **** 		return;
 5237              		.loc 1 1657 0
 5238 0030 BDE8F081 		pop	{r4, r5, r6, r7, r8, pc}
 5239              	.LVL583:
 5240              	.L383:
1658:/home/tienluong/workspace/atlantis_fw/AsicFwS2/src/lcc_cmd_base_0000.c **** 	}
1659:/home/tienluong/workspace/atlantis_fw/AsicFwS2/src/lcc_cmd_base_0000.c **** 
1660:/home/tienluong/workspace/atlantis_fw/AsicFwS2/src/lcc_cmd_base_0000.c **** 	/* Scan camera bitmask */
1661:/home/tienluong/workspace/atlantis_fw/AsicFwS2/src/lcc_cmd_base_0000.c **** 	for (i = 0; i < in->m_number; i++)
1662:/home/tienluong/workspace/atlantis_fw/AsicFwS2/src/lcc_cmd_base_0000.c **** 	{
1663:/home/tienluong/workspace/atlantis_fw/AsicFwS2/src/lcc_cmd_base_0000.c **** 		cam_idx = __builtin_ctz(m_bitmask);
1664:/home/tienluong/workspace/atlantis_fw/AsicFwS2/src/lcc_cmd_base_0000.c **** 		m_bitmask &= ~(1 << cam_idx);
1665:/home/tienluong/workspace/atlantis_fw/AsicFwS2/src/lcc_cmd_base_0000.c **** 		/* Get camera object from camera object list */
1666:/home/tienluong/workspace/atlantis_fw/AsicFwS2/src/lcc_cmd_base_0000.c **** 		p_cam = idx_to_object(cam_idx);
1667:/home/tienluong/workspace/atlantis_fw/AsicFwS2/src/lcc_cmd_base_0000.c **** 		if (NULL == p_cam)	/*Verify object is valid */
1668:/home/tienluong/workspace/atlantis_fw/AsicFwS2/src/lcc_cmd_base_0000.c **** 		{
1669:/home/tienluong/workspace/atlantis_fw/AsicFwS2/src/lcc_cmd_base_0000.c **** 			in->status = LCC_CMD_INVALID_ARG;
1670:/home/tienluong/workspace/atlantis_fw/AsicFwS2/src/lcc_cmd_base_0000.c **** 			return;
1671:/home/tienluong/workspace/atlantis_fw/AsicFwS2/src/lcc_cmd_base_0000.c **** 		}
1672:/home/tienluong/workspace/atlantis_fw/AsicFwS2/src/lcc_cmd_base_0000.c **** 
1673:/home/tienluong/workspace/atlantis_fw/AsicFwS2/src/lcc_cmd_base_0000.c **** 		/* Take semaphore to access settings memory */
1674:/home/tienluong/workspace/atlantis_fw/AsicFwS2/src/lcc_cmd_base_0000.c **** 		xSemaphoreTake(p_cam->semaphore, portMAX_DELAY);
 5241              		.loc 1 1674 0 discriminator 2
 5242 0034 0021     		movs	r1, #0
 5243 0036 0B46     		mov	r3, r1
 5244 0038 4FF0FF32 		mov	r2, #-1
 5245 003c DFF86CC0 		ldr	ip, .L386+24
 5246 0040 006B     		ldr	r0, [r0, #48]
 5247              	.LVL584:
 5248 0042 E047     		blx	ip
 5249              	.LVL585:
1675:/home/tienluong/workspace/atlantis_fw/AsicFwS2/src/lcc_cmd_base_0000.c **** 		out->data[out->len] = p_cam->settings->type;
 5250              		.loc 1 1675 0 discriminator 2
 5251 0044 6A68     		ldr	r2, [r5, #4]
 5252 0046 B368     		ldr	r3, [r6, #8]
 5253 0048 93F82010 		ldrb	r1, [r3, #32]	@ zero_extendqisi2
 5254 004c 2B89     		ldrh	r3, [r5, #8]
 5255 004e D154     		strb	r1, [r2, r3]
1676:/home/tienluong/workspace/atlantis_fw/AsicFwS2/src/lcc_cmd_base_0000.c **** 		/* Release semaphore after read data */
1677:/home/tienluong/workspace/atlantis_fw/AsicFwS2/src/lcc_cmd_base_0000.c **** 		xSemaphoreGive(p_cam->semaphore);
 5256              		.loc 1 1677 0 discriminator 2
 5257 0050 0021     		movs	r1, #0
 5258 0052 306B     		ldr	r0, [r6, #48]
 5259 0054 0B46     		mov	r3, r1
 5260 0056 0A46     		mov	r2, r1
 5261 0058 124E     		ldr	r6, .L386+16
 5262              	.LVL586:
 5263 005a B047     		blx	r6
 5264              	.LVL587:
1678:/home/tienluong/workspace/atlantis_fw/AsicFwS2/src/lcc_cmd_base_0000.c **** 		out->len += cmd.size;
 5265              		.loc 1 1678 0 discriminator 2
 5266 005c 2B89     		ldrh	r3, [r5, #8]
 5267 005e 0133     		adds	r3, r3, #1
 5268 0060 2B81     		strh	r3, [r5, #8]	@ movhi
 5269              	.LVL588:
 5270              	.L381:
1661:/home/tienluong/workspace/atlantis_fw/AsicFwS2/src/lcc_cmd_base_0000.c **** 	{
 5271              		.loc 1 1661 0 discriminator 1
 5272 0062 FBB2     		uxtb	r3, r7
 5273 0064 A27C     		ldrb	r2, [r4, #18]	@ zero_extendqisi2
 5274 0066 9A42     		cmp	r2, r3
 5275 0068 11D9     		bls	.L385
1664:/home/tienluong/workspace/atlantis_fw/AsicFwS2/src/lcc_cmd_base_0000.c **** 		/* Get camera object from camera object list */
 5276              		.loc 1 1664 0
 5277 006a 0123     		movs	r3, #1
1663:/home/tienluong/workspace/atlantis_fw/AsicFwS2/src/lcc_cmd_base_0000.c **** 		m_bitmask &= ~(1 << cam_idx);
 5278              		.loc 1 1663 0
 5279 006c 98FAA8F0 		rbit	r0, r8
 5280 0070 B0FA80F0 		clz	r0, r0
 5281              	.LVL589:
 5282 0074 0137     		adds	r7, r7, #1
 5283              	.LVL590:
1664:/home/tienluong/workspace/atlantis_fw/AsicFwS2/src/lcc_cmd_base_0000.c **** 		/* Get camera object from camera object list */
 5284              		.loc 1 1664 0
 5285 0076 8340     		lsls	r3, r3, r0
 5286 0078 28EA0308 		bic	r8, r8, r3
 5287              	.LVL591:
1666:/home/tienluong/workspace/atlantis_fw/AsicFwS2/src/lcc_cmd_base_0000.c **** 		if (NULL == p_cam)	/*Verify object is valid */
 5288              		.loc 1 1666 0
 5289 007c 0A4B     		ldr	r3, .L386+20
 5290 007e 9847     		blx	r3
 5291              	.LVL592:
1667:/home/tienluong/workspace/atlantis_fw/AsicFwS2/src/lcc_cmd_base_0000.c **** 		{
 5292              		.loc 1 1667 0
 5293 0080 0646     		mov	r6, r0
 5294 0082 0028     		cmp	r0, #0
 5295 0084 D6D1     		bne	.L383
1669:/home/tienluong/workspace/atlantis_fw/AsicFwS2/src/lcc_cmd_base_0000.c **** 			return;
 5296              		.loc 1 1669 0
 5297 0086 0423     		movs	r3, #4
 5298 0088 2382     		strh	r3, [r4, #16]	@ movhi
1670:/home/tienluong/workspace/atlantis_fw/AsicFwS2/src/lcc_cmd_base_0000.c **** 		}
 5299              		.loc 1 1670 0
 5300 008a BDE8F081 		pop	{r4, r5, r6, r7, r8, pc}
 5301              	.LVL593:
 5302              	.L385:
 5303 008e BDE8F081 		pop	{r4, r5, r6, r7, r8, pc}
 5304              	.LVL594:
 5305              	.L387:
 5306 0092 00BF     		.align	2
 5307              	.L386:
 5308 0094 00000000 		.word	.LANCHOR21
 5309 0098 00000000 		.word	pvPortMalloc1
 5310 009c 00000000 		.word	.LC0
 5311 00a0 00000000 		.word	slogf
 5312 00a4 00000000 		.word	xQueueGenericSend
 5313 00a8 00000000 		.word	idx_to_object
 5314 00ac 00000000 		.word	xQueueGenericReceive
 5315              		.cfi_endproc
 5316              	.LFE22:
 5318              		.section	.text.cmd_i2c_forward,"ax",%progbits
 5319              		.align	1
 5320              		.global	cmd_i2c_forward
 5321              		.thumb
 5322              		.thumb_func
 5324              	cmd_i2c_forward:
 5325              	.LFB23:
1679:/home/tienluong/workspace/atlantis_fw/AsicFwS2/src/lcc_cmd_base_0000.c **** 	}
1680:/home/tienluong/workspace/atlantis_fw/AsicFwS2/src/lcc_cmd_base_0000.c **** }
1681:/home/tienluong/workspace/atlantis_fw/AsicFwS2/src/lcc_cmd_base_0000.c **** 
1682:/home/tienluong/workspace/atlantis_fw/AsicFwS2/src/lcc_cmd_base_0000.c **** void cmd_i2c_forward(lcc_cmd_t *in, lcc_cmd_t *out)
1683:/home/tienluong/workspace/atlantis_fw/AsicFwS2/src/lcc_cmd_base_0000.c **** {
 5326              		.loc 1 1683 0
 5327              		.cfi_startproc
 5328              		@ args = 0, pretend = 0, frame = 0
 5329              		@ frame_needed = 0, uses_anonymous_args = 0
 5330              	.LVL595:
 5331 0000 2DE9FF47 		push	{r0, r1, r2, r3, r4, r5, r6, r7, r8, r9, r10, lr}
 5332              	.LCFI47:
 5333              		.cfi_def_cfa_offset 48
 5334              		.cfi_offset 4, -32
 5335              		.cfi_offset 5, -28
 5336              		.cfi_offset 6, -24
 5337              		.cfi_offset 7, -20
 5338              		.cfi_offset 8, -16
 5339              		.cfi_offset 9, -12
 5340              		.cfi_offset 10, -8
 5341              		.cfi_offset 14, -4
1684:/home/tienluong/workspace/atlantis_fw/AsicFwS2/src/lcc_cmd_base_0000.c **** 	static i2cm_error_t i2c_status = 0;
1685:/home/tienluong/workspace/atlantis_fw/AsicFwS2/src/lcc_cmd_base_0000.c **** 	static uint8_t *i2c_rx_data = NULL;
1686:/home/tienluong/workspace/atlantis_fw/AsicFwS2/src/lcc_cmd_base_0000.c **** 	static uint16_t rx_len = 0;
1687:/home/tienluong/workspace/atlantis_fw/AsicFwS2/src/lcc_cmd_base_0000.c **** 	uint8_t rw_mode = 0;
1688:/home/tienluong/workspace/atlantis_fw/AsicFwS2/src/lcc_cmd_base_0000.c **** 	uint8_t slave_addr = 0;
1689:/home/tienluong/workspace/atlantis_fw/AsicFwS2/src/lcc_cmd_base_0000.c **** 	uint8_t chid = 0;
1690:/home/tienluong/workspace/atlantis_fw/AsicFwS2/src/lcc_cmd_base_0000.c **** 	uint8_t *i2c_tx_data = NULL;
1691:/home/tienluong/workspace/atlantis_fw/AsicFwS2/src/lcc_cmd_base_0000.c **** 	uint16_t data_len = 0;
1692:/home/tienluong/workspace/atlantis_fw/AsicFwS2/src/lcc_cmd_base_0000.c **** 	uint16_t tx_len = 0;
1693:/home/tienluong/workspace/atlantis_fw/AsicFwS2/src/lcc_cmd_base_0000.c **** 	uint8_t data_ptr = 0;
1694:/home/tienluong/workspace/atlantis_fw/AsicFwS2/src/lcc_cmd_base_0000.c **** 
1695:/home/tienluong/workspace/atlantis_fw/AsicFwS2/src/lcc_cmd_base_0000.c **** 	/* Write command processing */
1696:/home/tienluong/workspace/atlantis_fw/AsicFwS2/src/lcc_cmd_base_0000.c **** 	if (CMD_WRITE == in->action)
 5342              		.loc 1 1696 0
 5343 0004 C37C     		ldrb	r3, [r0, #19]	@ zero_extendqisi2
 5344 0006 DB07     		lsls	r3, r3, #31
1683:/home/tienluong/workspace/atlantis_fw/AsicFwS2/src/lcc_cmd_base_0000.c **** 	static i2cm_error_t i2c_status = 0;
 5345              		.loc 1 1683 0
 5346 0008 0646     		mov	r6, r0
 5347 000a 0F46     		mov	r7, r1
 5348              		.loc 1 1696 0
 5349 000c 00F18B80 		bmi	.L389
1697:/home/tienluong/workspace/atlantis_fw/AsicFwS2/src/lcc_cmd_base_0000.c **** 	{
1698:/home/tienluong/workspace/atlantis_fw/AsicFwS2/src/lcc_cmd_base_0000.c **** 		if(in->len > 2)
 5350              		.loc 1 1698 0
 5351 0010 0489     		ldrh	r4, [r0, #8]
 5352 0012 022C     		cmp	r4, #2
 5353 0014 4FD9     		bls	.L390
1699:/home/tienluong/workspace/atlantis_fw/AsicFwS2/src/lcc_cmd_base_0000.c **** 		{
1700:/home/tienluong/workspace/atlantis_fw/AsicFwS2/src/lcc_cmd_base_0000.c **** 			rw_mode = in->data[data_ptr] & I2C_RW_MASK;
 5354              		.loc 1 1700 0
 5355 0016 4368     		ldr	r3, [r0, #4]
 5356              	.LVL596:
 5357 0018 1A78     		ldrb	r2, [r3]	@ zero_extendqisi2
1701:/home/tienluong/workspace/atlantis_fw/AsicFwS2/src/lcc_cmd_base_0000.c **** 			data_ptr++;
1702:/home/tienluong/workspace/atlantis_fw/AsicFwS2/src/lcc_cmd_base_0000.c **** 			chid = in->data[data_ptr++];
1703:/home/tienluong/workspace/atlantis_fw/AsicFwS2/src/lcc_cmd_base_0000.c **** 			slave_addr = in->data[data_ptr++];
1704:/home/tienluong/workspace/atlantis_fw/AsicFwS2/src/lcc_cmd_base_0000.c **** 
1705:/home/tienluong/workspace/atlantis_fw/AsicFwS2/src/lcc_cmd_base_0000.c **** 			if(rw_mode == I2C_RW_WRITE)
 5358              		.loc 1 1705 0
 5359 001a 12F00105 		ands	r5, r2, #1
1702:/home/tienluong/workspace/atlantis_fw/AsicFwS2/src/lcc_cmd_base_0000.c **** 			slave_addr = in->data[data_ptr++];
 5360              		.loc 1 1702 0
 5361 001e 93F80190 		ldrb	r9, [r3, #1]	@ zero_extendqisi2
 5362              	.LVL597:
1703:/home/tienluong/workspace/atlantis_fw/AsicFwS2/src/lcc_cmd_base_0000.c **** 
 5363              		.loc 1 1703 0
 5364 0022 93F80280 		ldrb	r8, [r3, #2]	@ zero_extendqisi2
 5365              	.LVL598:
 5366 0026 D878     		ldrb	r0, [r3, #3]	@ zero_extendqisi2
 5367              	.LVL599:
 5368              		.loc 1 1705 0
 5369 0028 1CD1     		bne	.L391
 5370              	.LVL600:
1706:/home/tienluong/workspace/atlantis_fw/AsicFwS2/src/lcc_cmd_base_0000.c **** 			{
1707:/home/tienluong/workspace/atlantis_fw/AsicFwS2/src/lcc_cmd_base_0000.c **** 				tx_len = in->data[data_ptr++];
1708:/home/tienluong/workspace/atlantis_fw/AsicFwS2/src/lcc_cmd_base_0000.c **** 				data_len = in->len - data_ptr;
 5371              		.loc 1 1708 0
 5372 002a 043C     		subs	r4, r4, #4
 5373 002c A4B2     		uxth	r4, r4
 5374              	.LVL601:
1709:/home/tienluong/workspace/atlantis_fw/AsicFwS2/src/lcc_cmd_base_0000.c **** 				if(data_len == tx_len)
 5375              		.loc 1 1709 0
 5376 002e 8442     		cmp	r4, r0
 5377 0030 11D1     		bne	.L392
1710:/home/tienluong/workspace/atlantis_fw/AsicFwS2/src/lcc_cmd_base_0000.c **** 				{
1711:/home/tienluong/workspace/atlantis_fw/AsicFwS2/src/lcc_cmd_base_0000.c **** 					assert_malloc(i2c_tx_data,tx_len * sizeof(uint8_t));
 5378              		.loc 1 1711 0
 5379 0032 5949     		ldr	r1, .L413
 5380              	.LVL602:
 5381 0034 40F2AF62 		movw	r2, #1711
 5382 0038 584B     		ldr	r3, .L413+4
 5383              	.LVL603:
 5384 003a 9847     		blx	r3
 5385              	.LVL604:
 5386 003c 0546     		mov	r5, r0
 5387 003e 20B9     		cbnz	r0, .L393
 5388              		.loc 1 1711 0 is_stmt 0 discriminator 2
 5389 0040 5548     		ldr	r0, .L413
 5390              	.LVL605:
 5391 0042 40F2AF61 		movw	r1, #1711
 5392 0046 564B     		ldr	r3, .L413+8
 5393 0048 9847     		blx	r3
 5394              	.LVL606:
 5395              	.L393:
1712:/home/tienluong/workspace/atlantis_fw/AsicFwS2/src/lcc_cmd_base_0000.c **** 					i2c_rx_data = NULL;
 5396              		.loc 1 1712 0 is_stmt 1
 5397 004a 0023     		movs	r3, #0
 5398 004c 554A     		ldr	r2, .L413+12
 5399 004e 1360     		str	r3, [r2]
1713:/home/tienluong/workspace/atlantis_fw/AsicFwS2/src/lcc_cmd_base_0000.c **** 					rx_len = 0;
 5400              		.loc 1 1713 0
 5401 0050 554A     		ldr	r2, .L413+16
 5402 0052 1380     		strh	r3, [r2]	@ movhi
 5403 0054 37E0     		b	.L394
 5404              	.LVL607:
 5405              	.L392:
1714:/home/tienluong/workspace/atlantis_fw/AsicFwS2/src/lcc_cmd_base_0000.c **** 				}
1715:/home/tienluong/workspace/atlantis_fw/AsicFwS2/src/lcc_cmd_base_0000.c **** 				else
1716:/home/tienluong/workspace/atlantis_fw/AsicFwS2/src/lcc_cmd_base_0000.c **** 				{
1717:/home/tienluong/workspace/atlantis_fw/AsicFwS2/src/lcc_cmd_base_0000.c **** 					SLOGF(SLOG_ERROR, "%s: Invalid input", __FUNCTION__);
 5406              		.loc 1 1717 0
 5407 0056 2120     		movs	r0, #33
 5408              	.LVL608:
 5409 0058 0221     		movs	r1, #2
 5410              	.LVL609:
 5411 005a 544A     		ldr	r2, .L413+20
 5412 005c 4E4B     		ldr	r3, .L413
 5413              	.LVL610:
 5414 005e 544C     		ldr	r4, .L413+24
 5415              	.LVL611:
 5416 0060 A047     		blx	r4
 5417              	.LVL612:
 5418 0062 37E0     		b	.L410
 5419              	.LVL613:
 5420              	.L391:
1718:/home/tienluong/workspace/atlantis_fw/AsicFwS2/src/lcc_cmd_base_0000.c **** 					in->status = LCC_CMD_UNSUCCESS;
1719:/home/tienluong/workspace/atlantis_fw/AsicFwS2/src/lcc_cmd_base_0000.c **** 					return;
1720:/home/tienluong/workspace/atlantis_fw/AsicFwS2/src/lcc_cmd_base_0000.c **** 				}
1721:/home/tienluong/workspace/atlantis_fw/AsicFwS2/src/lcc_cmd_base_0000.c **** 			}
1722:/home/tienluong/workspace/atlantis_fw/AsicFwS2/src/lcc_cmd_base_0000.c **** 			else
1723:/home/tienluong/workspace/atlantis_fw/AsicFwS2/src/lcc_cmd_base_0000.c **** 			{
1724:/home/tienluong/workspace/atlantis_fw/AsicFwS2/src/lcc_cmd_base_0000.c **** 				rx_len = in->data[data_ptr++];
 5421              		.loc 1 1724 0
 5422 0064 504B     		ldr	r3, .L413+16
 5423              	.LVL614:
 5424 0066 1880     		strh	r0, [r3]	@ movhi
 5425              	.LVL615:
1725:/home/tienluong/workspace/atlantis_fw/AsicFwS2/src/lcc_cmd_base_0000.c **** 				tx_len = in->len - data_ptr;
1726:/home/tienluong/workspace/atlantis_fw/AsicFwS2/src/lcc_cmd_base_0000.c **** 
1727:/home/tienluong/workspace/atlantis_fw/AsicFwS2/src/lcc_cmd_base_0000.c **** 				if(tx_len > 0 && tx_len < 3)
 5426              		.loc 1 1727 0
 5427 0068 631F     		subs	r3, r4, #5
 5428 006a 012B     		cmp	r3, #1
 5429 006c 23D8     		bhi	.L390
 5430              	.LVL616:
 5431              	.L406:
1728:/home/tienluong/workspace/atlantis_fw/AsicFwS2/src/lcc_cmd_base_0000.c **** 				{
1729:/home/tienluong/workspace/atlantis_fw/AsicFwS2/src/lcc_cmd_base_0000.c **** 					while(i2c_rx_data != NULL)
 5432              		.loc 1 1729 0
 5433 006e 4D4F     		ldr	r7, .L413+12
 5434 0070 3B68     		ldr	r3, [r7]
 5435 0072 1BB1     		cbz	r3, .L412
1730:/home/tienluong/workspace/atlantis_fw/AsicFwS2/src/lcc_cmd_base_0000.c **** 					{
1731:/home/tienluong/workspace/atlantis_fw/AsicFwS2/src/lcc_cmd_base_0000.c **** 						if(i2c_status)
1732:/home/tienluong/workspace/atlantis_fw/AsicFwS2/src/lcc_cmd_base_0000.c **** 						{
1733:/home/tienluong/workspace/atlantis_fw/AsicFwS2/src/lcc_cmd_base_0000.c **** 							vPortFree(i2c_rx_data);
1734:/home/tienluong/workspace/atlantis_fw/AsicFwS2/src/lcc_cmd_base_0000.c **** 							i2c_rx_data = NULL;
1735:/home/tienluong/workspace/atlantis_fw/AsicFwS2/src/lcc_cmd_base_0000.c **** 							break;
1736:/home/tienluong/workspace/atlantis_fw/AsicFwS2/src/lcc_cmd_base_0000.c **** 						}
1737:/home/tienluong/workspace/atlantis_fw/AsicFwS2/src/lcc_cmd_base_0000.c **** 						vTaskDelay(1);
 5436              		.loc 1 1737 0
 5437 0074 0120     		movs	r0, #1
 5438 0076 4F4B     		ldr	r3, .L413+28
 5439 0078 9847     		blx	r3
 5440              	.LVL617:
 5441 007a F8E7     		b	.L406
 5442              	.L412:
1725:/home/tienluong/workspace/atlantis_fw/AsicFwS2/src/lcc_cmd_base_0000.c **** 
 5443              		.loc 1 1725 0
 5444 007c 043C     		subs	r4, r4, #4
 5445              	.LVL618:
1738:/home/tienluong/workspace/atlantis_fw/AsicFwS2/src/lcc_cmd_base_0000.c **** 					}
1739:/home/tienluong/workspace/atlantis_fw/AsicFwS2/src/lcc_cmd_base_0000.c **** 
1740:/home/tienluong/workspace/atlantis_fw/AsicFwS2/src/lcc_cmd_base_0000.c **** 					assert_malloc(i2c_tx_data, tx_len * sizeof(uint8_t));
 5446              		.loc 1 1740 0
 5447 007e 4649     		ldr	r1, .L413
 5448 0080 40F2CC62 		movw	r2, #1740
1725:/home/tienluong/workspace/atlantis_fw/AsicFwS2/src/lcc_cmd_base_0000.c **** 
 5449              		.loc 1 1725 0
 5450 0084 A4B2     		uxth	r4, r4
 5451              		.loc 1 1740 0
 5452 0086 2046     		mov	r0, r4
 5453 0088 DFF810A1 		ldr	r10, .L413+4
 5454 008c D047     		blx	r10
 5455              	.LVL619:
 5456 008e 0546     		mov	r5, r0
 5457 0090 20B9     		cbnz	r0, .L398
 5458              		.loc 1 1740 0 is_stmt 0 discriminator 2
 5459 0092 4148     		ldr	r0, .L413
 5460              	.LVL620:
 5461 0094 40F2CC61 		movw	r1, #1740
 5462 0098 414B     		ldr	r3, .L413+8
 5463 009a 9847     		blx	r3
 5464              	.LVL621:
 5465              	.L398:
1741:/home/tienluong/workspace/atlantis_fw/AsicFwS2/src/lcc_cmd_base_0000.c **** 					assert_malloc(i2c_rx_data, tx_len * sizeof(uint8_t));
 5466              		.loc 1 1741 0 is_stmt 1
 5467 009c 2046     		mov	r0, r4
 5468 009e 40F2CD62 		movw	r2, #1741
 5469 00a2 3D49     		ldr	r1, .L413
 5470 00a4 D047     		blx	r10
 5471              	.LVL622:
 5472 00a6 3860     		str	r0, [r7]
 5473 00a8 68B9     		cbnz	r0, .L394
 5474              		.loc 1 1741 0 is_stmt 0 discriminator 2
 5475 00aa 40F2CD61 		movw	r1, #1741
 5476 00ae 3C4B     		ldr	r3, .L413+8
 5477 00b0 3948     		ldr	r0, .L413
 5478 00b2 9847     		blx	r3
 5479              	.LVL623:
 5480 00b4 07E0     		b	.L394
 5481              	.LVL624:
 5482              	.L390:
1742:/home/tienluong/workspace/atlantis_fw/AsicFwS2/src/lcc_cmd_base_0000.c **** 				}
1743:/home/tienluong/workspace/atlantis_fw/AsicFwS2/src/lcc_cmd_base_0000.c **** 				else
1744:/home/tienluong/workspace/atlantis_fw/AsicFwS2/src/lcc_cmd_base_0000.c **** 				{
1745:/home/tienluong/workspace/atlantis_fw/AsicFwS2/src/lcc_cmd_base_0000.c **** 					SLOGF(SLOG_ERROR, "%s: Invalid input ", __FUNCTION__);
 5483              		.loc 1 1745 0 is_stmt 1
 5484 00b6 384B     		ldr	r3, .L413
 5485 00b8 2120     		movs	r0, #33
 5486 00ba 0221     		movs	r1, #2
 5487              	.LVL625:
 5488 00bc 3E4A     		ldr	r2, .L413+32
 5489 00be 3C4C     		ldr	r4, .L413+24
 5490 00c0 A047     		blx	r4
 5491              	.LVL626:
1746:/home/tienluong/workspace/atlantis_fw/AsicFwS2/src/lcc_cmd_base_0000.c **** 					in->status = LCC_CMD_UNSUCCESS;
 5492              		.loc 1 1746 0
 5493 00c2 0023     		movs	r3, #0
 5494 00c4 64E0     		b	.L409
 5495              	.LVL627:
 5496              	.L394:
 5497 00c6 3A4F     		ldr	r7, .L413+24
1747:/home/tienluong/workspace/atlantis_fw/AsicFwS2/src/lcc_cmd_base_0000.c **** 					return;
1748:/home/tienluong/workspace/atlantis_fw/AsicFwS2/src/lcc_cmd_base_0000.c **** 				}
1749:/home/tienluong/workspace/atlantis_fw/AsicFwS2/src/lcc_cmd_base_0000.c **** 
1750:/home/tienluong/workspace/atlantis_fw/AsicFwS2/src/lcc_cmd_base_0000.c **** 			}
1751:/home/tienluong/workspace/atlantis_fw/AsicFwS2/src/lcc_cmd_base_0000.c **** 
1752:/home/tienluong/workspace/atlantis_fw/AsicFwS2/src/lcc_cmd_base_0000.c **** 			if (NULL == i2c_tx_data)
 5498              		.loc 1 1752 0
 5499 00c8 35B9     		cbnz	r5, .L399
 5500              	.LVL628:
1753:/home/tienluong/workspace/atlantis_fw/AsicFwS2/src/lcc_cmd_base_0000.c **** 			{
1754:/home/tienluong/workspace/atlantis_fw/AsicFwS2/src/lcc_cmd_base_0000.c **** 				SLOGF(SLOG_ERROR, "%s: Lack of memory", __FUNCTION__);
 5501              		.loc 1 1754 0
 5502 00ca 2120     		movs	r0, #33
 5503 00cc 0221     		movs	r1, #2
 5504 00ce 3B4A     		ldr	r2, .L413+36
 5505 00d0 314B     		ldr	r3, .L413
 5506 00d2 B847     		blx	r7
 5507              	.LVL629:
 5508              	.L410:
1755:/home/tienluong/workspace/atlantis_fw/AsicFwS2/src/lcc_cmd_base_0000.c **** 				in->status = LCC_CMD_UNSUCCESS;
 5509              		.loc 1 1755 0
 5510 00d4 3582     		strh	r5, [r6, #16]	@ movhi
1756:/home/tienluong/workspace/atlantis_fw/AsicFwS2/src/lcc_cmd_base_0000.c **** 				return;
 5511              		.loc 1 1756 0
 5512 00d6 5CE0     		b	.L388
 5513              	.LVL630:
 5514              	.L399:
1757:/home/tienluong/workspace/atlantis_fw/AsicFwS2/src/lcc_cmd_base_0000.c **** 			}
1758:/home/tienluong/workspace/atlantis_fw/AsicFwS2/src/lcc_cmd_base_0000.c **** 			else
1759:/home/tienluong/workspace/atlantis_fw/AsicFwS2/src/lcc_cmd_base_0000.c **** 			{
1760:/home/tienluong/workspace/atlantis_fw/AsicFwS2/src/lcc_cmd_base_0000.c **** 
1761:/home/tienluong/workspace/atlantis_fw/AsicFwS2/src/lcc_cmd_base_0000.c **** 				SLOGF(SLOG_INFO,	"Start forwarding data to"
 5515              		.loc 1 1761 0
 5516 00d8 CDF80080 		str	r8, [sp]
 5517 00dc 2120     		movs	r0, #33
 5518 00de 0194     		str	r4, [sp, #4]
 5519 00e0 0821     		movs	r1, #8
 5520 00e2 DFF8C4A0 		ldr	r10, .L413+16
 5521 00e6 BAF80030 		ldrh	r3, [r10]
 5522 00ea 354A     		ldr	r2, .L413+40
 5523 00ec 0293     		str	r3, [sp, #8]
 5524 00ee 4B46     		mov	r3, r9
 5525 00f0 B847     		blx	r7
 5526              	.LVL631:
1762:/home/tienluong/workspace/atlantis_fw/AsicFwS2/src/lcc_cmd_base_0000.c **** 								" Channel ID: \033[91m[%d]\033[92m--"
1763:/home/tienluong/workspace/atlantis_fw/AsicFwS2/src/lcc_cmd_base_0000.c **** 								"Slave address: \033[91m[0x%x]\033[92m--"
1764:/home/tienluong/workspace/atlantis_fw/AsicFwS2/src/lcc_cmd_base_0000.c **** 								"Transmitter Length: \033[91m[%d]\033[92m--"
1765:/home/tienluong/workspace/atlantis_fw/AsicFwS2/src/lcc_cmd_base_0000.c **** 								"Receiver Length: \033[91m[%d]\033[0m",
1766:/home/tienluong/workspace/atlantis_fw/AsicFwS2/src/lcc_cmd_base_0000.c **** 								(int)chid, slave_addr,
1767:/home/tienluong/workspace/atlantis_fw/AsicFwS2/src/lcc_cmd_base_0000.c **** 								(int)tx_len,
1768:/home/tienluong/workspace/atlantis_fw/AsicFwS2/src/lcc_cmd_base_0000.c **** 								(int)rx_len);
1769:/home/tienluong/workspace/atlantis_fw/AsicFwS2/src/lcc_cmd_base_0000.c **** 
1770:/home/tienluong/workspace/atlantis_fw/AsicFwS2/src/lcc_cmd_base_0000.c **** 				memcpy(i2c_tx_data, (in->data + data_ptr), tx_len);
 5527              		.loc 1 1770 0
 5528 00f2 7168     		ldr	r1, [r6, #4]
 5529 00f4 2246     		mov	r2, r4
 5530 00f6 2846     		mov	r0, r5
 5531 00f8 0431     		adds	r1, r1, #4
 5532 00fa 324B     		ldr	r3, .L413+44
 5533 00fc 9847     		blx	r3
 5534              	.LVL632:
1771:/home/tienluong/workspace/atlantis_fw/AsicFwS2/src/lcc_cmd_base_0000.c **** 				i2cm.transceiver(chid, slave_addr, i2c_tx_data, tx_len,
 5535              		.loc 1 1771 0
 5536 00fe 294B     		ldr	r3, .L413+12
 5537 0100 4146     		mov	r1, r8
 5538 0102 2A46     		mov	r2, r5
 5539 0104 4846     		mov	r0, r9
 5540 0106 1B68     		ldr	r3, [r3]
 5541 0108 0093     		str	r3, [sp]
 5542 010a BAF80030 		ldrh	r3, [r10]
 5543 010e 0193     		str	r3, [sp, #4]
 5544 0110 2D4B     		ldr	r3, .L413+48
 5545 0112 9F68     		ldr	r7, [r3, #8]
 5546 0114 2346     		mov	r3, r4
 5547 0116 B847     		blx	r7
 5548              	.LVL633:
1772:/home/tienluong/workspace/atlantis_fw/AsicFwS2/src/lcc_cmd_base_0000.c **** 								i2c_rx_data, rx_len);
1773:/home/tienluong/workspace/atlantis_fw/AsicFwS2/src/lcc_cmd_base_0000.c **** 				vPortFree(i2c_tx_data);
 5549              		.loc 1 1773 0
 5550 0118 2846     		mov	r0, r5
 5551 011a 1F49     		ldr	r1, .L413
 5552 011c 40F2ED62 		movw	r2, #1773
 5553 0120 2A4B     		ldr	r3, .L413+52
 5554 0122 9847     		blx	r3
 5555              	.LVL634:
 5556 0124 2CE0     		b	.L411
 5557              	.LVL635:
 5558              	.L389:
1774:/home/tienluong/workspace/atlantis_fw/AsicFwS2/src/lcc_cmd_base_0000.c **** 				i2c_tx_data = NULL;
1775:/home/tienluong/workspace/atlantis_fw/AsicFwS2/src/lcc_cmd_base_0000.c **** 				in->status = LCC_CMD_SUCCESS;
1776:/home/tienluong/workspace/atlantis_fw/AsicFwS2/src/lcc_cmd_base_0000.c **** 			}
1777:/home/tienluong/workspace/atlantis_fw/AsicFwS2/src/lcc_cmd_base_0000.c **** 
1778:/home/tienluong/workspace/atlantis_fw/AsicFwS2/src/lcc_cmd_base_0000.c **** 		}
1779:/home/tienluong/workspace/atlantis_fw/AsicFwS2/src/lcc_cmd_base_0000.c **** 		else
1780:/home/tienluong/workspace/atlantis_fw/AsicFwS2/src/lcc_cmd_base_0000.c **** 		{
1781:/home/tienluong/workspace/atlantis_fw/AsicFwS2/src/lcc_cmd_base_0000.c **** 			SLOGF(SLOG_ERROR, "%s: Invalid input ", __FUNCTION__);
1782:/home/tienluong/workspace/atlantis_fw/AsicFwS2/src/lcc_cmd_base_0000.c **** 			in->status = LCC_CMD_UNSUCCESS;
1783:/home/tienluong/workspace/atlantis_fw/AsicFwS2/src/lcc_cmd_base_0000.c **** 		}
1784:/home/tienluong/workspace/atlantis_fw/AsicFwS2/src/lcc_cmd_base_0000.c **** 
1785:/home/tienluong/workspace/atlantis_fw/AsicFwS2/src/lcc_cmd_base_0000.c **** 	}
1786:/home/tienluong/workspace/atlantis_fw/AsicFwS2/src/lcc_cmd_base_0000.c **** 	else
1787:/home/tienluong/workspace/atlantis_fw/AsicFwS2/src/lcc_cmd_base_0000.c **** 	{
1788:/home/tienluong/workspace/atlantis_fw/AsicFwS2/src/lcc_cmd_base_0000.c **** 		if((i2c_rx_data != NULL) && (rx_len != 0))
 5559              		.loc 1 1788 0
 5560 0126 1F4C     		ldr	r4, .L413+12
 5561 0128 DFF88480 		ldr	r8, .L413+24
 5562 012c 2368     		ldr	r3, [r4]
 5563 012e 4BB3     		cbz	r3, .L400
 5564              		.loc 1 1788 0 is_stmt 0 discriminator 1
 5565 0130 1D4D     		ldr	r5, .L413+16
 5566 0132 2888     		ldrh	r0, [r5]
 5567              	.LVL636:
 5568 0134 30B3     		cbz	r0, .L400
1789:/home/tienluong/workspace/atlantis_fw/AsicFwS2/src/lcc_cmd_base_0000.c **** 		{
1790:/home/tienluong/workspace/atlantis_fw/AsicFwS2/src/lcc_cmd_base_0000.c **** 			assert_malloc(out->data, rx_len * sizeof(uint8_t));
 5569              		.loc 1 1790 0 is_stmt 1
 5570 0136 1849     		ldr	r1, .L413
 5571              	.LVL637:
 5572 0138 40F2FE62 		movw	r2, #1790
 5573 013c 174B     		ldr	r3, .L413+4
 5574 013e 9847     		blx	r3
 5575              	.LVL638:
 5576 0140 7860     		str	r0, [r7, #4]
 5577 0142 20B9     		cbnz	r0, .L401
 5578              		.loc 1 1790 0 is_stmt 0 discriminator 2
 5579 0144 1448     		ldr	r0, .L413
 5580 0146 40F2FE61 		movw	r1, #1790
 5581 014a 154B     		ldr	r3, .L413+8
 5582 014c 9847     		blx	r3
 5583              	.LVL639:
 5584              	.L401:
1791:/home/tienluong/workspace/atlantis_fw/AsicFwS2/src/lcc_cmd_base_0000.c **** 			memcpy(out->data, i2c_rx_data, rx_len);
 5585              		.loc 1 1791 0 is_stmt 1
 5586 014e D4F80090 		ldr	r9, [r4]
 5587 0152 B5F800A0 		ldrh	r10, [r5]
 5588 0156 4946     		mov	r1, r9
 5589 0158 5246     		mov	r2, r10
 5590 015a 1A4B     		ldr	r3, .L413+44
 5591 015c 7868     		ldr	r0, [r7, #4]
 5592 015e 9847     		blx	r3
 5593              	.LVL640:
1792:/home/tienluong/workspace/atlantis_fw/AsicFwS2/src/lcc_cmd_base_0000.c **** 			out->len = rx_len;
1793:/home/tienluong/workspace/atlantis_fw/AsicFwS2/src/lcc_cmd_base_0000.c **** 			vPortFree(i2c_rx_data);
 5594              		.loc 1 1793 0
 5595 0160 4846     		mov	r0, r9
 5596 0162 0D49     		ldr	r1, .L413
 5597 0164 40F20172 		movw	r2, #1793
 5598 0168 184B     		ldr	r3, .L413+52
1792:/home/tienluong/workspace/atlantis_fw/AsicFwS2/src/lcc_cmd_base_0000.c **** 			out->len = rx_len;
 5599              		.loc 1 1792 0
 5600 016a A7F808A0 		strh	r10, [r7, #8]	@ movhi
 5601              		.loc 1 1793 0
 5602 016e 9847     		blx	r3
 5603              	.LVL641:
1794:/home/tienluong/workspace/atlantis_fw/AsicFwS2/src/lcc_cmd_base_0000.c **** 			rx_len = 0;
 5604              		.loc 1 1794 0
 5605 0170 0023     		movs	r3, #0
1795:/home/tienluong/workspace/atlantis_fw/AsicFwS2/src/lcc_cmd_base_0000.c **** 			i2c_rx_data = NULL;
1796:/home/tienluong/workspace/atlantis_fw/AsicFwS2/src/lcc_cmd_base_0000.c **** 
1797:/home/tienluong/workspace/atlantis_fw/AsicFwS2/src/lcc_cmd_base_0000.c **** 			SLOGF(SLOG_INFO, "Data %s", i2c_status == I2CM_ERROR_TRANSCEIVED
 5606              		.loc 1 1797 0
 5607 0172 2120     		movs	r0, #33
1794:/home/tienluong/workspace/atlantis_fw/AsicFwS2/src/lcc_cmd_base_0000.c **** 			rx_len = 0;
 5608              		.loc 1 1794 0
 5609 0174 2B80     		strh	r3, [r5]	@ movhi
 5610              		.loc 1 1797 0
 5611 0176 0821     		movs	r1, #8
1795:/home/tienluong/workspace/atlantis_fw/AsicFwS2/src/lcc_cmd_base_0000.c **** 			i2c_rx_data = NULL;
 5612              		.loc 1 1795 0
 5613 0178 2360     		str	r3, [r4]
 5614              		.loc 1 1797 0
 5615 017a 154A     		ldr	r2, .L413+56
 5616 017c 154B     		ldr	r3, .L413+60
 5617 017e C047     		blx	r8
 5618              	.LVL642:
 5619              	.L411:
1798:/home/tienluong/workspace/atlantis_fw/AsicFwS2/src/lcc_cmd_base_0000.c **** 				? "is"
1799:/home/tienluong/workspace/atlantis_fw/AsicFwS2/src/lcc_cmd_base_0000.c **** 			" ready" : i2c_status == I2CM_ERROR_BUSY ? "is pending" :
1800:/home/tienluong/workspace/atlantis_fw/AsicFwS2/src/lcc_cmd_base_0000.c **** 			"is not exist because of the i2c timeout");
1801:/home/tienluong/workspace/atlantis_fw/AsicFwS2/src/lcc_cmd_base_0000.c **** 			in->status = LCC_CMD_SUCCESS;
 5620              		.loc 1 1801 0
 5621 0180 0123     		movs	r3, #1
 5622 0182 05E0     		b	.L409
 5623              	.LVL643:
 5624              	.L400:
1802:/home/tienluong/workspace/atlantis_fw/AsicFwS2/src/lcc_cmd_base_0000.c **** 		}
1803:/home/tienluong/workspace/atlantis_fw/AsicFwS2/src/lcc_cmd_base_0000.c **** 		else
1804:/home/tienluong/workspace/atlantis_fw/AsicFwS2/src/lcc_cmd_base_0000.c **** 		{
1805:/home/tienluong/workspace/atlantis_fw/AsicFwS2/src/lcc_cmd_base_0000.c **** 			SLOGF(SLOG_ERROR, "%s: Please send a read request first ",
 5625              		.loc 1 1805 0
 5626 0184 044B     		ldr	r3, .L413
 5627 0186 2120     		movs	r0, #33
 5628 0188 0221     		movs	r1, #2
 5629              	.LVL644:
 5630 018a 134A     		ldr	r2, .L413+64
 5631 018c C047     		blx	r8
 5632              	.LVL645:
1806:/home/tienluong/workspace/atlantis_fw/AsicFwS2/src/lcc_cmd_base_0000.c **** 			 __FUNCTION__);
1807:/home/tienluong/workspace/atlantis_fw/AsicFwS2/src/lcc_cmd_base_0000.c **** 			in->status = LCC_CMD_INVALID_ARG;
 5633              		.loc 1 1807 0
 5634 018e 0423     		movs	r3, #4
 5635              	.LVL646:
 5636              	.L409:
 5637 0190 3382     		strh	r3, [r6, #16]	@ movhi
 5638              	.L388:
1808:/home/tienluong/workspace/atlantis_fw/AsicFwS2/src/lcc_cmd_base_0000.c **** 		}
1809:/home/tienluong/workspace/atlantis_fw/AsicFwS2/src/lcc_cmd_base_0000.c **** 
1810:/home/tienluong/workspace/atlantis_fw/AsicFwS2/src/lcc_cmd_base_0000.c **** 	}
1811:/home/tienluong/workspace/atlantis_fw/AsicFwS2/src/lcc_cmd_base_0000.c **** }
 5639              		.loc 1 1811 0
 5640 0192 04B0     		add	sp, sp, #16
 5641              	.LCFI48:
 5642              		.cfi_def_cfa_offset 32
 5643              		@ sp needed
 5644 0194 BDE8F087 		pop	{r4, r5, r6, r7, r8, r9, r10, pc}
 5645              	.LVL647:
 5646              	.L414:
 5647              		.align	2
 5648              	.L413:
 5649 0198 00000000 		.word	.LANCHOR22
 5650 019c 00000000 		.word	pvPortMalloc1
 5651 01a0 00000000 		.word	malloc_failed
 5652 01a4 00000000 		.word	.LANCHOR23
 5653 01a8 00000000 		.word	.LANCHOR24
 5654 01ac CA030000 		.word	.LC37
 5655 01b0 00000000 		.word	slogf
 5656 01b4 00000000 		.word	vTaskDelay
 5657 01b8 DC030000 		.word	.LC38
 5658 01bc 00000000 		.word	.LC0
 5659 01c0 EF030000 		.word	.LC39
 5660 01c4 00000000 		.word	memcpy
 5661 01c8 00000000 		.word	i2cm
 5662 01cc 00000000 		.word	vPortFree1
 5663 01d0 88040000 		.word	.LC40
 5664 01d4 90040000 		.word	.LC41
 5665 01d8 B8040000 		.word	.LC42
 5666              		.cfi_endproc
 5667              	.LFE23:
 5669              		.global	__aeabi_f2d
 5670              		.section	.text.cmd_zoom_factor,"ax",%progbits
 5671              		.align	1
 5672              		.global	cmd_zoom_factor
 5673              		.thumb
 5674              		.thumb_func
 5676              	cmd_zoom_factor:
 5677              	.LFB24:
1812:/home/tienluong/workspace/atlantis_fw/AsicFwS2/src/lcc_cmd_base_0000.c **** 
1813:/home/tienluong/workspace/atlantis_fw/AsicFwS2/src/lcc_cmd_base_0000.c **** /**
1814:/home/tienluong/workspace/atlantis_fw/AsicFwS2/src/lcc_cmd_base_0000.c ****  * cmd_zoom_factor
1815:/home/tienluong/workspace/atlantis_fw/AsicFwS2/src/lcc_cmd_base_0000.c ****  * [TID][CMD][UCID][4 bytes data]
1816:/home/tienluong/workspace/atlantis_fw/AsicFwS2/src/lcc_cmd_base_0000.c ****  *
1817:/home/tienluong/workspace/atlantis_fw/AsicFwS2/src/lcc_cmd_base_0000.c ****  */
1818:/home/tienluong/workspace/atlantis_fw/AsicFwS2/src/lcc_cmd_base_0000.c **** void cmd_zoom_factor(lcc_cmd_t *in, lcc_cmd_t *out)
1819:/home/tienluong/workspace/atlantis_fw/AsicFwS2/src/lcc_cmd_base_0000.c **** {
 5678              		.loc 1 1819 0
 5679              		.cfi_startproc
 5680              		@ args = 0, pretend = 0, frame = 8
 5681              		@ frame_needed = 0, uses_anonymous_args = 0
 5682              	.LVL648:
 5683 0000 F0B5     		push	{r4, r5, r6, r7, lr}
 5684              	.LCFI49:
 5685              		.cfi_def_cfa_offset 20
 5686              		.cfi_offset 4, -20
 5687              		.cfi_offset 5, -16
 5688              		.cfi_offset 6, -12
 5689              		.cfi_offset 7, -8
 5690              		.cfi_offset 14, -4
1820:/home/tienluong/workspace/atlantis_fw/AsicFwS2/src/lcc_cmd_base_0000.c **** 	lcc_cmd_info_t cmd = (lcc_cmd_info_t)(LCC_CMD_ZOOM_FACTOR);
1821:/home/tienluong/workspace/atlantis_fw/AsicFwS2/src/lcc_cmd_base_0000.c **** 
1822:/home/tienluong/workspace/atlantis_fw/AsicFwS2/src/lcc_cmd_base_0000.c **** 	/* Read command processing */
1823:/home/tienluong/workspace/atlantis_fw/AsicFwS2/src/lcc_cmd_base_0000.c **** 	if (CMD_READ == in->action)
 5691              		.loc 1 1823 0
 5692 0002 C37C     		ldrb	r3, [r0, #19]	@ zero_extendqisi2
 5693 0004 13F0010F 		tst	r3, #1
1819:/home/tienluong/workspace/atlantis_fw/AsicFwS2/src/lcc_cmd_base_0000.c **** 	lcc_cmd_info_t cmd = (lcc_cmd_info_t)(LCC_CMD_ZOOM_FACTOR);
 5694              		.loc 1 1819 0
 5695 0008 85B0     		sub	sp, sp, #20
 5696              	.LCFI50:
 5697              		.cfi_def_cfa_offset 40
1819:/home/tienluong/workspace/atlantis_fw/AsicFwS2/src/lcc_cmd_base_0000.c **** 	lcc_cmd_info_t cmd = (lcc_cmd_info_t)(LCC_CMD_ZOOM_FACTOR);
 5698              		.loc 1 1819 0
 5699 000a 0446     		mov	r4, r0
 5700 000c 0E46     		mov	r6, r1
 5701 000e 1F4D     		ldr	r5, .L419
 5702              		.loc 1 1823 0
 5703 0010 25D0     		beq	.L416
 5704              	.LBB25:
1824:/home/tienluong/workspace/atlantis_fw/AsicFwS2/src/lcc_cmd_base_0000.c **** 	{
1825:/home/tienluong/workspace/atlantis_fw/AsicFwS2/src/lcc_cmd_base_0000.c **** 		out->data = pvPortMalloc(cmd.size);
 5705              		.loc 1 1825 0
 5706 0012 0420     		movs	r0, #4
 5707              	.LVL649:
 5708 0014 1E49     		ldr	r1, .L419+4
 5709              	.LVL650:
 5710 0016 40F22172 		movw	r2, #1825
 5711 001a 1E4B     		ldr	r3, .L419+8
 5712 001c 9847     		blx	r3
 5713              	.LVL651:
 5714 001e 0746     		mov	r7, r0
 5715 0020 7060     		str	r0, [r6, #4]
1826:/home/tienluong/workspace/atlantis_fw/AsicFwS2/src/lcc_cmd_base_0000.c **** 		if (NULL == out->data)
 5716              		.loc 1 1826 0
 5717 0022 30B9     		cbnz	r0, .L417
1827:/home/tienluong/workspace/atlantis_fw/AsicFwS2/src/lcc_cmd_base_0000.c **** 		{
1828:/home/tienluong/workspace/atlantis_fw/AsicFwS2/src/lcc_cmd_base_0000.c **** 			SLOGF(SLOG_ERROR, "%s: Lack of memory", __FUNCTION__);
 5718              		.loc 1 1828 0
 5719 0024 2120     		movs	r0, #33
 5720 0026 0221     		movs	r1, #2
 5721 0028 1B4A     		ldr	r2, .L419+12
 5722 002a 194B     		ldr	r3, .L419+4
 5723 002c A847     		blx	r5
 5724              	.LVL652:
1829:/home/tienluong/workspace/atlantis_fw/AsicFwS2/src/lcc_cmd_base_0000.c **** 			in->status = LCC_CMD_UNSUCCESS;
 5725              		.loc 1 1829 0
 5726 002e 2782     		strh	r7, [r4, #16]	@ movhi
 5727 0030 29E0     		b	.L415
 5728              	.L417:
1830:/home/tienluong/workspace/atlantis_fw/AsicFwS2/src/lcc_cmd_base_0000.c **** 			return;
1831:/home/tienluong/workspace/atlantis_fw/AsicFwS2/src/lcc_cmd_base_0000.c **** 		}
1832:/home/tienluong/workspace/atlantis_fw/AsicFwS2/src/lcc_cmd_base_0000.c ****         float zoom_factor = light_system->settings->zoom_factor;
 5729              		.loc 1 1832 0
 5730 0032 1A4B     		ldr	r3, .L419+16
 5731 0034 04AC     		add	r4, sp, #16
 5732              	.LVL653:
 5733 0036 1B68     		ldr	r3, [r3]
 5734 0038 9B68     		ldr	r3, [r3, #8]
 5735 003a D3F8A000 		ldr	r0, [r3, #160]	@ float
 5736 003e 44F8040D 		str	r0, [r4, #-4]!	@ float
1833:/home/tienluong/workspace/atlantis_fw/AsicFwS2/src/lcc_cmd_base_0000.c **** 		SLOGF(SLOG_DEBUG, "Read zoom factor data: %.02f", zoom_factor);
 5737              		.loc 1 1833 0
 5738 0042 174B     		ldr	r3, .L419+20
 5739 0044 9847     		blx	r3
 5740              	.LVL654:
 5741 0046 174A     		ldr	r2, .L419+24
 5742 0048 CDE90001 		strd	r0, [sp]
 5743 004c 2120     		movs	r0, #33
 5744 004e 1021     		movs	r1, #16
 5745 0050 A847     		blx	r5
 5746              	.LVL655:
1834:/home/tienluong/workspace/atlantis_fw/AsicFwS2/src/lcc_cmd_base_0000.c **** 		/* TODO: Take semaphore to access settings memory */
1835:/home/tienluong/workspace/atlantis_fw/AsicFwS2/src/lcc_cmd_base_0000.c **** 		memcpy(out->data, &zoom_factor, cmd.size);
 5747              		.loc 1 1835 0
 5748 0052 7368     		ldr	r3, [r6, #4]
 5749 0054 2068     		ldr	r0, [r4]	@ unaligned
 5750 0056 1860     		str	r0, [r3]	@ unaligned
1836:/home/tienluong/workspace/atlantis_fw/AsicFwS2/src/lcc_cmd_base_0000.c **** 		/* TODO: Release semaphore after read data */
1837:/home/tienluong/workspace/atlantis_fw/AsicFwS2/src/lcc_cmd_base_0000.c **** 		out->len = cmd.size;
 5751              		.loc 1 1837 0
 5752 0058 0423     		movs	r3, #4
 5753 005a 3381     		strh	r3, [r6, #8]	@ movhi
 5754              	.LBE25:
 5755 005c 13E0     		b	.L415
 5756              	.LVL656:
 5757              	.L416:
 5758              	.LBB26:
1838:/home/tienluong/workspace/atlantis_fw/AsicFwS2/src/lcc_cmd_base_0000.c **** 	}
1839:/home/tienluong/workspace/atlantis_fw/AsicFwS2/src/lcc_cmd_base_0000.c **** 	else
1840:/home/tienluong/workspace/atlantis_fw/AsicFwS2/src/lcc_cmd_base_0000.c **** 	{
1841:/home/tienluong/workspace/atlantis_fw/AsicFwS2/src/lcc_cmd_base_0000.c **** 		float zoom_factor;
1842:/home/tienluong/workspace/atlantis_fw/AsicFwS2/src/lcc_cmd_base_0000.c **** 		memcpy(&zoom_factor, &in->data[0], cmd.size);
 5759              		.loc 1 1842 0
 5760 005e 4368     		ldr	r3, [r0, #4]
 5761 0060 1868     		ldr	r0, [r3]	@ unaligned
 5762              	.LVL657:
 5763 0062 0390     		str	r0, [sp, #12]	@ unaligned
1843:/home/tienluong/workspace/atlantis_fw/AsicFwS2/src/lcc_cmd_base_0000.c **** 		SLOGF(SLOG_DEBUG, "Write zoom factor data: %.02f (wrt 28mm)", zoom_factor);
 5764              		.loc 1 1843 0
 5765 0064 039E     		ldr	r6, [sp, #12]	@ float
 5766 0066 0E4B     		ldr	r3, .L419+20
 5767 0068 3046     		mov	r0, r6
 5768 006a 9847     		blx	r3
 5769              	.LVL658:
 5770 006c 0E4A     		ldr	r2, .L419+28
 5771 006e CDE90001 		strd	r0, [sp]
 5772 0072 2120     		movs	r0, #33
 5773 0074 1021     		movs	r1, #16
 5774 0076 A847     		blx	r5
 5775              	.LVL659:
1844:/home/tienluong/workspace/atlantis_fw/AsicFwS2/src/lcc_cmd_base_0000.c **** 
1845:/home/tienluong/workspace/atlantis_fw/AsicFwS2/src/lcc_cmd_base_0000.c **** 		/* TODO: Take semaphore to access settings memory */
1846:/home/tienluong/workspace/atlantis_fw/AsicFwS2/src/lcc_cmd_base_0000.c **** 		light_system->settings->zoom_factor = zoom_factor;
 5776              		.loc 1 1846 0
 5777 0078 084B     		ldr	r3, .L419+16
 5778 007a 1B68     		ldr	r3, [r3]
 5779 007c 9B68     		ldr	r3, [r3, #8]
 5780 007e C3F8A060 		str	r6, [r3, #160]	@ float
1847:/home/tienluong/workspace/atlantis_fw/AsicFwS2/src/lcc_cmd_base_0000.c **** 
1848:/home/tienluong/workspace/atlantis_fw/AsicFwS2/src/lcc_cmd_base_0000.c **** 		/* TODO: Release semaphore after read data */
1849:/home/tienluong/workspace/atlantis_fw/AsicFwS2/src/lcc_cmd_base_0000.c **** 
1850:/home/tienluong/workspace/atlantis_fw/AsicFwS2/src/lcc_cmd_base_0000.c **** 		/* Update the command status */
1851:/home/tienluong/workspace/atlantis_fw/AsicFwS2/src/lcc_cmd_base_0000.c **** 		in->status = LCC_CMD_SUCCESS;
 5781              		.loc 1 1851 0
 5782 0082 0123     		movs	r3, #1
 5783 0084 2382     		strh	r3, [r4, #16]	@ movhi
 5784              	.LVL660:
 5785              	.L415:
 5786              	.LBE26:
1852:/home/tienluong/workspace/atlantis_fw/AsicFwS2/src/lcc_cmd_base_0000.c **** 	}
1853:/home/tienluong/workspace/atlantis_fw/AsicFwS2/src/lcc_cmd_base_0000.c **** }
 5787              		.loc 1 1853 0
 5788 0086 05B0     		add	sp, sp, #20
 5789              	.LCFI51:
 5790              		.cfi_def_cfa_offset 20
 5791              		@ sp needed
 5792 0088 F0BD     		pop	{r4, r5, r6, r7, pc}
 5793              	.L420:
 5794 008a 00BF     		.align	2
 5795              	.L419:
 5796 008c 00000000 		.word	slogf
 5797 0090 00000000 		.word	.LANCHOR25
 5798 0094 00000000 		.word	pvPortMalloc1
 5799 0098 00000000 		.word	.LC0
 5800 009c 00000000 		.word	light_system
 5801 00a0 00000000 		.word	__aeabi_f2d
 5802 00a4 DE040000 		.word	.LC43
 5803 00a8 FB040000 		.word	.LC44
 5804              		.cfi_endproc
 5805              	.LFE24:
 5807              		.section	.text.cmd_cam_module_mirror_calib,"ax",%progbits
 5808              		.align	1
 5809              		.global	cmd_cam_module_mirror_calib
 5810              		.thumb
 5811              		.thumb_func
 5813              	cmd_cam_module_mirror_calib:
 5814              	.LFB25:
1854:/home/tienluong/workspace/atlantis_fw/AsicFwS2/src/lcc_cmd_base_0000.c **** 
1855:/home/tienluong/workspace/atlantis_fw/AsicFwS2/src/lcc_cmd_base_0000.c **** /**
1856:/home/tienluong/workspace/atlantis_fw/AsicFwS2/src/lcc_cmd_base_0000.c ****  * cmd_cam_module_mirror_calib
1857:/home/tienluong/workspace/atlantis_fw/AsicFwS2/src/lcc_cmd_base_0000.c ****  * [TID][CMD_ID][M_BITMASK][DUMMY_BYTES]
1858:/home/tienluong/workspace/atlantis_fw/AsicFwS2/src/lcc_cmd_base_0000.c ****  */
1859:/home/tienluong/workspace/atlantis_fw/AsicFwS2/src/lcc_cmd_base_0000.c **** void cmd_cam_module_mirror_calib(lcc_cmd_t *in, lcc_cmd_t *out)
1860:/home/tienluong/workspace/atlantis_fw/AsicFwS2/src/lcc_cmd_base_0000.c **** {
 5815              		.loc 1 1860 0
 5816              		.cfi_startproc
 5817              		@ args = 0, pretend = 0, frame = 8
 5818              		@ frame_needed = 0, uses_anonymous_args = 0
 5819              	.LVL661:
 5820 0000 2DE9F74F 		push	{r0, r1, r2, r4, r5, r6, r7, r8, r9, r10, fp, lr}
 5821              	.LCFI52:
 5822              		.cfi_def_cfa_offset 48
 5823              		.cfi_offset 4, -36
 5824              		.cfi_offset 5, -32
 5825              		.cfi_offset 6, -28
 5826              		.cfi_offset 7, -24
 5827              		.cfi_offset 8, -20
 5828              		.cfi_offset 9, -16
 5829              		.cfi_offset 10, -12
 5830              		.cfi_offset 11, -8
 5831              		.cfi_offset 14, -4
1861:/home/tienluong/workspace/atlantis_fw/AsicFwS2/src/lcc_cmd_base_0000.c **** 	lcc_cmd_tid_t p_cmd;
1862:/home/tienluong/workspace/atlantis_fw/AsicFwS2/src/lcc_cmd_base_0000.c **** 	cam_typedef_t *p_cam;
1863:/home/tienluong/workspace/atlantis_fw/AsicFwS2/src/lcc_cmd_base_0000.c **** 	actuator_t *pmirr;
1864:/home/tienluong/workspace/atlantis_fw/AsicFwS2/src/lcc_cmd_base_0000.c **** 	uint32_t m_bitmask = in->m_bitmask;
1865:/home/tienluong/workspace/atlantis_fw/AsicFwS2/src/lcc_cmd_base_0000.c **** 	uint8_t i, cam_idx;
1866:/home/tienluong/workspace/atlantis_fw/AsicFwS2/src/lcc_cmd_base_0000.c **** 
1867:/home/tienluong/workspace/atlantis_fw/AsicFwS2/src/lcc_cmd_base_0000.c **** 	p_cmd.cmd_tid = in->tid;
 5832              		.loc 1 1867 0
 5833 0004 4389     		ldrh	r3, [r0, #10]
1864:/home/tienluong/workspace/atlantis_fw/AsicFwS2/src/lcc_cmd_base_0000.c **** 	uint8_t i, cam_idx;
 5834              		.loc 1 1864 0
 5835 0006 0768     		ldr	r7, [r0]
 5836              	.LVL662:
1860:/home/tienluong/workspace/atlantis_fw/AsicFwS2/src/lcc_cmd_base_0000.c **** 	lcc_cmd_tid_t p_cmd;
 5837              		.loc 1 1860 0
 5838 0008 0446     		mov	r4, r0
 5839              		.loc 1 1867 0
 5840 000a ADF80030 		strh	r3, [sp]	@ movhi
1868:/home/tienluong/workspace/atlantis_fw/AsicFwS2/src/lcc_cmd_base_0000.c **** 	p_cmd.event = OPT_EVENT_MIRROR_CALIB;
1869:/home/tienluong/workspace/atlantis_fw/AsicFwS2/src/lcc_cmd_base_0000.c **** 	/* Scan camera bitmask */
1870:/home/tienluong/workspace/atlantis_fw/AsicFwS2/src/lcc_cmd_base_0000.c **** 	for (i = 0; i < in->m_number; i++)
 5841              		.loc 1 1870 0
 5842 000e 0026     		movs	r6, #0
1868:/home/tienluong/workspace/atlantis_fw/AsicFwS2/src/lcc_cmd_base_0000.c **** 	p_cmd.event = OPT_EVENT_MIRROR_CALIB;
 5843              		.loc 1 1868 0
 5844 0010 2023     		movs	r3, #32
 5845 0012 0193     		str	r3, [sp, #4]
 5846              	.LVL663:
 5847              	.L422:
 5848              		.loc 1 1870 0 discriminator 1
 5849 0014 F3B2     		uxtb	r3, r6
 5850 0016 A27C     		ldrb	r2, [r4, #18]	@ zero_extendqisi2
 5851 0018 9A42     		cmp	r2, r3
 5852 001a 58D9     		bls	.L421
1871:/home/tienluong/workspace/atlantis_fw/AsicFwS2/src/lcc_cmd_base_0000.c **** 	{
1872:/home/tienluong/workspace/atlantis_fw/AsicFwS2/src/lcc_cmd_base_0000.c **** 		cam_idx = __builtin_ctz(m_bitmask);
1873:/home/tienluong/workspace/atlantis_fw/AsicFwS2/src/lcc_cmd_base_0000.c **** 		m_bitmask &= ~(1 << cam_idx);
 5853              		.loc 1 1873 0
 5854 001c 4FF00108 		mov	r8, #1
1872:/home/tienluong/workspace/atlantis_fw/AsicFwS2/src/lcc_cmd_base_0000.c **** 		m_bitmask &= ~(1 << cam_idx);
 5855              		.loc 1 1872 0
 5856 0020 97FAA7F0 		rbit	r0, r7
1874:/home/tienluong/workspace/atlantis_fw/AsicFwS2/src/lcc_cmd_base_0000.c **** 		/* Get camera object from camera object list */
1875:/home/tienluong/workspace/atlantis_fw/AsicFwS2/src/lcc_cmd_base_0000.c **** 		p_cam = idx_to_object(cam_idx);
 5857              		.loc 1 1875 0
 5858 0024 2B4B     		ldr	r3, .L440
1872:/home/tienluong/workspace/atlantis_fw/AsicFwS2/src/lcc_cmd_base_0000.c **** 		m_bitmask &= ~(1 << cam_idx);
 5859              		.loc 1 1872 0
 5860 0026 B0FA80F0 		clz	r0, r0
 5861              	.LVL664:
1873:/home/tienluong/workspace/atlantis_fw/AsicFwS2/src/lcc_cmd_base_0000.c **** 		/* Get camera object from camera object list */
 5862              		.loc 1 1873 0
 5863 002a 08FA00F5 		lsl	r5, r8, r0
 5864              		.loc 1 1875 0
 5865 002e 9847     		blx	r3
 5866              	.LVL665:
1873:/home/tienluong/workspace/atlantis_fw/AsicFwS2/src/lcc_cmd_base_0000.c **** 		/* Get camera object from camera object list */
 5867              		.loc 1 1873 0
 5868 0030 27EA0507 		bic	r7, r7, r5
 5869              	.LVL666:
1876:/home/tienluong/workspace/atlantis_fw/AsicFwS2/src/lcc_cmd_base_0000.c **** 		if (NULL == p_cam)	/*Verify object is valid */
 5870              		.loc 1 1876 0
 5871 0034 8146     		mov	r9, r0
 5872 0036 08B9     		cbnz	r0, .L423
1877:/home/tienluong/workspace/atlantis_fw/AsicFwS2/src/lcc_cmd_base_0000.c **** 		{
1878:/home/tienluong/workspace/atlantis_fw/AsicFwS2/src/lcc_cmd_base_0000.c **** 			in->status = LCC_CMD_INVALID_ARG;
 5873              		.loc 1 1878 0
 5874 0038 0423     		movs	r3, #4
 5875 003a 3BE0     		b	.L439
 5876              	.L423:
1879:/home/tienluong/workspace/atlantis_fw/AsicFwS2/src/lcc_cmd_base_0000.c **** 			return;
1880:/home/tienluong/workspace/atlantis_fw/AsicFwS2/src/lcc_cmd_base_0000.c **** 		}
1881:/home/tienluong/workspace/atlantis_fw/AsicFwS2/src/lcc_cmd_base_0000.c **** 
1882:/home/tienluong/workspace/atlantis_fw/AsicFwS2/src/lcc_cmd_base_0000.c **** 		if((p_cam->info.grp != GRP_A) &&
 5877              		.loc 1 1882 0
 5878 003c 90F82930 		ldrb	r3, [r0, #41]	@ zero_extendqisi2
 5879 0040 03F0F002 		and	r2, r3, #240
 5880 0044 A02A     		cmp	r2, #160
 5881 0046 37D0     		beq	.L425
 5882              		.loc 1 1882 0 is_stmt 0 discriminator 1
 5883 0048 B42B     		cmp	r3, #180
 5884 004a 35D0     		beq	.L425
1883:/home/tienluong/workspace/atlantis_fw/AsicFwS2/src/lcc_cmd_base_0000.c **** 			(p_cam->info.module != CAM_B4) &&
 5885              		.loc 1 1883 0 is_stmt 1
 5886 004c 3B33     		adds	r3, r3, #59
 5887 004e DBB2     		uxtb	r3, r3
 5888 0050 012B     		cmp	r3, #1
 5889 0052 31D9     		bls	.L425
1884:/home/tienluong/workspace/atlantis_fw/AsicFwS2/src/lcc_cmd_base_0000.c **** 			(p_cam->info.module != CAM_C5) &&
1885:/home/tienluong/workspace/atlantis_fw/AsicFwS2/src/lcc_cmd_base_0000.c **** 			(p_cam->info.module != CAM_C6))
1886:/home/tienluong/workspace/atlantis_fw/AsicFwS2/src/lcc_cmd_base_0000.c **** 		{
1887:/home/tienluong/workspace/atlantis_fw/AsicFwS2/src/lcc_cmd_base_0000.c **** 			/* Raise a updating signal to camera task for this ASIC */
1888:/home/tienluong/workspace/atlantis_fw/AsicFwS2/src/lcc_cmd_base_0000.c **** 			if (light_system->m_filter & (1 << cam_idx))
 5890              		.loc 1 1888 0
 5891 0054 204B     		ldr	r3, .L440+4
 5892 0056 1B68     		ldr	r3, [r3]
 5893 0058 9B69     		ldr	r3, [r3, #24]
 5894 005a 1D42     		tst	r5, r3
 5895 005c 35D0     		beq	.L426
1889:/home/tienluong/workspace/atlantis_fw/AsicFwS2/src/lcc_cmd_base_0000.c **** 			{
1890:/home/tienluong/workspace/atlantis_fw/AsicFwS2/src/lcc_cmd_base_0000.c **** 				pmirr = p_cam->optical->mirr;
 5896              		.loc 1 1890 0
 5897 005e 4368     		ldr	r3, [r0, #4]
1891:/home/tienluong/workspace/atlantis_fw/AsicFwS2/src/lcc_cmd_base_0000.c **** 				/* Take semaphore to access settings memory */
1892:/home/tienluong/workspace/atlantis_fw/AsicFwS2/src/lcc_cmd_base_0000.c **** 				xSemaphoreTake(pmirr->semaphore, portMAX_DELAY);
 5898              		.loc 1 1892 0
 5899 0060 0021     		movs	r1, #0
 5900 0062 4FF0FF32 		mov	r2, #-1
 5901 0066 DFF880C0 		ldr	ip, .L440+20
1890:/home/tienluong/workspace/atlantis_fw/AsicFwS2/src/lcc_cmd_base_0000.c **** 				/* Take semaphore to access settings memory */
 5902              		.loc 1 1890 0
 5903 006a 5D68     		ldr	r5, [r3, #4]
 5904              	.LVL667:
 5905              		.loc 1 1892 0
 5906 006c 0B46     		mov	r3, r1
 5907 006e DFF87CB0 		ldr	fp, .L440+24
 5908 0072 E868     		ldr	r0, [r5, #12]
 5909              	.LVL668:
 5910 0074 E047     		blx	ip
 5911              	.LVL669:
1893:/home/tienluong/workspace/atlantis_fw/AsicFwS2/src/lcc_cmd_base_0000.c **** 				if (pmirr->moving == FALSE)
 5912              		.loc 1 1893 0
 5913 0076 95F81CA0 		ldrb	r10, [r5, #28]	@ zero_extendqisi2
 5914 007a BAF1000F 		cmp	r10, #0
 5915 007e 0CD1     		bne	.L427
1894:/home/tienluong/workspace/atlantis_fw/AsicFwS2/src/lcc_cmd_base_0000.c **** 				{
1895:/home/tienluong/workspace/atlantis_fw/AsicFwS2/src/lcc_cmd_base_0000.c **** 					/* set moving status */
1896:/home/tienluong/workspace/atlantis_fw/AsicFwS2/src/lcc_cmd_base_0000.c **** 					pmirr->moving = TRUE;
1897:/home/tienluong/workspace/atlantis_fw/AsicFwS2/src/lcc_cmd_base_0000.c **** 					/* Release semaphore after accessing data */
1898:/home/tienluong/workspace/atlantis_fw/AsicFwS2/src/lcc_cmd_base_0000.c **** 					xSemaphoreGive(pmirr->semaphore);
 5916              		.loc 1 1898 0
 5917 0080 5146     		mov	r1, r10
 5918 0082 5246     		mov	r2, r10
 5919 0084 5346     		mov	r3, r10
1896:/home/tienluong/workspace/atlantis_fw/AsicFwS2/src/lcc_cmd_base_0000.c **** 					/* Release semaphore after accessing data */
 5920              		.loc 1 1896 0
 5921 0086 85F81C80 		strb	r8, [r5, #28]
 5922              		.loc 1 1898 0
 5923 008a E868     		ldr	r0, [r5, #12]
 5924 008c D847     		blx	fp
 5925              	.LVL670:
1899:/home/tienluong/workspace/atlantis_fw/AsicFwS2/src/lcc_cmd_base_0000.c **** 					xQueueSend(pmirr->queue, &p_cmd, (TickType_t)10);
 5926              		.loc 1 1899 0
 5927 008e 2869     		ldr	r0, [r5, #16]
 5928 0090 6946     		mov	r1, sp
 5929 0092 0A22     		movs	r2, #10
 5930 0094 5346     		mov	r3, r10
 5931 0096 D847     		blx	fp
 5932              	.LVL671:
 5933 0098 17E0     		b	.L426
 5934              	.L427:
1900:/home/tienluong/workspace/atlantis_fw/AsicFwS2/src/lcc_cmd_base_0000.c **** 				}
1901:/home/tienluong/workspace/atlantis_fw/AsicFwS2/src/lcc_cmd_base_0000.c **** 				else
1902:/home/tienluong/workspace/atlantis_fw/AsicFwS2/src/lcc_cmd_base_0000.c **** 				{
1903:/home/tienluong/workspace/atlantis_fw/AsicFwS2/src/lcc_cmd_base_0000.c **** 					/* Release semaphore after accessing data */
1904:/home/tienluong/workspace/atlantis_fw/AsicFwS2/src/lcc_cmd_base_0000.c **** 					xSemaphoreGive(pmirr->semaphore);
 5935              		.loc 1 1904 0
 5936 009a 0021     		movs	r1, #0
 5937 009c 0A46     		mov	r2, r1
 5938 009e 0B46     		mov	r3, r1
 5939 00a0 E868     		ldr	r0, [r5, #12]
 5940 00a2 D847     		blx	fp
 5941              	.LVL672:
1905:/home/tienluong/workspace/atlantis_fw/AsicFwS2/src/lcc_cmd_base_0000.c **** 					SLOGF(SLOG_ERROR, "CAM-%X : Mirror is moving",
 5942              		.loc 1 1905 0
 5943 00a4 0D4D     		ldr	r5, .L440+8
 5944              	.LVL673:
 5945 00a6 99F82930 		ldrb	r3, [r9, #41]	@ zero_extendqisi2
 5946 00aa 2120     		movs	r0, #33
 5947 00ac 0221     		movs	r1, #2
 5948 00ae 0C4A     		ldr	r2, .L440+12
 5949 00b0 A847     		blx	r5
 5950              	.LVL674:
1906:/home/tienluong/workspace/atlantis_fw/AsicFwS2/src/lcc_cmd_base_0000.c **** 							p_cam->info.module);
1907:/home/tienluong/workspace/atlantis_fw/AsicFwS2/src/lcc_cmd_base_0000.c **** 					in->status = LCC_CMD_UNSUCCESS;
 5951              		.loc 1 1907 0
 5952 00b2 0023     		movs	r3, #0
 5953              	.L439:
 5954 00b4 2382     		strh	r3, [r4, #16]	@ movhi
1908:/home/tienluong/workspace/atlantis_fw/AsicFwS2/src/lcc_cmd_base_0000.c **** 					return;
 5955              		.loc 1 1908 0
 5956 00b6 0AE0     		b	.L421
 5957              	.LVL675:
 5958              	.L425:
1909:/home/tienluong/workspace/atlantis_fw/AsicFwS2/src/lcc_cmd_base_0000.c **** 				}
1910:/home/tienluong/workspace/atlantis_fw/AsicFwS2/src/lcc_cmd_base_0000.c **** 			}
1911:/home/tienluong/workspace/atlantis_fw/AsicFwS2/src/lcc_cmd_base_0000.c **** 		}
1912:/home/tienluong/workspace/atlantis_fw/AsicFwS2/src/lcc_cmd_base_0000.c **** 		else
1913:/home/tienluong/workspace/atlantis_fw/AsicFwS2/src/lcc_cmd_base_0000.c **** 		{
1914:/home/tienluong/workspace/atlantis_fw/AsicFwS2/src/lcc_cmd_base_0000.c **** 			in->status = LCC_CMD_SUCCESS;
 5959              		.loc 1 1914 0
 5960 00b8 0123     		movs	r3, #1
1915:/home/tienluong/workspace/atlantis_fw/AsicFwS2/src/lcc_cmd_base_0000.c **** 			/* Reset bit of CAM if it have not MIRROR */
1916:/home/tienluong/workspace/atlantis_fw/AsicFwS2/src/lcc_cmd_base_0000.c **** 			in->m_bitmask &= ~(object_to_cam_bitmask(p_cam));
 5961              		.loc 1 1916 0
 5962 00ba 4846     		mov	r0, r9
 5963              	.LVL676:
1914:/home/tienluong/workspace/atlantis_fw/AsicFwS2/src/lcc_cmd_base_0000.c **** 			/* Reset bit of CAM if it have not MIRROR */
 5964              		.loc 1 1914 0
 5965 00bc 2382     		strh	r3, [r4, #16]	@ movhi
 5966              		.loc 1 1916 0
 5967 00be 094B     		ldr	r3, .L440+16
 5968 00c0 9847     		blx	r3
 5969              	.LVL677:
 5970 00c2 2368     		ldr	r3, [r4]
 5971 00c4 23EA0000 		bic	r0, r3, r0
 5972 00c8 2060     		str	r0, [r4]
 5973              	.L426:
 5974              	.LVL678:
 5975 00ca 0136     		adds	r6, r6, #1
 5976              	.LVL679:
 5977 00cc A2E7     		b	.L422
 5978              	.LVL680:
 5979              	.L421:
1917:/home/tienluong/workspace/atlantis_fw/AsicFwS2/src/lcc_cmd_base_0000.c **** 		}
1918:/home/tienluong/workspace/atlantis_fw/AsicFwS2/src/lcc_cmd_base_0000.c **** 	}
1919:/home/tienluong/workspace/atlantis_fw/AsicFwS2/src/lcc_cmd_base_0000.c **** 	/* The command status will be updated in either lcc_cmd task
1920:/home/tienluong/workspace/atlantis_fw/AsicFwS2/src/lcc_cmd_base_0000.c **** 	 * (read command) or task_cam_ctrl (write command) */
1921:/home/tienluong/workspace/atlantis_fw/AsicFwS2/src/lcc_cmd_base_0000.c **** }
 5980              		.loc 1 1921 0
 5981 00ce 03B0     		add	sp, sp, #12
 5982              	.LCFI53:
 5983              		.cfi_def_cfa_offset 36
 5984              		@ sp needed
 5985 00d0 BDE8F08F 		pop	{r4, r5, r6, r7, r8, r9, r10, fp, pc}
 5986              	.LVL681:
 5987              	.L441:
 5988              		.align	2
 5989              	.L440:
 5990 00d4 00000000 		.word	idx_to_object
 5991 00d8 00000000 		.word	light_system
 5992 00dc 00000000 		.word	slogf
 5993 00e0 7F010000 		.word	.LC17
 5994 00e4 00000000 		.word	object_to_cam_bitmask
 5995 00e8 00000000 		.word	xQueueGenericReceive
 5996 00ec 00000000 		.word	xQueueGenericSend
 5997              		.cfi_endproc
 5998              	.LFE25:
 6000              		.section	.text.cmd_i2c_speed,"ax",%progbits
 6001              		.align	1
 6002              		.global	cmd_i2c_speed
 6003              		.thumb
 6004              		.thumb_func
 6006              	cmd_i2c_speed:
 6007              	.LFB26:
1922:/home/tienluong/workspace/atlantis_fw/AsicFwS2/src/lcc_cmd_base_0000.c **** 
1923:/home/tienluong/workspace/atlantis_fw/AsicFwS2/src/lcc_cmd_base_0000.c **** /**
1924:/home/tienluong/workspace/atlantis_fw/AsicFwS2/src/lcc_cmd_base_0000.c ****  * cmd_cam_module_mirror_calib
1925:/home/tienluong/workspace/atlantis_fw/AsicFwS2/src/lcc_cmd_base_0000.c ****  * [TID][CMD_ID][I2C_CH_BITMASK][N*SPPED]
1926:/home/tienluong/workspace/atlantis_fw/AsicFwS2/src/lcc_cmd_base_0000.c ****  */
1927:/home/tienluong/workspace/atlantis_fw/AsicFwS2/src/lcc_cmd_base_0000.c **** void cmd_i2c_speed(lcc_cmd_t *in, lcc_cmd_t *out)
1928:/home/tienluong/workspace/atlantis_fw/AsicFwS2/src/lcc_cmd_base_0000.c **** {
 6008              		.loc 1 1928 0
 6009              		.cfi_startproc
 6010              		@ args = 0, pretend = 0, frame = 24
 6011              		@ frame_needed = 0, uses_anonymous_args = 0
 6012              	.LVL682:
 6013 0000 2DE9F04F 		push	{r4, r5, r6, r7, r8, r9, r10, fp, lr}
 6014              	.LCFI54:
 6015              		.cfi_def_cfa_offset 36
 6016              		.cfi_offset 4, -36
 6017              		.cfi_offset 5, -32
 6018              		.cfi_offset 6, -28
 6019              		.cfi_offset 7, -24
 6020              		.cfi_offset 8, -20
 6021              		.cfi_offset 9, -16
 6022              		.cfi_offset 10, -12
 6023              		.cfi_offset 11, -8
 6024              		.cfi_offset 14, -4
1929:/home/tienluong/workspace/atlantis_fw/AsicFwS2/src/lcc_cmd_base_0000.c **** 	lcc_cmd_info_t cmd = (lcc_cmd_info_t)(LCC_CMD_I2C_SPEED);
1930:/home/tienluong/workspace/atlantis_fw/AsicFwS2/src/lcc_cmd_base_0000.c **** 	uint8_t i, chid, data_cnt = 0;
1931:/home/tienluong/workspace/atlantis_fw/AsicFwS2/src/lcc_cmd_base_0000.c **** 	uint32_t c_bitmask = 0;
1932:/home/tienluong/workspace/atlantis_fw/AsicFwS2/src/lcc_cmd_base_0000.c **** 	uint8_t c_number = 0;
1933:/home/tienluong/workspace/atlantis_fw/AsicFwS2/src/lcc_cmd_base_0000.c **** 	uint8_t global = 0;
1934:/home/tienluong/workspace/atlantis_fw/AsicFwS2/src/lcc_cmd_base_0000.c **** 	uint8_t i2c_speed = 0;
1935:/home/tienluong/workspace/atlantis_fw/AsicFwS2/src/lcc_cmd_base_0000.c **** 
1936:/home/tienluong/workspace/atlantis_fw/AsicFwS2/src/lcc_cmd_base_0000.c **** 	SLOGF(SLOG_DEBUG, "Entering %s", __FUNCTION__);
 6025              		.loc 1 1936 0
 6026 0004 754B     		ldr	r3, .L472
1928:/home/tienluong/workspace/atlantis_fw/AsicFwS2/src/lcc_cmd_base_0000.c **** 	lcc_cmd_info_t cmd = (lcc_cmd_info_t)(LCC_CMD_I2C_SPEED);
 6027              		.loc 1 1928 0
 6028 0006 89B0     		sub	sp, sp, #36
 6029              	.LCFI55:
 6030              		.cfi_def_cfa_offset 72
1928:/home/tienluong/workspace/atlantis_fw/AsicFwS2/src/lcc_cmd_base_0000.c **** 	lcc_cmd_info_t cmd = (lcc_cmd_info_t)(LCC_CMD_I2C_SPEED);
 6031              		.loc 1 1928 0
 6032 0008 0546     		mov	r5, r0
 6033 000a 8946     		mov	r9, r1
 6034              		.loc 1 1936 0
 6035 000c 2120     		movs	r0, #33
 6036              	.LVL683:
 6037 000e 1021     		movs	r1, #16
 6038              	.LVL684:
 6039 0010 734A     		ldr	r2, .L472+4
 6040 0012 744C     		ldr	r4, .L472+8
 6041 0014 A047     		blx	r4
 6042              	.LVL685:
 6043 0016 0023     		movs	r3, #0
1937:/home/tienluong/workspace/atlantis_fw/AsicFwS2/src/lcc_cmd_base_0000.c **** 
1938:/home/tienluong/workspace/atlantis_fw/AsicFwS2/src/lcc_cmd_base_0000.c **** 	uint32_t c_bitmask_all = 0;
 6044              		.loc 1 1938 0
 6045 0018 1846     		mov	r0, r3
 6046              	.LVL686:
 6047              	.L443:
1939:/home/tienluong/workspace/atlantis_fw/AsicFwS2/src/lcc_cmd_base_0000.c **** 	for (i = 0; i < I2C_CH_MAX_IDX; i++)
1940:/home/tienluong/workspace/atlantis_fw/AsicFwS2/src/lcc_cmd_base_0000.c **** 	{
1941:/home/tienluong/workspace/atlantis_fw/AsicFwS2/src/lcc_cmd_base_0000.c **** 		c_bitmask_all |= (1 << i);
 6048              		.loc 1 1941 0 discriminator 3
 6049 001a 0122     		movs	r2, #1
 6050 001c 9A40     		lsls	r2, r2, r3
 6051 001e 0133     		adds	r3, r3, #1
 6052              	.LVL687:
1939:/home/tienluong/workspace/atlantis_fw/AsicFwS2/src/lcc_cmd_base_0000.c **** 	for (i = 0; i < I2C_CH_MAX_IDX; i++)
 6053              		.loc 1 1939 0 discriminator 3
 6054 0020 152B     		cmp	r3, #21
 6055              		.loc 1 1941 0 discriminator 3
 6056 0022 40EA0200 		orr	r0, r0, r2
 6057              	.LVL688:
1939:/home/tienluong/workspace/atlantis_fw/AsicFwS2/src/lcc_cmd_base_0000.c **** 	for (i = 0; i < I2C_CH_MAX_IDX; i++)
 6058              		.loc 1 1939 0 discriminator 3
 6059 0026 F8D1     		bne	.L443
1942:/home/tienluong/workspace/atlantis_fw/AsicFwS2/src/lcc_cmd_base_0000.c **** 	}
1943:/home/tienluong/workspace/atlantis_fw/AsicFwS2/src/lcc_cmd_base_0000.c **** 	/* Read command processing */
1944:/home/tienluong/workspace/atlantis_fw/AsicFwS2/src/lcc_cmd_base_0000.c **** 	if (CMD_READ == in->action)
 6060              		.loc 1 1944 0
 6061 0028 EB7C     		ldrb	r3, [r5, #19]	@ zero_extendqisi2
 6062 002a 13F0010F 		tst	r3, #1
1941:/home/tienluong/workspace/atlantis_fw/AsicFwS2/src/lcc_cmd_base_0000.c **** 	}
 6063              		.loc 1 1941 0
 6064 002e 0746     		mov	r7, r0
 6065 0030 6D49     		ldr	r1, .L472+12
 6066              		.loc 1 1944 0
 6067 0032 12D0     		beq	.L444
 6068              	.LVL689:
1945:/home/tienluong/workspace/atlantis_fw/AsicFwS2/src/lcc_cmd_base_0000.c **** 	{
1946:/home/tienluong/workspace/atlantis_fw/AsicFwS2/src/lcc_cmd_base_0000.c **** 		c_bitmask = c_bitmask_all;
1947:/home/tienluong/workspace/atlantis_fw/AsicFwS2/src/lcc_cmd_base_0000.c **** 		/* Get Number of i2c channel selected in c_bitmask */
1948:/home/tienluong/workspace/atlantis_fw/AsicFwS2/src/lcc_cmd_base_0000.c **** 		c_number = __builtin_popcount(c_bitmask);
 6069              		.loc 1 1948 0
 6070 0034 8847     		blx	r1
 6071              	.LVL690:
1949:/home/tienluong/workspace/atlantis_fw/AsicFwS2/src/lcc_cmd_base_0000.c **** 		out->data = pvPortMalloc(c_number * cmd.size);
 6072              		.loc 1 1949 0
 6073 0036 6949     		ldr	r1, .L472
 6074 0038 40F29D72 		movw	r2, #1949
1948:/home/tienluong/workspace/atlantis_fw/AsicFwS2/src/lcc_cmd_base_0000.c **** 		out->data = pvPortMalloc(c_number * cmd.size);
 6075              		.loc 1 1948 0
 6076 003c C3B2     		uxtb	r3, r0
 6077 003e 0493     		str	r3, [sp, #16]
 6078              	.LVL691:
 6079              		.loc 1 1949 0
 6080 0040 6A4B     		ldr	r3, .L472+16
 6081 0042 9847     		blx	r3
 6082              	.LVL692:
 6083 0044 0646     		mov	r6, r0
 6084 0046 C9F80400 		str	r0, [r9, #4]
1950:/home/tienluong/workspace/atlantis_fw/AsicFwS2/src/lcc_cmd_base_0000.c **** 		if (NULL == out->data)
 6085              		.loc 1 1950 0
 6086 004a 10BB     		cbnz	r0, .L462
1951:/home/tienluong/workspace/atlantis_fw/AsicFwS2/src/lcc_cmd_base_0000.c **** 		{
1952:/home/tienluong/workspace/atlantis_fw/AsicFwS2/src/lcc_cmd_base_0000.c **** 			SLOGF(SLOG_ERROR, "%s: Lack of memory", __FUNCTION__);
 6087              		.loc 1 1952 0
 6088 004c 2120     		movs	r0, #33
 6089 004e 0221     		movs	r1, #2
 6090 0050 674A     		ldr	r2, .L472+20
 6091 0052 624B     		ldr	r3, .L472
 6092 0054 A047     		blx	r4
 6093              	.LVL693:
1953:/home/tienluong/workspace/atlantis_fw/AsicFwS2/src/lcc_cmd_base_0000.c **** 			in->status = LCC_CMD_UNSUCCESS;
 6094              		.loc 1 1953 0
 6095 0056 2E82     		strh	r6, [r5, #16]	@ movhi
1954:/home/tienluong/workspace/atlantis_fw/AsicFwS2/src/lcc_cmd_base_0000.c **** 			return;
 6096              		.loc 1 1954 0
 6097 0058 BDE0     		b	.L442
 6098              	.LVL694:
 6099              	.L444:
1955:/home/tienluong/workspace/atlantis_fw/AsicFwS2/src/lcc_cmd_base_0000.c **** 		}
1956:/home/tienluong/workspace/atlantis_fw/AsicFwS2/src/lcc_cmd_base_0000.c **** 	}
1957:/home/tienluong/workspace/atlantis_fw/AsicFwS2/src/lcc_cmd_base_0000.c **** 	else
1958:/home/tienluong/workspace/atlantis_fw/AsicFwS2/src/lcc_cmd_base_0000.c **** 	{
1959:/home/tienluong/workspace/atlantis_fw/AsicFwS2/src/lcc_cmd_base_0000.c **** 		/* Get I2C channel bitmask */
1960:/home/tienluong/workspace/atlantis_fw/AsicFwS2/src/lcc_cmd_base_0000.c **** 		c_bitmask = (uint32_t)in->data[data_cnt++];
 6100              		.loc 1 1960 0
 6101 005a 6A68     		ldr	r2, [r5, #4]
 6102              	.LVL695:
1961:/home/tienluong/workspace/atlantis_fw/AsicFwS2/src/lcc_cmd_base_0000.c **** 		c_bitmask |= (uint32_t)in->data[data_cnt++] << 8;
1962:/home/tienluong/workspace/atlantis_fw/AsicFwS2/src/lcc_cmd_base_0000.c **** 		c_bitmask |= (uint32_t)in->data[data_cnt++] << 16;
 6103              		.loc 1 1962 0
 6104 005c 9378     		ldrb	r3, [r2, #2]	@ zero_extendqisi2
 6105 005e 1B04     		lsls	r3, r3, #16
1961:/home/tienluong/workspace/atlantis_fw/AsicFwS2/src/lcc_cmd_base_0000.c **** 		c_bitmask |= (uint32_t)in->data[data_cnt++] << 8;
 6106              		.loc 1 1961 0
 6107 0060 5778     		ldrb	r7, [r2, #1]	@ zero_extendqisi2
 6108 0062 43EA0723 		orr	r3, r3, r7, lsl #8
1960:/home/tienluong/workspace/atlantis_fw/AsicFwS2/src/lcc_cmd_base_0000.c **** 		c_bitmask |= (uint32_t)in->data[data_cnt++] << 8;
 6109              		.loc 1 1960 0
 6110 0066 1078     		ldrb	r0, [r2]	@ zero_extendqisi2
 6111              	.LVL696:
 6112              		.loc 1 1962 0
 6113 0068 43EA0007 		orr	r7, r3, r0
 6114              	.LVL697:
1963:/home/tienluong/workspace/atlantis_fw/AsicFwS2/src/lcc_cmd_base_0000.c **** 		/* Check global in c_bitmask */
1964:/home/tienluong/workspace/atlantis_fw/AsicFwS2/src/lcc_cmd_base_0000.c **** 		global = c_bitmask & ((uint32_t)1<<I2C_CH_MAX_IDX);
1965:/home/tienluong/workspace/atlantis_fw/AsicFwS2/src/lcc_cmd_base_0000.c **** 		/*SLOGF(SLOG_DEBUG, "Global: %d %X %X", global, c_bitmask, ((uint32_t)1<<I2C_CH_MAX_IDX));*/
1966:/home/tienluong/workspace/atlantis_fw/AsicFwS2/src/lcc_cmd_base_0000.c **** 		/* Bitmask for all i2c channel manage */
1967:/home/tienluong/workspace/atlantis_fw/AsicFwS2/src/lcc_cmd_base_0000.c **** 		if(global)
1968:/home/tienluong/workspace/atlantis_fw/AsicFwS2/src/lcc_cmd_base_0000.c **** 		{
1969:/home/tienluong/workspace/atlantis_fw/AsicFwS2/src/lcc_cmd_base_0000.c **** 			c_bitmask = c_bitmask_all;
1970:/home/tienluong/workspace/atlantis_fw/AsicFwS2/src/lcc_cmd_base_0000.c **** 			SLOGF(SLOG_DEBUG, "Global is selected %X", c_bitmask);
1971:/home/tienluong/workspace/atlantis_fw/AsicFwS2/src/lcc_cmd_base_0000.c **** 		}
1972:/home/tienluong/workspace/atlantis_fw/AsicFwS2/src/lcc_cmd_base_0000.c **** 		/* Get Number of i2c channel selected in c_bitmask */
1973:/home/tienluong/workspace/atlantis_fw/AsicFwS2/src/lcc_cmd_base_0000.c **** 		c_number = __builtin_popcount(c_bitmask);
 6115              		.loc 1 1973 0
 6116 006c 3846     		mov	r0, r7
 6117 006e 8847     		blx	r1
 6118              	.LVL698:
1974:/home/tienluong/workspace/atlantis_fw/AsicFwS2/src/lcc_cmd_base_0000.c **** 		/* Check valid data length */
1975:/home/tienluong/workspace/atlantis_fw/AsicFwS2/src/lcc_cmd_base_0000.c **** 		if((global || in->len != (cmd.size * c_number + 3))
 6119              		.loc 1 1975 0
 6120 0070 2B89     		ldrh	r3, [r5, #8]
 6121 0072 C21C     		adds	r2, r0, #3
 6122 0074 9342     		cmp	r3, r2
 6123 0076 04D1     		bne	.L447
1973:/home/tienluong/workspace/atlantis_fw/AsicFwS2/src/lcc_cmd_base_0000.c **** 		/* Check valid data length */
 6124              		.loc 1 1973 0
 6125 0078 C3B2     		uxtb	r3, r0
1962:/home/tienluong/workspace/atlantis_fw/AsicFwS2/src/lcc_cmd_base_0000.c **** 		/* Check global in c_bitmask */
 6126              		.loc 1 1962 0
 6127 007a 4FF00308 		mov	r8, #3
1973:/home/tienluong/workspace/atlantis_fw/AsicFwS2/src/lcc_cmd_base_0000.c **** 		/* Check valid data length */
 6128              		.loc 1 1973 0
 6129 007e 0493     		str	r3, [sp, #16]
 6130 0080 09E0     		b	.L445
 6131              	.L447:
1976:/home/tienluong/workspace/atlantis_fw/AsicFwS2/src/lcc_cmd_base_0000.c **** 			&& (!global || in->len != cmd.size))
1977:/home/tienluong/workspace/atlantis_fw/AsicFwS2/src/lcc_cmd_base_0000.c **** 		{
1978:/home/tienluong/workspace/atlantis_fw/AsicFwS2/src/lcc_cmd_base_0000.c **** 			SLOGF(SLOG_ERROR, "%s:%d Data Length is invalid %d",
 6132              		.loc 1 1978 0
 6133 0082 40F2BB72 		movw	r2, #1979
 6134 0086 2120     		movs	r0, #33
 6135              	.LVL699:
 6136 0088 0221     		movs	r1, #2
 6137 008a 8DE80C00 		stmia	sp, {r2, r3}
 6138 008e 594A     		ldr	r2, .L472+24
 6139 0090 47E0     		b	.L470
 6140              	.LVL700:
 6141              	.L462:
1930:/home/tienluong/workspace/atlantis_fw/AsicFwS2/src/lcc_cmd_base_0000.c **** 	uint32_t c_bitmask = 0;
 6142              		.loc 1 1930 0
 6143 0092 4FF00008 		mov	r8, #0
 6144              	.LVL701:
 6145              	.L445:
1979:/home/tienluong/workspace/atlantis_fw/AsicFwS2/src/lcc_cmd_base_0000.c **** 					__FUNCTION__, __LINE__, in->len);
1980:/home/tienluong/workspace/atlantis_fw/AsicFwS2/src/lcc_cmd_base_0000.c **** 			in->status = LCC_CMD_INVALID_ARG;
1981:/home/tienluong/workspace/atlantis_fw/AsicFwS2/src/lcc_cmd_base_0000.c **** 			return;
1982:/home/tienluong/workspace/atlantis_fw/AsicFwS2/src/lcc_cmd_base_0000.c **** 		}
1983:/home/tienluong/workspace/atlantis_fw/AsicFwS2/src/lcc_cmd_base_0000.c **** 	}
1984:/home/tienluong/workspace/atlantis_fw/AsicFwS2/src/lcc_cmd_base_0000.c **** 
1985:/home/tienluong/workspace/atlantis_fw/AsicFwS2/src/lcc_cmd_base_0000.c **** 	/* Scan i2c channel bitmask */
1986:/home/tienluong/workspace/atlantis_fw/AsicFwS2/src/lcc_cmd_base_0000.c **** 	for (i = 0; i < c_number; i++)
 6146              		.loc 1 1986 0
 6147 0096 0023     		movs	r3, #0
 6148 0098 28E0     		b	.L468
 6149              	.LVL702:
 6150              	.L449:
1987:/home/tienluong/workspace/atlantis_fw/AsicFwS2/src/lcc_cmd_base_0000.c **** 	{
1988:/home/tienluong/workspace/atlantis_fw/AsicFwS2/src/lcc_cmd_base_0000.c **** 		chid = __builtin_ctz(c_bitmask);
1989:/home/tienluong/workspace/atlantis_fw/AsicFwS2/src/lcc_cmd_base_0000.c **** 		c_bitmask &= ~(1 << chid);
1990:/home/tienluong/workspace/atlantis_fw/AsicFwS2/src/lcc_cmd_base_0000.c **** 		if (!IS_I2C_CHANNEL(chid))	/*Verify i2c channel is valid */
1991:/home/tienluong/workspace/atlantis_fw/AsicFwS2/src/lcc_cmd_base_0000.c **** 		{
1992:/home/tienluong/workspace/atlantis_fw/AsicFwS2/src/lcc_cmd_base_0000.c **** 			SLOGF(SLOG_ERROR, "%s:%d I2C channel is invalid %d",
1993:/home/tienluong/workspace/atlantis_fw/AsicFwS2/src/lcc_cmd_base_0000.c **** 					__FUNCTION__, __LINE__, chid);
1994:/home/tienluong/workspace/atlantis_fw/AsicFwS2/src/lcc_cmd_base_0000.c **** 			in->status = LCC_CMD_INVALID_ARG;
1995:/home/tienluong/workspace/atlantis_fw/AsicFwS2/src/lcc_cmd_base_0000.c **** 			return;
1996:/home/tienluong/workspace/atlantis_fw/AsicFwS2/src/lcc_cmd_base_0000.c **** 		}
1997:/home/tienluong/workspace/atlantis_fw/AsicFwS2/src/lcc_cmd_base_0000.c **** 
1998:/home/tienluong/workspace/atlantis_fw/AsicFwS2/src/lcc_cmd_base_0000.c **** 		/* Read command processing */
1999:/home/tienluong/workspace/atlantis_fw/AsicFwS2/src/lcc_cmd_base_0000.c **** 		if (CMD_READ == in->action)
 6151              		.loc 1 1999 0
 6152 009a EB7C     		ldrb	r3, [r5, #19]	@ zero_extendqisi2
 6153 009c 13F0010F 		tst	r3, #1
 6154 00a0 DFF8A0B1 		ldr	fp, .L472+104
 6155 00a4 3FD0     		beq	.L450
 6156              	.LBB27:
2000:/home/tienluong/workspace/atlantis_fw/AsicFwS2/src/lcc_cmd_base_0000.c **** 		{
2001:/home/tienluong/workspace/atlantis_fw/AsicFwS2/src/lcc_cmd_base_0000.c **** 			SLOGF(SLOG_DEBUG, "Get speed of I2C channel-%d", chid);
 6157              		.loc 1 2001 0
 6158 00a6 3346     		mov	r3, r6
 6159 00a8 1021     		movs	r1, #16
 6160 00aa 534A     		ldr	r2, .L472+28
 6161 00ac 2120     		movs	r0, #33
 6162 00ae CDF814C0 		str	ip, [sp, #20]
 6163 00b2 A047     		blx	r4
 6164              	.LVL703:
2002:/home/tienluong/workspace/atlantis_fw/AsicFwS2/src/lcc_cmd_base_0000.c **** 			/* Take semaphore to access settings memory */
2003:/home/tienluong/workspace/atlantis_fw/AsicFwS2/src/lcc_cmd_base_0000.c **** 			hal_i2c_clockspeed_t speed = hal_i2c_get_speed(chid);
 6165              		.loc 1 2003 0
 6166 00b4 5046     		mov	r0, r10
 6167 00b6 D847     		blx	fp
 6168              	.LVL704:
 6169 00b8 08A9     		add	r1, sp, #32
2004:/home/tienluong/workspace/atlantis_fw/AsicFwS2/src/lcc_cmd_base_0000.c **** 			memcpy(&out->data[out->len], &speed, cmd.size);
 6170              		.loc 1 2004 0
 6171 00ba DDF814C0 		ldr	ip, [sp, #20]
 6172 00be B9F80830 		ldrh	r3, [r9, #8]
 6173 00c2 6246     		mov	r2, ip
2003:/home/tienluong/workspace/atlantis_fw/AsicFwS2/src/lcc_cmd_base_0000.c **** 			memcpy(&out->data[out->len], &speed, cmd.size);
 6174              		.loc 1 2003 0
 6175 00c4 01F8010D 		strb	r0, [r1, #-1]!
 6176 00c8 0646     		mov	r6, r0
 6177              		.loc 1 2004 0
 6178 00ca D9F80400 		ldr	r0, [r9, #4]
 6179 00ce 1844     		add	r0, r0, r3
 6180 00d0 4A4B     		ldr	r3, .L472+32
 6181 00d2 9847     		blx	r3
 6182              	.LVL705:
2005:/home/tienluong/workspace/atlantis_fw/AsicFwS2/src/lcc_cmd_base_0000.c **** 			/* Release semaphore after read data */
2006:/home/tienluong/workspace/atlantis_fw/AsicFwS2/src/lcc_cmd_base_0000.c **** 			out->len += cmd.size;
 6183              		.loc 1 2006 0
 6184 00d4 B9F80820 		ldrh	r2, [r9, #8]
 6185 00d8 0132     		adds	r2, r2, #1
2007:/home/tienluong/workspace/atlantis_fw/AsicFwS2/src/lcc_cmd_base_0000.c **** #if(LOG_VERBOSE == STD_ON)
2008:/home/tienluong/workspace/atlantis_fw/AsicFwS2/src/lcc_cmd_base_0000.c **** 			SLOGF(SLOG_DEBUG, "I2C speed: %d", speed);
 6186              		.loc 1 2008 0
 6187 00da 2120     		movs	r0, #33
2006:/home/tienluong/workspace/atlantis_fw/AsicFwS2/src/lcc_cmd_base_0000.c **** #if(LOG_VERBOSE == STD_ON)
 6188              		.loc 1 2006 0
 6189 00dc A9F80820 		strh	r2, [r9, #8]	@ movhi
 6190              		.loc 1 2008 0
 6191 00e0 1021     		movs	r1, #16
 6192 00e2 474A     		ldr	r2, .L472+36
 6193 00e4 3346     		mov	r3, r6
 6194 00e6 A047     		blx	r4
 6195              	.LVL706:
 6196              	.L451:
 6197 00e8 039B     		ldr	r3, [sp, #12]
 6198 00ea 0133     		adds	r3, r3, #1
 6199              	.LVL707:
 6200              	.L468:
 6201              	.LBE27:
1986:/home/tienluong/workspace/atlantis_fw/AsicFwS2/src/lcc_cmd_base_0000.c **** 	{
 6202              		.loc 1 1986 0 discriminator 2
 6203 00ec 049A     		ldr	r2, [sp, #16]
 6204 00ee 4FF0010C 		mov	ip, #1
 6205 00f2 0393     		str	r3, [sp, #12]
 6206              	.LVL708:
 6207 00f4 9DF80C30 		ldrb	r3, [sp, #12]	@ zero_extendqisi2
 6208 00f8 9342     		cmp	r3, r2
 6209 00fa 65D2     		bcs	.L471
1988:/home/tienluong/workspace/atlantis_fw/AsicFwS2/src/lcc_cmd_base_0000.c **** 		c_bitmask &= ~(1 << chid);
 6210              		.loc 1 1988 0
 6211 00fc 97FAA7F6 		rbit	r6, r7
 6212 0100 B6FA86F6 		clz	r6, r6
1990:/home/tienluong/workspace/atlantis_fw/AsicFwS2/src/lcc_cmd_base_0000.c **** 		{
 6213              		.loc 1 1990 0
 6214 0104 142E     		cmp	r6, #20
1989:/home/tienluong/workspace/atlantis_fw/AsicFwS2/src/lcc_cmd_base_0000.c **** 		if (!IS_I2C_CHANNEL(chid))	/*Verify i2c channel is valid */
 6215              		.loc 1 1989 0
 6216 0106 0CFA06F3 		lsl	r3, ip, r6
1988:/home/tienluong/workspace/atlantis_fw/AsicFwS2/src/lcc_cmd_base_0000.c **** 		c_bitmask &= ~(1 << chid);
 6217              		.loc 1 1988 0
 6218 010a 5FFA86FA 		uxtb	r10, r6
 6219              	.LVL709:
1989:/home/tienluong/workspace/atlantis_fw/AsicFwS2/src/lcc_cmd_base_0000.c **** 		if (!IS_I2C_CHANNEL(chid))	/*Verify i2c channel is valid */
 6220              		.loc 1 1989 0
 6221 010e 27EA0307 		bic	r7, r7, r3
 6222              	.LVL710:
1990:/home/tienluong/workspace/atlantis_fw/AsicFwS2/src/lcc_cmd_base_0000.c **** 		{
 6223              		.loc 1 1990 0
 6224 0112 C2DD     		ble	.L449
1992:/home/tienluong/workspace/atlantis_fw/AsicFwS2/src/lcc_cmd_base_0000.c **** 					__FUNCTION__, __LINE__, chid);
 6225              		.loc 1 1992 0
 6226 0114 3B4A     		ldr	r2, .L472+40
 6227 0116 40F2C973 		movw	r3, #1993
 6228 011a 2120     		movs	r0, #33
 6229 011c 0221     		movs	r1, #2
 6230 011e 8DE84800 		stmia	sp, {r3, r6}
 6231              	.LVL711:
 6232              	.L470:
 6233 0122 2E4B     		ldr	r3, .L472
 6234 0124 16E0     		b	.L469
 6235              	.LVL712:
 6236              	.L450:
 6237              	.LBB28:
2009:/home/tienluong/workspace/atlantis_fw/AsicFwS2/src/lcc_cmd_base_0000.c **** #endif
2010:/home/tienluong/workspace/atlantis_fw/AsicFwS2/src/lcc_cmd_base_0000.c **** 		}
2011:/home/tienluong/workspace/atlantis_fw/AsicFwS2/src/lcc_cmd_base_0000.c **** 		/* Write command processing */
2012:/home/tienluong/workspace/atlantis_fw/AsicFwS2/src/lcc_cmd_base_0000.c **** 		else
2013:/home/tienluong/workspace/atlantis_fw/AsicFwS2/src/lcc_cmd_base_0000.c **** 		{
2014:/home/tienluong/workspace/atlantis_fw/AsicFwS2/src/lcc_cmd_base_0000.c **** 			SLOGF(SLOG_DEBUG, "Set speed for I2C channel-%d", chid);
 6238              		.loc 1 2014 0
 6239 0126 384A     		ldr	r2, .L472+44
 6240 0128 3346     		mov	r3, r6
 6241 012a 2120     		movs	r0, #33
 6242 012c 1021     		movs	r1, #16
 6243 012e A047     		blx	r4
 6244              	.LVL713:
2015:/home/tienluong/workspace/atlantis_fw/AsicFwS2/src/lcc_cmd_base_0000.c **** 			hal_i2c_clockspeed_t speed = hal_i2c_get_speed(chid);
 6245              		.loc 1 2015 0
 6246 0130 5046     		mov	r0, r10
 6247 0132 D847     		blx	fp
 6248              	.LVL714:
2016:/home/tienluong/workspace/atlantis_fw/AsicFwS2/src/lcc_cmd_base_0000.c **** 			i2c_speed = (uint32_t)in->data[data_cnt];
 6249              		.loc 1 2016 0
 6250 0134 6A68     		ldr	r2, [r5, #4]
 6251 0136 12F808B0 		ldrb	fp, [r2, r8]	@ zero_extendqisi2
2017:/home/tienluong/workspace/atlantis_fw/AsicFwS2/src/lcc_cmd_base_0000.c **** 			if(!IS_I2C_SPEEDMODE(i2c_speed))
 6252              		.loc 1 2017 0
 6253 013a BBF1020F 		cmp	fp, #2
2015:/home/tienluong/workspace/atlantis_fw/AsicFwS2/src/lcc_cmd_base_0000.c **** 			hal_i2c_clockspeed_t speed = hal_i2c_get_speed(chid);
 6254              		.loc 1 2015 0
 6255 013e 0346     		mov	r3, r0
 6256              	.LVL715:
 6257              		.loc 1 2017 0
 6258 0140 0CD9     		bls	.L452
2018:/home/tienluong/workspace/atlantis_fw/AsicFwS2/src/lcc_cmd_base_0000.c **** 			{
2019:/home/tienluong/workspace/atlantis_fw/AsicFwS2/src/lcc_cmd_base_0000.c **** 				SLOGF(SLOG_ERROR, "%s:%d I2C speed is invalid %d",
 6259              		.loc 1 2019 0
 6260 0142 40F2E473 		movw	r3, #2020
 6261 0146 2120     		movs	r0, #33
 6262              	.LVL716:
 6263 0148 304A     		ldr	r2, .L472+48
 6264 014a 0221     		movs	r1, #2
 6265 014c 8DE80808 		stmia	sp, {r3, fp}
 6266 0150 244C     		ldr	r4, .L472+8
 6267 0152 224B     		ldr	r3, .L472
 6268              	.LVL717:
 6269              	.L469:
 6270 0154 A047     		blx	r4
 6271              	.LVL718:
2020:/home/tienluong/workspace/atlantis_fw/AsicFwS2/src/lcc_cmd_base_0000.c **** 						__FUNCTION__, __LINE__, i2c_speed);
2021:/home/tienluong/workspace/atlantis_fw/AsicFwS2/src/lcc_cmd_base_0000.c **** 				in->status = LCC_CMD_INVALID_ARG;
 6272              		.loc 1 2021 0
 6273 0156 0423     		movs	r3, #4
 6274 0158 2B82     		strh	r3, [r5, #16]	@ movhi
2022:/home/tienluong/workspace/atlantis_fw/AsicFwS2/src/lcc_cmd_base_0000.c **** 				return;
 6275              		.loc 1 2022 0
 6276 015a 3CE0     		b	.L442
 6277              	.LVL719:
 6278              	.L452:
2023:/home/tienluong/workspace/atlantis_fw/AsicFwS2/src/lcc_cmd_base_0000.c **** 			}
2024:/home/tienluong/workspace/atlantis_fw/AsicFwS2/src/lcc_cmd_base_0000.c **** 			if (i2c_speed != speed)
 6279              		.loc 1 2024 0
 6280 015c 8345     		cmp	fp, r0
 6281 015e 28D0     		beq	.L454
2025:/home/tienluong/workspace/atlantis_fw/AsicFwS2/src/lcc_cmd_base_0000.c **** 			{
2026:/home/tienluong/workspace/atlantis_fw/AsicFwS2/src/lcc_cmd_base_0000.c **** 				vTaskSuspendAll();
 6282              		.loc 1 2026 0
 6283 0160 2B4A     		ldr	r2, .L472+52
 6284 0162 0590     		str	r0, [sp, #20]
 6285 0164 9047     		blx	r2
 6286              	.LVL720:
2027:/home/tienluong/workspace/atlantis_fw/AsicFwS2/src/lcc_cmd_base_0000.c **** 				hal_i2c_set_speed(chid, i2c_speed);
 6287              		.loc 1 2027 0
 6288 0166 5046     		mov	r0, r10
 6289 0168 5946     		mov	r1, fp
 6290 016a 2A4A     		ldr	r2, .L472+56
 6291 016c 9047     		blx	r2
 6292              	.LVL721:
2028:/home/tienluong/workspace/atlantis_fw/AsicFwS2/src/lcc_cmd_base_0000.c **** 				xTaskResumeAll();
 6293              		.loc 1 2028 0
 6294 016e 2A4A     		ldr	r2, .L472+60
 6295 0170 9047     		blx	r2
 6296              	.LVL722:
2029:/home/tienluong/workspace/atlantis_fw/AsicFwS2/src/lcc_cmd_base_0000.c **** 				/* Adjust I2C_WRITE_DELAY_SEC to capture */
2030:/home/tienluong/workspace/atlantis_fw/AsicFwS2/src/lcc_cmd_base_0000.c **** 				if ((I2C_CH0 <= chid && chid <= I2C_CH5) ||
 6297              		.loc 1 2030 0
 6298 0172 052E     		cmp	r6, #5
 6299 0174 059B     		ldr	r3, [sp, #20]
 6300 0176 05DD     		ble	.L455
 6301              		.loc 1 2030 0 is_stmt 0 discriminator 1
 6302 0178 BAF1090F 		cmp	r10, #9
 6303 017c 02D0     		beq	.L455
2031:/home/tienluong/workspace/atlantis_fw/AsicFwS2/src/lcc_cmd_base_0000.c **** 						(I2C_CH9 == chid) ||
 6304              		.loc 1 2031 0 is_stmt 1
 6305 017e BAF10F0F 		cmp	r10, #15
 6306 0182 16D1     		bne	.L454
 6307              	.L455:
2032:/home/tienluong/workspace/atlantis_fw/AsicFwS2/src/lcc_cmd_base_0000.c **** 						(I2C_CH15 == chid))
2033:/home/tienluong/workspace/atlantis_fw/AsicFwS2/src/lcc_cmd_base_0000.c **** 				{
2034:/home/tienluong/workspace/atlantis_fw/AsicFwS2/src/lcc_cmd_base_0000.c **** 					switch(i2c_speed)
 6308              		.loc 1 2034 0
 6309 0184 BBF1010F 		cmp	fp, #1
 6310 0188 08D0     		beq	.L457
 6311 018a 0CD3     		bcc	.L458
 6312 018c BBF1020F 		cmp	fp, #2
 6313 0190 0FD1     		bne	.L454
2035:/home/tienluong/workspace/atlantis_fw/AsicFwS2/src/lcc_cmd_base_0000.c **** 					{
2036:/home/tienluong/workspace/atlantis_fw/AsicFwS2/src/lcc_cmd_base_0000.c **** 						case I2C_SPEED_1MHz:
2037:/home/tienluong/workspace/atlantis_fw/AsicFwS2/src/lcc_cmd_base_0000.c **** 							i2c_write_delay_sec_asic1 =
 6314              		.loc 1 2037 0
 6315 0192 2249     		ldr	r1, .L472+64
 6316 0194 224A     		ldr	r2, .L472+68
 6317 0196 1160     		str	r1, [r2]	@ float
2038:/home/tienluong/workspace/atlantis_fw/AsicFwS2/src/lcc_cmd_base_0000.c **** 									I2C_WRITE_DELAY_SEC_ASIC1_1MHZ;
2039:/home/tienluong/workspace/atlantis_fw/AsicFwS2/src/lcc_cmd_base_0000.c **** 							i2c_write_delay_sec_asic23 =
 6318              		.loc 1 2039 0
 6319 0198 2249     		ldr	r1, .L472+72
 6320 019a 08E0     		b	.L467
 6321              	.L457:
2040:/home/tienluong/workspace/atlantis_fw/AsicFwS2/src/lcc_cmd_base_0000.c **** 									I2C_WRITE_DELAY_SEC_ASIC23_1MHZ;
2041:/home/tienluong/workspace/atlantis_fw/AsicFwS2/src/lcc_cmd_base_0000.c **** 							break;
2042:/home/tienluong/workspace/atlantis_fw/AsicFwS2/src/lcc_cmd_base_0000.c **** 						case I2C_SPEED_400KHz:
2043:/home/tienluong/workspace/atlantis_fw/AsicFwS2/src/lcc_cmd_base_0000.c **** 							i2c_write_delay_sec_asic1 =
 6322              		.loc 1 2043 0
 6323 019c 2249     		ldr	r1, .L472+76
 6324 019e 204A     		ldr	r2, .L472+68
 6325 01a0 1160     		str	r1, [r2]	@ float
2044:/home/tienluong/workspace/atlantis_fw/AsicFwS2/src/lcc_cmd_base_0000.c **** 									I2C_WRITE_DELAY_SEC_ASIC1_400KHZ;
2045:/home/tienluong/workspace/atlantis_fw/AsicFwS2/src/lcc_cmd_base_0000.c **** 							i2c_write_delay_sec_asic23 =
 6326              		.loc 1 2045 0
 6327 01a2 2249     		ldr	r1, .L472+80
 6328 01a4 03E0     		b	.L467
 6329              	.L458:
2046:/home/tienluong/workspace/atlantis_fw/AsicFwS2/src/lcc_cmd_base_0000.c **** 									I2C_WRITE_DELAY_SEC_ASIC23_400KHZ;
2047:/home/tienluong/workspace/atlantis_fw/AsicFwS2/src/lcc_cmd_base_0000.c **** 							break;
2048:/home/tienluong/workspace/atlantis_fw/AsicFwS2/src/lcc_cmd_base_0000.c **** 						case I2C_SPEED_100KHz:
2049:/home/tienluong/workspace/atlantis_fw/AsicFwS2/src/lcc_cmd_base_0000.c **** 							i2c_write_delay_sec_asic1 =
 6330              		.loc 1 2049 0
 6331 01a6 2249     		ldr	r1, .L472+84
 6332 01a8 1D4A     		ldr	r2, .L472+68
 6333 01aa 1160     		str	r1, [r2]	@ float
2050:/home/tienluong/workspace/atlantis_fw/AsicFwS2/src/lcc_cmd_base_0000.c **** 									I2C_WRITE_DELAY_SEC_ASIC1_100KHZ;
2051:/home/tienluong/workspace/atlantis_fw/AsicFwS2/src/lcc_cmd_base_0000.c **** 							i2c_write_delay_sec_asic23 =
 6334              		.loc 1 2051 0
 6335 01ac 2149     		ldr	r1, .L472+88
 6336              	.L467:
 6337 01ae 224A     		ldr	r2, .L472+92
 6338 01b0 1160     		str	r1, [r2]	@ float
 6339              	.L454:
2052:/home/tienluong/workspace/atlantis_fw/AsicFwS2/src/lcc_cmd_base_0000.c **** 									I2C_WRITE_DELAY_SEC_ASIC23_100KHZ;
2053:/home/tienluong/workspace/atlantis_fw/AsicFwS2/src/lcc_cmd_base_0000.c **** 							break;
2054:/home/tienluong/workspace/atlantis_fw/AsicFwS2/src/lcc_cmd_base_0000.c **** 					}
2055:/home/tienluong/workspace/atlantis_fw/AsicFwS2/src/lcc_cmd_base_0000.c **** 				}
2056:/home/tienluong/workspace/atlantis_fw/AsicFwS2/src/lcc_cmd_base_0000.c **** 			}
2057:/home/tienluong/workspace/atlantis_fw/AsicFwS2/src/lcc_cmd_base_0000.c **** 
2058:/home/tienluong/workspace/atlantis_fw/AsicFwS2/src/lcc_cmd_base_0000.c **** 			/* Set data pointer when command was set for global */
2059:/home/tienluong/workspace/atlantis_fw/AsicFwS2/src/lcc_cmd_base_0000.c **** 			data_cnt += global ? 0 : cmd.size;
 6340              		.loc 1 2059 0
 6341 01b2 08F10108 		add	r8, r8, #1
 6342              	.LVL723:
2060:/home/tienluong/workspace/atlantis_fw/AsicFwS2/src/lcc_cmd_base_0000.c **** #if(LOG_VERBOSE == STD_ON)
2061:/home/tienluong/workspace/atlantis_fw/AsicFwS2/src/lcc_cmd_base_0000.c **** 			SLOGF(SLOG_DEBUG, "I2C speed: cur: %d set: %d", speed, i2c_speed);
 6343              		.loc 1 2061 0
 6344 01b6 CDF800B0 		str	fp, [sp]
 6345 01ba 2120     		movs	r0, #33
 6346 01bc 1021     		movs	r1, #16
 6347 01be 1F4A     		ldr	r2, .L472+96
2059:/home/tienluong/workspace/atlantis_fw/AsicFwS2/src/lcc_cmd_base_0000.c **** #if(LOG_VERBOSE == STD_ON)
 6348              		.loc 1 2059 0
 6349 01c0 5FFA88F8 		uxtb	r8, r8
 6350              	.LVL724:
 6351              		.loc 1 2061 0
 6352 01c4 A047     		blx	r4
 6353              	.LVL725:
 6354 01c6 8FE7     		b	.L451
 6355              	.LVL726:
 6356              	.L471:
 6357              	.LBE28:
2062:/home/tienluong/workspace/atlantis_fw/AsicFwS2/src/lcc_cmd_base_0000.c **** #endif
2063:/home/tienluong/workspace/atlantis_fw/AsicFwS2/src/lcc_cmd_base_0000.c **** 		}
2064:/home/tienluong/workspace/atlantis_fw/AsicFwS2/src/lcc_cmd_base_0000.c **** 	}
2065:/home/tienluong/workspace/atlantis_fw/AsicFwS2/src/lcc_cmd_base_0000.c **** 	/* Update command status */
2066:/home/tienluong/workspace/atlantis_fw/AsicFwS2/src/lcc_cmd_base_0000.c **** 	in->status = LCC_CMD_SUCCESS;
 6358              		.loc 1 2066 0
 6359 01c8 A5F810C0 		strh	ip, [r5, #16]	@ movhi
2067:/home/tienluong/workspace/atlantis_fw/AsicFwS2/src/lcc_cmd_base_0000.c **** 
2068:/home/tienluong/workspace/atlantis_fw/AsicFwS2/src/lcc_cmd_base_0000.c **** 	SLOGF(SLOG_DEBUG, "Exiting %s", __FUNCTION__);
 6360              		.loc 1 2068 0
 6361 01cc 2120     		movs	r0, #33
 6362 01ce 1021     		movs	r1, #16
 6363 01d0 1B4A     		ldr	r2, .L472+100
 6364 01d2 024B     		ldr	r3, .L472
 6365 01d4 A047     		blx	r4
 6366              	.LVL727:
 6367              	.L442:
2069:/home/tienluong/workspace/atlantis_fw/AsicFwS2/src/lcc_cmd_base_0000.c **** }
 6368              		.loc 1 2069 0
 6369 01d6 09B0     		add	sp, sp, #36
 6370              	.LCFI56:
 6371              		.cfi_def_cfa_offset 36
 6372              		@ sp needed
 6373 01d8 BDE8F08F 		pop	{r4, r5, r6, r7, r8, r9, r10, fp, pc}
 6374              	.LVL728:
 6375              	.L473:
 6376              		.align	2
 6377              	.L472:
 6378 01dc 00000000 		.word	.LANCHOR26
 6379 01e0 99010000 		.word	.LC18
 6380 01e4 00000000 		.word	slogf
 6381 01e8 00000000 		.word	__popcountsi2
 6382 01ec 00000000 		.word	pvPortMalloc1
 6383 01f0 00000000 		.word	.LC0
 6384 01f4 40020000 		.word	.LC25
 6385 01f8 44050000 		.word	.LC46
 6386 01fc 00000000 		.word	memcpy
 6387 0200 60050000 		.word	.LC47
 6388 0204 24050000 		.word	.LC45
 6389 0208 6E050000 		.word	.LC48
 6390 020c 8B050000 		.word	.LC49
 6391 0210 00000000 		.word	vTaskSuspendAll
 6392 0214 00000000 		.word	hal_i2c_set_speed
 6393 0218 00000000 		.word	xTaskResumeAll
 6394 021c 17B7D1B7 		.word	-1210992873
 6395 0220 00000000 		.word	i2c_write_delay_sec_asic1
 6396 0224 17B7D138 		.word	953267991
 6397 0228 17B7D137 		.word	936490775
 6398 022c 6F128339 		.word	964891247
 6399 0230 FAEDEB39 		.word	971763194
 6400 0234 52491D3A 		.word	974997842
 6401 0238 00000000 		.word	i2c_write_delay_sec_asic23
 6402 023c A9050000 		.word	.LC50
 6403 0240 DA020000 		.word	.LC30
 6404 0244 00000000 		.word	hal_i2c_get_speed
 6405              		.cfi_endproc
 6406              	.LFE26:
 6408              		.section	.text.cmd_spi_speed,"ax",%progbits
 6409              		.align	1
 6410              		.global	cmd_spi_speed
 6411              		.thumb
 6412              		.thumb_func
 6414              	cmd_spi_speed:
 6415              	.LFB27:
2070:/home/tienluong/workspace/atlantis_fw/AsicFwS2/src/lcc_cmd_base_0000.c **** 
2071:/home/tienluong/workspace/atlantis_fw/AsicFwS2/src/lcc_cmd_base_0000.c **** /**
2072:/home/tienluong/workspace/atlantis_fw/AsicFwS2/src/lcc_cmd_base_0000.c ****  * cmd_cam_module_mirror_calib
2073:/home/tienluong/workspace/atlantis_fw/AsicFwS2/src/lcc_cmd_base_0000.c ****  * [TID][CMD_ID][SPI_SPEED]
2074:/home/tienluong/workspace/atlantis_fw/AsicFwS2/src/lcc_cmd_base_0000.c ****  */
2075:/home/tienluong/workspace/atlantis_fw/AsicFwS2/src/lcc_cmd_base_0000.c **** void cmd_spi_speed(lcc_cmd_t *in, lcc_cmd_t *out)
2076:/home/tienluong/workspace/atlantis_fw/AsicFwS2/src/lcc_cmd_base_0000.c **** {
 6416              		.loc 1 2076 0
 6417              		.cfi_startproc
 6418              		@ args = 0, pretend = 0, frame = 8
 6419              		@ frame_needed = 0, uses_anonymous_args = 0
 6420              	.LVL729:
 6421 0000 2DE9FF41 		push	{r0, r1, r2, r3, r4, r5, r6, r7, r8, lr}
 6422              	.LCFI57:
 6423              		.cfi_def_cfa_offset 40
 6424              		.cfi_offset 4, -24
 6425              		.cfi_offset 5, -20
 6426              		.cfi_offset 6, -16
 6427              		.cfi_offset 7, -12
 6428              		.cfi_offset 8, -8
 6429              		.cfi_offset 14, -4
 6430              		.loc 1 2076 0
 6431 0004 0546     		mov	r5, r0
 6432 0006 0E46     		mov	r6, r1
2077:/home/tienluong/workspace/atlantis_fw/AsicFwS2/src/lcc_cmd_base_0000.c **** 	lcc_cmd_info_t cmd = (lcc_cmd_info_t)(LCC_CMD_SPI_SPEED);
2078:/home/tienluong/workspace/atlantis_fw/AsicFwS2/src/lcc_cmd_base_0000.c **** 
2079:/home/tienluong/workspace/atlantis_fw/AsicFwS2/src/lcc_cmd_base_0000.c **** 	SLOGF(SLOG_DEBUG, "Entering %s", __FUNCTION__);
 6433              		.loc 1 2079 0
 6434 0008 274B     		ldr	r3, .L480
 6435 000a 2120     		movs	r0, #33
 6436              	.LVL730:
 6437 000c DFF8BC80 		ldr	r8, .L480+36
 6438 0010 1021     		movs	r1, #16
 6439              	.LVL731:
 6440 0012 264A     		ldr	r2, .L480+4
 6441 0014 4446     		mov	r4, r8
 6442 0016 C047     		blx	r8
 6443              	.LVL732:
2080:/home/tienluong/workspace/atlantis_fw/AsicFwS2/src/lcc_cmd_base_0000.c **** 
2081:/home/tienluong/workspace/atlantis_fw/AsicFwS2/src/lcc_cmd_base_0000.c **** 	/* Read command processing */
2082:/home/tienluong/workspace/atlantis_fw/AsicFwS2/src/lcc_cmd_base_0000.c **** 	if (CMD_READ == in->action)
 6444              		.loc 1 2082 0
 6445 0018 EB7C     		ldrb	r3, [r5, #19]	@ zero_extendqisi2
 6446 001a 13F0010F 		tst	r3, #1
 6447 001e 21D0     		beq	.L475
 6448              	.LBB29:
2083:/home/tienluong/workspace/atlantis_fw/AsicFwS2/src/lcc_cmd_base_0000.c **** 	{
2084:/home/tienluong/workspace/atlantis_fw/AsicFwS2/src/lcc_cmd_base_0000.c **** 		out->data = pvPortMalloc(cmd.size);
 6449              		.loc 1 2084 0
 6450 0020 0420     		movs	r0, #4
 6451 0022 2149     		ldr	r1, .L480
 6452 0024 40F62402 		movw	r2, #2084
 6453 0028 214B     		ldr	r3, .L480+8
 6454 002a 9847     		blx	r3
 6455              	.LVL733:
 6456 002c 0746     		mov	r7, r0
 6457 002e 7060     		str	r0, [r6, #4]
2085:/home/tienluong/workspace/atlantis_fw/AsicFwS2/src/lcc_cmd_base_0000.c **** 		if (NULL == out->data)
 6458              		.loc 1 2085 0
 6459 0030 30B9     		cbnz	r0, .L476
2086:/home/tienluong/workspace/atlantis_fw/AsicFwS2/src/lcc_cmd_base_0000.c **** 		{
2087:/home/tienluong/workspace/atlantis_fw/AsicFwS2/src/lcc_cmd_base_0000.c **** 			SLOGF(SLOG_ERROR, "%s: Lack of memory", __FUNCTION__);
 6460              		.loc 1 2087 0
 6461 0032 2120     		movs	r0, #33
 6462 0034 0221     		movs	r1, #2
 6463 0036 1F4A     		ldr	r2, .L480+12
 6464 0038 1B4B     		ldr	r3, .L480
 6465 003a C047     		blx	r8
 6466              	.LVL734:
2088:/home/tienluong/workspace/atlantis_fw/AsicFwS2/src/lcc_cmd_base_0000.c **** 			in->status = LCC_CMD_UNSUCCESS;
 6467              		.loc 1 2088 0
 6468 003c 2F82     		strh	r7, [r5, #16]	@ movhi
 6469 003e 2FE0     		b	.L474
 6470              	.L476:
2089:/home/tienluong/workspace/atlantis_fw/AsicFwS2/src/lcc_cmd_base_0000.c **** 			return;
2090:/home/tienluong/workspace/atlantis_fw/AsicFwS2/src/lcc_cmd_base_0000.c **** 		}
2091:/home/tienluong/workspace/atlantis_fw/AsicFwS2/src/lcc_cmd_base_0000.c **** 		uint32_t spim_speed = light_system->settings->spim_speed;
 6471              		.loc 1 2091 0
 6472 0040 1D4B     		ldr	r3, .L480+16
 6473 0042 04AF     		add	r7, sp, #16
2092:/home/tienluong/workspace/atlantis_fw/AsicFwS2/src/lcc_cmd_base_0000.c **** 		SLOGF(SLOG_DEBUG, "Read spim speed: %d", spim_speed);
 6474              		.loc 1 2092 0
 6475 0044 2120     		movs	r0, #33
 6476 0046 1021     		movs	r1, #16
2091:/home/tienluong/workspace/atlantis_fw/AsicFwS2/src/lcc_cmd_base_0000.c **** 		SLOGF(SLOG_DEBUG, "Read spim speed: %d", spim_speed);
 6477              		.loc 1 2091 0
 6478 0048 1B68     		ldr	r3, [r3]
 6479              		.loc 1 2092 0
 6480 004a 1C4A     		ldr	r2, .L480+20
2091:/home/tienluong/workspace/atlantis_fw/AsicFwS2/src/lcc_cmd_base_0000.c **** 		SLOGF(SLOG_DEBUG, "Read spim speed: %d", spim_speed);
 6481              		.loc 1 2091 0
 6482 004c 9B68     		ldr	r3, [r3, #8]
 6483 004e D3F8A430 		ldr	r3, [r3, #164]
 6484 0052 47F8043D 		str	r3, [r7, #-4]!
 6485              		.loc 1 2092 0
 6486 0056 C047     		blx	r8
 6487              	.LVL735:
2093:/home/tienluong/workspace/atlantis_fw/AsicFwS2/src/lcc_cmd_base_0000.c **** 		/* TODO: Take semaphore to access settings memory */
2094:/home/tienluong/workspace/atlantis_fw/AsicFwS2/src/lcc_cmd_base_0000.c **** 		memcpy(out->data, &spim_speed, cmd.size);
 6488              		.loc 1 2094 0
 6489 0058 7368     		ldr	r3, [r6, #4]
 6490 005a 3868     		ldr	r0, [r7]	@ unaligned
 6491 005c 1860     		str	r0, [r3]	@ unaligned
2095:/home/tienluong/workspace/atlantis_fw/AsicFwS2/src/lcc_cmd_base_0000.c **** 		/* TODO: Release semaphore after read data */
2096:/home/tienluong/workspace/atlantis_fw/AsicFwS2/src/lcc_cmd_base_0000.c **** 		out->len = cmd.size;
 6492              		.loc 1 2096 0
 6493 005e 0423     		movs	r3, #4
 6494 0060 3381     		strh	r3, [r6, #8]	@ movhi
 6495              	.LBE29:
 6496 0062 16E0     		b	.L478
 6497              	.L475:
 6498              	.LBB30:
2097:/home/tienluong/workspace/atlantis_fw/AsicFwS2/src/lcc_cmd_base_0000.c **** 	}
2098:/home/tienluong/workspace/atlantis_fw/AsicFwS2/src/lcc_cmd_base_0000.c **** 	/* Write command processing */
2099:/home/tienluong/workspace/atlantis_fw/AsicFwS2/src/lcc_cmd_base_0000.c **** 	else
2100:/home/tienluong/workspace/atlantis_fw/AsicFwS2/src/lcc_cmd_base_0000.c **** 	{
2101:/home/tienluong/workspace/atlantis_fw/AsicFwS2/src/lcc_cmd_base_0000.c **** 		/* Get selected spi speed */
2102:/home/tienluong/workspace/atlantis_fw/AsicFwS2/src/lcc_cmd_base_0000.c **** 		uint32_t spim_speed = 0;
2103:/home/tienluong/workspace/atlantis_fw/AsicFwS2/src/lcc_cmd_base_0000.c **** 		memcpy(&spim_speed, &in->data[0], cmd.size);
 6499              		.loc 1 2103 0
 6500 0064 6B68     		ldr	r3, [r5, #4]
2104:/home/tienluong/workspace/atlantis_fw/AsicFwS2/src/lcc_cmd_base_0000.c **** 		SLOGF(SLOG_DEBUG, "Set SPI speed: %d", spim_speed);
 6501              		.loc 1 2104 0
 6502 0066 1021     		movs	r1, #16
 6503 0068 154A     		ldr	r2, .L480+24
2103:/home/tienluong/workspace/atlantis_fw/AsicFwS2/src/lcc_cmd_base_0000.c **** 		SLOGF(SLOG_DEBUG, "Set SPI speed: %d", spim_speed);
 6504              		.loc 1 2103 0
 6505 006a 1868     		ldr	r0, [r3]	@ unaligned
 6506 006c 0390     		str	r0, [sp, #12]	@ unaligned
 6507              		.loc 1 2104 0
 6508 006e 2120     		movs	r0, #33
 6509 0070 039E     		ldr	r6, [sp, #12]
 6510              	.LVL736:
 6511 0072 3346     		mov	r3, r6
 6512 0074 C047     		blx	r8
 6513              	.LVL737:
2105:/home/tienluong/workspace/atlantis_fw/AsicFwS2/src/lcc_cmd_base_0000.c **** 		/* TODO: Check valib spi speed */
2106:/home/tienluong/workspace/atlantis_fw/AsicFwS2/src/lcc_cmd_base_0000.c **** 		if(false)
2107:/home/tienluong/workspace/atlantis_fw/AsicFwS2/src/lcc_cmd_base_0000.c **** 		{
2108:/home/tienluong/workspace/atlantis_fw/AsicFwS2/src/lcc_cmd_base_0000.c **** 			SLOGF(SLOG_ERROR, "%s:%d SPI speed is invalid %d",
2109:/home/tienluong/workspace/atlantis_fw/AsicFwS2/src/lcc_cmd_base_0000.c **** 					__FUNCTION__, __LINE__, spim_speed);
2110:/home/tienluong/workspace/atlantis_fw/AsicFwS2/src/lcc_cmd_base_0000.c **** 			in->status = LCC_CMD_INVALID_ARG;
2111:/home/tienluong/workspace/atlantis_fw/AsicFwS2/src/lcc_cmd_base_0000.c **** 			return;
2112:/home/tienluong/workspace/atlantis_fw/AsicFwS2/src/lcc_cmd_base_0000.c **** 		}
2113:/home/tienluong/workspace/atlantis_fw/AsicFwS2/src/lcc_cmd_base_0000.c **** 		/* Get current spi speed */
2114:/home/tienluong/workspace/atlantis_fw/AsicFwS2/src/lcc_cmd_base_0000.c **** 		uint32_t cur_speed = light_system->settings->spim_speed;
 6514              		.loc 1 2114 0
 6515 0076 104B     		ldr	r3, .L480+16
2115:/home/tienluong/workspace/atlantis_fw/AsicFwS2/src/lcc_cmd_base_0000.c **** 		/* TODO: Change spi speed */
2116:/home/tienluong/workspace/atlantis_fw/AsicFwS2/src/lcc_cmd_base_0000.c **** 		if (spim_speed != cur_speed)
2117:/home/tienluong/workspace/atlantis_fw/AsicFwS2/src/lcc_cmd_base_0000.c **** 		{
2118:/home/tienluong/workspace/atlantis_fw/AsicFwS2/src/lcc_cmd_base_0000.c **** 			/* TODO: Take semaphore to access settings memory */
2119:/home/tienluong/workspace/atlantis_fw/AsicFwS2/src/lcc_cmd_base_0000.c **** 			light_system->settings->spim_speed = spim_speed;
2120:/home/tienluong/workspace/atlantis_fw/AsicFwS2/src/lcc_cmd_base_0000.c **** 			/* TODO: Release semaphore after read data */
2121:/home/tienluong/workspace/atlantis_fw/AsicFwS2/src/lcc_cmd_base_0000.c **** 		}
2122:/home/tienluong/workspace/atlantis_fw/AsicFwS2/src/lcc_cmd_base_0000.c **** #if(LOG_VERBOSE == STD_ON)
2123:/home/tienluong/workspace/atlantis_fw/AsicFwS2/src/lcc_cmd_base_0000.c **** 		SLOGF(SLOG_DEBUG, "SPI speed: cur: %d set: %d", cur_speed, spim_speed);
 6516              		.loc 1 2123 0
 6517 0078 2120     		movs	r0, #33
 6518 007a 1021     		movs	r1, #16
2114:/home/tienluong/workspace/atlantis_fw/AsicFwS2/src/lcc_cmd_base_0000.c **** 		/* TODO: Change spi speed */
 6519              		.loc 1 2114 0
 6520 007c 1B68     		ldr	r3, [r3]
 6521 007e 9A68     		ldr	r2, [r3, #8]
 6522 0080 D2F8A430 		ldr	r3, [r2, #164]
 6523              	.LVL738:
2116:/home/tienluong/workspace/atlantis_fw/AsicFwS2/src/lcc_cmd_base_0000.c **** 		{
 6524              		.loc 1 2116 0
 6525 0084 9E42     		cmp	r6, r3
2119:/home/tienluong/workspace/atlantis_fw/AsicFwS2/src/lcc_cmd_base_0000.c **** 			/* TODO: Release semaphore after read data */
 6526              		.loc 1 2119 0
 6527 0086 18BF     		it	ne
 6528 0088 C2F8A460 		strne	r6, [r2, #164]
 6529              		.loc 1 2123 0
 6530 008c 0096     		str	r6, [sp]
 6531 008e 0D4A     		ldr	r2, .L480+28
 6532 0090 C047     		blx	r8
 6533              	.LVL739:
 6534              	.L478:
 6535              	.LBE30:
2124:/home/tienluong/workspace/atlantis_fw/AsicFwS2/src/lcc_cmd_base_0000.c **** #endif
2125:/home/tienluong/workspace/atlantis_fw/AsicFwS2/src/lcc_cmd_base_0000.c **** 	}
2126:/home/tienluong/workspace/atlantis_fw/AsicFwS2/src/lcc_cmd_base_0000.c **** 
2127:/home/tienluong/workspace/atlantis_fw/AsicFwS2/src/lcc_cmd_base_0000.c **** 	/* Update command status */
2128:/home/tienluong/workspace/atlantis_fw/AsicFwS2/src/lcc_cmd_base_0000.c **** 	in->status = LCC_CMD_SUCCESS;
 6536              		.loc 1 2128 0 discriminator 2
 6537 0092 0123     		movs	r3, #1
2129:/home/tienluong/workspace/atlantis_fw/AsicFwS2/src/lcc_cmd_base_0000.c **** 
2130:/home/tienluong/workspace/atlantis_fw/AsicFwS2/src/lcc_cmd_base_0000.c **** 	SLOGF(SLOG_DEBUG, "Exiting %s", __FUNCTION__);
 6538              		.loc 1 2130 0 discriminator 2
 6539 0094 2120     		movs	r0, #33
2128:/home/tienluong/workspace/atlantis_fw/AsicFwS2/src/lcc_cmd_base_0000.c **** 
 6540              		.loc 1 2128 0 discriminator 2
 6541 0096 2B82     		strh	r3, [r5, #16]	@ movhi
 6542              		.loc 1 2130 0 discriminator 2
 6543 0098 1021     		movs	r1, #16
 6544 009a 0B4A     		ldr	r2, .L480+32
 6545 009c 024B     		ldr	r3, .L480
 6546 009e A047     		blx	r4
 6547              	.LVL740:
 6548              	.L474:
2131:/home/tienluong/workspace/atlantis_fw/AsicFwS2/src/lcc_cmd_base_0000.c **** }
 6549              		.loc 1 2131 0
 6550 00a0 04B0     		add	sp, sp, #16
 6551              	.LCFI58:
 6552              		.cfi_def_cfa_offset 24
 6553              		@ sp needed
 6554 00a2 BDE8F081 		pop	{r4, r5, r6, r7, r8, pc}
 6555              	.LVL741:
 6556              	.L481:
 6557 00a6 00BF     		.align	2
 6558              	.L480:
 6559 00a8 00000000 		.word	.LANCHOR27
 6560 00ac 99010000 		.word	.LC18
 6561 00b0 00000000 		.word	pvPortMalloc1
 6562 00b4 00000000 		.word	.LC0
 6563 00b8 00000000 		.word	light_system
 6564 00bc C4050000 		.word	.LC51
 6565 00c0 D8050000 		.word	.LC52
 6566 00c4 EA050000 		.word	.LC53
 6567 00c8 DA020000 		.word	.LC30
 6568 00cc 00000000 		.word	slogf
 6569              		.cfi_endproc
 6570              	.LFE27:
 6572              		.section	.rodata.__FUNCTION__.9268,"a",%progbits
 6573              		.set	.LANCHOR6,. + 0
 6576              	__FUNCTION__.9268:
 6577 0000 636D645F 		.ascii	"cmd_cam_snapshot_tid\000"
 6577      63616D5F 
 6577      736E6170 
 6577      73686F74 
 6577      5F746964 
 6578              		.section	.rodata.__FUNCTION__.9318,"a",%progbits
 6579              		.set	.LANCHOR10,. + 0
 6582              	__FUNCTION__.9318:
 6583 0000 636D645F 		.ascii	"cmd_cam_module_sensitivity\000"
 6583      63616D5F 
 6583      6D6F6475 
 6583      6C655F73 
 6583      656E7369 
 6584              		.section	.rodata.__FUNCTION__.9464,"a",%progbits
 6585              		.set	.LANCHOR19,. + 0
 6588              	__FUNCTION__.9464:
 6589 0000 636D645F 		.ascii	"cmd_cam_roi_calibration\000"
 6589      63616D5F 
 6589      726F695F 
 6589      63616C69 
 6589      62726174 
 6590              		.section	.rodata.__FUNCTION__.9510,"a",%progbits
 6591              		.set	.LANCHOR22,. + 0
 6594              	__FUNCTION__.9510:
 6595 0000 636D645F 		.ascii	"cmd_i2c_forward\000"
 6595      6932635F 
 6595      666F7277 
 6595      61726400 
 6596              		.section	.rodata.__FUNCTION__.9207,"a",%progbits
 6597              		.set	.LANCHOR1,. + 0
 6600              	__FUNCTION__.9207:
 6601 0000 636D645F 		.ascii	"cmd_cam_streaming\000"
 6601      63616D5F 
 6601      73747265 
 6601      616D696E 
 6601      6700
 6602              		.section	.rodata.__FUNCTION__.9288,"a",%progbits
 6603              		.set	.LANCHOR8,. + 0
 6606              	__FUNCTION__.9288:
 6607 0000 636D645F 		.ascii	"cmd_cam_module_status\000"
 6607      63616D5F 
 6607      6D6F6475 
 6607      6C655F73 
 6607      74617475 
 6608              		.section	.rodata.__FUNCTION__.9333,"a",%progbits
 6609              		.set	.LANCHOR11,. + 0
 6612              	__FUNCTION__.9333:
 6613 0000 636D645F 		.ascii	"cmd_cam_module_exposure_time\000"
 6613      63616D5F 
 6613      6D6F6475 
 6613      6C655F65 
 6613      78706F73 
 6614              		.section	.rodata.__FUNCTION__.9235,"a",%progbits
 6615              		.set	.LANCHOR2,. + 0
 6618              	__FUNCTION__.9235:
 6619 0000 636D645F 		.ascii	"cmd_cam_burst_requested\000"
 6619      63616D5F 
 6619      62757273 
 6619      745F7265 
 6619      71756573 
 6620              		.section	.rodata.__FUNCTION__.9479,"a",%progbits
 6621              		.set	.LANCHOR20,. + 0
 6624              	__FUNCTION__.9479:
 6625 0000 636D645F 		.ascii	"cmd_cam_module_uuid\000"
 6625      63616D5F 
 6625      6D6F6475 
 6625      6C655F75 
 6625      75696400 
 6626              		.section	.bss.i2c_rx_data.9501,"aw",%nobits
 6627              		.align	2
 6628              		.set	.LANCHOR23,. + 0
 6631              	i2c_rx_data.9501:
 6632 0000 00000000 		.space	4
 6633              		.section	.rodata.__FUNCTION__.9278,"a",%progbits
 6634              		.set	.LANCHOR7,. + 0
 6637              	__FUNCTION__.9278:
 6638 0000 636D645F 		.ascii	"cmd_cam_command_status\000"
 6638      63616D5F 
 6638      636F6D6D 
 6638      616E645F 
 6638      73746174 
 6639              		.section	.rodata.__FUNCTION__.9492,"a",%progbits
 6640              		.set	.LANCHOR21,. + 0
 6643              	__FUNCTION__.9492:
 6644 0000 636D645F 		.ascii	"cmd_cam_module_type\000"
 6644      63616D5F 
 6644      6D6F6475 
 6644      6C655F74 
 6644      79706500 
 6645              		.section	.rodata.__FUNCTION__.9348,"a",%progbits
 6646              		.set	.LANCHOR12,. + 0
 6649              	__FUNCTION__.9348:
 6650 0000 636D645F 		.ascii	"cmd_cam_module_fps\000"
 6650      63616D5F 
 6650      6D6F6475 
 6650      6C655F66 
 6650      707300
 6651              		.section	.rodata.str1.1,"aMS",%progbits,1
 6652              	.LC0:
 6653 0000 25733A20 		.ascii	"%s: Lack of memory\000"
 6653      4C61636B 
 6653      206F6620 
 6653      6D656D6F 
 6653      727900
 6654              	.LC1:
 6655 0013 4F70656E 		.ascii	"Open CAM-%X request\000"
 6655      2043414D 
 6655      2D255820 
 6655      72657175 
 6655      65737400 
 6656              	.LC2:
 6657 0027 4F70656E 		.ascii	"Open mode invalid!\000"
 6657      206D6F64 
 6657      6520696E 
 6657      76616C69 
 6657      642100
 6658              	.LC3:
 6659 003a 54582564 		.ascii	"TX%d is not supported\000"
 6659      20697320 
 6659      6E6F7420 
 6659      73757070 
 6659      6F727465 
 6660              	.LC4:
 6661 0050 43414D2D 		.ascii	"CAM-%X not in SW standby\000"
 6661      2558206E 
 6661      6F742069 
 6661      6E205357 
 6661      20737461 
 6662              	.LC5:
 6663 0069 43616E63 		.ascii	"Canceled stream on request\000"
 6663      656C6564 
 6663      20737472 
 6663      65616D20 
 6663      6F6E2072 
 6664              	.LC6:
 6665 0084 53747265 		.ascii	"Streaming off CAM-%X\000"
 6665      616D696E 
 6665      67206F66 
 6665      66204341 
 6665      4D2D2558 
 6666              	.LC7:
 6667 0099 556E7375 		.ascii	"Unsupported UCID %x\000"
 6667      70706F72 
 6667      74656420 
 6667      55434944 
 6667      20257800 
 6668              	.LC8:
 6669 00ad 52657175 		.ascii	"Requested burst %d\000"
 6669      65737465 
 6669      64206275 
 6669      72737420 
 6669      256400
 6670              	.LC9:
 6671 00c0 41766169 		.ascii	"Available burst %d\000"
 6671      6C61626C 
 6671      65206275 
 6671      72737420 
 6671      256400
 6672              	.LC10:
 6673 00d3 41637475 		.ascii	"Actual burst %d\000"
 6673      616C2062 
 6673      75727374 
 6673      20256400 
 6674              	.LC11:
 6675 00e3 52656365 		.ascii	"Received snapshot UUID\000"
 6675      69766564 
 6675      20736E61 
 6675      7073686F 
 6675      74205555 
 6676              	.LC12:
 6677 00fa 53555549 		.ascii	"SUUID: 0x%04x\000"
 6677      443A2030 
 6677      78253034 
 6677      7800
 6678              	.LC13:
 6679 0108 25733A20 		.ascii	"%s: CMD_TID %x is queried status %x\000"
 6679      434D445F 
 6679      54494420 
 6679      25782069 
 6679      73207175 
 6680              	.LC14:
 6681 012c 4578706F 		.ascii	"Exposure setting request for CAM-%X\000"
 6681      73757265 
 6681      20736574 
 6681      74696E67 
 6681      20726571 
 6682              	.LC15:
 6683 0150 43414D2D 		.ascii	"CAM-%X : VCM is moving\000"
 6683      2558203A 
 6683      2056434D 
 6683      20697320 
 6683      6D6F7669 
 6684              	.LC16:
 6685 0167 43414D2D 		.ascii	"CAM-%X : Lens is moving\000"
 6685      2558203A 
 6685      204C656E 
 6685      73206973 
 6685      206D6F76 
 6686              	.LC17:
 6687 017f 43414D2D 		.ascii	"CAM-%X : Mirror is moving\000"
 6687      2558203A 
 6687      204D6972 
 6687      726F7220 
 6687      6973206D 
 6688              	.LC18:
 6689 0199 456E7465 		.ascii	"Entering %s\000"
 6689      72696E67 
 6689      20257300 
 6690              	.LC19:
 6691 01a5 524F4920 		.ascii	"ROI hasn't been set\000"
 6691      6861736E 
 6691      27742062 
 6691      65656E20 
 6691      73657400 
 6692              	.LC20:
 6693 01b9 47657420 		.ascii	"Get ROI settings\000"
 6693      524F4920 
 6693      73657474 
 6693      696E6773 
 6693      00
 6694              	.LC21:
 6695 01ca 41462052 		.ascii	"AF ROI data\000"
 6695      4F492064 
 6695      61746100 
 6696              	.LC22:
 6697 01d6 524F493A 		.ascii	"ROI: 0x%x, 0x%x, 0x%x, 0x%x, 0x%x, 0x%x, 0x%x, 0x%x"
 6697      20307825 
 6697      782C2030 
 6697      7825782C 
 6697      20307825 
 6698 0209 2C203078 		.ascii	", 0x%x, 0x%x\000"
 6698      25782C20 
 6698      30782578 
 6698      00
 6699              	.LC23:
 6700 0216 41452052 		.ascii	"AE ROI data\000"
 6700      4F492064 
 6700      61746100 
 6701              	.LC24:
 6702 0222 53657420 		.ascii	"Set ROI cnt_af: %d cnt_ae: %d\000"
 6702      524F4920 
 6702      636E745F 
 6702      61663A20 
 6702      25642063 
 6703              	.LC25:
 6704 0240 25733A25 		.ascii	"%s:%d Data Length is invalid %d\000"
 6704      64204461 
 6704      7461204C 
 6704      656E6774 
 6704      68206973 
 6705              	.LC26:
 6706 0260 25733A25 		.ascii	"%s:%d Number of ROI data is too large %d\000"
 6706      64204E75 
 6706      6D626572 
 6706      206F6620 
 6706      524F4920 
 6707              	.LC27:
 6708 0289 726F695F 		.ascii	"roi_cnt_af: %d, offset: %d\000"
 6708      636E745F 
 6708      61663A20 
 6708      25642C20 
 6708      6F666673 
 6709              	.LC28:
 6710 02a4 726F695F 		.ascii	"roi_cnt_ae: %d, offset: %d\000"
 6710      636E745F 
 6710      61653A20 
 6710      25642C20 
 6710      6F666673 
 6711              	.LC29:
 6712 02bf 4661696C 		.ascii	"Failed to queue AF command\000"
 6712      65642074 
 6712      6F207175 
 6712      65756520 
 6712      41462063 
 6713              	.LC30:
 6714 02da 45786974 		.ascii	"Exiting %s\000"
 6714      696E6720 
 6714      257300
 6715              	.LC31:
 6716 02e5 53657420 		.ascii	"Set ROI transfer\000"
 6716      524F4920 
 6716      7472616E 
 6716      73666572 
 6716      00
 6717              	.LC32:
 6718 02f6 524F4920 		.ascii	"ROI transfer distance: %u, ref_mod_idx: %u, roi_lef"
 6718      7472616E 
 6718      73666572 
 6718      20646973 
 6718      74616E63 
 6719 0329 745F783A 		.ascii	"t_x: %u, roi_top_y: %u, widht: %u, height: %u\000"
 6719      2025752C 
 6719      20726F69 
 6719      5F746F70 
 6719      5F793A20 
 6720              	.LC33:
 6721 0357 53657420 		.ascii	"Set ROI transfer for CAM-%X\000"
 6721      524F4920 
 6721      7472616E 
 6721      73666572 
 6721      20666F72 
 6722              	.LC34:
 6723 0373 47657420 		.ascii	"Get ROI calibration of CAM-%X\000"
 6723      524F4920 
 6723      63616C69 
 6723      62726174 
 6723      696F6E20 
 6724              	.LC35:
 6725 0391 524F4920 		.ascii	"ROI calib: %u, %u, %u, %u\000"
 6725      63616C69 
 6725      623A2025 
 6725      752C2025 
 6725      752C2025 
 6726              	.LC36:
 6727 03ab 53657420 		.ascii	"Set ROI calibration for CAM-%X\000"
 6727      524F4920 
 6727      63616C69 
 6727      62726174 
 6727      696F6E20 
 6728              	.LC37:
 6729 03ca 25733A20 		.ascii	"%s: Invalid input\000"
 6729      496E7661 
 6729      6C696420 
 6729      696E7075 
 6729      7400
 6730              	.LC38:
 6731 03dc 25733A20 		.ascii	"%s: Invalid input \000"
 6731      496E7661 
 6731      6C696420 
 6731      696E7075 
 6731      742000
 6732              	.LC39:
 6733 03ef 53746172 		.ascii	"Start forwarding data to Channel ID: \033[91m[%d]\033"
 6733      7420666F 
 6733      72776172 
 6733      64696E67 
 6733      20646174 
 6734 041e 5B39326D 		.ascii	"[92m--Slave address: \033[91m[0x%x]\033[92m--Transm"
 6734      2D2D536C 
 6734      61766520 
 6734      61646472 
 6734      6573733A 
 6735 044b 69747465 		.ascii	"itter Length: \033[91m[%d]\033[92m--Receiver Length"
 6735      72204C65 
 6735      6E677468 
 6735      3A201B5B 
 6735      39316D5B 
 6736 0478 3A201B5B 		.ascii	": \033[91m[%d]\033[0m\000"
 6736      39316D5B 
 6736      25645D1B 
 6736      5B306D00 
 6737              	.LC40:
 6738 0488 44617461 		.ascii	"Data %s\000"
 6738      20257300 
 6739              	.LC41:
 6740 0490 6973206E 		.ascii	"is not exist because of the i2c timeout\000"
 6740      6F742065 
 6740      78697374 
 6740      20626563 
 6740      61757365 
 6741              	.LC42:
 6742 04b8 25733A20 		.ascii	"%s: Please send a read request first \000"
 6742      506C6561 
 6742      73652073 
 6742      656E6420 
 6742      61207265 
 6743              	.LC43:
 6744 04de 52656164 		.ascii	"Read zoom factor data: %.02f\000"
 6744      207A6F6F 
 6744      6D206661 
 6744      63746F72 
 6744      20646174 
 6745              	.LC44:
 6746 04fb 57726974 		.ascii	"Write zoom factor data: %.02f (wrt 28mm)\000"
 6746      65207A6F 
 6746      6F6D2066 
 6746      6163746F 
 6746      72206461 
 6747              	.LC45:
 6748 0524 25733A25 		.ascii	"%s:%d I2C channel is invalid %d\000"
 6748      64204932 
 6748      43206368 
 6748      616E6E65 
 6748      6C206973 
 6749              	.LC46:
 6750 0544 47657420 		.ascii	"Get speed of I2C channel-%d\000"
 6750      73706565 
 6750      64206F66 
 6750      20493243 
 6750      20636861 
 6751              	.LC47:
 6752 0560 49324320 		.ascii	"I2C speed: %d\000"
 6752      73706565 
 6752      643A2025 
 6752      6400
 6753              	.LC48:
 6754 056e 53657420 		.ascii	"Set speed for I2C channel-%d\000"
 6754      73706565 
 6754      6420666F 
 6754      72204932 
 6754      43206368 
 6755              	.LC49:
 6756 058b 25733A25 		.ascii	"%s:%d I2C speed is invalid %d\000"
 6756      64204932 
 6756      43207370 
 6756      65656420 
 6756      69732069 
 6757              	.LC50:
 6758 05a9 49324320 		.ascii	"I2C speed: cur: %d set: %d\000"
 6758      73706565 
 6758      643A2063 
 6758      75723A20 
 6758      25642073 
 6759              	.LC51:
 6760 05c4 52656164 		.ascii	"Read spim speed: %d\000"
 6760      20737069 
 6760      6D207370 
 6760      6565643A 
 6760      20256400 
 6761              	.LC52:
 6762 05d8 53657420 		.ascii	"Set SPI speed: %d\000"
 6762      53504920 
 6762      73706565 
 6762      643A2025 
 6762      6400
 6763              	.LC53:
 6764 05ea 53504920 		.ascii	"SPI speed: cur: %d set: %d\000"
 6764      73706565 
 6764      643A2063 
 6764      75723A20 
 6764      25642073 
 6765              		.section	.rodata.__FUNCTION__.9361,"a",%progbits
 6766              		.set	.LANCHOR13,. + 0
 6769              	__FUNCTION__.9361:
 6770 0000 636D645F 		.ascii	"cmd_cam_module_focal_length\000"
 6770      63616D5F 
 6770      6D6F6475 
 6770      6C655F66 
 6770      6F63616C 
 6771              		.section	.bss.rx_len.9502,"aw",%nobits
 6772              		.align	1
 6773              		.set	.LANCHOR24,. + 0
 6776              	rx_len.9502:
 6777 0000 0000     		.space	2
 6778              		.section	.rodata.__FUNCTION__.9410,"a",%progbits
 6779              		.set	.LANCHOR16,. + 0
 6782              	__FUNCTION__.9410:
 6783 0000 636D645F 		.ascii	"cmd_cam_module_mirror_position\000"
 6783      63616D5F 
 6783      6D6F6475 
 6783      6C655F6D 
 6783      6972726F 
 6784              		.section	.rodata.__FUNCTION__.9186,"a",%progbits
 6785              		.set	.LANCHOR0,. + 0
 6788              	__FUNCTION__.9186:
 6789 0000 636D645F 		.ascii	"cmd_cam_module_open\000"
 6789      63616D5F 
 6789      6D6F6475 
 6789      6C655F6F 
 6789      70656E00 
 6790              		.section	.rodata.__FUNCTION__.9547,"a",%progbits
 6791              		.set	.LANCHOR26,. + 0
 6794              	__FUNCTION__.9547:
 6795 0000 636D645F 		.ascii	"cmd_i2c_speed\000"
 6795      6932635F 
 6795      73706565 
 6795      6400
 6796              		.section	.rodata.__FUNCTION__.9420,"a",%progbits
 6797              		.set	.LANCHOR17,. + 0
 6800              	__FUNCTION__.9420:
 6801 0000 636D645F 		.ascii	"cmd_cam_roi\000"
 6801      63616D5F 
 6801      726F6900 
 6802              		.section	.rodata.__FUNCTION__.9242,"a",%progbits
 6803              		.set	.LANCHOR3,. + 0
 6806              	__FUNCTION__.9242:
 6807 0000 636D645F 		.ascii	"cmd_cam_burst_available\000"
 6807      63616D5F 
 6807      62757273 
 6807      745F6176 
 6807      61696C61 
 6808              		.section	.rodata.__FUNCTION__.9566,"a",%progbits
 6809              		.set	.LANCHOR27,. + 0
 6812              	__FUNCTION__.9566:
 6813 0000 636D645F 		.ascii	"cmd_spi_speed\000"
 6813      7370695F 
 6813      73706565 
 6813      6400
 6814              		.section	.rodata.__FUNCTION__.9393,"a",%progbits
 6815              		.set	.LANCHOR15,. + 0
 6818              	__FUNCTION__.9393:
 6819 0000 636D645F 		.ascii	"cmd_cam_module_lens_position\000"
 6819      63616D5F 
 6819      6D6F6475 
 6819      6C655F6C 
 6819      656E735F 
 6820              		.section	.rodata.__FUNCTION__.9249,"a",%progbits
 6821              		.set	.LANCHOR4,. + 0
 6824              	__FUNCTION__.9249:
 6825 0000 636D645F 		.ascii	"cmd_cam_burst_actual\000"
 6825      63616D5F 
 6825      62757273 
 6825      745F6163 
 6825      7475616C 
 6826              		.section	.rodata.__FUNCTION__.9255,"a",%progbits
 6827              		.set	.LANCHOR5,. + 0
 6830              	__FUNCTION__.9255:
 6831 0000 636D645F 		.ascii	"cmd_cam_snapshot_uuid\000"
 6831      63616D5F 
 6831      736E6170 
 6831      73686F74 
 6831      5F757569 
 6832              		.section	.rodata.__FUNCTION__.9303,"a",%progbits
 6833              		.set	.LANCHOR9,. + 0
 6836              	__FUNCTION__.9303:
 6837 0000 636D645F 		.ascii	"cmd_cam_module_resolution\000"
 6837      63616D5F 
 6837      6D6F6475 
 6837      6C655F72 
 6837      65736F6C 
 6838              		.section	.rodata.__FUNCTION__.9376,"a",%progbits
 6839              		.set	.LANCHOR14,. + 0
 6842              	__FUNCTION__.9376:
 6843 0000 636D645F 		.ascii	"cmd_cam_module_focus_distance\000"
 6843      63616D5F 
 6843      6D6F6475 
 6843      6C655F66 
 6843      6F637573 
 6844              		.section	.rodata.__FUNCTION__.9446,"a",%progbits
 6845              		.set	.LANCHOR18,. + 0
 6848              	__FUNCTION__.9446:
 6849 0000 636D645F 		.ascii	"cmd_cam_roi_transfer\000"
 6849      63616D5F 
 6849      726F695F 
 6849      7472616E 
 6849      73666572 
 6850              		.section	.rodata.__FUNCTION__.9519,"a",%progbits
 6851              		.set	.LANCHOR25,. + 0
 6854              	__FUNCTION__.9519:
 6855 0000 636D645F 		.ascii	"cmd_zoom_factor\000"
 6855      7A6F6F6D 
 6855      5F666163 
 6855      746F7200 
 6856              		.text
 6857              	.Letext0:
 6858              		.file 2 "/opt/toolchains/gcc-arm-none-eabi-4_9-2015q1/arm-none-eabi/include/machine/_default_types
 6859              		.file 3 "/opt/toolchains/gcc-arm-none-eabi-4_9-2015q1/arm-none-eabi/include/stdint.h"
 6860              		.file 4 "/home/tienluong/workspace/atlantis_fw/platform/os/Source/portable/GCC/cortex-r4/portmacro
 6861              		.file 5 "/home/tienluong/workspace/atlantis_fw/platform/os/Source/include/queue.h"
 6862              		.file 6 "/home/tienluong/workspace/atlantis_fw/platform/os/Source/include/semphr.h"
 6863              		.file 7 "/home/tienluong/workspace/atlantis_fw/platform/os/Source/include/event_groups.h"
 6864              		.file 8 "/home/tienluong/workspace/atlantis_fw/platform/asic/hal/include/hal_syncio.h"
 6865              		.file 9 "/home/tienluong/workspace/atlantis_fw/platform/asic/hal/include/hal_pwm.h"
 6866              		.file 10 "/home/tienluong/workspace/atlantis_fw/platform/asic/hal/include/hal_i2c.h"
 6867              		.file 11 "/home/tienluong/workspace/atlantis_fw/platform/common/lcc_system.h"
 6868              		.file 12 "/home/tienluong/workspace/atlantis_fw/AsicFwS2/include/img_sensor.h"
 6869              		.file 13 "/home/tienluong/workspace/atlantis_fw/AsicFwS2/include/lcc_cmd_log.h"
 6870              		.file 14 "/home/tienluong/workspace/atlantis_fw/AsicFwS2/include/lcc_cmd.h"
 6871              		.file 15 "/home/tienluong/workspace/atlantis_fw/AsicFwS2/include/vcm.h"
 6872              		.file 16 "/home/tienluong/workspace/atlantis_fw/AsicFwS2/include/optical.h"
 6873              		.file 17 "/home/tienluong/workspace/atlantis_fw/AsicFwS2/include/pwr_ctrl.h"
 6874              		.file 18 "/home/tienluong/workspace/atlantis_fw/platform/driver/include/i2cm.h"
 6875              		.file 19 "/home/tienluong/workspace/atlantis_fw/platform/driver/include/eeprom.h"
 6876              		.file 20 "/home/tienluong/workspace/atlantis_fw/AsicFwS2/include/task_af_ctrl.h"
 6877              		.file 21 "/home/tienluong/workspace/atlantis_fw/AsicFwS2/include/light_system.h"
 6878              		.file 22 "/home/tienluong/workspace/atlantis_fw/AsicFwS2/include/task_cam_ctrl.h"
 6879              		.file 23 "/home/tienluong/workspace/atlantis_fw/AsicFwS2/include/usecase.h"
 6880              		.file 24 "/home/tienluong/workspace/atlantis_fw/platform/driver/include/hall.h"
 6881              		.file 25 "/home/tienluong/workspace/atlantis_fw/AsicFwS2/include/actuator.h"
DEFINED SYMBOLS
                            *ABS*:00000000 lcc_cmd_base_0000.c
     /tmp/ccWlwtph.s:19     .text.cmd_cam_module_open:00000000 $t
     /tmp/ccWlwtph.s:24     .text.cmd_cam_module_open:00000000 cmd_cam_module_open
     /tmp/ccWlwtph.s:252    .text.cmd_cam_module_open:00000130 $d
     /tmp/ccWlwtph.s:267    .text.cmd_cam_streaming:00000000 $t
     /tmp/ccWlwtph.s:272    .text.cmd_cam_streaming:00000000 cmd_cam_streaming
     /tmp/ccWlwtph.s:748    .text.cmd_cam_streaming:0000028c $d
     /tmp/ccWlwtph.s:771    .text.cmd_cam_burst_requested:00000000 $t
     /tmp/ccWlwtph.s:776    .text.cmd_cam_burst_requested:00000000 cmd_cam_burst_requested
     /tmp/ccWlwtph.s:884    .text.cmd_cam_burst_requested:0000008c $d
     /tmp/ccWlwtph.s:894    .text.cmd_cam_burst_available:00000000 $t
     /tmp/ccWlwtph.s:899    .text.cmd_cam_burst_available:00000000 cmd_cam_burst_available
     /tmp/ccWlwtph.s:975    .text.cmd_cam_burst_available:00000050 $d
     /tmp/ccWlwtph.s:985    .text.cmd_cam_burst_actual:00000000 $t
     /tmp/ccWlwtph.s:990    .text.cmd_cam_burst_actual:00000000 cmd_cam_burst_actual
     /tmp/ccWlwtph.s:1066   .text.cmd_cam_burst_actual:00000050 $d
     /tmp/ccWlwtph.s:1076   .text.cmd_cam_snapshot_uuid:00000000 $t
     /tmp/ccWlwtph.s:1081   .text.cmd_cam_snapshot_uuid:00000000 cmd_cam_snapshot_uuid
     /tmp/ccWlwtph.s:1205   .text.cmd_cam_snapshot_uuid:0000009c $d
     /tmp/ccWlwtph.s:1217   .text.cmd_cam_snapshot_tid:00000000 $t
     /tmp/ccWlwtph.s:1222   .text.cmd_cam_snapshot_tid:00000000 cmd_cam_snapshot_tid
     /tmp/ccWlwtph.s:1406   .text.cmd_cam_snapshot_tid:000000f0 $d
     /tmp/ccWlwtph.s:1418   .text.cmd_cam_command_status:00000000 $t
     /tmp/ccWlwtph.s:1423   .text.cmd_cam_command_status:00000000 cmd_cam_command_status
     /tmp/ccWlwtph.s:1543   .text.cmd_cam_command_status:00000080 $d
     /tmp/ccWlwtph.s:1555   .text.cmd_cam_module_status:00000000 $t
     /tmp/ccWlwtph.s:1560   .text.cmd_cam_module_status:00000000 cmd_cam_module_status
     /tmp/ccWlwtph.s:1684   .text.cmd_cam_module_status:00000094 $d
     /tmp/ccWlwtph.s:1695   .text.cmd_cam_module_resolution:00000000 $t
     /tmp/ccWlwtph.s:1700   .text.cmd_cam_module_resolution:00000000 cmd_cam_module_resolution
     /tmp/ccWlwtph.s:1951   .text.cmd_cam_module_resolution:00000148 $d
     /tmp/ccWlwtph.s:1964   .text.cmd_cam_module_sensitivity:00000000 $t
     /tmp/ccWlwtph.s:1969   .text.cmd_cam_module_sensitivity:00000000 cmd_cam_module_sensitivity
     /tmp/ccWlwtph.s:2217   .text.cmd_cam_module_sensitivity:0000014c $d
     /tmp/ccWlwtph.s:2230   .text.cmd_cam_module_exposure_time:00000000 $t
     /tmp/ccWlwtph.s:2235   .text.cmd_cam_module_exposure_time:00000000 cmd_cam_module_exposure_time
     /tmp/ccWlwtph.s:2469   .text.cmd_cam_module_exposure_time:00000130 $d
     /tmp/ccWlwtph.s:2483   .text.cmd_cam_module_fps:00000000 $t
     /tmp/ccWlwtph.s:2488   .text.cmd_cam_module_fps:00000000 cmd_cam_module_fps
     /tmp/ccWlwtph.s:2750   .text.cmd_cam_module_fps:00000170 $d
     /tmp/ccWlwtph.s:2762   .text.cmd_cam_module_focal_length:00000000 $t
     /tmp/ccWlwtph.s:2767   .text.cmd_cam_module_focal_length:00000000 cmd_cam_module_focal_length
     /tmp/ccWlwtph.s:2900   .text.cmd_cam_module_focal_length:000000a8 $d
     /tmp/ccWlwtph.s:2911   .text.cmd_cam_module_focus_distance:00000000 $t
     /tmp/ccWlwtph.s:2916   .text.cmd_cam_module_focus_distance:00000000 cmd_cam_module_focus_distance
     /tmp/ccWlwtph.s:3280   .text.cmd_cam_module_focus_distance:000001ec $d
     /tmp/ccWlwtph.s:3295   .text.cmd_cam_module_lens_position:00000000 $t
     /tmp/ccWlwtph.s:3300   .text.cmd_cam_module_lens_position:00000000 cmd_cam_module_lens_position
     /tmp/ccWlwtph.s:3675   .text.cmd_cam_module_lens_position:000001f8 $d
     /tmp/ccWlwtph.s:3690   .text.cmd_cam_module_mirror_position:00000000 $t
     /tmp/ccWlwtph.s:3695   .text.cmd_cam_module_mirror_position:00000000 cmd_cam_module_mirror_position
     /tmp/ccWlwtph.s:4010   .text.cmd_cam_module_mirror_position:000001a8 $d
     /tmp/ccWlwtph.s:4025   .text.cmd_cam_roi:00000000 $t
     /tmp/ccWlwtph.s:4030   .text.cmd_cam_roi:00000000 cmd_cam_roi
     /tmp/ccWlwtph.s:4447   .text.cmd_cam_roi:00000284 $d
     /tmp/ccWlwtph.s:4471   .text.cmd_cam_roi_transfer:00000000 $t
     /tmp/ccWlwtph.s:4476   .text.cmd_cam_roi_transfer:00000000 cmd_cam_roi_transfer
     /tmp/ccWlwtph.s:4696   .text.cmd_cam_roi_transfer:0000012c $d
     /tmp/ccWlwtph.s:4712   .text.cmd_cam_roi_calibration:00000000 $t
     /tmp/ccWlwtph.s:4717   .text.cmd_cam_roi_calibration:00000000 cmd_cam_roi_calibration
     /tmp/ccWlwtph.s:5015   .text.cmd_cam_roi_calibration:000001a8 $d
     /tmp/ccWlwtph.s:5034   .text.cmd_cam_module_uuid:00000000 $t
     /tmp/ccWlwtph.s:5039   .text.cmd_cam_module_uuid:00000000 cmd_cam_module_uuid
     /tmp/ccWlwtph.s:5169   .text.cmd_cam_module_uuid:000000a4 $d
     /tmp/ccWlwtph.s:5180   .text.cmd_cam_module_type:00000000 $t
     /tmp/ccWlwtph.s:5185   .text.cmd_cam_module_type:00000000 cmd_cam_module_type
     /tmp/ccWlwtph.s:5308   .text.cmd_cam_module_type:00000094 $d
     /tmp/ccWlwtph.s:5319   .text.cmd_i2c_forward:00000000 $t
     /tmp/ccWlwtph.s:5324   .text.cmd_i2c_forward:00000000 cmd_i2c_forward
     /tmp/ccWlwtph.s:5649   .text.cmd_i2c_forward:00000198 $d
     /tmp/ccWlwtph.s:5671   .text.cmd_zoom_factor:00000000 $t
     /tmp/ccWlwtph.s:5676   .text.cmd_zoom_factor:00000000 cmd_zoom_factor
     /tmp/ccWlwtph.s:5796   .text.cmd_zoom_factor:0000008c $d
     /tmp/ccWlwtph.s:5808   .text.cmd_cam_module_mirror_calib:00000000 $t
     /tmp/ccWlwtph.s:5813   .text.cmd_cam_module_mirror_calib:00000000 cmd_cam_module_mirror_calib
     /tmp/ccWlwtph.s:5990   .text.cmd_cam_module_mirror_calib:000000d4 $d
     /tmp/ccWlwtph.s:6001   .text.cmd_i2c_speed:00000000 $t
     /tmp/ccWlwtph.s:6006   .text.cmd_i2c_speed:00000000 cmd_i2c_speed
     /tmp/ccWlwtph.s:6378   .text.cmd_i2c_speed:000001dc $d
     /tmp/ccWlwtph.s:6409   .text.cmd_spi_speed:00000000 $t
     /tmp/ccWlwtph.s:6414   .text.cmd_spi_speed:00000000 cmd_spi_speed
     /tmp/ccWlwtph.s:6559   .text.cmd_spi_speed:000000a8 $d
     /tmp/ccWlwtph.s:6576   .rodata.__FUNCTION__.9268:00000000 __FUNCTION__.9268
     /tmp/ccWlwtph.s:6582   .rodata.__FUNCTION__.9318:00000000 __FUNCTION__.9318
     /tmp/ccWlwtph.s:6588   .rodata.__FUNCTION__.9464:00000000 __FUNCTION__.9464
     /tmp/ccWlwtph.s:6594   .rodata.__FUNCTION__.9510:00000000 __FUNCTION__.9510
     /tmp/ccWlwtph.s:6600   .rodata.__FUNCTION__.9207:00000000 __FUNCTION__.9207
     /tmp/ccWlwtph.s:6606   .rodata.__FUNCTION__.9288:00000000 __FUNCTION__.9288
     /tmp/ccWlwtph.s:6612   .rodata.__FUNCTION__.9333:00000000 __FUNCTION__.9333
     /tmp/ccWlwtph.s:6618   .rodata.__FUNCTION__.9235:00000000 __FUNCTION__.9235
     /tmp/ccWlwtph.s:6624   .rodata.__FUNCTION__.9479:00000000 __FUNCTION__.9479
     /tmp/ccWlwtph.s:6627   .bss.i2c_rx_data.9501:00000000 $d
     /tmp/ccWlwtph.s:6631   .bss.i2c_rx_data.9501:00000000 i2c_rx_data.9501
     /tmp/ccWlwtph.s:6637   .rodata.__FUNCTION__.9278:00000000 __FUNCTION__.9278
     /tmp/ccWlwtph.s:6643   .rodata.__FUNCTION__.9492:00000000 __FUNCTION__.9492
     /tmp/ccWlwtph.s:6649   .rodata.__FUNCTION__.9348:00000000 __FUNCTION__.9348
     /tmp/ccWlwtph.s:6769   .rodata.__FUNCTION__.9361:00000000 __FUNCTION__.9361
     /tmp/ccWlwtph.s:6772   .bss.rx_len.9502:00000000 $d
     /tmp/ccWlwtph.s:6776   .bss.rx_len.9502:00000000 rx_len.9502
     /tmp/ccWlwtph.s:6782   .rodata.__FUNCTION__.9410:00000000 __FUNCTION__.9410
     /tmp/ccWlwtph.s:6788   .rodata.__FUNCTION__.9186:00000000 __FUNCTION__.9186
     /tmp/ccWlwtph.s:6794   .rodata.__FUNCTION__.9547:00000000 __FUNCTION__.9547
     /tmp/ccWlwtph.s:6800   .rodata.__FUNCTION__.9420:00000000 __FUNCTION__.9420
     /tmp/ccWlwtph.s:6806   .rodata.__FUNCTION__.9242:00000000 __FUNCTION__.9242
     /tmp/ccWlwtph.s:6812   .rodata.__FUNCTION__.9566:00000000 __FUNCTION__.9566
     /tmp/ccWlwtph.s:6818   .rodata.__FUNCTION__.9393:00000000 __FUNCTION__.9393
     /tmp/ccWlwtph.s:6824   .rodata.__FUNCTION__.9249:00000000 __FUNCTION__.9249
     /tmp/ccWlwtph.s:6830   .rodata.__FUNCTION__.9255:00000000 __FUNCTION__.9255
     /tmp/ccWlwtph.s:6836   .rodata.__FUNCTION__.9303:00000000 __FUNCTION__.9303
     /tmp/ccWlwtph.s:6842   .rodata.__FUNCTION__.9376:00000000 __FUNCTION__.9376
     /tmp/ccWlwtph.s:6848   .rodata.__FUNCTION__.9446:00000000 __FUNCTION__.9446
     /tmp/ccWlwtph.s:6854   .rodata.__FUNCTION__.9519:00000000 __FUNCTION__.9519
                     .debug_frame:00000010 $d

UNDEFINED SYMBOLS
pvPortMalloc1
slogf
xQueueGenericReceive
xQueueGenericSend
idx_to_object
light_system
__popcountsi2
ucid_hires_hdl
cam_ctrl_stream
rx_end_flag
vTaskDelay
ucid_preview_hdl
memcpy
lcc_cmd_log_pull
lcc_cmd_log_delete_tid
memset
object_to_cam_bitmask
assert_failed
malloc_failed
i2cm
vPortFree1
__aeabi_f2d
vTaskSuspendAll
hal_i2c_set_speed
xTaskResumeAll
i2c_write_delay_sec_asic1
i2c_write_delay_sec_asic23
hal_i2c_get_speed
