   1              		.syntax unified
   2              		.cpu cortex-r4
   3              		.fpu softvfp
   4              		.eabi_attribute 20, 1
   5              		.eabi_attribute 21, 1
   6              		.eabi_attribute 23, 3
   7              		.eabi_attribute 24, 1
   8              		.eabi_attribute 25, 1
   9              		.eabi_attribute 26, 1
  10              		.eabi_attribute 30, 4
  11              		.eabi_attribute 34, 1
  12              		.eabi_attribute 18, 4
  13              		.thumb
  14              		.file	"lightheader.pb-c.c"
  15              		.text
  16              	.Ltext0:
  17              		.cfi_sections	.debug_frame
  18              		.section	.text.ltpb__factory_device_calibration__init,"ax",%progbits
  19              		.align	1
  20              		.global	ltpb__factory_device_calibration__init
  21              		.thumb
  22              		.thumb_func
  24              	ltpb__factory_device_calibration__init:
  25              	.LFB1:
  26              		.file 1 "/home/tienluong/workspace/atlantis_fw/platform/common/lightheader/src/lightheader.pb-c.c"
   1:/home/tienluong/workspace/atlantis_fw/platform/common/lightheader/src/lightheader.pb-c.c **** /* Generated by the protocol buffer compiler.  DO NOT EDIT! */
   2:/home/tienluong/workspace/atlantis_fw/platform/common/lightheader/src/lightheader.pb-c.c **** /* Generated from: lightheader.proto */
   3:/home/tienluong/workspace/atlantis_fw/platform/common/lightheader/src/lightheader.pb-c.c **** 
   4:/home/tienluong/workspace/atlantis_fw/platform/common/lightheader/src/lightheader.pb-c.c **** /* Do not generate deprecated warnings for self */
   5:/home/tienluong/workspace/atlantis_fw/platform/common/lightheader/src/lightheader.pb-c.c **** #ifndef PROTOBUF_C__NO_DEPRECATED
   6:/home/tienluong/workspace/atlantis_fw/platform/common/lightheader/src/lightheader.pb-c.c **** #define PROTOBUF_C__NO_DEPRECATED
   7:/home/tienluong/workspace/atlantis_fw/platform/common/lightheader/src/lightheader.pb-c.c **** #endif
   8:/home/tienluong/workspace/atlantis_fw/platform/common/lightheader/src/lightheader.pb-c.c **** #include "sections.h"
   9:/home/tienluong/workspace/atlantis_fw/platform/common/lightheader/src/lightheader.pb-c.c **** #include "lightheader.pb-c.h"
  10:/home/tienluong/workspace/atlantis_fw/platform/common/lightheader/src/lightheader.pb-c.c **** LIGHT_HEADER_FUNC void   ltpb__factory_device_calibration__init
  11:/home/tienluong/workspace/atlantis_fw/platform/common/lightheader/src/lightheader.pb-c.c ****                      (Ltpb__FactoryDeviceCalibration         *message)
  12:/home/tienluong/workspace/atlantis_fw/platform/common/lightheader/src/lightheader.pb-c.c **** {
  27              		.loc 1 12 0
  28              		.cfi_startproc
  29              		@ args = 0, pretend = 0, frame = 0
  30              		@ frame_needed = 0, uses_anonymous_args = 0
  31              	.LVL0:
  32 0000 30B5     		push	{r4, r5, lr}
  33              	.LCFI0:
  34              		.cfi_def_cfa_offset 12
  35              		.cfi_offset 4, -12
  36              		.cfi_offset 5, -8
  37              		.cfi_offset 14, -4
  13:/home/tienluong/workspace/atlantis_fw/platform/common/lightheader/src/lightheader.pb-c.c ****   LIGHT_HEADER_STATIC static Ltpb__FactoryDeviceCalibration init_value = LTPB__FACTORY_DEVICE_CALIB
  14:/home/tienluong/workspace/atlantis_fw/platform/common/lightheader/src/lightheader.pb-c.c ****   *message = init_value;
  38              		.loc 1 14 0
  39 0002 044D     		ldr	r5, .L2
  40 0004 0446     		mov	r4, r0
  41 0006 0FCD     		ldmia	r5!, {r0, r1, r2, r3}
  42              	.LVL1:
  43 0008 0FC4     		stmia	r4!, {r0, r1, r2, r3}
  44              	.LVL2:
  45 000a 95E80300 		ldmia	r5, {r0, r1}
  46 000e 84E80300 		stmia	r4, {r0, r1}
  47 0012 30BD     		pop	{r4, r5, pc}
  48              	.LVL3:
  49              	.L3:
  50              		.align	2
  51              	.L2:
  52 0014 00000000 		.word	.LANCHOR0
  53              		.cfi_endproc
  54              	.LFE1:
  56              		.section	.text.ltpb__factory_module_calibration__init,"ax",%progbits
  57              		.align	1
  58              		.global	ltpb__factory_module_calibration__init
  59              		.thumb
  60              		.thumb_func
  62              	ltpb__factory_module_calibration__init:
  63              	.LFB7:
  15:/home/tienluong/workspace/atlantis_fw/platform/common/lightheader/src/lightheader.pb-c.c **** }
  16:/home/tienluong/workspace/atlantis_fw/platform/common/lightheader/src/lightheader.pb-c.c **** LIGHT_HEADER_FUNC size_t ltpb__factory_device_calibration__get_packed_size
  17:/home/tienluong/workspace/atlantis_fw/platform/common/lightheader/src/lightheader.pb-c.c ****                      (const Ltpb__FactoryDeviceCalibration *message)
  18:/home/tienluong/workspace/atlantis_fw/platform/common/lightheader/src/lightheader.pb-c.c **** {
  19:/home/tienluong/workspace/atlantis_fw/platform/common/lightheader/src/lightheader.pb-c.c ****   assert(message->base.descriptor == &ltpb__factory_device_calibration__descriptor);
  20:/home/tienluong/workspace/atlantis_fw/platform/common/lightheader/src/lightheader.pb-c.c ****   return protobuf_c_message_get_packed_size ((const ProtobufCMessage*)(message));
  21:/home/tienluong/workspace/atlantis_fw/platform/common/lightheader/src/lightheader.pb-c.c **** }
  22:/home/tienluong/workspace/atlantis_fw/platform/common/lightheader/src/lightheader.pb-c.c **** LIGHT_HEADER_FUNC size_t ltpb__factory_device_calibration__pack
  23:/home/tienluong/workspace/atlantis_fw/platform/common/lightheader/src/lightheader.pb-c.c ****                      (const Ltpb__FactoryDeviceCalibration *message,
  24:/home/tienluong/workspace/atlantis_fw/platform/common/lightheader/src/lightheader.pb-c.c ****                       uint8_t       *out)
  25:/home/tienluong/workspace/atlantis_fw/platform/common/lightheader/src/lightheader.pb-c.c **** {
  26:/home/tienluong/workspace/atlantis_fw/platform/common/lightheader/src/lightheader.pb-c.c ****   assert(message->base.descriptor == &ltpb__factory_device_calibration__descriptor);
  27:/home/tienluong/workspace/atlantis_fw/platform/common/lightheader/src/lightheader.pb-c.c ****   return protobuf_c_message_pack ((const ProtobufCMessage*)message, out);
  28:/home/tienluong/workspace/atlantis_fw/platform/common/lightheader/src/lightheader.pb-c.c **** }
  29:/home/tienluong/workspace/atlantis_fw/platform/common/lightheader/src/lightheader.pb-c.c **** LIGHT_HEADER_FUNC size_t ltpb__factory_device_calibration__pack_to_buffer
  30:/home/tienluong/workspace/atlantis_fw/platform/common/lightheader/src/lightheader.pb-c.c ****                      (const Ltpb__FactoryDeviceCalibration *message,
  31:/home/tienluong/workspace/atlantis_fw/platform/common/lightheader/src/lightheader.pb-c.c ****                       ProtobufCBuffer *buffer)
  32:/home/tienluong/workspace/atlantis_fw/platform/common/lightheader/src/lightheader.pb-c.c **** {
  33:/home/tienluong/workspace/atlantis_fw/platform/common/lightheader/src/lightheader.pb-c.c ****   assert(message->base.descriptor == &ltpb__factory_device_calibration__descriptor);
  34:/home/tienluong/workspace/atlantis_fw/platform/common/lightheader/src/lightheader.pb-c.c ****   return protobuf_c_message_pack_to_buffer ((const ProtobufCMessage*)message, buffer);
  35:/home/tienluong/workspace/atlantis_fw/platform/common/lightheader/src/lightheader.pb-c.c **** }
  36:/home/tienluong/workspace/atlantis_fw/platform/common/lightheader/src/lightheader.pb-c.c **** LIGHT_HEADER_FUNC Ltpb__FactoryDeviceCalibration *
  37:/home/tienluong/workspace/atlantis_fw/platform/common/lightheader/src/lightheader.pb-c.c ****        ltpb__factory_device_calibration__unpack
  38:/home/tienluong/workspace/atlantis_fw/platform/common/lightheader/src/lightheader.pb-c.c ****                      (ProtobufCAllocator  *allocator,
  39:/home/tienluong/workspace/atlantis_fw/platform/common/lightheader/src/lightheader.pb-c.c ****                       size_t               len,
  40:/home/tienluong/workspace/atlantis_fw/platform/common/lightheader/src/lightheader.pb-c.c ****                       const uint8_t       *data)
  41:/home/tienluong/workspace/atlantis_fw/platform/common/lightheader/src/lightheader.pb-c.c **** {
  42:/home/tienluong/workspace/atlantis_fw/platform/common/lightheader/src/lightheader.pb-c.c ****   return (Ltpb__FactoryDeviceCalibration *)
  43:/home/tienluong/workspace/atlantis_fw/platform/common/lightheader/src/lightheader.pb-c.c ****      protobuf_c_message_unpack (&ltpb__factory_device_calibration__descriptor,
  44:/home/tienluong/workspace/atlantis_fw/platform/common/lightheader/src/lightheader.pb-c.c ****                                 allocator, len, data);
  45:/home/tienluong/workspace/atlantis_fw/platform/common/lightheader/src/lightheader.pb-c.c **** }
  46:/home/tienluong/workspace/atlantis_fw/platform/common/lightheader/src/lightheader.pb-c.c **** LIGHT_HEADER_FUNC void   ltpb__factory_device_calibration__free_unpacked
  47:/home/tienluong/workspace/atlantis_fw/platform/common/lightheader/src/lightheader.pb-c.c ****                      (Ltpb__FactoryDeviceCalibration *message,
  48:/home/tienluong/workspace/atlantis_fw/platform/common/lightheader/src/lightheader.pb-c.c ****                       ProtobufCAllocator *allocator)
  49:/home/tienluong/workspace/atlantis_fw/platform/common/lightheader/src/lightheader.pb-c.c **** {
  50:/home/tienluong/workspace/atlantis_fw/platform/common/lightheader/src/lightheader.pb-c.c ****   assert(message->base.descriptor == &ltpb__factory_device_calibration__descriptor);
  51:/home/tienluong/workspace/atlantis_fw/platform/common/lightheader/src/lightheader.pb-c.c ****   protobuf_c_message_free_unpacked ((ProtobufCMessage*)message, allocator);
  52:/home/tienluong/workspace/atlantis_fw/platform/common/lightheader/src/lightheader.pb-c.c **** }
  53:/home/tienluong/workspace/atlantis_fw/platform/common/lightheader/src/lightheader.pb-c.c **** LIGHT_HEADER_FUNC void   ltpb__factory_module_calibration__init
  54:/home/tienluong/workspace/atlantis_fw/platform/common/lightheader/src/lightheader.pb-c.c ****                      (Ltpb__FactoryModuleCalibration         *message)
  55:/home/tienluong/workspace/atlantis_fw/platform/common/lightheader/src/lightheader.pb-c.c **** {
  64              		.loc 1 55 0
  65              		.cfi_startproc
  66              		@ args = 0, pretend = 0, frame = 0
  67              		@ frame_needed = 0, uses_anonymous_args = 0
  68              	.LVL4:
  69 0000 30B5     		push	{r4, r5, lr}
  70              	.LCFI1:
  71              		.cfi_def_cfa_offset 12
  72              		.cfi_offset 4, -12
  73              		.cfi_offset 5, -8
  74              		.cfi_offset 14, -4
  56:/home/tienluong/workspace/atlantis_fw/platform/common/lightheader/src/lightheader.pb-c.c ****   LIGHT_HEADER_STATIC static Ltpb__FactoryModuleCalibration init_value = LTPB__FACTORY_MODULE_CALIB
  57:/home/tienluong/workspace/atlantis_fw/platform/common/lightheader/src/lightheader.pb-c.c ****   *message = init_value;
  75              		.loc 1 57 0
  76 0002 054D     		ldr	r5, .L5
  77 0004 0446     		mov	r4, r0
  78 0006 0FCD     		ldmia	r5!, {r0, r1, r2, r3}
  79              	.LVL5:
  80 0008 0FC4     		stmia	r4!, {r0, r1, r2, r3}
  81              	.LVL6:
  82 000a 0FCD     		ldmia	r5!, {r0, r1, r2, r3}
  83 000c 0FC4     		stmia	r4!, {r0, r1, r2, r3}
  84              	.LVL7:
  85 000e 95E80700 		ldmia	r5, {r0, r1, r2}
  86 0012 84E80700 		stmia	r4, {r0, r1, r2}
  87 0016 30BD     		pop	{r4, r5, pc}
  88              	.LVL8:
  89              	.L6:
  90              		.align	2
  91              	.L5:
  92 0018 00000000 		.word	.LANCHOR1
  93              		.cfi_endproc
  94              	.LFE7:
  96              		.section	.text.ltpb__color_calibration_gold__init,"ax",%progbits
  97              		.align	1
  98              		.global	ltpb__color_calibration_gold__init
  99              		.thumb
 100              		.thumb_func
 102              	ltpb__color_calibration_gold__init:
 103              	.LFB13:
  58:/home/tienluong/workspace/atlantis_fw/platform/common/lightheader/src/lightheader.pb-c.c **** }
  59:/home/tienluong/workspace/atlantis_fw/platform/common/lightheader/src/lightheader.pb-c.c **** LIGHT_HEADER_FUNC size_t ltpb__factory_module_calibration__get_packed_size
  60:/home/tienluong/workspace/atlantis_fw/platform/common/lightheader/src/lightheader.pb-c.c ****                      (const Ltpb__FactoryModuleCalibration *message)
  61:/home/tienluong/workspace/atlantis_fw/platform/common/lightheader/src/lightheader.pb-c.c **** {
  62:/home/tienluong/workspace/atlantis_fw/platform/common/lightheader/src/lightheader.pb-c.c ****   assert(message->base.descriptor == &ltpb__factory_module_calibration__descriptor);
  63:/home/tienluong/workspace/atlantis_fw/platform/common/lightheader/src/lightheader.pb-c.c ****   return protobuf_c_message_get_packed_size ((const ProtobufCMessage*)(message));
  64:/home/tienluong/workspace/atlantis_fw/platform/common/lightheader/src/lightheader.pb-c.c **** }
  65:/home/tienluong/workspace/atlantis_fw/platform/common/lightheader/src/lightheader.pb-c.c **** LIGHT_HEADER_FUNC size_t ltpb__factory_module_calibration__pack
  66:/home/tienluong/workspace/atlantis_fw/platform/common/lightheader/src/lightheader.pb-c.c ****                      (const Ltpb__FactoryModuleCalibration *message,
  67:/home/tienluong/workspace/atlantis_fw/platform/common/lightheader/src/lightheader.pb-c.c ****                       uint8_t       *out)
  68:/home/tienluong/workspace/atlantis_fw/platform/common/lightheader/src/lightheader.pb-c.c **** {
  69:/home/tienluong/workspace/atlantis_fw/platform/common/lightheader/src/lightheader.pb-c.c ****   assert(message->base.descriptor == &ltpb__factory_module_calibration__descriptor);
  70:/home/tienluong/workspace/atlantis_fw/platform/common/lightheader/src/lightheader.pb-c.c ****   return protobuf_c_message_pack ((const ProtobufCMessage*)message, out);
  71:/home/tienluong/workspace/atlantis_fw/platform/common/lightheader/src/lightheader.pb-c.c **** }
  72:/home/tienluong/workspace/atlantis_fw/platform/common/lightheader/src/lightheader.pb-c.c **** LIGHT_HEADER_FUNC size_t ltpb__factory_module_calibration__pack_to_buffer
  73:/home/tienluong/workspace/atlantis_fw/platform/common/lightheader/src/lightheader.pb-c.c ****                      (const Ltpb__FactoryModuleCalibration *message,
  74:/home/tienluong/workspace/atlantis_fw/platform/common/lightheader/src/lightheader.pb-c.c ****                       ProtobufCBuffer *buffer)
  75:/home/tienluong/workspace/atlantis_fw/platform/common/lightheader/src/lightheader.pb-c.c **** {
  76:/home/tienluong/workspace/atlantis_fw/platform/common/lightheader/src/lightheader.pb-c.c ****   assert(message->base.descriptor == &ltpb__factory_module_calibration__descriptor);
  77:/home/tienluong/workspace/atlantis_fw/platform/common/lightheader/src/lightheader.pb-c.c ****   return protobuf_c_message_pack_to_buffer ((const ProtobufCMessage*)message, buffer);
  78:/home/tienluong/workspace/atlantis_fw/platform/common/lightheader/src/lightheader.pb-c.c **** }
  79:/home/tienluong/workspace/atlantis_fw/platform/common/lightheader/src/lightheader.pb-c.c **** LIGHT_HEADER_FUNC Ltpb__FactoryModuleCalibration *
  80:/home/tienluong/workspace/atlantis_fw/platform/common/lightheader/src/lightheader.pb-c.c ****        ltpb__factory_module_calibration__unpack
  81:/home/tienluong/workspace/atlantis_fw/platform/common/lightheader/src/lightheader.pb-c.c ****                      (ProtobufCAllocator  *allocator,
  82:/home/tienluong/workspace/atlantis_fw/platform/common/lightheader/src/lightheader.pb-c.c ****                       size_t               len,
  83:/home/tienluong/workspace/atlantis_fw/platform/common/lightheader/src/lightheader.pb-c.c ****                       const uint8_t       *data)
  84:/home/tienluong/workspace/atlantis_fw/platform/common/lightheader/src/lightheader.pb-c.c **** {
  85:/home/tienluong/workspace/atlantis_fw/platform/common/lightheader/src/lightheader.pb-c.c ****   return (Ltpb__FactoryModuleCalibration *)
  86:/home/tienluong/workspace/atlantis_fw/platform/common/lightheader/src/lightheader.pb-c.c ****      protobuf_c_message_unpack (&ltpb__factory_module_calibration__descriptor,
  87:/home/tienluong/workspace/atlantis_fw/platform/common/lightheader/src/lightheader.pb-c.c ****                                 allocator, len, data);
  88:/home/tienluong/workspace/atlantis_fw/platform/common/lightheader/src/lightheader.pb-c.c **** }
  89:/home/tienluong/workspace/atlantis_fw/platform/common/lightheader/src/lightheader.pb-c.c **** LIGHT_HEADER_FUNC void   ltpb__factory_module_calibration__free_unpacked
  90:/home/tienluong/workspace/atlantis_fw/platform/common/lightheader/src/lightheader.pb-c.c ****                      (Ltpb__FactoryModuleCalibration *message,
  91:/home/tienluong/workspace/atlantis_fw/platform/common/lightheader/src/lightheader.pb-c.c ****                       ProtobufCAllocator *allocator)
  92:/home/tienluong/workspace/atlantis_fw/platform/common/lightheader/src/lightheader.pb-c.c **** {
  93:/home/tienluong/workspace/atlantis_fw/platform/common/lightheader/src/lightheader.pb-c.c ****   assert(message->base.descriptor == &ltpb__factory_module_calibration__descriptor);
  94:/home/tienluong/workspace/atlantis_fw/platform/common/lightheader/src/lightheader.pb-c.c ****   protobuf_c_message_free_unpacked ((ProtobufCMessage*)message, allocator);
  95:/home/tienluong/workspace/atlantis_fw/platform/common/lightheader/src/lightheader.pb-c.c **** }
  96:/home/tienluong/workspace/atlantis_fw/platform/common/lightheader/src/lightheader.pb-c.c **** LIGHT_HEADER_FUNC void   ltpb__color_calibration_gold__init
  97:/home/tienluong/workspace/atlantis_fw/platform/common/lightheader/src/lightheader.pb-c.c ****                      (Ltpb__ColorCalibrationGold         *message)
  98:/home/tienluong/workspace/atlantis_fw/platform/common/lightheader/src/lightheader.pb-c.c **** {
 104              		.loc 1 98 0
 105              		.cfi_startproc
 106              		@ args = 0, pretend = 0, frame = 0
 107              		@ frame_needed = 0, uses_anonymous_args = 0
 108              	.LVL9:
 109 0000 30B5     		push	{r4, r5, lr}
 110              	.LCFI2:
 111              		.cfi_def_cfa_offset 12
 112              		.cfi_offset 4, -12
 113              		.cfi_offset 5, -8
 114              		.cfi_offset 14, -4
  99:/home/tienluong/workspace/atlantis_fw/platform/common/lightheader/src/lightheader.pb-c.c ****   LIGHT_HEADER_STATIC static Ltpb__ColorCalibrationGold init_value = LTPB__COLOR_CALIBRATION_GOLD__
 100:/home/tienluong/workspace/atlantis_fw/platform/common/lightheader/src/lightheader.pb-c.c ****   *message = init_value;
 115              		.loc 1 100 0
 116 0002 044D     		ldr	r5, .L8
 117 0004 0446     		mov	r4, r0
 118 0006 0FCD     		ldmia	r5!, {r0, r1, r2, r3}
 119              	.LVL10:
 120 0008 0FC4     		stmia	r4!, {r0, r1, r2, r3}
 121              	.LVL11:
 122 000a 95E80700 		ldmia	r5, {r0, r1, r2}
 123 000e 84E80700 		stmia	r4, {r0, r1, r2}
 124 0012 30BD     		pop	{r4, r5, pc}
 125              	.LVL12:
 126              	.L9:
 127              		.align	2
 128              	.L8:
 129 0014 00000000 		.word	.LANCHOR2
 130              		.cfi_endproc
 131              	.LFE13:
 133              		.section	.text.ltpb__sensor_data__init,"ax",%progbits
 134              		.align	1
 135              		.global	ltpb__sensor_data__init
 136              		.thumb
 137              		.thumb_func
 139              	ltpb__sensor_data__init:
 140              	.LFB19:
 101:/home/tienluong/workspace/atlantis_fw/platform/common/lightheader/src/lightheader.pb-c.c **** }
 102:/home/tienluong/workspace/atlantis_fw/platform/common/lightheader/src/lightheader.pb-c.c **** LIGHT_HEADER_FUNC size_t ltpb__color_calibration_gold__get_packed_size
 103:/home/tienluong/workspace/atlantis_fw/platform/common/lightheader/src/lightheader.pb-c.c ****                      (const Ltpb__ColorCalibrationGold *message)
 104:/home/tienluong/workspace/atlantis_fw/platform/common/lightheader/src/lightheader.pb-c.c **** {
 105:/home/tienluong/workspace/atlantis_fw/platform/common/lightheader/src/lightheader.pb-c.c ****   assert(message->base.descriptor == &ltpb__color_calibration_gold__descriptor);
 106:/home/tienluong/workspace/atlantis_fw/platform/common/lightheader/src/lightheader.pb-c.c ****   return protobuf_c_message_get_packed_size ((const ProtobufCMessage*)(message));
 107:/home/tienluong/workspace/atlantis_fw/platform/common/lightheader/src/lightheader.pb-c.c **** }
 108:/home/tienluong/workspace/atlantis_fw/platform/common/lightheader/src/lightheader.pb-c.c **** LIGHT_HEADER_FUNC size_t ltpb__color_calibration_gold__pack
 109:/home/tienluong/workspace/atlantis_fw/platform/common/lightheader/src/lightheader.pb-c.c ****                      (const Ltpb__ColorCalibrationGold *message,
 110:/home/tienluong/workspace/atlantis_fw/platform/common/lightheader/src/lightheader.pb-c.c ****                       uint8_t       *out)
 111:/home/tienluong/workspace/atlantis_fw/platform/common/lightheader/src/lightheader.pb-c.c **** {
 112:/home/tienluong/workspace/atlantis_fw/platform/common/lightheader/src/lightheader.pb-c.c ****   assert(message->base.descriptor == &ltpb__color_calibration_gold__descriptor);
 113:/home/tienluong/workspace/atlantis_fw/platform/common/lightheader/src/lightheader.pb-c.c ****   return protobuf_c_message_pack ((const ProtobufCMessage*)message, out);
 114:/home/tienluong/workspace/atlantis_fw/platform/common/lightheader/src/lightheader.pb-c.c **** }
 115:/home/tienluong/workspace/atlantis_fw/platform/common/lightheader/src/lightheader.pb-c.c **** LIGHT_HEADER_FUNC size_t ltpb__color_calibration_gold__pack_to_buffer
 116:/home/tienluong/workspace/atlantis_fw/platform/common/lightheader/src/lightheader.pb-c.c ****                      (const Ltpb__ColorCalibrationGold *message,
 117:/home/tienluong/workspace/atlantis_fw/platform/common/lightheader/src/lightheader.pb-c.c ****                       ProtobufCBuffer *buffer)
 118:/home/tienluong/workspace/atlantis_fw/platform/common/lightheader/src/lightheader.pb-c.c **** {
 119:/home/tienluong/workspace/atlantis_fw/platform/common/lightheader/src/lightheader.pb-c.c ****   assert(message->base.descriptor == &ltpb__color_calibration_gold__descriptor);
 120:/home/tienluong/workspace/atlantis_fw/platform/common/lightheader/src/lightheader.pb-c.c ****   return protobuf_c_message_pack_to_buffer ((const ProtobufCMessage*)message, buffer);
 121:/home/tienluong/workspace/atlantis_fw/platform/common/lightheader/src/lightheader.pb-c.c **** }
 122:/home/tienluong/workspace/atlantis_fw/platform/common/lightheader/src/lightheader.pb-c.c **** LIGHT_HEADER_FUNC Ltpb__ColorCalibrationGold *
 123:/home/tienluong/workspace/atlantis_fw/platform/common/lightheader/src/lightheader.pb-c.c ****        ltpb__color_calibration_gold__unpack
 124:/home/tienluong/workspace/atlantis_fw/platform/common/lightheader/src/lightheader.pb-c.c ****                      (ProtobufCAllocator  *allocator,
 125:/home/tienluong/workspace/atlantis_fw/platform/common/lightheader/src/lightheader.pb-c.c ****                       size_t               len,
 126:/home/tienluong/workspace/atlantis_fw/platform/common/lightheader/src/lightheader.pb-c.c ****                       const uint8_t       *data)
 127:/home/tienluong/workspace/atlantis_fw/platform/common/lightheader/src/lightheader.pb-c.c **** {
 128:/home/tienluong/workspace/atlantis_fw/platform/common/lightheader/src/lightheader.pb-c.c ****   return (Ltpb__ColorCalibrationGold *)
 129:/home/tienluong/workspace/atlantis_fw/platform/common/lightheader/src/lightheader.pb-c.c ****      protobuf_c_message_unpack (&ltpb__color_calibration_gold__descriptor,
 130:/home/tienluong/workspace/atlantis_fw/platform/common/lightheader/src/lightheader.pb-c.c ****                                 allocator, len, data);
 131:/home/tienluong/workspace/atlantis_fw/platform/common/lightheader/src/lightheader.pb-c.c **** }
 132:/home/tienluong/workspace/atlantis_fw/platform/common/lightheader/src/lightheader.pb-c.c **** LIGHT_HEADER_FUNC void   ltpb__color_calibration_gold__free_unpacked
 133:/home/tienluong/workspace/atlantis_fw/platform/common/lightheader/src/lightheader.pb-c.c ****                      (Ltpb__ColorCalibrationGold *message,
 134:/home/tienluong/workspace/atlantis_fw/platform/common/lightheader/src/lightheader.pb-c.c ****                       ProtobufCAllocator *allocator)
 135:/home/tienluong/workspace/atlantis_fw/platform/common/lightheader/src/lightheader.pb-c.c **** {
 136:/home/tienluong/workspace/atlantis_fw/platform/common/lightheader/src/lightheader.pb-c.c ****   assert(message->base.descriptor == &ltpb__color_calibration_gold__descriptor);
 137:/home/tienluong/workspace/atlantis_fw/platform/common/lightheader/src/lightheader.pb-c.c ****   protobuf_c_message_free_unpacked ((ProtobufCMessage*)message, allocator);
 138:/home/tienluong/workspace/atlantis_fw/platform/common/lightheader/src/lightheader.pb-c.c **** }
 139:/home/tienluong/workspace/atlantis_fw/platform/common/lightheader/src/lightheader.pb-c.c **** LIGHT_HEADER_FUNC void   ltpb__sensor_data__init
 140:/home/tienluong/workspace/atlantis_fw/platform/common/lightheader/src/lightheader.pb-c.c ****                      (Ltpb__SensorData         *message)
 141:/home/tienluong/workspace/atlantis_fw/platform/common/lightheader/src/lightheader.pb-c.c **** {
 141              		.loc 1 141 0
 142              		.cfi_startproc
 143              		@ args = 0, pretend = 0, frame = 0
 144              		@ frame_needed = 0, uses_anonymous_args = 0
 145              	.LVL13:
 146 0000 30B5     		push	{r4, r5, lr}
 147              	.LCFI3:
 148              		.cfi_def_cfa_offset 12
 149              		.cfi_offset 4, -12
 150              		.cfi_offset 5, -8
 151              		.cfi_offset 14, -4
 142:/home/tienluong/workspace/atlantis_fw/platform/common/lightheader/src/lightheader.pb-c.c ****   LIGHT_HEADER_STATIC static Ltpb__SensorData init_value = LTPB__SENSOR_DATA__INIT;
 143:/home/tienluong/workspace/atlantis_fw/platform/common/lightheader/src/lightheader.pb-c.c ****   *message = init_value;
 152              		.loc 1 143 0
 153 0002 044D     		ldr	r5, .L11
 154 0004 0446     		mov	r4, r0
 155 0006 0FCD     		ldmia	r5!, {r0, r1, r2, r3}
 156              	.LVL14:
 157 0008 0FC4     		stmia	r4!, {r0, r1, r2, r3}
 158              	.LVL15:
 159 000a 95E80300 		ldmia	r5, {r0, r1}
 160 000e 84E80300 		stmia	r4, {r0, r1}
 161 0012 30BD     		pop	{r4, r5, pc}
 162              	.LVL16:
 163              	.L12:
 164              		.align	2
 165              	.L11:
 166 0014 00000000 		.word	.LANCHOR3
 167              		.cfi_endproc
 168              	.LFE19:
 170              		.section	.text.ltpb__light_header__init,"ax",%progbits
 171              		.align	1
 172              		.global	ltpb__light_header__init
 173              		.thumb
 174              		.thumb_func
 176              	ltpb__light_header__init:
 177              	.LFB25:
 144:/home/tienluong/workspace/atlantis_fw/platform/common/lightheader/src/lightheader.pb-c.c **** }
 145:/home/tienluong/workspace/atlantis_fw/platform/common/lightheader/src/lightheader.pb-c.c **** LIGHT_HEADER_FUNC size_t ltpb__sensor_data__get_packed_size
 146:/home/tienluong/workspace/atlantis_fw/platform/common/lightheader/src/lightheader.pb-c.c ****                      (const Ltpb__SensorData *message)
 147:/home/tienluong/workspace/atlantis_fw/platform/common/lightheader/src/lightheader.pb-c.c **** {
 148:/home/tienluong/workspace/atlantis_fw/platform/common/lightheader/src/lightheader.pb-c.c ****   assert(message->base.descriptor == &ltpb__sensor_data__descriptor);
 149:/home/tienluong/workspace/atlantis_fw/platform/common/lightheader/src/lightheader.pb-c.c ****   return protobuf_c_message_get_packed_size ((const ProtobufCMessage*)(message));
 150:/home/tienluong/workspace/atlantis_fw/platform/common/lightheader/src/lightheader.pb-c.c **** }
 151:/home/tienluong/workspace/atlantis_fw/platform/common/lightheader/src/lightheader.pb-c.c **** LIGHT_HEADER_FUNC size_t ltpb__sensor_data__pack
 152:/home/tienluong/workspace/atlantis_fw/platform/common/lightheader/src/lightheader.pb-c.c ****                      (const Ltpb__SensorData *message,
 153:/home/tienluong/workspace/atlantis_fw/platform/common/lightheader/src/lightheader.pb-c.c ****                       uint8_t       *out)
 154:/home/tienluong/workspace/atlantis_fw/platform/common/lightheader/src/lightheader.pb-c.c **** {
 155:/home/tienluong/workspace/atlantis_fw/platform/common/lightheader/src/lightheader.pb-c.c ****   assert(message->base.descriptor == &ltpb__sensor_data__descriptor);
 156:/home/tienluong/workspace/atlantis_fw/platform/common/lightheader/src/lightheader.pb-c.c ****   return protobuf_c_message_pack ((const ProtobufCMessage*)message, out);
 157:/home/tienluong/workspace/atlantis_fw/platform/common/lightheader/src/lightheader.pb-c.c **** }
 158:/home/tienluong/workspace/atlantis_fw/platform/common/lightheader/src/lightheader.pb-c.c **** LIGHT_HEADER_FUNC size_t ltpb__sensor_data__pack_to_buffer
 159:/home/tienluong/workspace/atlantis_fw/platform/common/lightheader/src/lightheader.pb-c.c ****                      (const Ltpb__SensorData *message,
 160:/home/tienluong/workspace/atlantis_fw/platform/common/lightheader/src/lightheader.pb-c.c ****                       ProtobufCBuffer *buffer)
 161:/home/tienluong/workspace/atlantis_fw/platform/common/lightheader/src/lightheader.pb-c.c **** {
 162:/home/tienluong/workspace/atlantis_fw/platform/common/lightheader/src/lightheader.pb-c.c ****   assert(message->base.descriptor == &ltpb__sensor_data__descriptor);
 163:/home/tienluong/workspace/atlantis_fw/platform/common/lightheader/src/lightheader.pb-c.c ****   return protobuf_c_message_pack_to_buffer ((const ProtobufCMessage*)message, buffer);
 164:/home/tienluong/workspace/atlantis_fw/platform/common/lightheader/src/lightheader.pb-c.c **** }
 165:/home/tienluong/workspace/atlantis_fw/platform/common/lightheader/src/lightheader.pb-c.c **** LIGHT_HEADER_FUNC Ltpb__SensorData *
 166:/home/tienluong/workspace/atlantis_fw/platform/common/lightheader/src/lightheader.pb-c.c ****        ltpb__sensor_data__unpack
 167:/home/tienluong/workspace/atlantis_fw/platform/common/lightheader/src/lightheader.pb-c.c ****                      (ProtobufCAllocator  *allocator,
 168:/home/tienluong/workspace/atlantis_fw/platform/common/lightheader/src/lightheader.pb-c.c ****                       size_t               len,
 169:/home/tienluong/workspace/atlantis_fw/platform/common/lightheader/src/lightheader.pb-c.c ****                       const uint8_t       *data)
 170:/home/tienluong/workspace/atlantis_fw/platform/common/lightheader/src/lightheader.pb-c.c **** {
 171:/home/tienluong/workspace/atlantis_fw/platform/common/lightheader/src/lightheader.pb-c.c ****   return (Ltpb__SensorData *)
 172:/home/tienluong/workspace/atlantis_fw/platform/common/lightheader/src/lightheader.pb-c.c ****      protobuf_c_message_unpack (&ltpb__sensor_data__descriptor,
 173:/home/tienluong/workspace/atlantis_fw/platform/common/lightheader/src/lightheader.pb-c.c ****                                 allocator, len, data);
 174:/home/tienluong/workspace/atlantis_fw/platform/common/lightheader/src/lightheader.pb-c.c **** }
 175:/home/tienluong/workspace/atlantis_fw/platform/common/lightheader/src/lightheader.pb-c.c **** LIGHT_HEADER_FUNC void   ltpb__sensor_data__free_unpacked
 176:/home/tienluong/workspace/atlantis_fw/platform/common/lightheader/src/lightheader.pb-c.c ****                      (Ltpb__SensorData *message,
 177:/home/tienluong/workspace/atlantis_fw/platform/common/lightheader/src/lightheader.pb-c.c ****                       ProtobufCAllocator *allocator)
 178:/home/tienluong/workspace/atlantis_fw/platform/common/lightheader/src/lightheader.pb-c.c **** {
 179:/home/tienluong/workspace/atlantis_fw/platform/common/lightheader/src/lightheader.pb-c.c ****   assert(message->base.descriptor == &ltpb__sensor_data__descriptor);
 180:/home/tienluong/workspace/atlantis_fw/platform/common/lightheader/src/lightheader.pb-c.c ****   protobuf_c_message_free_unpacked ((ProtobufCMessage*)message, allocator);
 181:/home/tienluong/workspace/atlantis_fw/platform/common/lightheader/src/lightheader.pb-c.c **** }
 182:/home/tienluong/workspace/atlantis_fw/platform/common/lightheader/src/lightheader.pb-c.c **** LIGHT_HEADER_FUNC void   ltpb__light_header__init
 183:/home/tienluong/workspace/atlantis_fw/platform/common/lightheader/src/lightheader.pb-c.c ****                      (Ltpb__LightHeader         *message)
 184:/home/tienluong/workspace/atlantis_fw/platform/common/lightheader/src/lightheader.pb-c.c **** {
 178              		.loc 1 184 0
 179              		.cfi_startproc
 180              		@ args = 0, pretend = 0, frame = 0
 181              		@ frame_needed = 0, uses_anonymous_args = 0
 182              	.LVL17:
 183 0000 08B5     		push	{r3, lr}
 184              	.LCFI4:
 185              		.cfi_def_cfa_offset 8
 186              		.cfi_offset 3, -8
 187              		.cfi_offset 14, -4
 185:/home/tienluong/workspace/atlantis_fw/platform/common/lightheader/src/lightheader.pb-c.c ****   LIGHT_HEADER_STATIC static Ltpb__LightHeader init_value = LTPB__LIGHT_HEADER__INIT;
 186:/home/tienluong/workspace/atlantis_fw/platform/common/lightheader/src/lightheader.pb-c.c ****   *message = init_value;
 188              		.loc 1 186 0
 189 0002 0249     		ldr	r1, .L14
 190 0004 A822     		movs	r2, #168
 191 0006 024B     		ldr	r3, .L14+4
 192 0008 9847     		blx	r3
 193              	.LVL18:
 194 000a 08BD     		pop	{r3, pc}
 195              	.L15:
 196              		.align	2
 197              	.L14:
 198 000c 00000000 		.word	.LANCHOR4
 199 0010 00000000 		.word	memcpy
 200              		.cfi_endproc
 201              	.LFE25:
 203              		.section	.text.ltpb__factory_device_calibration__get_packed_size,"ax",%progbits
 204              		.align	1
 205              		.global	ltpb__factory_device_calibration__get_packed_size
 206              		.thumb
 207              		.thumb_func
 209              	ltpb__factory_device_calibration__get_packed_size:
 210              	.LFB2:
  18:/home/tienluong/workspace/atlantis_fw/platform/common/lightheader/src/lightheader.pb-c.c ****   assert(message->base.descriptor == &ltpb__factory_device_calibration__descriptor);
 211              		.loc 1 18 0
 212              		.cfi_startproc
 213              		@ args = 0, pretend = 0, frame = 0
 214              		@ frame_needed = 0, uses_anonymous_args = 0
 215              	.LVL19:
  19:/home/tienluong/workspace/atlantis_fw/platform/common/lightheader/src/lightheader.pb-c.c ****   return protobuf_c_message_get_packed_size ((const ProtobufCMessage*)(message));
 216              		.loc 1 19 0
 217 0000 0268     		ldr	r2, [r0]
 218 0002 064B     		ldr	r3, .L19
  18:/home/tienluong/workspace/atlantis_fw/platform/common/lightheader/src/lightheader.pb-c.c ****   assert(message->base.descriptor == &ltpb__factory_device_calibration__descriptor);
 219              		.loc 1 18 0
 220 0004 10B5     		push	{r4, lr}
 221              	.LCFI5:
 222              		.cfi_def_cfa_offset 8
 223              		.cfi_offset 4, -8
 224              		.cfi_offset 14, -4
  19:/home/tienluong/workspace/atlantis_fw/platform/common/lightheader/src/lightheader.pb-c.c ****   return protobuf_c_message_get_packed_size ((const ProtobufCMessage*)(message));
 225              		.loc 1 19 0
 226 0006 9A42     		cmp	r2, r3
  18:/home/tienluong/workspace/atlantis_fw/platform/common/lightheader/src/lightheader.pb-c.c ****   assert(message->base.descriptor == &ltpb__factory_device_calibration__descriptor);
 227              		.loc 1 18 0
 228 0008 0446     		mov	r4, r0
  19:/home/tienluong/workspace/atlantis_fw/platform/common/lightheader/src/lightheader.pb-c.c ****   return protobuf_c_message_get_packed_size ((const ProtobufCMessage*)(message));
 229              		.loc 1 19 0
 230 000a 03D0     		beq	.L17
  19:/home/tienluong/workspace/atlantis_fw/platform/common/lightheader/src/lightheader.pb-c.c ****   return protobuf_c_message_get_packed_size ((const ProtobufCMessage*)(message));
 231              		.loc 1 19 0 is_stmt 0 discriminator 1
 232 000c 0448     		ldr	r0, .L19+4
 233              	.LVL20:
 234 000e 1321     		movs	r1, #19
 235 0010 044B     		ldr	r3, .L19+8
 236 0012 9847     		blx	r3
 237              	.LVL21:
 238              	.L17:
  20:/home/tienluong/workspace/atlantis_fw/platform/common/lightheader/src/lightheader.pb-c.c **** }
 239              		.loc 1 20 0 is_stmt 1
 240 0014 2046     		mov	r0, r4
 241 0016 044B     		ldr	r3, .L19+12
 242 0018 9847     		blx	r3
 243              	.LVL22:
  21:/home/tienluong/workspace/atlantis_fw/platform/common/lightheader/src/lightheader.pb-c.c **** LIGHT_HEADER_FUNC size_t ltpb__factory_device_calibration__pack
 244              		.loc 1 21 0
 245 001a 10BD     		pop	{r4, pc}
 246              	.LVL23:
 247              	.L20:
 248              		.align	2
 249              	.L19:
 250 001c 00000000 		.word	.LANCHOR5
 251 0020 00000000 		.word	.LANCHOR6
 252 0024 00000000 		.word	assert_failed
 253 0028 00000000 		.word	protobuf_c_message_get_packed_size
 254              		.cfi_endproc
 255              	.LFE2:
 257              		.section	.text.ltpb__factory_device_calibration__pack,"ax",%progbits
 258              		.align	1
 259              		.global	ltpb__factory_device_calibration__pack
 260              		.thumb
 261              		.thumb_func
 263              	ltpb__factory_device_calibration__pack:
 264              	.LFB3:
  25:/home/tienluong/workspace/atlantis_fw/platform/common/lightheader/src/lightheader.pb-c.c ****   assert(message->base.descriptor == &ltpb__factory_device_calibration__descriptor);
 265              		.loc 1 25 0
 266              		.cfi_startproc
 267              		@ args = 0, pretend = 0, frame = 0
 268              		@ frame_needed = 0, uses_anonymous_args = 0
 269              	.LVL24:
 270 0000 38B5     		push	{r3, r4, r5, lr}
 271              	.LCFI6:
 272              		.cfi_def_cfa_offset 16
 273              		.cfi_offset 3, -16
 274              		.cfi_offset 4, -12
 275              		.cfi_offset 5, -8
 276              		.cfi_offset 14, -4
  26:/home/tienluong/workspace/atlantis_fw/platform/common/lightheader/src/lightheader.pb-c.c ****   return protobuf_c_message_pack ((const ProtobufCMessage*)message, out);
 277              		.loc 1 26 0
 278 0002 0268     		ldr	r2, [r0]
  25:/home/tienluong/workspace/atlantis_fw/platform/common/lightheader/src/lightheader.pb-c.c ****   assert(message->base.descriptor == &ltpb__factory_device_calibration__descriptor);
 279              		.loc 1 25 0
 280 0004 0446     		mov	r4, r0
  26:/home/tienluong/workspace/atlantis_fw/platform/common/lightheader/src/lightheader.pb-c.c ****   return protobuf_c_message_pack ((const ProtobufCMessage*)message, out);
 281              		.loc 1 26 0
 282 0006 064B     		ldr	r3, .L23
  25:/home/tienluong/workspace/atlantis_fw/platform/common/lightheader/src/lightheader.pb-c.c ****   assert(message->base.descriptor == &ltpb__factory_device_calibration__descriptor);
 283              		.loc 1 25 0
 284 0008 0D46     		mov	r5, r1
  26:/home/tienluong/workspace/atlantis_fw/platform/common/lightheader/src/lightheader.pb-c.c ****   return protobuf_c_message_pack ((const ProtobufCMessage*)message, out);
 285              		.loc 1 26 0
 286 000a 9A42     		cmp	r2, r3
 287 000c 03D0     		beq	.L22
  26:/home/tienluong/workspace/atlantis_fw/platform/common/lightheader/src/lightheader.pb-c.c ****   return protobuf_c_message_pack ((const ProtobufCMessage*)message, out);
 288              		.loc 1 26 0 is_stmt 0 discriminator 1
 289 000e 0548     		ldr	r0, .L23+4
 290              	.LVL25:
 291 0010 1A21     		movs	r1, #26
 292              	.LVL26:
 293 0012 054B     		ldr	r3, .L23+8
 294 0014 9847     		blx	r3
 295              	.LVL27:
 296              	.L22:
  27:/home/tienluong/workspace/atlantis_fw/platform/common/lightheader/src/lightheader.pb-c.c **** }
 297              		.loc 1 27 0 is_stmt 1
 298 0016 2046     		mov	r0, r4
 299 0018 2946     		mov	r1, r5
 300 001a 044B     		ldr	r3, .L23+12
 301 001c 9847     		blx	r3
 302              	.LVL28:
  28:/home/tienluong/workspace/atlantis_fw/platform/common/lightheader/src/lightheader.pb-c.c **** LIGHT_HEADER_FUNC size_t ltpb__factory_device_calibration__pack_to_buffer
 303              		.loc 1 28 0
 304 001e 38BD     		pop	{r3, r4, r5, pc}
 305              	.LVL29:
 306              	.L24:
 307              		.align	2
 308              	.L23:
 309 0020 00000000 		.word	.LANCHOR5
 310 0024 00000000 		.word	.LANCHOR7
 311 0028 00000000 		.word	assert_failed
 312 002c 00000000 		.word	protobuf_c_message_pack
 313              		.cfi_endproc
 314              	.LFE3:
 316              		.section	.text.ltpb__factory_device_calibration__pack_to_buffer,"ax",%progbits
 317              		.align	1
 318              		.global	ltpb__factory_device_calibration__pack_to_buffer
 319              		.thumb
 320              		.thumb_func
 322              	ltpb__factory_device_calibration__pack_to_buffer:
 323              	.LFB4:
  32:/home/tienluong/workspace/atlantis_fw/platform/common/lightheader/src/lightheader.pb-c.c ****   assert(message->base.descriptor == &ltpb__factory_device_calibration__descriptor);
 324              		.loc 1 32 0
 325              		.cfi_startproc
 326              		@ args = 0, pretend = 0, frame = 0
 327              		@ frame_needed = 0, uses_anonymous_args = 0
 328              	.LVL30:
 329 0000 38B5     		push	{r3, r4, r5, lr}
 330              	.LCFI7:
 331              		.cfi_def_cfa_offset 16
 332              		.cfi_offset 3, -16
 333              		.cfi_offset 4, -12
 334              		.cfi_offset 5, -8
 335              		.cfi_offset 14, -4
  33:/home/tienluong/workspace/atlantis_fw/platform/common/lightheader/src/lightheader.pb-c.c ****   return protobuf_c_message_pack_to_buffer ((const ProtobufCMessage*)message, buffer);
 336              		.loc 1 33 0
 337 0002 0268     		ldr	r2, [r0]
  32:/home/tienluong/workspace/atlantis_fw/platform/common/lightheader/src/lightheader.pb-c.c ****   assert(message->base.descriptor == &ltpb__factory_device_calibration__descriptor);
 338              		.loc 1 32 0
 339 0004 0446     		mov	r4, r0
  33:/home/tienluong/workspace/atlantis_fw/platform/common/lightheader/src/lightheader.pb-c.c ****   return protobuf_c_message_pack_to_buffer ((const ProtobufCMessage*)message, buffer);
 340              		.loc 1 33 0
 341 0006 064B     		ldr	r3, .L27
  32:/home/tienluong/workspace/atlantis_fw/platform/common/lightheader/src/lightheader.pb-c.c ****   assert(message->base.descriptor == &ltpb__factory_device_calibration__descriptor);
 342              		.loc 1 32 0
 343 0008 0D46     		mov	r5, r1
  33:/home/tienluong/workspace/atlantis_fw/platform/common/lightheader/src/lightheader.pb-c.c ****   return protobuf_c_message_pack_to_buffer ((const ProtobufCMessage*)message, buffer);
 344              		.loc 1 33 0
 345 000a 9A42     		cmp	r2, r3
 346 000c 03D0     		beq	.L26
  33:/home/tienluong/workspace/atlantis_fw/platform/common/lightheader/src/lightheader.pb-c.c ****   return protobuf_c_message_pack_to_buffer ((const ProtobufCMessage*)message, buffer);
 347              		.loc 1 33 0 is_stmt 0 discriminator 1
 348 000e 0548     		ldr	r0, .L27+4
 349              	.LVL31:
 350 0010 2121     		movs	r1, #33
 351              	.LVL32:
 352 0012 054B     		ldr	r3, .L27+8
 353 0014 9847     		blx	r3
 354              	.LVL33:
 355              	.L26:
  34:/home/tienluong/workspace/atlantis_fw/platform/common/lightheader/src/lightheader.pb-c.c **** }
 356              		.loc 1 34 0 is_stmt 1
 357 0016 2046     		mov	r0, r4
 358 0018 2946     		mov	r1, r5
 359 001a 044B     		ldr	r3, .L27+12
 360 001c 9847     		blx	r3
 361              	.LVL34:
  35:/home/tienluong/workspace/atlantis_fw/platform/common/lightheader/src/lightheader.pb-c.c **** LIGHT_HEADER_FUNC Ltpb__FactoryDeviceCalibration *
 362              		.loc 1 35 0
 363 001e 38BD     		pop	{r3, r4, r5, pc}
 364              	.LVL35:
 365              	.L28:
 366              		.align	2
 367              	.L27:
 368 0020 00000000 		.word	.LANCHOR5
 369 0024 00000000 		.word	.LANCHOR8
 370 0028 00000000 		.word	assert_failed
 371 002c 00000000 		.word	protobuf_c_message_pack_to_buffer
 372              		.cfi_endproc
 373              	.LFE4:
 375              		.section	.text.ltpb__factory_device_calibration__unpack,"ax",%progbits
 376              		.align	1
 377              		.global	ltpb__factory_device_calibration__unpack
 378              		.thumb
 379              		.thumb_func
 381              	ltpb__factory_device_calibration__unpack:
 382              	.LFB5:
  41:/home/tienluong/workspace/atlantis_fw/platform/common/lightheader/src/lightheader.pb-c.c ****   return (Ltpb__FactoryDeviceCalibration *)
 383              		.loc 1 41 0
 384              		.cfi_startproc
 385              		@ args = 0, pretend = 0, frame = 0
 386              		@ frame_needed = 0, uses_anonymous_args = 0
 387              	.LVL36:
 388 0000 38B5     		push	{r3, r4, r5, lr}
 389              	.LCFI8:
 390              		.cfi_def_cfa_offset 16
 391              		.cfi_offset 3, -16
 392              		.cfi_offset 4, -12
 393              		.cfi_offset 5, -8
 394              		.cfi_offset 14, -4
  41:/home/tienluong/workspace/atlantis_fw/platform/common/lightheader/src/lightheader.pb-c.c ****   return (Ltpb__FactoryDeviceCalibration *)
 395              		.loc 1 41 0
 396 0002 0546     		mov	r5, r0
 397 0004 0C46     		mov	r4, r1
 398 0006 1346     		mov	r3, r2
  42:/home/tienluong/workspace/atlantis_fw/platform/common/lightheader/src/lightheader.pb-c.c ****      protobuf_c_message_unpack (&ltpb__factory_device_calibration__descriptor,
 399              		.loc 1 42 0
 400 0008 2946     		mov	r1, r5
 401              	.LVL37:
 402 000a 2246     		mov	r2, r4
 403              	.LVL38:
 404 000c 0148     		ldr	r0, .L30
 405              	.LVL39:
 406 000e 024C     		ldr	r4, .L30+4
 407              	.LVL40:
 408 0010 A047     		blx	r4
 409              	.LVL41:
  45:/home/tienluong/workspace/atlantis_fw/platform/common/lightheader/src/lightheader.pb-c.c **** LIGHT_HEADER_FUNC void   ltpb__factory_device_calibration__free_unpacked
 410              		.loc 1 45 0
 411 0012 38BD     		pop	{r3, r4, r5, pc}
 412              	.LVL42:
 413              	.L31:
 414              		.align	2
 415              	.L30:
 416 0014 00000000 		.word	.LANCHOR5
 417 0018 00000000 		.word	protobuf_c_message_unpack
 418              		.cfi_endproc
 419              	.LFE5:
 421              		.section	.text.ltpb__factory_device_calibration__free_unpacked,"ax",%progbits
 422              		.align	1
 423              		.global	ltpb__factory_device_calibration__free_unpacked
 424              		.thumb
 425              		.thumb_func
 427              	ltpb__factory_device_calibration__free_unpacked:
 428              	.LFB6:
  49:/home/tienluong/workspace/atlantis_fw/platform/common/lightheader/src/lightheader.pb-c.c ****   assert(message->base.descriptor == &ltpb__factory_device_calibration__descriptor);
 429              		.loc 1 49 0
 430              		.cfi_startproc
 431              		@ args = 0, pretend = 0, frame = 0
 432              		@ frame_needed = 0, uses_anonymous_args = 0
 433              	.LVL43:
 434 0000 38B5     		push	{r3, r4, r5, lr}
 435              	.LCFI9:
 436              		.cfi_def_cfa_offset 16
 437              		.cfi_offset 3, -16
 438              		.cfi_offset 4, -12
 439              		.cfi_offset 5, -8
 440              		.cfi_offset 14, -4
  50:/home/tienluong/workspace/atlantis_fw/platform/common/lightheader/src/lightheader.pb-c.c ****   protobuf_c_message_free_unpacked ((ProtobufCMessage*)message, allocator);
 441              		.loc 1 50 0
 442 0002 0268     		ldr	r2, [r0]
  49:/home/tienluong/workspace/atlantis_fw/platform/common/lightheader/src/lightheader.pb-c.c ****   assert(message->base.descriptor == &ltpb__factory_device_calibration__descriptor);
 443              		.loc 1 49 0
 444 0004 0446     		mov	r4, r0
  50:/home/tienluong/workspace/atlantis_fw/platform/common/lightheader/src/lightheader.pb-c.c ****   protobuf_c_message_free_unpacked ((ProtobufCMessage*)message, allocator);
 445              		.loc 1 50 0
 446 0006 064B     		ldr	r3, .L34
  49:/home/tienluong/workspace/atlantis_fw/platform/common/lightheader/src/lightheader.pb-c.c ****   assert(message->base.descriptor == &ltpb__factory_device_calibration__descriptor);
 447              		.loc 1 49 0
 448 0008 0D46     		mov	r5, r1
  50:/home/tienluong/workspace/atlantis_fw/platform/common/lightheader/src/lightheader.pb-c.c ****   protobuf_c_message_free_unpacked ((ProtobufCMessage*)message, allocator);
 449              		.loc 1 50 0
 450 000a 9A42     		cmp	r2, r3
 451 000c 03D0     		beq	.L33
  50:/home/tienluong/workspace/atlantis_fw/platform/common/lightheader/src/lightheader.pb-c.c ****   protobuf_c_message_free_unpacked ((ProtobufCMessage*)message, allocator);
 452              		.loc 1 50 0 is_stmt 0 discriminator 1
 453 000e 0548     		ldr	r0, .L34+4
 454              	.LVL44:
 455 0010 3221     		movs	r1, #50
 456              	.LVL45:
 457 0012 054B     		ldr	r3, .L34+8
 458 0014 9847     		blx	r3
 459              	.LVL46:
 460              	.L33:
  51:/home/tienluong/workspace/atlantis_fw/platform/common/lightheader/src/lightheader.pb-c.c **** }
 461              		.loc 1 51 0 is_stmt 1
 462 0016 2046     		mov	r0, r4
 463 0018 2946     		mov	r1, r5
 464 001a 044B     		ldr	r3, .L34+12
 465 001c 9847     		blx	r3
 466              	.LVL47:
 467 001e 38BD     		pop	{r3, r4, r5, pc}
 468              	.LVL48:
 469              	.L35:
 470              		.align	2
 471              	.L34:
 472 0020 00000000 		.word	.LANCHOR5
 473 0024 00000000 		.word	.LANCHOR9
 474 0028 00000000 		.word	assert_failed
 475 002c 00000000 		.word	protobuf_c_message_free_unpacked
 476              		.cfi_endproc
 477              	.LFE6:
 479              		.section	.text.ltpb__factory_module_calibration__get_packed_size,"ax",%progbits
 480              		.align	1
 481              		.global	ltpb__factory_module_calibration__get_packed_size
 482              		.thumb
 483              		.thumb_func
 485              	ltpb__factory_module_calibration__get_packed_size:
 486              	.LFB8:
  61:/home/tienluong/workspace/atlantis_fw/platform/common/lightheader/src/lightheader.pb-c.c ****   assert(message->base.descriptor == &ltpb__factory_module_calibration__descriptor);
 487              		.loc 1 61 0
 488              		.cfi_startproc
 489              		@ args = 0, pretend = 0, frame = 0
 490              		@ frame_needed = 0, uses_anonymous_args = 0
 491              	.LVL49:
  62:/home/tienluong/workspace/atlantis_fw/platform/common/lightheader/src/lightheader.pb-c.c ****   return protobuf_c_message_get_packed_size ((const ProtobufCMessage*)(message));
 492              		.loc 1 62 0
 493 0000 0268     		ldr	r2, [r0]
 494 0002 064B     		ldr	r3, .L38
  61:/home/tienluong/workspace/atlantis_fw/platform/common/lightheader/src/lightheader.pb-c.c ****   assert(message->base.descriptor == &ltpb__factory_module_calibration__descriptor);
 495              		.loc 1 61 0
 496 0004 10B5     		push	{r4, lr}
 497              	.LCFI10:
 498              		.cfi_def_cfa_offset 8
 499              		.cfi_offset 4, -8
 500              		.cfi_offset 14, -4
  62:/home/tienluong/workspace/atlantis_fw/platform/common/lightheader/src/lightheader.pb-c.c ****   return protobuf_c_message_get_packed_size ((const ProtobufCMessage*)(message));
 501              		.loc 1 62 0
 502 0006 9A42     		cmp	r2, r3
  61:/home/tienluong/workspace/atlantis_fw/platform/common/lightheader/src/lightheader.pb-c.c ****   assert(message->base.descriptor == &ltpb__factory_module_calibration__descriptor);
 503              		.loc 1 61 0
 504 0008 0446     		mov	r4, r0
  62:/home/tienluong/workspace/atlantis_fw/platform/common/lightheader/src/lightheader.pb-c.c ****   return protobuf_c_message_get_packed_size ((const ProtobufCMessage*)(message));
 505              		.loc 1 62 0
 506 000a 03D0     		beq	.L37
  62:/home/tienluong/workspace/atlantis_fw/platform/common/lightheader/src/lightheader.pb-c.c ****   return protobuf_c_message_get_packed_size ((const ProtobufCMessage*)(message));
 507              		.loc 1 62 0 is_stmt 0 discriminator 1
 508 000c 0448     		ldr	r0, .L38+4
 509              	.LVL50:
 510 000e 3E21     		movs	r1, #62
 511 0010 044B     		ldr	r3, .L38+8
 512 0012 9847     		blx	r3
 513              	.LVL51:
 514              	.L37:
  63:/home/tienluong/workspace/atlantis_fw/platform/common/lightheader/src/lightheader.pb-c.c **** }
 515              		.loc 1 63 0 is_stmt 1
 516 0014 2046     		mov	r0, r4
 517 0016 044B     		ldr	r3, .L38+12
 518 0018 9847     		blx	r3
 519              	.LVL52:
  64:/home/tienluong/workspace/atlantis_fw/platform/common/lightheader/src/lightheader.pb-c.c **** LIGHT_HEADER_FUNC size_t ltpb__factory_module_calibration__pack
 520              		.loc 1 64 0
 521 001a 10BD     		pop	{r4, pc}
 522              	.LVL53:
 523              	.L39:
 524              		.align	2
 525              	.L38:
 526 001c 00000000 		.word	.LANCHOR10
 527 0020 00000000 		.word	.LANCHOR11
 528 0024 00000000 		.word	assert_failed
 529 0028 00000000 		.word	protobuf_c_message_get_packed_size
 530              		.cfi_endproc
 531              	.LFE8:
 533              		.section	.text.ltpb__factory_module_calibration__pack,"ax",%progbits
 534              		.align	1
 535              		.global	ltpb__factory_module_calibration__pack
 536              		.thumb
 537              		.thumb_func
 539              	ltpb__factory_module_calibration__pack:
 540              	.LFB9:
  68:/home/tienluong/workspace/atlantis_fw/platform/common/lightheader/src/lightheader.pb-c.c ****   assert(message->base.descriptor == &ltpb__factory_module_calibration__descriptor);
 541              		.loc 1 68 0
 542              		.cfi_startproc
 543              		@ args = 0, pretend = 0, frame = 0
 544              		@ frame_needed = 0, uses_anonymous_args = 0
 545              	.LVL54:
 546 0000 38B5     		push	{r3, r4, r5, lr}
 547              	.LCFI11:
 548              		.cfi_def_cfa_offset 16
 549              		.cfi_offset 3, -16
 550              		.cfi_offset 4, -12
 551              		.cfi_offset 5, -8
 552              		.cfi_offset 14, -4
  69:/home/tienluong/workspace/atlantis_fw/platform/common/lightheader/src/lightheader.pb-c.c ****   return protobuf_c_message_pack ((const ProtobufCMessage*)message, out);
 553              		.loc 1 69 0
 554 0002 0268     		ldr	r2, [r0]
  68:/home/tienluong/workspace/atlantis_fw/platform/common/lightheader/src/lightheader.pb-c.c ****   assert(message->base.descriptor == &ltpb__factory_module_calibration__descriptor);
 555              		.loc 1 68 0
 556 0004 0446     		mov	r4, r0
  69:/home/tienluong/workspace/atlantis_fw/platform/common/lightheader/src/lightheader.pb-c.c ****   return protobuf_c_message_pack ((const ProtobufCMessage*)message, out);
 557              		.loc 1 69 0
 558 0006 064B     		ldr	r3, .L42
  68:/home/tienluong/workspace/atlantis_fw/platform/common/lightheader/src/lightheader.pb-c.c ****   assert(message->base.descriptor == &ltpb__factory_module_calibration__descriptor);
 559              		.loc 1 68 0
 560 0008 0D46     		mov	r5, r1
  69:/home/tienluong/workspace/atlantis_fw/platform/common/lightheader/src/lightheader.pb-c.c ****   return protobuf_c_message_pack ((const ProtobufCMessage*)message, out);
 561              		.loc 1 69 0
 562 000a 9A42     		cmp	r2, r3
 563 000c 03D0     		beq	.L41
  69:/home/tienluong/workspace/atlantis_fw/platform/common/lightheader/src/lightheader.pb-c.c ****   return protobuf_c_message_pack ((const ProtobufCMessage*)message, out);
 564              		.loc 1 69 0 is_stmt 0 discriminator 1
 565 000e 0548     		ldr	r0, .L42+4
 566              	.LVL55:
 567 0010 4521     		movs	r1, #69
 568              	.LVL56:
 569 0012 054B     		ldr	r3, .L42+8
 570 0014 9847     		blx	r3
 571              	.LVL57:
 572              	.L41:
  70:/home/tienluong/workspace/atlantis_fw/platform/common/lightheader/src/lightheader.pb-c.c **** }
 573              		.loc 1 70 0 is_stmt 1
 574 0016 2046     		mov	r0, r4
 575 0018 2946     		mov	r1, r5
 576 001a 044B     		ldr	r3, .L42+12
 577 001c 9847     		blx	r3
 578              	.LVL58:
  71:/home/tienluong/workspace/atlantis_fw/platform/common/lightheader/src/lightheader.pb-c.c **** LIGHT_HEADER_FUNC size_t ltpb__factory_module_calibration__pack_to_buffer
 579              		.loc 1 71 0
 580 001e 38BD     		pop	{r3, r4, r5, pc}
 581              	.LVL59:
 582              	.L43:
 583              		.align	2
 584              	.L42:
 585 0020 00000000 		.word	.LANCHOR10
 586 0024 00000000 		.word	.LANCHOR12
 587 0028 00000000 		.word	assert_failed
 588 002c 00000000 		.word	protobuf_c_message_pack
 589              		.cfi_endproc
 590              	.LFE9:
 592              		.section	.text.ltpb__factory_module_calibration__pack_to_buffer,"ax",%progbits
 593              		.align	1
 594              		.global	ltpb__factory_module_calibration__pack_to_buffer
 595              		.thumb
 596              		.thumb_func
 598              	ltpb__factory_module_calibration__pack_to_buffer:
 599              	.LFB10:
  75:/home/tienluong/workspace/atlantis_fw/platform/common/lightheader/src/lightheader.pb-c.c ****   assert(message->base.descriptor == &ltpb__factory_module_calibration__descriptor);
 600              		.loc 1 75 0
 601              		.cfi_startproc
 602              		@ args = 0, pretend = 0, frame = 0
 603              		@ frame_needed = 0, uses_anonymous_args = 0
 604              	.LVL60:
 605 0000 38B5     		push	{r3, r4, r5, lr}
 606              	.LCFI12:
 607              		.cfi_def_cfa_offset 16
 608              		.cfi_offset 3, -16
 609              		.cfi_offset 4, -12
 610              		.cfi_offset 5, -8
 611              		.cfi_offset 14, -4
  76:/home/tienluong/workspace/atlantis_fw/platform/common/lightheader/src/lightheader.pb-c.c ****   return protobuf_c_message_pack_to_buffer ((const ProtobufCMessage*)message, buffer);
 612              		.loc 1 76 0
 613 0002 0268     		ldr	r2, [r0]
  75:/home/tienluong/workspace/atlantis_fw/platform/common/lightheader/src/lightheader.pb-c.c ****   assert(message->base.descriptor == &ltpb__factory_module_calibration__descriptor);
 614              		.loc 1 75 0
 615 0004 0446     		mov	r4, r0
  76:/home/tienluong/workspace/atlantis_fw/platform/common/lightheader/src/lightheader.pb-c.c ****   return protobuf_c_message_pack_to_buffer ((const ProtobufCMessage*)message, buffer);
 616              		.loc 1 76 0
 617 0006 064B     		ldr	r3, .L46
  75:/home/tienluong/workspace/atlantis_fw/platform/common/lightheader/src/lightheader.pb-c.c ****   assert(message->base.descriptor == &ltpb__factory_module_calibration__descriptor);
 618              		.loc 1 75 0
 619 0008 0D46     		mov	r5, r1
  76:/home/tienluong/workspace/atlantis_fw/platform/common/lightheader/src/lightheader.pb-c.c ****   return protobuf_c_message_pack_to_buffer ((const ProtobufCMessage*)message, buffer);
 620              		.loc 1 76 0
 621 000a 9A42     		cmp	r2, r3
 622 000c 03D0     		beq	.L45
  76:/home/tienluong/workspace/atlantis_fw/platform/common/lightheader/src/lightheader.pb-c.c ****   return protobuf_c_message_pack_to_buffer ((const ProtobufCMessage*)message, buffer);
 623              		.loc 1 76 0 is_stmt 0 discriminator 1
 624 000e 0548     		ldr	r0, .L46+4
 625              	.LVL61:
 626 0010 4C21     		movs	r1, #76
 627              	.LVL62:
 628 0012 054B     		ldr	r3, .L46+8
 629 0014 9847     		blx	r3
 630              	.LVL63:
 631              	.L45:
  77:/home/tienluong/workspace/atlantis_fw/platform/common/lightheader/src/lightheader.pb-c.c **** }
 632              		.loc 1 77 0 is_stmt 1
 633 0016 2046     		mov	r0, r4
 634 0018 2946     		mov	r1, r5
 635 001a 044B     		ldr	r3, .L46+12
 636 001c 9847     		blx	r3
 637              	.LVL64:
  78:/home/tienluong/workspace/atlantis_fw/platform/common/lightheader/src/lightheader.pb-c.c **** LIGHT_HEADER_FUNC Ltpb__FactoryModuleCalibration *
 638              		.loc 1 78 0
 639 001e 38BD     		pop	{r3, r4, r5, pc}
 640              	.LVL65:
 641              	.L47:
 642              		.align	2
 643              	.L46:
 644 0020 00000000 		.word	.LANCHOR10
 645 0024 00000000 		.word	.LANCHOR13
 646 0028 00000000 		.word	assert_failed
 647 002c 00000000 		.word	protobuf_c_message_pack_to_buffer
 648              		.cfi_endproc
 649              	.LFE10:
 651              		.section	.text.ltpb__factory_module_calibration__unpack,"ax",%progbits
 652              		.align	1
 653              		.global	ltpb__factory_module_calibration__unpack
 654              		.thumb
 655              		.thumb_func
 657              	ltpb__factory_module_calibration__unpack:
 658              	.LFB11:
  84:/home/tienluong/workspace/atlantis_fw/platform/common/lightheader/src/lightheader.pb-c.c ****   return (Ltpb__FactoryModuleCalibration *)
 659              		.loc 1 84 0
 660              		.cfi_startproc
 661              		@ args = 0, pretend = 0, frame = 0
 662              		@ frame_needed = 0, uses_anonymous_args = 0
 663              	.LVL66:
 664 0000 38B5     		push	{r3, r4, r5, lr}
 665              	.LCFI13:
 666              		.cfi_def_cfa_offset 16
 667              		.cfi_offset 3, -16
 668              		.cfi_offset 4, -12
 669              		.cfi_offset 5, -8
 670              		.cfi_offset 14, -4
  84:/home/tienluong/workspace/atlantis_fw/platform/common/lightheader/src/lightheader.pb-c.c ****   return (Ltpb__FactoryModuleCalibration *)
 671              		.loc 1 84 0
 672 0002 0546     		mov	r5, r0
 673 0004 0C46     		mov	r4, r1
 674 0006 1346     		mov	r3, r2
  85:/home/tienluong/workspace/atlantis_fw/platform/common/lightheader/src/lightheader.pb-c.c ****      protobuf_c_message_unpack (&ltpb__factory_module_calibration__descriptor,
 675              		.loc 1 85 0
 676 0008 2946     		mov	r1, r5
 677              	.LVL67:
 678 000a 2246     		mov	r2, r4
 679              	.LVL68:
 680 000c 0148     		ldr	r0, .L49
 681              	.LVL69:
 682 000e 024C     		ldr	r4, .L49+4
 683              	.LVL70:
 684 0010 A047     		blx	r4
 685              	.LVL71:
  88:/home/tienluong/workspace/atlantis_fw/platform/common/lightheader/src/lightheader.pb-c.c **** LIGHT_HEADER_FUNC void   ltpb__factory_module_calibration__free_unpacked
 686              		.loc 1 88 0
 687 0012 38BD     		pop	{r3, r4, r5, pc}
 688              	.LVL72:
 689              	.L50:
 690              		.align	2
 691              	.L49:
 692 0014 00000000 		.word	.LANCHOR10
 693 0018 00000000 		.word	protobuf_c_message_unpack
 694              		.cfi_endproc
 695              	.LFE11:
 697              		.section	.text.ltpb__factory_module_calibration__free_unpacked,"ax",%progbits
 698              		.align	1
 699              		.global	ltpb__factory_module_calibration__free_unpacked
 700              		.thumb
 701              		.thumb_func
 703              	ltpb__factory_module_calibration__free_unpacked:
 704              	.LFB12:
  92:/home/tienluong/workspace/atlantis_fw/platform/common/lightheader/src/lightheader.pb-c.c ****   assert(message->base.descriptor == &ltpb__factory_module_calibration__descriptor);
 705              		.loc 1 92 0
 706              		.cfi_startproc
 707              		@ args = 0, pretend = 0, frame = 0
 708              		@ frame_needed = 0, uses_anonymous_args = 0
 709              	.LVL73:
 710 0000 38B5     		push	{r3, r4, r5, lr}
 711              	.LCFI14:
 712              		.cfi_def_cfa_offset 16
 713              		.cfi_offset 3, -16
 714              		.cfi_offset 4, -12
 715              		.cfi_offset 5, -8
 716              		.cfi_offset 14, -4
  93:/home/tienluong/workspace/atlantis_fw/platform/common/lightheader/src/lightheader.pb-c.c ****   protobuf_c_message_free_unpacked ((ProtobufCMessage*)message, allocator);
 717              		.loc 1 93 0
 718 0002 0268     		ldr	r2, [r0]
  92:/home/tienluong/workspace/atlantis_fw/platform/common/lightheader/src/lightheader.pb-c.c ****   assert(message->base.descriptor == &ltpb__factory_module_calibration__descriptor);
 719              		.loc 1 92 0
 720 0004 0446     		mov	r4, r0
  93:/home/tienluong/workspace/atlantis_fw/platform/common/lightheader/src/lightheader.pb-c.c ****   protobuf_c_message_free_unpacked ((ProtobufCMessage*)message, allocator);
 721              		.loc 1 93 0
 722 0006 064B     		ldr	r3, .L53
  92:/home/tienluong/workspace/atlantis_fw/platform/common/lightheader/src/lightheader.pb-c.c ****   assert(message->base.descriptor == &ltpb__factory_module_calibration__descriptor);
 723              		.loc 1 92 0
 724 0008 0D46     		mov	r5, r1
  93:/home/tienluong/workspace/atlantis_fw/platform/common/lightheader/src/lightheader.pb-c.c ****   protobuf_c_message_free_unpacked ((ProtobufCMessage*)message, allocator);
 725              		.loc 1 93 0
 726 000a 9A42     		cmp	r2, r3
 727 000c 03D0     		beq	.L52
  93:/home/tienluong/workspace/atlantis_fw/platform/common/lightheader/src/lightheader.pb-c.c ****   protobuf_c_message_free_unpacked ((ProtobufCMessage*)message, allocator);
 728              		.loc 1 93 0 is_stmt 0 discriminator 1
 729 000e 0548     		ldr	r0, .L53+4
 730              	.LVL74:
 731 0010 5D21     		movs	r1, #93
 732              	.LVL75:
 733 0012 054B     		ldr	r3, .L53+8
 734 0014 9847     		blx	r3
 735              	.LVL76:
 736              	.L52:
  94:/home/tienluong/workspace/atlantis_fw/platform/common/lightheader/src/lightheader.pb-c.c **** }
 737              		.loc 1 94 0 is_stmt 1
 738 0016 2046     		mov	r0, r4
 739 0018 2946     		mov	r1, r5
 740 001a 044B     		ldr	r3, .L53+12
 741 001c 9847     		blx	r3
 742              	.LVL77:
 743 001e 38BD     		pop	{r3, r4, r5, pc}
 744              	.LVL78:
 745              	.L54:
 746              		.align	2
 747              	.L53:
 748 0020 00000000 		.word	.LANCHOR10
 749 0024 00000000 		.word	.LANCHOR14
 750 0028 00000000 		.word	assert_failed
 751 002c 00000000 		.word	protobuf_c_message_free_unpacked
 752              		.cfi_endproc
 753              	.LFE12:
 755              		.section	.text.ltpb__color_calibration_gold__get_packed_size,"ax",%progbits
 756              		.align	1
 757              		.global	ltpb__color_calibration_gold__get_packed_size
 758              		.thumb
 759              		.thumb_func
 761              	ltpb__color_calibration_gold__get_packed_size:
 762              	.LFB14:
 104:/home/tienluong/workspace/atlantis_fw/platform/common/lightheader/src/lightheader.pb-c.c ****   assert(message->base.descriptor == &ltpb__color_calibration_gold__descriptor);
 763              		.loc 1 104 0
 764              		.cfi_startproc
 765              		@ args = 0, pretend = 0, frame = 0
 766              		@ frame_needed = 0, uses_anonymous_args = 0
 767              	.LVL79:
 105:/home/tienluong/workspace/atlantis_fw/platform/common/lightheader/src/lightheader.pb-c.c ****   return protobuf_c_message_get_packed_size ((const ProtobufCMessage*)(message));
 768              		.loc 1 105 0
 769 0000 0268     		ldr	r2, [r0]
 770 0002 064B     		ldr	r3, .L57
 104:/home/tienluong/workspace/atlantis_fw/platform/common/lightheader/src/lightheader.pb-c.c ****   assert(message->base.descriptor == &ltpb__color_calibration_gold__descriptor);
 771              		.loc 1 104 0
 772 0004 10B5     		push	{r4, lr}
 773              	.LCFI15:
 774              		.cfi_def_cfa_offset 8
 775              		.cfi_offset 4, -8
 776              		.cfi_offset 14, -4
 105:/home/tienluong/workspace/atlantis_fw/platform/common/lightheader/src/lightheader.pb-c.c ****   return protobuf_c_message_get_packed_size ((const ProtobufCMessage*)(message));
 777              		.loc 1 105 0
 778 0006 9A42     		cmp	r2, r3
 104:/home/tienluong/workspace/atlantis_fw/platform/common/lightheader/src/lightheader.pb-c.c ****   assert(message->base.descriptor == &ltpb__color_calibration_gold__descriptor);
 779              		.loc 1 104 0
 780 0008 0446     		mov	r4, r0
 105:/home/tienluong/workspace/atlantis_fw/platform/common/lightheader/src/lightheader.pb-c.c ****   return protobuf_c_message_get_packed_size ((const ProtobufCMessage*)(message));
 781              		.loc 1 105 0
 782 000a 03D0     		beq	.L56
 105:/home/tienluong/workspace/atlantis_fw/platform/common/lightheader/src/lightheader.pb-c.c ****   return protobuf_c_message_get_packed_size ((const ProtobufCMessage*)(message));
 783              		.loc 1 105 0 is_stmt 0 discriminator 1
 784 000c 0448     		ldr	r0, .L57+4
 785              	.LVL80:
 786 000e 6921     		movs	r1, #105
 787 0010 044B     		ldr	r3, .L57+8
 788 0012 9847     		blx	r3
 789              	.LVL81:
 790              	.L56:
 106:/home/tienluong/workspace/atlantis_fw/platform/common/lightheader/src/lightheader.pb-c.c **** }
 791              		.loc 1 106 0 is_stmt 1
 792 0014 2046     		mov	r0, r4
 793 0016 044B     		ldr	r3, .L57+12
 794 0018 9847     		blx	r3
 795              	.LVL82:
 107:/home/tienluong/workspace/atlantis_fw/platform/common/lightheader/src/lightheader.pb-c.c **** LIGHT_HEADER_FUNC size_t ltpb__color_calibration_gold__pack
 796              		.loc 1 107 0
 797 001a 10BD     		pop	{r4, pc}
 798              	.LVL83:
 799              	.L58:
 800              		.align	2
 801              	.L57:
 802 001c 00000000 		.word	.LANCHOR15
 803 0020 00000000 		.word	.LANCHOR16
 804 0024 00000000 		.word	assert_failed
 805 0028 00000000 		.word	protobuf_c_message_get_packed_size
 806              		.cfi_endproc
 807              	.LFE14:
 809              		.section	.text.ltpb__color_calibration_gold__pack,"ax",%progbits
 810              		.align	1
 811              		.global	ltpb__color_calibration_gold__pack
 812              		.thumb
 813              		.thumb_func
 815              	ltpb__color_calibration_gold__pack:
 816              	.LFB15:
 111:/home/tienluong/workspace/atlantis_fw/platform/common/lightheader/src/lightheader.pb-c.c ****   assert(message->base.descriptor == &ltpb__color_calibration_gold__descriptor);
 817              		.loc 1 111 0
 818              		.cfi_startproc
 819              		@ args = 0, pretend = 0, frame = 0
 820              		@ frame_needed = 0, uses_anonymous_args = 0
 821              	.LVL84:
 822 0000 38B5     		push	{r3, r4, r5, lr}
 823              	.LCFI16:
 824              		.cfi_def_cfa_offset 16
 825              		.cfi_offset 3, -16
 826              		.cfi_offset 4, -12
 827              		.cfi_offset 5, -8
 828              		.cfi_offset 14, -4
 112:/home/tienluong/workspace/atlantis_fw/platform/common/lightheader/src/lightheader.pb-c.c ****   return protobuf_c_message_pack ((const ProtobufCMessage*)message, out);
 829              		.loc 1 112 0
 830 0002 0268     		ldr	r2, [r0]
 111:/home/tienluong/workspace/atlantis_fw/platform/common/lightheader/src/lightheader.pb-c.c ****   assert(message->base.descriptor == &ltpb__color_calibration_gold__descriptor);
 831              		.loc 1 111 0
 832 0004 0446     		mov	r4, r0
 112:/home/tienluong/workspace/atlantis_fw/platform/common/lightheader/src/lightheader.pb-c.c ****   return protobuf_c_message_pack ((const ProtobufCMessage*)message, out);
 833              		.loc 1 112 0
 834 0006 064B     		ldr	r3, .L61
 111:/home/tienluong/workspace/atlantis_fw/platform/common/lightheader/src/lightheader.pb-c.c ****   assert(message->base.descriptor == &ltpb__color_calibration_gold__descriptor);
 835              		.loc 1 111 0
 836 0008 0D46     		mov	r5, r1
 112:/home/tienluong/workspace/atlantis_fw/platform/common/lightheader/src/lightheader.pb-c.c ****   return protobuf_c_message_pack ((const ProtobufCMessage*)message, out);
 837              		.loc 1 112 0
 838 000a 9A42     		cmp	r2, r3
 839 000c 03D0     		beq	.L60
 112:/home/tienluong/workspace/atlantis_fw/platform/common/lightheader/src/lightheader.pb-c.c ****   return protobuf_c_message_pack ((const ProtobufCMessage*)message, out);
 840              		.loc 1 112 0 is_stmt 0 discriminator 1
 841 000e 0548     		ldr	r0, .L61+4
 842              	.LVL85:
 843 0010 7021     		movs	r1, #112
 844              	.LVL86:
 845 0012 054B     		ldr	r3, .L61+8
 846 0014 9847     		blx	r3
 847              	.LVL87:
 848              	.L60:
 113:/home/tienluong/workspace/atlantis_fw/platform/common/lightheader/src/lightheader.pb-c.c **** }
 849              		.loc 1 113 0 is_stmt 1
 850 0016 2046     		mov	r0, r4
 851 0018 2946     		mov	r1, r5
 852 001a 044B     		ldr	r3, .L61+12
 853 001c 9847     		blx	r3
 854              	.LVL88:
 114:/home/tienluong/workspace/atlantis_fw/platform/common/lightheader/src/lightheader.pb-c.c **** LIGHT_HEADER_FUNC size_t ltpb__color_calibration_gold__pack_to_buffer
 855              		.loc 1 114 0
 856 001e 38BD     		pop	{r3, r4, r5, pc}
 857              	.LVL89:
 858              	.L62:
 859              		.align	2
 860              	.L61:
 861 0020 00000000 		.word	.LANCHOR15
 862 0024 00000000 		.word	.LANCHOR17
 863 0028 00000000 		.word	assert_failed
 864 002c 00000000 		.word	protobuf_c_message_pack
 865              		.cfi_endproc
 866              	.LFE15:
 868              		.section	.text.ltpb__color_calibration_gold__pack_to_buffer,"ax",%progbits
 869              		.align	1
 870              		.global	ltpb__color_calibration_gold__pack_to_buffer
 871              		.thumb
 872              		.thumb_func
 874              	ltpb__color_calibration_gold__pack_to_buffer:
 875              	.LFB16:
 118:/home/tienluong/workspace/atlantis_fw/platform/common/lightheader/src/lightheader.pb-c.c ****   assert(message->base.descriptor == &ltpb__color_calibration_gold__descriptor);
 876              		.loc 1 118 0
 877              		.cfi_startproc
 878              		@ args = 0, pretend = 0, frame = 0
 879              		@ frame_needed = 0, uses_anonymous_args = 0
 880              	.LVL90:
 881 0000 38B5     		push	{r3, r4, r5, lr}
 882              	.LCFI17:
 883              		.cfi_def_cfa_offset 16
 884              		.cfi_offset 3, -16
 885              		.cfi_offset 4, -12
 886              		.cfi_offset 5, -8
 887              		.cfi_offset 14, -4
 119:/home/tienluong/workspace/atlantis_fw/platform/common/lightheader/src/lightheader.pb-c.c ****   return protobuf_c_message_pack_to_buffer ((const ProtobufCMessage*)message, buffer);
 888              		.loc 1 119 0
 889 0002 0268     		ldr	r2, [r0]
 118:/home/tienluong/workspace/atlantis_fw/platform/common/lightheader/src/lightheader.pb-c.c ****   assert(message->base.descriptor == &ltpb__color_calibration_gold__descriptor);
 890              		.loc 1 118 0
 891 0004 0446     		mov	r4, r0
 119:/home/tienluong/workspace/atlantis_fw/platform/common/lightheader/src/lightheader.pb-c.c ****   return protobuf_c_message_pack_to_buffer ((const ProtobufCMessage*)message, buffer);
 892              		.loc 1 119 0
 893 0006 064B     		ldr	r3, .L65
 118:/home/tienluong/workspace/atlantis_fw/platform/common/lightheader/src/lightheader.pb-c.c ****   assert(message->base.descriptor == &ltpb__color_calibration_gold__descriptor);
 894              		.loc 1 118 0
 895 0008 0D46     		mov	r5, r1
 119:/home/tienluong/workspace/atlantis_fw/platform/common/lightheader/src/lightheader.pb-c.c ****   return protobuf_c_message_pack_to_buffer ((const ProtobufCMessage*)message, buffer);
 896              		.loc 1 119 0
 897 000a 9A42     		cmp	r2, r3
 898 000c 03D0     		beq	.L64
 119:/home/tienluong/workspace/atlantis_fw/platform/common/lightheader/src/lightheader.pb-c.c ****   return protobuf_c_message_pack_to_buffer ((const ProtobufCMessage*)message, buffer);
 899              		.loc 1 119 0 is_stmt 0 discriminator 1
 900 000e 0548     		ldr	r0, .L65+4
 901              	.LVL91:
 902 0010 7721     		movs	r1, #119
 903              	.LVL92:
 904 0012 054B     		ldr	r3, .L65+8
 905 0014 9847     		blx	r3
 906              	.LVL93:
 907              	.L64:
 120:/home/tienluong/workspace/atlantis_fw/platform/common/lightheader/src/lightheader.pb-c.c **** }
 908              		.loc 1 120 0 is_stmt 1
 909 0016 2046     		mov	r0, r4
 910 0018 2946     		mov	r1, r5
 911 001a 044B     		ldr	r3, .L65+12
 912 001c 9847     		blx	r3
 913              	.LVL94:
 121:/home/tienluong/workspace/atlantis_fw/platform/common/lightheader/src/lightheader.pb-c.c **** LIGHT_HEADER_FUNC Ltpb__ColorCalibrationGold *
 914              		.loc 1 121 0
 915 001e 38BD     		pop	{r3, r4, r5, pc}
 916              	.LVL95:
 917              	.L66:
 918              		.align	2
 919              	.L65:
 920 0020 00000000 		.word	.LANCHOR15
 921 0024 00000000 		.word	.LANCHOR18
 922 0028 00000000 		.word	assert_failed
 923 002c 00000000 		.word	protobuf_c_message_pack_to_buffer
 924              		.cfi_endproc
 925              	.LFE16:
 927              		.section	.text.ltpb__color_calibration_gold__unpack,"ax",%progbits
 928              		.align	1
 929              		.global	ltpb__color_calibration_gold__unpack
 930              		.thumb
 931              		.thumb_func
 933              	ltpb__color_calibration_gold__unpack:
 934              	.LFB17:
 127:/home/tienluong/workspace/atlantis_fw/platform/common/lightheader/src/lightheader.pb-c.c ****   return (Ltpb__ColorCalibrationGold *)
 935              		.loc 1 127 0
 936              		.cfi_startproc
 937              		@ args = 0, pretend = 0, frame = 0
 938              		@ frame_needed = 0, uses_anonymous_args = 0
 939              	.LVL96:
 940 0000 38B5     		push	{r3, r4, r5, lr}
 941              	.LCFI18:
 942              		.cfi_def_cfa_offset 16
 943              		.cfi_offset 3, -16
 944              		.cfi_offset 4, -12
 945              		.cfi_offset 5, -8
 946              		.cfi_offset 14, -4
 127:/home/tienluong/workspace/atlantis_fw/platform/common/lightheader/src/lightheader.pb-c.c ****   return (Ltpb__ColorCalibrationGold *)
 947              		.loc 1 127 0
 948 0002 0546     		mov	r5, r0
 949 0004 0C46     		mov	r4, r1
 950 0006 1346     		mov	r3, r2
 128:/home/tienluong/workspace/atlantis_fw/platform/common/lightheader/src/lightheader.pb-c.c ****      protobuf_c_message_unpack (&ltpb__color_calibration_gold__descriptor,
 951              		.loc 1 128 0
 952 0008 2946     		mov	r1, r5
 953              	.LVL97:
 954 000a 2246     		mov	r2, r4
 955              	.LVL98:
 956 000c 0148     		ldr	r0, .L68
 957              	.LVL99:
 958 000e 024C     		ldr	r4, .L68+4
 959              	.LVL100:
 960 0010 A047     		blx	r4
 961              	.LVL101:
 131:/home/tienluong/workspace/atlantis_fw/platform/common/lightheader/src/lightheader.pb-c.c **** LIGHT_HEADER_FUNC void   ltpb__color_calibration_gold__free_unpacked
 962              		.loc 1 131 0
 963 0012 38BD     		pop	{r3, r4, r5, pc}
 964              	.LVL102:
 965              	.L69:
 966              		.align	2
 967              	.L68:
 968 0014 00000000 		.word	.LANCHOR15
 969 0018 00000000 		.word	protobuf_c_message_unpack
 970              		.cfi_endproc
 971              	.LFE17:
 973              		.section	.text.ltpb__color_calibration_gold__free_unpacked,"ax",%progbits
 974              		.align	1
 975              		.global	ltpb__color_calibration_gold__free_unpacked
 976              		.thumb
 977              		.thumb_func
 979              	ltpb__color_calibration_gold__free_unpacked:
 980              	.LFB18:
 135:/home/tienluong/workspace/atlantis_fw/platform/common/lightheader/src/lightheader.pb-c.c ****   assert(message->base.descriptor == &ltpb__color_calibration_gold__descriptor);
 981              		.loc 1 135 0
 982              		.cfi_startproc
 983              		@ args = 0, pretend = 0, frame = 0
 984              		@ frame_needed = 0, uses_anonymous_args = 0
 985              	.LVL103:
 986 0000 38B5     		push	{r3, r4, r5, lr}
 987              	.LCFI19:
 988              		.cfi_def_cfa_offset 16
 989              		.cfi_offset 3, -16
 990              		.cfi_offset 4, -12
 991              		.cfi_offset 5, -8
 992              		.cfi_offset 14, -4
 136:/home/tienluong/workspace/atlantis_fw/platform/common/lightheader/src/lightheader.pb-c.c ****   protobuf_c_message_free_unpacked ((ProtobufCMessage*)message, allocator);
 993              		.loc 1 136 0
 994 0002 0268     		ldr	r2, [r0]
 135:/home/tienluong/workspace/atlantis_fw/platform/common/lightheader/src/lightheader.pb-c.c ****   assert(message->base.descriptor == &ltpb__color_calibration_gold__descriptor);
 995              		.loc 1 135 0
 996 0004 0446     		mov	r4, r0
 136:/home/tienluong/workspace/atlantis_fw/platform/common/lightheader/src/lightheader.pb-c.c ****   protobuf_c_message_free_unpacked ((ProtobufCMessage*)message, allocator);
 997              		.loc 1 136 0
 998 0006 064B     		ldr	r3, .L72
 135:/home/tienluong/workspace/atlantis_fw/platform/common/lightheader/src/lightheader.pb-c.c ****   assert(message->base.descriptor == &ltpb__color_calibration_gold__descriptor);
 999              		.loc 1 135 0
 1000 0008 0D46     		mov	r5, r1
 136:/home/tienluong/workspace/atlantis_fw/platform/common/lightheader/src/lightheader.pb-c.c ****   protobuf_c_message_free_unpacked ((ProtobufCMessage*)message, allocator);
 1001              		.loc 1 136 0
 1002 000a 9A42     		cmp	r2, r3
 1003 000c 03D0     		beq	.L71
 136:/home/tienluong/workspace/atlantis_fw/platform/common/lightheader/src/lightheader.pb-c.c ****   protobuf_c_message_free_unpacked ((ProtobufCMessage*)message, allocator);
 1004              		.loc 1 136 0 is_stmt 0 discriminator 1
 1005 000e 0548     		ldr	r0, .L72+4
 1006              	.LVL104:
 1007 0010 8821     		movs	r1, #136
 1008              	.LVL105:
 1009 0012 054B     		ldr	r3, .L72+8
 1010 0014 9847     		blx	r3
 1011              	.LVL106:
 1012              	.L71:
 137:/home/tienluong/workspace/atlantis_fw/platform/common/lightheader/src/lightheader.pb-c.c **** }
 1013              		.loc 1 137 0 is_stmt 1
 1014 0016 2046     		mov	r0, r4
 1015 0018 2946     		mov	r1, r5
 1016 001a 044B     		ldr	r3, .L72+12
 1017 001c 9847     		blx	r3
 1018              	.LVL107:
 1019 001e 38BD     		pop	{r3, r4, r5, pc}
 1020              	.LVL108:
 1021              	.L73:
 1022              		.align	2
 1023              	.L72:
 1024 0020 00000000 		.word	.LANCHOR15
 1025 0024 00000000 		.word	.LANCHOR19
 1026 0028 00000000 		.word	assert_failed
 1027 002c 00000000 		.word	protobuf_c_message_free_unpacked
 1028              		.cfi_endproc
 1029              	.LFE18:
 1031              		.section	.text.ltpb__sensor_data__get_packed_size,"ax",%progbits
 1032              		.align	1
 1033              		.global	ltpb__sensor_data__get_packed_size
 1034              		.thumb
 1035              		.thumb_func
 1037              	ltpb__sensor_data__get_packed_size:
 1038              	.LFB20:
 147:/home/tienluong/workspace/atlantis_fw/platform/common/lightheader/src/lightheader.pb-c.c ****   assert(message->base.descriptor == &ltpb__sensor_data__descriptor);
 1039              		.loc 1 147 0
 1040              		.cfi_startproc
 1041              		@ args = 0, pretend = 0, frame = 0
 1042              		@ frame_needed = 0, uses_anonymous_args = 0
 1043              	.LVL109:
 148:/home/tienluong/workspace/atlantis_fw/platform/common/lightheader/src/lightheader.pb-c.c ****   return protobuf_c_message_get_packed_size ((const ProtobufCMessage*)(message));
 1044              		.loc 1 148 0
 1045 0000 0268     		ldr	r2, [r0]
 1046 0002 064B     		ldr	r3, .L76
 147:/home/tienluong/workspace/atlantis_fw/platform/common/lightheader/src/lightheader.pb-c.c ****   assert(message->base.descriptor == &ltpb__sensor_data__descriptor);
 1047              		.loc 1 147 0
 1048 0004 10B5     		push	{r4, lr}
 1049              	.LCFI20:
 1050              		.cfi_def_cfa_offset 8
 1051              		.cfi_offset 4, -8
 1052              		.cfi_offset 14, -4
 148:/home/tienluong/workspace/atlantis_fw/platform/common/lightheader/src/lightheader.pb-c.c ****   return protobuf_c_message_get_packed_size ((const ProtobufCMessage*)(message));
 1053              		.loc 1 148 0
 1054 0006 9A42     		cmp	r2, r3
 147:/home/tienluong/workspace/atlantis_fw/platform/common/lightheader/src/lightheader.pb-c.c ****   assert(message->base.descriptor == &ltpb__sensor_data__descriptor);
 1055              		.loc 1 147 0
 1056 0008 0446     		mov	r4, r0
 148:/home/tienluong/workspace/atlantis_fw/platform/common/lightheader/src/lightheader.pb-c.c ****   return protobuf_c_message_get_packed_size ((const ProtobufCMessage*)(message));
 1057              		.loc 1 148 0
 1058 000a 03D0     		beq	.L75
 148:/home/tienluong/workspace/atlantis_fw/platform/common/lightheader/src/lightheader.pb-c.c ****   return protobuf_c_message_get_packed_size ((const ProtobufCMessage*)(message));
 1059              		.loc 1 148 0 is_stmt 0 discriminator 1
 1060 000c 0448     		ldr	r0, .L76+4
 1061              	.LVL110:
 1062 000e 9421     		movs	r1, #148
 1063 0010 044B     		ldr	r3, .L76+8
 1064 0012 9847     		blx	r3
 1065              	.LVL111:
 1066              	.L75:
 149:/home/tienluong/workspace/atlantis_fw/platform/common/lightheader/src/lightheader.pb-c.c **** }
 1067              		.loc 1 149 0 is_stmt 1
 1068 0014 2046     		mov	r0, r4
 1069 0016 044B     		ldr	r3, .L76+12
 1070 0018 9847     		blx	r3
 1071              	.LVL112:
 150:/home/tienluong/workspace/atlantis_fw/platform/common/lightheader/src/lightheader.pb-c.c **** LIGHT_HEADER_FUNC size_t ltpb__sensor_data__pack
 1072              		.loc 1 150 0
 1073 001a 10BD     		pop	{r4, pc}
 1074              	.LVL113:
 1075              	.L77:
 1076              		.align	2
 1077              	.L76:
 1078 001c 00000000 		.word	.LANCHOR20
 1079 0020 00000000 		.word	.LANCHOR21
 1080 0024 00000000 		.word	assert_failed
 1081 0028 00000000 		.word	protobuf_c_message_get_packed_size
 1082              		.cfi_endproc
 1083              	.LFE20:
 1085              		.section	.text.ltpb__sensor_data__pack,"ax",%progbits
 1086              		.align	1
 1087              		.global	ltpb__sensor_data__pack
 1088              		.thumb
 1089              		.thumb_func
 1091              	ltpb__sensor_data__pack:
 1092              	.LFB21:
 154:/home/tienluong/workspace/atlantis_fw/platform/common/lightheader/src/lightheader.pb-c.c ****   assert(message->base.descriptor == &ltpb__sensor_data__descriptor);
 1093              		.loc 1 154 0
 1094              		.cfi_startproc
 1095              		@ args = 0, pretend = 0, frame = 0
 1096              		@ frame_needed = 0, uses_anonymous_args = 0
 1097              	.LVL114:
 1098 0000 38B5     		push	{r3, r4, r5, lr}
 1099              	.LCFI21:
 1100              		.cfi_def_cfa_offset 16
 1101              		.cfi_offset 3, -16
 1102              		.cfi_offset 4, -12
 1103              		.cfi_offset 5, -8
 1104              		.cfi_offset 14, -4
 155:/home/tienluong/workspace/atlantis_fw/platform/common/lightheader/src/lightheader.pb-c.c ****   return protobuf_c_message_pack ((const ProtobufCMessage*)message, out);
 1105              		.loc 1 155 0
 1106 0002 0268     		ldr	r2, [r0]
 154:/home/tienluong/workspace/atlantis_fw/platform/common/lightheader/src/lightheader.pb-c.c ****   assert(message->base.descriptor == &ltpb__sensor_data__descriptor);
 1107              		.loc 1 154 0
 1108 0004 0446     		mov	r4, r0
 155:/home/tienluong/workspace/atlantis_fw/platform/common/lightheader/src/lightheader.pb-c.c ****   return protobuf_c_message_pack ((const ProtobufCMessage*)message, out);
 1109              		.loc 1 155 0
 1110 0006 064B     		ldr	r3, .L80
 154:/home/tienluong/workspace/atlantis_fw/platform/common/lightheader/src/lightheader.pb-c.c ****   assert(message->base.descriptor == &ltpb__sensor_data__descriptor);
 1111              		.loc 1 154 0
 1112 0008 0D46     		mov	r5, r1
 155:/home/tienluong/workspace/atlantis_fw/platform/common/lightheader/src/lightheader.pb-c.c ****   return protobuf_c_message_pack ((const ProtobufCMessage*)message, out);
 1113              		.loc 1 155 0
 1114 000a 9A42     		cmp	r2, r3
 1115 000c 03D0     		beq	.L79
 155:/home/tienluong/workspace/atlantis_fw/platform/common/lightheader/src/lightheader.pb-c.c ****   return protobuf_c_message_pack ((const ProtobufCMessage*)message, out);
 1116              		.loc 1 155 0 is_stmt 0 discriminator 1
 1117 000e 0548     		ldr	r0, .L80+4
 1118              	.LVL115:
 1119 0010 9B21     		movs	r1, #155
 1120              	.LVL116:
 1121 0012 054B     		ldr	r3, .L80+8
 1122 0014 9847     		blx	r3
 1123              	.LVL117:
 1124              	.L79:
 156:/home/tienluong/workspace/atlantis_fw/platform/common/lightheader/src/lightheader.pb-c.c **** }
 1125              		.loc 1 156 0 is_stmt 1
 1126 0016 2046     		mov	r0, r4
 1127 0018 2946     		mov	r1, r5
 1128 001a 044B     		ldr	r3, .L80+12
 1129 001c 9847     		blx	r3
 1130              	.LVL118:
 157:/home/tienluong/workspace/atlantis_fw/platform/common/lightheader/src/lightheader.pb-c.c **** LIGHT_HEADER_FUNC size_t ltpb__sensor_data__pack_to_buffer
 1131              		.loc 1 157 0
 1132 001e 38BD     		pop	{r3, r4, r5, pc}
 1133              	.LVL119:
 1134              	.L81:
 1135              		.align	2
 1136              	.L80:
 1137 0020 00000000 		.word	.LANCHOR20
 1138 0024 00000000 		.word	.LANCHOR22
 1139 0028 00000000 		.word	assert_failed
 1140 002c 00000000 		.word	protobuf_c_message_pack
 1141              		.cfi_endproc
 1142              	.LFE21:
 1144              		.section	.text.ltpb__sensor_data__pack_to_buffer,"ax",%progbits
 1145              		.align	1
 1146              		.global	ltpb__sensor_data__pack_to_buffer
 1147              		.thumb
 1148              		.thumb_func
 1150              	ltpb__sensor_data__pack_to_buffer:
 1151              	.LFB22:
 161:/home/tienluong/workspace/atlantis_fw/platform/common/lightheader/src/lightheader.pb-c.c ****   assert(message->base.descriptor == &ltpb__sensor_data__descriptor);
 1152              		.loc 1 161 0
 1153              		.cfi_startproc
 1154              		@ args = 0, pretend = 0, frame = 0
 1155              		@ frame_needed = 0, uses_anonymous_args = 0
 1156              	.LVL120:
 1157 0000 38B5     		push	{r3, r4, r5, lr}
 1158              	.LCFI22:
 1159              		.cfi_def_cfa_offset 16
 1160              		.cfi_offset 3, -16
 1161              		.cfi_offset 4, -12
 1162              		.cfi_offset 5, -8
 1163              		.cfi_offset 14, -4
 162:/home/tienluong/workspace/atlantis_fw/platform/common/lightheader/src/lightheader.pb-c.c ****   return protobuf_c_message_pack_to_buffer ((const ProtobufCMessage*)message, buffer);
 1164              		.loc 1 162 0
 1165 0002 0268     		ldr	r2, [r0]
 161:/home/tienluong/workspace/atlantis_fw/platform/common/lightheader/src/lightheader.pb-c.c ****   assert(message->base.descriptor == &ltpb__sensor_data__descriptor);
 1166              		.loc 1 161 0
 1167 0004 0446     		mov	r4, r0
 162:/home/tienluong/workspace/atlantis_fw/platform/common/lightheader/src/lightheader.pb-c.c ****   return protobuf_c_message_pack_to_buffer ((const ProtobufCMessage*)message, buffer);
 1168              		.loc 1 162 0
 1169 0006 064B     		ldr	r3, .L84
 161:/home/tienluong/workspace/atlantis_fw/platform/common/lightheader/src/lightheader.pb-c.c ****   assert(message->base.descriptor == &ltpb__sensor_data__descriptor);
 1170              		.loc 1 161 0
 1171 0008 0D46     		mov	r5, r1
 162:/home/tienluong/workspace/atlantis_fw/platform/common/lightheader/src/lightheader.pb-c.c ****   return protobuf_c_message_pack_to_buffer ((const ProtobufCMessage*)message, buffer);
 1172              		.loc 1 162 0
 1173 000a 9A42     		cmp	r2, r3
 1174 000c 03D0     		beq	.L83
 162:/home/tienluong/workspace/atlantis_fw/platform/common/lightheader/src/lightheader.pb-c.c ****   return protobuf_c_message_pack_to_buffer ((const ProtobufCMessage*)message, buffer);
 1175              		.loc 1 162 0 is_stmt 0 discriminator 1
 1176 000e 0548     		ldr	r0, .L84+4
 1177              	.LVL121:
 1178 0010 A221     		movs	r1, #162
 1179              	.LVL122:
 1180 0012 054B     		ldr	r3, .L84+8
 1181 0014 9847     		blx	r3
 1182              	.LVL123:
 1183              	.L83:
 163:/home/tienluong/workspace/atlantis_fw/platform/common/lightheader/src/lightheader.pb-c.c **** }
 1184              		.loc 1 163 0 is_stmt 1
 1185 0016 2046     		mov	r0, r4
 1186 0018 2946     		mov	r1, r5
 1187 001a 044B     		ldr	r3, .L84+12
 1188 001c 9847     		blx	r3
 1189              	.LVL124:
 164:/home/tienluong/workspace/atlantis_fw/platform/common/lightheader/src/lightheader.pb-c.c **** LIGHT_HEADER_FUNC Ltpb__SensorData *
 1190              		.loc 1 164 0
 1191 001e 38BD     		pop	{r3, r4, r5, pc}
 1192              	.LVL125:
 1193              	.L85:
 1194              		.align	2
 1195              	.L84:
 1196 0020 00000000 		.word	.LANCHOR20
 1197 0024 00000000 		.word	.LANCHOR23
 1198 0028 00000000 		.word	assert_failed
 1199 002c 00000000 		.word	protobuf_c_message_pack_to_buffer
 1200              		.cfi_endproc
 1201              	.LFE22:
 1203              		.section	.text.ltpb__sensor_data__unpack,"ax",%progbits
 1204              		.align	1
 1205              		.global	ltpb__sensor_data__unpack
 1206              		.thumb
 1207              		.thumb_func
 1209              	ltpb__sensor_data__unpack:
 1210              	.LFB23:
 170:/home/tienluong/workspace/atlantis_fw/platform/common/lightheader/src/lightheader.pb-c.c ****   return (Ltpb__SensorData *)
 1211              		.loc 1 170 0
 1212              		.cfi_startproc
 1213              		@ args = 0, pretend = 0, frame = 0
 1214              		@ frame_needed = 0, uses_anonymous_args = 0
 1215              	.LVL126:
 1216 0000 38B5     		push	{r3, r4, r5, lr}
 1217              	.LCFI23:
 1218              		.cfi_def_cfa_offset 16
 1219              		.cfi_offset 3, -16
 1220              		.cfi_offset 4, -12
 1221              		.cfi_offset 5, -8
 1222              		.cfi_offset 14, -4
 170:/home/tienluong/workspace/atlantis_fw/platform/common/lightheader/src/lightheader.pb-c.c ****   return (Ltpb__SensorData *)
 1223              		.loc 1 170 0
 1224 0002 0546     		mov	r5, r0
 1225 0004 0C46     		mov	r4, r1
 1226 0006 1346     		mov	r3, r2
 171:/home/tienluong/workspace/atlantis_fw/platform/common/lightheader/src/lightheader.pb-c.c ****      protobuf_c_message_unpack (&ltpb__sensor_data__descriptor,
 1227              		.loc 1 171 0
 1228 0008 2946     		mov	r1, r5
 1229              	.LVL127:
 1230 000a 2246     		mov	r2, r4
 1231              	.LVL128:
 1232 000c 0148     		ldr	r0, .L87
 1233              	.LVL129:
 1234 000e 024C     		ldr	r4, .L87+4
 1235              	.LVL130:
 1236 0010 A047     		blx	r4
 1237              	.LVL131:
 174:/home/tienluong/workspace/atlantis_fw/platform/common/lightheader/src/lightheader.pb-c.c **** LIGHT_HEADER_FUNC void   ltpb__sensor_data__free_unpacked
 1238              		.loc 1 174 0
 1239 0012 38BD     		pop	{r3, r4, r5, pc}
 1240              	.LVL132:
 1241              	.L88:
 1242              		.align	2
 1243              	.L87:
 1244 0014 00000000 		.word	.LANCHOR20
 1245 0018 00000000 		.word	protobuf_c_message_unpack
 1246              		.cfi_endproc
 1247              	.LFE23:
 1249              		.section	.text.ltpb__sensor_data__free_unpacked,"ax",%progbits
 1250              		.align	1
 1251              		.global	ltpb__sensor_data__free_unpacked
 1252              		.thumb
 1253              		.thumb_func
 1255              	ltpb__sensor_data__free_unpacked:
 1256              	.LFB24:
 178:/home/tienluong/workspace/atlantis_fw/platform/common/lightheader/src/lightheader.pb-c.c ****   assert(message->base.descriptor == &ltpb__sensor_data__descriptor);
 1257              		.loc 1 178 0
 1258              		.cfi_startproc
 1259              		@ args = 0, pretend = 0, frame = 0
 1260              		@ frame_needed = 0, uses_anonymous_args = 0
 1261              	.LVL133:
 1262 0000 38B5     		push	{r3, r4, r5, lr}
 1263              	.LCFI24:
 1264              		.cfi_def_cfa_offset 16
 1265              		.cfi_offset 3, -16
 1266              		.cfi_offset 4, -12
 1267              		.cfi_offset 5, -8
 1268              		.cfi_offset 14, -4
 179:/home/tienluong/workspace/atlantis_fw/platform/common/lightheader/src/lightheader.pb-c.c ****   protobuf_c_message_free_unpacked ((ProtobufCMessage*)message, allocator);
 1269              		.loc 1 179 0
 1270 0002 0268     		ldr	r2, [r0]
 178:/home/tienluong/workspace/atlantis_fw/platform/common/lightheader/src/lightheader.pb-c.c ****   assert(message->base.descriptor == &ltpb__sensor_data__descriptor);
 1271              		.loc 1 178 0
 1272 0004 0446     		mov	r4, r0
 179:/home/tienluong/workspace/atlantis_fw/platform/common/lightheader/src/lightheader.pb-c.c ****   protobuf_c_message_free_unpacked ((ProtobufCMessage*)message, allocator);
 1273              		.loc 1 179 0
 1274 0006 064B     		ldr	r3, .L91
 178:/home/tienluong/workspace/atlantis_fw/platform/common/lightheader/src/lightheader.pb-c.c ****   assert(message->base.descriptor == &ltpb__sensor_data__descriptor);
 1275              		.loc 1 178 0
 1276 0008 0D46     		mov	r5, r1
 179:/home/tienluong/workspace/atlantis_fw/platform/common/lightheader/src/lightheader.pb-c.c ****   protobuf_c_message_free_unpacked ((ProtobufCMessage*)message, allocator);
 1277              		.loc 1 179 0
 1278 000a 9A42     		cmp	r2, r3
 1279 000c 03D0     		beq	.L90
 179:/home/tienluong/workspace/atlantis_fw/platform/common/lightheader/src/lightheader.pb-c.c ****   protobuf_c_message_free_unpacked ((ProtobufCMessage*)message, allocator);
 1280              		.loc 1 179 0 is_stmt 0 discriminator 1
 1281 000e 0548     		ldr	r0, .L91+4
 1282              	.LVL134:
 1283 0010 B321     		movs	r1, #179
 1284              	.LVL135:
 1285 0012 054B     		ldr	r3, .L91+8
 1286 0014 9847     		blx	r3
 1287              	.LVL136:
 1288              	.L90:
 180:/home/tienluong/workspace/atlantis_fw/platform/common/lightheader/src/lightheader.pb-c.c **** }
 1289              		.loc 1 180 0 is_stmt 1
 1290 0016 2046     		mov	r0, r4
 1291 0018 2946     		mov	r1, r5
 1292 001a 044B     		ldr	r3, .L91+12
 1293 001c 9847     		blx	r3
 1294              	.LVL137:
 1295 001e 38BD     		pop	{r3, r4, r5, pc}
 1296              	.LVL138:
 1297              	.L92:
 1298              		.align	2
 1299              	.L91:
 1300 0020 00000000 		.word	.LANCHOR20
 1301 0024 00000000 		.word	.LANCHOR24
 1302 0028 00000000 		.word	assert_failed
 1303 002c 00000000 		.word	protobuf_c_message_free_unpacked
 1304              		.cfi_endproc
 1305              	.LFE24:
 1307              		.section	.text.ltpb__light_header__get_packed_size,"ax",%progbits
 1308              		.align	1
 1309              		.global	ltpb__light_header__get_packed_size
 1310              		.thumb
 1311              		.thumb_func
 1313              	ltpb__light_header__get_packed_size:
 1314              	.LFB26:
 187:/home/tienluong/workspace/atlantis_fw/platform/common/lightheader/src/lightheader.pb-c.c **** }
 188:/home/tienluong/workspace/atlantis_fw/platform/common/lightheader/src/lightheader.pb-c.c **** LIGHT_HEADER_FUNC size_t ltpb__light_header__get_packed_size
 189:/home/tienluong/workspace/atlantis_fw/platform/common/lightheader/src/lightheader.pb-c.c ****                      (const Ltpb__LightHeader *message)
 190:/home/tienluong/workspace/atlantis_fw/platform/common/lightheader/src/lightheader.pb-c.c **** {
 1315              		.loc 1 190 0
 1316              		.cfi_startproc
 1317              		@ args = 0, pretend = 0, frame = 0
 1318              		@ frame_needed = 0, uses_anonymous_args = 0
 1319              	.LVL139:
 191:/home/tienluong/workspace/atlantis_fw/platform/common/lightheader/src/lightheader.pb-c.c ****   assert(message->base.descriptor == &ltpb__light_header__descriptor);
 1320              		.loc 1 191 0
 1321 0000 0268     		ldr	r2, [r0]
 1322 0002 064B     		ldr	r3, .L95
 190:/home/tienluong/workspace/atlantis_fw/platform/common/lightheader/src/lightheader.pb-c.c ****   assert(message->base.descriptor == &ltpb__light_header__descriptor);
 1323              		.loc 1 190 0
 1324 0004 10B5     		push	{r4, lr}
 1325              	.LCFI25:
 1326              		.cfi_def_cfa_offset 8
 1327              		.cfi_offset 4, -8
 1328              		.cfi_offset 14, -4
 1329              		.loc 1 191 0
 1330 0006 9A42     		cmp	r2, r3
 190:/home/tienluong/workspace/atlantis_fw/platform/common/lightheader/src/lightheader.pb-c.c ****   assert(message->base.descriptor == &ltpb__light_header__descriptor);
 1331              		.loc 1 190 0
 1332 0008 0446     		mov	r4, r0
 1333              		.loc 1 191 0
 1334 000a 03D0     		beq	.L94
 1335              		.loc 1 191 0 is_stmt 0 discriminator 1
 1336 000c 0448     		ldr	r0, .L95+4
 1337              	.LVL140:
 1338 000e BF21     		movs	r1, #191
 1339 0010 044B     		ldr	r3, .L95+8
 1340 0012 9847     		blx	r3
 1341              	.LVL141:
 1342              	.L94:
 192:/home/tienluong/workspace/atlantis_fw/platform/common/lightheader/src/lightheader.pb-c.c ****   return protobuf_c_message_get_packed_size ((const ProtobufCMessage*)(message));
 1343              		.loc 1 192 0 is_stmt 1
 1344 0014 2046     		mov	r0, r4
 1345 0016 044B     		ldr	r3, .L95+12
 1346 0018 9847     		blx	r3
 1347              	.LVL142:
 193:/home/tienluong/workspace/atlantis_fw/platform/common/lightheader/src/lightheader.pb-c.c **** }
 1348              		.loc 1 193 0
 1349 001a 10BD     		pop	{r4, pc}
 1350              	.LVL143:
 1351              	.L96:
 1352              		.align	2
 1353              	.L95:
 1354 001c 00000000 		.word	.LANCHOR25
 1355 0020 00000000 		.word	.LANCHOR26
 1356 0024 00000000 		.word	assert_failed
 1357 0028 00000000 		.word	protobuf_c_message_get_packed_size
 1358              		.cfi_endproc
 1359              	.LFE26:
 1361              		.section	.text.ltpb__light_header__pack,"ax",%progbits
 1362              		.align	1
 1363              		.global	ltpb__light_header__pack
 1364              		.thumb
 1365              		.thumb_func
 1367              	ltpb__light_header__pack:
 1368              	.LFB27:
 194:/home/tienluong/workspace/atlantis_fw/platform/common/lightheader/src/lightheader.pb-c.c **** LIGHT_HEADER_FUNC size_t ltpb__light_header__pack
 195:/home/tienluong/workspace/atlantis_fw/platform/common/lightheader/src/lightheader.pb-c.c ****                      (const Ltpb__LightHeader *message,
 196:/home/tienluong/workspace/atlantis_fw/platform/common/lightheader/src/lightheader.pb-c.c ****                       uint8_t       *out)
 197:/home/tienluong/workspace/atlantis_fw/platform/common/lightheader/src/lightheader.pb-c.c **** {
 1369              		.loc 1 197 0
 1370              		.cfi_startproc
 1371              		@ args = 0, pretend = 0, frame = 0
 1372              		@ frame_needed = 0, uses_anonymous_args = 0
 1373              	.LVL144:
 1374 0000 38B5     		push	{r3, r4, r5, lr}
 1375              	.LCFI26:
 1376              		.cfi_def_cfa_offset 16
 1377              		.cfi_offset 3, -16
 1378              		.cfi_offset 4, -12
 1379              		.cfi_offset 5, -8
 1380              		.cfi_offset 14, -4
 198:/home/tienluong/workspace/atlantis_fw/platform/common/lightheader/src/lightheader.pb-c.c ****   assert(message->base.descriptor == &ltpb__light_header__descriptor);
 1381              		.loc 1 198 0
 1382 0002 0268     		ldr	r2, [r0]
 197:/home/tienluong/workspace/atlantis_fw/platform/common/lightheader/src/lightheader.pb-c.c ****   assert(message->base.descriptor == &ltpb__light_header__descriptor);
 1383              		.loc 1 197 0
 1384 0004 0446     		mov	r4, r0
 1385              		.loc 1 198 0
 1386 0006 064B     		ldr	r3, .L99
 197:/home/tienluong/workspace/atlantis_fw/platform/common/lightheader/src/lightheader.pb-c.c ****   assert(message->base.descriptor == &ltpb__light_header__descriptor);
 1387              		.loc 1 197 0
 1388 0008 0D46     		mov	r5, r1
 1389              		.loc 1 198 0
 1390 000a 9A42     		cmp	r2, r3
 1391 000c 03D0     		beq	.L98
 1392              		.loc 1 198 0 is_stmt 0 discriminator 1
 1393 000e 0548     		ldr	r0, .L99+4
 1394              	.LVL145:
 1395 0010 C621     		movs	r1, #198
 1396              	.LVL146:
 1397 0012 054B     		ldr	r3, .L99+8
 1398 0014 9847     		blx	r3
 1399              	.LVL147:
 1400              	.L98:
 199:/home/tienluong/workspace/atlantis_fw/platform/common/lightheader/src/lightheader.pb-c.c ****   return protobuf_c_message_pack ((const ProtobufCMessage*)message, out);
 1401              		.loc 1 199 0 is_stmt 1
 1402 0016 2046     		mov	r0, r4
 1403 0018 2946     		mov	r1, r5
 1404 001a 044B     		ldr	r3, .L99+12
 1405 001c 9847     		blx	r3
 1406              	.LVL148:
 200:/home/tienluong/workspace/atlantis_fw/platform/common/lightheader/src/lightheader.pb-c.c **** }
 1407              		.loc 1 200 0
 1408 001e 38BD     		pop	{r3, r4, r5, pc}
 1409              	.LVL149:
 1410              	.L100:
 1411              		.align	2
 1412              	.L99:
 1413 0020 00000000 		.word	.LANCHOR25
 1414 0024 00000000 		.word	.LANCHOR27
 1415 0028 00000000 		.word	assert_failed
 1416 002c 00000000 		.word	protobuf_c_message_pack
 1417              		.cfi_endproc
 1418              	.LFE27:
 1420              		.section	.text.ltpb__light_header__pack_to_buffer,"ax",%progbits
 1421              		.align	1
 1422              		.global	ltpb__light_header__pack_to_buffer
 1423              		.thumb
 1424              		.thumb_func
 1426              	ltpb__light_header__pack_to_buffer:
 1427              	.LFB28:
 201:/home/tienluong/workspace/atlantis_fw/platform/common/lightheader/src/lightheader.pb-c.c **** LIGHT_HEADER_FUNC size_t ltpb__light_header__pack_to_buffer
 202:/home/tienluong/workspace/atlantis_fw/platform/common/lightheader/src/lightheader.pb-c.c ****                      (const Ltpb__LightHeader *message,
 203:/home/tienluong/workspace/atlantis_fw/platform/common/lightheader/src/lightheader.pb-c.c ****                       ProtobufCBuffer *buffer)
 204:/home/tienluong/workspace/atlantis_fw/platform/common/lightheader/src/lightheader.pb-c.c **** {
 1428              		.loc 1 204 0
 1429              		.cfi_startproc
 1430              		@ args = 0, pretend = 0, frame = 0
 1431              		@ frame_needed = 0, uses_anonymous_args = 0
 1432              	.LVL150:
 1433 0000 38B5     		push	{r3, r4, r5, lr}
 1434              	.LCFI27:
 1435              		.cfi_def_cfa_offset 16
 1436              		.cfi_offset 3, -16
 1437              		.cfi_offset 4, -12
 1438              		.cfi_offset 5, -8
 1439              		.cfi_offset 14, -4
 205:/home/tienluong/workspace/atlantis_fw/platform/common/lightheader/src/lightheader.pb-c.c ****   assert(message->base.descriptor == &ltpb__light_header__descriptor);
 1440              		.loc 1 205 0
 1441 0002 0268     		ldr	r2, [r0]
 204:/home/tienluong/workspace/atlantis_fw/platform/common/lightheader/src/lightheader.pb-c.c ****   assert(message->base.descriptor == &ltpb__light_header__descriptor);
 1442              		.loc 1 204 0
 1443 0004 0446     		mov	r4, r0
 1444              		.loc 1 205 0
 1445 0006 064B     		ldr	r3, .L103
 204:/home/tienluong/workspace/atlantis_fw/platform/common/lightheader/src/lightheader.pb-c.c ****   assert(message->base.descriptor == &ltpb__light_header__descriptor);
 1446              		.loc 1 204 0
 1447 0008 0D46     		mov	r5, r1
 1448              		.loc 1 205 0
 1449 000a 9A42     		cmp	r2, r3
 1450 000c 03D0     		beq	.L102
 1451              		.loc 1 205 0 is_stmt 0 discriminator 1
 1452 000e 0548     		ldr	r0, .L103+4
 1453              	.LVL151:
 1454 0010 CD21     		movs	r1, #205
 1455              	.LVL152:
 1456 0012 054B     		ldr	r3, .L103+8
 1457 0014 9847     		blx	r3
 1458              	.LVL153:
 1459              	.L102:
 206:/home/tienluong/workspace/atlantis_fw/platform/common/lightheader/src/lightheader.pb-c.c ****   return protobuf_c_message_pack_to_buffer ((const ProtobufCMessage*)message, buffer);
 1460              		.loc 1 206 0 is_stmt 1
 1461 0016 2046     		mov	r0, r4
 1462 0018 2946     		mov	r1, r5
 1463 001a 044B     		ldr	r3, .L103+12
 1464 001c 9847     		blx	r3
 1465              	.LVL154:
 207:/home/tienluong/workspace/atlantis_fw/platform/common/lightheader/src/lightheader.pb-c.c **** }
 1466              		.loc 1 207 0
 1467 001e 38BD     		pop	{r3, r4, r5, pc}
 1468              	.LVL155:
 1469              	.L104:
 1470              		.align	2
 1471              	.L103:
 1472 0020 00000000 		.word	.LANCHOR25
 1473 0024 00000000 		.word	.LANCHOR28
 1474 0028 00000000 		.word	assert_failed
 1475 002c 00000000 		.word	protobuf_c_message_pack_to_buffer
 1476              		.cfi_endproc
 1477              	.LFE28:
 1479              		.section	.text.ltpb__light_header__unpack,"ax",%progbits
 1480              		.align	1
 1481              		.global	ltpb__light_header__unpack
 1482              		.thumb
 1483              		.thumb_func
 1485              	ltpb__light_header__unpack:
 1486              	.LFB29:
 208:/home/tienluong/workspace/atlantis_fw/platform/common/lightheader/src/lightheader.pb-c.c **** LIGHT_HEADER_FUNC Ltpb__LightHeader *
 209:/home/tienluong/workspace/atlantis_fw/platform/common/lightheader/src/lightheader.pb-c.c ****        ltpb__light_header__unpack
 210:/home/tienluong/workspace/atlantis_fw/platform/common/lightheader/src/lightheader.pb-c.c ****                      (ProtobufCAllocator  *allocator,
 211:/home/tienluong/workspace/atlantis_fw/platform/common/lightheader/src/lightheader.pb-c.c ****                       size_t               len,
 212:/home/tienluong/workspace/atlantis_fw/platform/common/lightheader/src/lightheader.pb-c.c ****                       const uint8_t       *data)
 213:/home/tienluong/workspace/atlantis_fw/platform/common/lightheader/src/lightheader.pb-c.c **** {
 1487              		.loc 1 213 0
 1488              		.cfi_startproc
 1489              		@ args = 0, pretend = 0, frame = 0
 1490              		@ frame_needed = 0, uses_anonymous_args = 0
 1491              	.LVL156:
 1492 0000 38B5     		push	{r3, r4, r5, lr}
 1493              	.LCFI28:
 1494              		.cfi_def_cfa_offset 16
 1495              		.cfi_offset 3, -16
 1496              		.cfi_offset 4, -12
 1497              		.cfi_offset 5, -8
 1498              		.cfi_offset 14, -4
 1499              		.loc 1 213 0
 1500 0002 0546     		mov	r5, r0
 1501 0004 0C46     		mov	r4, r1
 1502 0006 1346     		mov	r3, r2
 214:/home/tienluong/workspace/atlantis_fw/platform/common/lightheader/src/lightheader.pb-c.c ****   return (Ltpb__LightHeader *)
 1503              		.loc 1 214 0
 1504 0008 2946     		mov	r1, r5
 1505              	.LVL157:
 1506 000a 2246     		mov	r2, r4
 1507              	.LVL158:
 1508 000c 0148     		ldr	r0, .L106
 1509              	.LVL159:
 1510 000e 024C     		ldr	r4, .L106+4
 1511              	.LVL160:
 1512 0010 A047     		blx	r4
 1513              	.LVL161:
 215:/home/tienluong/workspace/atlantis_fw/platform/common/lightheader/src/lightheader.pb-c.c ****      protobuf_c_message_unpack (&ltpb__light_header__descriptor,
 216:/home/tienluong/workspace/atlantis_fw/platform/common/lightheader/src/lightheader.pb-c.c ****                                 allocator, len, data);
 217:/home/tienluong/workspace/atlantis_fw/platform/common/lightheader/src/lightheader.pb-c.c **** }
 1514              		.loc 1 217 0
 1515 0012 38BD     		pop	{r3, r4, r5, pc}
 1516              	.LVL162:
 1517              	.L107:
 1518              		.align	2
 1519              	.L106:
 1520 0014 00000000 		.word	.LANCHOR25
 1521 0018 00000000 		.word	protobuf_c_message_unpack
 1522              		.cfi_endproc
 1523              	.LFE29:
 1525              		.section	.text.ltpb__light_header__free_unpacked,"ax",%progbits
 1526              		.align	1
 1527              		.global	ltpb__light_header__free_unpacked
 1528              		.thumb
 1529              		.thumb_func
 1531              	ltpb__light_header__free_unpacked:
 1532              	.LFB30:
 218:/home/tienluong/workspace/atlantis_fw/platform/common/lightheader/src/lightheader.pb-c.c **** LIGHT_HEADER_FUNC void   ltpb__light_header__free_unpacked
 219:/home/tienluong/workspace/atlantis_fw/platform/common/lightheader/src/lightheader.pb-c.c ****                      (Ltpb__LightHeader *message,
 220:/home/tienluong/workspace/atlantis_fw/platform/common/lightheader/src/lightheader.pb-c.c ****                       ProtobufCAllocator *allocator)
 221:/home/tienluong/workspace/atlantis_fw/platform/common/lightheader/src/lightheader.pb-c.c **** {
 1533              		.loc 1 221 0
 1534              		.cfi_startproc
 1535              		@ args = 0, pretend = 0, frame = 0
 1536              		@ frame_needed = 0, uses_anonymous_args = 0
 1537              	.LVL163:
 1538 0000 38B5     		push	{r3, r4, r5, lr}
 1539              	.LCFI29:
 1540              		.cfi_def_cfa_offset 16
 1541              		.cfi_offset 3, -16
 1542              		.cfi_offset 4, -12
 1543              		.cfi_offset 5, -8
 1544              		.cfi_offset 14, -4
 222:/home/tienluong/workspace/atlantis_fw/platform/common/lightheader/src/lightheader.pb-c.c ****   assert(message->base.descriptor == &ltpb__light_header__descriptor);
 1545              		.loc 1 222 0
 1546 0002 0268     		ldr	r2, [r0]
 221:/home/tienluong/workspace/atlantis_fw/platform/common/lightheader/src/lightheader.pb-c.c ****   assert(message->base.descriptor == &ltpb__light_header__descriptor);
 1547              		.loc 1 221 0
 1548 0004 0446     		mov	r4, r0
 1549              		.loc 1 222 0
 1550 0006 064B     		ldr	r3, .L110
 221:/home/tienluong/workspace/atlantis_fw/platform/common/lightheader/src/lightheader.pb-c.c ****   assert(message->base.descriptor == &ltpb__light_header__descriptor);
 1551              		.loc 1 221 0
 1552 0008 0D46     		mov	r5, r1
 1553              		.loc 1 222 0
 1554 000a 9A42     		cmp	r2, r3
 1555 000c 03D0     		beq	.L109
 1556              		.loc 1 222 0 is_stmt 0 discriminator 1
 1557 000e 0548     		ldr	r0, .L110+4
 1558              	.LVL164:
 1559 0010 DE21     		movs	r1, #222
 1560              	.LVL165:
 1561 0012 054B     		ldr	r3, .L110+8
 1562 0014 9847     		blx	r3
 1563              	.LVL166:
 1564              	.L109:
 223:/home/tienluong/workspace/atlantis_fw/platform/common/lightheader/src/lightheader.pb-c.c ****   protobuf_c_message_free_unpacked ((ProtobufCMessage*)message, allocator);
 1565              		.loc 1 223 0 is_stmt 1
 1566 0016 2046     		mov	r0, r4
 1567 0018 2946     		mov	r1, r5
 1568 001a 044B     		ldr	r3, .L110+12
 1569 001c 9847     		blx	r3
 1570              	.LVL167:
 1571 001e 38BD     		pop	{r3, r4, r5, pc}
 1572              	.LVL168:
 1573              	.L111:
 1574              		.align	2
 1575              	.L110:
 1576 0020 00000000 		.word	.LANCHOR25
 1577 0024 00000000 		.word	.LANCHOR29
 1578 0028 00000000 		.word	assert_failed
 1579 002c 00000000 		.word	protobuf_c_message_free_unpacked
 1580              		.cfi_endproc
 1581              	.LFE30:
 1583              		.global	ltpb__light_header__descriptor
 1584              		.global	ltpb__sensor_data__descriptor
 1585              		.global	ltpb__color_calibration_gold__descriptor
 1586              		.global	ltpb__factory_module_calibration__descriptor
 1587              		.global	ltpb__factory_device_calibration__descriptor
 1588              		.section	.rodata.ltpb__factory_module_calibration__field_indices_by_name,"a",%progbits
 1589              		.align	2
 1592              	ltpb__factory_module_calibration__field_indices_by_name:
 1593 0000 00000000 		.word	0
 1594 0004 01000000 		.word	1
 1595 0008 05000000 		.word	5
 1596 000c 02000000 		.word	2
 1597 0010 04000000 		.word	4
 1598 0014 06000000 		.word	6
 1599 0018 03000000 		.word	3
 1600              		.section	.rodata.__FUNCTION__.7831,"a",%progbits
 1601              		.set	.LANCHOR18,. + 0
 1604              	__FUNCTION__.7831:
 1605 0000 6C747062 		.ascii	"ltpb__color_calibration_gold__pack_to_buffer\000"
 1605      5F5F636F 
 1605      6C6F725F 
 1605      63616C69 
 1605      62726174 
 1606              		.section	.rodata.ltpb__factory_device_calibration__descriptor,"a",%progbits
 1607              		.align	2
 1608              		.set	.LANCHOR5,. + 0
 1611              	ltpb__factory_device_calibration__descriptor:
 1612 0000 F9EEAA28 		.word	682290937
 1613 0004 B3020000 		.word	.LC43
 1614 0008 D1020000 		.word	.LC44
 1615 000c EA020000 		.word	.LC45
 1616 0010 2F000000 		.word	.LC3
 1617 0014 18000000 		.word	24
 1618 0018 03000000 		.word	3
 1619 001c 00000000 		.word	ltpb__factory_device_calibration__field_descriptors
 1620 0020 00000000 		.word	ltpb__factory_device_calibration__field_indices_by_name
 1621 0024 01000000 		.word	1
 1622 0028 00000000 		.word	ltpb__factory_device_calibration__number_ranges
 1623 002c 00000000 		.word	ltpb__factory_device_calibration__init
 1624 0030 00000000 		.word	0
 1625 0034 00000000 		.word	0
 1626 0038 00000000 		.word	0
 1627              		.section	.rodata.__FUNCTION__.7854,"a",%progbits
 1628              		.set	.LANCHOR22,. + 0
 1631              	__FUNCTION__.7854:
 1632 0000 6C747062 		.ascii	"ltpb__sensor_data__pack\000"
 1632      5F5F7365 
 1632      6E736F72 
 1632      5F646174 
 1632      615F5F70 
 1633              		.section	.rodata.ltpb__light_header__field_descriptors,"a",%progbits
 1634              		.align	2
 1637              	ltpb__light_header__field_descriptors:
 1638 0000 34000000 		.word	.LC4
 1639 0004 01000000 		.word	1
 1640 0008 01       		.byte	1
 1641 0009 08       		.byte	8
 1642 000a 0000     		.space	2
 1643 000c 0C000000 		.word	12
 1644 0010 10000000 		.word	16
 1645 0014 00000000 		.word	0
 1646 0018 00000000 		.word	0
 1647 001c 00000000 		.word	0
 1648 0020 00000000 		.word	0
 1649 0024 00000000 		.word	0
 1650 0028 00000000 		.word	0
 1651 002c 48000000 		.word	.LC5
 1652 0030 02000000 		.word	2
 1653 0034 01       		.byte	1
 1654 0035 08       		.byte	8
 1655 0036 0000     		.space	2
 1656 0038 18000000 		.word	24
 1657 003c 20000000 		.word	32
 1658 0040 00000000 		.word	0
 1659 0044 00000000 		.word	0
 1660 0048 00000000 		.word	0
 1661 004c 00000000 		.word	0
 1662 0050 00000000 		.word	0
 1663 0054 00000000 		.word	0
 1664 0058 5D000000 		.word	.LC6
 1665 005c 03000000 		.word	3
 1666 0060 01       		.byte	1
 1667 0061 10       		.byte	16
 1668 0062 0000     		.space	2
 1669 0064 00000000 		.word	0
 1670 0068 28000000 		.word	40
 1671 006c 00000000 		.word	ltpb__time_stamp__descriptor
 1672 0070 00000000 		.word	0
 1673 0074 00000000 		.word	0
 1674 0078 00000000 		.word	0
 1675 007c 00000000 		.word	0
 1676 0080 00000000 		.word	0
 1677 0084 6E000000 		.word	.LC7
 1678 0088 04000000 		.word	4
 1679 008c 01       		.byte	1
 1680 008d 00       		.byte	0
 1681 008e 0000     		.space	2
 1682 0090 2C000000 		.word	44
 1683 0094 30000000 		.word	48
 1684 0098 00000000 		.word	0
 1685 009c 00000000 		.word	0
 1686 00a0 00000000 		.word	0
 1687 00a4 00000000 		.word	0
 1688 00a8 00000000 		.word	0
 1689 00ac 00000000 		.word	0
 1690 00b0 81000000 		.word	.LC8
 1691 00b4 05000000 		.word	5
 1692 00b8 01       		.byte	1
 1693 00b9 0D       		.byte	13
 1694 00ba 0000     		.space	2
 1695 00bc 34000000 		.word	52
 1696 00c0 38000000 		.word	56
 1697 00c4 00000000 		.word	ltpb__camera_id__descriptor
 1698 00c8 00000000 		.word	0
 1699 00cc 00000000 		.word	0
 1700 00d0 00000000 		.word	0
 1701 00d4 00000000 		.word	0
 1702 00d8 00000000 		.word	0
 1703 00dc 98000000 		.word	.LC9
 1704 00e0 06000000 		.word	6
 1705 00e4 01       		.byte	1
 1706 00e5 08       		.byte	8
 1707 00e6 0000     		.space	2
 1708 00e8 3C000000 		.word	60
 1709 00ec 40000000 		.word	64
 1710 00f0 00000000 		.word	0
 1711 00f4 00000000 		.word	0
 1712 00f8 00000000 		.word	0
 1713 00fc 00000000 		.word	0
 1714 0100 00000000 		.word	0
 1715 0104 00000000 		.word	0
 1716 0108 AD000000 		.word	.LC10
 1717 010c 07000000 		.word	7
 1718 0110 01       		.byte	1
 1719 0111 08       		.byte	8
 1720 0112 0000     		.space	2
 1721 0114 48000000 		.word	72
 1722 0118 50000000 		.word	80
 1723 011c 00000000 		.word	0
 1724 0120 00000000 		.word	0
 1725 0124 00000000 		.word	0
 1726 0128 00000000 		.word	0
 1727 012c 00000000 		.word	0
 1728 0130 00000000 		.word	0
 1729 0134 C3000000 		.word	.LC11
 1730 0138 08000000 		.word	8
 1731 013c 01       		.byte	1
 1732 013d 0E       		.byte	14
 1733 013e 0000     		.space	2
 1734 0140 00000000 		.word	0
 1735 0144 58000000 		.word	88
 1736 0148 00000000 		.word	0
 1737 014c 00000000 		.word	0
 1738 0150 00000000 		.word	0
 1739 0154 00000000 		.word	0
 1740 0158 00000000 		.word	0
 1741 015c 00000000 		.word	0
 1742 0160 D5000000 		.word	.LC12
 1743 0164 09000000 		.word	9
 1744 0168 01       		.byte	1
 1745 0169 0E       		.byte	14
 1746 016a 0000     		.space	2
 1747 016c 00000000 		.word	0
 1748 0170 5C000000 		.word	92
 1749 0174 00000000 		.word	0
 1750 0178 00000000 		.word	0
 1751 017c 00000000 		.word	0
 1752 0180 00000000 		.word	0
 1753 0184 00000000 		.word	0
 1754 0188 00000000 		.word	0
 1755 018c E7000000 		.word	.LC13
 1756 0190 0A000000 		.word	10
 1757 0194 01       		.byte	1
 1758 0195 0E       		.byte	14
 1759 0196 0000     		.space	2
 1760 0198 00000000 		.word	0
 1761 019c 60000000 		.word	96
 1762 01a0 00000000 		.word	0
 1763 01a4 00000000 		.word	0
 1764 01a8 00000000 		.word	0
 1765 01ac 00000000 		.word	0
 1766 01b0 00000000 		.word	0
 1767 01b4 00000000 		.word	0
 1768 01b8 FE000000 		.word	.LC14
 1769 01bc 0B000000 		.word	11
 1770 01c0 01       		.byte	1
 1771 01c1 10       		.byte	16
 1772 01c2 0000     		.space	2
 1773 01c4 00000000 		.word	0
 1774 01c8 64000000 		.word	100
 1775 01cc 00000000 		.word	ltpb__device_temp__descriptor
 1776 01d0 00000000 		.word	0
 1777 01d4 00000000 		.word	0
 1778 01d8 00000000 		.word	0
 1779 01dc 00000000 		.word	0
 1780 01e0 00000000 		.word	0
 1781 01e4 11010000 		.word	.LC15
 1782 01e8 0C000000 		.word	12
 1783 01ec 02       		.byte	2
 1784 01ed 10       		.byte	16
 1785 01ee 0000     		.space	2
 1786 01f0 68000000 		.word	104
 1787 01f4 6C000000 		.word	108
 1788 01f8 00000000 		.word	ltpb__camera_module__descriptor
 1789 01fc 00000000 		.word	0
 1790 0200 00000000 		.word	0
 1791 0204 00000000 		.word	0
 1792 0208 00000000 		.word	0
 1793 020c 00000000 		.word	0
 1794 0210 19010000 		.word	.LC16
 1795 0214 0D000000 		.word	13
 1796 0218 02       		.byte	2
 1797 0219 10       		.byte	16
 1798 021a 0000     		.space	2
 1799 021c 70000000 		.word	112
 1800 0220 74000000 		.word	116
 1801 0224 00000000 		.word	ltpb__factory_module_calibration__descriptor
 1802 0228 00000000 		.word	0
 1803 022c 00000000 		.word	0
 1804 0230 00000000 		.word	0
 1805 0234 00000000 		.word	0
 1806 0238 00000000 		.word	0
 1807 023c 2C010000 		.word	.LC17
 1808 0240 0E000000 		.word	14
 1809 0244 01       		.byte	1
 1810 0245 10       		.byte	16
 1811 0246 0000     		.space	2
 1812 0248 00000000 		.word	0
 1813 024c 78000000 		.word	120
 1814 0250 00000000 		.word	ltpb__factory_device_calibration__descriptor
 1815 0254 00000000 		.word	0
 1816 0258 00000000 		.word	0
 1817 025c 00000000 		.word	0
 1818 0260 00000000 		.word	0
 1819 0264 00000000 		.word	0
 1820 0268 3F010000 		.word	.LC18
 1821 026c 0F000000 		.word	15
 1822 0270 02       		.byte	2
 1823 0271 10       		.byte	16
 1824 0272 0000     		.space	2
 1825 0274 7C000000 		.word	124
 1826 0278 80000000 		.word	128
 1827 027c 00000000 		.word	ltpb__color_calibration_gold__descriptor
 1828 0280 00000000 		.word	0
 1829 0284 00000000 		.word	0
 1830 0288 00000000 		.word	0
 1831 028c 00000000 		.word	0
 1832 0290 00000000 		.word	0
 1833 0294 47010000 		.word	.LC19
 1834 0298 10000000 		.word	16
 1835 029c 02       		.byte	2
 1836 029d 10       		.byte	16
 1837 029e 0000     		.space	2
 1838 02a0 84000000 		.word	132
 1839 02a4 88000000 		.word	136
 1840 02a8 00000000 		.word	ltpb__sensor_data__descriptor
 1841 02ac 00000000 		.word	0
 1842 02b0 00000000 		.word	0
 1843 02b4 00000000 		.word	0
 1844 02b8 00000000 		.word	0
 1845 02bc 00000000 		.word	0
 1846 02c0 53010000 		.word	.LC20
 1847 02c4 11000000 		.word	17
 1848 02c8 01       		.byte	1
 1849 02c9 0A       		.byte	10
 1850 02ca 0000     		.space	2
 1851 02cc 8C000000 		.word	140
 1852 02d0 90000000 		.word	144
 1853 02d4 00000000 		.word	0
 1854 02d8 00000000 		.word	0
 1855 02dc 00000000 		.word	0
 1856 02e0 00000000 		.word	0
 1857 02e4 00000000 		.word	0
 1858 02e8 00000000 		.word	0
 1859 02ec 5D010000 		.word	.LC21
 1860 02f0 12000000 		.word	18
 1861 02f4 01       		.byte	1
 1862 02f5 10       		.byte	16
 1863 02f6 0000     		.space	2
 1864 02f8 00000000 		.word	0
 1865 02fc 94000000 		.word	148
 1866 0300 00000000 		.word	ltpb__hw_info__descriptor
 1867 0304 00000000 		.word	0
 1868 0308 00000000 		.word	0
 1869 030c 00000000 		.word	0
 1870 0310 00000000 		.word	0
 1871 0314 00000000 		.word	0
 1872 0318 65010000 		.word	.LC22
 1873 031c 13000000 		.word	19
 1874 0320 01       		.byte	1
 1875 0321 10       		.byte	16
 1876 0322 0000     		.space	2
 1877 0324 00000000 		.word	0
 1878 0328 98000000 		.word	152
 1879 032c 00000000 		.word	ltpb__view_preferences__descriptor
 1880 0330 00000000 		.word	0
 1881 0334 00000000 		.word	0
 1882 0338 00000000 		.word	0
 1883 033c 00000000 		.word	0
 1884 0340 00000000 		.word	0
 1885 0344 76010000 		.word	.LC23
 1886 0348 14000000 		.word	20
 1887 034c 01       		.byte	1
 1888 034d 10       		.byte	16
 1889 034e 0000     		.space	2
 1890 0350 00000000 		.word	0
 1891 0354 9C000000 		.word	156
 1892 0358 00000000 		.word	ltpb__proximity_sensors__descriptor
 1893 035c 00000000 		.word	0
 1894 0360 00000000 		.word	0
 1895 0364 00000000 		.word	0
 1896 0368 00000000 		.word	0
 1897 036c 00000000 		.word	0
 1898 0370 88010000 		.word	.LC24
 1899 0374 15000000 		.word	21
 1900 0378 01       		.byte	1
 1901 0379 10       		.byte	16
 1902 037a 0000     		.space	2
 1903 037c 00000000 		.word	0
 1904 0380 A0000000 		.word	160
 1905 0384 00000000 		.word	ltpb__imudata__descriptor
 1906 0388 00000000 		.word	0
 1907 038c 00000000 		.word	0
 1908 0390 00000000 		.word	0
 1909 0394 00000000 		.word	0
 1910 0398 00000000 		.word	0
 1911              		.section	.rodata.__FUNCTION__.7859,"a",%progbits
 1912              		.set	.LANCHOR23,. + 0
 1915              	__FUNCTION__.7859:
 1916 0000 6C747062 		.ascii	"ltpb__sensor_data__pack_to_buffer\000"
 1916      5F5F7365 
 1916      6E736F72 
 1916      5F646174 
 1916      615F5F70 
 1917              		.section	.rodata.ltpb__sensor_data__field_descriptors,"a",%progbits
 1918              		.align	2
 1921              	ltpb__sensor_data__field_descriptors:
 1922 0000 BD010000 		.word	.LC28
 1923 0004 01000000 		.word	1
 1924 0008 00       		.byte	0
 1925 0009 0D       		.byte	13
 1926 000a 0000     		.space	2
 1927 000c 00000000 		.word	0
 1928 0010 0C000000 		.word	12
 1929 0014 00000000 		.word	ltpb__sensor_type__descriptor
 1930 0018 00000000 		.word	0
 1931 001c 00000000 		.word	0
 1932 0020 00000000 		.word	0
 1933 0024 00000000 		.word	0
 1934 0028 00000000 		.word	0
 1935 002c C2010000 		.word	.LC29
 1936 0030 02000000 		.word	2
 1937 0034 00       		.byte	0
 1938 0035 10       		.byte	16
 1939 0036 0000     		.space	2
 1940 0038 00000000 		.word	0
 1941 003c 10000000 		.word	16
 1942 0040 00000000 		.word	ltpb__sensor_characterization__descriptor
 1943 0044 00000000 		.word	0
 1944 0048 00000000 		.word	0
 1945 004c 00000000 		.word	0
 1946 0050 00000000 		.word	0
 1947 0054 00000000 		.word	0
 1948 0058 C7010000 		.word	.LC30
 1949 005c 03000000 		.word	3
 1950 0060 01       		.byte	1
 1951 0061 10       		.byte	16
 1952 0062 0000     		.space	2
 1953 0064 00000000 		.word	0
 1954 0068 14000000 		.word	20
 1955 006c 00000000 		.word	ltpb__time_stamp__descriptor
 1956 0070 00000000 		.word	0
 1957 0074 00000000 		.word	0
 1958 0078 00000000 		.word	0
 1959 007c 00000000 		.word	0
 1960 0080 00000000 		.word	0
 1961              		.section	.rodata.__FUNCTION__.7877,"a",%progbits
 1962              		.set	.LANCHOR26,. + 0
 1965              	__FUNCTION__.7877:
 1966 0000 6C747062 		.ascii	"ltpb__light_header__get_packed_size\000"
 1966      5F5F6C69 
 1966      6768745F 
 1966      68656164 
 1966      65725F5F 
 1967              		.section	.rodata.init_value.7817,"a",%progbits
 1968              		.align	2
 1969              		.set	.LANCHOR2,. + 0
 1972              	init_value.7817:
 1973 0000 00000000 		.word	ltpb__color_calibration_gold__descriptor
 1974 0004 00000000 		.word	0
 1975 0008 00000000 		.word	0
 1976 000c 00000000 		.word	0
 1977 0010 00000000 		.word	0
 1978 0014 00000000 		.word	0
 1979 0018 00000000 		.word	0
 1980              		.section	.rodata.ltpb__light_header__descriptor,"a",%progbits
 1981              		.align	2
 1982              		.set	.LANCHOR25,. + 0
 1985              	ltpb__light_header__descriptor:
 1986 0000 F9EEAA28 		.word	682290937
 1987 0004 00000000 		.word	.LC0
 1988 0008 11000000 		.word	.LC1
 1989 000c 1D000000 		.word	.LC2
 1990 0010 2F000000 		.word	.LC3
 1991 0014 A8000000 		.word	168
 1992 0018 15000000 		.word	21
 1993 001c 00000000 		.word	ltpb__light_header__field_descriptors
 1994 0020 00000000 		.word	ltpb__light_header__field_indices_by_name
 1995 0024 01000000 		.word	1
 1996 0028 00000000 		.word	ltpb__light_header__number_ranges
 1997 002c 00000000 		.word	ltpb__light_header__init
 1998 0030 00000000 		.word	0
 1999 0034 00000000 		.word	0
 2000 0038 00000000 		.word	0
 2001              		.section	.rodata.__FUNCTION__.7897,"a",%progbits
 2002              		.set	.LANCHOR29,. + 0
 2005              	__FUNCTION__.7897:
 2006 0000 6C747062 		.ascii	"ltpb__light_header__free_unpacked\000"
 2006      5F5F6C69 
 2006      6768745F 
 2006      68656164 
 2006      65725F5F 
 2007              		.section	.rodata.ltpb__factory_device_calibration__number_ranges,"a",%progbits
 2008              		.align	2
 2011              	ltpb__factory_device_calibration__number_ranges:
 2012 0000 01000000 		.word	1
 2013 0004 00000000 		.word	0
 2014 0008 00000000 		.word	0
 2015 000c 03000000 		.word	3
 2016              		.section	.rodata.__FUNCTION__.7765,"a",%progbits
 2017              		.set	.LANCHOR6,. + 0
 2020              	__FUNCTION__.7765:
 2021 0000 6C747062 		.ascii	"ltpb__factory_device_calibration__get_packed_size\000"
 2021      5F5F6661 
 2021      63746F72 
 2021      795F6465 
 2021      76696365 
 2022              		.section	.rodata.init_value.7873,"a",%progbits
 2023              		.align	3
 2024              		.set	.LANCHOR4,. + 0
 2027              	init_value.7873:
 2028 0000 00000000 		.word	ltpb__light_header__descriptor
 2029 0004 00000000 		.word	0
 2030 0008 00000000 		.word	0
 2031 000c 00000000 		.word	0
 2032 0010 00000000 		.word	0
 2033 0014 00000000 		.word	0
 2034 0018 00000000 		.word	0
 2035 001c 00000000 		.space	4
 2036 0020 00000000 		.word	0
 2037 0024 00000000 		.word	0
 2038 0028 00000000 		.word	0
 2039 002c 00000000 		.word	0
 2040 0030 00000000 		.word	0
 2041 0034 00000000 		.word	0
 2042 0038 00000000 		.word	0
 2043 003c 00000000 		.word	0
 2044 0040 00000000 		.word	0
 2045 0044 00000000 		.word	0
 2046 0048 00000000 		.word	0
 2047 004c 00000000 		.space	4
 2048 0050 00000000 		.word	0
 2049 0054 00000000 		.word	0
 2050 0058 00000000 		.word	0
 2051 005c 00000000 		.word	0
 2052 0060 00000000 		.word	0
 2053 0064 00000000 		.word	0
 2054 0068 00000000 		.word	0
 2055 006c 00000000 		.word	0
 2056 0070 00000000 		.word	0
 2057 0074 00000000 		.word	0
 2058 0078 00000000 		.word	0
 2059 007c 00000000 		.word	0
 2060 0080 00000000 		.word	0
 2061 0084 00000000 		.word	0
 2062 0088 00000000 		.word	0
 2063 008c 00000000 		.word	0
 2064 0090 00000000 		.word	0
 2065 0094 00000000 		.word	0
 2066 0098 00000000 		.word	0
 2067 009c 00000000 		.word	0
 2068 00a0 00000000 		.word	0
 2069 00a4 00000000 		.space	4
 2070              		.section	.rodata.ltpb__color_calibration_gold__number_ranges,"a",%progbits
 2071              		.align	2
 2074              	ltpb__color_calibration_gold__number_ranges:
 2075 0000 01000000 		.word	1
 2076 0004 00000000 		.word	0
 2077 0008 00000000 		.word	0
 2078 000c 03000000 		.word	3
 2079              		.section	.rodata.__FUNCTION__.7785,"a",%progbits
 2080              		.set	.LANCHOR9,. + 0
 2083              	__FUNCTION__.7785:
 2084 0000 6C747062 		.ascii	"ltpb__factory_device_calibration__free_unpacked\000"
 2084      5F5F6661 
 2084      63746F72 
 2084      795F6465 
 2084      76696365 
 2085              		.section	.rodata.ltpb__factory_module_calibration__field_descriptors,"a",%progbits
 2086              		.align	2
 2089              	ltpb__factory_module_calibration__field_descriptors:
 2090 0000 1C020000 		.word	.LC34
 2091 0004 01000000 		.word	1
 2092 0008 00       		.byte	0
 2093 0009 0D       		.byte	13
 2094 000a 0000     		.space	2
 2095 000c 00000000 		.word	0
 2096 0010 0C000000 		.word	12
 2097 0014 00000000 		.word	ltpb__camera_id__descriptor
 2098 0018 00000000 		.word	0
 2099 001c 00000000 		.word	0
 2100 0020 00000000 		.word	0
 2101 0024 00000000 		.word	0
 2102 0028 00000000 		.word	0
 2103 002c 7C020000 		.word	.LC38
 2104 0030 02000000 		.word	2
 2105 0034 02       		.byte	2
 2106 0035 10       		.byte	16
 2107 0036 0000     		.space	2
 2108 0038 10000000 		.word	16
 2109 003c 14000000 		.word	20
 2110 0040 00000000 		.word	ltpb__color_calibration__descriptor
 2111 0044 00000000 		.word	0
 2112 0048 00000000 		.word	0
 2113 004c 00000000 		.word	0
 2114 0050 00000000 		.word	0
 2115 0054 00000000 		.word	0
 2116 0058 82020000 		.word	.LC39
 2117 005c 03000000 		.word	3
 2118 0060 01       		.byte	1
 2119 0061 10       		.byte	16
 2120 0062 0000     		.space	2
 2121 0064 00000000 		.word	0
 2122 0068 18000000 		.word	24
 2123 006c 00000000 		.word	ltpb__geometric_calibration__descriptor
 2124 0070 00000000 		.word	0
 2125 0074 00000000 		.word	0
 2126 0078 00000000 		.word	0
 2127 007c 00000000 		.word	0
 2128 0080 00000000 		.word	0
 2129 0084 8B020000 		.word	.LC40
 2130 0088 04000000 		.word	4
 2131 008c 01       		.byte	1
 2132 008d 10       		.byte	16
 2133 008e 0000     		.space	2
 2134 0090 00000000 		.word	0
 2135 0094 1C000000 		.word	28
 2136 0098 00000000 		.word	ltpb__vignetting_characterization__descriptor
 2137 009c 00000000 		.word	0
 2138 00a0 00000000 		.word	0
 2139 00a4 00000000 		.word	0
 2140 00a8 00000000 		.word	0
 2141 00ac 00000000 		.word	0
 2142 00b0 96020000 		.word	.LC41
 2143 00b4 05000000 		.word	5
 2144 00b8 01       		.byte	1
 2145 00b9 10       		.byte	16
 2146 00ba 0000     		.space	2
 2147 00bc 00000000 		.word	0
 2148 00c0 20000000 		.word	32
 2149 00c4 00000000 		.word	ltpb__hot_pixel_map__descriptor
 2150 00c8 00000000 		.word	0
 2151 00cc 00000000 		.word	0
 2152 00d0 00000000 		.word	0
 2153 00d4 00000000 		.word	0
 2154 00d8 00000000 		.word	0
 2155 00dc A4020000 		.word	.LC42
 2156 00e0 06000000 		.word	6
 2157 00e4 01       		.byte	1
 2158 00e5 10       		.byte	16
 2159 00e6 0000     		.space	2
 2160 00e8 00000000 		.word	0
 2161 00ec 24000000 		.word	36
 2162 00f0 00000000 		.word	ltpb__dead_pixel_map__descriptor
 2163 00f4 00000000 		.word	0
 2164 00f8 00000000 		.word	0
 2165 00fc 00000000 		.word	0
 2166 0100 00000000 		.word	0
 2167 0104 00000000 		.word	0
 2168 0108 C7010000 		.word	.LC30
 2169 010c 07000000 		.word	7
 2170 0110 01       		.byte	1
 2171 0111 10       		.byte	16
 2172 0112 0000     		.space	2
 2173 0114 00000000 		.word	0
 2174 0118 28000000 		.word	40
 2175 011c 00000000 		.word	ltpb__time_stamp__descriptor
 2176 0120 00000000 		.word	0
 2177 0124 00000000 		.word	0
 2178 0128 00000000 		.word	0
 2179 012c 00000000 		.word	0
 2180 0130 00000000 		.word	0
 2181              		.section	.rodata.ltpb__color_calibration_gold__descriptor,"a",%progbits
 2182              		.align	2
 2183              		.set	.LANCHOR15,. + 0
 2186              	ltpb__color_calibration_gold__descriptor:
 2187 0000 F9EEAA28 		.word	682290937
 2188 0004 D2010000 		.word	.LC31
 2189 0008 EC010000 		.word	.LC32
 2190 000c 01020000 		.word	.LC33
 2191 0010 2F000000 		.word	.LC3
 2192 0014 1C000000 		.word	28
 2193 0018 03000000 		.word	3
 2194 001c 00000000 		.word	ltpb__color_calibration_gold__field_descriptors
 2195 0020 00000000 		.word	ltpb__color_calibration_gold__field_indices_by_name
 2196 0024 01000000 		.word	1
 2197 0028 00000000 		.word	ltpb__color_calibration_gold__number_ranges
 2198 002c 00000000 		.word	ltpb__color_calibration_gold__init
 2199 0030 00000000 		.word	0
 2200 0034 00000000 		.word	0
 2201 0038 00000000 		.word	0
 2202              		.section	.rodata.ltpb__light_header__number_ranges,"a",%progbits
 2203              		.align	2
 2206              	ltpb__light_header__number_ranges:
 2207 0000 01000000 		.word	1
 2208 0004 00000000 		.word	0
 2209 0008 00000000 		.word	0
 2210 000c 15000000 		.word	21
 2211              		.section	.rodata.init_value.7761,"a",%progbits
 2212              		.align	2
 2213              		.set	.LANCHOR0,. + 0
 2216              	init_value.7761:
 2217 0000 00000000 		.word	ltpb__factory_device_calibration__descriptor
 2218 0004 00000000 		.word	0
 2219 0008 00000000 		.word	0
 2220 000c 00000000 		.word	0
 2221 0010 00000000 		.word	0
 2222 0014 00000000 		.word	0
 2223              		.section	.rodata.__FUNCTION__.7803,"a",%progbits
 2224              		.set	.LANCHOR13,. + 0
 2227              	__FUNCTION__.7803:
 2228 0000 6C747062 		.ascii	"ltpb__factory_module_calibration__pack_to_buffer\000"
 2228      5F5F6661 
 2228      63746F72 
 2228      795F6D6F 
 2228      64756C65 
 2229              		.section	.rodata.ltpb__sensor_data__field_indices_by_name,"a",%progbits
 2230              		.align	2
 2233              	ltpb__sensor_data__field_indices_by_name:
 2234 0000 01000000 		.word	1
 2235 0004 02000000 		.word	2
 2236 0008 00000000 		.word	0
 2237              		.section	.rodata.__FUNCTION__.7821,"a",%progbits
 2238              		.set	.LANCHOR16,. + 0
 2241              	__FUNCTION__.7821:
 2242 0000 6C747062 		.ascii	"ltpb__color_calibration_gold__get_packed_size\000"
 2242      5F5F636F 
 2242      6C6F725F 
 2242      63616C69 
 2242      62726174 
 2243              		.section	.rodata.ltpb__color_calibration_gold__field_descriptors,"a",%progbits
 2244              		.align	2
 2247              	ltpb__color_calibration_gold__field_descriptors:
 2248 0000 1C020000 		.word	.LC34
 2249 0004 01000000 		.word	1
 2250 0008 00       		.byte	0
 2251 0009 0D       		.byte	13
 2252 000a 0000     		.space	2
 2253 000c 00000000 		.word	0
 2254 0010 0C000000 		.word	12
 2255 0014 00000000 		.word	ltpb__camera_id__descriptor
 2256 0018 00000000 		.word	0
 2257 001c 00000000 		.word	0
 2258 0020 00000000 		.word	0
 2259 0024 00000000 		.word	0
 2260 0028 00000000 		.word	0
 2261 002c C2010000 		.word	.LC29
 2262 0030 02000000 		.word	2
 2263 0034 02       		.byte	2
 2264 0035 10       		.byte	16
 2265 0036 0000     		.space	2
 2266 0038 10000000 		.word	16
 2267 003c 14000000 		.word	20
 2268 0040 00000000 		.word	ltpb__color_calibration__descriptor
 2269 0044 00000000 		.word	0
 2270 0048 00000000 		.word	0
 2271 004c 00000000 		.word	0
 2272 0050 00000000 		.word	0
 2273 0054 00000000 		.word	0
 2274 0058 C7010000 		.word	.LC30
 2275 005c 03000000 		.word	3
 2276 0060 01       		.byte	1
 2277 0061 10       		.byte	16
 2278 0062 0000     		.space	2
 2279 0064 00000000 		.word	0
 2280 0068 18000000 		.word	24
 2281 006c 00000000 		.word	ltpb__time_stamp__descriptor
 2282 0070 00000000 		.word	0
 2283 0074 00000000 		.word	0
 2284 0078 00000000 		.word	0
 2285 007c 00000000 		.word	0
 2286 0080 00000000 		.word	0
 2287              		.section	.rodata.ltpb__light_header__field_indices_by_name,"a",%progbits
 2288              		.align	2
 2291              	ltpb__light_header__field_indices_by_name:
 2292 0000 09000000 		.word	9
 2293 0004 0D000000 		.word	13
 2294 0008 08000000 		.word	8
 2295 000c 07000000 		.word	7
 2296 0010 0A000000 		.word	10
 2297 0014 06000000 		.word	6
 2298 0018 05000000 		.word	5
 2299 001c 0E000000 		.word	14
 2300 0020 11000000 		.word	17
 2301 0024 03000000 		.word	3
 2302 0028 04000000 		.word	4
 2303 002c 02000000 		.word	2
 2304 0030 01000000 		.word	1
 2305 0034 00000000 		.word	0
 2306 0038 14000000 		.word	20
 2307 003c 0C000000 		.word	12
 2308 0040 0B000000 		.word	11
 2309 0044 13000000 		.word	19
 2310 0048 0F000000 		.word	15
 2311 004c 10000000 		.word	16
 2312 0050 12000000 		.word	18
 2313              		.section	.rodata.ltpb__factory_module_calibration__descriptor,"a",%progbits
 2314              		.align	2
 2315              		.set	.LANCHOR10,. + 0
 2318              	ltpb__factory_module_calibration__descriptor:
 2319 0000 F9EEAA28 		.word	682290937
 2320 0004 26020000 		.word	.LC35
 2321 0008 44020000 		.word	.LC36
 2322 000c 5D020000 		.word	.LC37
 2323 0010 2F000000 		.word	.LC3
 2324 0014 2C000000 		.word	44
 2325 0018 07000000 		.word	7
 2326 001c 00000000 		.word	ltpb__factory_module_calibration__field_descriptors
 2327 0020 00000000 		.word	ltpb__factory_module_calibration__field_indices_by_name
 2328 0024 01000000 		.word	1
 2329 0028 00000000 		.word	ltpb__factory_module_calibration__number_ranges
 2330 002c 00000000 		.word	ltpb__factory_module_calibration__init
 2331 0030 00000000 		.word	0
 2332 0034 00000000 		.word	0
 2333 0038 00000000 		.word	0
 2334              		.section	.rodata.__FUNCTION__.7826,"a",%progbits
 2335              		.set	.LANCHOR17,. + 0
 2338              	__FUNCTION__.7826:
 2339 0000 6C747062 		.ascii	"ltpb__color_calibration_gold__pack\000"
 2339      5F5F636F 
 2339      6C6F725F 
 2339      63616C69 
 2339      62726174 
 2340              		.section	.rodata.__FUNCTION__.7841,"a",%progbits
 2341              		.set	.LANCHOR19,. + 0
 2344              	__FUNCTION__.7841:
 2345 0000 6C747062 		.ascii	"ltpb__color_calibration_gold__free_unpacked\000"
 2345      5F5F636F 
 2345      6C6F725F 
 2345      63616C69 
 2345      62726174 
 2346              		.section	.rodata.ltpb__factory_device_calibration__field_indices_by_name,"a",%progbits
 2347              		.align	2
 2350              	ltpb__factory_device_calibration__field_indices_by_name:
 2351 0000 00000000 		.word	0
 2352 0004 02000000 		.word	2
 2353 0008 01000000 		.word	1
 2354              		.section	.rodata.__FUNCTION__.7849,"a",%progbits
 2355              		.set	.LANCHOR21,. + 0
 2358              	__FUNCTION__.7849:
 2359 0000 6C747062 		.ascii	"ltpb__sensor_data__get_packed_size\000"
 2359      5F5F7365 
 2359      6E736F72 
 2359      5F646174 
 2359      615F5F67 
 2360              		.section	.rodata.ltpb__sensor_data__descriptor,"a",%progbits
 2361              		.align	2
 2362              		.set	.LANCHOR20,. + 0
 2365              	ltpb__sensor_data__descriptor:
 2366 0000 F9EEAA28 		.word	682290937
 2367 0004 91010000 		.word	.LC25
 2368 0008 A1010000 		.word	.LC26
 2369 000c AC010000 		.word	.LC27
 2370 0010 2F000000 		.word	.LC3
 2371 0014 18000000 		.word	24
 2372 0018 03000000 		.word	3
 2373 001c 00000000 		.word	ltpb__sensor_data__field_descriptors
 2374 0020 00000000 		.word	ltpb__sensor_data__field_indices_by_name
 2375 0024 01000000 		.word	1
 2376 0028 00000000 		.word	ltpb__sensor_data__number_ranges
 2377 002c 00000000 		.word	ltpb__sensor_data__init
 2378 0030 00000000 		.word	0
 2379 0034 00000000 		.word	0
 2380 0038 00000000 		.word	0
 2381              		.section	.rodata.ltpb__color_calibration_gold__field_indices_by_name,"a",%progbits
 2382              		.align	2
 2385              	ltpb__color_calibration_gold__field_indices_by_name:
 2386 0000 00000000 		.word	0
 2387 0004 01000000 		.word	1
 2388 0008 02000000 		.word	2
 2389              		.section	.rodata.__FUNCTION__.7869,"a",%progbits
 2390              		.set	.LANCHOR24,. + 0
 2393              	__FUNCTION__.7869:
 2394 0000 6C747062 		.ascii	"ltpb__sensor_data__free_unpacked\000"
 2394      5F5F7365 
 2394      6E736F72 
 2394      5F646174 
 2394      615F5F66 
 2395              		.section	.rodata.__FUNCTION__.7887,"a",%progbits
 2396              		.set	.LANCHOR28,. + 0
 2399              	__FUNCTION__.7887:
 2400 0000 6C747062 		.ascii	"ltpb__light_header__pack_to_buffer\000"
 2400      5F5F6C69 
 2400      6768745F 
 2400      68656164 
 2400      65725F5F 
 2401              		.section	.rodata.init_value.7845,"a",%progbits
 2402              		.align	2
 2403              		.set	.LANCHOR3,. + 0
 2406              	init_value.7845:
 2407 0000 00000000 		.word	ltpb__sensor_data__descriptor
 2408 0004 00000000 		.word	0
 2409 0008 00000000 		.word	0
 2410 000c 00000000 		.word	0
 2411 0010 00000000 		.word	0
 2412 0014 00000000 		.word	0
 2413              		.section	.rodata.__FUNCTION__.7770,"a",%progbits
 2414              		.set	.LANCHOR7,. + 0
 2417              	__FUNCTION__.7770:
 2418 0000 6C747062 		.ascii	"ltpb__factory_device_calibration__pack\000"
 2418      5F5F6661 
 2418      63746F72 
 2418      795F6465 
 2418      76696365 
 2419              		.section	.rodata.__FUNCTION__.7775,"a",%progbits
 2420              		.set	.LANCHOR8,. + 0
 2423              	__FUNCTION__.7775:
 2424 0000 6C747062 		.ascii	"ltpb__factory_device_calibration__pack_to_buffer\000"
 2424      5F5F6661 
 2424      63746F72 
 2424      795F6465 
 2424      76696365 
 2425              		.section	.rodata.ltpb__factory_module_calibration__number_ranges,"a",%progbits
 2426              		.align	2
 2429              	ltpb__factory_module_calibration__number_ranges:
 2430 0000 01000000 		.word	1
 2431 0004 00000000 		.word	0
 2432 0008 00000000 		.word	0
 2433 000c 07000000 		.word	7
 2434              		.section	.rodata.__FUNCTION__.7793,"a",%progbits
 2435              		.set	.LANCHOR11,. + 0
 2438              	__FUNCTION__.7793:
 2439 0000 6C747062 		.ascii	"ltpb__factory_module_calibration__get_packed_size\000"
 2439      5F5F6661 
 2439      63746F72 
 2439      795F6D6F 
 2439      64756C65 
 2440              		.section	.rodata.init_value.7789,"a",%progbits
 2441              		.align	2
 2442              		.set	.LANCHOR1,. + 0
 2445              	init_value.7789:
 2446 0000 00000000 		.word	ltpb__factory_module_calibration__descriptor
 2447 0004 00000000 		.word	0
 2448 0008 00000000 		.word	0
 2449 000c 00000000 		.word	0
 2450 0010 00000000 		.word	0
 2451 0014 00000000 		.word	0
 2452 0018 00000000 		.word	0
 2453 001c 00000000 		.word	0
 2454 0020 00000000 		.word	0
 2455 0024 00000000 		.word	0
 2456 0028 00000000 		.word	0
 2457              		.section	.rodata.ltpb__sensor_data__number_ranges,"a",%progbits
 2458              		.align	2
 2461              	ltpb__sensor_data__number_ranges:
 2462 0000 01000000 		.word	1
 2463 0004 00000000 		.word	0
 2464 0008 00000000 		.word	0
 2465 000c 03000000 		.word	3
 2466              		.section	.rodata.__FUNCTION__.7798,"a",%progbits
 2467              		.set	.LANCHOR12,. + 0
 2470              	__FUNCTION__.7798:
 2471 0000 6C747062 		.ascii	"ltpb__factory_module_calibration__pack\000"
 2471      5F5F6661 
 2471      63746F72 
 2471      795F6D6F 
 2471      64756C65 
 2472              		.section	.rodata.ltpb__factory_device_calibration__field_descriptors,"a",%progbits
 2473              		.align	2
 2476              	ltpb__factory_device_calibration__field_descriptors:
 2477 0000 09030000 		.word	.LC46
 2478 0004 01000000 		.word	1
 2479 0008 01       		.byte	1
 2480 0009 10       		.byte	16
 2481 000a 0000     		.space	2
 2482 000c 00000000 		.word	0
 2483 0010 0C000000 		.word	12
 2484 0014 00000000 		.word	ltpb__flash_calibration__descriptor
 2485 0018 00000000 		.word	0
 2486 001c 00000000 		.word	0
 2487 0020 00000000 		.word	0
 2488 0024 00000000 		.word	0
 2489 0028 00000000 		.word	0
 2490 002c 0F030000 		.word	.LC47
 2491 0030 02000000 		.word	2
 2492 0034 01       		.byte	1
 2493 0035 10       		.byte	16
 2494 0036 0000     		.space	2
 2495 0038 00000000 		.word	0
 2496 003c 10000000 		.word	16
 2497 0040 00000000 		.word	ltpb__to_fcalibration__descriptor
 2498 0044 00000000 		.word	0
 2499 0048 00000000 		.word	0
 2500 004c 00000000 		.word	0
 2501 0050 00000000 		.word	0
 2502 0054 00000000 		.word	0
 2503 0058 C7010000 		.word	.LC30
 2504 005c 03000000 		.word	3
 2505 0060 01       		.byte	1
 2506 0061 10       		.byte	16
 2507 0062 0000     		.space	2
 2508 0064 00000000 		.word	0
 2509 0068 14000000 		.word	20
 2510 006c 00000000 		.word	ltpb__time_stamp__descriptor
 2511 0070 00000000 		.word	0
 2512 0074 00000000 		.word	0
 2513 0078 00000000 		.word	0
 2514 007c 00000000 		.word	0
 2515 0080 00000000 		.word	0
 2516              		.section	.rodata.__FUNCTION__.7882,"a",%progbits
 2517              		.set	.LANCHOR27,. + 0
 2520              	__FUNCTION__.7882:
 2521 0000 6C747062 		.ascii	"ltpb__light_header__pack\000"
 2521      5F5F6C69 
 2521      6768745F 
 2521      68656164 
 2521      65725F5F 
 2522              		.section	.rodata.str1.1,"aMS",%progbits,1
 2523              	.LC0:
 2524 0000 6C747062 		.ascii	"ltpb.LightHeader\000"
 2524      2E4C6967 
 2524      68744865 
 2524      61646572 
 2524      00
 2525              	.LC1:
 2526 0011 4C696768 		.ascii	"LightHeader\000"
 2526      74486561 
 2526      64657200 
 2527              	.LC2:
 2528 001d 4C747062 		.ascii	"Ltpb__LightHeader\000"
 2528      5F5F4C69 
 2528      67687448 
 2528      65616465 
 2528      7200
 2529              	.LC3:
 2530 002f 6C747062 		.ascii	"ltpb\000"
 2530      00
 2531              	.LC4:
 2532 0034 696D6167 		.ascii	"image_unique_id_low\000"
 2532      655F756E 
 2532      69717565 
 2532      5F69645F 
 2532      6C6F7700 
 2533              	.LC5:
 2534 0048 696D6167 		.ascii	"image_unique_id_high\000"
 2534      655F756E 
 2534      69717565 
 2534      5F69645F 
 2534      68696768 
 2535              	.LC6:
 2536 005d 696D6167 		.ascii	"image_time_stamp\000"
 2536      655F7469 
 2536      6D655F73 
 2536      74616D70 
 2536      00
 2537              	.LC7:
 2538 006e 696D6167 		.ascii	"image_focal_length\000"
 2538      655F666F 
 2538      63616C5F 
 2538      6C656E67 
 2538      746800
 2539              	.LC8:
 2540 0081 696D6167 		.ascii	"image_reference_camera\000"
 2540      655F7265 
 2540      66657265 
 2540      6E63655F 
 2540      63616D65 
 2541              	.LC9:
 2542 0098 64657669 		.ascii	"device_unique_id_low\000"
 2542      63655F75 
 2542      6E697175 
 2542      655F6964 
 2542      5F6C6F77 
 2543              	.LC10:
 2544 00ad 64657669 		.ascii	"device_unique_id_high\000"
 2544      63655F75 
 2544      6E697175 
 2544      655F6964 
 2544      5F686967 
 2545              	.LC11:
 2546 00c3 64657669 		.ascii	"device_model_name\000"
 2546      63655F6D 
 2546      6F64656C 
 2546      5F6E616D 
 2546      6500
 2547              	.LC12:
 2548 00d5 64657669 		.ascii	"device_fw_version\000"
 2548      63655F66 
 2548      775F7665 
 2548      7273696F 
 2548      6E00
 2549              	.LC13:
 2550 00e7 64657669 		.ascii	"device_asic_fw_version\000"
 2550      63655F61 
 2550      7369635F 
 2550      66775F76 
 2550      65727369 
 2551              	.LC14:
 2552 00fe 64657669 		.ascii	"device_temperature\000"
 2552      63655F74 
 2552      656D7065 
 2552      72617475 
 2552      726500
 2553              	.LC15:
 2554 0111 6D6F6475 		.ascii	"modules\000"
 2554      6C657300 
 2555              	.LC16:
 2556 0119 6D6F6475 		.ascii	"module_calibration\000"
 2556      6C655F63 
 2556      616C6962 
 2556      72617469 
 2556      6F6E00
 2557              	.LC17:
 2558 012c 64657669 		.ascii	"device_calibration\000"
 2558      63655F63 
 2558      616C6962 
 2558      72617469 
 2558      6F6E00
 2559              	.LC18:
 2560 013f 676F6C64 		.ascii	"gold_cc\000"
 2560      5F636300 
 2561              	.LC19:
 2562 0147 73656E73 		.ascii	"sensor_data\000"
 2562      6F725F64 
 2562      61746100 
 2563              	.LC20:
 2564 0153 746F665F 		.ascii	"tof_range\000"
 2564      72616E67 
 2564      6500
 2565              	.LC21:
 2566 015d 68775F69 		.ascii	"hw_info\000"
 2566      6E666F00 
 2567              	.LC22:
 2568 0165 76696577 		.ascii	"view_preferences\000"
 2568      5F707265 
 2568      66657265 
 2568      6E636573 
 2568      00
 2569              	.LC23:
 2570 0176 70726F78 		.ascii	"proximity_sensors\000"
 2570      696D6974 
 2570      795F7365 
 2570      6E736F72 
 2570      7300
 2571              	.LC24:
 2572 0188 696D755F 		.ascii	"imu_data\000"
 2572      64617461 
 2572      00
 2573              	.LC25:
 2574 0191 6C747062 		.ascii	"ltpb.SensorData\000"
 2574      2E53656E 
 2574      736F7244 
 2574      61746100 
 2575              	.LC26:
 2576 01a1 53656E73 		.ascii	"SensorData\000"
 2576      6F724461 
 2576      746100
 2577              	.LC27:
 2578 01ac 4C747062 		.ascii	"Ltpb__SensorData\000"
 2578      5F5F5365 
 2578      6E736F72 
 2578      44617461 
 2578      00
 2579              	.LC28:
 2580 01bd 74797065 		.ascii	"type\000"
 2580      00
 2581              	.LC29:
 2582 01c2 64617461 		.ascii	"data\000"
 2582      00
 2583              	.LC30:
 2584 01c7 74696D65 		.ascii	"time_stamp\000"
 2584      5F737461 
 2584      6D7000
 2585              	.LC31:
 2586 01d2 6C747062 		.ascii	"ltpb.ColorCalibrationGold\000"
 2586      2E436F6C 
 2586      6F724361 
 2586      6C696272 
 2586      6174696F 
 2587              	.LC32:
 2588 01ec 436F6C6F 		.ascii	"ColorCalibrationGold\000"
 2588      7243616C 
 2588      69627261 
 2588      74696F6E 
 2588      476F6C64 
 2589              	.LC33:
 2590 0201 4C747062 		.ascii	"Ltpb__ColorCalibrationGold\000"
 2590      5F5F436F 
 2590      6C6F7243 
 2590      616C6962 
 2590      72617469 
 2591              	.LC34:
 2592 021c 63616D65 		.ascii	"camera_id\000"
 2592      72615F69 
 2592      6400
 2593              	.LC35:
 2594 0226 6C747062 		.ascii	"ltpb.FactoryModuleCalibration\000"
 2594      2E466163 
 2594      746F7279 
 2594      4D6F6475 
 2594      6C654361 
 2595              	.LC36:
 2596 0244 46616374 		.ascii	"FactoryModuleCalibration\000"
 2596      6F72794D 
 2596      6F64756C 
 2596      6543616C 
 2596      69627261 
 2597              	.LC37:
 2598 025d 4C747062 		.ascii	"Ltpb__FactoryModuleCalibration\000"
 2598      5F5F4661 
 2598      63746F72 
 2598      794D6F64 
 2598      756C6543 
 2599              	.LC38:
 2600 027c 636F6C6F 		.ascii	"color\000"
 2600      7200
 2601              	.LC39:
 2602 0282 67656F6D 		.ascii	"geometry\000"
 2602      65747279 
 2602      00
 2603              	.LC40:
 2604 028b 7669676E 		.ascii	"vignetting\000"
 2604      65747469 
 2604      6E6700
 2605              	.LC41:
 2606 0296 686F745F 		.ascii	"hot_pixel_map\000"
 2606      70697865 
 2606      6C5F6D61 
 2606      7000
 2607              	.LC42:
 2608 02a4 64656164 		.ascii	"dead_pixel_map\000"
 2608      5F706978 
 2608      656C5F6D 
 2608      617000
 2609              	.LC43:
 2610 02b3 6C747062 		.ascii	"ltpb.FactoryDeviceCalibration\000"
 2610      2E466163 
 2610      746F7279 
 2610      44657669 
 2610      63654361 
 2611              	.LC44:
 2612 02d1 46616374 		.ascii	"FactoryDeviceCalibration\000"
 2612      6F727944 
 2612      65766963 
 2612      6543616C 
 2612      69627261 
 2613              	.LC45:
 2614 02ea 4C747062 		.ascii	"Ltpb__FactoryDeviceCalibration\000"
 2614      5F5F4661 
 2614      63746F72 
 2614      79446576 
 2614      69636543 
 2615              	.LC46:
 2616 0309 666C6173 		.ascii	"flash\000"
 2616      6800
 2617              	.LC47:
 2618 030f 746F6600 		.ascii	"tof\000"
 2619              		.section	.rodata.__FUNCTION__.7813,"a",%progbits
 2620              		.set	.LANCHOR14,. + 0
 2623              	__FUNCTION__.7813:
 2624 0000 6C747062 		.ascii	"ltpb__factory_module_calibration__free_unpacked\000"
 2624      5F5F6661 
 2624      63746F72 
 2624      795F6D6F 
 2624      64756C65 
 2625              		.text
 2626              	.Letext0:
 2627              		.file 2 "/opt/toolchains/gcc-arm-none-eabi-4_9-2015q1/arm-none-eabi/include/machine/_default_types
 2628              		.file 3 "/opt/toolchains/gcc-arm-none-eabi-4_9-2015q1/lib/gcc/arm-none-eabi/4.9.3/include/stddef.h
 2629              		.file 4 "/opt/toolchains/gcc-arm-none-eabi-4_9-2015q1/arm-none-eabi/include/stdint.h"
 2630              		.file 5 "/home/tienluong/workspace/atlantis_fw/platform/os/Source/portable/GCC/cortex-r4/portmacro
 2631              		.file 6 "/home/tienluong/workspace/atlantis_fw/platform/common/lightheader/include/protobuf-c/prot
 2632              		.file 7 "/home/tienluong/workspace/atlantis_fw/platform/common/lightheader/include/camera_id.pb-c.
 2633              		.file 8 "/home/tienluong/workspace/atlantis_fw/platform/common/lightheader/include/point2i.pb-c.h"
 2634              		.file 9 "/home/tienluong/workspace/atlantis_fw/platform/common/lightheader/include/point2f.pb-c.h"
 2635              		.file 10 "/home/tienluong/workspace/atlantis_fw/platform/common/lightheader/include/camera_module.
 2636              		.file 11 "/home/tienluong/workspace/atlantis_fw/platform/common/lightheader/include/time_stamp.pb-
 2637              		.file 12 "/home/tienluong/workspace/atlantis_fw/platform/common/lightheader/include/matrix3x3f.pb-
 2638              		.file 13 "/home/tienluong/workspace/atlantis_fw/platform/common/lightheader/include/point3f.pb-c.h
 2639              		.file 14 "/home/tienluong/workspace/atlantis_fw/platform/common/lightheader/include/range2f.pb-c.h
 2640              		.file 15 "/home/tienluong/workspace/atlantis_fw/platform/common/lightheader/include/mirror_system.
 2641              		.file 16 "/home/tienluong/workspace/atlantis_fw/platform/common/lightheader/include/distortion.pb-
 2642              		.file 17 "/home/tienluong/workspace/atlantis_fw/platform/common/lightheader/include/device_temp.pb
 2643              		.file 18 "/home/tienluong/workspace/atlantis_fw/platform/common/lightheader/include/geometric_cali
 2644              		.file 19 "/home/tienluong/workspace/atlantis_fw/platform/common/lightheader/include/color_calibrat
 2645              		.file 20 "/home/tienluong/workspace/atlantis_fw/platform/common/lightheader/include/sensor_charact
 2646              		.file 21 "/home/tienluong/workspace/atlantis_fw/platform/common/lightheader/include/matrix4x4f.pb-
 2647              		.file 22 "/home/tienluong/workspace/atlantis_fw/platform/common/lightheader/include/vignetting_cha
 2648              		.file 23 "/home/tienluong/workspace/atlantis_fw/platform/common/lightheader/include/hot_pixel_map.
 2649              		.file 24 "/home/tienluong/workspace/atlantis_fw/platform/common/lightheader/include/dead_pixel_map
 2650              		.file 25 "/home/tienluong/workspace/atlantis_fw/platform/common/lightheader/include/tof_calibratio
 2651              		.file 26 "/home/tienluong/workspace/atlantis_fw/platform/common/lightheader/include/flash_calibrat
 2652              		.file 27 "/home/tienluong/workspace/atlantis_fw/platform/common/lightheader/include/sensor_type.pb
 2653              		.file 28 "/home/tienluong/workspace/atlantis_fw/platform/common/lightheader/include/hw_info.pb-c.h
 2654              		.file 29 "/home/tienluong/workspace/atlantis_fw/platform/common/lightheader/include/view_preferenc
 2655              		.file 30 "/home/tienluong/workspace/atlantis_fw/platform/common/lightheader/include/proximity_sens
 2656              		.file 31 "/home/tienluong/workspace/atlantis_fw/platform/common/lightheader/include/imu_data.pb-c.
 2657              		.file 32 "/home/tienluong/workspace/atlantis_fw/platform/common/lightheader/include/lightheader.pb
DEFINED SYMBOLS
                            *ABS*:00000000 lightheader.pb-c.c
     /tmp/cc7ipv9e.s:19     .text.ltpb__factory_device_calibration__init:00000000 $t
     /tmp/cc7ipv9e.s:24     .text.ltpb__factory_device_calibration__init:00000000 ltpb__factory_device_calibration__init
     /tmp/cc7ipv9e.s:52     .text.ltpb__factory_device_calibration__init:00000014 $d
     /tmp/cc7ipv9e.s:57     .text.ltpb__factory_module_calibration__init:00000000 $t
     /tmp/cc7ipv9e.s:62     .text.ltpb__factory_module_calibration__init:00000000 ltpb__factory_module_calibration__init
     /tmp/cc7ipv9e.s:92     .text.ltpb__factory_module_calibration__init:00000018 $d
     /tmp/cc7ipv9e.s:97     .text.ltpb__color_calibration_gold__init:00000000 $t
     /tmp/cc7ipv9e.s:102    .text.ltpb__color_calibration_gold__init:00000000 ltpb__color_calibration_gold__init
     /tmp/cc7ipv9e.s:129    .text.ltpb__color_calibration_gold__init:00000014 $d
     /tmp/cc7ipv9e.s:134    .text.ltpb__sensor_data__init:00000000 $t
     /tmp/cc7ipv9e.s:139    .text.ltpb__sensor_data__init:00000000 ltpb__sensor_data__init
     /tmp/cc7ipv9e.s:166    .text.ltpb__sensor_data__init:00000014 $d
     /tmp/cc7ipv9e.s:171    .text.ltpb__light_header__init:00000000 $t
     /tmp/cc7ipv9e.s:176    .text.ltpb__light_header__init:00000000 ltpb__light_header__init
     /tmp/cc7ipv9e.s:198    .text.ltpb__light_header__init:0000000c $d
     /tmp/cc7ipv9e.s:204    .text.ltpb__factory_device_calibration__get_packed_size:00000000 $t
     /tmp/cc7ipv9e.s:209    .text.ltpb__factory_device_calibration__get_packed_size:00000000 ltpb__factory_device_calibration__get_packed_size
     /tmp/cc7ipv9e.s:250    .text.ltpb__factory_device_calibration__get_packed_size:0000001c $d
     /tmp/cc7ipv9e.s:258    .text.ltpb__factory_device_calibration__pack:00000000 $t
     /tmp/cc7ipv9e.s:263    .text.ltpb__factory_device_calibration__pack:00000000 ltpb__factory_device_calibration__pack
     /tmp/cc7ipv9e.s:309    .text.ltpb__factory_device_calibration__pack:00000020 $d
     /tmp/cc7ipv9e.s:317    .text.ltpb__factory_device_calibration__pack_to_buffer:00000000 $t
     /tmp/cc7ipv9e.s:322    .text.ltpb__factory_device_calibration__pack_to_buffer:00000000 ltpb__factory_device_calibration__pack_to_buffer
     /tmp/cc7ipv9e.s:368    .text.ltpb__factory_device_calibration__pack_to_buffer:00000020 $d
     /tmp/cc7ipv9e.s:376    .text.ltpb__factory_device_calibration__unpack:00000000 $t
     /tmp/cc7ipv9e.s:381    .text.ltpb__factory_device_calibration__unpack:00000000 ltpb__factory_device_calibration__unpack
     /tmp/cc7ipv9e.s:416    .text.ltpb__factory_device_calibration__unpack:00000014 $d
     /tmp/cc7ipv9e.s:422    .text.ltpb__factory_device_calibration__free_unpacked:00000000 $t
     /tmp/cc7ipv9e.s:427    .text.ltpb__factory_device_calibration__free_unpacked:00000000 ltpb__factory_device_calibration__free_unpacked
     /tmp/cc7ipv9e.s:472    .text.ltpb__factory_device_calibration__free_unpacked:00000020 $d
     /tmp/cc7ipv9e.s:480    .text.ltpb__factory_module_calibration__get_packed_size:00000000 $t
     /tmp/cc7ipv9e.s:485    .text.ltpb__factory_module_calibration__get_packed_size:00000000 ltpb__factory_module_calibration__get_packed_size
     /tmp/cc7ipv9e.s:526    .text.ltpb__factory_module_calibration__get_packed_size:0000001c $d
     /tmp/cc7ipv9e.s:534    .text.ltpb__factory_module_calibration__pack:00000000 $t
     /tmp/cc7ipv9e.s:539    .text.ltpb__factory_module_calibration__pack:00000000 ltpb__factory_module_calibration__pack
     /tmp/cc7ipv9e.s:585    .text.ltpb__factory_module_calibration__pack:00000020 $d
     /tmp/cc7ipv9e.s:593    .text.ltpb__factory_module_calibration__pack_to_buffer:00000000 $t
     /tmp/cc7ipv9e.s:598    .text.ltpb__factory_module_calibration__pack_to_buffer:00000000 ltpb__factory_module_calibration__pack_to_buffer
     /tmp/cc7ipv9e.s:644    .text.ltpb__factory_module_calibration__pack_to_buffer:00000020 $d
     /tmp/cc7ipv9e.s:652    .text.ltpb__factory_module_calibration__unpack:00000000 $t
     /tmp/cc7ipv9e.s:657    .text.ltpb__factory_module_calibration__unpack:00000000 ltpb__factory_module_calibration__unpack
     /tmp/cc7ipv9e.s:692    .text.ltpb__factory_module_calibration__unpack:00000014 $d
     /tmp/cc7ipv9e.s:698    .text.ltpb__factory_module_calibration__free_unpacked:00000000 $t
     /tmp/cc7ipv9e.s:703    .text.ltpb__factory_module_calibration__free_unpacked:00000000 ltpb__factory_module_calibration__free_unpacked
     /tmp/cc7ipv9e.s:748    .text.ltpb__factory_module_calibration__free_unpacked:00000020 $d
     /tmp/cc7ipv9e.s:756    .text.ltpb__color_calibration_gold__get_packed_size:00000000 $t
     /tmp/cc7ipv9e.s:761    .text.ltpb__color_calibration_gold__get_packed_size:00000000 ltpb__color_calibration_gold__get_packed_size
     /tmp/cc7ipv9e.s:802    .text.ltpb__color_calibration_gold__get_packed_size:0000001c $d
     /tmp/cc7ipv9e.s:810    .text.ltpb__color_calibration_gold__pack:00000000 $t
     /tmp/cc7ipv9e.s:815    .text.ltpb__color_calibration_gold__pack:00000000 ltpb__color_calibration_gold__pack
     /tmp/cc7ipv9e.s:861    .text.ltpb__color_calibration_gold__pack:00000020 $d
     /tmp/cc7ipv9e.s:869    .text.ltpb__color_calibration_gold__pack_to_buffer:00000000 $t
     /tmp/cc7ipv9e.s:874    .text.ltpb__color_calibration_gold__pack_to_buffer:00000000 ltpb__color_calibration_gold__pack_to_buffer
     /tmp/cc7ipv9e.s:920    .text.ltpb__color_calibration_gold__pack_to_buffer:00000020 $d
     /tmp/cc7ipv9e.s:928    .text.ltpb__color_calibration_gold__unpack:00000000 $t
     /tmp/cc7ipv9e.s:933    .text.ltpb__color_calibration_gold__unpack:00000000 ltpb__color_calibration_gold__unpack
     /tmp/cc7ipv9e.s:968    .text.ltpb__color_calibration_gold__unpack:00000014 $d
     /tmp/cc7ipv9e.s:974    .text.ltpb__color_calibration_gold__free_unpacked:00000000 $t
     /tmp/cc7ipv9e.s:979    .text.ltpb__color_calibration_gold__free_unpacked:00000000 ltpb__color_calibration_gold__free_unpacked
     /tmp/cc7ipv9e.s:1024   .text.ltpb__color_calibration_gold__free_unpacked:00000020 $d
     /tmp/cc7ipv9e.s:1032   .text.ltpb__sensor_data__get_packed_size:00000000 $t
     /tmp/cc7ipv9e.s:1037   .text.ltpb__sensor_data__get_packed_size:00000000 ltpb__sensor_data__get_packed_size
     /tmp/cc7ipv9e.s:1078   .text.ltpb__sensor_data__get_packed_size:0000001c $d
     /tmp/cc7ipv9e.s:1086   .text.ltpb__sensor_data__pack:00000000 $t
     /tmp/cc7ipv9e.s:1091   .text.ltpb__sensor_data__pack:00000000 ltpb__sensor_data__pack
     /tmp/cc7ipv9e.s:1137   .text.ltpb__sensor_data__pack:00000020 $d
     /tmp/cc7ipv9e.s:1145   .text.ltpb__sensor_data__pack_to_buffer:00000000 $t
     /tmp/cc7ipv9e.s:1150   .text.ltpb__sensor_data__pack_to_buffer:00000000 ltpb__sensor_data__pack_to_buffer
     /tmp/cc7ipv9e.s:1196   .text.ltpb__sensor_data__pack_to_buffer:00000020 $d
     /tmp/cc7ipv9e.s:1204   .text.ltpb__sensor_data__unpack:00000000 $t
     /tmp/cc7ipv9e.s:1209   .text.ltpb__sensor_data__unpack:00000000 ltpb__sensor_data__unpack
     /tmp/cc7ipv9e.s:1244   .text.ltpb__sensor_data__unpack:00000014 $d
     /tmp/cc7ipv9e.s:1250   .text.ltpb__sensor_data__free_unpacked:00000000 $t
     /tmp/cc7ipv9e.s:1255   .text.ltpb__sensor_data__free_unpacked:00000000 ltpb__sensor_data__free_unpacked
     /tmp/cc7ipv9e.s:1300   .text.ltpb__sensor_data__free_unpacked:00000020 $d
     /tmp/cc7ipv9e.s:1308   .text.ltpb__light_header__get_packed_size:00000000 $t
     /tmp/cc7ipv9e.s:1313   .text.ltpb__light_header__get_packed_size:00000000 ltpb__light_header__get_packed_size
     /tmp/cc7ipv9e.s:1354   .text.ltpb__light_header__get_packed_size:0000001c $d
     /tmp/cc7ipv9e.s:1362   .text.ltpb__light_header__pack:00000000 $t
     /tmp/cc7ipv9e.s:1367   .text.ltpb__light_header__pack:00000000 ltpb__light_header__pack
     /tmp/cc7ipv9e.s:1413   .text.ltpb__light_header__pack:00000020 $d
     /tmp/cc7ipv9e.s:1421   .text.ltpb__light_header__pack_to_buffer:00000000 $t
     /tmp/cc7ipv9e.s:1426   .text.ltpb__light_header__pack_to_buffer:00000000 ltpb__light_header__pack_to_buffer
     /tmp/cc7ipv9e.s:1472   .text.ltpb__light_header__pack_to_buffer:00000020 $d
     /tmp/cc7ipv9e.s:1480   .text.ltpb__light_header__unpack:00000000 $t
     /tmp/cc7ipv9e.s:1485   .text.ltpb__light_header__unpack:00000000 ltpb__light_header__unpack
     /tmp/cc7ipv9e.s:1520   .text.ltpb__light_header__unpack:00000014 $d
     /tmp/cc7ipv9e.s:1526   .text.ltpb__light_header__free_unpacked:00000000 $t
     /tmp/cc7ipv9e.s:1531   .text.ltpb__light_header__free_unpacked:00000000 ltpb__light_header__free_unpacked
     /tmp/cc7ipv9e.s:1576   .text.ltpb__light_header__free_unpacked:00000020 $d
     /tmp/cc7ipv9e.s:1985   .rodata.ltpb__light_header__descriptor:00000000 ltpb__light_header__descriptor
     /tmp/cc7ipv9e.s:2365   .rodata.ltpb__sensor_data__descriptor:00000000 ltpb__sensor_data__descriptor
     /tmp/cc7ipv9e.s:2186   .rodata.ltpb__color_calibration_gold__descriptor:00000000 ltpb__color_calibration_gold__descriptor
     /tmp/cc7ipv9e.s:2318   .rodata.ltpb__factory_module_calibration__descriptor:00000000 ltpb__factory_module_calibration__descriptor
     /tmp/cc7ipv9e.s:1611   .rodata.ltpb__factory_device_calibration__descriptor:00000000 ltpb__factory_device_calibration__descriptor
     /tmp/cc7ipv9e.s:1589   .rodata.ltpb__factory_module_calibration__field_indices_by_name:00000000 $d
     /tmp/cc7ipv9e.s:1592   .rodata.ltpb__factory_module_calibration__field_indices_by_name:00000000 ltpb__factory_module_calibration__field_indices_by_name
     /tmp/cc7ipv9e.s:1604   .rodata.__FUNCTION__.7831:00000000 __FUNCTION__.7831
     /tmp/cc7ipv9e.s:1607   .rodata.ltpb__factory_device_calibration__descriptor:00000000 $d
     /tmp/cc7ipv9e.s:2476   .rodata.ltpb__factory_device_calibration__field_descriptors:00000000 ltpb__factory_device_calibration__field_descriptors
     /tmp/cc7ipv9e.s:2350   .rodata.ltpb__factory_device_calibration__field_indices_by_name:00000000 ltpb__factory_device_calibration__field_indices_by_name
     /tmp/cc7ipv9e.s:2011   .rodata.ltpb__factory_device_calibration__number_ranges:00000000 ltpb__factory_device_calibration__number_ranges
     /tmp/cc7ipv9e.s:1631   .rodata.__FUNCTION__.7854:00000000 __FUNCTION__.7854
     /tmp/cc7ipv9e.s:1634   .rodata.ltpb__light_header__field_descriptors:00000000 $d
     /tmp/cc7ipv9e.s:1637   .rodata.ltpb__light_header__field_descriptors:00000000 ltpb__light_header__field_descriptors
     /tmp/cc7ipv9e.s:1915   .rodata.__FUNCTION__.7859:00000000 __FUNCTION__.7859
     /tmp/cc7ipv9e.s:1918   .rodata.ltpb__sensor_data__field_descriptors:00000000 $d
     /tmp/cc7ipv9e.s:1921   .rodata.ltpb__sensor_data__field_descriptors:00000000 ltpb__sensor_data__field_descriptors
     /tmp/cc7ipv9e.s:1965   .rodata.__FUNCTION__.7877:00000000 __FUNCTION__.7877
     /tmp/cc7ipv9e.s:1968   .rodata.init_value.7817:00000000 $d
     /tmp/cc7ipv9e.s:1972   .rodata.init_value.7817:00000000 init_value.7817
     /tmp/cc7ipv9e.s:1981   .rodata.ltpb__light_header__descriptor:00000000 $d
     /tmp/cc7ipv9e.s:2291   .rodata.ltpb__light_header__field_indices_by_name:00000000 ltpb__light_header__field_indices_by_name
     /tmp/cc7ipv9e.s:2206   .rodata.ltpb__light_header__number_ranges:00000000 ltpb__light_header__number_ranges
     /tmp/cc7ipv9e.s:2005   .rodata.__FUNCTION__.7897:00000000 __FUNCTION__.7897
     /tmp/cc7ipv9e.s:2008   .rodata.ltpb__factory_device_calibration__number_ranges:00000000 $d
     /tmp/cc7ipv9e.s:2020   .rodata.__FUNCTION__.7765:00000000 __FUNCTION__.7765
     /tmp/cc7ipv9e.s:2023   .rodata.init_value.7873:00000000 $d
     /tmp/cc7ipv9e.s:2027   .rodata.init_value.7873:00000000 init_value.7873
     /tmp/cc7ipv9e.s:2071   .rodata.ltpb__color_calibration_gold__number_ranges:00000000 $d
     /tmp/cc7ipv9e.s:2074   .rodata.ltpb__color_calibration_gold__number_ranges:00000000 ltpb__color_calibration_gold__number_ranges
     /tmp/cc7ipv9e.s:2083   .rodata.__FUNCTION__.7785:00000000 __FUNCTION__.7785
     /tmp/cc7ipv9e.s:2086   .rodata.ltpb__factory_module_calibration__field_descriptors:00000000 $d
     /tmp/cc7ipv9e.s:2089   .rodata.ltpb__factory_module_calibration__field_descriptors:00000000 ltpb__factory_module_calibration__field_descriptors
     /tmp/cc7ipv9e.s:2182   .rodata.ltpb__color_calibration_gold__descriptor:00000000 $d
     /tmp/cc7ipv9e.s:2247   .rodata.ltpb__color_calibration_gold__field_descriptors:00000000 ltpb__color_calibration_gold__field_descriptors
     /tmp/cc7ipv9e.s:2385   .rodata.ltpb__color_calibration_gold__field_indices_by_name:00000000 ltpb__color_calibration_gold__field_indices_by_name
     /tmp/cc7ipv9e.s:2203   .rodata.ltpb__light_header__number_ranges:00000000 $d
     /tmp/cc7ipv9e.s:2212   .rodata.init_value.7761:00000000 $d
     /tmp/cc7ipv9e.s:2216   .rodata.init_value.7761:00000000 init_value.7761
     /tmp/cc7ipv9e.s:2227   .rodata.__FUNCTION__.7803:00000000 __FUNCTION__.7803
     /tmp/cc7ipv9e.s:2230   .rodata.ltpb__sensor_data__field_indices_by_name:00000000 $d
     /tmp/cc7ipv9e.s:2233   .rodata.ltpb__sensor_data__field_indices_by_name:00000000 ltpb__sensor_data__field_indices_by_name
     /tmp/cc7ipv9e.s:2241   .rodata.__FUNCTION__.7821:00000000 __FUNCTION__.7821
     /tmp/cc7ipv9e.s:2244   .rodata.ltpb__color_calibration_gold__field_descriptors:00000000 $d
     /tmp/cc7ipv9e.s:2288   .rodata.ltpb__light_header__field_indices_by_name:00000000 $d
     /tmp/cc7ipv9e.s:2314   .rodata.ltpb__factory_module_calibration__descriptor:00000000 $d
     /tmp/cc7ipv9e.s:2429   .rodata.ltpb__factory_module_calibration__number_ranges:00000000 ltpb__factory_module_calibration__number_ranges
     /tmp/cc7ipv9e.s:2338   .rodata.__FUNCTION__.7826:00000000 __FUNCTION__.7826
     /tmp/cc7ipv9e.s:2344   .rodata.__FUNCTION__.7841:00000000 __FUNCTION__.7841
     /tmp/cc7ipv9e.s:2347   .rodata.ltpb__factory_device_calibration__field_indices_by_name:00000000 $d
     /tmp/cc7ipv9e.s:2358   .rodata.__FUNCTION__.7849:00000000 __FUNCTION__.7849
     /tmp/cc7ipv9e.s:2361   .rodata.ltpb__sensor_data__descriptor:00000000 $d
     /tmp/cc7ipv9e.s:2461   .rodata.ltpb__sensor_data__number_ranges:00000000 ltpb__sensor_data__number_ranges
     /tmp/cc7ipv9e.s:2382   .rodata.ltpb__color_calibration_gold__field_indices_by_name:00000000 $d
     /tmp/cc7ipv9e.s:2393   .rodata.__FUNCTION__.7869:00000000 __FUNCTION__.7869
     /tmp/cc7ipv9e.s:2399   .rodata.__FUNCTION__.7887:00000000 __FUNCTION__.7887
     /tmp/cc7ipv9e.s:2402   .rodata.init_value.7845:00000000 $d
     /tmp/cc7ipv9e.s:2406   .rodata.init_value.7845:00000000 init_value.7845
     /tmp/cc7ipv9e.s:2417   .rodata.__FUNCTION__.7770:00000000 __FUNCTION__.7770
     /tmp/cc7ipv9e.s:2423   .rodata.__FUNCTION__.7775:00000000 __FUNCTION__.7775
     /tmp/cc7ipv9e.s:2426   .rodata.ltpb__factory_module_calibration__number_ranges:00000000 $d
     /tmp/cc7ipv9e.s:2438   .rodata.__FUNCTION__.7793:00000000 __FUNCTION__.7793
     /tmp/cc7ipv9e.s:2441   .rodata.init_value.7789:00000000 $d
     /tmp/cc7ipv9e.s:2445   .rodata.init_value.7789:00000000 init_value.7789
     /tmp/cc7ipv9e.s:2458   .rodata.ltpb__sensor_data__number_ranges:00000000 $d
     /tmp/cc7ipv9e.s:2470   .rodata.__FUNCTION__.7798:00000000 __FUNCTION__.7798
     /tmp/cc7ipv9e.s:2473   .rodata.ltpb__factory_device_calibration__field_descriptors:00000000 $d
     /tmp/cc7ipv9e.s:2520   .rodata.__FUNCTION__.7882:00000000 __FUNCTION__.7882
     /tmp/cc7ipv9e.s:2623   .rodata.__FUNCTION__.7813:00000000 __FUNCTION__.7813
                     .debug_frame:00000010 $d

UNDEFINED SYMBOLS
memcpy
assert_failed
protobuf_c_message_get_packed_size
protobuf_c_message_pack
protobuf_c_message_pack_to_buffer
protobuf_c_message_unpack
protobuf_c_message_free_unpacked
ltpb__time_stamp__descriptor
ltpb__camera_id__descriptor
ltpb__device_temp__descriptor
ltpb__camera_module__descriptor
ltpb__hw_info__descriptor
ltpb__view_preferences__descriptor
ltpb__proximity_sensors__descriptor
ltpb__imudata__descriptor
ltpb__sensor_type__descriptor
ltpb__sensor_characterization__descriptor
ltpb__color_calibration__descriptor
ltpb__geometric_calibration__descriptor
ltpb__vignetting_characterization__descriptor
ltpb__hot_pixel_map__descriptor
ltpb__dead_pixel_map__descriptor
ltpb__flash_calibration__descriptor
ltpb__to_fcalibration__descriptor
