   1              		.syntax unified
   2              		.cpu cortex-r4
   3              		.fpu softvfp
   4              		.eabi_attribute 20, 1
   5              		.eabi_attribute 21, 1
   6              		.eabi_attribute 23, 3
   7              		.eabi_attribute 24, 1
   8              		.eabi_attribute 25, 1
   9              		.eabi_attribute 26, 1
  10              		.eabi_attribute 30, 4
  11              		.eabi_attribute 34, 1
  12              		.eabi_attribute 18, 4
  13              		.thumb
  14              		.file	"log.c"
  15              		.text
  16              	.Ltext0:
  17              		.cfi_sections	.debug_frame
  18              		.section	.text.get_arg,"ax",%progbits
  19              		.align	1
  20              		.thumb
  21              		.thumb_func
  23              	get_arg:
  24              	.LFB16:
  25              		.file 1 "/home/tienluong/workspace/atlantis_fw/platform/driver/src/log.c"
   1:/home/tienluong/workspace/atlantis_fw/platform/driver/src/log.c **** /*******************************************************************************
   2:/home/tienluong/workspace/atlantis_fw/platform/driver/src/log.c ****  * Copyright (c) 2016, The LightCo
   3:/home/tienluong/workspace/atlantis_fw/platform/driver/src/log.c ****  * All rights reserved.
   4:/home/tienluong/workspace/atlantis_fw/platform/driver/src/log.c ****  * Redistribution and use in source and binary forms, with or without
   5:/home/tienluong/workspace/atlantis_fw/platform/driver/src/log.c ****  * modification, are strictly prohibited without prior permission
   6:/home/tienluong/workspace/atlantis_fw/platform/driver/src/log.c ****  * of The LightCo.
   7:/home/tienluong/workspace/atlantis_fw/platform/driver/src/log.c ****  *
   8:/home/tienluong/workspace/atlantis_fw/platform/driver/src/log.c ****  * @file    log.c
   9:/home/tienluong/workspace/atlantis_fw/platform/driver/src/log.c ****  * @author  The LightCo
  10:/home/tienluong/workspace/atlantis_fw/platform/driver/src/log.c ****  * @version V1.0.0
  11:/home/tienluong/workspace/atlantis_fw/platform/driver/src/log.c ****  * @date    Dec-3-2015
  12:/home/tienluong/workspace/atlantis_fw/platform/driver/src/log.c ****  * @brief   This file contains definitions of the log driver
  13:/home/tienluong/workspace/atlantis_fw/platform/driver/src/log.c ****  *
  14:/home/tienluong/workspace/atlantis_fw/platform/driver/src/log.c ****  ******************************************************************************/
  15:/home/tienluong/workspace/atlantis_fw/platform/driver/src/log.c **** /* Includes ------------------------------------------------------------------*/
  16:/home/tienluong/workspace/atlantis_fw/platform/driver/src/log.c **** #include <stdarg.h>
  17:/home/tienluong/workspace/atlantis_fw/platform/driver/src/log.c **** #include <stdbool.h>
  18:/home/tienluong/workspace/atlantis_fw/platform/driver/src/log.c **** #include <string.h>
  19:/home/tienluong/workspace/atlantis_fw/platform/driver/src/log.c **** #include <ctype.h>
  20:/home/tienluong/workspace/atlantis_fw/platform/driver/src/log.c **** #include <time.h>
  21:/home/tienluong/workspace/atlantis_fw/platform/driver/src/log.c **** #include "assert.h"
  22:/home/tienluong/workspace/atlantis_fw/platform/driver/src/log.c **** #include "os.h"
  23:/home/tienluong/workspace/atlantis_fw/platform/driver/src/log.c **** #include "lcc_cmd_log.h"
  24:/home/tienluong/workspace/atlantis_fw/platform/driver/src/log.c **** #include "lcc_cmd.h"
  25:/home/tienluong/workspace/atlantis_fw/platform/driver/src/log.c **** #include "rtc.h"
  26:/home/tienluong/workspace/atlantis_fw/platform/driver/src/log.c **** #include "ddr_heap.h"
  27:/home/tienluong/workspace/atlantis_fw/platform/driver/src/log.c **** #include "log.h"
  28:/home/tienluong/workspace/atlantis_fw/platform/driver/src/log.c **** 
  29:/home/tienluong/workspace/atlantis_fw/platform/driver/src/log.c **** /* Private define ------------------------------------------------------------*/
  30:/home/tienluong/workspace/atlantis_fw/platform/driver/src/log.c **** /* ASCII character */
  31:/home/tienluong/workspace/atlantis_fw/platform/driver/src/log.c **** #define CNTLQ				0x11
  32:/home/tienluong/workspace/atlantis_fw/platform/driver/src/log.c **** #define CNTLS				0x13
  33:/home/tienluong/workspace/atlantis_fw/platform/driver/src/log.c **** #define DEL					0x7F
  34:/home/tienluong/workspace/atlantis_fw/platform/driver/src/log.c **** #define BACKSPACE			0x08
  35:/home/tienluong/workspace/atlantis_fw/platform/driver/src/log.c **** #define CR					0x0D
  36:/home/tienluong/workspace/atlantis_fw/platform/driver/src/log.c **** #define LF					0x0A
  37:/home/tienluong/workspace/atlantis_fw/platform/driver/src/log.c **** #define ESC					0x1B
  38:/home/tienluong/workspace/atlantis_fw/platform/driver/src/log.c **** #define CTRL_C				0x03
  39:/home/tienluong/workspace/atlantis_fw/platform/driver/src/log.c **** #define CTRL_D				0x04
  40:/home/tienluong/workspace/atlantis_fw/platform/driver/src/log.c **** #define TAB					0x09
  41:/home/tienluong/workspace/atlantis_fw/platform/driver/src/log.c **** 
  42:/home/tienluong/workspace/atlantis_fw/platform/driver/src/log.c **** #define BB_COUNT			(sizeof(bb)/sizeof(bb[0]))
  43:/home/tienluong/workspace/atlantis_fw/platform/driver/src/log.c **** 
  44:/home/tienluong/workspace/atlantis_fw/platform/driver/src/log.c **** #define SLOG_INFO_HEADER	"\033[92mINFO\t: "
  45:/home/tienluong/workspace/atlantis_fw/platform/driver/src/log.c **** #define SLOG_FATAL_HEADER	"\033[91mFATAL\t: "
  46:/home/tienluong/workspace/atlantis_fw/platform/driver/src/log.c **** #define SLOG_ERROR_HEADER	"\033[91mERROR\t: "
  47:/home/tienluong/workspace/atlantis_fw/platform/driver/src/log.c **** #define SLOG_WARN_HEADER	"\033[93mWARN\t: "
  48:/home/tienluong/workspace/atlantis_fw/platform/driver/src/log.c **** #define SLOG_DEBUG_HEADER	"\033[39mDEBUG\t: "
  49:/home/tienluong/workspace/atlantis_fw/platform/driver/src/log.c **** 
  50:/home/tienluong/workspace/atlantis_fw/platform/driver/src/log.c **** #define SLOG_CIRC_BUFFER_SIZE (512 * 1024)
  51:/home/tienluong/workspace/atlantis_fw/platform/driver/src/log.c **** #define MAX_LOG_STRING_LEN  512
  52:/home/tienluong/workspace/atlantis_fw/platform/driver/src/log.c **** 
  53:/home/tienluong/workspace/atlantis_fw/platform/driver/src/log.c **** #if(LOG_VERBOSE == STD_ON)
  54:/home/tienluong/workspace/atlantis_fw/platform/driver/src/log.c **** #define LOG_DBG(...)		{ \
  55:/home/tienluong/workspace/atlantis_fw/platform/driver/src/log.c **** 								fprintf(stderr, ##__VA_ARGS__); \
  56:/home/tienluong/workspace/atlantis_fw/platform/driver/src/log.c **** 								slog_w_new_msg = 1; \
  57:/home/tienluong/workspace/atlantis_fw/platform/driver/src/log.c **** 								xSemaphoreGive(slog_semaphore); \
  58:/home/tienluong/workspace/atlantis_fw/platform/driver/src/log.c **** 							}
  59:/home/tienluong/workspace/atlantis_fw/platform/driver/src/log.c **** 
  60:/home/tienluong/workspace/atlantis_fw/platform/driver/src/log.c **** #else
  61:/home/tienluong/workspace/atlantis_fw/platform/driver/src/log.c **** #define LOG_DBG(...)
  62:/home/tienluong/workspace/atlantis_fw/platform/driver/src/log.c **** #endif
  63:/home/tienluong/workspace/atlantis_fw/platform/driver/src/log.c **** /* Private typedef -----------------------------------------------------------*/
  64:/home/tienluong/workspace/atlantis_fw/platform/driver/src/log.c **** /**
  65:/home/tienluong/workspace/atlantis_fw/platform/driver/src/log.c ****  * busybox_t typedef
  66:/home/tienluong/workspace/atlantis_fw/platform/driver/src/log.c ****  */
  67:/home/tienluong/workspace/atlantis_fw/platform/driver/src/log.c **** typedef struct busybox
  68:/home/tienluong/workspace/atlantis_fw/platform/driver/src/log.c **** {
  69:/home/tienluong/workspace/atlantis_fw/platform/driver/src/log.c **** 	char name[8];
  70:/home/tienluong/workspace/atlantis_fw/platform/driver/src/log.c **** 	void (*f)(char *p);
  71:/home/tienluong/workspace/atlantis_fw/platform/driver/src/log.c **** 	const char *usage;
  72:/home/tienluong/workspace/atlantis_fw/platform/driver/src/log.c **** } busybox_t;
  73:/home/tienluong/workspace/atlantis_fw/platform/driver/src/log.c **** 
  74:/home/tienluong/workspace/atlantis_fw/platform/driver/src/log.c **** /**
  75:/home/tienluong/workspace/atlantis_fw/platform/driver/src/log.c ****  * slog_data_t structure
  76:/home/tienluong/workspace/atlantis_fw/platform/driver/src/log.c ****  */
  77:/home/tienluong/workspace/atlantis_fw/platform/driver/src/log.c **** typedef struct
  78:/home/tienluong/workspace/atlantis_fw/platform/driver/src/log.c **** {
  79:/home/tienluong/workspace/atlantis_fw/platform/driver/src/log.c **** 	char *str;
  80:/home/tienluong/workspace/atlantis_fw/platform/driver/src/log.c **** 	uint8_t id;
  81:/home/tienluong/workspace/atlantis_fw/platform/driver/src/log.c **** } slog_data_t;
  82:/home/tienluong/workspace/atlantis_fw/platform/driver/src/log.c **** 
  83:/home/tienluong/workspace/atlantis_fw/platform/driver/src/log.c **** typedef struct
  84:/home/tienluong/workspace/atlantis_fw/platform/driver/src/log.c **** {
  85:/home/tienluong/workspace/atlantis_fw/platform/driver/src/log.c ****     char *buffer_start;
  86:/home/tienluong/workspace/atlantis_fw/platform/driver/src/log.c ****     const char *buffer_end;
  87:/home/tienluong/workspace/atlantis_fw/platform/driver/src/log.c ****     const char *buffer_wrap_th;
  88:/home/tienluong/workspace/atlantis_fw/platform/driver/src/log.c ****     const char *read_p;
  89:/home/tienluong/workspace/atlantis_fw/platform/driver/src/log.c ****     const char *buffer_used_end;
  90:/home/tienluong/workspace/atlantis_fw/platform/driver/src/log.c ****     char *write_p;
  91:/home/tienluong/workspace/atlantis_fw/platform/driver/src/log.c ****     SemaphoreHandle_t rwp_mutex;
  92:/home/tienluong/workspace/atlantis_fw/platform/driver/src/log.c **** } log_circ_buffer_t;
  93:/home/tienluong/workspace/atlantis_fw/platform/driver/src/log.c **** 
  94:/home/tienluong/workspace/atlantis_fw/platform/driver/src/log.c **** /* Private function_ ---------------------------------------------------------*/
  95:/home/tienluong/workspace/atlantis_fw/platform/driver/src/log.c **** static void     com_irq_handler(uint8_t c);
  96:/home/tienluong/workspace/atlantis_fw/platform/driver/src/log.c **** static uint8_t  getline(char *str);
  97:/home/tienluong/workspace/atlantis_fw/platform/driver/src/log.c **** static char    *get_arg(char *cp, char **pNext);
  98:/home/tienluong/workspace/atlantis_fw/platform/driver/src/log.c **** static char    *get_opt(char *cp, char **pNext, char bc);
  99:/home/tienluong/workspace/atlantis_fw/platform/driver/src/log.c **** static unsigned long rtc_second_diff(
 100:/home/tienluong/workspace/atlantis_fw/platform/driver/src/log.c **** 	uint16_t st_day,
 101:/home/tienluong/workspace/atlantis_fw/platform/driver/src/log.c **** 	uint16_t st_month,
 102:/home/tienluong/workspace/atlantis_fw/platform/driver/src/log.c **** 	uint16_t st_year,
 103:/home/tienluong/workspace/atlantis_fw/platform/driver/src/log.c **** 	uint16_t fs_day,
 104:/home/tienluong/workspace/atlantis_fw/platform/driver/src/log.c **** 	uint16_t fs_month,
 105:/home/tienluong/workspace/atlantis_fw/platform/driver/src/log.c **** 	uint16_t fs_year,
 106:/home/tienluong/workspace/atlantis_fw/platform/driver/src/log.c **** 	uint16_t fs_hour,
 107:/home/tienluong/workspace/atlantis_fw/platform/driver/src/log.c **** 	uint16_t fs_min,
 108:/home/tienluong/workspace/atlantis_fw/platform/driver/src/log.c **** 	uint16_t fs_sec);
 109:/home/tienluong/workspace/atlantis_fw/platform/driver/src/log.c **** static unsigned long rtc_parse(char *time, char *date);
 110:/home/tienluong/workspace/atlantis_fw/platform/driver/src/log.c **** 
 111:/home/tienluong/workspace/atlantis_fw/platform/driver/src/log.c **** /* Command promt */
 112:/home/tienluong/workspace/atlantis_fw/platform/driver/src/log.c **** static void bb_slog(char *p);
 113:/home/tienluong/workspace/atlantis_fw/platform/driver/src/log.c **** static void bb_use(char *p);
 114:/home/tienluong/workspace/atlantis_fw/platform/driver/src/log.c **** static void bb_clear(char *p);
 115:/home/tienluong/workspace/atlantis_fw/platform/driver/src/log.c **** static void bb_reset(char *p);
 116:/home/tienluong/workspace/atlantis_fw/platform/driver/src/log.c **** static void bb_kill(char *p);
 117:/home/tienluong/workspace/atlantis_fw/platform/driver/src/log.c **** static void bb_ps(char *p);
 118:/home/tienluong/workspace/atlantis_fw/platform/driver/src/log.c **** static void bb_time(char *p);
 119:/home/tienluong/workspace/atlantis_fw/platform/driver/src/log.c **** static void bb_thermal(char *p);
 120:/home/tienluong/workspace/atlantis_fw/platform/driver/src/log.c **** #if (_TRACE_ENABLE == 1)
 121:/home/tienluong/workspace/atlantis_fw/platform/driver/src/log.c **** static void bb_trace(char *p);
 122:/home/tienluong/workspace/atlantis_fw/platform/driver/src/log.c **** #endif /* _TRACE_ENABLE */
 123:/home/tienluong/workspace/atlantis_fw/platform/driver/src/log.c **** static void bb_cam(char *p);
 124:/home/tienluong/workspace/atlantis_fw/platform/driver/src/log.c **** static void bb_cmd_log(char *p);
 125:/home/tienluong/workspace/atlantis_fw/platform/driver/src/log.c **** 
 126:/home/tienluong/workspace/atlantis_fw/platform/driver/src/log.c **** /* Private variables ---------------------------------------------------------*/
 127:/home/tienluong/workspace/atlantis_fw/platform/driver/src/log.c **** static uint8_t usart_data;
 128:/home/tienluong/workspace/atlantis_fw/platform/driver/src/log.c **** /* Local com driver configure */
 129:/home/tienluong/workspace/atlantis_fw/platform/driver/src/log.c **** static hal_com_t com_dbg =
 130:/home/tienluong/workspace/atlantis_fw/platform/driver/src/log.c **** {
 131:/home/tienluong/workspace/atlantis_fw/platform/driver/src/log.c **** 	.port_name		= CFG_LOG_DEBUG_PORT,
 132:/home/tienluong/workspace/atlantis_fw/platform/driver/src/log.c **** 	.baudrate		= CFG_LOG_DEBUG_BAUDRATE,
 133:/home/tienluong/workspace/atlantis_fw/platform/driver/src/log.c **** 	.irq_handler	= com_irq_handler,
 134:/home/tienluong/workspace/atlantis_fw/platform/driver/src/log.c **** 	.data			= &usart_data
 135:/home/tienluong/workspace/atlantis_fw/platform/driver/src/log.c **** };
 136:/home/tienluong/workspace/atlantis_fw/platform/driver/src/log.c **** 
 137:/home/tienluong/workspace/atlantis_fw/platform/driver/src/log.c **** /* Slog queue */
 138:/home/tienluong/workspace/atlantis_fw/platform/driver/src/log.c **** static bool slog_w = true;
 139:/home/tienluong/workspace/atlantis_fw/platform/driver/src/log.c **** static uint8_t slog_w_new_msg;
 140:/home/tienluong/workspace/atlantis_fw/platform/driver/src/log.c **** static uint8_t slog_w_new_ch;
 141:/home/tienluong/workspace/atlantis_fw/platform/driver/src/log.c **** static SemaphoreHandle_t slog_semaphore;
 142:/home/tienluong/workspace/atlantis_fw/platform/driver/src/log.c **** static SemaphoreHandle_t slog_tx_semaphore;
 143:/home/tienluong/workspace/atlantis_fw/platform/driver/src/log.c **** static SemaphoreHandle_t log_semaphore;
 144:/home/tienluong/workspace/atlantis_fw/platform/driver/src/log.c **** static xQueueHandle data;
 145:/home/tienluong/workspace/atlantis_fw/platform/driver/src/log.c **** static const char *msg_header[5] =
 146:/home/tienluong/workspace/atlantis_fw/platform/driver/src/log.c **** {	SLOG_FATAL_HEADER,
 147:/home/tienluong/workspace/atlantis_fw/platform/driver/src/log.c **** 	SLOG_ERROR_HEADER,
 148:/home/tienluong/workspace/atlantis_fw/platform/driver/src/log.c **** 	SLOG_WARN_HEADER,
 149:/home/tienluong/workspace/atlantis_fw/platform/driver/src/log.c **** 	SLOG_INFO_HEADER,
 150:/home/tienluong/workspace/atlantis_fw/platform/driver/src/log.c **** 	SLOG_DEBUG_HEADER
 151:/home/tienluong/workspace/atlantis_fw/platform/driver/src/log.c **** };
 152:/home/tienluong/workspace/atlantis_fw/platform/driver/src/log.c **** static log_circ_buffer_t slog_circ_buffer;
 153:/home/tienluong/workspace/atlantis_fw/platform/driver/src/log.c **** static uint32_t num_dropped_logs = 0;
 154:/home/tienluong/workspace/atlantis_fw/platform/driver/src/log.c **** 
 155:/home/tienluong/workspace/atlantis_fw/platform/driver/src/log.c **** /* Busybox list */
 156:/home/tienluong/workspace/atlantis_fw/platform/driver/src/log.c **** static const busybox_t bb[] =
 157:/home/tienluong/workspace/atlantis_fw/platform/driver/src/log.c **** {
 158:/home/tienluong/workspace/atlantis_fw/platform/driver/src/log.c **** 	{"slog", bb_slog,
 159:/home/tienluong/workspace/atlantis_fw/platform/driver/src/log.c **** 	"\tslog  \t [-e enable multi write] "
 160:/home/tienluong/workspace/atlantis_fw/platform/driver/src/log.c **** 	"[-d disable multi write] "
 161:/home/tienluong/workspace/atlantis_fw/platform/driver/src/log.c **** 	"[-l log level]\r\n"
 162:/home/tienluong/workspace/atlantis_fw/platform/driver/src/log.c **** 	},
 163:/home/tienluong/workspace/atlantis_fw/platform/driver/src/log.c **** 	{"use", bb_use,
 164:/home/tienluong/workspace/atlantis_fw/platform/driver/src/log.c **** 	"\tuse   \t [command name]\r\n"
 165:/home/tienluong/workspace/atlantis_fw/platform/driver/src/log.c **** 	},
 166:/home/tienluong/workspace/atlantis_fw/platform/driver/src/log.c **** 	{"clear", bb_clear,
 167:/home/tienluong/workspace/atlantis_fw/platform/driver/src/log.c **** 	"\tclear \t [clear screen]\r\n"
 168:/home/tienluong/workspace/atlantis_fw/platform/driver/src/log.c **** 	},
 169:/home/tienluong/workspace/atlantis_fw/platform/driver/src/log.c **** 	{"reset", bb_reset,
 170:/home/tienluong/workspace/atlantis_fw/platform/driver/src/log.c **** 	"\treset \t [reset system]\r\n"
 171:/home/tienluong/workspace/atlantis_fw/platform/driver/src/log.c **** 	},
 172:/home/tienluong/workspace/atlantis_fw/platform/driver/src/log.c **** 	{"kill", bb_kill,
 173:/home/tienluong/workspace/atlantis_fw/platform/driver/src/log.c **** 	"\tkill  \t [task name]\r\n"
 174:/home/tienluong/workspace/atlantis_fw/platform/driver/src/log.c **** 	},
 175:/home/tienluong/workspace/atlantis_fw/platform/driver/src/log.c **** 	{"ps", bb_ps,
 176:/home/tienluong/workspace/atlantis_fw/platform/driver/src/log.c **** 	"\tps    \t [-a tasks list ] "
 177:/home/tienluong/workspace/atlantis_fw/platform/driver/src/log.c **** 	"[-t task trace ]\r\n"
 178:/home/tienluong/workspace/atlantis_fw/platform/driver/src/log.c **** 	},
 179:/home/tienluong/workspace/atlantis_fw/platform/driver/src/log.c **** 	{"time", bb_time,
 180:/home/tienluong/workspace/atlantis_fw/platform/driver/src/log.c **** 	"\ttime  \t [shows local time ] "
 181:/home/tienluong/workspace/atlantis_fw/platform/driver/src/log.c **** 	"[-s 'hh:mm:ss dd/mm/yyyy' settings date time ]\r\n"
 182:/home/tienluong/workspace/atlantis_fw/platform/driver/src/log.c **** 	},
 183:/home/tienluong/workspace/atlantis_fw/platform/driver/src/log.c **** 	{"temp", bb_thermal,
 184:/home/tienluong/workspace/atlantis_fw/platform/driver/src/log.c **** 	"\ttemp  \t [shows board temperature ]\r\n"
 185:/home/tienluong/workspace/atlantis_fw/platform/driver/src/log.c **** 	},
 186:/home/tienluong/workspace/atlantis_fw/platform/driver/src/log.c **** #if (_TRACE_ENABLE == 1)
 187:/home/tienluong/workspace/atlantis_fw/platform/driver/src/log.c **** 	{"trace", bb_trace,
 188:/home/tienluong/workspace/atlantis_fw/platform/driver/src/log.c **** 	"\ttrace \t [-s start kernel trace ] "
 189:/home/tienluong/workspace/atlantis_fw/platform/driver/src/log.c **** 	"[-p stop kernel trace]\r\n"
 190:/home/tienluong/workspace/atlantis_fw/platform/driver/src/log.c **** 	},
 191:/home/tienluong/workspace/atlantis_fw/platform/driver/src/log.c **** #endif /* _TRACE_ENABLE */
 192:/home/tienluong/workspace/atlantis_fw/platform/driver/src/log.c **** 	{"cam", bb_cam,
 193:/home/tienluong/workspace/atlantis_fw/platform/driver/src/log.c **** 	"\tcam   \t [cam_name] properties detail\r\n"
 194:/home/tienluong/workspace/atlantis_fw/platform/driver/src/log.c **** 	},
 195:/home/tienluong/workspace/atlantis_fw/platform/driver/src/log.c **** 	{"cmdlog", bb_cmd_log,
 196:/home/tienluong/workspace/atlantis_fw/platform/driver/src/log.c **** 	"\tcmdlog\t [-d ID to delete] "
 197:/home/tienluong/workspace/atlantis_fw/platform/driver/src/log.c **** 	"[-c clear all ] shows command log from host\r\n"
 198:/home/tienluong/workspace/atlantis_fw/platform/driver/src/log.c **** 	},
 199:/home/tienluong/workspace/atlantis_fw/platform/driver/src/log.c **** };
 200:/home/tienluong/workspace/atlantis_fw/platform/driver/src/log.c **** 
 201:/home/tienluong/workspace/atlantis_fw/platform/driver/src/log.c **** /* Exported variables --------------------------------------------------------*/
 202:/home/tienluong/workspace/atlantis_fw/platform/driver/src/log.c **** extern lcc_cmd_log_queue_t *lcc_cmd_log;		/* LCC Command log */
 203:/home/tienluong/workspace/atlantis_fw/platform/driver/src/log.c **** 
 204:/home/tienluong/workspace/atlantis_fw/platform/driver/src/log.c **** /* Exported functions --------------------------------------------------------*/
 205:/home/tienluong/workspace/atlantis_fw/platform/driver/src/log.c **** 
 206:/home/tienluong/workspace/atlantis_fw/platform/driver/src/log.c **** /*
 207:/home/tienluong/workspace/atlantis_fw/platform/driver/src/log.c ****  * _write
 208:/home/tienluong/workspace/atlantis_fw/platform/driver/src/log.c ****  * Retarget printf function with USART IP
 209:/home/tienluong/workspace/atlantis_fw/platform/driver/src/log.c ****  */
 210:/home/tienluong/workspace/atlantis_fw/platform/driver/src/log.c **** int _write(int file, char *ptr, int len)
 211:/home/tienluong/workspace/atlantis_fw/platform/driver/src/log.c **** {
 212:/home/tienluong/workspace/atlantis_fw/platform/driver/src/log.c **** 	int n;
 213:/home/tienluong/workspace/atlantis_fw/platform/driver/src/log.c **** 	for (n = 0; n < len; n++)
 214:/home/tienluong/workspace/atlantis_fw/platform/driver/src/log.c **** 	{
 215:/home/tienluong/workspace/atlantis_fw/platform/driver/src/log.c **** 		*(com_dbg.data) = *ptr++;
 216:/home/tienluong/workspace/atlantis_fw/platform/driver/src/log.c **** 		hal_com_sendbyte(&com_dbg);
 217:/home/tienluong/workspace/atlantis_fw/platform/driver/src/log.c **** 	}
 218:/home/tienluong/workspace/atlantis_fw/platform/driver/src/log.c **** 	return n;
 219:/home/tienluong/workspace/atlantis_fw/platform/driver/src/log.c **** }
 220:/home/tienluong/workspace/atlantis_fw/platform/driver/src/log.c **** 
 221:/home/tienluong/workspace/atlantis_fw/platform/driver/src/log.c **** /*
 222:/home/tienluong/workspace/atlantis_fw/platform/driver/src/log.c ****  * _read
 223:/home/tienluong/workspace/atlantis_fw/platform/driver/src/log.c ****  * Retarget scanf function with USART IP
 224:/home/tienluong/workspace/atlantis_fw/platform/driver/src/log.c ****  */
 225:/home/tienluong/workspace/atlantis_fw/platform/driver/src/log.c **** int _read(int file, char *ptr, int len)
 226:/home/tienluong/workspace/atlantis_fw/platform/driver/src/log.c **** {
 227:/home/tienluong/workspace/atlantis_fw/platform/driver/src/log.c **** 	int CharCnt = 0x00;
 228:/home/tienluong/workspace/atlantis_fw/platform/driver/src/log.c **** 	while(CharCnt < len)
 229:/home/tienluong/workspace/atlantis_fw/platform/driver/src/log.c **** 	{
 230:/home/tienluong/workspace/atlantis_fw/platform/driver/src/log.c **** 		hal_com_readbyte(&com_dbg);
 231:/home/tienluong/workspace/atlantis_fw/platform/driver/src/log.c **** 		*ptr++ = *(com_dbg.data);
 232:/home/tienluong/workspace/atlantis_fw/platform/driver/src/log.c **** 		CharCnt++;
 233:/home/tienluong/workspace/atlantis_fw/platform/driver/src/log.c **** 	}
 234:/home/tienluong/workspace/atlantis_fw/platform/driver/src/log.c **** 	return CharCnt;
 235:/home/tienluong/workspace/atlantis_fw/platform/driver/src/log.c **** }
 236:/home/tienluong/workspace/atlantis_fw/platform/driver/src/log.c **** 
 237:/home/tienluong/workspace/atlantis_fw/platform/driver/src/log.c **** /**
 238:/home/tienluong/workspace/atlantis_fw/platform/driver/src/log.c **** * log_init
 239:/home/tienluong/workspace/atlantis_fw/platform/driver/src/log.c **** * Initialize usart channel and necessary components for console function
 240:/home/tienluong/workspace/atlantis_fw/platform/driver/src/log.c **** */
 241:/home/tienluong/workspace/atlantis_fw/platform/driver/src/log.c **** void log_init(void)
 242:/home/tienluong/workspace/atlantis_fw/platform/driver/src/log.c **** {
 243:/home/tienluong/workspace/atlantis_fw/platform/driver/src/log.c ****     slog_circ_buffer.buffer_start = gen_pvPortMalloc(&ddr_heap_attribute, SLOG_CIRC_BUFFER_SIZE);
 244:/home/tienluong/workspace/atlantis_fw/platform/driver/src/log.c ****     slog_circ_buffer.buffer_end = slog_circ_buffer.buffer_start + SLOG_CIRC_BUFFER_SIZE;
 245:/home/tienluong/workspace/atlantis_fw/platform/driver/src/log.c ****     slog_circ_buffer.buffer_used_end = slog_circ_buffer.buffer_end;
 246:/home/tienluong/workspace/atlantis_fw/platform/driver/src/log.c ****     slog_circ_buffer.buffer_wrap_th = slog_circ_buffer.buffer_end - MAX_LOG_STRING_LEN;
 247:/home/tienluong/workspace/atlantis_fw/platform/driver/src/log.c ****     slog_circ_buffer.write_p = slog_circ_buffer.buffer_start;
 248:/home/tienluong/workspace/atlantis_fw/platform/driver/src/log.c ****     slog_circ_buffer.read_p = slog_circ_buffer.buffer_start;
 249:/home/tienluong/workspace/atlantis_fw/platform/driver/src/log.c ****     slog_circ_buffer.rwp_mutex = xSemaphoreCreateMutex();
 250:/home/tienluong/workspace/atlantis_fw/platform/driver/src/log.c ****     slog_semaphore = xSemaphoreCreateBinary();
 251:/home/tienluong/workspace/atlantis_fw/platform/driver/src/log.c ****     log_semaphore = xSemaphoreCreateMutex();
 252:/home/tienluong/workspace/atlantis_fw/platform/driver/src/log.c ****     slog_tx_semaphore = xSemaphoreCreateBinary();
 253:/home/tienluong/workspace/atlantis_fw/platform/driver/src/log.c ****     data = xQueueCreate(5, sizeof(uint8_t));
 254:/home/tienluong/workspace/atlantis_fw/platform/driver/src/log.c **** 
 255:/home/tienluong/workspace/atlantis_fw/platform/driver/src/log.c **** 	hal_com_init(&com_dbg);
 256:/home/tienluong/workspace/atlantis_fw/platform/driver/src/log.c **** 	hal_com_enable_irq(&com_dbg);
 257:/home/tienluong/workspace/atlantis_fw/platform/driver/src/log.c **** }
 258:/home/tienluong/workspace/atlantis_fw/platform/driver/src/log.c **** 
 259:/home/tienluong/workspace/atlantis_fw/platform/driver/src/log.c **** /*
 260:/home/tienluong/workspace/atlantis_fw/platform/driver/src/log.c ****  * com_irq_handler
 261:/home/tienluong/workspace/atlantis_fw/platform/driver/src/log.c ****  */
 262:/home/tienluong/workspace/atlantis_fw/platform/driver/src/log.c **** static void com_irq_handler(uint8_t _c)
 263:/home/tienluong/workspace/atlantis_fw/platform/driver/src/log.c **** {
 264:/home/tienluong/workspace/atlantis_fw/platform/driver/src/log.c **** 	static BaseType_t xhigherpriority = pdFALSE;
 265:/home/tienluong/workspace/atlantis_fw/platform/driver/src/log.c **** 
 266:/home/tienluong/workspace/atlantis_fw/platform/driver/src/log.c **** 	if (xTaskGetSchedulerState() != taskSCHEDULER_NOT_STARTED)
 267:/home/tienluong/workspace/atlantis_fw/platform/driver/src/log.c **** 	{
 268:/home/tienluong/workspace/atlantis_fw/platform/driver/src/log.c **** 		xQueueSendFromISR(data, &_c, &xhigherpriority);
 269:/home/tienluong/workspace/atlantis_fw/platform/driver/src/log.c **** 		if(xhigherpriority)
 270:/home/tienluong/workspace/atlantis_fw/platform/driver/src/log.c **** 			portYIELD_FROM_ISR(xhigherpriority);
 271:/home/tienluong/workspace/atlantis_fw/platform/driver/src/log.c **** 	}
 272:/home/tienluong/workspace/atlantis_fw/platform/driver/src/log.c **** }
 273:/home/tienluong/workspace/atlantis_fw/platform/driver/src/log.c **** 
 274:/home/tienluong/workspace/atlantis_fw/platform/driver/src/log.c **** /**
 275:/home/tienluong/workspace/atlantis_fw/platform/driver/src/log.c ****  * task_log
 276:/home/tienluong/workspace/atlantis_fw/platform/driver/src/log.c ****  * Command line
 277:/home/tienluong/workspace/atlantis_fw/platform/driver/src/log.c ****  */
 278:/home/tienluong/workspace/atlantis_fw/platform/driver/src/log.c **** void task_log(void *pv)
 279:/home/tienluong/workspace/atlantis_fw/platform/driver/src/log.c **** {
 280:/home/tienluong/workspace/atlantis_fw/platform/driver/src/log.c **** 	task_handle_t *hdl = (task_handle_t *)(pv);
 281:/home/tienluong/workspace/atlantis_fw/platform/driver/src/log.c **** 
 282:/home/tienluong/workspace/atlantis_fw/platform/driver/src/log.c **** 	/* Task ready id */
 283:/home/tienluong/workspace/atlantis_fw/platform/driver/src/log.c **** 	hdl->state = TASK_READY;
 284:/home/tienluong/workspace/atlantis_fw/platform/driver/src/log.c **** 
 285:/home/tienluong/workspace/atlantis_fw/platform/driver/src/log.c **** 	taskENTER_CRITICAL();
 286:/home/tienluong/workspace/atlantis_fw/platform/driver/src/log.c **** 	log_msg("Start %s\r\n", __FUNCTION__);
 287:/home/tienluong/workspace/atlantis_fw/platform/driver/src/log.c **** 	taskEXIT_CRITICAL();
 288:/home/tienluong/workspace/atlantis_fw/platform/driver/src/log.c **** 	while(1)
 289:/home/tienluong/workspace/atlantis_fw/platform/driver/src/log.c **** 	{
 290:/home/tienluong/workspace/atlantis_fw/platform/driver/src/log.c **** 		xSemaphoreTake(slog_semaphore, portMAX_DELAY);
 291:/home/tienluong/workspace/atlantis_fw/platform/driver/src/log.c **** 		if(slog_w_new_msg)
 292:/home/tienluong/workspace/atlantis_fw/platform/driver/src/log.c **** 		{
 293:/home/tienluong/workspace/atlantis_fw/platform/driver/src/log.c **** 			fflush(stderr);
 294:/home/tienluong/workspace/atlantis_fw/platform/driver/src/log.c **** 			slog_w_new_msg = 0;
 295:/home/tienluong/workspace/atlantis_fw/platform/driver/src/log.c **** 		}
 296:/home/tienluong/workspace/atlantis_fw/platform/driver/src/log.c **** 		if(slog_w_new_ch)
 297:/home/tienluong/workspace/atlantis_fw/platform/driver/src/log.c **** 		{
 298:/home/tienluong/workspace/atlantis_fw/platform/driver/src/log.c **** 			fflush(stdout);
 299:/home/tienluong/workspace/atlantis_fw/platform/driver/src/log.c **** 			slog_w_new_ch = 0;
 300:/home/tienluong/workspace/atlantis_fw/platform/driver/src/log.c **** 		}
 301:/home/tienluong/workspace/atlantis_fw/platform/driver/src/log.c **** 	}
 302:/home/tienluong/workspace/atlantis_fw/platform/driver/src/log.c **** }
 303:/home/tienluong/workspace/atlantis_fw/platform/driver/src/log.c **** 
 304:/home/tienluong/workspace/atlantis_fw/platform/driver/src/log.c **** /**
 305:/home/tienluong/workspace/atlantis_fw/platform/driver/src/log.c ****  * task_console
 306:/home/tienluong/workspace/atlantis_fw/platform/driver/src/log.c ****  * Command line
 307:/home/tienluong/workspace/atlantis_fw/platform/driver/src/log.c ****  */
 308:/home/tienluong/workspace/atlantis_fw/platform/driver/src/log.c **** void task_console(void *pv)
 309:/home/tienluong/workspace/atlantis_fw/platform/driver/src/log.c **** {
 310:/home/tienluong/workspace/atlantis_fw/platform/driver/src/log.c **** 	task_handle_t *hdl = (task_handle_t *)(pv);
 311:/home/tienluong/workspace/atlantis_fw/platform/driver/src/log.c **** 	char *sp, *cp, *next;
 312:/home/tienluong/workspace/atlantis_fw/platform/driver/src/log.c **** 	char *cmd_line = assert_malloc(cmd_line, CONSOLE_LINE_LEN*sizeof(uint8_t));
 313:/home/tienluong/workspace/atlantis_fw/platform/driver/src/log.c **** 	uint32_t i;
 314:/home/tienluong/workspace/atlantis_fw/platform/driver/src/log.c **** 
 315:/home/tienluong/workspace/atlantis_fw/platform/driver/src/log.c **** 	while (TASK_READY != task_handler[task_query_tid("slog")].state);
 316:/home/tienluong/workspace/atlantis_fw/platform/driver/src/log.c **** 
 317:/home/tienluong/workspace/atlantis_fw/platform/driver/src/log.c **** 	/* Task ready id */
 318:/home/tienluong/workspace/atlantis_fw/platform/driver/src/log.c **** 	hdl->state = TASK_READY;
 319:/home/tienluong/workspace/atlantis_fw/platform/driver/src/log.c **** 	/* Get task id */
 320:/home/tienluong/workspace/atlantis_fw/platform/driver/src/log.c **** 	taskENTER_CRITICAL();
 321:/home/tienluong/workspace/atlantis_fw/platform/driver/src/log.c **** 	log_msg("Start %s\r\n", __FUNCTION__);
 322:/home/tienluong/workspace/atlantis_fw/platform/driver/src/log.c **** 	taskEXIT_CRITICAL();
 323:/home/tienluong/workspace/atlantis_fw/platform/driver/src/log.c **** 
 324:/home/tienluong/workspace/atlantis_fw/platform/driver/src/log.c **** 	while(1)
 325:/home/tienluong/workspace/atlantis_fw/platform/driver/src/log.c **** 	{
 326:/home/tienluong/workspace/atlantis_fw/platform/driver/src/log.c **** 		/* Display prompt for VT100 terminal. */
 327:/home/tienluong/workspace/atlantis_fw/platform/driver/src/log.c **** 		fprintf(stderr, "%s ", COMMAND_PROMPT);
 328:/home/tienluong/workspace/atlantis_fw/platform/driver/src/log.c **** 		slog_w_new_msg = 1;
 329:/home/tienluong/workspace/atlantis_fw/platform/driver/src/log.c **** 		xSemaphoreGive(slog_semaphore);
 330:/home/tienluong/workspace/atlantis_fw/platform/driver/src/log.c **** 		if (!getline(cmd_line))
 331:/home/tienluong/workspace/atlantis_fw/platform/driver/src/log.c **** 			continue;
 332:/home/tienluong/workspace/atlantis_fw/platform/driver/src/log.c **** 		/* Get argument */
 333:/home/tienluong/workspace/atlantis_fw/platform/driver/src/log.c **** 		sp = get_arg(cmd_line, &next);
 334:/home/tienluong/workspace/atlantis_fw/platform/driver/src/log.c **** 		if(*sp == 0)
 335:/home/tienluong/workspace/atlantis_fw/platform/driver/src/log.c **** 			 continue;
 336:/home/tienluong/workspace/atlantis_fw/platform/driver/src/log.c **** 		for(cp = sp; *cp && *cp != ' '; cp++)
 337:/home/tienluong/workspace/atlantis_fw/platform/driver/src/log.c **** 		{
 338:/home/tienluong/workspace/atlantis_fw/platform/driver/src/log.c **** 			*cp = tolower((unsigned char)(*cp));/* Command to lower-case. */
 339:/home/tienluong/workspace/atlantis_fw/platform/driver/src/log.c **** 		}
 340:/home/tienluong/workspace/atlantis_fw/platform/driver/src/log.c **** 		for(i = 0; i < BB_COUNT; i++)
 341:/home/tienluong/workspace/atlantis_fw/platform/driver/src/log.c **** 		{
 342:/home/tienluong/workspace/atlantis_fw/platform/driver/src/log.c **** 			if(strcmp(sp, (const char *)&bb[i].name))
 343:/home/tienluong/workspace/atlantis_fw/platform/driver/src/log.c **** 				continue;
 344:/home/tienluong/workspace/atlantis_fw/platform/driver/src/log.c **** 			bb[i].f(next); /* Execute command function. */
 345:/home/tienluong/workspace/atlantis_fw/platform/driver/src/log.c **** 			break;
 346:/home/tienluong/workspace/atlantis_fw/platform/driver/src/log.c **** 		}
 347:/home/tienluong/workspace/atlantis_fw/platform/driver/src/log.c **** 		if(i == BB_COUNT)
 348:/home/tienluong/workspace/atlantis_fw/platform/driver/src/log.c **** 		{
 349:/home/tienluong/workspace/atlantis_fw/platform/driver/src/log.c **** 			fprintf(stderr, "\tUsing 'use' command to view detail!\r\n");
 350:/home/tienluong/workspace/atlantis_fw/platform/driver/src/log.c **** 			slog_w_new_msg = 1;
 351:/home/tienluong/workspace/atlantis_fw/platform/driver/src/log.c **** 			xSemaphoreGive(slog_semaphore);
 352:/home/tienluong/workspace/atlantis_fw/platform/driver/src/log.c **** 		}
 353:/home/tienluong/workspace/atlantis_fw/platform/driver/src/log.c **** 	}
 354:/home/tienluong/workspace/atlantis_fw/platform/driver/src/log.c **** }
 355:/home/tienluong/workspace/atlantis_fw/platform/driver/src/log.c **** 
 356:/home/tienluong/workspace/atlantis_fw/platform/driver/src/log.c **** static int slog_write_header(char* out_str, size_t max_len_out, uint8_t user_id, uint8_t header)
 357:/home/tienluong/workspace/atlantis_fw/platform/driver/src/log.c **** {
 358:/home/tienluong/workspace/atlantis_fw/platform/driver/src/log.c ****     /* Header of the slog message. */
 359:/home/tienluong/workspace/atlantis_fw/platform/driver/src/log.c ****     rtc_t rtc_time = rtc_get_time();
 360:/home/tienluong/workspace/atlantis_fw/platform/driver/src/log.c ****     struct tm *t_info = localtime(&rtc_time.raw);
 361:/home/tienluong/workspace/atlantis_fw/platform/driver/src/log.c ****     uint8_t hdr_idx;
 362:/home/tienluong/workspace/atlantis_fw/platform/driver/src/log.c ****     switch(header)
 363:/home/tienluong/workspace/atlantis_fw/platform/driver/src/log.c ****     {
 364:/home/tienluong/workspace/atlantis_fw/platform/driver/src/log.c ****         case SLOG_FATAL:
 365:/home/tienluong/workspace/atlantis_fw/platform/driver/src/log.c ****             hdr_idx = 0;
 366:/home/tienluong/workspace/atlantis_fw/platform/driver/src/log.c ****             break;
 367:/home/tienluong/workspace/atlantis_fw/platform/driver/src/log.c ****         case SLOG_ERROR:
 368:/home/tienluong/workspace/atlantis_fw/platform/driver/src/log.c ****             hdr_idx = 1;
 369:/home/tienluong/workspace/atlantis_fw/platform/driver/src/log.c ****             break;
 370:/home/tienluong/workspace/atlantis_fw/platform/driver/src/log.c ****         case SLOG_WARN:
 371:/home/tienluong/workspace/atlantis_fw/platform/driver/src/log.c ****             hdr_idx = 2;
 372:/home/tienluong/workspace/atlantis_fw/platform/driver/src/log.c ****             break;
 373:/home/tienluong/workspace/atlantis_fw/platform/driver/src/log.c ****         case SLOG_INFO:
 374:/home/tienluong/workspace/atlantis_fw/platform/driver/src/log.c ****             hdr_idx = 3;
 375:/home/tienluong/workspace/atlantis_fw/platform/driver/src/log.c ****             break;
 376:/home/tienluong/workspace/atlantis_fw/platform/driver/src/log.c ****         case SLOG_DEBUG:
 377:/home/tienluong/workspace/atlantis_fw/platform/driver/src/log.c ****         default:
 378:/home/tienluong/workspace/atlantis_fw/platform/driver/src/log.c ****             hdr_idx = 4;
 379:/home/tienluong/workspace/atlantis_fw/platform/driver/src/log.c ****             break;
 380:/home/tienluong/workspace/atlantis_fw/platform/driver/src/log.c ****     }
 381:/home/tienluong/workspace/atlantis_fw/platform/driver/src/log.c **** 
 382:/home/tienluong/workspace/atlantis_fw/platform/driver/src/log.c ****     /* Write to output */
 383:/home/tienluong/workspace/atlantis_fw/platform/driver/src/log.c ****     int ret = snprintf(out_str, max_len_out, " %03d\t%02d:%02d:%02d.%03d\t%s",
 384:/home/tienluong/workspace/atlantis_fw/platform/driver/src/log.c ****             user_id,
 385:/home/tienluong/workspace/atlantis_fw/platform/driver/src/log.c ****             t_info->tm_hour, t_info->tm_min, t_info->tm_sec, (int)(rtc_time.milisec%1000),
 386:/home/tienluong/workspace/atlantis_fw/platform/driver/src/log.c ****             msg_header[hdr_idx]);
 387:/home/tienluong/workspace/atlantis_fw/platform/driver/src/log.c ****     return ret;
 388:/home/tienluong/workspace/atlantis_fw/platform/driver/src/log.c **** }
 389:/home/tienluong/workspace/atlantis_fw/platform/driver/src/log.c **** 
 390:/home/tienluong/workspace/atlantis_fw/platform/driver/src/log.c **** /**
 391:/home/tienluong/workspace/atlantis_fw/platform/driver/src/log.c ****  * task_queue_log
 392:/home/tienluong/workspace/atlantis_fw/platform/driver/src/log.c ****  */
 393:/home/tienluong/workspace/atlantis_fw/platform/driver/src/log.c **** void task_queue_log(void *pv)
 394:/home/tienluong/workspace/atlantis_fw/platform/driver/src/log.c **** {
 395:/home/tienluong/workspace/atlantis_fw/platform/driver/src/log.c **** 	task_handle_t *hdl = (task_handle_t *)(pv);
 396:/home/tienluong/workspace/atlantis_fw/platform/driver/src/log.c **** 
 397:/home/tienluong/workspace/atlantis_fw/platform/driver/src/log.c **** 	while (TASK_READY != task_handler[task_query_tid("slog")].state);
 398:/home/tienluong/workspace/atlantis_fw/platform/driver/src/log.c **** 
 399:/home/tienluong/workspace/atlantis_fw/platform/driver/src/log.c **** 	/* Task ready id */
 400:/home/tienluong/workspace/atlantis_fw/platform/driver/src/log.c **** 	hdl->state = TASK_READY;
 401:/home/tienluong/workspace/atlantis_fw/platform/driver/src/log.c **** 	/* Get task id */
 402:/home/tienluong/workspace/atlantis_fw/platform/driver/src/log.c **** 	taskENTER_CRITICAL();
 403:/home/tienluong/workspace/atlantis_fw/platform/driver/src/log.c **** 	log_msg("Start %s\r\n", __FUNCTION__);
 404:/home/tienluong/workspace/atlantis_fw/platform/driver/src/log.c **** 	taskEXIT_CRITICAL();
 405:/home/tienluong/workspace/atlantis_fw/platform/driver/src/log.c **** 	while (1)
 406:/home/tienluong/workspace/atlantis_fw/platform/driver/src/log.c **** 	{
 407:/home/tienluong/workspace/atlantis_fw/platform/driver/src/log.c **** 	    xSemaphoreTake(slog_tx_semaphore, portMAX_DELAY);
 408:/home/tienluong/workspace/atlantis_fw/platform/driver/src/log.c **** 
 409:/home/tienluong/workspace/atlantis_fw/platform/driver/src/log.c **** 	    // Protect read of write_p and buffer_used_end
 410:/home/tienluong/workspace/atlantis_fw/platform/driver/src/log.c **** 	    xSemaphoreTake(slog_circ_buffer.rwp_mutex, portMAX_DELAY);
 411:/home/tienluong/workspace/atlantis_fw/platform/driver/src/log.c **** 	    const char *buf_write_p = slog_circ_buffer.write_p;
 412:/home/tienluong/workspace/atlantis_fw/platform/driver/src/log.c **** 	    const char *buf_used_end = slog_circ_buffer.buffer_used_end;
 413:/home/tienluong/workspace/atlantis_fw/platform/driver/src/log.c **** 	    xSemaphoreGive(slog_circ_buffer.rwp_mutex);
 414:/home/tienluong/workspace/atlantis_fw/platform/driver/src/log.c **** 	    const char *buf_read_p = slog_circ_buffer.read_p;
 415:/home/tienluong/workspace/atlantis_fw/platform/driver/src/log.c **** 	    while (buf_read_p != buf_write_p)
 416:/home/tienluong/workspace/atlantis_fw/platform/driver/src/log.c **** 	    {
 417:/home/tienluong/workspace/atlantis_fw/platform/driver/src/log.c ****             int len = 0;
 418:/home/tienluong/workspace/atlantis_fw/platform/driver/src/log.c ****             if (buf_write_p > buf_read_p)
 419:/home/tienluong/workspace/atlantis_fw/platform/driver/src/log.c ****                 len = buf_write_p - buf_read_p;
 420:/home/tienluong/workspace/atlantis_fw/platform/driver/src/log.c ****             else
 421:/home/tienluong/workspace/atlantis_fw/platform/driver/src/log.c ****                 len = buf_used_end - buf_read_p;
 422:/home/tienluong/workspace/atlantis_fw/platform/driver/src/log.c ****             if (len > 0)
 423:/home/tienluong/workspace/atlantis_fw/platform/driver/src/log.c ****             {
 424:/home/tienluong/workspace/atlantis_fw/platform/driver/src/log.c ****                 // Send data over UART
 425:/home/tienluong/workspace/atlantis_fw/platform/driver/src/log.c ****                 _write(2, (char*)buf_read_p, len);
 426:/home/tienluong/workspace/atlantis_fw/platform/driver/src/log.c ****                 // Update read_p
 427:/home/tienluong/workspace/atlantis_fw/platform/driver/src/log.c ****                 buf_read_p += len;
 428:/home/tienluong/workspace/atlantis_fw/platform/driver/src/log.c ****                 if (buf_read_p == buf_used_end)
 429:/home/tienluong/workspace/atlantis_fw/platform/driver/src/log.c ****                     buf_read_p = slog_circ_buffer.buffer_start;
 430:/home/tienluong/workspace/atlantis_fw/platform/driver/src/log.c ****                 // Protect write of read_p
 431:/home/tienluong/workspace/atlantis_fw/platform/driver/src/log.c ****                 xSemaphoreTake(slog_circ_buffer.rwp_mutex, portMAX_DELAY);
 432:/home/tienluong/workspace/atlantis_fw/platform/driver/src/log.c ****                 slog_circ_buffer.read_p = buf_read_p;
 433:/home/tienluong/workspace/atlantis_fw/platform/driver/src/log.c ****                 xSemaphoreGive(slog_circ_buffer.rwp_mutex);
 434:/home/tienluong/workspace/atlantis_fw/platform/driver/src/log.c ****             }
 435:/home/tienluong/workspace/atlantis_fw/platform/driver/src/log.c **** 	    }
 436:/home/tienluong/workspace/atlantis_fw/platform/driver/src/log.c **** 	}
 437:/home/tienluong/workspace/atlantis_fw/platform/driver/src/log.c **** }
 438:/home/tienluong/workspace/atlantis_fw/platform/driver/src/log.c **** 
 439:/home/tienluong/workspace/atlantis_fw/platform/driver/src/log.c **** /**
 440:/home/tienluong/workspace/atlantis_fw/platform/driver/src/log.c ****   * slogf
 441:/home/tienluong/workspace/atlantis_fw/platform/driver/src/log.c ****   */
 442:/home/tienluong/workspace/atlantis_fw/platform/driver/src/log.c **** void slogf(uint8_t id, uint8_t header, const char *format, ...)
 443:/home/tienluong/workspace/atlantis_fw/platform/driver/src/log.c **** {
 444:/home/tienluong/workspace/atlantis_fw/platform/driver/src/log.c ****     if (!slog_w)
 445:/home/tienluong/workspace/atlantis_fw/platform/driver/src/log.c ****         return;
 446:/home/tienluong/workspace/atlantis_fw/platform/driver/src/log.c ****     uint8_t header_f = light_system->settings->log_ctrl & header;
 447:/home/tienluong/workspace/atlantis_fw/platform/driver/src/log.c ****     if (header_f == 0)
 448:/home/tienluong/workspace/atlantis_fw/platform/driver/src/log.c ****         return;
 449:/home/tienluong/workspace/atlantis_fw/platform/driver/src/log.c **** 
 450:/home/tienluong/workspace/atlantis_fw/platform/driver/src/log.c ****     xSemaphoreTake(log_semaphore, portMAX_DELAY);
 451:/home/tienluong/workspace/atlantis_fw/platform/driver/src/log.c ****     // Protect read of read_p
 452:/home/tienluong/workspace/atlantis_fw/platform/driver/src/log.c ****     xSemaphoreTake(slog_circ_buffer.rwp_mutex, portMAX_DELAY);
 453:/home/tienluong/workspace/atlantis_fw/platform/driver/src/log.c ****     const char *buf_read_p = slog_circ_buffer.read_p;
 454:/home/tienluong/workspace/atlantis_fw/platform/driver/src/log.c ****     xSemaphoreGive(slog_circ_buffer.rwp_mutex);
 455:/home/tienluong/workspace/atlantis_fw/platform/driver/src/log.c **** 
 456:/home/tienluong/workspace/atlantis_fw/platform/driver/src/log.c ****     size_t max_len_out;
 457:/home/tienluong/workspace/atlantis_fw/platform/driver/src/log.c ****     if ((buf_read_p == slog_circ_buffer.buffer_start) || (buf_read_p >= slog_circ_buffer.buffer_wra
 458:/home/tienluong/workspace/atlantis_fw/platform/driver/src/log.c ****         max_len_out = slog_circ_buffer.buffer_wrap_th - slog_circ_buffer.write_p;
 459:/home/tienluong/workspace/atlantis_fw/platform/driver/src/log.c ****     else if (slog_circ_buffer.write_p >= buf_read_p)
 460:/home/tienluong/workspace/atlantis_fw/platform/driver/src/log.c ****         max_len_out = slog_circ_buffer.buffer_end - slog_circ_buffer.write_p;
 461:/home/tienluong/workspace/atlantis_fw/platform/driver/src/log.c ****     else
 462:/home/tienluong/workspace/atlantis_fw/platform/driver/src/log.c ****         max_len_out = buf_read_p - slog_circ_buffer.write_p;
 463:/home/tienluong/workspace/atlantis_fw/platform/driver/src/log.c ****     int len = slog_write_header(slog_circ_buffer.write_p, max_len_out, id, header_f);
 464:/home/tienluong/workspace/atlantis_fw/platform/driver/src/log.c ****     if (len < max_len_out)
 465:/home/tienluong/workspace/atlantis_fw/platform/driver/src/log.c ****     {
 466:/home/tienluong/workspace/atlantis_fw/platform/driver/src/log.c ****         va_list argptr;
 467:/home/tienluong/workspace/atlantis_fw/platform/driver/src/log.c ****         va_start(argptr, format);
 468:/home/tienluong/workspace/atlantis_fw/platform/driver/src/log.c ****         int slen = vsnprintf(slog_circ_buffer.write_p + len, max_len_out - len, format, argptr);
 469:/home/tienluong/workspace/atlantis_fw/platform/driver/src/log.c ****         va_end(argptr);
 470:/home/tienluong/workspace/atlantis_fw/platform/driver/src/log.c ****         if (slen < 0)
 471:/home/tienluong/workspace/atlantis_fw/platform/driver/src/log.c ****             slen = snprintf(slog_circ_buffer.write_p + len, max_len_out - len, "!!!ERROR formatting
 472:/home/tienluong/workspace/atlantis_fw/platform/driver/src/log.c ****         len += slen;
 473:/home/tienluong/workspace/atlantis_fw/platform/driver/src/log.c ****         if (len < max_len_out)
 474:/home/tienluong/workspace/atlantis_fw/platform/driver/src/log.c ****             len += snprintf(slog_circ_buffer.write_p + len, max_len_out - len, "\033[39m\r\n");
 475:/home/tienluong/workspace/atlantis_fw/platform/driver/src/log.c ****     }
 476:/home/tienluong/workspace/atlantis_fw/platform/driver/src/log.c ****     if (len >= max_len_out)
 477:/home/tienluong/workspace/atlantis_fw/platform/driver/src/log.c ****     {
 478:/home/tienluong/workspace/atlantis_fw/platform/driver/src/log.c ****         ++num_dropped_logs; // TODO: later log error when logs were dropped
 479:/home/tienluong/workspace/atlantis_fw/platform/driver/src/log.c ****     }
 480:/home/tienluong/workspace/atlantis_fw/platform/driver/src/log.c ****     else
 481:/home/tienluong/workspace/atlantis_fw/platform/driver/src/log.c ****     {
 482:/home/tienluong/workspace/atlantis_fw/platform/driver/src/log.c ****         // Update write_p and possibly buffer_used_end
 483:/home/tienluong/workspace/atlantis_fw/platform/driver/src/log.c ****         char *new_write_p = slog_circ_buffer.write_p + len;
 484:/home/tienluong/workspace/atlantis_fw/platform/driver/src/log.c ****         if (new_write_p >= slog_circ_buffer.buffer_wrap_th)
 485:/home/tienluong/workspace/atlantis_fw/platform/driver/src/log.c ****         {
 486:/home/tienluong/workspace/atlantis_fw/platform/driver/src/log.c ****             slog_circ_buffer.buffer_used_end = new_write_p;
 487:/home/tienluong/workspace/atlantis_fw/platform/driver/src/log.c ****             new_write_p = slog_circ_buffer.buffer_start;
 488:/home/tienluong/workspace/atlantis_fw/platform/driver/src/log.c ****         }
 489:/home/tienluong/workspace/atlantis_fw/platform/driver/src/log.c ****         // Protect write of write_p
 490:/home/tienluong/workspace/atlantis_fw/platform/driver/src/log.c ****         xSemaphoreTake(slog_circ_buffer.rwp_mutex, portMAX_DELAY);
 491:/home/tienluong/workspace/atlantis_fw/platform/driver/src/log.c ****         slog_circ_buffer.write_p = new_write_p;
 492:/home/tienluong/workspace/atlantis_fw/platform/driver/src/log.c ****         xSemaphoreGive(slog_circ_buffer.rwp_mutex);
 493:/home/tienluong/workspace/atlantis_fw/platform/driver/src/log.c **** 
 494:/home/tienluong/workspace/atlantis_fw/platform/driver/src/log.c ****         xSemaphoreGive(slog_tx_semaphore);
 495:/home/tienluong/workspace/atlantis_fw/platform/driver/src/log.c ****     }
 496:/home/tienluong/workspace/atlantis_fw/platform/driver/src/log.c ****     xSemaphoreGive(log_semaphore);
 497:/home/tienluong/workspace/atlantis_fw/platform/driver/src/log.c **** }
 498:/home/tienluong/workspace/atlantis_fw/platform/driver/src/log.c **** 
 499:/home/tienluong/workspace/atlantis_fw/platform/driver/src/log.c **** /**
 500:/home/tienluong/workspace/atlantis_fw/platform/driver/src/log.c ****  * log_err
 501:/home/tienluong/workspace/atlantis_fw/platform/driver/src/log.c ****  */
 502:/home/tienluong/workspace/atlantis_fw/platform/driver/src/log.c **** #if(LOG_ERROR == STD_ON)
 503:/home/tienluong/workspace/atlantis_fw/platform/driver/src/log.c **** void log_error(const char *format, ...)
 504:/home/tienluong/workspace/atlantis_fw/platform/driver/src/log.c **** {
 505:/home/tienluong/workspace/atlantis_fw/platform/driver/src/log.c **** 	ERROR_HEADER();
 506:/home/tienluong/workspace/atlantis_fw/platform/driver/src/log.c **** 	va_list argptr;
 507:/home/tienluong/workspace/atlantis_fw/platform/driver/src/log.c **** 	va_start(argptr, format);
 508:/home/tienluong/workspace/atlantis_fw/platform/driver/src/log.c **** 	vfprintf(stderr, format, argptr);
 509:/home/tienluong/workspace/atlantis_fw/platform/driver/src/log.c **** 	va_end(argptr);
 510:/home/tienluong/workspace/atlantis_fw/platform/driver/src/log.c **** 	COLOR_ENDL();
 511:/home/tienluong/workspace/atlantis_fw/platform/driver/src/log.c **** }
 512:/home/tienluong/workspace/atlantis_fw/platform/driver/src/log.c **** #endif
 513:/home/tienluong/workspace/atlantis_fw/platform/driver/src/log.c **** 
 514:/home/tienluong/workspace/atlantis_fw/platform/driver/src/log.c **** /*
 515:/home/tienluong/workspace/atlantis_fw/platform/driver/src/log.c ****  * log_warn
 516:/home/tienluong/workspace/atlantis_fw/platform/driver/src/log.c ****  */
 517:/home/tienluong/workspace/atlantis_fw/platform/driver/src/log.c **** #if(LOG_WARN == STD_ON)
 518:/home/tienluong/workspace/atlantis_fw/platform/driver/src/log.c **** void log_warn(const char *format, ...)
 519:/home/tienluong/workspace/atlantis_fw/platform/driver/src/log.c **** {
 520:/home/tienluong/workspace/atlantis_fw/platform/driver/src/log.c **** 	WARN_HEADER();
 521:/home/tienluong/workspace/atlantis_fw/platform/driver/src/log.c **** 	va_list argptr;
 522:/home/tienluong/workspace/atlantis_fw/platform/driver/src/log.c **** 	va_start(argptr, format);
 523:/home/tienluong/workspace/atlantis_fw/platform/driver/src/log.c **** 	vfprintf(stderr, format, argptr);
 524:/home/tienluong/workspace/atlantis_fw/platform/driver/src/log.c **** 	va_end(argptr);
 525:/home/tienluong/workspace/atlantis_fw/platform/driver/src/log.c **** 	COLOR_ENDL();
 526:/home/tienluong/workspace/atlantis_fw/platform/driver/src/log.c **** }
 527:/home/tienluong/workspace/atlantis_fw/platform/driver/src/log.c **** #endif
 528:/home/tienluong/workspace/atlantis_fw/platform/driver/src/log.c **** 
 529:/home/tienluong/workspace/atlantis_fw/platform/driver/src/log.c **** /**
 530:/home/tienluong/workspace/atlantis_fw/platform/driver/src/log.c ****  * log_info
 531:/home/tienluong/workspace/atlantis_fw/platform/driver/src/log.c ****  */
 532:/home/tienluong/workspace/atlantis_fw/platform/driver/src/log.c **** #if(LOG_INFO == STD_ON)
 533:/home/tienluong/workspace/atlantis_fw/platform/driver/src/log.c **** void log_info(const char *format, ...)
 534:/home/tienluong/workspace/atlantis_fw/platform/driver/src/log.c **** {
 535:/home/tienluong/workspace/atlantis_fw/platform/driver/src/log.c **** 	INFO_HEADER();
 536:/home/tienluong/workspace/atlantis_fw/platform/driver/src/log.c **** 	va_list argptr;
 537:/home/tienluong/workspace/atlantis_fw/platform/driver/src/log.c **** 	va_start(argptr, format);
 538:/home/tienluong/workspace/atlantis_fw/platform/driver/src/log.c **** 	vfprintf(stderr, format, argptr);
 539:/home/tienluong/workspace/atlantis_fw/platform/driver/src/log.c **** 	va_end(argptr);
 540:/home/tienluong/workspace/atlantis_fw/platform/driver/src/log.c **** 	COLOR_ENDL();
 541:/home/tienluong/workspace/atlantis_fw/platform/driver/src/log.c **** }
 542:/home/tienluong/workspace/atlantis_fw/platform/driver/src/log.c **** #endif
 543:/home/tienluong/workspace/atlantis_fw/platform/driver/src/log.c **** 
 544:/home/tienluong/workspace/atlantis_fw/platform/driver/src/log.c **** /**
 545:/home/tienluong/workspace/atlantis_fw/platform/driver/src/log.c ****  * log_debug
 546:/home/tienluong/workspace/atlantis_fw/platform/driver/src/log.c ****  */
 547:/home/tienluong/workspace/atlantis_fw/platform/driver/src/log.c **** #if (LOG_DEBUG == STD_ON)
 548:/home/tienluong/workspace/atlantis_fw/platform/driver/src/log.c **** void log_debug(const char *format, ...)
 549:/home/tienluong/workspace/atlantis_fw/platform/driver/src/log.c **** {
 550:/home/tienluong/workspace/atlantis_fw/platform/driver/src/log.c **** 	DEBUG_HEADER();
 551:/home/tienluong/workspace/atlantis_fw/platform/driver/src/log.c **** 	va_list argptr;
 552:/home/tienluong/workspace/atlantis_fw/platform/driver/src/log.c **** 	va_start(argptr, format);
 553:/home/tienluong/workspace/atlantis_fw/platform/driver/src/log.c **** 	vfprintf(stderr, format, argptr);
 554:/home/tienluong/workspace/atlantis_fw/platform/driver/src/log.c **** 	va_end(argptr);
 555:/home/tienluong/workspace/atlantis_fw/platform/driver/src/log.c **** 	COLOR_ENDL();
 556:/home/tienluong/workspace/atlantis_fw/platform/driver/src/log.c **** }
 557:/home/tienluong/workspace/atlantis_fw/platform/driver/src/log.c **** #endif
 558:/home/tienluong/workspace/atlantis_fw/platform/driver/src/log.c **** 
 559:/home/tienluong/workspace/atlantis_fw/platform/driver/src/log.c **** /*
 560:/home/tienluong/workspace/atlantis_fw/platform/driver/src/log.c ****  * log_msg
 561:/home/tienluong/workspace/atlantis_fw/platform/driver/src/log.c ****  */
 562:/home/tienluong/workspace/atlantis_fw/platform/driver/src/log.c **** #if (LOG_MSG == STD_ON)
 563:/home/tienluong/workspace/atlantis_fw/platform/driver/src/log.c **** void log_msg(const char *format, ...)
 564:/home/tienluong/workspace/atlantis_fw/platform/driver/src/log.c **** {
 565:/home/tienluong/workspace/atlantis_fw/platform/driver/src/log.c **** 	va_list argptr;
 566:/home/tienluong/workspace/atlantis_fw/platform/driver/src/log.c **** 	va_start(argptr, format);
 567:/home/tienluong/workspace/atlantis_fw/platform/driver/src/log.c **** 	vfprintf(stderr, format, argptr);
 568:/home/tienluong/workspace/atlantis_fw/platform/driver/src/log.c **** 	va_end(argptr);
 569:/home/tienluong/workspace/atlantis_fw/platform/driver/src/log.c **** }
 570:/home/tienluong/workspace/atlantis_fw/platform/driver/src/log.c **** #endif
 571:/home/tienluong/workspace/atlantis_fw/platform/driver/src/log.c **** 
 572:/home/tienluong/workspace/atlantis_fw/platform/driver/src/log.c **** /*
 573:/home/tienluong/workspace/atlantis_fw/platform/driver/src/log.c ****  * getline
 574:/home/tienluong/workspace/atlantis_fw/platform/driver/src/log.c ****  */
 575:/home/tienluong/workspace/atlantis_fw/platform/driver/src/log.c **** static uint8_t getline(char *str)
 576:/home/tienluong/workspace/atlantis_fw/platform/driver/src/log.c **** {
 577:/home/tienluong/workspace/atlantis_fw/platform/driver/src/log.c **** 	uint32_t cnt = 0;
 578:/home/tienluong/workspace/atlantis_fw/platform/driver/src/log.c **** 	char c;
 579:/home/tienluong/workspace/atlantis_fw/platform/driver/src/log.c **** 
 580:/home/tienluong/workspace/atlantis_fw/platform/driver/src/log.c **** 	do
 581:/home/tienluong/workspace/atlantis_fw/platform/driver/src/log.c **** 	{
 582:/home/tienluong/workspace/atlantis_fw/platform/driver/src/log.c **** 		xQueueReceive(data, &c, portMAX_DELAY);
 583:/home/tienluong/workspace/atlantis_fw/platform/driver/src/log.c **** 		switch (c)
 584:/home/tienluong/workspace/atlantis_fw/platform/driver/src/log.c **** 		{
 585:/home/tienluong/workspace/atlantis_fw/platform/driver/src/log.c **** 			case CNTLQ:							/* Ignore Control S/Q */
 586:/home/tienluong/workspace/atlantis_fw/platform/driver/src/log.c **** 			case CNTLS:
 587:/home/tienluong/workspace/atlantis_fw/platform/driver/src/log.c **** 				xSemaphoreGive(slog_semaphore);
 588:/home/tienluong/workspace/atlantis_fw/platform/driver/src/log.c **** 				break;
 589:/home/tienluong/workspace/atlantis_fw/platform/driver/src/log.c **** 			case BACKSPACE:
 590:/home/tienluong/workspace/atlantis_fw/platform/driver/src/log.c **** 			case DEL:
 591:/home/tienluong/workspace/atlantis_fw/platform/driver/src/log.c **** 				if (cnt == 0)
 592:/home/tienluong/workspace/atlantis_fw/platform/driver/src/log.c **** 					continue;
 593:/home/tienluong/workspace/atlantis_fw/platform/driver/src/log.c **** 				cnt--;						/* Decrement count */
 594:/home/tienluong/workspace/atlantis_fw/platform/driver/src/log.c **** 				str--;						/* And line pointer */
 595:/home/tienluong/workspace/atlantis_fw/platform/driver/src/log.c **** 				putchar(0x08);				/* Echo backspace */
 596:/home/tienluong/workspace/atlantis_fw/platform/driver/src/log.c **** 				putchar(' ');
 597:/home/tienluong/workspace/atlantis_fw/platform/driver/src/log.c **** 				putchar(0x08);
 598:/home/tienluong/workspace/atlantis_fw/platform/driver/src/log.c **** 				slog_w_new_ch = 1;
 599:/home/tienluong/workspace/atlantis_fw/platform/driver/src/log.c **** 				xSemaphoreGive(slog_semaphore);
 600:/home/tienluong/workspace/atlantis_fw/platform/driver/src/log.c **** 				break;
 601:/home/tienluong/workspace/atlantis_fw/platform/driver/src/log.c **** 			case ESC:						/* ESC - stop editing line */
 602:/home/tienluong/workspace/atlantis_fw/platform/driver/src/log.c **** 			case CTRL_C:					/* CTRL+C cancel editing line */
 603:/home/tienluong/workspace/atlantis_fw/platform/driver/src/log.c **** 				*str = 0;
 604:/home/tienluong/workspace/atlantis_fw/platform/driver/src/log.c **** 				putchar('\r');
 605:/home/tienluong/workspace/atlantis_fw/platform/driver/src/log.c **** 				putchar('\n');
 606:/home/tienluong/workspace/atlantis_fw/platform/driver/src/log.c **** 				slog_w_new_ch = 1;
 607:/home/tienluong/workspace/atlantis_fw/platform/driver/src/log.c **** 				xSemaphoreGive(slog_semaphore);
 608:/home/tienluong/workspace/atlantis_fw/platform/driver/src/log.c **** 				return 0;
 609:/home/tienluong/workspace/atlantis_fw/platform/driver/src/log.c **** 			case CR:						/* CR - done, stop editing line */
 610:/home/tienluong/workspace/atlantis_fw/platform/driver/src/log.c **** 				*str = c;
 611:/home/tienluong/workspace/atlantis_fw/platform/driver/src/log.c **** 				str++;						/* Increment line pointer */
 612:/home/tienluong/workspace/atlantis_fw/platform/driver/src/log.c **** 				c = LF;
 613:/home/tienluong/workspace/atlantis_fw/platform/driver/src/log.c **** 				putchar('\r');
 614:/home/tienluong/workspace/atlantis_fw/platform/driver/src/log.c **** 				putchar('\n');
 615:/home/tienluong/workspace/atlantis_fw/platform/driver/src/log.c **** 				slog_w_new_ch = 1;
 616:/home/tienluong/workspace/atlantis_fw/platform/driver/src/log.c **** 				xSemaphoreGive(slog_semaphore);
 617:/home/tienluong/workspace/atlantis_fw/platform/driver/src/log.c **** 				break;
 618:/home/tienluong/workspace/atlantis_fw/platform/driver/src/log.c **** 			default:
 619:/home/tienluong/workspace/atlantis_fw/platform/driver/src/log.c **** 				putchar(*str = c);			/* Echo and store character */
 620:/home/tienluong/workspace/atlantis_fw/platform/driver/src/log.c **** 				str++;						/* Increment line pointer */
 621:/home/tienluong/workspace/atlantis_fw/platform/driver/src/log.c **** 				cnt++;						/* And count */
 622:/home/tienluong/workspace/atlantis_fw/platform/driver/src/log.c **** 				slog_w_new_ch = 1;
 623:/home/tienluong/workspace/atlantis_fw/platform/driver/src/log.c **** 				xSemaphoreGive(slog_semaphore);
 624:/home/tienluong/workspace/atlantis_fw/platform/driver/src/log.c **** 				break;
 625:/home/tienluong/workspace/atlantis_fw/platform/driver/src/log.c **** 		}
 626:/home/tienluong/workspace/atlantis_fw/platform/driver/src/log.c **** 	} while (cnt < CONSOLE_LINE_LEN - 2  &&  c != LF);	/* Check limit and CR */
 627:/home/tienluong/workspace/atlantis_fw/platform/driver/src/log.c **** 	*str = 0;								/* Mark end of string */
 628:/home/tienluong/workspace/atlantis_fw/platform/driver/src/log.c **** 	return 1;
 629:/home/tienluong/workspace/atlantis_fw/platform/driver/src/log.c **** }
 630:/home/tienluong/workspace/atlantis_fw/platform/driver/src/log.c **** 
 631:/home/tienluong/workspace/atlantis_fw/platform/driver/src/log.c **** /*
 632:/home/tienluong/workspace/atlantis_fw/platform/driver/src/log.c ****  * get_arg
 633:/home/tienluong/workspace/atlantis_fw/platform/driver/src/log.c ****  */
 634:/home/tienluong/workspace/atlantis_fw/platform/driver/src/log.c **** static char *get_arg(char *cp, char **pNext)
 635:/home/tienluong/workspace/atlantis_fw/platform/driver/src/log.c **** {
  26              		.loc 1 635 0
  27              		.cfi_startproc
  28              		@ args = 0, pretend = 0, frame = 0
  29              		@ frame_needed = 0, uses_anonymous_args = 0
  30              	.LVL0:
  31 0000 70B5     		push	{r4, r5, r6, lr}
  32              	.LCFI0:
  33              		.cfi_def_cfa_offset 16
  34              		.cfi_offset 4, -16
  35              		.cfi_offset 5, -12
  36              		.cfi_offset 6, -8
  37              		.cfi_offset 14, -4
 636:/home/tienluong/workspace/atlantis_fw/platform/driver/src/log.c **** 	char *sp, lfn = 0, sep_ch = ' ';
 637:/home/tienluong/workspace/atlantis_fw/platform/driver/src/log.c **** 
 638:/home/tienluong/workspace/atlantis_fw/platform/driver/src/log.c **** 	if (cp == NULL)
  38              		.loc 1 638 0
  39 0002 10B1     		cbz	r0, .L2
  40              		.loc 1 638 0 is_stmt 0 discriminator 1
  41 0004 2025     		movs	r5, #32
  42 0006 0026     		movs	r6, #0
  43 0008 08E0     		b	.L3
  44              	.L2:
 639:/home/tienluong/workspace/atlantis_fw/platform/driver/src/log.c **** 	{
 640:/home/tienluong/workspace/atlantis_fw/platform/driver/src/log.c **** 		/* Skip NULL pointers */
 641:/home/tienluong/workspace/atlantis_fw/platform/driver/src/log.c **** 		*pNext = cp;
  45              		.loc 1 641 0 is_stmt 1
  46 000a 0860     		str	r0, [r1]
 642:/home/tienluong/workspace/atlantis_fw/platform/driver/src/log.c **** 		return cp;
  47              		.loc 1 642 0
  48 000c 70BD     		pop	{r4, r5, r6, pc}
  49              	.LVL1:
  50              	.L34:
 643:/home/tienluong/workspace/atlantis_fw/platform/driver/src/log.c **** 	}
 644:/home/tienluong/workspace/atlantis_fw/platform/driver/src/log.c **** 
 645:/home/tienluong/workspace/atlantis_fw/platform/driver/src/log.c **** 	for ( ; *cp == ' ' || *cp == '\"'; cp++)
  51              		.loc 1 645 0 discriminator 2
  52 000e 222B     		cmp	r3, #34
  53 0010 08D1     		bne	.L33
 646:/home/tienluong/workspace/atlantis_fw/platform/driver/src/log.c **** 	{
 647:/home/tienluong/workspace/atlantis_fw/platform/driver/src/log.c **** 		/* Skip blanks and starting  " */
 648:/home/tienluong/workspace/atlantis_fw/platform/driver/src/log.c **** 		if (*cp == '\"')
 649:/home/tienluong/workspace/atlantis_fw/platform/driver/src/log.c **** 		{
 650:/home/tienluong/workspace/atlantis_fw/platform/driver/src/log.c **** 			sep_ch = '\"';
  54              		.loc 1 650 0
  55 0012 1D46     		mov	r5, r3
 651:/home/tienluong/workspace/atlantis_fw/platform/driver/src/log.c **** 			lfn = 1;
  56              		.loc 1 651 0
  57 0014 0126     		movs	r6, #1
  58              	.L5:
 652:/home/tienluong/workspace/atlantis_fw/platform/driver/src/log.c **** 		}
 653:/home/tienluong/workspace/atlantis_fw/platform/driver/src/log.c **** 		*cp = 0;
  59              		.loc 1 653 0
  60 0016 0023     		movs	r3, #0
  61 0018 00F8013B 		strb	r3, [r0], #1
  62              	.LVL2:
  63              	.L3:
 645:/home/tienluong/workspace/atlantis_fw/platform/driver/src/log.c **** 	{
  64              		.loc 1 645 0 discriminator 1
  65 001c 0378     		ldrb	r3, [r0]	@ zero_extendqisi2
  66 001e 202B     		cmp	r3, #32
  67 0020 F5D1     		bne	.L34
  68 0022 F8E7     		b	.L5
  69              	.L33:
  70              	.LVL3:
  71 0024 0446     		mov	r4, r0
  72              	.LVL4:
  73              	.L6:
  74 0026 2346     		mov	r3, r4
  75              	.LVL5:
 654:/home/tienluong/workspace/atlantis_fw/platform/driver/src/log.c **** 	}
 655:/home/tienluong/workspace/atlantis_fw/platform/driver/src/log.c **** 
 656:/home/tienluong/workspace/atlantis_fw/platform/driver/src/log.c **** 	for (sp = cp; *sp != CR && *sp != LF; sp++)
  76              		.loc 1 656 0 discriminator 1
  77 0028 14F8012B 		ldrb	r2, [r4], #1	@ zero_extendqisi2
  78 002c 0D2A     		cmp	r2, #13
  79 002e 0CD0     		beq	.L9
  80              		.loc 1 656 0 is_stmt 0 discriminator 3
  81 0030 0A2A     		cmp	r2, #10
  82 0032 0AD0     		beq	.L9
 657:/home/tienluong/workspace/atlantis_fw/platform/driver/src/log.c **** 	{
 658:/home/tienluong/workspace/atlantis_fw/platform/driver/src/log.c **** 		if (lfn && *sp == '\"') break;
  83              		.loc 1 658 0 is_stmt 1
  84 0034 0EB1     		cbz	r6, .L7
  85              		.loc 1 658 0 is_stmt 0 discriminator 1
  86 0036 222A     		cmp	r2, #34
  87 0038 00E0     		b	.L31
  88              	.L7:
 659:/home/tienluong/workspace/atlantis_fw/platform/driver/src/log.c **** 		if (!lfn && *sp == ' ') break;
  89              		.loc 1 659 0 is_stmt 1 discriminator 1
  90 003a 202A     		cmp	r2, #32
  91              	.L31:
  92 003c F3D1     		bne	.L6
  93 003e 04E0     		b	.L9
  94              	.L36:
 660:/home/tienluong/workspace/atlantis_fw/platform/driver/src/log.c **** 	}
 661:/home/tienluong/workspace/atlantis_fw/platform/driver/src/log.c **** 
 662:/home/tienluong/workspace/atlantis_fw/platform/driver/src/log.c **** 	for ( ; *sp == sep_ch || *sp == CR || *sp == LF; sp++)
  95              		.loc 1 662 0 discriminator 2
  96 0040 0D2A     		cmp	r2, #13
  97 0042 06D1     		bne	.L35
  98              	.L12:
 663:/home/tienluong/workspace/atlantis_fw/platform/driver/src/log.c **** 	{
 664:/home/tienluong/workspace/atlantis_fw/platform/driver/src/log.c **** 		*sp = 0;
  99              		.loc 1 664 0
 100 0044 0022     		movs	r2, #0
 101 0046 03F8012B 		strb	r2, [r3], #1
 102              	.LVL6:
 103              	.L9:
 662:/home/tienluong/workspace/atlantis_fw/platform/driver/src/log.c **** 	{
 104              		.loc 1 662 0 discriminator 1
 105 004a 1A78     		ldrb	r2, [r3]	@ zero_extendqisi2
 106 004c AA42     		cmp	r2, r5
 107 004e F7D1     		bne	.L36
 108 0050 F8E7     		b	.L12
 109              	.L35:
 662:/home/tienluong/workspace/atlantis_fw/platform/driver/src/log.c **** 	{
 110              		.loc 1 662 0 is_stmt 0 discriminator 3
 111 0052 0A2A     		cmp	r2, #10
 112 0054 F6D0     		beq	.L12
 665:/home/tienluong/workspace/atlantis_fw/platform/driver/src/log.c **** 		if (lfn && *sp == sep_ch) { sp++; break; }
 666:/home/tienluong/workspace/atlantis_fw/platform/driver/src/log.c **** 	}
 667:/home/tienluong/workspace/atlantis_fw/platform/driver/src/log.c **** 
 668:/home/tienluong/workspace/atlantis_fw/platform/driver/src/log.c **** 	*pNext = (*sp) ? sp : NULL; /* Next arg*/
 113              		.loc 1 668 0 is_stmt 1
 114 0056 002A     		cmp	r2, #0
 115 0058 08BF     		it	eq
 116 005a 0023     		moveq	r3, #0
 117              	.LVL7:
 118 005c 0B60     		str	r3, [r1]
 669:/home/tienluong/workspace/atlantis_fw/platform/driver/src/log.c **** 
 670:/home/tienluong/workspace/atlantis_fw/platform/driver/src/log.c **** 	return cp;
 671:/home/tienluong/workspace/atlantis_fw/platform/driver/src/log.c **** }
 119              		.loc 1 671 0
 120 005e 70BD     		pop	{r4, r5, r6, pc}
 121              		.cfi_endproc
 122              	.LFE16:
 124              		.section	.text.get_opt,"ax",%progbits
 125              		.align	1
 126              		.thumb
 127              		.thumb_func
 129              	get_opt:
 130              	.LFB17:
 672:/home/tienluong/workspace/atlantis_fw/platform/driver/src/log.c **** 
 673:/home/tienluong/workspace/atlantis_fw/platform/driver/src/log.c **** static char *get_opt(char *cp, char **pNext, char bc)
 674:/home/tienluong/workspace/atlantis_fw/platform/driver/src/log.c **** {
 131              		.loc 1 674 0
 132              		.cfi_startproc
 133              		@ args = 0, pretend = 0, frame = 0
 134              		@ frame_needed = 0, uses_anonymous_args = 0
 135              	.LVL8:
 136 0000 F0B5     		push	{r4, r5, r6, r7, lr}
 137              	.LCFI1:
 138              		.cfi_def_cfa_offset 20
 139              		.cfi_offset 4, -20
 140              		.cfi_offset 5, -16
 141              		.cfi_offset 6, -12
 142              		.cfi_offset 7, -8
 143              		.cfi_offset 14, -4
 675:/home/tienluong/workspace/atlantis_fw/platform/driver/src/log.c **** 	char *sp, lfn = 0, sep_ch = bc;
 676:/home/tienluong/workspace/atlantis_fw/platform/driver/src/log.c **** 
 677:/home/tienluong/workspace/atlantis_fw/platform/driver/src/log.c **** 	if (cp == NULL)
 144              		.loc 1 677 0
 145 0002 10B1     		cbz	r0, .L38
 146 0004 1546     		mov	r5, r2
 147              		.loc 1 677 0 is_stmt 0 discriminator 1
 148 0006 0024     		movs	r4, #0
 149 0008 08E0     		b	.L39
 150              	.L38:
 678:/home/tienluong/workspace/atlantis_fw/platform/driver/src/log.c **** 	{
 679:/home/tienluong/workspace/atlantis_fw/platform/driver/src/log.c **** 		/* Skip NULL pointers */
 680:/home/tienluong/workspace/atlantis_fw/platform/driver/src/log.c **** 		*pNext = cp;
 151              		.loc 1 680 0 is_stmt 1
 152 000a 0860     		str	r0, [r1]
 681:/home/tienluong/workspace/atlantis_fw/platform/driver/src/log.c **** 		return cp;
 153              		.loc 1 681 0
 154 000c F0BD     		pop	{r4, r5, r6, r7, pc}
 155              	.LVL9:
 156              	.L69:
 682:/home/tienluong/workspace/atlantis_fw/platform/driver/src/log.c **** 	}
 683:/home/tienluong/workspace/atlantis_fw/platform/driver/src/log.c **** 
 684:/home/tienluong/workspace/atlantis_fw/platform/driver/src/log.c **** 	for ( ; *cp == bc || *cp == '\"'; cp++)
 157              		.loc 1 684 0 discriminator 2
 158 000e 222B     		cmp	r3, #34
 159 0010 0CD1     		bne	.L68
 685:/home/tienluong/workspace/atlantis_fw/platform/driver/src/log.c **** 	{
 686:/home/tienluong/workspace/atlantis_fw/platform/driver/src/log.c **** 		/* Skip blanks and starting  " */
 687:/home/tienluong/workspace/atlantis_fw/platform/driver/src/log.c **** 		if (*cp == '\"')
 688:/home/tienluong/workspace/atlantis_fw/platform/driver/src/log.c **** 		{
 689:/home/tienluong/workspace/atlantis_fw/platform/driver/src/log.c **** 			sep_ch = '\"';
 160              		.loc 1 689 0
 161 0012 1D46     		mov	r5, r3
 162              	.LVL10:
 690:/home/tienluong/workspace/atlantis_fw/platform/driver/src/log.c **** 			lfn = 1;
 163              		.loc 1 690 0
 164 0014 0124     		movs	r4, #1
 165              	.LVL11:
 166              	.L41:
 691:/home/tienluong/workspace/atlantis_fw/platform/driver/src/log.c **** 		}
 692:/home/tienluong/workspace/atlantis_fw/platform/driver/src/log.c **** 		*cp = 0;
 167              		.loc 1 692 0
 168 0016 0023     		movs	r3, #0
 169 0018 00F8013B 		strb	r3, [r0], #1
 170              	.LVL12:
 171              	.L39:
 684:/home/tienluong/workspace/atlantis_fw/platform/driver/src/log.c **** 	{
 172              		.loc 1 684 0 discriminator 1
 173 001c 0378     		ldrb	r3, [r0]	@ zero_extendqisi2
 174 001e 9342     		cmp	r3, r2
 175 0020 F5D1     		bne	.L69
 689:/home/tienluong/workspace/atlantis_fw/platform/driver/src/log.c **** 			lfn = 1;
 176              		.loc 1 689 0
 177 0022 222A     		cmp	r2, #34
 178 0024 04BF     		itt	eq
 179 0026 2225     		moveq	r5, #34
 180              	.LVL13:
 181 0028 0124     		moveq	r4, #1
 182              	.LVL14:
 183 002a F4E7     		b	.L41
 184              	.LVL15:
 185              	.L68:
 186 002c 0746     		mov	r7, r0
 187              	.LVL16:
 188              	.L43:
 189 002e 3B46     		mov	r3, r7
 190              	.LVL17:
 693:/home/tienluong/workspace/atlantis_fw/platform/driver/src/log.c **** 	}
 694:/home/tienluong/workspace/atlantis_fw/platform/driver/src/log.c **** 
 695:/home/tienluong/workspace/atlantis_fw/platform/driver/src/log.c **** 	for (sp = cp; *sp != '\r' && *sp != '\n'; sp++)
 191              		.loc 1 695 0 discriminator 1
 192 0030 17F8016B 		ldrb	r6, [r7], #1	@ zero_extendqisi2
 193 0034 0D2E     		cmp	r6, #13
 194 0036 01D1     		bne	.L70
 195              	.L47:
 196 0038 1A46     		mov	r2, r3
 197              	.LVL18:
 198 003a 0DE0     		b	.L46
 199              	.LVL19:
 200              	.L70:
 201              		.loc 1 695 0 is_stmt 0 discriminator 3
 202 003c 0A2E     		cmp	r6, #10
 203 003e FBD0     		beq	.L47
 696:/home/tienluong/workspace/atlantis_fw/platform/driver/src/log.c **** 	{
 697:/home/tienluong/workspace/atlantis_fw/platform/driver/src/log.c **** 		if (lfn && *sp == '\"') break;
 204              		.loc 1 697 0 is_stmt 1
 205 0040 14B1     		cbz	r4, .L44
 206              		.loc 1 697 0 is_stmt 0 discriminator 1
 207 0042 222E     		cmp	r6, #34
 208              	.L67:
 209 0044 F3D1     		bne	.L43
 210 0046 F7E7     		b	.L47
 211              	.L44:
 698:/home/tienluong/workspace/atlantis_fw/platform/driver/src/log.c **** 		if (!lfn && *sp == bc) break;
 212              		.loc 1 698 0 is_stmt 1 discriminator 1
 213 0048 9642     		cmp	r6, r2
 214 004a FBE7     		b	.L67
 215              	.LVL20:
 216              	.L73:
 699:/home/tienluong/workspace/atlantis_fw/platform/driver/src/log.c **** 	}
 700:/home/tienluong/workspace/atlantis_fw/platform/driver/src/log.c **** 
 701:/home/tienluong/workspace/atlantis_fw/platform/driver/src/log.c **** 	for ( ; *sp == sep_ch || *sp == '\r' || *sp == '\n'; sp++)
 217              		.loc 1 701 0 discriminator 2
 218 004c 0D2E     		cmp	r6, #13
 219 004e 0CD1     		bne	.L71
 220              	.L51:
 702:/home/tienluong/workspace/atlantis_fw/platform/driver/src/log.c **** 	{
 703:/home/tienluong/workspace/atlantis_fw/platform/driver/src/log.c **** 		*sp = 0;
 221              		.loc 1 703 0
 222 0050 0026     		movs	r6, #0
 223 0052 02F8016B 		strb	r6, [r2], #1
 224              	.LVL21:
 704:/home/tienluong/workspace/atlantis_fw/platform/driver/src/log.c **** 		if (lfn && *sp == sep_ch) { sp++; break; }
 225              		.loc 1 704 0
 226 0056 24B9     		cbnz	r4, .L72
 227              	.L46:
 701:/home/tienluong/workspace/atlantis_fw/platform/driver/src/log.c **** 	{
 228              		.loc 1 701 0 discriminator 1
 229 0058 1678     		ldrb	r6, [r2]	@ zero_extendqisi2
 230 005a AE42     		cmp	r6, r5
 231 005c 1346     		mov	r3, r2
 232              	.LVL22:
 233 005e F5D1     		bne	.L73
 234 0060 F6E7     		b	.L51
 235              	.LVL23:
 236              	.L72:
 237              		.loc 1 704 0 discriminator 1
 238 0062 002D     		cmp	r5, #0
 239 0064 F8D1     		bne	.L46
 240              		.loc 1 704 0 is_stmt 0
 241 0066 0133     		adds	r3, r3, #1
 242              	.LVL24:
 243 0068 01E0     		b	.L50
 244              	.LVL25:
 245              	.L71:
 701:/home/tienluong/workspace/atlantis_fw/platform/driver/src/log.c **** 	{
 246              		.loc 1 701 0 is_stmt 1 discriminator 3
 247 006a 0A2E     		cmp	r6, #10
 248 006c F0D0     		beq	.L51
 249              	.LVL26:
 250              	.L50:
 705:/home/tienluong/workspace/atlantis_fw/platform/driver/src/log.c **** 	}
 706:/home/tienluong/workspace/atlantis_fw/platform/driver/src/log.c **** 
 707:/home/tienluong/workspace/atlantis_fw/platform/driver/src/log.c **** 	*pNext = (*sp) ? sp : NULL;	/* Next arg */
 251              		.loc 1 707 0
 252 006e 1A78     		ldrb	r2, [r3]	@ zero_extendqisi2
 253 0070 002A     		cmp	r2, #0
 254 0072 08BF     		it	eq
 255 0074 0023     		moveq	r3, #0
 256              	.LVL27:
 257 0076 0B60     		str	r3, [r1]
 708:/home/tienluong/workspace/atlantis_fw/platform/driver/src/log.c **** 
 709:/home/tienluong/workspace/atlantis_fw/platform/driver/src/log.c **** 	return cp;
 710:/home/tienluong/workspace/atlantis_fw/platform/driver/src/log.c **** }
 258              		.loc 1 710 0
 259 0078 F0BD     		pop	{r4, r5, r6, r7, pc}
 260              		.cfi_endproc
 261              	.LFE17:
 263              		.section	.text.bb_reset,"ax",%progbits
 264              		.align	1
 265              		.thumb
 266              		.thumb_func
 268              	bb_reset:
 269              	.LFB23:
 711:/home/tienluong/workspace/atlantis_fw/platform/driver/src/log.c **** 
 712:/home/tienluong/workspace/atlantis_fw/platform/driver/src/log.c **** /**
 713:/home/tienluong/workspace/atlantis_fw/platform/driver/src/log.c ****   * @brief rtc_second_diff
 714:/home/tienluong/workspace/atlantis_fw/platform/driver/src/log.c ****   * Calculate number of days differece between past and current
 715:/home/tienluong/workspace/atlantis_fw/platform/driver/src/log.c ****   * @param
 716:/home/tienluong/workspace/atlantis_fw/platform/driver/src/log.c ****   * @retval
 717:/home/tienluong/workspace/atlantis_fw/platform/driver/src/log.c ****   */
 718:/home/tienluong/workspace/atlantis_fw/platform/driver/src/log.c **** 
 719:/home/tienluong/workspace/atlantis_fw/platform/driver/src/log.c **** static unsigned long rtc_second_diff(
 720:/home/tienluong/workspace/atlantis_fw/platform/driver/src/log.c **** 	uint16_t st_day,
 721:/home/tienluong/workspace/atlantis_fw/platform/driver/src/log.c **** 	uint16_t st_month,
 722:/home/tienluong/workspace/atlantis_fw/platform/driver/src/log.c **** 	uint16_t st_year,
 723:/home/tienluong/workspace/atlantis_fw/platform/driver/src/log.c **** 	uint16_t fs_day,
 724:/home/tienluong/workspace/atlantis_fw/platform/driver/src/log.c **** 	uint16_t fs_month,
 725:/home/tienluong/workspace/atlantis_fw/platform/driver/src/log.c **** 	uint16_t fs_year,
 726:/home/tienluong/workspace/atlantis_fw/platform/driver/src/log.c **** 	uint16_t fs_hour,
 727:/home/tienluong/workspace/atlantis_fw/platform/driver/src/log.c **** 	uint16_t fs_min,
 728:/home/tienluong/workspace/atlantis_fw/platform/driver/src/log.c **** 	uint16_t fs_sec)
 729:/home/tienluong/workspace/atlantis_fw/platform/driver/src/log.c **** {
 730:/home/tienluong/workspace/atlantis_fw/platform/driver/src/log.c **** 	unsigned long _tmp = 0, s_day = 0, non_leap_year = 0, leap_year = 0;
 731:/home/tienluong/workspace/atlantis_fw/platform/driver/src/log.c **** 	int i;
 732:/home/tienluong/workspace/atlantis_fw/platform/driver/src/log.c **** 	_tmp = fs_year - st_year;
 733:/home/tienluong/workspace/atlantis_fw/platform/driver/src/log.c **** 	if(_tmp > 0)
 734:/home/tienluong/workspace/atlantis_fw/platform/driver/src/log.c **** 	{
 735:/home/tienluong/workspace/atlantis_fw/platform/driver/src/log.c **** 		_tmp -= 2;
 736:/home/tienluong/workspace/atlantis_fw/platform/driver/src/log.c **** 		non_leap_year += 2;
 737:/home/tienluong/workspace/atlantis_fw/platform/driver/src/log.c **** 		if(fs_year%4 == 0)
 738:/home/tienluong/workspace/atlantis_fw/platform/driver/src/log.c **** 			leap_year = _tmp/4;
 739:/home/tienluong/workspace/atlantis_fw/platform/driver/src/log.c **** 		else
 740:/home/tienluong/workspace/atlantis_fw/platform/driver/src/log.c **** 			leap_year = _tmp/4 + 1;
 741:/home/tienluong/workspace/atlantis_fw/platform/driver/src/log.c **** 		non_leap_year += _tmp - leap_year;
 742:/home/tienluong/workspace/atlantis_fw/platform/driver/src/log.c **** 	}
 743:/home/tienluong/workspace/atlantis_fw/platform/driver/src/log.c **** 	for(i = 0; i < non_leap_year; i++)
 744:/home/tienluong/workspace/atlantis_fw/platform/driver/src/log.c **** 	{
 745:/home/tienluong/workspace/atlantis_fw/platform/driver/src/log.c **** 		s_day += 365;
 746:/home/tienluong/workspace/atlantis_fw/platform/driver/src/log.c **** 	}
 747:/home/tienluong/workspace/atlantis_fw/platform/driver/src/log.c **** 	for(i = 0; i < leap_year; i++)
 748:/home/tienluong/workspace/atlantis_fw/platform/driver/src/log.c **** 	{
 749:/home/tienluong/workspace/atlantis_fw/platform/driver/src/log.c **** 		s_day += 366;
 750:/home/tienluong/workspace/atlantis_fw/platform/driver/src/log.c **** 	}
 751:/home/tienluong/workspace/atlantis_fw/platform/driver/src/log.c **** 	/* Calculate leep year */
 752:/home/tienluong/workspace/atlantis_fw/platform/driver/src/log.c **** 	for(i = 1; i < fs_month; i++)
 753:/home/tienluong/workspace/atlantis_fw/platform/driver/src/log.c **** 	{
 754:/home/tienluong/workspace/atlantis_fw/platform/driver/src/log.c **** 		switch(i)
 755:/home/tienluong/workspace/atlantis_fw/platform/driver/src/log.c **** 		{
 756:/home/tienluong/workspace/atlantis_fw/platform/driver/src/log.c **** 			case 1:
 757:/home/tienluong/workspace/atlantis_fw/platform/driver/src/log.c **** 			case 3:
 758:/home/tienluong/workspace/atlantis_fw/platform/driver/src/log.c **** 			case 5:
 759:/home/tienluong/workspace/atlantis_fw/platform/driver/src/log.c **** 			case 7:
 760:/home/tienluong/workspace/atlantis_fw/platform/driver/src/log.c **** 			case 8:
 761:/home/tienluong/workspace/atlantis_fw/platform/driver/src/log.c **** 			case 10:
 762:/home/tienluong/workspace/atlantis_fw/platform/driver/src/log.c **** 			case 12:
 763:/home/tienluong/workspace/atlantis_fw/platform/driver/src/log.c **** 				s_day += 31;
 764:/home/tienluong/workspace/atlantis_fw/platform/driver/src/log.c **** 				break;
 765:/home/tienluong/workspace/atlantis_fw/platform/driver/src/log.c **** 			case 4:
 766:/home/tienluong/workspace/atlantis_fw/platform/driver/src/log.c **** 			case 6:
 767:/home/tienluong/workspace/atlantis_fw/platform/driver/src/log.c **** 			case 9:
 768:/home/tienluong/workspace/atlantis_fw/platform/driver/src/log.c **** 			case 11:
 769:/home/tienluong/workspace/atlantis_fw/platform/driver/src/log.c **** 				s_day += 30;
 770:/home/tienluong/workspace/atlantis_fw/platform/driver/src/log.c **** 				break;
 771:/home/tienluong/workspace/atlantis_fw/platform/driver/src/log.c **** 			case 2:
 772:/home/tienluong/workspace/atlantis_fw/platform/driver/src/log.c **** 				s_day += (fs_year%4) ? 28 : 29;
 773:/home/tienluong/workspace/atlantis_fw/platform/driver/src/log.c **** 				break;
 774:/home/tienluong/workspace/atlantis_fw/platform/driver/src/log.c **** 			default:
 775:/home/tienluong/workspace/atlantis_fw/platform/driver/src/log.c **** 				break;
 776:/home/tienluong/workspace/atlantis_fw/platform/driver/src/log.c **** 		}
 777:/home/tienluong/workspace/atlantis_fw/platform/driver/src/log.c **** 	}
 778:/home/tienluong/workspace/atlantis_fw/platform/driver/src/log.c **** 
 779:/home/tienluong/workspace/atlantis_fw/platform/driver/src/log.c **** 	s_day += fs_day - 1;
 780:/home/tienluong/workspace/atlantis_fw/platform/driver/src/log.c **** 	return((s_day*24*3600) + (fs_hour*3600) + (fs_min*60) + fs_sec);
 781:/home/tienluong/workspace/atlantis_fw/platform/driver/src/log.c **** }
 782:/home/tienluong/workspace/atlantis_fw/platform/driver/src/log.c **** 
 783:/home/tienluong/workspace/atlantis_fw/platform/driver/src/log.c **** static unsigned long rtc_parse(char *time, char *date)
 784:/home/tienluong/workspace/atlantis_fw/platform/driver/src/log.c **** {
 785:/home/tienluong/workspace/atlantis_fw/platform/driver/src/log.c **** 	uint16_t day	= 0;
 786:/home/tienluong/workspace/atlantis_fw/platform/driver/src/log.c **** 	uint16_t month	= 0;
 787:/home/tienluong/workspace/atlantis_fw/platform/driver/src/log.c **** 	uint16_t year	= 0;
 788:/home/tienluong/workspace/atlantis_fw/platform/driver/src/log.c **** 	uint16_t hour	= 0;
 789:/home/tienluong/workspace/atlantis_fw/platform/driver/src/log.c **** 	uint16_t min	= 0;
 790:/home/tienluong/workspace/atlantis_fw/platform/driver/src/log.c **** 	uint16_t sec	= 0;
 791:/home/tienluong/workspace/atlantis_fw/platform/driver/src/log.c **** 	unsigned long ret = 0;
 792:/home/tienluong/workspace/atlantis_fw/platform/driver/src/log.c **** 	char *str, *next;
 793:/home/tienluong/workspace/atlantis_fw/platform/driver/src/log.c **** 
 794:/home/tienluong/workspace/atlantis_fw/platform/driver/src/log.c **** 	/* Get TIME */
 795:/home/tienluong/workspace/atlantis_fw/platform/driver/src/log.c **** 	str = get_opt(time, &next, ':');
 796:/home/tienluong/workspace/atlantis_fw/platform/driver/src/log.c **** 	hour = atoi(str);
 797:/home/tienluong/workspace/atlantis_fw/platform/driver/src/log.c **** 	str = get_opt(next, &next, ':');
 798:/home/tienluong/workspace/atlantis_fw/platform/driver/src/log.c **** 	min = atoi(str);
 799:/home/tienluong/workspace/atlantis_fw/platform/driver/src/log.c **** 	str = get_opt(next, &next, 0);
 800:/home/tienluong/workspace/atlantis_fw/platform/driver/src/log.c **** 	sec = atoi(str);
 801:/home/tienluong/workspace/atlantis_fw/platform/driver/src/log.c **** 
 802:/home/tienluong/workspace/atlantis_fw/platform/driver/src/log.c **** 	/* Get DATE */
 803:/home/tienluong/workspace/atlantis_fw/platform/driver/src/log.c **** 	str = get_opt(date, &next, '/');
 804:/home/tienluong/workspace/atlantis_fw/platform/driver/src/log.c **** 	day = atoi(str);
 805:/home/tienluong/workspace/atlantis_fw/platform/driver/src/log.c **** 	str = get_opt(next, &next, '/');
 806:/home/tienluong/workspace/atlantis_fw/platform/driver/src/log.c **** 	month = atoi(str);
 807:/home/tienluong/workspace/atlantis_fw/platform/driver/src/log.c **** 	str = get_opt(next, &next, 0);
 808:/home/tienluong/workspace/atlantis_fw/platform/driver/src/log.c **** 	year = atoi(str);
 809:/home/tienluong/workspace/atlantis_fw/platform/driver/src/log.c **** 
 810:/home/tienluong/workspace/atlantis_fw/platform/driver/src/log.c **** 	ret = rtc_second_diff(1, 1, 1970, day, month + 1, year, hour, min, sec);
 811:/home/tienluong/workspace/atlantis_fw/platform/driver/src/log.c **** 
 812:/home/tienluong/workspace/atlantis_fw/platform/driver/src/log.c **** 	return ret;
 813:/home/tienluong/workspace/atlantis_fw/platform/driver/src/log.c **** }
 814:/home/tienluong/workspace/atlantis_fw/platform/driver/src/log.c **** 
 815:/home/tienluong/workspace/atlantis_fw/platform/driver/src/log.c **** /* bb_slog */
 816:/home/tienluong/workspace/atlantis_fw/platform/driver/src/log.c **** static void bb_slog(char *p)
 817:/home/tienluong/workspace/atlantis_fw/platform/driver/src/log.c **** {
 818:/home/tienluong/workspace/atlantis_fw/platform/driver/src/log.c **** 	char *str, *next;
 819:/home/tienluong/workspace/atlantis_fw/platform/driver/src/log.c **** 
 820:/home/tienluong/workspace/atlantis_fw/platform/driver/src/log.c **** 	str = get_arg(p, &next);
 821:/home/tienluong/workspace/atlantis_fw/platform/driver/src/log.c **** 	if(str != NULL)
 822:/home/tienluong/workspace/atlantis_fw/platform/driver/src/log.c **** 	{
 823:/home/tienluong/workspace/atlantis_fw/platform/driver/src/log.c **** 		if(!strcmp(str, "-e"))
 824:/home/tienluong/workspace/atlantis_fw/platform/driver/src/log.c **** 		{
 825:/home/tienluong/workspace/atlantis_fw/platform/driver/src/log.c **** 			slog_w = true;
 826:/home/tienluong/workspace/atlantis_fw/platform/driver/src/log.c **** 			return;
 827:/home/tienluong/workspace/atlantis_fw/platform/driver/src/log.c **** 		}
 828:/home/tienluong/workspace/atlantis_fw/platform/driver/src/log.c **** 		else if(!strcmp(str, "-d"))
 829:/home/tienluong/workspace/atlantis_fw/platform/driver/src/log.c **** 		{
 830:/home/tienluong/workspace/atlantis_fw/platform/driver/src/log.c **** 			slog_w = false;
 831:/home/tienluong/workspace/atlantis_fw/platform/driver/src/log.c **** 			return;
 832:/home/tienluong/workspace/atlantis_fw/platform/driver/src/log.c **** 		}
 833:/home/tienluong/workspace/atlantis_fw/platform/driver/src/log.c **** 		else if(!strcmp(str, "-l"))
 834:/home/tienluong/workspace/atlantis_fw/platform/driver/src/log.c **** 		{
 835:/home/tienluong/workspace/atlantis_fw/platform/driver/src/log.c **** 			str = get_arg(next, &next);
 836:/home/tienluong/workspace/atlantis_fw/platform/driver/src/log.c **** 			if (str != NULL)
 837:/home/tienluong/workspace/atlantis_fw/platform/driver/src/log.c **** 			{
 838:/home/tienluong/workspace/atlantis_fw/platform/driver/src/log.c **** 				const uint8_t level[] =
 839:/home/tienluong/workspace/atlantis_fw/platform/driver/src/log.c **** 					{
 840:/home/tienluong/workspace/atlantis_fw/platform/driver/src/log.c **** 						SLOG_LEVEL_0,
 841:/home/tienluong/workspace/atlantis_fw/platform/driver/src/log.c **** 						SLOG_LEVEL_1,
 842:/home/tienluong/workspace/atlantis_fw/platform/driver/src/log.c **** 						SLOG_LEVEL_2,
 843:/home/tienluong/workspace/atlantis_fw/platform/driver/src/log.c **** 						SLOG_LEVEL_3,
 844:/home/tienluong/workspace/atlantis_fw/platform/driver/src/log.c **** 						SLOG_LEVEL_4,
 845:/home/tienluong/workspace/atlantis_fw/platform/driver/src/log.c **** 						SLOG_LEVEL_5
 846:/home/tienluong/workspace/atlantis_fw/platform/driver/src/log.c **** 					};
 847:/home/tienluong/workspace/atlantis_fw/platform/driver/src/log.c **** 				uint8_t lc = atoi(str);
 848:/home/tienluong/workspace/atlantis_fw/platform/driver/src/log.c **** 				if (lc < 6)
 849:/home/tienluong/workspace/atlantis_fw/platform/driver/src/log.c **** 					light_system->settings->log_ctrl = level[lc];
 850:/home/tienluong/workspace/atlantis_fw/platform/driver/src/log.c **** 				return;
 851:/home/tienluong/workspace/atlantis_fw/platform/driver/src/log.c **** 			}
 852:/home/tienluong/workspace/atlantis_fw/platform/driver/src/log.c **** 		}
 853:/home/tienluong/workspace/atlantis_fw/platform/driver/src/log.c **** 	}
 854:/home/tienluong/workspace/atlantis_fw/platform/driver/src/log.c **** 
 855:/home/tienluong/workspace/atlantis_fw/platform/driver/src/log.c **** 	for(uint8_t i = 0; i < BB_COUNT; i++)
 856:/home/tienluong/workspace/atlantis_fw/platform/driver/src/log.c **** 	{
 857:/home/tienluong/workspace/atlantis_fw/platform/driver/src/log.c **** 		if(!strcmp("slog", bb[i].name))
 858:/home/tienluong/workspace/atlantis_fw/platform/driver/src/log.c **** 		{
 859:/home/tienluong/workspace/atlantis_fw/platform/driver/src/log.c **** 			fprintf(stderr, "%s", bb[i].usage);
 860:/home/tienluong/workspace/atlantis_fw/platform/driver/src/log.c **** 			slog_w_new_msg = 1;
 861:/home/tienluong/workspace/atlantis_fw/platform/driver/src/log.c **** 			xSemaphoreGive(slog_semaphore);
 862:/home/tienluong/workspace/atlantis_fw/platform/driver/src/log.c **** 			break;
 863:/home/tienluong/workspace/atlantis_fw/platform/driver/src/log.c **** 		}
 864:/home/tienluong/workspace/atlantis_fw/platform/driver/src/log.c **** 	}
 865:/home/tienluong/workspace/atlantis_fw/platform/driver/src/log.c **** }
 866:/home/tienluong/workspace/atlantis_fw/platform/driver/src/log.c **** 
 867:/home/tienluong/workspace/atlantis_fw/platform/driver/src/log.c **** /* bb_use */
 868:/home/tienluong/workspace/atlantis_fw/platform/driver/src/log.c **** static void bb_use(char *p)
 869:/home/tienluong/workspace/atlantis_fw/platform/driver/src/log.c **** {
 870:/home/tienluong/workspace/atlantis_fw/platform/driver/src/log.c **** 	char *str, *next;
 871:/home/tienluong/workspace/atlantis_fw/platform/driver/src/log.c **** 	int i;
 872:/home/tienluong/workspace/atlantis_fw/platform/driver/src/log.c **** 
 873:/home/tienluong/workspace/atlantis_fw/platform/driver/src/log.c **** 	str = get_arg(p, &next);
 874:/home/tienluong/workspace/atlantis_fw/platform/driver/src/log.c **** 	if(str == NULL)
 875:/home/tienluong/workspace/atlantis_fw/platform/driver/src/log.c **** 	{
 876:/home/tienluong/workspace/atlantis_fw/platform/driver/src/log.c **** 		i = 0;
 877:/home/tienluong/workspace/atlantis_fw/platform/driver/src/log.c **** 		while(i < BB_COUNT)
 878:/home/tienluong/workspace/atlantis_fw/platform/driver/src/log.c **** 		{
 879:/home/tienluong/workspace/atlantis_fw/platform/driver/src/log.c **** 			fprintf(stderr, "%s", bb[i].usage);
 880:/home/tienluong/workspace/atlantis_fw/platform/driver/src/log.c **** 			i++;
 881:/home/tienluong/workspace/atlantis_fw/platform/driver/src/log.c **** 		}
 882:/home/tienluong/workspace/atlantis_fw/platform/driver/src/log.c **** 		slog_w_new_msg = 1;
 883:/home/tienluong/workspace/atlantis_fw/platform/driver/src/log.c **** 	}
 884:/home/tienluong/workspace/atlantis_fw/platform/driver/src/log.c **** 	else
 885:/home/tienluong/workspace/atlantis_fw/platform/driver/src/log.c **** 	{
 886:/home/tienluong/workspace/atlantis_fw/platform/driver/src/log.c **** 		i = 0;
 887:/home/tienluong/workspace/atlantis_fw/platform/driver/src/log.c **** 		while(i < BB_COUNT)
 888:/home/tienluong/workspace/atlantis_fw/platform/driver/src/log.c **** 		{
 889:/home/tienluong/workspace/atlantis_fw/platform/driver/src/log.c **** 			if(!strcmp(str, bb[i].name))
 890:/home/tienluong/workspace/atlantis_fw/platform/driver/src/log.c **** 			{
 891:/home/tienluong/workspace/atlantis_fw/platform/driver/src/log.c **** 				fprintf(stderr, "%s", bb[i].usage);
 892:/home/tienluong/workspace/atlantis_fw/platform/driver/src/log.c **** 				break;
 893:/home/tienluong/workspace/atlantis_fw/platform/driver/src/log.c **** 			}
 894:/home/tienluong/workspace/atlantis_fw/platform/driver/src/log.c **** 			i++;
 895:/home/tienluong/workspace/atlantis_fw/platform/driver/src/log.c **** 		}
 896:/home/tienluong/workspace/atlantis_fw/platform/driver/src/log.c **** 		slog_w_new_msg = 1;
 897:/home/tienluong/workspace/atlantis_fw/platform/driver/src/log.c **** 	}
 898:/home/tienluong/workspace/atlantis_fw/platform/driver/src/log.c **** }
 899:/home/tienluong/workspace/atlantis_fw/platform/driver/src/log.c **** 
 900:/home/tienluong/workspace/atlantis_fw/platform/driver/src/log.c **** /* bb_clear */
 901:/home/tienluong/workspace/atlantis_fw/platform/driver/src/log.c **** static void bb_clear(char *p)
 902:/home/tienluong/workspace/atlantis_fw/platform/driver/src/log.c **** {
 903:/home/tienluong/workspace/atlantis_fw/platform/driver/src/log.c **** 	fprintf(stderr, "\033[2J");
 904:/home/tienluong/workspace/atlantis_fw/platform/driver/src/log.c **** 	slog_w_new_msg = 1;
 905:/home/tienluong/workspace/atlantis_fw/platform/driver/src/log.c **** }
 906:/home/tienluong/workspace/atlantis_fw/platform/driver/src/log.c **** 
 907:/home/tienluong/workspace/atlantis_fw/platform/driver/src/log.c **** /* bb_reset */
 908:/home/tienluong/workspace/atlantis_fw/platform/driver/src/log.c **** static void bb_reset(char *p)
 909:/home/tienluong/workspace/atlantis_fw/platform/driver/src/log.c **** {
 270              		.loc 1 909 0
 271              		.cfi_startproc
 272              		@ Volatile: function does not return.
 273              		@ args = 0, pretend = 0, frame = 0
 274              		@ frame_needed = 0, uses_anonymous_args = 0
 275              		@ link register save eliminated.
 276              	.LVL28:
 910:/home/tienluong/workspace/atlantis_fw/platform/driver/src/log.c **** 	/* TODO: Implement a reset function here. */
 911:/home/tienluong/workspace/atlantis_fw/platform/driver/src/log.c **** 	__disable_irq();
 277              		.loc 1 911 0
 278              	@ 911 "/home/tienluong/workspace/atlantis_fw/platform/driver/src/log.c" 1
 279 0000 72B6     		CPSID i   
 280 0002 BFF34F8F 	DSB       
 281 0006 BFF36F8F 	ISB         
 282              	@ 0 "" 2
 283              		.thumb
 284              	.L75:
 912:/home/tienluong/workspace/atlantis_fw/platform/driver/src/log.c **** 	while(1);
 285              		.loc 1 912 0 discriminator 1
 286 000a FEE7     		b	.L75
 287              		.cfi_endproc
 288              	.LFE23:
 290              		.section	.text.bb_thermal,"ax",%progbits
 291              		.align	1
 292              		.thumb
 293              		.thumb_func
 295              	bb_thermal:
 296              	.LFB27:
 913:/home/tienluong/workspace/atlantis_fw/platform/driver/src/log.c **** }
 914:/home/tienluong/workspace/atlantis_fw/platform/driver/src/log.c **** 
 915:/home/tienluong/workspace/atlantis_fw/platform/driver/src/log.c **** /* bb_kill */
 916:/home/tienluong/workspace/atlantis_fw/platform/driver/src/log.c **** static void bb_kill(char *p)
 917:/home/tienluong/workspace/atlantis_fw/platform/driver/src/log.c **** {
 918:/home/tienluong/workspace/atlantis_fw/platform/driver/src/log.c **** 	char *str, *next;
 919:/home/tienluong/workspace/atlantis_fw/platform/driver/src/log.c **** 	int i;
 920:/home/tienluong/workspace/atlantis_fw/platform/driver/src/log.c **** 	str = get_arg(p, &next);
 921:/home/tienluong/workspace/atlantis_fw/platform/driver/src/log.c **** 	if(str == NULL)
 922:/home/tienluong/workspace/atlantis_fw/platform/driver/src/log.c **** 	{
 923:/home/tienluong/workspace/atlantis_fw/platform/driver/src/log.c **** 		i = 0;
 924:/home/tienluong/workspace/atlantis_fw/platform/driver/src/log.c **** 		while(i < BB_COUNT)
 925:/home/tienluong/workspace/atlantis_fw/platform/driver/src/log.c **** 		{
 926:/home/tienluong/workspace/atlantis_fw/platform/driver/src/log.c **** 			if(!strcmp("kill", bb[i].name))
 927:/home/tienluong/workspace/atlantis_fw/platform/driver/src/log.c **** 			{
 928:/home/tienluong/workspace/atlantis_fw/platform/driver/src/log.c **** 				fprintf(stderr, "%s", bb[i].usage);
 929:/home/tienluong/workspace/atlantis_fw/platform/driver/src/log.c **** 				slog_w_new_msg = 1;
 930:/home/tienluong/workspace/atlantis_fw/platform/driver/src/log.c **** 				break;
 931:/home/tienluong/workspace/atlantis_fw/platform/driver/src/log.c **** 			}
 932:/home/tienluong/workspace/atlantis_fw/platform/driver/src/log.c **** 			i++;
 933:/home/tienluong/workspace/atlantis_fw/platform/driver/src/log.c **** 		}
 934:/home/tienluong/workspace/atlantis_fw/platform/driver/src/log.c **** 	}
 935:/home/tienluong/workspace/atlantis_fw/platform/driver/src/log.c **** 	else
 936:/home/tienluong/workspace/atlantis_fw/platform/driver/src/log.c **** 	{
 937:/home/tienluong/workspace/atlantis_fw/platform/driver/src/log.c **** 		i = 0;
 938:/home/tienluong/workspace/atlantis_fw/platform/driver/src/log.c **** 		while(i < TASK_NUM)
 939:/home/tienluong/workspace/atlantis_fw/platform/driver/src/log.c **** 		{
 940:/home/tienluong/workspace/atlantis_fw/platform/driver/src/log.c **** 			if(!strcmp(str, task_list[i].name))
 941:/home/tienluong/workspace/atlantis_fw/platform/driver/src/log.c **** 			{
 942:/home/tienluong/workspace/atlantis_fw/platform/driver/src/log.c **** 				vTaskDelete(task_handler[i].handle);
 943:/home/tienluong/workspace/atlantis_fw/platform/driver/src/log.c **** 				break;
 944:/home/tienluong/workspace/atlantis_fw/platform/driver/src/log.c **** 			}
 945:/home/tienluong/workspace/atlantis_fw/platform/driver/src/log.c **** 			i++;
 946:/home/tienluong/workspace/atlantis_fw/platform/driver/src/log.c **** 		}
 947:/home/tienluong/workspace/atlantis_fw/platform/driver/src/log.c **** 		if(TASK_NUM == i)
 948:/home/tienluong/workspace/atlantis_fw/platform/driver/src/log.c **** 		{
 949:/home/tienluong/workspace/atlantis_fw/platform/driver/src/log.c **** 			fprintf(stderr, "Invalid Task Name\r\n");
 950:/home/tienluong/workspace/atlantis_fw/platform/driver/src/log.c **** 			slog_w_new_msg = 1;
 951:/home/tienluong/workspace/atlantis_fw/platform/driver/src/log.c **** 		}
 952:/home/tienluong/workspace/atlantis_fw/platform/driver/src/log.c **** 	}
 953:/home/tienluong/workspace/atlantis_fw/platform/driver/src/log.c **** }
 954:/home/tienluong/workspace/atlantis_fw/platform/driver/src/log.c **** 
 955:/home/tienluong/workspace/atlantis_fw/platform/driver/src/log.c **** /* bb_ps */
 956:/home/tienluong/workspace/atlantis_fw/platform/driver/src/log.c **** static void bb_ps(char *p)
 957:/home/tienluong/workspace/atlantis_fw/platform/driver/src/log.c **** {
 958:/home/tienluong/workspace/atlantis_fw/platform/driver/src/log.c **** 	char *next;
 959:/home/tienluong/workspace/atlantis_fw/platform/driver/src/log.c **** 	char *str, *ps = NULL;
 960:/home/tienluong/workspace/atlantis_fw/platform/driver/src/log.c **** 	int i;
 961:/home/tienluong/workspace/atlantis_fw/platform/driver/src/log.c **** 	char c;
 962:/home/tienluong/workspace/atlantis_fw/platform/driver/src/log.c **** 	int free_heap_space;
 963:/home/tienluong/workspace/atlantis_fw/platform/driver/src/log.c **** 
 964:/home/tienluong/workspace/atlantis_fw/platform/driver/src/log.c **** 	str = get_arg(p, &next);
 965:/home/tienluong/workspace/atlantis_fw/platform/driver/src/log.c **** 	if(str == NULL)
 966:/home/tienluong/workspace/atlantis_fw/platform/driver/src/log.c **** 	{
 967:/home/tienluong/workspace/atlantis_fw/platform/driver/src/log.c **** 		i = 0;
 968:/home/tienluong/workspace/atlantis_fw/platform/driver/src/log.c **** 		while(i < BB_COUNT)
 969:/home/tienluong/workspace/atlantis_fw/platform/driver/src/log.c **** 		{
 970:/home/tienluong/workspace/atlantis_fw/platform/driver/src/log.c **** 			if(!strcmp("ps", bb[i].name))
 971:/home/tienluong/workspace/atlantis_fw/platform/driver/src/log.c **** 			{
 972:/home/tienluong/workspace/atlantis_fw/platform/driver/src/log.c **** 				fprintf(stderr, "%s", bb[i].usage);
 973:/home/tienluong/workspace/atlantis_fw/platform/driver/src/log.c **** 				slog_w_new_msg = 1;
 974:/home/tienluong/workspace/atlantis_fw/platform/driver/src/log.c **** 				xSemaphoreGive(slog_semaphore);
 975:/home/tienluong/workspace/atlantis_fw/platform/driver/src/log.c **** 				break;
 976:/home/tienluong/workspace/atlantis_fw/platform/driver/src/log.c **** 			}
 977:/home/tienluong/workspace/atlantis_fw/platform/driver/src/log.c **** 			i++;
 978:/home/tienluong/workspace/atlantis_fw/platform/driver/src/log.c **** 		}
 979:/home/tienluong/workspace/atlantis_fw/platform/driver/src/log.c **** 	}
 980:/home/tienluong/workspace/atlantis_fw/platform/driver/src/log.c **** 	else
 981:/home/tienluong/workspace/atlantis_fw/platform/driver/src/log.c **** 	{
 982:/home/tienluong/workspace/atlantis_fw/platform/driver/src/log.c **** 		if(!strcmp(str, "-a"))
 983:/home/tienluong/workspace/atlantis_fw/platform/driver/src/log.c **** 		{
 984:/home/tienluong/workspace/atlantis_fw/platform/driver/src/log.c **** 			fprintf(stderr,
 985:/home/tienluong/workspace/atlantis_fw/platform/driver/src/log.c **** 					"\r\ntask          state   priority  stack   num\r\n");
 986:/home/tienluong/workspace/atlantis_fw/platform/driver/src/log.c **** 			fprintf(stderr,
 987:/home/tienluong/workspace/atlantis_fw/platform/driver/src/log.c **** 						"*******************************************\r\n");
 988:/home/tienluong/workspace/atlantis_fw/platform/driver/src/log.c **** 			ps = assert_malloc(ps, 2048*sizeof(char));
 989:/home/tienluong/workspace/atlantis_fw/platform/driver/src/log.c **** 			vTaskList(ps);
 990:/home/tienluong/workspace/atlantis_fw/platform/driver/src/log.c **** 			fprintf(stderr, "%s\r\n", ps);
 991:/home/tienluong/workspace/atlantis_fw/platform/driver/src/log.c **** 			vPortFree(ps);
 992:/home/tienluong/workspace/atlantis_fw/platform/driver/src/log.c **** 			free_heap_space = xPortGetFreeHeapSize();
 993:/home/tienluong/workspace/atlantis_fw/platform/driver/src/log.c **** 			fprintf(stderr, "\r\nHeap Free\r\n");
 994:/home/tienluong/workspace/atlantis_fw/platform/driver/src/log.c **** 			fprintf(stderr, "*******************************\r\n");
 995:/home/tienluong/workspace/atlantis_fw/platform/driver/src/log.c **** 			fprintf(stderr, "   %dB/%dB\r\n", free_heap_space, configTOTAL_HEAP_SIZE);
 996:/home/tienluong/workspace/atlantis_fw/platform/driver/src/log.c **** 			slog_w_new_msg = 1;
 997:/home/tienluong/workspace/atlantis_fw/platform/driver/src/log.c **** 			xSemaphoreGive(slog_semaphore);
 998:/home/tienluong/workspace/atlantis_fw/platform/driver/src/log.c **** 		}
 999:/home/tienluong/workspace/atlantis_fw/platform/driver/src/log.c **** 		if(!strcmp(str, "-t"))
1000:/home/tienluong/workspace/atlantis_fw/platform/driver/src/log.c **** 		{
1001:/home/tienluong/workspace/atlantis_fw/platform/driver/src/log.c **** 			ps = assert_malloc(ps, 1024*sizeof(char));
1002:/home/tienluong/workspace/atlantis_fw/platform/driver/src/log.c **** 			while(1)
1003:/home/tienluong/workspace/atlantis_fw/platform/driver/src/log.c **** 			{
1004:/home/tienluong/workspace/atlantis_fw/platform/driver/src/log.c **** 				fprintf(stderr, "\033[2J");
1005:/home/tienluong/workspace/atlantis_fw/platform/driver/src/log.c **** 				fprintf(stderr,
1006:/home/tienluong/workspace/atlantis_fw/platform/driver/src/log.c **** 					"\r\ntask          state   priority  stack   num\r\n");
1007:/home/tienluong/workspace/atlantis_fw/platform/driver/src/log.c **** 				fprintf(stderr,
1008:/home/tienluong/workspace/atlantis_fw/platform/driver/src/log.c **** 						"*******************************************\r\n");
1009:/home/tienluong/workspace/atlantis_fw/platform/driver/src/log.c **** 				vTaskList(ps);
1010:/home/tienluong/workspace/atlantis_fw/platform/driver/src/log.c **** 				fprintf(stderr, "%s\r\n", ps);
1011:/home/tienluong/workspace/atlantis_fw/platform/driver/src/log.c **** 				free_heap_space = xPortGetFreeHeapSize();
1012:/home/tienluong/workspace/atlantis_fw/platform/driver/src/log.c **** 			fprintf(stderr, "\r\nHeap Free\r\n");
1013:/home/tienluong/workspace/atlantis_fw/platform/driver/src/log.c **** 			fprintf(stderr, "*******************************\r\n");
1014:/home/tienluong/workspace/atlantis_fw/platform/driver/src/log.c **** 			fprintf(stderr, "   %dB/%dB\r\n", free_heap_space, configTOTAL_HEAP_SIZE);
1015:/home/tienluong/workspace/atlantis_fw/platform/driver/src/log.c **** 				slog_w_new_msg = 1;
1016:/home/tienluong/workspace/atlantis_fw/platform/driver/src/log.c **** 				xSemaphoreGive(slog_semaphore);
1017:/home/tienluong/workspace/atlantis_fw/platform/driver/src/log.c **** 
1018:/home/tienluong/workspace/atlantis_fw/platform/driver/src/log.c **** 				if(xQueueReceive(data, &c, 1000) == pdPASS)
1019:/home/tienluong/workspace/atlantis_fw/platform/driver/src/log.c **** 				{
1020:/home/tienluong/workspace/atlantis_fw/platform/driver/src/log.c **** 					if (c == CTRL_C)
1021:/home/tienluong/workspace/atlantis_fw/platform/driver/src/log.c **** 						break;
1022:/home/tienluong/workspace/atlantis_fw/platform/driver/src/log.c **** 				}
1023:/home/tienluong/workspace/atlantis_fw/platform/driver/src/log.c **** 			}
1024:/home/tienluong/workspace/atlantis_fw/platform/driver/src/log.c **** 			vPortFree(ps);
1025:/home/tienluong/workspace/atlantis_fw/platform/driver/src/log.c **** 		}
1026:/home/tienluong/workspace/atlantis_fw/platform/driver/src/log.c **** 	}
1027:/home/tienluong/workspace/atlantis_fw/platform/driver/src/log.c **** }
1028:/home/tienluong/workspace/atlantis_fw/platform/driver/src/log.c **** 
1029:/home/tienluong/workspace/atlantis_fw/platform/driver/src/log.c **** /* bb_time */
1030:/home/tienluong/workspace/atlantis_fw/platform/driver/src/log.c **** static void bb_time(char *p)
1031:/home/tienluong/workspace/atlantis_fw/platform/driver/src/log.c **** {
1032:/home/tienluong/workspace/atlantis_fw/platform/driver/src/log.c **** 	rtc_t rtc_time;
1033:/home/tienluong/workspace/atlantis_fw/platform/driver/src/log.c **** 	struct tm *t_info;
1034:/home/tienluong/workspace/atlantis_fw/platform/driver/src/log.c **** 	char *buffer = assert_malloc(buffer, 80*sizeof(char));
1035:/home/tienluong/workspace/atlantis_fw/platform/driver/src/log.c **** 	char *str, *next, *_day, *_time;
1036:/home/tienluong/workspace/atlantis_fw/platform/driver/src/log.c **** 
1037:/home/tienluong/workspace/atlantis_fw/platform/driver/src/log.c **** 	str = get_arg(p, &next);
1038:/home/tienluong/workspace/atlantis_fw/platform/driver/src/log.c **** 	if(str != NULL)
1039:/home/tienluong/workspace/atlantis_fw/platform/driver/src/log.c **** 	{
1040:/home/tienluong/workspace/atlantis_fw/platform/driver/src/log.c **** 		if(!strcmp(str, "-s"))
1041:/home/tienluong/workspace/atlantis_fw/platform/driver/src/log.c **** 		{
1042:/home/tienluong/workspace/atlantis_fw/platform/driver/src/log.c **** 			_time = get_arg(next, &next);
1043:/home/tienluong/workspace/atlantis_fw/platform/driver/src/log.c **** 			_day = get_arg(next, &next);
1044:/home/tienluong/workspace/atlantis_fw/platform/driver/src/log.c **** 			if(_day == NULL || _time == NULL)
1045:/home/tienluong/workspace/atlantis_fw/platform/driver/src/log.c **** 			{
1046:/home/tienluong/workspace/atlantis_fw/platform/driver/src/log.c **** 				/** TODO: What should we do here ? */
1047:/home/tienluong/workspace/atlantis_fw/platform/driver/src/log.c **** 			}
1048:/home/tienluong/workspace/atlantis_fw/platform/driver/src/log.c **** 			else
1049:/home/tienluong/workspace/atlantis_fw/platform/driver/src/log.c **** 			{
1050:/home/tienluong/workspace/atlantis_fw/platform/driver/src/log.c **** 				rtc_time.raw = rtc_parse(_time, _day);
1051:/home/tienluong/workspace/atlantis_fw/platform/driver/src/log.c **** 				rtc_set_time(rtc_time);
1052:/home/tienluong/workspace/atlantis_fw/platform/driver/src/log.c **** 			}
1053:/home/tienluong/workspace/atlantis_fw/platform/driver/src/log.c **** 		}
1054:/home/tienluong/workspace/atlantis_fw/platform/driver/src/log.c **** 	}
1055:/home/tienluong/workspace/atlantis_fw/platform/driver/src/log.c **** 
1056:/home/tienluong/workspace/atlantis_fw/platform/driver/src/log.c **** 	rtc_time = rtc_get_time();
1057:/home/tienluong/workspace/atlantis_fw/platform/driver/src/log.c **** 	time(&rtc_time.raw);
1058:/home/tienluong/workspace/atlantis_fw/platform/driver/src/log.c **** 	t_info = localtime(&rtc_time.raw);
1059:/home/tienluong/workspace/atlantis_fw/platform/driver/src/log.c **** 	strftime(buffer, 80, "\t%c Week %U %Z", t_info);
1060:/home/tienluong/workspace/atlantis_fw/platform/driver/src/log.c **** 	fprintf(stderr, "%s\r\n", buffer);
1061:/home/tienluong/workspace/atlantis_fw/platform/driver/src/log.c **** 	slog_w_new_msg = 1;
1062:/home/tienluong/workspace/atlantis_fw/platform/driver/src/log.c **** 	vPortFree(buffer);
1063:/home/tienluong/workspace/atlantis_fw/platform/driver/src/log.c **** }
1064:/home/tienluong/workspace/atlantis_fw/platform/driver/src/log.c **** 
1065:/home/tienluong/workspace/atlantis_fw/platform/driver/src/log.c **** /* bb_thermal */
1066:/home/tienluong/workspace/atlantis_fw/platform/driver/src/log.c **** static void bb_thermal(char *p)
1067:/home/tienluong/workspace/atlantis_fw/platform/driver/src/log.c **** {
 297              		.loc 1 1067 0
 298              		.cfi_startproc
 299              		@ args = 0, pretend = 0, frame = 0
 300              		@ frame_needed = 0, uses_anonymous_args = 0
 301              		@ link register save eliminated.
 302              	.LVL29:
 303 0000 7047     		bx	lr
 304              		.cfi_endproc
 305              	.LFE27:
 307              		.section	.text.com_irq_handler,"ax",%progbits
 308              		.align	1
 309              		.thumb
 310              		.thumb_func
 312              	com_irq_handler:
 313              	.LFB4:
 263:/home/tienluong/workspace/atlantis_fw/platform/driver/src/log.c **** 	static BaseType_t xhigherpriority = pdFALSE;
 314              		.loc 1 263 0
 315              		.cfi_startproc
 316              		@ args = 0, pretend = 0, frame = 8
 317              		@ frame_needed = 0, uses_anonymous_args = 0
 318              	.LVL30:
 263:/home/tienluong/workspace/atlantis_fw/platform/driver/src/log.c **** 	static BaseType_t xhigherpriority = pdFALSE;
 319              		.loc 1 263 0
 320 0000 37B5     		push	{r0, r1, r2, r4, r5, lr}
 321              	.LCFI2:
 322              		.cfi_def_cfa_offset 24
 323              		.cfi_offset 4, -12
 324              		.cfi_offset 5, -8
 325              		.cfi_offset 14, -4
 266:/home/tienluong/workspace/atlantis_fw/platform/driver/src/log.c **** 	{
 326              		.loc 1 266 0
 327 0002 0B4B     		ldr	r3, .L84
 263:/home/tienluong/workspace/atlantis_fw/platform/driver/src/log.c **** 	static BaseType_t xhigherpriority = pdFALSE;
 328              		.loc 1 263 0
 329 0004 8DF80700 		strb	r0, [sp, #7]
 266:/home/tienluong/workspace/atlantis_fw/platform/driver/src/log.c **** 	{
 330              		.loc 1 266 0
 331 0008 9847     		blx	r3
 332              	.LVL31:
 333 000a 0128     		cmp	r0, #1
 334 000c 0DD0     		beq	.L77
 268:/home/tienluong/workspace/atlantis_fw/platform/driver/src/log.c **** 		if(xhigherpriority)
 335              		.loc 1 268 0
 336 000e 094B     		ldr	r3, .L84+4
 337 0010 0DF10701 		add	r1, sp, #7
 338              	.LVL32:
 339 0014 084C     		ldr	r4, .L84+8
 340 0016 2246     		mov	r2, r4
 341 0018 1868     		ldr	r0, [r3]
 342 001a 0023     		movs	r3, #0
 343 001c 074D     		ldr	r5, .L84+12
 344 001e A847     		blx	r5
 345              	.LVL33:
 269:/home/tienluong/workspace/atlantis_fw/platform/driver/src/log.c **** 			portYIELD_FROM_ISR(xhigherpriority);
 346              		.loc 1 269 0
 347 0020 2368     		ldr	r3, [r4]
 348 0022 13B1     		cbz	r3, .L77
 349              	.LBB2:
 270:/home/tienluong/workspace/atlantis_fw/platform/driver/src/log.c **** 	}
 350              		.loc 1 270 0 discriminator 1
 351 0024 0122     		movs	r2, #1
 352 0026 064B     		ldr	r3, .L84+16
 353 0028 1A60     		str	r2, [r3]
 354              	.L77:
 355              	.LBE2:
 272:/home/tienluong/workspace/atlantis_fw/platform/driver/src/log.c **** 
 356              		.loc 1 272 0
 357 002a 03B0     		add	sp, sp, #12
 358              	.LCFI3:
 359              		.cfi_def_cfa_offset 12
 360              		@ sp needed
 361 002c 30BD     		pop	{r4, r5, pc}
 362              	.LVL34:
 363              	.L85:
 364 002e 00BF     		.align	2
 365              	.L84:
 366 0030 00000000 		.word	xTaskGetSchedulerState
 367 0034 00000000 		.word	.LANCHOR0
 368 0038 00000000 		.word	.LANCHOR1
 369 003c 00000000 		.word	xQueueGenericSendFromISR
 370 0040 00000000 		.word	ulPortYieldRequired
 371              		.cfi_endproc
 372              	.LFE4:
 374              		.section	.text.bb_cam,"ax",%progbits
 375              		.align	1
 376              		.thumb
 377              		.thumb_func
 379              	bb_cam:
 380              	.LFB28:
1068:/home/tienluong/workspace/atlantis_fw/platform/driver/src/log.c **** 	/*TODO: Print out the value of thermal sensor here.*/
1069:/home/tienluong/workspace/atlantis_fw/platform/driver/src/log.c **** }
1070:/home/tienluong/workspace/atlantis_fw/platform/driver/src/log.c **** 
1071:/home/tienluong/workspace/atlantis_fw/platform/driver/src/log.c **** /* bb_trace */
1072:/home/tienluong/workspace/atlantis_fw/platform/driver/src/log.c **** #if (_TRACE_ENABLE == 1)
1073:/home/tienluong/workspace/atlantis_fw/platform/driver/src/log.c **** static void bb_trace(char *p)
1074:/home/tienluong/workspace/atlantis_fw/platform/driver/src/log.c **** {
1075:/home/tienluong/workspace/atlantis_fw/platform/driver/src/log.c **** 	char *str, *next;
1076:/home/tienluong/workspace/atlantis_fw/platform/driver/src/log.c **** 
1077:/home/tienluong/workspace/atlantis_fw/platform/driver/src/log.c **** 	str = get_arg(p, &next);
1078:/home/tienluong/workspace/atlantis_fw/platform/driver/src/log.c **** 	if(str != NULL)
1079:/home/tienluong/workspace/atlantis_fw/platform/driver/src/log.c **** 	{
1080:/home/tienluong/workspace/atlantis_fw/platform/driver/src/log.c **** 		if(!strcmp(str, "-s"))
1081:/home/tienluong/workspace/atlantis_fw/platform/driver/src/log.c **** 		{
1082:/home/tienluong/workspace/atlantis_fw/platform/driver/src/log.c **** 			if (uiTraceStart() == 0)
1083:/home/tienluong/workspace/atlantis_fw/platform/driver/src/log.c **** 				fprintf(stderr, "Could not start recorder\r\n");
1084:/home/tienluong/workspace/atlantis_fw/platform/driver/src/log.c **** 			else
1085:/home/tienluong/workspace/atlantis_fw/platform/driver/src/log.c **** 				fprintf(stderr, "Kernel trace is started\r\n");
1086:/home/tienluong/workspace/atlantis_fw/platform/driver/src/log.c **** 			slog_w_new_msg = 1;
1087:/home/tienluong/workspace/atlantis_fw/platform/driver/src/log.c **** 		}
1088:/home/tienluong/workspace/atlantis_fw/platform/driver/src/log.c **** 		if(!strcmp(str, "-p"))
1089:/home/tienluong/workspace/atlantis_fw/platform/driver/src/log.c **** 		{
1090:/home/tienluong/workspace/atlantis_fw/platform/driver/src/log.c **** 			vTraceStop();
1091:/home/tienluong/workspace/atlantis_fw/platform/driver/src/log.c **** 			fprintf(stderr, "Kernel trace stopped\r\n");
1092:/home/tienluong/workspace/atlantis_fw/platform/driver/src/log.c **** 			slog_w_new_msg = 1;
1093:/home/tienluong/workspace/atlantis_fw/platform/driver/src/log.c **** 		}
1094:/home/tienluong/workspace/atlantis_fw/platform/driver/src/log.c **** 	}
1095:/home/tienluong/workspace/atlantis_fw/platform/driver/src/log.c **** }
1096:/home/tienluong/workspace/atlantis_fw/platform/driver/src/log.c **** #endif /* _TRACE_ENABLE */
1097:/home/tienluong/workspace/atlantis_fw/platform/driver/src/log.c **** 
1098:/home/tienluong/workspace/atlantis_fw/platform/driver/src/log.c **** /* bb_cam */
1099:/home/tienluong/workspace/atlantis_fw/platform/driver/src/log.c **** static void bb_cam(char *p)
1100:/home/tienluong/workspace/atlantis_fw/platform/driver/src/log.c **** {
 381              		.loc 1 1100 0
 382              		.cfi_startproc
 383              		@ args = 0, pretend = 0, frame = 8
 384              		@ frame_needed = 0, uses_anonymous_args = 0
 385              	.LVL35:
 386 0000 07B5     		push	{r0, r1, r2, lr}
 387              	.LCFI4:
 388              		.cfi_def_cfa_offset 16
 389              		.cfi_offset 14, -4
1101:/home/tienluong/workspace/atlantis_fw/platform/driver/src/log.c **** 	char *str, *next;
1102:/home/tienluong/workspace/atlantis_fw/platform/driver/src/log.c **** 	str = get_arg(p, &next);
 390              		.loc 1 1102 0
 391 0002 084B     		ldr	r3, .L91
 392 0004 01A9     		add	r1, sp, #4
 393 0006 9847     		blx	r3
 394              	.LVL36:
1103:/home/tienluong/workspace/atlantis_fw/platform/driver/src/log.c **** 
1104:/home/tienluong/workspace/atlantis_fw/platform/driver/src/log.c **** 	if(str != NULL)
 395              		.loc 1 1104 0
 396 0008 0246     		mov	r2, r0
 397 000a 28B1     		cbz	r0, .L87
1105:/home/tienluong/workspace/atlantis_fw/platform/driver/src/log.c **** 	{
1106:/home/tienluong/workspace/atlantis_fw/platform/driver/src/log.c **** 		fprintf(stderr, "\r\nDetail %s\r\n", str);
 398              		.loc 1 1106 0
 399 000c 064B     		ldr	r3, .L91+4
 400 000e 0749     		ldr	r1, .L91+8
 401 0010 1B68     		ldr	r3, [r3]
 402 0012 D868     		ldr	r0, [r3, #12]
 403              	.LVL37:
 404 0014 064B     		ldr	r3, .L91+12
 405 0016 9847     		blx	r3
 406              	.LVL38:
 407              	.L87:
1107:/home/tienluong/workspace/atlantis_fw/platform/driver/src/log.c **** /*TODO: Should re-enable */
1108:/home/tienluong/workspace/atlantis_fw/platform/driver/src/log.c **** #if 0
1109:/home/tienluong/workspace/atlantis_fw/platform/driver/src/log.c **** 		cam_module_t *cam = NULL;
1110:/home/tienluong/workspace/atlantis_fw/platform/driver/src/log.c **** 		uint8_t i = CAM_CH_A1;
1111:/home/tienluong/workspace/atlantis_fw/platform/driver/src/log.c **** 		uint8_t EXIT = 0;
1112:/home/tienluong/workspace/atlantis_fw/platform/driver/src/log.c **** 		while(i < CAM_CH_MAX_NUM && !EXIT)
1113:/home/tienluong/workspace/atlantis_fw/platform/driver/src/log.c **** 		{
1114:/home/tienluong/workspace/atlantis_fw/platform/driver/src/log.c **** 			cam = &light_system->cam_list[i];
1115:/home/tienluong/workspace/atlantis_fw/platform/driver/src/log.c **** 			if(!strcmp(str, cam->name))
1116:/home/tienluong/workspace/atlantis_fw/platform/driver/src/log.c **** 			{
1117:/home/tienluong/workspace/atlantis_fw/platform/driver/src/log.c **** 				fprintf(stderr, "\tChannel ID\t: %d\r\n", cam->chid);
1118:/home/tienluong/workspace/atlantis_fw/platform/driver/src/log.c **** 				fprintf(stderr, "\tName\t\t: %s\r\n", cam->name);
1119:/home/tienluong/workspace/atlantis_fw/platform/driver/src/log.c **** 				fprintf(stderr, "\tCamera type\t: %s\r\n",
1120:/home/tienluong/workspace/atlantis_fw/platform/driver/src/log.c **** 						cam->type == CAM_TYPE_35MM ? "35MM" :
1121:/home/tienluong/workspace/atlantis_fw/platform/driver/src/log.c **** 						cam->type == CAM_TYPE_70MM ? "70MM" :
1122:/home/tienluong/workspace/atlantis_fw/platform/driver/src/log.c **** 						cam->type == CAM_TYPE_150MM ? "150MM" : "Unknown");
1123:/home/tienluong/workspace/atlantis_fw/platform/driver/src/log.c **** 				fprintf(stderr, "\tI2C Addr\t: 0x%02X\r\n", cam->slave_addr);
1124:/home/tienluong/workspace/atlantis_fw/platform/driver/src/log.c **** 				fprintf(stderr, "\tResolution\t:\r\n");
1125:/home/tienluong/workspace/atlantis_fw/platform/driver/src/log.c **** 				fprintf(stderr, "\t\tSensitivity\t: %u\r\n",
1126:/home/tienluong/workspace/atlantis_fw/platform/driver/src/log.c **** 						cam_read_reg(cam, CAM_REG_SENSITIVITY, DATA_16BIT));
1127:/home/tienluong/workspace/atlantis_fw/platform/driver/src/log.c **** 				fprintf(stderr, "\t\tExposure\t: %u\r\n",
1128:/home/tienluong/workspace/atlantis_fw/platform/driver/src/log.c **** 						cam_read_reg(cam, CAM_REG_EXPOSURE, DATA_16BIT));
1129:/home/tienluong/workspace/atlantis_fw/platform/driver/src/log.c **** 				fprintf(stderr, "\tOpen status\t: %s\r\n",
1130:/home/tienluong/workspace/atlantis_fw/platform/driver/src/log.c **** 					cam->m_o_status == CAM_MODULE_CLOSE ? "CLOSE" :
1131:/home/tienluong/workspace/atlantis_fw/platform/driver/src/log.c **** 					cam->m_o_status == CAM_MODULE_HW_STANDBY ? "HW STANDBY" :
1132:/home/tienluong/workspace/atlantis_fw/platform/driver/src/log.c **** 					cam->m_o_status == CAM_MODULE_SW_STANDBY ? "SW STANDBY" :
1133:/home/tienluong/workspace/atlantis_fw/platform/driver/src/log.c **** 					"Unknown");
1134:/home/tienluong/workspace/atlantis_fw/platform/driver/src/log.c **** 				fprintf(stderr, "\tStream CSI\t:\r\n");
1135:/home/tienluong/workspace/atlantis_fw/platform/driver/src/log.c **** 				fprintf(stderr, "\t\tControl status\t:\r\n");
1136:/home/tienluong/workspace/atlantis_fw/platform/driver/src/log.c **** 				fprintf(stderr, "\t\t\tChannel\t\t: %s  ",
1137:/home/tienluong/workspace/atlantis_fw/platform/driver/src/log.c **** 					(cam->m_stream.ctrl_status & 0x10) == 0x10 ? "CS0" : "");
1138:/home/tienluong/workspace/atlantis_fw/platform/driver/src/log.c **** 				fprintf(stderr, "%s\r\n",
1139:/home/tienluong/workspace/atlantis_fw/platform/driver/src/log.c **** 					(cam->m_stream.ctrl_status & 0x20) == 0x20 ? "CS1" : "");
1140:/home/tienluong/workspace/atlantis_fw/platform/driver/src/log.c **** 				fprintf(stderr, "\t\t\tStatus\t\t: %s\r\n",
1141:/home/tienluong/workspace/atlantis_fw/platform/driver/src/log.c **** 						(cam->m_stream.ctrl_status & 0x01) == 0x01 ? "Enable" :
1142:/home/tienluong/workspace/atlantis_fw/platform/driver/src/log.c **** 						"Disable");
1143:/home/tienluong/workspace/atlantis_fw/platform/driver/src/log.c **** 				fprintf(stderr,
1144:/home/tienluong/workspace/atlantis_fw/platform/driver/src/log.c **** 						"\t\tVirtual Channel\t: %d\r\n", cam->m_stream.vc);
1145:/home/tienluong/workspace/atlantis_fw/platform/driver/src/log.c **** 				fprintf(stderr, "\t\tData Type\t: %d\r\n", cam->m_stream.dt);
1146:/home/tienluong/workspace/atlantis_fw/platform/driver/src/log.c **** 				fprintf(stderr, "\tStatus\t\t:"
1147:/home/tienluong/workspace/atlantis_fw/platform/driver/src/log.c **** 						""BYTETOBINARYPATTERN""
1148:/home/tienluong/workspace/atlantis_fw/platform/driver/src/log.c **** 						""BYTETOBINARYPATTERN""
1149:/home/tienluong/workspace/atlantis_fw/platform/driver/src/log.c **** 						""BYTETOBINARYPATTERN""
1150:/home/tienluong/workspace/atlantis_fw/platform/driver/src/log.c **** 						""BYTETOBINARYPATTERN"\r\n",
1151:/home/tienluong/workspace/atlantis_fw/platform/driver/src/log.c **** 						BYTETOBINARY((uint8_t)((cam->status>>24)&0x000000ff)),
1152:/home/tienluong/workspace/atlantis_fw/platform/driver/src/log.c **** 						BYTETOBINARY((uint8_t)((cam->status>>16)&0x000000ff)),
1153:/home/tienluong/workspace/atlantis_fw/platform/driver/src/log.c **** 						BYTETOBINARY((uint8_t)((cam->status>>8)&0x000000ff)),
1154:/home/tienluong/workspace/atlantis_fw/platform/driver/src/log.c **** 						BYTETOBINARY((uint8_t)((cam->status>>0)&0x000000ff)));
1155:/home/tienluong/workspace/atlantis_fw/platform/driver/src/log.c **** 				EXIT = 1;
1156:/home/tienluong/workspace/atlantis_fw/platform/driver/src/log.c **** 			}
1157:/home/tienluong/workspace/atlantis_fw/platform/driver/src/log.c **** 			i++;
1158:/home/tienluong/workspace/atlantis_fw/platform/driver/src/log.c **** 		}
1159:/home/tienluong/workspace/atlantis_fw/platform/driver/src/log.c **** #endif
1160:/home/tienluong/workspace/atlantis_fw/platform/driver/src/log.c **** 	}
1161:/home/tienluong/workspace/atlantis_fw/platform/driver/src/log.c **** 
1162:/home/tienluong/workspace/atlantis_fw/platform/driver/src/log.c **** 	slog_w_new_msg = 1;
 408              		.loc 1 1162 0
 409 0018 0122     		movs	r2, #1
 410 001a 064B     		ldr	r3, .L91+16
 411 001c 1A70     		strb	r2, [r3]
1163:/home/tienluong/workspace/atlantis_fw/platform/driver/src/log.c **** }
 412              		.loc 1 1163 0
 413 001e 03B0     		add	sp, sp, #12
 414              	.LCFI5:
 415              		.cfi_def_cfa_offset 4
 416              		@ sp needed
 417 0020 5DF804FB 		ldr	pc, [sp], #4
 418              	.L92:
 419              		.align	2
 420              	.L91:
 421 0024 00000000 		.word	get_arg
 422 0028 00000000 		.word	_impure_ptr
 423 002c 00000000 		.word	.LC1
 424 0030 00000000 		.word	fprintf
 425 0034 00000000 		.word	.LANCHOR2
 426              		.cfi_endproc
 427              	.LFE28:
 429              		.section	.text.bb_clear,"ax",%progbits
 430              		.align	1
 431              		.thumb
 432              		.thumb_func
 434              	bb_clear:
 435              	.LFB22:
 902:/home/tienluong/workspace/atlantis_fw/platform/driver/src/log.c **** 	fprintf(stderr, "\033[2J");
 436              		.loc 1 902 0
 437              		.cfi_startproc
 438              		@ args = 0, pretend = 0, frame = 0
 439              		@ frame_needed = 0, uses_anonymous_args = 0
 440              	.LVL39:
 441 0000 08B5     		push	{r3, lr}
 442              	.LCFI6:
 443              		.cfi_def_cfa_offset 8
 444              		.cfi_offset 3, -8
 445              		.cfi_offset 14, -4
 903:/home/tienluong/workspace/atlantis_fw/platform/driver/src/log.c **** 	slog_w_new_msg = 1;
 446              		.loc 1 903 0
 447 0002 054B     		ldr	r3, .L94
 448 0004 0548     		ldr	r0, .L94+4
 449              	.LVL40:
 450 0006 1B68     		ldr	r3, [r3]
 451 0008 D968     		ldr	r1, [r3, #12]
 452 000a 054B     		ldr	r3, .L94+8
 453 000c 9847     		blx	r3
 454              	.LVL41:
 904:/home/tienluong/workspace/atlantis_fw/platform/driver/src/log.c **** }
 455              		.loc 1 904 0
 456 000e 0122     		movs	r2, #1
 457 0010 044B     		ldr	r3, .L94+12
 458 0012 1A70     		strb	r2, [r3]
 459 0014 08BD     		pop	{r3, pc}
 460              	.L95:
 461 0016 00BF     		.align	2
 462              	.L94:
 463 0018 00000000 		.word	_impure_ptr
 464 001c 0E000000 		.word	.LC2
 465 0020 00000000 		.word	fputs
 466 0024 00000000 		.word	.LANCHOR2
 467              		.cfi_endproc
 468              	.LFE22:
 470              		.section	.text.bb_cmd_log,"ax",%progbits
 471              		.align	1
 472              		.thumb
 473              		.thumb_func
 475              	bb_cmd_log:
 476              	.LFB29:
1164:/home/tienluong/workspace/atlantis_fw/platform/driver/src/log.c **** 
1165:/home/tienluong/workspace/atlantis_fw/platform/driver/src/log.c **** /*
1166:/home/tienluong/workspace/atlantis_fw/platform/driver/src/log.c ****  * bb_cmd_log
1167:/home/tienluong/workspace/atlantis_fw/platform/driver/src/log.c ****  */
1168:/home/tienluong/workspace/atlantis_fw/platform/driver/src/log.c **** void bb_cmd_log(char *p)
1169:/home/tienluong/workspace/atlantis_fw/platform/driver/src/log.c **** {
 477              		.loc 1 1169 0
 478              		.cfi_startproc
 479              		@ args = 0, pretend = 0, frame = 8
 480              		@ frame_needed = 0, uses_anonymous_args = 0
 481              	.LVL42:
 482 0000 2DE9F341 		push	{r0, r1, r4, r5, r6, r7, r8, lr}
 483              	.LCFI7:
 484              		.cfi_def_cfa_offset 32
 485              		.cfi_offset 4, -24
 486              		.cfi_offset 5, -20
 487              		.cfi_offset 6, -16
 488              		.cfi_offset 7, -12
 489              		.cfi_offset 8, -8
 490              		.cfi_offset 14, -4
1170:/home/tienluong/workspace/atlantis_fw/platform/driver/src/log.c **** 	char *str, *next, *str_tid;
1171:/home/tienluong/workspace/atlantis_fw/platform/driver/src/log.c **** 	struct lcc_cmd_log_t *ptr = NULL;
1172:/home/tienluong/workspace/atlantis_fw/platform/driver/src/log.c **** 	uint16_t cmd_tid = 0;
1173:/home/tienluong/workspace/atlantis_fw/platform/driver/src/log.c **** 
1174:/home/tienluong/workspace/atlantis_fw/platform/driver/src/log.c **** 	str = get_arg(p, &next);
 491              		.loc 1 1174 0
 492 0004 3D4E     		ldr	r6, .L124
 493 0006 01A9     		add	r1, sp, #4
 494 0008 B047     		blx	r6
 495              	.LVL43:
 496 000a 3D4D     		ldr	r5, .L124+4
1175:/home/tienluong/workspace/atlantis_fw/platform/driver/src/log.c **** 	if(str != NULL)
 497              		.loc 1 1175 0
 498 000c 8046     		mov	r8, r0
 499 000e 68B9     		cbnz	r0, .L97
 500              	.LVL44:
 501              	.L101:
1176:/home/tienluong/workspace/atlantis_fw/platform/driver/src/log.c **** 	{
1177:/home/tienluong/workspace/atlantis_fw/platform/driver/src/log.c **** 		if(!strcmp(str, "-d"))
1178:/home/tienluong/workspace/atlantis_fw/platform/driver/src/log.c **** 		{
1179:/home/tienluong/workspace/atlantis_fw/platform/driver/src/log.c **** 			str_tid = get_arg(next, &next);
1180:/home/tienluong/workspace/atlantis_fw/platform/driver/src/log.c **** 			if(str_tid)
1181:/home/tienluong/workspace/atlantis_fw/platform/driver/src/log.c **** 			{
1182:/home/tienluong/workspace/atlantis_fw/platform/driver/src/log.c **** 				cmd_tid = (uint16_t)strtol(str_tid, NULL, 16);
1183:/home/tienluong/workspace/atlantis_fw/platform/driver/src/log.c **** 				ptr = lcc_cmd_log->head->next;
1184:/home/tienluong/workspace/atlantis_fw/platform/driver/src/log.c **** 				struct lcc_cmd_log_t *tmp = NULL;
1185:/home/tienluong/workspace/atlantis_fw/platform/driver/src/log.c **** 				while (ptr != lcc_cmd_log->tail)
1186:/home/tienluong/workspace/atlantis_fw/platform/driver/src/log.c **** 				{
1187:/home/tienluong/workspace/atlantis_fw/platform/driver/src/log.c **** 					tmp = ptr->next;
1188:/home/tienluong/workspace/atlantis_fw/platform/driver/src/log.c **** 					if(ptr->cmd_tid == cmd_tid)
1189:/home/tienluong/workspace/atlantis_fw/platform/driver/src/log.c **** 					{
1190:/home/tienluong/workspace/atlantis_fw/platform/driver/src/log.c **** 						lcc_cmd_log_delete_tid(ptr);
1191:/home/tienluong/workspace/atlantis_fw/platform/driver/src/log.c **** 					}
1192:/home/tienluong/workspace/atlantis_fw/platform/driver/src/log.c **** 					ptr = tmp;
1193:/home/tienluong/workspace/atlantis_fw/platform/driver/src/log.c **** 				}
1194:/home/tienluong/workspace/atlantis_fw/platform/driver/src/log.c **** 			}
1195:/home/tienluong/workspace/atlantis_fw/platform/driver/src/log.c **** 		}
1196:/home/tienluong/workspace/atlantis_fw/platform/driver/src/log.c **** 
1197:/home/tienluong/workspace/atlantis_fw/platform/driver/src/log.c **** 		if(!strcmp(str, "-c"))
1198:/home/tienluong/workspace/atlantis_fw/platform/driver/src/log.c **** 		{
1199:/home/tienluong/workspace/atlantis_fw/platform/driver/src/log.c **** 			ptr = lcc_cmd_log->head->next;
1200:/home/tienluong/workspace/atlantis_fw/platform/driver/src/log.c **** 			struct lcc_cmd_log_t *tmp = NULL;
1201:/home/tienluong/workspace/atlantis_fw/platform/driver/src/log.c **** 			while (ptr != lcc_cmd_log->tail)
1202:/home/tienluong/workspace/atlantis_fw/platform/driver/src/log.c **** 			{
1203:/home/tienluong/workspace/atlantis_fw/platform/driver/src/log.c **** 				tmp = ptr->next;
1204:/home/tienluong/workspace/atlantis_fw/platform/driver/src/log.c **** 				lcc_cmd_log_delete_tid(ptr);
1205:/home/tienluong/workspace/atlantis_fw/platform/driver/src/log.c **** 				ptr = tmp;
1206:/home/tienluong/workspace/atlantis_fw/platform/driver/src/log.c **** 			}
1207:/home/tienluong/workspace/atlantis_fw/platform/driver/src/log.c **** 		}
1208:/home/tienluong/workspace/atlantis_fw/platform/driver/src/log.c **** 	}
1209:/home/tienluong/workspace/atlantis_fw/platform/driver/src/log.c **** 	fprintf(stderr, "\r\nCommand Log\r\n");
 502              		.loc 1 1209 0
 503 0010 3C4C     		ldr	r4, .L124+8
 504 0012 3D4E     		ldr	r6, .L124+12
 505 0014 3D48     		ldr	r0, .L124+16
 506 0016 2368     		ldr	r3, [r4]
 507 0018 D968     		ldr	r1, [r3, #12]
 508 001a B047     		blx	r6
 509              	.LVL45:
1210:/home/tienluong/workspace/atlantis_fw/platform/driver/src/log.c **** 	fprintf(stderr, "\r\n\tTID\tStatus\r\n");
 510              		.loc 1 1210 0
 511 001c 2368     		ldr	r3, [r4]
 512 001e 3C48     		ldr	r0, .L124+20
 513 0020 D968     		ldr	r1, [r3, #12]
 514 0022 B047     		blx	r6
 515              	.LVL46:
1211:/home/tienluong/workspace/atlantis_fw/platform/driver/src/log.c **** 	ptr = lcc_cmd_log->head->next;
 516              		.loc 1 1211 0
 517 0024 2B68     		ldr	r3, [r5]
 518 0026 1B68     		ldr	r3, [r3]
 519 0028 1E69     		ldr	r6, [r3, #16]
 520              	.LVL47:
1212:/home/tienluong/workspace/atlantis_fw/platform/driver/src/log.c **** 	while (ptr != lcc_cmd_log->tail)
 521              		.loc 1 1212 0
 522 002a 4CE0     		b	.L98
 523              	.LVL48:
 524              	.L97:
1177:/home/tienluong/workspace/atlantis_fw/platform/driver/src/log.c **** 		{
 525              		.loc 1 1177 0
 526 002c 3949     		ldr	r1, .L124+24
 527 002e 3A4F     		ldr	r7, .L124+28
 528 0030 B847     		blx	r7
 529              	.LVL49:
 530 0032 0446     		mov	r4, r0
 531 0034 40B1     		cbz	r0, .L99
 532              	.LVL50:
 533              	.L102:
1197:/home/tienluong/workspace/atlantis_fw/platform/driver/src/log.c **** 		{
 534              		.loc 1 1197 0
 535 0036 4046     		mov	r0, r8
 536 0038 3849     		ldr	r1, .L124+32
 537 003a B847     		blx	r7
 538              	.LVL51:
 539 003c 0028     		cmp	r0, #0
 540 003e E7D1     		bne	.L101
 541              	.LBB3:
1199:/home/tienluong/workspace/atlantis_fw/platform/driver/src/log.c **** 			struct lcc_cmd_log_t *tmp = NULL;
 542              		.loc 1 1199 0
 543 0040 2B68     		ldr	r3, [r5]
 544 0042 1B68     		ldr	r3, [r3]
 545 0044 1869     		ldr	r0, [r3, #16]
 546              	.LVL52:
1201:/home/tienluong/workspace/atlantis_fw/platform/driver/src/log.c **** 			{
 547              		.loc 1 1201 0
 548 0046 18E0     		b	.L106
 549              	.LVL53:
 550              	.L99:
 551              	.LBE3:
1179:/home/tienluong/workspace/atlantis_fw/platform/driver/src/log.c **** 			if(str_tid)
 552              		.loc 1 1179 0
 553 0048 0198     		ldr	r0, [sp, #4]
 554 004a 01A9     		add	r1, sp, #4
 555 004c B047     		blx	r6
 556              	.LVL54:
1180:/home/tienluong/workspace/atlantis_fw/platform/driver/src/log.c **** 			{
 557              		.loc 1 1180 0
 558 004e 0028     		cmp	r0, #0
 559 0050 F1D0     		beq	.L102
 560              	.LBB4:
1182:/home/tienluong/workspace/atlantis_fw/platform/driver/src/log.c **** 				ptr = lcc_cmd_log->head->next;
 561              		.loc 1 1182 0
 562 0052 2146     		mov	r1, r4
 563 0054 1022     		movs	r2, #16
 564 0056 324B     		ldr	r3, .L124+36
 565 0058 9847     		blx	r3
 566              	.LVL55:
1183:/home/tienluong/workspace/atlantis_fw/platform/driver/src/log.c **** 				struct lcc_cmd_log_t *tmp = NULL;
 567              		.loc 1 1183 0
 568 005a 2B68     		ldr	r3, [r5]
 569 005c 1B68     		ldr	r3, [r3]
1182:/home/tienluong/workspace/atlantis_fw/platform/driver/src/log.c **** 				ptr = lcc_cmd_log->head->next;
 570              		.loc 1 1182 0
 571 005e 84B2     		uxth	r4, r0
 572              	.LVL56:
1183:/home/tienluong/workspace/atlantis_fw/platform/driver/src/log.c **** 				struct lcc_cmd_log_t *tmp = NULL;
 573              		.loc 1 1183 0
 574 0060 1869     		ldr	r0, [r3, #16]
 575              	.LVL57:
 576              	.L103:
1185:/home/tienluong/workspace/atlantis_fw/platform/driver/src/log.c **** 				{
 577              		.loc 1 1185 0
 578 0062 2B68     		ldr	r3, [r5]
 579 0064 5B68     		ldr	r3, [r3, #4]
 580 0066 9842     		cmp	r0, r3
 581 0068 E5D0     		beq	.L102
1188:/home/tienluong/workspace/atlantis_fw/platform/driver/src/log.c **** 					{
 582              		.loc 1 1188 0
 583 006a 0388     		ldrh	r3, [r0]
 584 006c A342     		cmp	r3, r4
1187:/home/tienluong/workspace/atlantis_fw/platform/driver/src/log.c **** 					if(ptr->cmd_tid == cmd_tid)
 585              		.loc 1 1187 0
 586 006e 0669     		ldr	r6, [r0, #16]
 587              	.LVL58:
1188:/home/tienluong/workspace/atlantis_fw/platform/driver/src/log.c **** 					{
 588              		.loc 1 1188 0
 589 0070 01D1     		bne	.L104
1190:/home/tienluong/workspace/atlantis_fw/platform/driver/src/log.c **** 					}
 590              		.loc 1 1190 0
 591 0072 2C4B     		ldr	r3, .L124+40
 592 0074 9847     		blx	r3
 593              	.LVL59:
 594              	.L104:
 595              	.LBE4:
1169:/home/tienluong/workspace/atlantis_fw/platform/driver/src/log.c **** 	char *str, *next, *str_tid;
 596              		.loc 1 1169 0
 597 0076 3046     		mov	r0, r6
 598 0078 F3E7     		b	.L103
 599              	.LVL60:
 600              	.L106:
 601              	.LBB5:
1201:/home/tienluong/workspace/atlantis_fw/platform/driver/src/log.c **** 			{
 602              		.loc 1 1201 0
 603 007a 2B68     		ldr	r3, [r5]
 604 007c 5B68     		ldr	r3, [r3, #4]
 605 007e 9842     		cmp	r0, r3
 606 0080 C6D0     		beq	.L101
1203:/home/tienluong/workspace/atlantis_fw/platform/driver/src/log.c **** 				lcc_cmd_log_delete_tid(ptr);
 607              		.loc 1 1203 0
 608 0082 0469     		ldr	r4, [r0, #16]
 609              	.LVL61:
1204:/home/tienluong/workspace/atlantis_fw/platform/driver/src/log.c **** 				ptr = tmp;
 610              		.loc 1 1204 0
 611 0084 274B     		ldr	r3, .L124+40
 612 0086 9847     		blx	r3
 613              	.LVL62:
1205:/home/tienluong/workspace/atlantis_fw/platform/driver/src/log.c **** 			}
 614              		.loc 1 1205 0
 615 0088 2046     		mov	r0, r4
 616 008a F6E7     		b	.L106
 617              	.LVL63:
 618              	.L108:
 619              	.LBE5:
 620              		.loc 1 1212 0
 621 008c 9642     		cmp	r6, r2
 622 008e 29D0     		beq	.L123
1213:/home/tienluong/workspace/atlantis_fw/platform/driver/src/log.c **** 	{
1214:/home/tienluong/workspace/atlantis_fw/platform/driver/src/log.c **** 		if(ptr)
 623              		.loc 1 1214 0
 624 0090 002E     		cmp	r6, #0
 625 0092 FBD0     		beq	.L108
1215:/home/tienluong/workspace/atlantis_fw/platform/driver/src/log.c **** 		{
1216:/home/tienluong/workspace/atlantis_fw/platform/driver/src/log.c **** 			fprintf(stderr, "\t%04X\t%s\r\n", ptr->cmd_tid,
 626              		.loc 1 1216 0
 627 0094 2368     		ldr	r3, [r4]
 628 0096 3288     		ldrh	r2, [r6]
 629 0098 D868     		ldr	r0, [r3, #12]
1217:/home/tienluong/workspace/atlantis_fw/platform/driver/src/log.c **** 					ptr->status == LCC_CMD_UNSUCCESS ?
 630              		.loc 1 1217 0
 631 009a B368     		ldr	r3, [r6, #8]
1216:/home/tienluong/workspace/atlantis_fw/platform/driver/src/log.c **** 					ptr->status == LCC_CMD_UNSUCCESS ?
 632              		.loc 1 1216 0
 633 009c B3B1     		cbz	r3, .L111
1218:/home/tienluong/workspace/atlantis_fw/platform/driver/src/log.c **** 					"LCC_CMD_UNSUCCESS" :
1219:/home/tienluong/workspace/atlantis_fw/platform/driver/src/log.c **** 					ptr->status == LCC_CMD_SUCCESS ?
1220:/home/tienluong/workspace/atlantis_fw/platform/driver/src/log.c **** 					"LCC_CMD_SUCCESS" :
 634              		.loc 1 1220 0
 635 009e 012B     		cmp	r3, #1
 636 00a0 16D0     		beq	.L112
1221:/home/tienluong/workspace/atlantis_fw/platform/driver/src/log.c **** 					ptr->status == LCC_CMD_PENDING ?
1222:/home/tienluong/workspace/atlantis_fw/platform/driver/src/log.c **** 					"LCC_CMD_PENDING" :
 637              		.loc 1 1222 0
 638 00a2 022B     		cmp	r3, #2
 639 00a4 16D0     		beq	.L113
1223:/home/tienluong/workspace/atlantis_fw/platform/driver/src/log.c **** 					ptr->status == LCC_CMD_INVALID_ARG ?
1224:/home/tienluong/workspace/atlantis_fw/platform/driver/src/log.c **** 					"LCC_CMD_INVALID_ARG" :
 640              		.loc 1 1224 0
 641 00a6 042B     		cmp	r3, #4
 642 00a8 16D0     		beq	.L114
1225:/home/tienluong/workspace/atlantis_fw/platform/driver/src/log.c **** 					ptr->status == LCC_CMD_ERROR_INVALID_MBITMASK ?
1226:/home/tienluong/workspace/atlantis_fw/platform/driver/src/log.c **** 					"LCC_CMD_ERROR_INVALID_MBITMASK" :
 643              		.loc 1 1226 0
 644 00aa 082B     		cmp	r3, #8
 645 00ac 16D0     		beq	.L115
1227:/home/tienluong/workspace/atlantis_fw/platform/driver/src/log.c **** 					ptr->status == LCC_CMD_ERROR_ASIC_UNAVAILABLE ?
1228:/home/tienluong/workspace/atlantis_fw/platform/driver/src/log.c **** 					"LCC_CMD_ERROR_ASIC_UNAVAILABLE" :
 646              		.loc 1 1228 0
 647 00ae 102B     		cmp	r3, #16
 648 00b0 16D0     		beq	.L116
1229:/home/tienluong/workspace/atlantis_fw/platform/driver/src/log.c **** 					ptr->status == LCC_CMD_ERROR_MODULE_FAULT ?
1230:/home/tienluong/workspace/atlantis_fw/platform/driver/src/log.c **** 					"LCC_CMD_ERROR_MODULE_FAULT" : "UNKNOWN");
 649              		.loc 1 1230 0
 650 00b2 1D4F     		ldr	r7, .L124+44
 651 00b4 1D49     		ldr	r1, .L124+48
 652 00b6 202B     		cmp	r3, #32
 653 00b8 0CBF     		ite	eq
 654 00ba 0B46     		moveq	r3, r1
 655 00bc 3B46     		movne	r3, r7
 656              	.L109:
1216:/home/tienluong/workspace/atlantis_fw/platform/driver/src/log.c **** 					ptr->status == LCC_CMD_UNSUCCESS ?
 657              		.loc 1 1216 0 discriminator 3
 658 00be 1C49     		ldr	r1, .L124+52
 659 00c0 1C4F     		ldr	r7, .L124+56
 660 00c2 B847     		blx	r7
 661              	.LVL64:
1231:/home/tienluong/workspace/atlantis_fw/platform/driver/src/log.c **** 			ptr = ptr->next;
 662              		.loc 1 1231 0 discriminator 3
 663 00c4 3669     		ldr	r6, [r6, #16]
 664              	.LVL65:
 665              	.L98:
1212:/home/tienluong/workspace/atlantis_fw/platform/driver/src/log.c **** 	{
 666              		.loc 1 1212 0
 667 00c6 2B68     		ldr	r3, [r5]
 668 00c8 5A68     		ldr	r2, [r3, #4]
 669 00ca DFE7     		b	.L108
 670              	.L111:
1216:/home/tienluong/workspace/atlantis_fw/platform/driver/src/log.c **** 					ptr->status == LCC_CMD_UNSUCCESS ?
 671              		.loc 1 1216 0
 672 00cc 1A4B     		ldr	r3, .L124+60
 673 00ce F6E7     		b	.L109
 674              	.L112:
1220:/home/tienluong/workspace/atlantis_fw/platform/driver/src/log.c **** 					ptr->status == LCC_CMD_PENDING ?
 675              		.loc 1 1220 0
 676 00d0 1A4B     		ldr	r3, .L124+64
 677 00d2 F4E7     		b	.L109
 678              	.L113:
1222:/home/tienluong/workspace/atlantis_fw/platform/driver/src/log.c **** 					ptr->status == LCC_CMD_INVALID_ARG ?
 679              		.loc 1 1222 0
 680 00d4 1A4B     		ldr	r3, .L124+68
 681 00d6 F2E7     		b	.L109
 682              	.L114:
1224:/home/tienluong/workspace/atlantis_fw/platform/driver/src/log.c **** 					ptr->status == LCC_CMD_ERROR_INVALID_MBITMASK ?
 683              		.loc 1 1224 0
 684 00d8 1A4B     		ldr	r3, .L124+72
 685 00da F0E7     		b	.L109
 686              	.L115:
1226:/home/tienluong/workspace/atlantis_fw/platform/driver/src/log.c **** 					ptr->status == LCC_CMD_ERROR_ASIC_UNAVAILABLE ?
 687              		.loc 1 1226 0
 688 00dc 1A4B     		ldr	r3, .L124+76
 689 00de EEE7     		b	.L109
 690              	.L116:
1228:/home/tienluong/workspace/atlantis_fw/platform/driver/src/log.c **** 					ptr->status == LCC_CMD_ERROR_MODULE_FAULT ?
 691              		.loc 1 1228 0
 692 00e0 1A4B     		ldr	r3, .L124+80
 693 00e2 ECE7     		b	.L109
 694              	.L123:
1232:/home/tienluong/workspace/atlantis_fw/platform/driver/src/log.c **** 		}
1233:/home/tienluong/workspace/atlantis_fw/platform/driver/src/log.c **** 	}
1234:/home/tienluong/workspace/atlantis_fw/platform/driver/src/log.c **** 	fprintf(stderr, "\r\nTotal: %ld \r\n", lcc_cmd_log->total);
 695              		.loc 1 1234 0
 696 00e4 2268     		ldr	r2, [r4]
 697 00e6 1A49     		ldr	r1, .L124+84
 698 00e8 D068     		ldr	r0, [r2, #12]
 699 00ea 9A68     		ldr	r2, [r3, #8]
 700 00ec 114B     		ldr	r3, .L124+56
 701 00ee 9847     		blx	r3
 702              	.LVL66:
1235:/home/tienluong/workspace/atlantis_fw/platform/driver/src/log.c **** 	slog_w_new_msg = 1;
 703              		.loc 1 1235 0
 704 00f0 0122     		movs	r2, #1
 705 00f2 184B     		ldr	r3, .L124+88
 706 00f4 1A70     		strb	r2, [r3]
1236:/home/tienluong/workspace/atlantis_fw/platform/driver/src/log.c **** }
 707              		.loc 1 1236 0
 708 00f6 02B0     		add	sp, sp, #8
 709              	.LCFI8:
 710              		.cfi_def_cfa_offset 24
 711              		@ sp needed
 712 00f8 BDE8F081 		pop	{r4, r5, r6, r7, r8, pc}
 713              	.LVL67:
 714              	.L125:
 715              		.align	2
 716              	.L124:
 717 00fc 00000000 		.word	get_arg
 718 0100 00000000 		.word	lcc_cmd_log
 719 0104 00000000 		.word	_impure_ptr
 720 0108 00000000 		.word	fputs
 721 010c BA000000 		.word	.LC11
 722 0110 CA000000 		.word	.LC12
 723 0114 DA000000 		.word	.LC13
 724 0118 00000000 		.word	strcmp
 725 011c DD000000 		.word	.LC14
 726 0120 00000000 		.word	strtol
 727 0124 00000000 		.word	lcc_cmd_log_delete_tid
 728 0128 97000000 		.word	.LC9
 729 012c 9F000000 		.word	.LC10
 730 0130 E0000000 		.word	.LC15
 731 0134 00000000 		.word	fprintf
 732 0138 23000000 		.word	.LC4
 733 013c 13000000 		.word	.LC3
 734 0140 35000000 		.word	.LC5
 735 0144 45000000 		.word	.LC6
 736 0148 59000000 		.word	.LC7
 737 014c 78000000 		.word	.LC8
 738 0150 EB000000 		.word	.LC16
 739 0154 00000000 		.word	.LANCHOR2
 740              		.cfi_endproc
 741              	.LFE29:
 743              		.section	.text.bb_slog,"ax",%progbits
 744              		.align	1
 745              		.thumb
 746              		.thumb_func
 748              	bb_slog:
 749              	.LFB20:
 817:/home/tienluong/workspace/atlantis_fw/platform/driver/src/log.c **** 	char *str, *next;
 750              		.loc 1 817 0
 751              		.cfi_startproc
 752              		@ args = 0, pretend = 0, frame = 16
 753              		@ frame_needed = 0, uses_anonymous_args = 0
 754              	.LVL68:
 755 0000 F0B5     		push	{r4, r5, r6, r7, lr}
 756              	.LCFI9:
 757              		.cfi_def_cfa_offset 20
 758              		.cfi_offset 4, -20
 759              		.cfi_offset 5, -16
 760              		.cfi_offset 6, -12
 761              		.cfi_offset 7, -8
 762              		.cfi_offset 14, -4
 763 0002 85B0     		sub	sp, sp, #20
 764              	.LCFI10:
 765              		.cfi_def_cfa_offset 40
 820:/home/tienluong/workspace/atlantis_fw/platform/driver/src/log.c **** 	if(str != NULL)
 766              		.loc 1 820 0
 767 0004 01A9     		add	r1, sp, #4
 768 0006 284C     		ldr	r4, .L143
 769 0008 A047     		blx	r4
 770              	.LVL69:
 771 000a 284D     		ldr	r5, .L143+4
 821:/home/tienluong/workspace/atlantis_fw/platform/driver/src/log.c **** 	{
 772              		.loc 1 821 0
 773 000c 0646     		mov	r6, r0
 774 000e 58B3     		cbz	r0, .L127
 823:/home/tienluong/workspace/atlantis_fw/platform/driver/src/log.c **** 		{
 775              		.loc 1 823 0
 776 0010 2749     		ldr	r1, .L143+8
 777 0012 A847     		blx	r5
 778              	.LVL70:
 779 0014 18B9     		cbnz	r0, .L128
 825:/home/tienluong/workspace/atlantis_fw/platform/driver/src/log.c **** 			return;
 780              		.loc 1 825 0
 781 0016 0122     		movs	r2, #1
 782 0018 264B     		ldr	r3, .L143+12
 783 001a 1A70     		strb	r2, [r3]
 826:/home/tienluong/workspace/atlantis_fw/platform/driver/src/log.c **** 		}
 784              		.loc 1 826 0
 785 001c 41E0     		b	.L126
 786              	.L128:
 828:/home/tienluong/workspace/atlantis_fw/platform/driver/src/log.c **** 		{
 787              		.loc 1 828 0
 788 001e 3046     		mov	r0, r6
 789 0020 2549     		ldr	r1, .L143+16
 790 0022 A847     		blx	r5
 791              	.LVL71:
 792 0024 10B9     		cbnz	r0, .L130
 830:/home/tienluong/workspace/atlantis_fw/platform/driver/src/log.c **** 			return;
 793              		.loc 1 830 0
 794 0026 234B     		ldr	r3, .L143+12
 795 0028 1870     		strb	r0, [r3]
 831:/home/tienluong/workspace/atlantis_fw/platform/driver/src/log.c **** 		}
 796              		.loc 1 831 0
 797 002a 3AE0     		b	.L126
 798              	.L130:
 833:/home/tienluong/workspace/atlantis_fw/platform/driver/src/log.c **** 		{
 799              		.loc 1 833 0
 800 002c 3046     		mov	r0, r6
 801 002e 2349     		ldr	r1, .L143+20
 802 0030 A847     		blx	r5
 803              	.LVL72:
 804 0032 C8B9     		cbnz	r0, .L127
 835:/home/tienluong/workspace/atlantis_fw/platform/driver/src/log.c **** 			if (str != NULL)
 805              		.loc 1 835 0
 806 0034 0198     		ldr	r0, [sp, #4]
 807 0036 01A9     		add	r1, sp, #4
 808 0038 A047     		blx	r4
 809              	.LVL73:
 836:/home/tienluong/workspace/atlantis_fw/platform/driver/src/log.c **** 			{
 810              		.loc 1 836 0
 811 003a 0346     		mov	r3, r0
 812 003c A0B1     		cbz	r0, .L127
 813              	.LBB6:
 838:/home/tienluong/workspace/atlantis_fw/platform/driver/src/log.c **** 					{
 814              		.loc 1 838 0
 815 003e 204A     		ldr	r2, .L143+24
 816 0040 1068     		ldr	r0, [r2]	@ unaligned
 817              	.LVL74:
 818 0042 9288     		ldrh	r2, [r2, #4]	@ unaligned
 819 0044 0290     		str	r0, [sp, #8]	@ unaligned
 847:/home/tienluong/workspace/atlantis_fw/platform/driver/src/log.c **** 				if (lc < 6)
 820              		.loc 1 847 0
 821 0046 1846     		mov	r0, r3
 822 0048 1E4B     		ldr	r3, .L143+28
 823              	.LVL75:
 838:/home/tienluong/workspace/atlantis_fw/platform/driver/src/log.c **** 					{
 824              		.loc 1 838 0
 825 004a ADF80C20 		strh	r2, [sp, #12]	@ unaligned
 847:/home/tienluong/workspace/atlantis_fw/platform/driver/src/log.c **** 				if (lc < 6)
 826              		.loc 1 847 0
 827 004e 9847     		blx	r3
 828              	.LVL76:
 848:/home/tienluong/workspace/atlantis_fw/platform/driver/src/log.c **** 					light_system->settings->log_ctrl = level[lc];
 829              		.loc 1 848 0
 830 0050 C0B2     		uxtb	r0, r0
 831 0052 0528     		cmp	r0, #5
 832 0054 25D8     		bhi	.L126
 849:/home/tienluong/workspace/atlantis_fw/platform/driver/src/log.c **** 				return;
 833              		.loc 1 849 0
 834 0056 1C4B     		ldr	r3, .L143+32
 835 0058 04AA     		add	r2, sp, #16
 836 005a 1044     		add	r0, r0, r2
 837              	.LVL77:
 838 005c 10F8082C 		ldrb	r2, [r0, #-8]	@ zero_extendqisi2
 839 0060 1B68     		ldr	r3, [r3]
 840 0062 9B68     		ldr	r3, [r3, #8]
 841 0064 9A76     		strb	r2, [r3, #26]
 842 0066 1CE0     		b	.L126
 843              	.L127:
 844              	.LVL78:
 845              	.LBE6:
 817:/home/tienluong/workspace/atlantis_fw/platform/driver/src/log.c **** 	char *str, *next;
 846              		.loc 1 817 0
 847 0068 0024     		movs	r4, #0
 848              	.LVL79:
 849              	.L134:
 850 006a 184E     		ldr	r6, .L143+36
 851              	.LBB7:
 857:/home/tienluong/workspace/atlantis_fw/platform/driver/src/log.c **** 		{
 852              		.loc 1 857 0
 853 006c 1848     		ldr	r0, .L143+40
 854 006e 06EB0416 		add	r6, r6, r4, lsl #4
 855 0072 3146     		mov	r1, r6
 856 0074 A847     		blx	r5
 857              	.LVL80:
 858 0076 0746     		mov	r7, r0
 859 0078 80B9     		cbnz	r0, .L132
 859:/home/tienluong/workspace/atlantis_fw/platform/driver/src/log.c **** 			slog_w_new_msg = 1;
 860              		.loc 1 859 0
 861 007a 164B     		ldr	r3, .L143+44
 862 007c F068     		ldr	r0, [r6, #12]
 861:/home/tienluong/workspace/atlantis_fw/platform/driver/src/log.c **** 			break;
 863              		.loc 1 861 0
 864 007e 164C     		ldr	r4, .L143+48
 865              	.LVL81:
 859:/home/tienluong/workspace/atlantis_fw/platform/driver/src/log.c **** 			slog_w_new_msg = 1;
 866              		.loc 1 859 0
 867 0080 1B68     		ldr	r3, [r3]
 868 0082 D968     		ldr	r1, [r3, #12]
 869 0084 154B     		ldr	r3, .L143+52
 870 0086 9847     		blx	r3
 871              	.LVL82:
 860:/home/tienluong/workspace/atlantis_fw/platform/driver/src/log.c **** 			xSemaphoreGive(slog_semaphore);
 872              		.loc 1 860 0
 873 0088 0122     		movs	r2, #1
 874 008a 154B     		ldr	r3, .L143+56
 861:/home/tienluong/workspace/atlantis_fw/platform/driver/src/log.c **** 			break;
 875              		.loc 1 861 0
 876 008c 3946     		mov	r1, r7
 860:/home/tienluong/workspace/atlantis_fw/platform/driver/src/log.c **** 			xSemaphoreGive(slog_semaphore);
 877              		.loc 1 860 0
 878 008e 1A70     		strb	r2, [r3]
 861:/home/tienluong/workspace/atlantis_fw/platform/driver/src/log.c **** 			break;
 879              		.loc 1 861 0
 880 0090 3A46     		mov	r2, r7
 881 0092 144B     		ldr	r3, .L143+60
 882 0094 1868     		ldr	r0, [r3]
 883 0096 3B46     		mov	r3, r7
 884 0098 A047     		blx	r4
 885              	.LVL83:
 862:/home/tienluong/workspace/atlantis_fw/platform/driver/src/log.c **** 		}
 886              		.loc 1 862 0
 887 009a 02E0     		b	.L126
 888              	.LVL84:
 889              	.L132:
 890 009c 0134     		adds	r4, r4, #1
 891              	.LVL85:
 855:/home/tienluong/workspace/atlantis_fw/platform/driver/src/log.c **** 	{
 892              		.loc 1 855 0 discriminator 2
 893 009e 0A2C     		cmp	r4, #10
 894 00a0 E3D1     		bne	.L134
 895              	.L126:
 896              	.LBE7:
 865:/home/tienluong/workspace/atlantis_fw/platform/driver/src/log.c **** 
 897              		.loc 1 865 0
 898 00a2 05B0     		add	sp, sp, #20
 899              	.LCFI11:
 900              		.cfi_def_cfa_offset 20
 901              		@ sp needed
 902 00a4 F0BD     		pop	{r4, r5, r6, r7, pc}
 903              	.L144:
 904 00a6 00BF     		.align	2
 905              	.L143:
 906 00a8 00000000 		.word	get_arg
 907 00ac 00000000 		.word	strcmp
 908 00b0 FB000000 		.word	.LC17
 909 00b4 00000000 		.word	.LANCHOR3
 910 00b8 DA000000 		.word	.LC13
 911 00bc FE000000 		.word	.LC18
 912 00c0 00000000 		.word	.LANCHOR4
 913 00c4 00000000 		.word	atoi
 914 00c8 00000000 		.word	light_system
 915 00cc 00000000 		.word	.LANCHOR5
 916 00d0 01010000 		.word	.LC19
 917 00d4 00000000 		.word	_impure_ptr
 918 00d8 00000000 		.word	xQueueGenericSend
 919 00dc 00000000 		.word	fputs
 920 00e0 00000000 		.word	.LANCHOR2
 921 00e4 00000000 		.word	.LANCHOR6
 922              		.cfi_endproc
 923              	.LFE20:
 925              		.section	.text.bb_ps,"ax",%progbits
 926              		.align	1
 927              		.thumb
 928              		.thumb_func
 930              	bb_ps:
 931              	.LFB25:
 957:/home/tienluong/workspace/atlantis_fw/platform/driver/src/log.c **** 	char *next;
 932              		.loc 1 957 0
 933              		.cfi_startproc
 934              		@ args = 0, pretend = 0, frame = 8
 935              		@ frame_needed = 0, uses_anonymous_args = 0
 936              	.LVL86:
 937 0000 2DE9F743 		push	{r0, r1, r2, r4, r5, r6, r7, r8, r9, lr}
 938              	.LCFI12:
 939              		.cfi_def_cfa_offset 40
 940              		.cfi_offset 4, -28
 941              		.cfi_offset 5, -24
 942              		.cfi_offset 6, -20
 943              		.cfi_offset 7, -16
 944              		.cfi_offset 8, -12
 945              		.cfi_offset 9, -8
 946              		.cfi_offset 14, -4
 964:/home/tienluong/workspace/atlantis_fw/platform/driver/src/log.c **** 	if(str == NULL)
 947              		.loc 1 964 0
 948 0004 654B     		ldr	r3, .L157
 949 0006 01A9     		add	r1, sp, #4
 950 0008 9847     		blx	r3
 951              	.LVL87:
 952 000a 654F     		ldr	r7, .L157+4
 965:/home/tienluong/workspace/atlantis_fw/platform/driver/src/log.c **** 	{
 953              		.loc 1 965 0
 954 000c 8046     		mov	r8, r0
 955 000e E8B9     		cbnz	r0, .L146
 956 0010 0446     		mov	r4, r0
 957              	.LVL88:
 958              	.L149:
 959 0012 644D     		ldr	r5, .L157+8
 970:/home/tienluong/workspace/atlantis_fw/platform/driver/src/log.c **** 			{
 960              		.loc 1 970 0
 961 0014 6448     		ldr	r0, .L157+12
 962 0016 05EB0415 		add	r5, r5, r4, lsl #4
 963 001a 2946     		mov	r1, r5
 964 001c B847     		blx	r7
 965              	.LVL89:
 966 001e 0646     		mov	r6, r0
 967 0020 80B9     		cbnz	r0, .L147
 972:/home/tienluong/workspace/atlantis_fw/platform/driver/src/log.c **** 				slog_w_new_msg = 1;
 968              		.loc 1 972 0
 969 0022 624B     		ldr	r3, .L157+16
 970 0024 E868     		ldr	r0, [r5, #12]
 974:/home/tienluong/workspace/atlantis_fw/platform/driver/src/log.c **** 				break;
 971              		.loc 1 974 0
 972 0026 624C     		ldr	r4, .L157+20
 973              	.LVL90:
 972:/home/tienluong/workspace/atlantis_fw/platform/driver/src/log.c **** 				slog_w_new_msg = 1;
 974              		.loc 1 972 0
 975 0028 1B68     		ldr	r3, [r3]
 976 002a D968     		ldr	r1, [r3, #12]
 977 002c 614B     		ldr	r3, .L157+24
 978 002e 9847     		blx	r3
 979              	.LVL91:
 973:/home/tienluong/workspace/atlantis_fw/platform/driver/src/log.c **** 				xSemaphoreGive(slog_semaphore);
 980              		.loc 1 973 0
 981 0030 0122     		movs	r2, #1
 982 0032 614B     		ldr	r3, .L157+28
 974:/home/tienluong/workspace/atlantis_fw/platform/driver/src/log.c **** 				break;
 983              		.loc 1 974 0
 984 0034 3146     		mov	r1, r6
 973:/home/tienluong/workspace/atlantis_fw/platform/driver/src/log.c **** 				xSemaphoreGive(slog_semaphore);
 985              		.loc 1 973 0
 986 0036 1A70     		strb	r2, [r3]
 974:/home/tienluong/workspace/atlantis_fw/platform/driver/src/log.c **** 				break;
 987              		.loc 1 974 0
 988 0038 3246     		mov	r2, r6
 989 003a 604B     		ldr	r3, .L157+32
 990 003c 1868     		ldr	r0, [r3]
 991 003e 3346     		mov	r3, r6
 992 0040 A047     		blx	r4
 993              	.LVL92:
 975:/home/tienluong/workspace/atlantis_fw/platform/driver/src/log.c **** 			}
 994              		.loc 1 975 0
 995 0042 A8E0     		b	.L145
 996              	.LVL93:
 997              	.L147:
 977:/home/tienluong/workspace/atlantis_fw/platform/driver/src/log.c **** 		}
 998              		.loc 1 977 0
 999 0044 0134     		adds	r4, r4, #1
 1000              	.LVL94:
 968:/home/tienluong/workspace/atlantis_fw/platform/driver/src/log.c **** 		{
 1001              		.loc 1 968 0
 1002 0046 0A2C     		cmp	r4, #10
 1003 0048 E3D1     		bne	.L149
 1004 004a A4E0     		b	.L145
 1005              	.LVL95:
 1006              	.L146:
 982:/home/tienluong/workspace/atlantis_fw/platform/driver/src/log.c **** 		{
 1007              		.loc 1 982 0
 1008 004c 5C49     		ldr	r1, .L157+36
 1009 004e B847     		blx	r7
 1010              	.LVL96:
 1011 0050 0028     		cmp	r0, #0
 1012 0052 44D1     		bne	.L150
 984:/home/tienluong/workspace/atlantis_fw/platform/driver/src/log.c **** 					"\r\ntask          state   priority  stack   num\r\n");
 1013              		.loc 1 984 0
 1014 0054 554C     		ldr	r4, .L157+16
 1015 0056 574E     		ldr	r6, .L157+24
 1016 0058 5A48     		ldr	r0, .L157+40
 1017 005a 2368     		ldr	r3, [r4]
 1018 005c D968     		ldr	r1, [r3, #12]
 1019 005e B047     		blx	r6
 1020              	.LVL97:
 986:/home/tienluong/workspace/atlantis_fw/platform/driver/src/log.c **** 						"*******************************************\r\n");
 1021              		.loc 1 986 0
 1022 0060 2368     		ldr	r3, [r4]
 1023 0062 5948     		ldr	r0, .L157+44
 1024 0064 D968     		ldr	r1, [r3, #12]
 1025 0066 B047     		blx	r6
 1026              	.LVL98:
 988:/home/tienluong/workspace/atlantis_fw/platform/driver/src/log.c **** 			vTaskList(ps);
 1027              		.loc 1 988 0
 1028 0068 4FF40060 		mov	r0, #2048
 1029 006c 5749     		ldr	r1, .L157+48
 1030 006e 4FF47772 		mov	r2, #988
 1031 0072 574B     		ldr	r3, .L157+52
 1032 0074 9847     		blx	r3
 1033              	.LVL99:
 1034 0076 0546     		mov	r5, r0
 1035 0078 28B9     		cbnz	r0, .L151
 988:/home/tienluong/workspace/atlantis_fw/platform/driver/src/log.c **** 			vTaskList(ps);
 1036              		.loc 1 988 0 is_stmt 0 discriminator 2
 1037 007a 5448     		ldr	r0, .L157+48
 1038              	.LVL100:
 1039 007c 4FF47771 		mov	r1, #988
 1040 0080 544B     		ldr	r3, .L157+56
 1041 0082 9847     		blx	r3
 1042              	.LVL101:
 1043 0084 0546     		mov	r5, r0
 1044              	.LVL102:
 1045              	.L151:
 989:/home/tienluong/workspace/atlantis_fw/platform/driver/src/log.c **** 			fprintf(stderr, "%s\r\n", ps);
 1046              		.loc 1 989 0 is_stmt 1 discriminator 4
 1047 0086 2846     		mov	r0, r5
 1048 0088 534B     		ldr	r3, .L157+60
 1049 008a 9847     		blx	r3
 1050              	.LVL103:
 990:/home/tienluong/workspace/atlantis_fw/platform/driver/src/log.c **** 			vPortFree(ps);
 1051              		.loc 1 990 0 discriminator 4
 1052 008c 2368     		ldr	r3, [r4]
 1053 008e 2A46     		mov	r2, r5
 1054 0090 5249     		ldr	r1, .L157+64
 1055 0092 D868     		ldr	r0, [r3, #12]
 1056 0094 DFF86891 		ldr	r9, .L157+100
 1057 0098 C847     		blx	r9
 1058              	.LVL104:
 991:/home/tienluong/workspace/atlantis_fw/platform/driver/src/log.c **** 			free_heap_space = xPortGetFreeHeapSize();
 1059              		.loc 1 991 0 discriminator 4
 1060 009a 40F2DF32 		movw	r2, #991
 1061 009e 2846     		mov	r0, r5
 1062 00a0 4A49     		ldr	r1, .L157+48
 1063 00a2 4F4B     		ldr	r3, .L157+68
 1064 00a4 9847     		blx	r3
 1065              	.LVL105:
 992:/home/tienluong/workspace/atlantis_fw/platform/driver/src/log.c **** 			fprintf(stderr, "\r\nHeap Free\r\n");
 1066              		.loc 1 992 0 discriminator 4
 1067 00a6 4F4B     		ldr	r3, .L157+72
 1068 00a8 9847     		blx	r3
 1069              	.LVL106:
 993:/home/tienluong/workspace/atlantis_fw/platform/driver/src/log.c **** 			fprintf(stderr, "*******************************\r\n");
 1070              		.loc 1 993 0 discriminator 4
 1071 00aa 2368     		ldr	r3, [r4]
 1072 00ac D968     		ldr	r1, [r3, #12]
 992:/home/tienluong/workspace/atlantis_fw/platform/driver/src/log.c **** 			fprintf(stderr, "\r\nHeap Free\r\n");
 1073              		.loc 1 992 0 discriminator 4
 1074 00ae 0546     		mov	r5, r0
 1075              	.LVL107:
 993:/home/tienluong/workspace/atlantis_fw/platform/driver/src/log.c **** 			fprintf(stderr, "*******************************\r\n");
 1076              		.loc 1 993 0 discriminator 4
 1077 00b0 4D48     		ldr	r0, .L157+76
 1078              	.LVL108:
 1079 00b2 B047     		blx	r6
 1080              	.LVL109:
 994:/home/tienluong/workspace/atlantis_fw/platform/driver/src/log.c **** 			fprintf(stderr, "   %dB/%dB\r\n", free_heap_space, configTOTAL_HEAP_SIZE);
 1081              		.loc 1 994 0 discriminator 4
 1082 00b4 2368     		ldr	r3, [r4]
 1083 00b6 4D48     		ldr	r0, .L157+80
 1084 00b8 D968     		ldr	r1, [r3, #12]
 1085 00ba B047     		blx	r6
 1086              	.LVL110:
 995:/home/tienluong/workspace/atlantis_fw/platform/driver/src/log.c **** 			slog_w_new_msg = 1;
 1087              		.loc 1 995 0 discriminator 4
 1088 00bc 2368     		ldr	r3, [r4]
 1089 00be 4C49     		ldr	r1, .L157+84
 1090 00c0 2A46     		mov	r2, r5
 997:/home/tienluong/workspace/atlantis_fw/platform/driver/src/log.c **** 		}
 1091              		.loc 1 997 0 discriminator 4
 1092 00c2 3B4C     		ldr	r4, .L157+20
 995:/home/tienluong/workspace/atlantis_fw/platform/driver/src/log.c **** 			slog_w_new_msg = 1;
 1093              		.loc 1 995 0 discriminator 4
 1094 00c4 D868     		ldr	r0, [r3, #12]
 1095 00c6 4B4B     		ldr	r3, .L157+88
 1096 00c8 1B68     		ldr	r3, [r3]
 1097 00ca C847     		blx	r9
 1098              	.LVL111:
 996:/home/tienluong/workspace/atlantis_fw/platform/driver/src/log.c **** 			xSemaphoreGive(slog_semaphore);
 1099              		.loc 1 996 0 discriminator 4
 1100 00cc 0122     		movs	r2, #1
 1101 00ce 3A4B     		ldr	r3, .L157+28
 997:/home/tienluong/workspace/atlantis_fw/platform/driver/src/log.c **** 		}
 1102              		.loc 1 997 0 discriminator 4
 1103 00d0 0021     		movs	r1, #0
 996:/home/tienluong/workspace/atlantis_fw/platform/driver/src/log.c **** 			xSemaphoreGive(slog_semaphore);
 1104              		.loc 1 996 0 discriminator 4
 1105 00d2 1A70     		strb	r2, [r3]
 997:/home/tienluong/workspace/atlantis_fw/platform/driver/src/log.c **** 		}
 1106              		.loc 1 997 0 discriminator 4
 1107 00d4 0A46     		mov	r2, r1
 1108 00d6 394B     		ldr	r3, .L157+32
 1109 00d8 1868     		ldr	r0, [r3]
 1110 00da 0B46     		mov	r3, r1
 1111 00dc A047     		blx	r4
 1112              	.LVL112:
 1113              	.L150:
 999:/home/tienluong/workspace/atlantis_fw/platform/driver/src/log.c **** 		{
 1114              		.loc 1 999 0
 1115 00de 4046     		mov	r0, r8
 1116 00e0 4549     		ldr	r1, .L157+92
 1117 00e2 B847     		blx	r7
 1118              	.LVL113:
 1119 00e4 0028     		cmp	r0, #0
 1120 00e6 56D1     		bne	.L145
1001:/home/tienluong/workspace/atlantis_fw/platform/driver/src/log.c **** 			while(1)
 1121              		.loc 1 1001 0
 1122 00e8 4FF48060 		mov	r0, #1024
 1123 00ec 3749     		ldr	r1, .L157+48
 1124 00ee 40F2E932 		movw	r2, #1001
 1125 00f2 374B     		ldr	r3, .L157+52
 1126 00f4 9847     		blx	r3
 1127              	.LVL114:
 1128 00f6 0546     		mov	r5, r0
 1129 00f8 28B9     		cbnz	r0, .L156
1001:/home/tienluong/workspace/atlantis_fw/platform/driver/src/log.c **** 			while(1)
 1130              		.loc 1 1001 0 is_stmt 0 discriminator 2
 1131 00fa 3448     		ldr	r0, .L157+48
 1132              	.LVL115:
 1133 00fc 40F2E931 		movw	r1, #1001
 1134 0100 344B     		ldr	r3, .L157+56
 1135 0102 9847     		blx	r3
 1136              	.LVL116:
 1137 0104 0546     		mov	r5, r0
 1138              	.LVL117:
 1139              	.L156:
1004:/home/tienluong/workspace/atlantis_fw/platform/driver/src/log.c **** 				fprintf(stderr,
 1140              		.loc 1 1004 0 is_stmt 1
 1141 0106 294C     		ldr	r4, .L157+16
 1142 0108 2A4E     		ldr	r6, .L157+24
 1143 010a 3C48     		ldr	r0, .L157+96
 1144 010c 2368     		ldr	r3, [r4]
1010:/home/tienluong/workspace/atlantis_fw/platform/driver/src/log.c **** 				free_heap_space = xPortGetFreeHeapSize();
 1145              		.loc 1 1010 0
 1146 010e 3C4F     		ldr	r7, .L157+100
1004:/home/tienluong/workspace/atlantis_fw/platform/driver/src/log.c **** 				fprintf(stderr,
 1147              		.loc 1 1004 0
 1148 0110 D968     		ldr	r1, [r3, #12]
 1149 0112 B047     		blx	r6
 1150              	.LVL118:
1005:/home/tienluong/workspace/atlantis_fw/platform/driver/src/log.c **** 					"\r\ntask          state   priority  stack   num\r\n");
 1151              		.loc 1 1005 0
 1152 0114 2368     		ldr	r3, [r4]
 1153 0116 2B48     		ldr	r0, .L157+40
 1154 0118 D968     		ldr	r1, [r3, #12]
 1155 011a B047     		blx	r6
 1156              	.LVL119:
1007:/home/tienluong/workspace/atlantis_fw/platform/driver/src/log.c **** 						"*******************************************\r\n");
 1157              		.loc 1 1007 0
 1158 011c 2368     		ldr	r3, [r4]
 1159 011e 2A48     		ldr	r0, .L157+44
 1160 0120 D968     		ldr	r1, [r3, #12]
 1161 0122 B047     		blx	r6
 1162              	.LVL120:
1009:/home/tienluong/workspace/atlantis_fw/platform/driver/src/log.c **** 				fprintf(stderr, "%s\r\n", ps);
 1163              		.loc 1 1009 0
 1164 0124 2846     		mov	r0, r5
 1165 0126 2C4B     		ldr	r3, .L157+60
 1166 0128 9847     		blx	r3
 1167              	.LVL121:
1010:/home/tienluong/workspace/atlantis_fw/platform/driver/src/log.c **** 				free_heap_space = xPortGetFreeHeapSize();
 1168              		.loc 1 1010 0
 1169 012a 2368     		ldr	r3, [r4]
 1170 012c 2A46     		mov	r2, r5
 1171 012e 2B49     		ldr	r1, .L157+64
 1172 0130 D868     		ldr	r0, [r3, #12]
 1173 0132 B847     		blx	r7
 1174              	.LVL122:
1011:/home/tienluong/workspace/atlantis_fw/platform/driver/src/log.c **** 			fprintf(stderr, "\r\nHeap Free\r\n");
 1175              		.loc 1 1011 0
 1176 0134 2B4B     		ldr	r3, .L157+72
 1177 0136 9847     		blx	r3
 1178              	.LVL123:
1012:/home/tienluong/workspace/atlantis_fw/platform/driver/src/log.c **** 			fprintf(stderr, "*******************************\r\n");
 1179              		.loc 1 1012 0
 1180 0138 2368     		ldr	r3, [r4]
 1181 013a D968     		ldr	r1, [r3, #12]
1011:/home/tienluong/workspace/atlantis_fw/platform/driver/src/log.c **** 			fprintf(stderr, "\r\nHeap Free\r\n");
 1182              		.loc 1 1011 0
 1183 013c 8046     		mov	r8, r0
 1184              	.LVL124:
1012:/home/tienluong/workspace/atlantis_fw/platform/driver/src/log.c **** 			fprintf(stderr, "*******************************\r\n");
 1185              		.loc 1 1012 0
 1186 013e 2A48     		ldr	r0, .L157+76
 1187              	.LVL125:
 1188 0140 B047     		blx	r6
 1189              	.LVL126:
1013:/home/tienluong/workspace/atlantis_fw/platform/driver/src/log.c **** 			fprintf(stderr, "   %dB/%dB\r\n", free_heap_space, configTOTAL_HEAP_SIZE);
 1190              		.loc 1 1013 0
 1191 0142 2368     		ldr	r3, [r4]
 1192 0144 2948     		ldr	r0, .L157+80
 1193 0146 D968     		ldr	r1, [r3, #12]
 1194 0148 B047     		blx	r6
 1195              	.LVL127:
1014:/home/tienluong/workspace/atlantis_fw/platform/driver/src/log.c **** 				slog_w_new_msg = 1;
 1196              		.loc 1 1014 0
 1197 014a 2368     		ldr	r3, [r4]
 1198 014c 2849     		ldr	r1, .L157+84
 1199 014e 4246     		mov	r2, r8
1016:/home/tienluong/workspace/atlantis_fw/platform/driver/src/log.c **** 
 1200              		.loc 1 1016 0
 1201 0150 174C     		ldr	r4, .L157+20
1014:/home/tienluong/workspace/atlantis_fw/platform/driver/src/log.c **** 				slog_w_new_msg = 1;
 1202              		.loc 1 1014 0
 1203 0152 D868     		ldr	r0, [r3, #12]
 1204 0154 274B     		ldr	r3, .L157+88
 1205 0156 1B68     		ldr	r3, [r3]
 1206 0158 B847     		blx	r7
 1207              	.LVL128:
1015:/home/tienluong/workspace/atlantis_fw/platform/driver/src/log.c **** 				xSemaphoreGive(slog_semaphore);
 1208              		.loc 1 1015 0
 1209 015a 0122     		movs	r2, #1
 1210 015c 164B     		ldr	r3, .L157+28
1016:/home/tienluong/workspace/atlantis_fw/platform/driver/src/log.c **** 
 1211              		.loc 1 1016 0
 1212 015e 0021     		movs	r1, #0
1015:/home/tienluong/workspace/atlantis_fw/platform/driver/src/log.c **** 				xSemaphoreGive(slog_semaphore);
 1213              		.loc 1 1015 0
 1214 0160 1A70     		strb	r2, [r3]
1016:/home/tienluong/workspace/atlantis_fw/platform/driver/src/log.c **** 
 1215              		.loc 1 1016 0
 1216 0162 0A46     		mov	r2, r1
 1217 0164 154B     		ldr	r3, .L157+32
 1218 0166 1868     		ldr	r0, [r3]
 1219 0168 0B46     		mov	r3, r1
 1220 016a A047     		blx	r4
 1221              	.LVL129:
1018:/home/tienluong/workspace/atlantis_fw/platform/driver/src/log.c **** 				{
 1222              		.loc 1 1018 0
 1223 016c 254B     		ldr	r3, .L157+104
 1224 016e 0DF10301 		add	r1, sp, #3
 1225 0172 4FF47A72 		mov	r2, #1000
 1226 0176 1868     		ldr	r0, [r3]
 1227 0178 0023     		movs	r3, #0
 1228 017a 234C     		ldr	r4, .L157+108
 1229 017c A047     		blx	r4
 1230              	.LVL130:
 1231 017e 0128     		cmp	r0, #1
 1232 0180 C1D1     		bne	.L156
1020:/home/tienluong/workspace/atlantis_fw/platform/driver/src/log.c **** 						break;
 1233              		.loc 1 1020 0
 1234 0182 9DF80330 		ldrb	r3, [sp, #3]	@ zero_extendqisi2
 1235 0186 032B     		cmp	r3, #3
 1236 0188 BDD1     		bne	.L156
1024:/home/tienluong/workspace/atlantis_fw/platform/driver/src/log.c **** 		}
 1237              		.loc 1 1024 0
 1238 018a 2846     		mov	r0, r5
 1239 018c 4FF48062 		mov	r2, #1024
 1240 0190 0E49     		ldr	r1, .L157+48
 1241 0192 134B     		ldr	r3, .L157+68
 1242 0194 9847     		blx	r3
 1243              	.LVL131:
 1244              	.L145:
1027:/home/tienluong/workspace/atlantis_fw/platform/driver/src/log.c **** 
 1245              		.loc 1 1027 0
 1246 0196 03B0     		add	sp, sp, #12
 1247              	.LCFI13:
 1248              		.cfi_def_cfa_offset 28
 1249              		@ sp needed
 1250 0198 BDE8F083 		pop	{r4, r5, r6, r7, r8, r9, pc}
 1251              	.L158:
 1252              		.align	2
 1253              	.L157:
 1254 019c 00000000 		.word	get_arg
 1255 01a0 00000000 		.word	strcmp
 1256 01a4 00000000 		.word	.LANCHOR5
 1257 01a8 06010000 		.word	.LC20
 1258 01ac 00000000 		.word	_impure_ptr
 1259 01b0 00000000 		.word	xQueueGenericSend
 1260 01b4 00000000 		.word	fputs
 1261 01b8 00000000 		.word	.LANCHOR2
 1262 01bc 00000000 		.word	.LANCHOR6
 1263 01c0 09010000 		.word	.LC21
 1264 01c4 0C010000 		.word	.LC22
 1265 01c8 3C010000 		.word	.LC23
 1266 01cc 00000000 		.word	.LANCHOR7
 1267 01d0 00000000 		.word	pvPortMalloc1
 1268 01d4 00000000 		.word	malloc_failed
 1269 01d8 00000000 		.word	vTaskList
 1270 01dc 6A010000 		.word	.LC24
 1271 01e0 00000000 		.word	vPortFree1
 1272 01e4 00000000 		.word	xPortGetFreeHeapSize
 1273 01e8 6F010000 		.word	.LC25
 1274 01ec 7D010000 		.word	.LC26
 1275 01f0 9F010000 		.word	.LC27
 1276 01f4 00000000 		.word	total_os_heap_size
 1277 01f8 AC010000 		.word	.LC28
 1278 01fc 0E000000 		.word	.LC2
 1279 0200 00000000 		.word	fprintf
 1280 0204 00000000 		.word	.LANCHOR0
 1281 0208 00000000 		.word	xQueueGenericReceive
 1282              		.cfi_endproc
 1283              	.LFE25:
 1285              		.section	.text.bb_use,"ax",%progbits
 1286              		.align	1
 1287              		.thumb
 1288              		.thumb_func
 1290              	bb_use:
 1291              	.LFB21:
 869:/home/tienluong/workspace/atlantis_fw/platform/driver/src/log.c **** 	char *str, *next;
 1292              		.loc 1 869 0
 1293              		.cfi_startproc
 1294              		@ args = 0, pretend = 0, frame = 8
 1295              		@ frame_needed = 0, uses_anonymous_args = 0
 1296              	.LVL132:
 1297 0000 73B5     		push	{r0, r1, r4, r5, r6, lr}
 1298              	.LCFI14:
 1299              		.cfi_def_cfa_offset 24
 1300              		.cfi_offset 4, -16
 1301              		.cfi_offset 5, -12
 1302              		.cfi_offset 6, -8
 1303              		.cfi_offset 14, -4
 873:/home/tienluong/workspace/atlantis_fw/platform/driver/src/log.c **** 	if(str == NULL)
 1304              		.loc 1 873 0
 1305 0002 154B     		ldr	r3, .L168
 1306 0004 01A9     		add	r1, sp, #4
 1307 0006 9847     		blx	r3
 1308              	.LVL133:
 874:/home/tienluong/workspace/atlantis_fw/platform/driver/src/log.c **** 	{
 1309              		.loc 1 874 0
 1310 0008 0446     		mov	r4, r0
 1311 000a 08B1     		cbz	r0, .L160
 1312 000c 0025     		movs	r5, #0
 1313 000e 0FE0     		b	.L161
 1314              	.LVL134:
 1315              	.L160:
 1316 0010 1034     		adds	r4, r4, #16
 1317              	.LBB10:
 1318              	.LBB11:
 877:/home/tienluong/workspace/atlantis_fw/platform/driver/src/log.c **** 		{
 1319              		.loc 1 877 0
 1320 0012 B02C     		cmp	r4, #176
 1321 0014 1BD0     		beq	.L164
 879:/home/tienluong/workspace/atlantis_fw/platform/driver/src/log.c **** 			i++;
 1322              		.loc 1 879 0
 1323 0016 114A     		ldr	r2, .L168+4
 1324 0018 114B     		ldr	r3, .L168+8
 1325 001a 1268     		ldr	r2, [r2]
 1326 001c 2344     		add	r3, r3, r4
 1327 001e D168     		ldr	r1, [r2, #12]
 1328 0020 53F8040C 		ldr	r0, [r3, #-4]
 1329 0024 0F4B     		ldr	r3, .L168+12
 1330 0026 9847     		blx	r3
 1331              	.LVL135:
 1332 0028 F2E7     		b	.L160
 1333              	.LVL136:
 1334              	.L163:
 1335              	.LBE11:
 1336              	.LBE10:
 894:/home/tienluong/workspace/atlantis_fw/platform/driver/src/log.c **** 		}
 1337              		.loc 1 894 0
 1338 002a 0135     		adds	r5, r5, #1
 1339              	.LVL137:
 887:/home/tienluong/workspace/atlantis_fw/platform/driver/src/log.c **** 		{
 1340              		.loc 1 887 0
 1341 002c 0A2D     		cmp	r5, #10
 1342 002e 0ED0     		beq	.L164
 1343              	.LVL138:
 1344              	.L161:
 1345 0030 0B4E     		ldr	r6, .L168+8
 889:/home/tienluong/workspace/atlantis_fw/platform/driver/src/log.c **** 			{
 1346              		.loc 1 889 0
 1347 0032 2046     		mov	r0, r4
 1348 0034 0C4B     		ldr	r3, .L168+16
 1349 0036 06EB0516 		add	r6, r6, r5, lsl #4
 1350 003a 3146     		mov	r1, r6
 1351 003c 9847     		blx	r3
 1352              	.LVL139:
 1353 003e 0028     		cmp	r0, #0
 1354 0040 F3D1     		bne	.L163
 891:/home/tienluong/workspace/atlantis_fw/platform/driver/src/log.c **** 				break;
 1355              		.loc 1 891 0
 1356 0042 064B     		ldr	r3, .L168+4
 1357 0044 F068     		ldr	r0, [r6, #12]
 1358 0046 1B68     		ldr	r3, [r3]
 1359 0048 D968     		ldr	r1, [r3, #12]
 1360 004a 064B     		ldr	r3, .L168+12
 1361 004c 9847     		blx	r3
 1362              	.LVL140:
 1363              	.L164:
 1364              	.LBB13:
 1365              	.LBB12:
 882:/home/tienluong/workspace/atlantis_fw/platform/driver/src/log.c **** 	}
 1366              		.loc 1 882 0
 1367 004e 0122     		movs	r2, #1
 1368 0050 064B     		ldr	r3, .L168+20
 1369 0052 1A70     		strb	r2, [r3]
 1370              	.LBE12:
 1371              	.LBE13:
 898:/home/tienluong/workspace/atlantis_fw/platform/driver/src/log.c **** 
 1372              		.loc 1 898 0
 1373 0054 02B0     		add	sp, sp, #8
 1374              	.LCFI15:
 1375              		.cfi_def_cfa_offset 16
 1376              		@ sp needed
 1377 0056 70BD     		pop	{r4, r5, r6, pc}
 1378              	.L169:
 1379              		.align	2
 1380              	.L168:
 1381 0058 00000000 		.word	get_arg
 1382 005c 00000000 		.word	_impure_ptr
 1383 0060 00000000 		.word	.LANCHOR5
 1384 0064 00000000 		.word	fputs
 1385 0068 00000000 		.word	strcmp
 1386 006c 00000000 		.word	.LANCHOR2
 1387              		.cfi_endproc
 1388              	.LFE21:
 1390              		.section	.text.bb_kill,"ax",%progbits
 1391              		.align	1
 1392              		.thumb
 1393              		.thumb_func
 1395              	bb_kill:
 1396              	.LFB24:
 917:/home/tienluong/workspace/atlantis_fw/platform/driver/src/log.c **** 	char *str, *next;
 1397              		.loc 1 917 0
 1398              		.cfi_startproc
 1399              		@ args = 0, pretend = 0, frame = 8
 1400              		@ frame_needed = 0, uses_anonymous_args = 0
 1401              	.LVL141:
 1402 0000 73B5     		push	{r0, r1, r4, r5, r6, lr}
 1403              	.LCFI16:
 1404              		.cfi_def_cfa_offset 24
 1405              		.cfi_offset 4, -16
 1406              		.cfi_offset 5, -12
 1407              		.cfi_offset 6, -8
 1408              		.cfi_offset 14, -4
 920:/home/tienluong/workspace/atlantis_fw/platform/driver/src/log.c **** 	if(str == NULL)
 1409              		.loc 1 920 0
 1410 0002 194B     		ldr	r3, .L181
 1411 0004 01A9     		add	r1, sp, #4
 1412 0006 9847     		blx	r3
 1413              	.LVL142:
 1414 0008 184E     		ldr	r6, .L181+4
 921:/home/tienluong/workspace/atlantis_fw/platform/driver/src/log.c **** 	{
 1415              		.loc 1 921 0
 1416 000a 0446     		mov	r4, r0
 1417 000c 70B9     		cbnz	r0, .L177
 1418              	.LVL143:
 1419              	.L174:
 1420 000e 184D     		ldr	r5, .L181+8
 1421              	.LBB16:
 1422              	.LBB17:
 926:/home/tienluong/workspace/atlantis_fw/platform/driver/src/log.c **** 			{
 1423              		.loc 1 926 0
 1424 0010 1848     		ldr	r0, .L181+12
 1425 0012 05EB0415 		add	r5, r5, r4, lsl #4
 1426 0016 2946     		mov	r1, r5
 1427 0018 B047     		blx	r6
 1428              	.LVL144:
 1429 001a 18B9     		cbnz	r0, .L172
 928:/home/tienluong/workspace/atlantis_fw/platform/driver/src/log.c **** 				slog_w_new_msg = 1;
 1430              		.loc 1 928 0
 1431 001c 164B     		ldr	r3, .L181+16
 1432 001e E868     		ldr	r0, [r5, #12]
 1433 0020 1B68     		ldr	r3, [r3]
 1434 0022 19E0     		b	.L180
 1435              	.L172:
 932:/home/tienluong/workspace/atlantis_fw/platform/driver/src/log.c **** 		}
 1436              		.loc 1 932 0
 1437 0024 0134     		adds	r4, r4, #1
 1438              	.LVL145:
 924:/home/tienluong/workspace/atlantis_fw/platform/driver/src/log.c **** 		{
 1439              		.loc 1 924 0
 1440 0026 0A2C     		cmp	r4, #10
 1441 0028 F1D1     		bne	.L174
 1442 002a 1BE0     		b	.L170
 1443              	.LVL146:
 1444              	.L177:
 1445              	.LBE17:
 1446              	.LBE16:
 1447 002c 0025     		movs	r5, #0
 1448              	.LVL147:
 1449              	.L171:
 1450 002e 134B     		ldr	r3, .L181+20
 940:/home/tienluong/workspace/atlantis_fw/platform/driver/src/log.c **** 			{
 1451              		.loc 1 940 0
 1452 0030 2046     		mov	r0, r4
 1453 0032 03EB0513 		add	r3, r3, r5, lsl #4
 1454 0036 5968     		ldr	r1, [r3, #4]
 1455 0038 B047     		blx	r6
 1456              	.LVL148:
 1457 003a 38B9     		cbnz	r0, .L175
 942:/home/tienluong/workspace/atlantis_fw/platform/driver/src/log.c **** 				break;
 1458              		.loc 1 942 0
 1459 003c 104B     		ldr	r3, .L181+24
 1460 003e 0C22     		movs	r2, #12
 1461 0040 02FB0535 		mla	r5, r2, r5, r3
 1462              	.LVL149:
 1463 0044 0F4B     		ldr	r3, .L181+28
 1464 0046 6868     		ldr	r0, [r5, #4]
 1465 0048 9847     		blx	r3
 1466              	.LVL150:
 1467 004a 0BE0     		b	.L170
 1468              	.LVL151:
 1469              	.L175:
 945:/home/tienluong/workspace/atlantis_fw/platform/driver/src/log.c **** 		}
 1470              		.loc 1 945 0
 1471 004c 0135     		adds	r5, r5, #1
 1472              	.LVL152:
 938:/home/tienluong/workspace/atlantis_fw/platform/driver/src/log.c **** 		{
 1473              		.loc 1 938 0
 1474 004e 052D     		cmp	r5, #5
 1475 0050 EDD1     		bne	.L171
 949:/home/tienluong/workspace/atlantis_fw/platform/driver/src/log.c **** 			slog_w_new_msg = 1;
 1476              		.loc 1 949 0
 1477 0052 094B     		ldr	r3, .L181+16
 1478 0054 0C48     		ldr	r0, .L181+32
 1479 0056 1B68     		ldr	r3, [r3]
 1480              	.LVL153:
 1481              	.L180:
 1482 0058 D968     		ldr	r1, [r3, #12]
 1483 005a 0C4B     		ldr	r3, .L181+36
 1484 005c 9847     		blx	r3
 1485              	.LVL154:
 950:/home/tienluong/workspace/atlantis_fw/platform/driver/src/log.c **** 		}
 1486              		.loc 1 950 0
 1487 005e 0122     		movs	r2, #1
 1488 0060 0B4B     		ldr	r3, .L181+40
 1489 0062 1A70     		strb	r2, [r3]
 1490              	.L170:
 953:/home/tienluong/workspace/atlantis_fw/platform/driver/src/log.c **** 
 1491              		.loc 1 953 0
 1492 0064 02B0     		add	sp, sp, #8
 1493              	.LCFI17:
 1494              		.cfi_def_cfa_offset 16
 1495              		@ sp needed
 1496 0066 70BD     		pop	{r4, r5, r6, pc}
 1497              	.L182:
 1498              		.align	2
 1499              	.L181:
 1500 0068 00000000 		.word	get_arg
 1501 006c 00000000 		.word	strcmp
 1502 0070 00000000 		.word	.LANCHOR5
 1503 0074 AF010000 		.word	.LC29
 1504 0078 00000000 		.word	_impure_ptr
 1505 007c 00000000 		.word	task_list
 1506 0080 00000000 		.word	task_handler
 1507 0084 00000000 		.word	vTaskDelete
 1508 0088 B4010000 		.word	.LC30
 1509 008c 00000000 		.word	fputs
 1510 0090 00000000 		.word	.LANCHOR2
 1511              		.cfi_endproc
 1512              	.LFE24:
 1514              		.section	.text.bb_time,"ax",%progbits
 1515              		.align	1
 1516              		.thumb
 1517              		.thumb_func
 1519              	bb_time:
 1520              	.LFB26:
1031:/home/tienluong/workspace/atlantis_fw/platform/driver/src/log.c **** 	rtc_t rtc_time;
 1521              		.loc 1 1031 0
 1522              		.cfi_startproc
 1523              		@ args = 0, pretend = 0, frame = 48
 1524              		@ frame_needed = 0, uses_anonymous_args = 0
 1525              	.LVL155:
 1526 0000 2DE9F04F 		push	{r4, r5, r6, r7, r8, r9, r10, fp, lr}
 1527              	.LCFI18:
 1528              		.cfi_def_cfa_offset 36
 1529              		.cfi_offset 4, -36
 1530              		.cfi_offset 5, -32
 1531              		.cfi_offset 6, -28
 1532              		.cfi_offset 7, -24
 1533              		.cfi_offset 8, -20
 1534              		.cfi_offset 9, -16
 1535              		.cfi_offset 10, -12
 1536              		.cfi_offset 11, -8
 1537              		.cfi_offset 14, -4
1034:/home/tienluong/workspace/atlantis_fw/platform/driver/src/log.c **** 	char *str, *next, *_day, *_time;
 1538              		.loc 1 1034 0
 1539 0004 6449     		ldr	r1, .L207
1031:/home/tienluong/workspace/atlantis_fw/platform/driver/src/log.c **** 	rtc_t rtc_time;
 1540              		.loc 1 1031 0
 1541 0006 8DB0     		sub	sp, sp, #52
 1542              	.LCFI19:
 1543              		.cfi_def_cfa_offset 88
1031:/home/tienluong/workspace/atlantis_fw/platform/driver/src/log.c **** 	rtc_t rtc_time;
 1544              		.loc 1 1031 0
 1545 0008 0446     		mov	r4, r0
1034:/home/tienluong/workspace/atlantis_fw/platform/driver/src/log.c **** 	char *str, *next, *_day, *_time;
 1546              		.loc 1 1034 0
 1547 000a 40F20A42 		movw	r2, #1034
 1548 000e 5020     		movs	r0, #80
 1549              	.LVL156:
 1550 0010 624B     		ldr	r3, .L207+4
 1551 0012 9847     		blx	r3
 1552              	.LVL157:
 1553 0014 0746     		mov	r7, r0
 1554 0016 28B9     		cbnz	r0, .L184
1034:/home/tienluong/workspace/atlantis_fw/platform/driver/src/log.c **** 	char *str, *next, *_day, *_time;
 1555              		.loc 1 1034 0 is_stmt 0 discriminator 2
 1556 0018 5F48     		ldr	r0, .L207
 1557              	.LVL158:
 1558 001a 40F20A41 		movw	r1, #1034
 1559 001e 604B     		ldr	r3, .L207+8
 1560 0020 9847     		blx	r3
 1561              	.LVL159:
 1562 0022 0746     		mov	r7, r0
 1563              	.LVL160:
 1564              	.L184:
1037:/home/tienluong/workspace/atlantis_fw/platform/driver/src/log.c **** 	if(str != NULL)
 1565              		.loc 1 1037 0 is_stmt 1 discriminator 4
 1566 0024 2046     		mov	r0, r4
 1567 0026 07A9     		add	r1, sp, #28
 1568 0028 5E4D     		ldr	r5, .L207+12
 1569 002a 08AC     		add	r4, sp, #32
 1570              	.LVL161:
 1571 002c A847     		blx	r5
 1572              	.LVL162:
1038:/home/tienluong/workspace/atlantis_fw/platform/driver/src/log.c **** 	{
 1573              		.loc 1 1038 0 discriminator 4
 1574 002e 0028     		cmp	r0, #0
 1575 0030 00F08B80 		beq	.L186
1040:/home/tienluong/workspace/atlantis_fw/platform/driver/src/log.c **** 		{
 1576              		.loc 1 1040 0
 1577 0034 5C49     		ldr	r1, .L207+16
 1578 0036 5D4B     		ldr	r3, .L207+20
 1579 0038 9847     		blx	r3
 1580              	.LVL163:
 1581 003a 8346     		mov	fp, r0
 1582 003c 0028     		cmp	r0, #0
 1583 003e 40F08480 		bne	.L186
1042:/home/tienluong/workspace/atlantis_fw/platform/driver/src/log.c **** 			_day = get_arg(next, &next);
 1584              		.loc 1 1042 0
 1585 0042 07A9     		add	r1, sp, #28
 1586 0044 0798     		ldr	r0, [sp, #28]
 1587 0046 A847     		blx	r5
 1588              	.LVL164:
1043:/home/tienluong/workspace/atlantis_fw/platform/driver/src/log.c **** 			if(_day == NULL || _time == NULL)
 1589              		.loc 1 1043 0
 1590 0048 07A9     		add	r1, sp, #28
1042:/home/tienluong/workspace/atlantis_fw/platform/driver/src/log.c **** 			_day = get_arg(next, &next);
 1591              		.loc 1 1042 0
 1592 004a 0646     		mov	r6, r0
 1593              	.LVL165:
1043:/home/tienluong/workspace/atlantis_fw/platform/driver/src/log.c **** 			if(_day == NULL || _time == NULL)
 1594              		.loc 1 1043 0
 1595 004c 0798     		ldr	r0, [sp, #28]
 1596              	.LVL166:
 1597 004e A847     		blx	r5
 1598              	.LVL167:
1044:/home/tienluong/workspace/atlantis_fw/platform/driver/src/log.c **** 			{
 1599              		.loc 1 1044 0
 1600 0050 8046     		mov	r8, r0
 1601 0052 0028     		cmp	r0, #0
 1602 0054 79D0     		beq	.L186
1044:/home/tienluong/workspace/atlantis_fw/platform/driver/src/log.c **** 			{
 1603              		.loc 1 1044 0 is_stmt 0 discriminator 1
 1604 0056 002E     		cmp	r6, #0
 1605 0058 77D0     		beq	.L186
 1606              	.LVL168:
 1607              	.LBB22:
 1608              	.LBB23:
 795:/home/tienluong/workspace/atlantis_fw/platform/driver/src/log.c **** 	hour = atoi(str);
 1609              		.loc 1 795 0 is_stmt 1
 1610 005a 2146     		mov	r1, r4
 1611 005c 3A22     		movs	r2, #58
 1612 005e 3046     		mov	r0, r6
 1613              	.LVL169:
 1614 0060 534E     		ldr	r6, .L207+24
 1615              	.LVL170:
 796:/home/tienluong/workspace/atlantis_fw/platform/driver/src/log.c **** 	str = get_opt(next, &next, ':');
 1616              		.loc 1 796 0
 1617 0062 544D     		ldr	r5, .L207+28
 795:/home/tienluong/workspace/atlantis_fw/platform/driver/src/log.c **** 	hour = atoi(str);
 1618              		.loc 1 795 0
 1619 0064 B047     		blx	r6
 1620              	.LVL171:
 796:/home/tienluong/workspace/atlantis_fw/platform/driver/src/log.c **** 	str = get_opt(next, &next, ':');
 1621              		.loc 1 796 0
 1622 0066 A847     		blx	r5
 1623              	.LVL172:
 797:/home/tienluong/workspace/atlantis_fw/platform/driver/src/log.c **** 	min = atoi(str);
 1624              		.loc 1 797 0
 1625 0068 2146     		mov	r1, r4
 1626 006a 3A22     		movs	r2, #58
 796:/home/tienluong/workspace/atlantis_fw/platform/driver/src/log.c **** 	str = get_opt(next, &next, ':');
 1627              		.loc 1 796 0
 1628 006c 8146     		mov	r9, r0
 1629              	.LVL173:
 797:/home/tienluong/workspace/atlantis_fw/platform/driver/src/log.c **** 	min = atoi(str);
 1630              		.loc 1 797 0
 1631 006e 0898     		ldr	r0, [sp, #32]
 1632 0070 B047     		blx	r6
 1633              	.LVL174:
 798:/home/tienluong/workspace/atlantis_fw/platform/driver/src/log.c **** 	str = get_opt(next, &next, 0);
 1634              		.loc 1 798 0
 1635 0072 A847     		blx	r5
 1636              	.LVL175:
 799:/home/tienluong/workspace/atlantis_fw/platform/driver/src/log.c **** 	sec = atoi(str);
 1637              		.loc 1 799 0
 1638 0074 2146     		mov	r1, r4
 1639 0076 5A46     		mov	r2, fp
 798:/home/tienluong/workspace/atlantis_fw/platform/driver/src/log.c **** 	str = get_opt(next, &next, 0);
 1640              		.loc 1 798 0
 1641 0078 0190     		str	r0, [sp, #4]
 1642              	.LVL176:
 799:/home/tienluong/workspace/atlantis_fw/platform/driver/src/log.c **** 	sec = atoi(str);
 1643              		.loc 1 799 0
 1644 007a 0898     		ldr	r0, [sp, #32]
 1645 007c B047     		blx	r6
 1646              	.LVL177:
 800:/home/tienluong/workspace/atlantis_fw/platform/driver/src/log.c **** 
 1647              		.loc 1 800 0
 1648 007e A847     		blx	r5
 1649              	.LVL178:
 803:/home/tienluong/workspace/atlantis_fw/platform/driver/src/log.c **** 	day = atoi(str);
 1650              		.loc 1 803 0
 1651 0080 2146     		mov	r1, r4
 1652 0082 2F22     		movs	r2, #47
 800:/home/tienluong/workspace/atlantis_fw/platform/driver/src/log.c **** 
 1653              		.loc 1 800 0
 1654 0084 8246     		mov	r10, r0
 1655              	.LVL179:
 803:/home/tienluong/workspace/atlantis_fw/platform/driver/src/log.c **** 	day = atoi(str);
 1656              		.loc 1 803 0
 1657 0086 4046     		mov	r0, r8
 1658 0088 B047     		blx	r6
 1659              	.LVL180:
 804:/home/tienluong/workspace/atlantis_fw/platform/driver/src/log.c **** 	str = get_opt(next, &next, '/');
 1660              		.loc 1 804 0
 1661 008a A847     		blx	r5
 1662              	.LVL181:
 805:/home/tienluong/workspace/atlantis_fw/platform/driver/src/log.c **** 	month = atoi(str);
 1663              		.loc 1 805 0
 1664 008c 2146     		mov	r1, r4
 1665 008e 2F22     		movs	r2, #47
 804:/home/tienluong/workspace/atlantis_fw/platform/driver/src/log.c **** 	str = get_opt(next, &next, '/');
 1666              		.loc 1 804 0
 1667 0090 8046     		mov	r8, r0
 1668              	.LVL182:
 805:/home/tienluong/workspace/atlantis_fw/platform/driver/src/log.c **** 	month = atoi(str);
 1669              		.loc 1 805 0
 1670 0092 0898     		ldr	r0, [sp, #32]
 1671 0094 B047     		blx	r6
 1672              	.LVL183:
 806:/home/tienluong/workspace/atlantis_fw/platform/driver/src/log.c **** 	str = get_opt(next, &next, 0);
 1673              		.loc 1 806 0
 1674 0096 A847     		blx	r5
 1675              	.LVL184:
 807:/home/tienluong/workspace/atlantis_fw/platform/driver/src/log.c **** 	year = atoi(str);
 1676              		.loc 1 807 0
 1677 0098 2146     		mov	r1, r4
 1678 009a 5A46     		mov	r2, fp
 806:/home/tienluong/workspace/atlantis_fw/platform/driver/src/log.c **** 	str = get_opt(next, &next, 0);
 1679              		.loc 1 806 0
 1680 009c 0090     		str	r0, [sp]
 1681              	.LVL185:
 807:/home/tienluong/workspace/atlantis_fw/platform/driver/src/log.c **** 	year = atoi(str);
 1682              		.loc 1 807 0
 1683 009e 0898     		ldr	r0, [sp, #32]
 1684 00a0 B047     		blx	r6
 1685              	.LVL186:
 808:/home/tienluong/workspace/atlantis_fw/platform/driver/src/log.c **** 
 1686              		.loc 1 808 0
 1687 00a2 A847     		blx	r5
 1688              	.LVL187:
 810:/home/tienluong/workspace/atlantis_fw/platform/driver/src/log.c **** 
 1689              		.loc 1 810 0
 1690 00a4 009B     		ldr	r3, [sp]
 1691              	.LBB24:
 1692              	.LBB25:
 733:/home/tienluong/workspace/atlantis_fw/platform/driver/src/log.c **** 	{
 1693              		.loc 1 733 0
 1694 00a6 DDF804C0 		ldr	ip, [sp, #4]
 1695              	.LBE25:
 1696              	.LBE24:
 810:/home/tienluong/workspace/atlantis_fw/platform/driver/src/log.c **** 
 1697              		.loc 1 810 0
 1698 00aa 0133     		adds	r3, r3, #1
 1699 00ac 99B2     		uxth	r1, r3
 808:/home/tienluong/workspace/atlantis_fw/platform/driver/src/log.c **** 
 1700              		.loc 1 808 0
 1701 00ae 80B2     		uxth	r0, r0
 1702              	.LVL188:
 1703              	.LBB28:
 1704              	.LBB26:
 732:/home/tienluong/workspace/atlantis_fw/platform/driver/src/log.c **** 	if(_tmp > 0)
 1705              		.loc 1 732 0
 1706 00b0 A0F2B273 		subw	r3, r0, #1970
 1707              	.LVL189:
 733:/home/tienluong/workspace/atlantis_fw/platform/driver/src/log.c **** 	{
 1708              		.loc 1 733 0
 1709 00b4 4BB1     		cbz	r3, .L198
 735:/home/tienluong/workspace/atlantis_fw/platform/driver/src/log.c **** 		non_leap_year += 2;
 1710              		.loc 1 735 0
 1711 00b6 A0F2B472 		subw	r2, r0, #1972
 1712              	.LVL190:
 737:/home/tienluong/workspace/atlantis_fw/platform/driver/src/log.c **** 			leap_year = _tmp/4;
 1713              		.loc 1 737 0
 1714 00ba 10F0030F 		tst	r0, #3
 1715 00be 4FEA9202 		lsr	r2, r2, #2
 740:/home/tienluong/workspace/atlantis_fw/platform/driver/src/log.c **** 		non_leap_year += _tmp - leap_year;
 1716              		.loc 1 740 0
 1717 00c2 18BF     		it	ne
 1718 00c4 0132     		addne	r2, r2, #1
 1719              	.LVL191:
 741:/home/tienluong/workspace/atlantis_fw/platform/driver/src/log.c **** 	}
 1720              		.loc 1 741 0
 1721 00c6 9D1A     		subs	r5, r3, r2
 1722              	.LVL192:
 1723 00c8 01E0     		b	.L188
 1724              	.LVL193:
 1725              	.L198:
 730:/home/tienluong/workspace/atlantis_fw/platform/driver/src/log.c **** 	int i;
 1726              		.loc 1 730 0
 1727 00ca 1A46     		mov	r2, r3
 1728 00cc 1D46     		mov	r5, r3
 1729              	.LVL194:
 1730              	.L188:
 1731 00ce 4FF4B773 		mov	r3, #366
 1732 00d2 5A43     		muls	r2, r3, r2
 1733              	.LVL195:
 1734 00d4 40F26D13 		movw	r3, #365
 1735 00d8 03FB0523 		mla	r3, r3, r5, r2
 772:/home/tienluong/workspace/atlantis_fw/platform/driver/src/log.c **** 				break;
 1736              		.loc 1 772 0
 1737 00dc 0025     		movs	r5, #0
 1738              	.LVL196:
 1739              	.L191:
 1740 00de 6E1C     		adds	r6, r5, #1
 752:/home/tienluong/workspace/atlantis_fw/platform/driver/src/log.c **** 	{
 1741              		.loc 1 752 0
 1742 00e0 8E42     		cmp	r6, r1
 1743 00e2 18DA     		bge	.L206
 1744 00e4 0B2D     		cmp	r5, #11
 1745 00e6 14D8     		bhi	.L192
 1746 00e8 0122     		movs	r2, #1
 1747 00ea AA40     		lsls	r2, r2, r5
 1748 00ec 40F6D525 		movw	r5, #2773
 1749 00f0 1540     		ands	r5, r5, r2
 1750 00f2 5DB9     		cbnz	r5, .L193
 1751 00f4 12F4A56F 		tst	r2, #1320
 1752 00f8 0AD1     		bne	.L194
 1753 00fa 9507     		lsls	r5, r2, #30
 1754 00fc 09D5     		bpl	.L192
 772:/home/tienluong/workspace/atlantis_fw/platform/driver/src/log.c **** 				break;
 1755              		.loc 1 772 0
 1756 00fe 10F0030F 		tst	r0, #3
 1757 0102 14BF     		ite	ne
 1758 0104 1C22     		movne	r2, #28
 1759 0106 1D22     		moveq	r2, #29
 1760 0108 1344     		add	r3, r3, r2
 1761              	.LVL197:
 1762 010a 02E0     		b	.L192
 1763              	.L193:
 763:/home/tienluong/workspace/atlantis_fw/platform/driver/src/log.c **** 				break;
 1764              		.loc 1 763 0
 1765 010c 1F33     		adds	r3, r3, #31
 1766              	.LVL198:
 1767 010e 00E0     		b	.L192
 1768              	.L194:
 769:/home/tienluong/workspace/atlantis_fw/platform/driver/src/log.c **** 				break;
 1769              		.loc 1 769 0
 1770 0110 1E33     		adds	r3, r3, #30
 1771              	.LVL199:
 1772              	.L192:
 772:/home/tienluong/workspace/atlantis_fw/platform/driver/src/log.c **** 				break;
 1773              		.loc 1 772 0
 1774 0112 3546     		mov	r5, r6
 1775 0114 E3E7     		b	.L191
 1776              	.LVL200:
 1777              	.L206:
 780:/home/tienluong/workspace/atlantis_fw/platform/driver/src/log.c **** }
 1778              		.loc 1 780 0
 1779 0116 3C21     		movs	r1, #60
 1780              	.LVL201:
 1781 0118 1FFA8CFC 		uxth	ip, ip
 1782 011c 1FFA89F2 		uxth	r2, r9
 1783 0120 01FB0CFC 		mul	ip, r1, ip
 1784 0124 4FF46169 		mov	r9, #3600
 1785              	.LVL202:
 1786 0128 1FFA88F8 		uxth	r8, r8
 1787              	.LVL203:
 1788 012c 09FB02C9 		mla	r9, r9, r2, ip
 1789 0130 08F1FF38 		add	r8, r8, #-1
 1790              	.LVL204:
 779:/home/tienluong/workspace/atlantis_fw/platform/driver/src/log.c **** 	return((s_day*24*3600) + (fs_hour*3600) + (fs_min*60) + fs_sec);
 1791              		.loc 1 779 0
 1792 0134 9844     		add	r8, r8, r3
 1793              	.LVL205:
 780:/home/tienluong/workspace/atlantis_fw/platform/driver/src/log.c **** }
 1794              		.loc 1 780 0
 1795 0136 204B     		ldr	r3, .L207+32
 1796 0138 19FA8AF9 		uxtah	r9, r9, r10
 1797              	.LBE26:
 1798              	.LBE28:
 1799              	.LBE23:
 1800              	.LBE22:
1051:/home/tienluong/workspace/atlantis_fw/platform/driver/src/log.c **** 			}
 1801              		.loc 1 1051 0
 1802 013c 1F4D     		ldr	r5, .L207+36
 1803              	.LBB31:
 1804              	.LBB30:
 1805              	.LBB29:
 1806              	.LBB27:
 780:/home/tienluong/workspace/atlantis_fw/platform/driver/src/log.c **** }
 1807              		.loc 1 780 0
 1808 013e 03FB0893 		mla	r3, r3, r8, r9
 1809              	.LBE27:
 1810              	.LBE29:
 1811              	.LBE30:
 1812              	.LBE31:
1050:/home/tienluong/workspace/atlantis_fw/platform/driver/src/log.c **** 				rtc_set_time(rtc_time);
 1813              		.loc 1 1050 0
 1814 0142 0893     		str	r3, [sp, #32]
1051:/home/tienluong/workspace/atlantis_fw/platform/driver/src/log.c **** 			}
 1815              		.loc 1 1051 0
 1816 0144 94E80F00 		ldmia	r4, {r0, r1, r2, r3}
 1817              	.LVL206:
 1818 0148 A847     		blx	r5
 1819              	.LVL207:
 1820              	.L186:
1056:/home/tienluong/workspace/atlantis_fw/platform/driver/src/log.c **** 	time(&rtc_time.raw);
 1821              		.loc 1 1056 0
 1822 014a 02AD     		add	r5, sp, #8
 1823 014c 2846     		mov	r0, r5
 1824 014e 1C4B     		ldr	r3, .L207+40
 1825 0150 9847     		blx	r3
 1826              	.LVL208:
 1827 0152 95E80F00 		ldmia	r5, {r0, r1, r2, r3}
 1828 0156 84E80F00 		stmia	r4, {r0, r1, r2, r3}
1057:/home/tienluong/workspace/atlantis_fw/platform/driver/src/log.c **** 	t_info = localtime(&rtc_time.raw);
 1829              		.loc 1 1057 0
 1830 015a 2046     		mov	r0, r4
 1831 015c 194B     		ldr	r3, .L207+44
 1832 015e 9847     		blx	r3
 1833              	.LVL209:
1058:/home/tienluong/workspace/atlantis_fw/platform/driver/src/log.c **** 	strftime(buffer, 80, "\t%c Week %U %Z", t_info);
 1834              		.loc 1 1058 0
 1835 0160 2046     		mov	r0, r4
 1836 0162 194B     		ldr	r3, .L207+48
 1837 0164 9847     		blx	r3
 1838              	.LVL210:
1059:/home/tienluong/workspace/atlantis_fw/platform/driver/src/log.c **** 	fprintf(stderr, "%s\r\n", buffer);
 1839              		.loc 1 1059 0
 1840 0166 194C     		ldr	r4, .L207+52
 1841 0168 5021     		movs	r1, #80
 1842 016a 194A     		ldr	r2, .L207+56
1058:/home/tienluong/workspace/atlantis_fw/platform/driver/src/log.c **** 	strftime(buffer, 80, "\t%c Week %U %Z", t_info);
 1843              		.loc 1 1058 0
 1844 016c 0346     		mov	r3, r0
 1845              	.LVL211:
1059:/home/tienluong/workspace/atlantis_fw/platform/driver/src/log.c **** 	fprintf(stderr, "%s\r\n", buffer);
 1846              		.loc 1 1059 0
 1847 016e 3846     		mov	r0, r7
 1848              	.LVL212:
 1849 0170 A047     		blx	r4
 1850              	.LVL213:
1060:/home/tienluong/workspace/atlantis_fw/platform/driver/src/log.c **** 	slog_w_new_msg = 1;
 1851              		.loc 1 1060 0
 1852 0172 184B     		ldr	r3, .L207+60
 1853 0174 3A46     		mov	r2, r7
 1854 0176 1849     		ldr	r1, .L207+64
 1855 0178 1B68     		ldr	r3, [r3]
 1856 017a D868     		ldr	r0, [r3, #12]
 1857 017c 174B     		ldr	r3, .L207+68
 1858 017e 9847     		blx	r3
 1859              	.LVL214:
1061:/home/tienluong/workspace/atlantis_fw/platform/driver/src/log.c **** 	vPortFree(buffer);
 1860              		.loc 1 1061 0
 1861 0180 0122     		movs	r2, #1
 1862 0182 174B     		ldr	r3, .L207+72
1062:/home/tienluong/workspace/atlantis_fw/platform/driver/src/log.c **** }
 1863              		.loc 1 1062 0
 1864 0184 3846     		mov	r0, r7
1061:/home/tienluong/workspace/atlantis_fw/platform/driver/src/log.c **** 	vPortFree(buffer);
 1865              		.loc 1 1061 0
 1866 0186 1A70     		strb	r2, [r3]
1062:/home/tienluong/workspace/atlantis_fw/platform/driver/src/log.c **** }
 1867              		.loc 1 1062 0
 1868 0188 40F22642 		movw	r2, #1062
 1869 018c 0249     		ldr	r1, .L207
 1870 018e 154B     		ldr	r3, .L207+76
 1871 0190 9847     		blx	r3
 1872              	.LVL215:
1063:/home/tienluong/workspace/atlantis_fw/platform/driver/src/log.c **** 
 1873              		.loc 1 1063 0
 1874 0192 0DB0     		add	sp, sp, #52
 1875              	.LCFI20:
 1876              		.cfi_def_cfa_offset 36
 1877              		@ sp needed
 1878 0194 BDE8F08F 		pop	{r4, r5, r6, r7, r8, r9, r10, fp, pc}
 1879              	.LVL216:
 1880              	.L208:
 1881              		.align	2
 1882              	.L207:
 1883 0198 00000000 		.word	.LANCHOR8
 1884 019c 00000000 		.word	pvPortMalloc1
 1885 01a0 00000000 		.word	malloc_failed
 1886 01a4 00000000 		.word	get_arg
 1887 01a8 C8010000 		.word	.LC31
 1888 01ac 00000000 		.word	strcmp
 1889 01b0 00000000 		.word	get_opt
 1890 01b4 00000000 		.word	atoi
 1891 01b8 80510100 		.word	86400
 1892 01bc 00000000 		.word	rtc_set_time
 1893 01c0 00000000 		.word	rtc_get_time
 1894 01c4 00000000 		.word	time
 1895 01c8 00000000 		.word	localtime
 1896 01cc 00000000 		.word	strftime
 1897 01d0 CB010000 		.word	.LC32
 1898 01d4 00000000 		.word	_impure_ptr
 1899 01d8 6A010000 		.word	.LC24
 1900 01dc 00000000 		.word	fprintf
 1901 01e0 00000000 		.word	.LANCHOR2
 1902 01e4 00000000 		.word	vPortFree1
 1903              		.cfi_endproc
 1904              	.LFE26:
 1906              		.section	.text._write,"ax",%progbits
 1907              		.align	1
 1908              		.global	_write
 1909              		.thumb
 1910              		.thumb_func
 1912              	_write:
 1913              	.LFB1:
 211:/home/tienluong/workspace/atlantis_fw/platform/driver/src/log.c **** 	int n;
 1914              		.loc 1 211 0
 1915              		.cfi_startproc
 1916              		@ args = 0, pretend = 0, frame = 0
 1917              		@ frame_needed = 0, uses_anonymous_args = 0
 1918              	.LVL217:
 1919 0000 70B5     		push	{r4, r5, r6, lr}
 1920              	.LCFI21:
 1921              		.cfi_def_cfa_offset 16
 1922              		.cfi_offset 4, -16
 1923              		.cfi_offset 5, -12
 1924              		.cfi_offset 6, -8
 1925              		.cfi_offset 14, -4
 211:/home/tienluong/workspace/atlantis_fw/platform/driver/src/log.c **** 	int n;
 1926              		.loc 1 211 0
 1927 0002 0E46     		mov	r6, r1
 1928 0004 1546     		mov	r5, r2
 213:/home/tienluong/workspace/atlantis_fw/platform/driver/src/log.c **** 	{
 1929              		.loc 1 213 0
 1930 0006 0C46     		mov	r4, r1
 1931              	.LVL218:
 1932              	.L210:
 1933 0008 A31B     		subs	r3, r4, r6
 1934              	.LVL219:
 213:/home/tienluong/workspace/atlantis_fw/platform/driver/src/log.c **** 	{
 1935              		.loc 1 213 0 is_stmt 0 discriminator 1
 1936 000a AB42     		cmp	r3, r5
 1937 000c 07DA     		bge	.L212
 215:/home/tienluong/workspace/atlantis_fw/platform/driver/src/log.c **** 		hal_com_sendbyte(&com_dbg);
 1938              		.loc 1 215 0 is_stmt 1 discriminator 3
 1939 000e 0548     		ldr	r0, .L213
 1940 0010 14F8012B 		ldrb	r2, [r4], #1	@ zero_extendqisi2
 1941              	.LVL220:
 1942 0014 C368     		ldr	r3, [r0, #12]
 1943              	.LVL221:
 1944 0016 1A70     		strb	r2, [r3]
 216:/home/tienluong/workspace/atlantis_fw/platform/driver/src/log.c **** 	}
 1945              		.loc 1 216 0 discriminator 3
 1946 0018 034B     		ldr	r3, .L213+4
 1947 001a 9847     		blx	r3
 1948              	.LVL222:
 1949 001c F4E7     		b	.L210
 1950              	.LVL223:
 1951              	.L212:
 219:/home/tienluong/workspace/atlantis_fw/platform/driver/src/log.c **** 
 1952              		.loc 1 219 0
 1953 001e 25EAE570 		bic	r0, r5, r5, asr #31
 1954 0022 70BD     		pop	{r4, r5, r6, pc}
 1955              	.LVL224:
 1956              	.L214:
 1957              		.align	2
 1958              	.L213:
 1959 0024 00000000 		.word	.LANCHOR9
 1960 0028 00000000 		.word	hal_com_sendbyte
 1961              		.cfi_endproc
 1962              	.LFE1:
 1964              		.section	.text._read,"ax",%progbits
 1965              		.align	1
 1966              		.global	_read
 1967              		.thumb
 1968              		.thumb_func
 1970              	_read:
 1971              	.LFB2:
 226:/home/tienluong/workspace/atlantis_fw/platform/driver/src/log.c **** 	int CharCnt = 0x00;
 1972              		.loc 1 226 0
 1973              		.cfi_startproc
 1974              		@ args = 0, pretend = 0, frame = 0
 1975              		@ frame_needed = 0, uses_anonymous_args = 0
 1976              	.LVL225:
 1977 0000 F8B5     		push	{r3, r4, r5, r6, r7, lr}
 1978              	.LCFI22:
 1979              		.cfi_def_cfa_offset 24
 1980              		.cfi_offset 3, -24
 1981              		.cfi_offset 4, -20
 1982              		.cfi_offset 5, -16
 1983              		.cfi_offset 6, -12
 1984              		.cfi_offset 7, -8
 1985              		.cfi_offset 14, -4
 226:/home/tienluong/workspace/atlantis_fw/platform/driver/src/log.c **** 	int CharCnt = 0x00;
 1986              		.loc 1 226 0
 1987 0002 0E46     		mov	r6, r1
 1988 0004 1546     		mov	r5, r2
 228:/home/tienluong/workspace/atlantis_fw/platform/driver/src/log.c **** 	{
 1989              		.loc 1 228 0
 1990 0006 0C46     		mov	r4, r1
 1991              	.LVL226:
 1992              	.L216:
 1993 0008 A31B     		subs	r3, r4, r6
 1994              	.LVL227:
 1995 000a AB42     		cmp	r3, r5
 1996 000c 08DA     		bge	.L218
 230:/home/tienluong/workspace/atlantis_fw/platform/driver/src/log.c **** 		*ptr++ = *(com_dbg.data);
 1997              		.loc 1 230 0
 1998 000e 064F     		ldr	r7, .L219
 1999 0010 064B     		ldr	r3, .L219+4
 2000              	.LVL228:
 2001 0012 3846     		mov	r0, r7
 2002 0014 9847     		blx	r3
 2003              	.LVL229:
 231:/home/tienluong/workspace/atlantis_fw/platform/driver/src/log.c **** 		CharCnt++;
 2004              		.loc 1 231 0
 2005 0016 FB68     		ldr	r3, [r7, #12]
 2006 0018 1B78     		ldrb	r3, [r3]	@ zero_extendqisi2
 2007 001a 04F8013B 		strb	r3, [r4], #1
 2008              	.LVL230:
 2009 001e F3E7     		b	.L216
 2010              	.LVL231:
 2011              	.L218:
 235:/home/tienluong/workspace/atlantis_fw/platform/driver/src/log.c **** 
 2012              		.loc 1 235 0
 2013 0020 25EAE570 		bic	r0, r5, r5, asr #31
 2014 0024 F8BD     		pop	{r3, r4, r5, r6, r7, pc}
 2015              	.LVL232:
 2016              	.L220:
 2017 0026 00BF     		.align	2
 2018              	.L219:
 2019 0028 00000000 		.word	.LANCHOR9
 2020 002c 00000000 		.word	hal_com_readbyte
 2021              		.cfi_endproc
 2022              	.LFE2:
 2024              		.section	.text.log_init,"ax",%progbits
 2025              		.align	1
 2026              		.global	log_init
 2027              		.thumb
 2028              		.thumb_func
 2030              	log_init:
 2031              	.LFB3:
 242:/home/tienluong/workspace/atlantis_fw/platform/driver/src/log.c ****     slog_circ_buffer.buffer_start = gen_pvPortMalloc(&ddr_heap_attribute, SLOG_CIRC_BUFFER_SIZE);
 2032              		.loc 1 242 0
 2033              		.cfi_startproc
 2034              		@ args = 0, pretend = 0, frame = 0
 2035              		@ frame_needed = 0, uses_anonymous_args = 0
 2036 0000 38B5     		push	{r3, r4, r5, lr}
 2037              	.LCFI23:
 2038              		.cfi_def_cfa_offset 16
 2039              		.cfi_offset 3, -16
 2040              		.cfi_offset 4, -12
 2041              		.cfi_offset 5, -8
 2042              		.cfi_offset 14, -4
 243:/home/tienluong/workspace/atlantis_fw/platform/driver/src/log.c ****     slog_circ_buffer.buffer_end = slog_circ_buffer.buffer_start + SLOG_CIRC_BUFFER_SIZE;
 2043              		.loc 1 243 0
 2044 0002 4FF40021 		mov	r1, #524288
 2045 0006 1A4A     		ldr	r2, .L222
 2046 0008 F323     		movs	r3, #243
 2047 000a 1A4C     		ldr	r4, .L222+4
 2048 000c 1A48     		ldr	r0, .L222+8
 2049 000e A047     		blx	r4
 2050              	.LVL233:
 2051 0010 1A4C     		ldr	r4, .L222+12
 249:/home/tienluong/workspace/atlantis_fw/platform/driver/src/log.c ****     slog_semaphore = xSemaphoreCreateBinary();
 2052              		.loc 1 249 0
 2053 0012 1B4D     		ldr	r5, .L222+16
 244:/home/tienluong/workspace/atlantis_fw/platform/driver/src/log.c ****     slog_circ_buffer.buffer_used_end = slog_circ_buffer.buffer_end;
 2054              		.loc 1 244 0
 2055 0014 00F50023 		add	r3, r0, #524288
 243:/home/tienluong/workspace/atlantis_fw/platform/driver/src/log.c ****     slog_circ_buffer.buffer_end = slog_circ_buffer.buffer_start + SLOG_CIRC_BUFFER_SIZE;
 2056              		.loc 1 243 0
 2057 0018 2060     		str	r0, [r4]
 244:/home/tienluong/workspace/atlantis_fw/platform/driver/src/log.c ****     slog_circ_buffer.buffer_used_end = slog_circ_buffer.buffer_end;
 2058              		.loc 1 244 0
 2059 001a 6360     		str	r3, [r4, #4]
 245:/home/tienluong/workspace/atlantis_fw/platform/driver/src/log.c ****     slog_circ_buffer.buffer_wrap_th = slog_circ_buffer.buffer_end - MAX_LOG_STRING_LEN;
 2060              		.loc 1 245 0
 2061 001c 2361     		str	r3, [r4, #16]
 246:/home/tienluong/workspace/atlantis_fw/platform/driver/src/log.c ****     slog_circ_buffer.write_p = slog_circ_buffer.buffer_start;
 2062              		.loc 1 246 0
 2063 001e 00F5FF23 		add	r3, r0, #522240
 2064 0022 03F5C063 		add	r3, r3, #1536
 247:/home/tienluong/workspace/atlantis_fw/platform/driver/src/log.c ****     slog_circ_buffer.read_p = slog_circ_buffer.buffer_start;
 2065              		.loc 1 247 0
 2066 0026 6061     		str	r0, [r4, #20]
 248:/home/tienluong/workspace/atlantis_fw/platform/driver/src/log.c ****     slog_circ_buffer.rwp_mutex = xSemaphoreCreateMutex();
 2067              		.loc 1 248 0
 2068 0028 E060     		str	r0, [r4, #12]
 249:/home/tienluong/workspace/atlantis_fw/platform/driver/src/log.c ****     slog_semaphore = xSemaphoreCreateBinary();
 2069              		.loc 1 249 0
 2070 002a 0120     		movs	r0, #1
 246:/home/tienluong/workspace/atlantis_fw/platform/driver/src/log.c ****     slog_circ_buffer.write_p = slog_circ_buffer.buffer_start;
 2071              		.loc 1 246 0
 2072 002c A360     		str	r3, [r4, #8]
 249:/home/tienluong/workspace/atlantis_fw/platform/driver/src/log.c ****     slog_semaphore = xSemaphoreCreateBinary();
 2073              		.loc 1 249 0
 2074 002e A847     		blx	r5
 2075              	.LVL234:
 250:/home/tienluong/workspace/atlantis_fw/platform/driver/src/log.c ****     log_semaphore = xSemaphoreCreateMutex();
 2076              		.loc 1 250 0
 2077 0030 0021     		movs	r1, #0
 2078 0032 0322     		movs	r2, #3
 249:/home/tienluong/workspace/atlantis_fw/platform/driver/src/log.c ****     slog_semaphore = xSemaphoreCreateBinary();
 2079              		.loc 1 249 0
 2080 0034 A061     		str	r0, [r4, #24]
 250:/home/tienluong/workspace/atlantis_fw/platform/driver/src/log.c ****     log_semaphore = xSemaphoreCreateMutex();
 2081              		.loc 1 250 0
 2082 0036 0120     		movs	r0, #1
 2083 0038 124C     		ldr	r4, .L222+20
 2084 003a A047     		blx	r4
 2085              	.LVL235:
 2086 003c 124B     		ldr	r3, .L222+24
 2087 003e 1860     		str	r0, [r3]
 251:/home/tienluong/workspace/atlantis_fw/platform/driver/src/log.c ****     slog_tx_semaphore = xSemaphoreCreateBinary();
 2088              		.loc 1 251 0
 2089 0040 0120     		movs	r0, #1
 2090 0042 A847     		blx	r5
 2091              	.LVL236:
 2092 0044 114B     		ldr	r3, .L222+28
 252:/home/tienluong/workspace/atlantis_fw/platform/driver/src/log.c ****     data = xQueueCreate(5, sizeof(uint8_t));
 2093              		.loc 1 252 0
 2094 0046 0021     		movs	r1, #0
 2095 0048 0322     		movs	r2, #3
 251:/home/tienluong/workspace/atlantis_fw/platform/driver/src/log.c ****     slog_tx_semaphore = xSemaphoreCreateBinary();
 2096              		.loc 1 251 0
 2097 004a 1860     		str	r0, [r3]
 252:/home/tienluong/workspace/atlantis_fw/platform/driver/src/log.c ****     data = xQueueCreate(5, sizeof(uint8_t));
 2098              		.loc 1 252 0
 2099 004c 0120     		movs	r0, #1
 2100 004e A047     		blx	r4
 2101              	.LVL237:
 2102 0050 0F4B     		ldr	r3, .L222+32
 253:/home/tienluong/workspace/atlantis_fw/platform/driver/src/log.c **** 
 2103              		.loc 1 253 0
 2104 0052 0121     		movs	r1, #1
 2105 0054 0022     		movs	r2, #0
 252:/home/tienluong/workspace/atlantis_fw/platform/driver/src/log.c ****     data = xQueueCreate(5, sizeof(uint8_t));
 2106              		.loc 1 252 0
 2107 0056 1860     		str	r0, [r3]
 253:/home/tienluong/workspace/atlantis_fw/platform/driver/src/log.c **** 
 2108              		.loc 1 253 0
 2109 0058 0520     		movs	r0, #5
 2110 005a A047     		blx	r4
 2111              	.LVL238:
 255:/home/tienluong/workspace/atlantis_fw/platform/driver/src/log.c **** 	hal_com_enable_irq(&com_dbg);
 2112              		.loc 1 255 0
 2113 005c 0D4C     		ldr	r4, .L222+36
 253:/home/tienluong/workspace/atlantis_fw/platform/driver/src/log.c **** 
 2114              		.loc 1 253 0
 2115 005e 0E4B     		ldr	r3, .L222+40
 2116 0060 1860     		str	r0, [r3]
 255:/home/tienluong/workspace/atlantis_fw/platform/driver/src/log.c **** 	hal_com_enable_irq(&com_dbg);
 2117              		.loc 1 255 0
 2118 0062 2046     		mov	r0, r4
 2119 0064 0D4B     		ldr	r3, .L222+44
 2120 0066 9847     		blx	r3
 2121              	.LVL239:
 256:/home/tienluong/workspace/atlantis_fw/platform/driver/src/log.c **** }
 2122              		.loc 1 256 0
 2123 0068 2046     		mov	r0, r4
 2124 006a 0D4B     		ldr	r3, .L222+48
 2125 006c 9847     		blx	r3
 2126              	.LVL240:
 2127 006e 38BD     		pop	{r3, r4, r5, pc}
 2128              	.L223:
 2129              		.align	2
 2130              	.L222:
 2131 0070 00000000 		.word	.LANCHOR10
 2132 0074 00000000 		.word	gen_pvPortMalloc1
 2133 0078 00000000 		.word	ddr_heap_attribute
 2134 007c 00000000 		.word	.LANCHOR11
 2135 0080 00000000 		.word	xQueueCreateMutex
 2136 0084 00000000 		.word	xQueueGenericCreate
 2137 0088 00000000 		.word	.LANCHOR6
 2138 008c 00000000 		.word	.LANCHOR12
 2139 0090 00000000 		.word	.LANCHOR13
 2140 0094 00000000 		.word	.LANCHOR9
 2141 0098 00000000 		.word	.LANCHOR0
 2142 009c 00000000 		.word	hal_com_init
 2143 00a0 00000000 		.word	hal_com_enable_irq
 2144              		.cfi_endproc
 2145              	.LFE3:
 2147              		.global	__aeabi_uldivmod
 2148              		.section	.text.slogf,"ax",%progbits
 2149              		.align	1
 2150              		.global	slogf
 2151              		.thumb
 2152              		.thumb_func
 2154              	slogf:
 2155              	.LFB9:
 443:/home/tienluong/workspace/atlantis_fw/platform/driver/src/log.c ****     if (!slog_w)
 2156              		.loc 1 443 0
 2157              		.cfi_startproc
 2158              		@ args = 4, pretend = 8, frame = 16
 2159              		@ frame_needed = 0, uses_anonymous_args = 1
 2160              	.LVL241:
 2161 0000 0CB4     		push	{r2, r3}
 2162              	.LCFI24:
 2163              		.cfi_def_cfa_offset 8
 2164              		.cfi_offset 2, -8
 2165              		.cfi_offset 3, -4
 444:/home/tienluong/workspace/atlantis_fw/platform/driver/src/log.c ****         return;
 2166              		.loc 1 444 0
 2167 0002 594B     		ldr	r3, .L244
 2168 0004 1B78     		ldrb	r3, [r3]	@ zero_extendqisi2
 443:/home/tienluong/workspace/atlantis_fw/platform/driver/src/log.c ****     if (!slog_w)
 2169              		.loc 1 443 0
 2170 0006 2DE9F04F 		push	{r4, r5, r6, r7, r8, r9, r10, fp, lr}
 2171              	.LCFI25:
 2172              		.cfi_def_cfa_offset 44
 2173              		.cfi_offset 4, -44
 2174              		.cfi_offset 5, -40
 2175              		.cfi_offset 6, -36
 2176              		.cfi_offset 7, -32
 2177              		.cfi_offset 8, -28
 2178              		.cfi_offset 9, -24
 2179              		.cfi_offset 10, -20
 2180              		.cfi_offset 11, -16
 2181              		.cfi_offset 14, -12
 2182 000a 0546     		mov	r5, r0
 2183 000c 8BB0     		sub	sp, sp, #44
 2184              	.LCFI26:
 2185              		.cfi_def_cfa_offset 88
 444:/home/tienluong/workspace/atlantis_fw/platform/driver/src/log.c ****         return;
 2186              		.loc 1 444 0
 2187 000e 002B     		cmp	r3, #0
 2188 0010 00F0A480 		beq	.L224
 446:/home/tienluong/workspace/atlantis_fw/platform/driver/src/log.c ****     if (header_f == 0)
 2189              		.loc 1 446 0
 2190 0014 554B     		ldr	r3, .L244+4
 2191 0016 1B68     		ldr	r3, [r3]
 2192 0018 9B68     		ldr	r3, [r3, #8]
 2193 001a 9B7E     		ldrb	r3, [r3, #26]	@ zero_extendqisi2
 2194              	.LVL242:
 447:/home/tienluong/workspace/atlantis_fw/platform/driver/src/log.c ****         return;
 2195              		.loc 1 447 0
 2196 001c 11EA030B 		ands	fp, r1, r3
 2197 0020 00F09C80 		beq	.L224
 450:/home/tienluong/workspace/atlantis_fw/platform/driver/src/log.c ****     // Protect read of read_p
 2198              		.loc 1 450 0
 2199 0024 DFF87891 		ldr	r9, .L244+56
 2200 0028 0021     		movs	r1, #0
 2201              	.LVL243:
 452:/home/tienluong/workspace/atlantis_fw/platform/driver/src/log.c ****     const char *buf_read_p = slog_circ_buffer.read_p;
 2202              		.loc 1 452 0
 2203 002a 514C     		ldr	r4, .L244+8
 450:/home/tienluong/workspace/atlantis_fw/platform/driver/src/log.c ****     // Protect read of read_p
 2204              		.loc 1 450 0
 2205 002c 0B46     		mov	r3, r1
 2206 002e 514F     		ldr	r7, .L244+12
 2207 0030 4FF0FF32 		mov	r2, #-1
 2208 0034 D9F80000 		ldr	r0, [r9]
 2209              	.LVL244:
 2210 0038 B846     		mov	r8, r7
 2211 003a B847     		blx	r7
 2212              	.LVL245:
 452:/home/tienluong/workspace/atlantis_fw/platform/driver/src/log.c ****     const char *buf_read_p = slog_circ_buffer.read_p;
 2213              		.loc 1 452 0
 2214 003c 0021     		movs	r1, #0
 2215 003e 0B46     		mov	r3, r1
 2216 0040 4FF0FF32 		mov	r2, #-1
 2217 0044 A069     		ldr	r0, [r4, #24]
 2218 0046 B847     		blx	r7
 2219              	.LVL246:
 454:/home/tienluong/workspace/atlantis_fw/platform/driver/src/log.c **** 
 2220              		.loc 1 454 0
 2221 0048 0021     		movs	r1, #0
 2222 004a 0B46     		mov	r3, r1
 2223 004c 0A46     		mov	r2, r1
 2224 004e DFF854A1 		ldr	r10, .L244+60
 2225 0052 A069     		ldr	r0, [r4, #24]
 2226 0054 5746     		mov	r7, r10
 453:/home/tienluong/workspace/atlantis_fw/platform/driver/src/log.c ****     xSemaphoreGive(slog_circ_buffer.rwp_mutex);
 2227              		.loc 1 453 0
 2228 0056 E668     		ldr	r6, [r4, #12]
 2229              	.LVL247:
 454:/home/tienluong/workspace/atlantis_fw/platform/driver/src/log.c **** 
 2230              		.loc 1 454 0
 2231 0058 D047     		blx	r10
 2232              	.LVL248:
 457:/home/tienluong/workspace/atlantis_fw/platform/driver/src/log.c ****         max_len_out = slog_circ_buffer.buffer_wrap_th - slog_circ_buffer.write_p;
 2233              		.loc 1 457 0
 2234 005a 2368     		ldr	r3, [r4]
 2235 005c 9E42     		cmp	r6, r3
 2236 005e 02D0     		beq	.L226
 457:/home/tienluong/workspace/atlantis_fw/platform/driver/src/log.c ****         max_len_out = slog_circ_buffer.buffer_wrap_th - slog_circ_buffer.write_p;
 2237              		.loc 1 457 0 is_stmt 0 discriminator 1
 2238 0060 A368     		ldr	r3, [r4, #8]
 2239 0062 9E42     		cmp	r6, r3
 2240 0064 02D3     		bcc	.L227
 2241              	.L226:
 458:/home/tienluong/workspace/atlantis_fw/platform/driver/src/log.c ****     else if (slog_circ_buffer.write_p >= buf_read_p)
 2242              		.loc 1 458 0 is_stmt 1
 2243 0066 A668     		ldr	r6, [r4, #8]
 2244              	.LVL249:
 2245 0068 6369     		ldr	r3, [r4, #20]
 2246 006a 03E0     		b	.L229
 2247              	.LVL250:
 2248              	.L227:
 459:/home/tienluong/workspace/atlantis_fw/platform/driver/src/log.c ****         max_len_out = slog_circ_buffer.buffer_end - slog_circ_buffer.write_p;
 2249              		.loc 1 459 0
 2250 006c 6369     		ldr	r3, [r4, #20]
 2251 006e B342     		cmp	r3, r6
 460:/home/tienluong/workspace/atlantis_fw/platform/driver/src/log.c ****     else
 2252              		.loc 1 460 0
 2253 0070 28BF     		it	cs
 2254 0072 6668     		ldrcs	r6, [r4, #4]
 2255              	.LVL251:
 2256              	.L229:
 462:/home/tienluong/workspace/atlantis_fw/platform/driver/src/log.c ****     int len = slog_write_header(slog_circ_buffer.write_p, max_len_out, id, header_f);
 2257              		.loc 1 462 0
 2258 0074 F61A     		subs	r6, r6, r3
 2259              	.LVL252:
 2260              	.LBB36:
 2261              	.LBB37:
 359:/home/tienluong/workspace/atlantis_fw/platform/driver/src/log.c ****     struct tm *t_info = localtime(&rtc_time.raw);
 2262              		.loc 1 359 0
 2263 0076 06A8     		add	r0, sp, #24
 2264 0078 3F4B     		ldr	r3, .L244+16
 2265              	.LBE37:
 2266              	.LBE36:
 463:/home/tienluong/workspace/atlantis_fw/platform/driver/src/log.c ****     if (len < max_len_out)
 2267              		.loc 1 463 0
 2268 007a D4F814A0 		ldr	r10, [r4, #20]
 2269              	.LVL253:
 2270              	.LBB40:
 2271              	.LBB38:
 359:/home/tienluong/workspace/atlantis_fw/platform/driver/src/log.c ****     struct tm *t_info = localtime(&rtc_time.raw);
 2272              		.loc 1 359 0
 2273 007e 9847     		blx	r3
 2274              	.LVL254:
 360:/home/tienluong/workspace/atlantis_fw/platform/driver/src/log.c ****     uint8_t hdr_idx;
 2275              		.loc 1 360 0
 2276 0080 3E4B     		ldr	r3, .L244+20
 2277 0082 06A8     		add	r0, sp, #24
 2278 0084 9847     		blx	r3
 2279              	.LVL255:
 2280 0086 0BF1FF31 		add	r1, fp, #-1
 385:/home/tienluong/workspace/atlantis_fw/platform/driver/src/log.c ****             msg_header[hdr_idx]);
 2281              		.loc 1 385 0
 2282 008a DFF81CC1 		ldr	ip, .L244+64
 2283 008e 4FF47A72 		mov	r2, #1000
 2284 0092 C9B2     		uxtb	r1, r1
 2285 0094 0729     		cmp	r1, #7
 360:/home/tienluong/workspace/atlantis_fw/platform/driver/src/log.c ****     uint8_t hdr_idx;
 2286              		.loc 1 360 0
 2287 0096 8EBF     		itee	hi
 2288 0098 4FF0040B 		movhi	fp, #4
 2289              	.LVL256:
 2290 009c 384B     		ldrls	r3, .L244+24
 2291 009e 13F801B0 		ldrbls	fp, [r3, r1]	@ zero_extendqisi2
 2292              	.LVL257:
 383:/home/tienluong/workspace/atlantis_fw/platform/driver/src/log.c ****             user_id,
 2293              		.loc 1 383 0
 2294 00a2 8368     		ldr	r3, [r0, #8]
 2295 00a4 0093     		str	r3, [sp]
 2296 00a6 4368     		ldr	r3, [r0, #4]
 2297 00a8 0193     		str	r3, [sp, #4]
 2298 00aa 0368     		ldr	r3, [r0]
 2299 00ac 0293     		str	r3, [sp, #8]
 385:/home/tienluong/workspace/atlantis_fw/platform/driver/src/log.c ****             msg_header[hdr_idx]);
 2300              		.loc 1 385 0
 2301 00ae 0023     		movs	r3, #0
 2302 00b0 DDE90801 		ldrd	r0, [sp, #32]
 2303              	.LVL258:
 2304 00b4 E047     		blx	ip
 2305              	.LVL259:
 383:/home/tienluong/workspace/atlantis_fw/platform/driver/src/log.c ****             user_id,
 2306              		.loc 1 383 0
 2307 00b6 334B     		ldr	r3, .L244+28
 2308 00b8 5046     		mov	r0, r10
 2309 00ba 3146     		mov	r1, r6
 2310 00bc DFF8D4A0 		ldr	r10, .L244+44
 2311              	.LVL260:
 2312 00c0 53F82B30 		ldr	r3, [r3, fp, lsl #2]
 2313 00c4 0493     		str	r3, [sp, #16]
 2314 00c6 2B46     		mov	r3, r5
 2315 00c8 0392     		str	r2, [sp, #12]
 2316 00ca 2F4A     		ldr	r2, .L244+32
 2317 00cc D047     		blx	r10
 2318              	.LVL261:
 2319              	.LBE38:
 2320              	.LBE40:
 464:/home/tienluong/workspace/atlantis_fw/platform/driver/src/log.c ****     {
 2321              		.loc 1 464 0
 2322 00ce B042     		cmp	r0, r6
 2323              	.LBB41:
 2324              	.LBB39:
 383:/home/tienluong/workspace/atlantis_fw/platform/driver/src/log.c ****             user_id,
 2325              		.loc 1 383 0
 2326 00d0 0546     		mov	r5, r0
 2327              	.LVL262:
 2328              	.LBE39:
 2329              	.LBE41:
 464:/home/tienluong/workspace/atlantis_fw/platform/driver/src/log.c ****     {
 2330              		.loc 1 464 0
 2331 00d2 1CD2     		bcs	.L231
 2332              	.LBB42:
 467:/home/tienluong/workspace/atlantis_fw/platform/driver/src/log.c ****         int slen = vsnprintf(slog_circ_buffer.write_p + len, max_len_out - len, format, argptr);
 2333              		.loc 1 467 0
 2334 00d4 15AB     		add	r3, sp, #84
 468:/home/tienluong/workspace/atlantis_fw/platform/driver/src/log.c ****         va_end(argptr);
 2335              		.loc 1 468 0
 2336 00d6 C0EB060B 		rsb	fp, r0, r6
 2337              	.LVL263:
 2338 00da 6069     		ldr	r0, [r4, #20]
 2339              	.LVL264:
 2340 00dc 5946     		mov	r1, fp
 467:/home/tienluong/workspace/atlantis_fw/platform/driver/src/log.c ****         int slen = vsnprintf(slog_circ_buffer.write_p + len, max_len_out - len, format, argptr);
 2341              		.loc 1 467 0
 2342 00de 0693     		str	r3, [sp, #24]
 468:/home/tienluong/workspace/atlantis_fw/platform/driver/src/log.c ****         va_end(argptr);
 2343              		.loc 1 468 0
 2344 00e0 2844     		add	r0, r0, r5
 2345 00e2 149A     		ldr	r2, [sp, #80]
 2346 00e4 DFF8C4C0 		ldr	ip, .L244+68
 2347 00e8 E047     		blx	ip
 2348              	.LVL265:
 470:/home/tienluong/workspace/atlantis_fw/platform/driver/src/log.c ****             slen = snprintf(slog_circ_buffer.write_p + len, max_len_out - len, "!!!ERROR formatting
 2349              		.loc 1 470 0
 2350 00ea 0028     		cmp	r0, #0
 2351 00ec 05DA     		bge	.L232
 471:/home/tienluong/workspace/atlantis_fw/platform/driver/src/log.c ****         len += slen;
 2352              		.loc 1 471 0
 2353 00ee 204B     		ldr	r3, .L244+8
 2354 00f0 5946     		mov	r1, fp
 2355 00f2 264A     		ldr	r2, .L244+36
 2356 00f4 5869     		ldr	r0, [r3, #20]
 2357              	.LVL266:
 2358 00f6 2844     		add	r0, r0, r5
 2359 00f8 D047     		blx	r10
 2360              	.LVL267:
 2361              	.L232:
 472:/home/tienluong/workspace/atlantis_fw/platform/driver/src/log.c ****         if (len < max_len_out)
 2362              		.loc 1 472 0
 2363 00fa 0544     		add	r5, r5, r0
 2364              	.LVL268:
 473:/home/tienluong/workspace/atlantis_fw/platform/driver/src/log.c ****             len += snprintf(slog_circ_buffer.write_p + len, max_len_out - len, "\033[39m\r\n");
 2365              		.loc 1 473 0
 2366 00fc B542     		cmp	r5, r6
 2367 00fe 06D2     		bcs	.L231
 474:/home/tienluong/workspace/atlantis_fw/platform/driver/src/log.c ****     }
 2368              		.loc 1 474 0
 2369 0100 6069     		ldr	r0, [r4, #20]
 2370              	.LVL269:
 2371 0102 711B     		subs	r1, r6, r5
 2372 0104 224A     		ldr	r2, .L244+40
 2373 0106 2844     		add	r0, r0, r5
 2374 0108 224B     		ldr	r3, .L244+44
 2375 010a 9847     		blx	r3
 2376              	.LVL270:
 2377 010c 0544     		add	r5, r5, r0
 2378              	.LVL271:
 2379              	.L231:
 2380              	.LBE42:
 476:/home/tienluong/workspace/atlantis_fw/platform/driver/src/log.c ****     {
 2381              		.loc 1 476 0
 2382 010e B542     		cmp	r5, r6
 2383 0110 04D3     		bcc	.L234
 478:/home/tienluong/workspace/atlantis_fw/platform/driver/src/log.c ****     }
 2384              		.loc 1 478 0
 2385 0112 214A     		ldr	r2, .L244+48
 2386 0114 1368     		ldr	r3, [r2]
 2387 0116 0133     		adds	r3, r3, #1
 2388 0118 1360     		str	r3, [r2]
 2389 011a 19E0     		b	.L235
 2390              	.L234:
 2391              	.LBB43:
 483:/home/tienluong/workspace/atlantis_fw/platform/driver/src/log.c ****         if (new_write_p >= slog_circ_buffer.buffer_wrap_th)
 2392              		.loc 1 483 0
 2393 011c 6269     		ldr	r2, [r4, #20]
 490:/home/tienluong/workspace/atlantis_fw/platform/driver/src/log.c ****         slog_circ_buffer.write_p = new_write_p;
 2394              		.loc 1 490 0
 2395 011e 0021     		movs	r1, #0
 483:/home/tienluong/workspace/atlantis_fw/platform/driver/src/log.c ****         if (new_write_p >= slog_circ_buffer.buffer_wrap_th)
 2396              		.loc 1 483 0
 2397 0120 134B     		ldr	r3, .L244+8
 2398 0122 1544     		add	r5, r5, r2
 2399              	.LVL272:
 484:/home/tienluong/workspace/atlantis_fw/platform/driver/src/log.c ****         {
 2400              		.loc 1 484 0
 2401 0124 A268     		ldr	r2, [r4, #8]
 490:/home/tienluong/workspace/atlantis_fw/platform/driver/src/log.c ****         slog_circ_buffer.write_p = new_write_p;
 2402              		.loc 1 490 0
 2403 0126 A069     		ldr	r0, [r4, #24]
 484:/home/tienluong/workspace/atlantis_fw/platform/driver/src/log.c ****         {
 2404              		.loc 1 484 0
 2405 0128 9542     		cmp	r5, r2
 490:/home/tienluong/workspace/atlantis_fw/platform/driver/src/log.c ****         slog_circ_buffer.write_p = new_write_p;
 2406              		.loc 1 490 0
 2407 012a 4FF0FF32 		mov	r2, #-1
 486:/home/tienluong/workspace/atlantis_fw/platform/driver/src/log.c ****             new_write_p = slog_circ_buffer.buffer_start;
 2408              		.loc 1 486 0
 2409 012e 24BF     		itt	cs
 2410 0130 1D61     		strcs	r5, [r3, #16]
 487:/home/tienluong/workspace/atlantis_fw/platform/driver/src/log.c ****         }
 2411              		.loc 1 487 0
 2412 0132 1D68     		ldrcs	r5, [r3]
 2413              	.LVL273:
 490:/home/tienluong/workspace/atlantis_fw/platform/driver/src/log.c ****         slog_circ_buffer.write_p = new_write_p;
 2414              		.loc 1 490 0
 2415 0134 0B46     		mov	r3, r1
 2416 0136 C047     		blx	r8
 2417              	.LVL274:
 492:/home/tienluong/workspace/atlantis_fw/platform/driver/src/log.c **** 
 2418              		.loc 1 492 0
 2419 0138 0021     		movs	r1, #0
 2420 013a 0A46     		mov	r2, r1
 2421 013c 0B46     		mov	r3, r1
 2422 013e A069     		ldr	r0, [r4, #24]
 491:/home/tienluong/workspace/atlantis_fw/platform/driver/src/log.c ****         xSemaphoreGive(slog_circ_buffer.rwp_mutex);
 2423              		.loc 1 491 0
 2424 0140 6561     		str	r5, [r4, #20]
 492:/home/tienluong/workspace/atlantis_fw/platform/driver/src/log.c **** 
 2425              		.loc 1 492 0
 2426 0142 B847     		blx	r7
 2427              	.LVL275:
 494:/home/tienluong/workspace/atlantis_fw/platform/driver/src/log.c ****     }
 2428              		.loc 1 494 0
 2429 0144 154B     		ldr	r3, .L244+52
 2430 0146 0021     		movs	r1, #0
 2431 0148 0A46     		mov	r2, r1
 2432 014a 1868     		ldr	r0, [r3]
 2433 014c 0B46     		mov	r3, r1
 2434 014e B847     		blx	r7
 2435              	.LVL276:
 2436              	.L235:
 2437              	.LBE43:
 496:/home/tienluong/workspace/atlantis_fw/platform/driver/src/log.c **** }
 2438              		.loc 1 496 0
 2439 0150 0021     		movs	r1, #0
 2440 0152 D9F80000 		ldr	r0, [r9]
 2441 0156 0A46     		mov	r2, r1
 2442 0158 0B46     		mov	r3, r1
 2443 015a B847     		blx	r7
 2444              	.LVL277:
 2445              	.L224:
 497:/home/tienluong/workspace/atlantis_fw/platform/driver/src/log.c **** 
 2446              		.loc 1 497 0
 2447 015c 0BB0     		add	sp, sp, #44
 2448              	.LCFI27:
 2449              		.cfi_def_cfa_offset 44
 2450              		@ sp needed
 2451 015e BDE8F04F 		pop	{r4, r5, r6, r7, r8, r9, r10, fp, lr}
 2452              	.LCFI28:
 2453              		.cfi_restore 14
 2454              		.cfi_restore 11
 2455              		.cfi_restore 10
 2456              		.cfi_restore 9
 2457              		.cfi_restore 8
 2458              		.cfi_restore 7
 2459              		.cfi_restore 6
 2460              		.cfi_restore 5
 2461              		.cfi_restore 4
 2462              		.cfi_def_cfa_offset 8
 2463 0162 02B0     		add	sp, sp, #8
 2464              	.LCFI29:
 2465              		.cfi_restore 3
 2466              		.cfi_restore 2
 2467              		.cfi_def_cfa_offset 0
 2468 0164 7047     		bx	lr
 2469              	.L245:
 2470 0166 00BF     		.align	2
 2471              	.L244:
 2472 0168 00000000 		.word	.LANCHOR3
 2473 016c 00000000 		.word	light_system
 2474 0170 00000000 		.word	.LANCHOR11
 2475 0174 00000000 		.word	xQueueGenericReceive
 2476 0178 00000000 		.word	rtc_get_time
 2477 017c 00000000 		.word	localtime
 2478 0180 00000000 		.word	.LANCHOR14
 2479 0184 00000000 		.word	.LANCHOR15
 2480 0188 DA010000 		.word	.LC33
 2481 018c F7010000 		.word	.LC34
 2482 0190 12020000 		.word	.LC35
 2483 0194 00000000 		.word	snprintf
 2484 0198 00000000 		.word	.LANCHOR16
 2485 019c 00000000 		.word	.LANCHOR13
 2486 01a0 00000000 		.word	.LANCHOR12
 2487 01a4 00000000 		.word	xQueueGenericSend
 2488 01a8 00000000 		.word	__aeabi_uldivmod
 2489 01ac 00000000 		.word	vsnprintf
 2490              		.cfi_endproc
 2491              	.LFE9:
 2493              		.section	.text.log_error,"ax",%progbits
 2494              		.align	1
 2495              		.global	log_error
 2496              		.thumb
 2497              		.thumb_func
 2499              	log_error:
 2500              	.LFB10:
 504:/home/tienluong/workspace/atlantis_fw/platform/driver/src/log.c **** 	ERROR_HEADER();
 2501              		.loc 1 504 0
 2502              		.cfi_startproc
 2503              		@ args = 4, pretend = 16, frame = 8
 2504              		@ frame_needed = 0, uses_anonymous_args = 1
 2505              	.LVL278:
 2506 0000 0FB4     		push	{r0, r1, r2, r3}
 2507              	.LCFI30:
 2508              		.cfi_def_cfa_offset 16
 2509              		.cfi_offset 0, -16
 2510              		.cfi_offset 1, -12
 2511              		.cfi_offset 2, -8
 2512              		.cfi_offset 3, -4
 2513 0002 F7B5     		push	{r0, r1, r2, r4, r5, r6, r7, lr}
 2514              	.LCFI31:
 2515              		.cfi_def_cfa_offset 48
 2516              		.cfi_offset 4, -36
 2517              		.cfi_offset 5, -32
 2518              		.cfi_offset 6, -28
 2519              		.cfi_offset 7, -24
 2520              		.cfi_offset 14, -20
 505:/home/tienluong/workspace/atlantis_fw/platform/driver/src/log.c **** 	va_list argptr;
 2521              		.loc 1 505 0
 2522 0004 0C4D     		ldr	r5, .L247
 504:/home/tienluong/workspace/atlantis_fw/platform/driver/src/log.c **** 	ERROR_HEADER();
 2523              		.loc 1 504 0
 2524 0006 08AC     		add	r4, sp, #32
 505:/home/tienluong/workspace/atlantis_fw/platform/driver/src/log.c **** 	va_list argptr;
 2525              		.loc 1 505 0
 2526 0008 0C4E     		ldr	r6, .L247+4
 2527 000a 0D48     		ldr	r0, .L247+8
 2528 000c 2B68     		ldr	r3, [r5]
 504:/home/tienluong/workspace/atlantis_fw/platform/driver/src/log.c **** 	ERROR_HEADER();
 2529              		.loc 1 504 0
 2530 000e 54F8047B 		ldr	r7, [r4], #4
 505:/home/tienluong/workspace/atlantis_fw/platform/driver/src/log.c **** 	va_list argptr;
 2531              		.loc 1 505 0
 2532 0012 D968     		ldr	r1, [r3, #12]
 2533 0014 B047     		blx	r6
 2534              	.LVL279:
 508:/home/tienluong/workspace/atlantis_fw/platform/driver/src/log.c **** 	va_end(argptr);
 2535              		.loc 1 508 0
 2536 0016 2B68     		ldr	r3, [r5]
 2537 0018 3946     		mov	r1, r7
 2538 001a 2246     		mov	r2, r4
 507:/home/tienluong/workspace/atlantis_fw/platform/driver/src/log.c **** 	vfprintf(stderr, format, argptr);
 2539              		.loc 1 507 0
 2540 001c 0194     		str	r4, [sp, #4]
 508:/home/tienluong/workspace/atlantis_fw/platform/driver/src/log.c **** 	va_end(argptr);
 2541              		.loc 1 508 0
 2542 001e D868     		ldr	r0, [r3, #12]
 2543 0020 084B     		ldr	r3, .L247+12
 2544 0022 9847     		blx	r3
 2545              	.LVL280:
 510:/home/tienluong/workspace/atlantis_fw/platform/driver/src/log.c **** }
 2546              		.loc 1 510 0
 2547 0024 2B68     		ldr	r3, [r5]
 2548 0026 0848     		ldr	r0, .L247+16
 2549 0028 D968     		ldr	r1, [r3, #12]
 2550 002a B047     		blx	r6
 2551              	.LVL281:
 511:/home/tienluong/workspace/atlantis_fw/platform/driver/src/log.c **** #endif
 2552              		.loc 1 511 0
 2553 002c 03B0     		add	sp, sp, #12
 2554              	.LCFI32:
 2555              		.cfi_def_cfa_offset 36
 2556              		@ sp needed
 2557 002e BDE8F040 		pop	{r4, r5, r6, r7, lr}
 2558              	.LCFI33:
 2559              		.cfi_restore 14
 2560              		.cfi_restore 7
 2561              		.cfi_restore 6
 2562              		.cfi_restore 5
 2563              		.cfi_restore 4
 2564              		.cfi_def_cfa_offset 16
 2565 0032 04B0     		add	sp, sp, #16
 2566              	.LCFI34:
 2567              		.cfi_restore 3
 2568              		.cfi_restore 2
 2569              		.cfi_restore 1
 2570              		.cfi_restore 0
 2571              		.cfi_def_cfa_offset 0
 2572 0034 7047     		bx	lr
 2573              	.L248:
 2574 0036 00BF     		.align	2
 2575              	.L247:
 2576 0038 00000000 		.word	_impure_ptr
 2577 003c 00000000 		.word	fputs
 2578 0040 1A020000 		.word	.LC36
 2579 0044 00000000 		.word	vfprintf
 2580 0048 2B020000 		.word	.LC37
 2581              		.cfi_endproc
 2582              	.LFE10:
 2584              		.section	.text.log_warn,"ax",%progbits
 2585              		.align	1
 2586              		.global	log_warn
 2587              		.thumb
 2588              		.thumb_func
 2590              	log_warn:
 2591              	.LFB11:
 519:/home/tienluong/workspace/atlantis_fw/platform/driver/src/log.c **** 	WARN_HEADER();
 2592              		.loc 1 519 0
 2593              		.cfi_startproc
 2594              		@ args = 4, pretend = 16, frame = 8
 2595              		@ frame_needed = 0, uses_anonymous_args = 1
 2596              	.LVL282:
 2597 0000 0FB4     		push	{r0, r1, r2, r3}
 2598              	.LCFI35:
 2599              		.cfi_def_cfa_offset 16
 2600              		.cfi_offset 0, -16
 2601              		.cfi_offset 1, -12
 2602              		.cfi_offset 2, -8
 2603              		.cfi_offset 3, -4
 2604 0002 F7B5     		push	{r0, r1, r2, r4, r5, r6, r7, lr}
 2605              	.LCFI36:
 2606              		.cfi_def_cfa_offset 48
 2607              		.cfi_offset 4, -36
 2608              		.cfi_offset 5, -32
 2609              		.cfi_offset 6, -28
 2610              		.cfi_offset 7, -24
 2611              		.cfi_offset 14, -20
 520:/home/tienluong/workspace/atlantis_fw/platform/driver/src/log.c **** 	va_list argptr;
 2612              		.loc 1 520 0
 2613 0004 0C4D     		ldr	r5, .L250
 519:/home/tienluong/workspace/atlantis_fw/platform/driver/src/log.c **** 	WARN_HEADER();
 2614              		.loc 1 519 0
 2615 0006 08AC     		add	r4, sp, #32
 520:/home/tienluong/workspace/atlantis_fw/platform/driver/src/log.c **** 	va_list argptr;
 2616              		.loc 1 520 0
 2617 0008 0C4E     		ldr	r6, .L250+4
 2618 000a 0D48     		ldr	r0, .L250+8
 2619 000c 2B68     		ldr	r3, [r5]
 519:/home/tienluong/workspace/atlantis_fw/platform/driver/src/log.c **** 	WARN_HEADER();
 2620              		.loc 1 519 0
 2621 000e 54F8047B 		ldr	r7, [r4], #4
 520:/home/tienluong/workspace/atlantis_fw/platform/driver/src/log.c **** 	va_list argptr;
 2622              		.loc 1 520 0
 2623 0012 D968     		ldr	r1, [r3, #12]
 2624 0014 B047     		blx	r6
 2625              	.LVL283:
 523:/home/tienluong/workspace/atlantis_fw/platform/driver/src/log.c **** 	va_end(argptr);
 2626              		.loc 1 523 0
 2627 0016 2B68     		ldr	r3, [r5]
 2628 0018 3946     		mov	r1, r7
 2629 001a 2246     		mov	r2, r4
 522:/home/tienluong/workspace/atlantis_fw/platform/driver/src/log.c **** 	vfprintf(stderr, format, argptr);
 2630              		.loc 1 522 0
 2631 001c 0194     		str	r4, [sp, #4]
 523:/home/tienluong/workspace/atlantis_fw/platform/driver/src/log.c **** 	va_end(argptr);
 2632              		.loc 1 523 0
 2633 001e D868     		ldr	r0, [r3, #12]
 2634 0020 084B     		ldr	r3, .L250+12
 2635 0022 9847     		blx	r3
 2636              	.LVL284:
 525:/home/tienluong/workspace/atlantis_fw/platform/driver/src/log.c **** }
 2637              		.loc 1 525 0
 2638 0024 2B68     		ldr	r3, [r5]
 2639 0026 0848     		ldr	r0, .L250+16
 2640 0028 D968     		ldr	r1, [r3, #12]
 2641 002a B047     		blx	r6
 2642              	.LVL285:
 526:/home/tienluong/workspace/atlantis_fw/platform/driver/src/log.c **** #endif
 2643              		.loc 1 526 0
 2644 002c 03B0     		add	sp, sp, #12
 2645              	.LCFI37:
 2646              		.cfi_def_cfa_offset 36
 2647              		@ sp needed
 2648 002e BDE8F040 		pop	{r4, r5, r6, r7, lr}
 2649              	.LCFI38:
 2650              		.cfi_restore 14
 2651              		.cfi_restore 7
 2652              		.cfi_restore 6
 2653              		.cfi_restore 5
 2654              		.cfi_restore 4
 2655              		.cfi_def_cfa_offset 16
 2656 0032 04B0     		add	sp, sp, #16
 2657              	.LCFI39:
 2658              		.cfi_restore 3
 2659              		.cfi_restore 2
 2660              		.cfi_restore 1
 2661              		.cfi_restore 0
 2662              		.cfi_def_cfa_offset 0
 2663 0034 7047     		bx	lr
 2664              	.L251:
 2665 0036 00BF     		.align	2
 2666              	.L250:
 2667 0038 00000000 		.word	_impure_ptr
 2668 003c 00000000 		.word	fputs
 2669 0040 31020000 		.word	.LC38
 2670 0044 00000000 		.word	vfprintf
 2671 0048 2B020000 		.word	.LC37
 2672              		.cfi_endproc
 2673              	.LFE11:
 2675              		.section	.text.log_info,"ax",%progbits
 2676              		.align	1
 2677              		.global	log_info
 2678              		.thumb
 2679              		.thumb_func
 2681              	log_info:
 2682              	.LFB12:
 534:/home/tienluong/workspace/atlantis_fw/platform/driver/src/log.c **** 	INFO_HEADER();
 2683              		.loc 1 534 0
 2684              		.cfi_startproc
 2685              		@ args = 4, pretend = 16, frame = 8
 2686              		@ frame_needed = 0, uses_anonymous_args = 1
 2687              	.LVL286:
 2688 0000 0FB4     		push	{r0, r1, r2, r3}
 2689              	.LCFI40:
 2690              		.cfi_def_cfa_offset 16
 2691              		.cfi_offset 0, -16
 2692              		.cfi_offset 1, -12
 2693              		.cfi_offset 2, -8
 2694              		.cfi_offset 3, -4
 2695 0002 F7B5     		push	{r0, r1, r2, r4, r5, r6, r7, lr}
 2696              	.LCFI41:
 2697              		.cfi_def_cfa_offset 48
 2698              		.cfi_offset 4, -36
 2699              		.cfi_offset 5, -32
 2700              		.cfi_offset 6, -28
 2701              		.cfi_offset 7, -24
 2702              		.cfi_offset 14, -20
 535:/home/tienluong/workspace/atlantis_fw/platform/driver/src/log.c **** 	va_list argptr;
 2703              		.loc 1 535 0
 2704 0004 0C4D     		ldr	r5, .L253
 534:/home/tienluong/workspace/atlantis_fw/platform/driver/src/log.c **** 	INFO_HEADER();
 2705              		.loc 1 534 0
 2706 0006 08AC     		add	r4, sp, #32
 535:/home/tienluong/workspace/atlantis_fw/platform/driver/src/log.c **** 	va_list argptr;
 2707              		.loc 1 535 0
 2708 0008 0C4E     		ldr	r6, .L253+4
 2709 000a 0D48     		ldr	r0, .L253+8
 2710 000c 2B68     		ldr	r3, [r5]
 534:/home/tienluong/workspace/atlantis_fw/platform/driver/src/log.c **** 	INFO_HEADER();
 2711              		.loc 1 534 0
 2712 000e 54F8047B 		ldr	r7, [r4], #4
 535:/home/tienluong/workspace/atlantis_fw/platform/driver/src/log.c **** 	va_list argptr;
 2713              		.loc 1 535 0
 2714 0012 D968     		ldr	r1, [r3, #12]
 2715 0014 B047     		blx	r6
 2716              	.LVL287:
 538:/home/tienluong/workspace/atlantis_fw/platform/driver/src/log.c **** 	va_end(argptr);
 2717              		.loc 1 538 0
 2718 0016 2B68     		ldr	r3, [r5]
 2719 0018 3946     		mov	r1, r7
 2720 001a 2246     		mov	r2, r4
 537:/home/tienluong/workspace/atlantis_fw/platform/driver/src/log.c **** 	vfprintf(stderr, format, argptr);
 2721              		.loc 1 537 0
 2722 001c 0194     		str	r4, [sp, #4]
 538:/home/tienluong/workspace/atlantis_fw/platform/driver/src/log.c **** 	va_end(argptr);
 2723              		.loc 1 538 0
 2724 001e D868     		ldr	r0, [r3, #12]
 2725 0020 084B     		ldr	r3, .L253+12
 2726 0022 9847     		blx	r3
 2727              	.LVL288:
 540:/home/tienluong/workspace/atlantis_fw/platform/driver/src/log.c **** }
 2728              		.loc 1 540 0
 2729 0024 2B68     		ldr	r3, [r5]
 2730 0026 0848     		ldr	r0, .L253+16
 2731 0028 D968     		ldr	r1, [r3, #12]
 2732 002a B047     		blx	r6
 2733              	.LVL289:
 541:/home/tienluong/workspace/atlantis_fw/platform/driver/src/log.c **** #endif
 2734              		.loc 1 541 0
 2735 002c 03B0     		add	sp, sp, #12
 2736              	.LCFI42:
 2737              		.cfi_def_cfa_offset 36
 2738              		@ sp needed
 2739 002e BDE8F040 		pop	{r4, r5, r6, r7, lr}
 2740              	.LCFI43:
 2741              		.cfi_restore 14
 2742              		.cfi_restore 7
 2743              		.cfi_restore 6
 2744              		.cfi_restore 5
 2745              		.cfi_restore 4
 2746              		.cfi_def_cfa_offset 16
 2747 0032 04B0     		add	sp, sp, #16
 2748              	.LCFI44:
 2749              		.cfi_restore 3
 2750              		.cfi_restore 2
 2751              		.cfi_restore 1
 2752              		.cfi_restore 0
 2753              		.cfi_def_cfa_offset 0
 2754 0034 7047     		bx	lr
 2755              	.L254:
 2756 0036 00BF     		.align	2
 2757              	.L253:
 2758 0038 00000000 		.word	_impure_ptr
 2759 003c 00000000 		.word	fputs
 2760 0040 42020000 		.word	.LC39
 2761 0044 00000000 		.word	vfprintf
 2762 0048 2B020000 		.word	.LC37
 2763              		.cfi_endproc
 2764              	.LFE12:
 2766              		.section	.text.log_debug,"ax",%progbits
