   1              		.syntax unified
   2              		.cpu cortex-r4
   3              		.fpu softvfp
   4              		.eabi_attribute 20, 1
   5              		.eabi_attribute 21, 1
   6              		.eabi_attribute 23, 3
   7              		.eabi_attribute 24, 1
   8              		.eabi_attribute 25, 1
   9              		.eabi_attribute 26, 1
  10              		.eabi_attribute 30, 4
  11              		.eabi_attribute 34, 1
  12              		.eabi_attribute 18, 4
  13              		.thumb
  14              		.file	"range2f.pb-c.c"
  15              		.text
  16              	.Ltext0:
  17              		.cfi_sections	.debug_frame
  18              		.section	.text.ltpb__range2_f__init,"ax",%progbits
  19              		.align	1
  20              		.global	ltpb__range2_f__init
  21              		.thumb
  22              		.thumb_func
  24              	ltpb__range2_f__init:
  25              	.LFB1:
  26              		.file 1 "/home/tienluong/workspace/atlantis_fw/platform/common/lightheader/src/range2f.pb-c.c"
   1:/home/tienluong/workspace/atlantis_fw/platform/common/lightheader/src/range2f.pb-c.c **** /* Generated by the protocol buffer compiler.  DO NOT EDIT! */
   2:/home/tienluong/workspace/atlantis_fw/platform/common/lightheader/src/range2f.pb-c.c **** /* Generated from: range2f.proto */
   3:/home/tienluong/workspace/atlantis_fw/platform/common/lightheader/src/range2f.pb-c.c **** 
   4:/home/tienluong/workspace/atlantis_fw/platform/common/lightheader/src/range2f.pb-c.c **** /* Do not generate deprecated warnings for self */
   5:/home/tienluong/workspace/atlantis_fw/platform/common/lightheader/src/range2f.pb-c.c **** #ifndef PROTOBUF_C__NO_DEPRECATED
   6:/home/tienluong/workspace/atlantis_fw/platform/common/lightheader/src/range2f.pb-c.c **** #define PROTOBUF_C__NO_DEPRECATED
   7:/home/tienluong/workspace/atlantis_fw/platform/common/lightheader/src/range2f.pb-c.c **** #endif
   8:/home/tienluong/workspace/atlantis_fw/platform/common/lightheader/src/range2f.pb-c.c **** #include "sections.h"
   9:/home/tienluong/workspace/atlantis_fw/platform/common/lightheader/src/range2f.pb-c.c **** #include "range2f.pb-c.h"
  10:/home/tienluong/workspace/atlantis_fw/platform/common/lightheader/src/range2f.pb-c.c **** LIGHT_HEADER_FUNC void   ltpb__range2_f__init
  11:/home/tienluong/workspace/atlantis_fw/platform/common/lightheader/src/range2f.pb-c.c ****                      (Ltpb__Range2F         *message)
  12:/home/tienluong/workspace/atlantis_fw/platform/common/lightheader/src/range2f.pb-c.c **** {
  27              		.loc 1 12 0
  28              		.cfi_startproc
  29              		@ args = 0, pretend = 0, frame = 0
  30              		@ frame_needed = 0, uses_anonymous_args = 0
  31              	.LVL0:
  32 0000 30B5     		push	{r4, r5, lr}
  33              	.LCFI0:
  34              		.cfi_def_cfa_offset 12
  35              		.cfi_offset 4, -12
  36              		.cfi_offset 5, -8
  37              		.cfi_offset 14, -4
  13:/home/tienluong/workspace/atlantis_fw/platform/common/lightheader/src/range2f.pb-c.c ****   static Ltpb__Range2F init_value = LTPB__RANGE2_F__INIT;
  14:/home/tienluong/workspace/atlantis_fw/platform/common/lightheader/src/range2f.pb-c.c ****   *message = init_value;
  38              		.loc 1 14 0
  39 0002 034D     		ldr	r5, .L2
  40 0004 0446     		mov	r4, r0
  41 0006 0FCD     		ldmia	r5!, {r0, r1, r2, r3}
  42              	.LVL1:
  43 0008 0FC4     		stmia	r4!, {r0, r1, r2, r3}
  44              	.LVL2:
  45 000a 2B68     		ldr	r3, [r5]
  46 000c 2360     		str	r3, [r4]
  47 000e 30BD     		pop	{r4, r5, pc}
  48              	.LVL3:
  49              	.L3:
  50              		.align	2
  51              	.L2:
  52 0010 00000000 		.word	.LANCHOR0
  53              		.cfi_endproc
  54              	.LFE1:
  56              		.section	.text.ltpb__range2_f__get_packed_size,"ax",%progbits
  57              		.align	1
  58              		.global	ltpb__range2_f__get_packed_size
  59              		.thumb
  60              		.thumb_func
  62              	ltpb__range2_f__get_packed_size:
  63              	.LFB2:
  15:/home/tienluong/workspace/atlantis_fw/platform/common/lightheader/src/range2f.pb-c.c **** }
  16:/home/tienluong/workspace/atlantis_fw/platform/common/lightheader/src/range2f.pb-c.c **** LIGHT_HEADER_FUNC size_t ltpb__range2_f__get_packed_size
  17:/home/tienluong/workspace/atlantis_fw/platform/common/lightheader/src/range2f.pb-c.c ****                      (const Ltpb__Range2F *message)
  18:/home/tienluong/workspace/atlantis_fw/platform/common/lightheader/src/range2f.pb-c.c **** {
  64              		.loc 1 18 0
  65              		.cfi_startproc
  66              		@ args = 0, pretend = 0, frame = 0
  67              		@ frame_needed = 0, uses_anonymous_args = 0
  68              	.LVL4:
  19:/home/tienluong/workspace/atlantis_fw/platform/common/lightheader/src/range2f.pb-c.c ****   assert(message->base.descriptor == &ltpb__range2_f__descriptor);
  69              		.loc 1 19 0
  70 0000 0268     		ldr	r2, [r0]
  71 0002 064B     		ldr	r3, .L7
  18:/home/tienluong/workspace/atlantis_fw/platform/common/lightheader/src/range2f.pb-c.c ****   assert(message->base.descriptor == &ltpb__range2_f__descriptor);
  72              		.loc 1 18 0
  73 0004 10B5     		push	{r4, lr}
  74              	.LCFI1:
  75              		.cfi_def_cfa_offset 8
  76              		.cfi_offset 4, -8
  77              		.cfi_offset 14, -4
  78              		.loc 1 19 0
  79 0006 9A42     		cmp	r2, r3
  18:/home/tienluong/workspace/atlantis_fw/platform/common/lightheader/src/range2f.pb-c.c ****   assert(message->base.descriptor == &ltpb__range2_f__descriptor);
  80              		.loc 1 18 0
  81 0008 0446     		mov	r4, r0
  82              		.loc 1 19 0
  83 000a 03D0     		beq	.L5
  84              		.loc 1 19 0 is_stmt 0 discriminator 1
  85 000c 0448     		ldr	r0, .L7+4
  86              	.LVL5:
  87 000e 1321     		movs	r1, #19
  88 0010 044B     		ldr	r3, .L7+8
  89 0012 9847     		blx	r3
  90              	.LVL6:
  91              	.L5:
  20:/home/tienluong/workspace/atlantis_fw/platform/common/lightheader/src/range2f.pb-c.c ****   return protobuf_c_message_get_packed_size ((const ProtobufCMessage*)(message));
  92              		.loc 1 20 0 is_stmt 1
  93 0014 2046     		mov	r0, r4
  94 0016 044B     		ldr	r3, .L7+12
  95 0018 9847     		blx	r3
  96              	.LVL7:
  21:/home/tienluong/workspace/atlantis_fw/platform/common/lightheader/src/range2f.pb-c.c **** }
  97              		.loc 1 21 0
  98 001a 10BD     		pop	{r4, pc}
  99              	.LVL8:
 100              	.L8:
 101              		.align	2
 102              	.L7:
 103 001c 00000000 		.word	.LANCHOR1
 104 0020 00000000 		.word	.LANCHOR2
 105 0024 00000000 		.word	assert_failed
 106 0028 00000000 		.word	protobuf_c_message_get_packed_size
 107              		.cfi_endproc
 108              	.LFE2:
 110              		.section	.text.ltpb__range2_f__pack,"ax",%progbits
 111              		.align	1
 112              		.global	ltpb__range2_f__pack
 113              		.thumb
 114              		.thumb_func
 116              	ltpb__range2_f__pack:
 117              	.LFB3:
  22:/home/tienluong/workspace/atlantis_fw/platform/common/lightheader/src/range2f.pb-c.c **** LIGHT_HEADER_FUNC size_t ltpb__range2_f__pack
  23:/home/tienluong/workspace/atlantis_fw/platform/common/lightheader/src/range2f.pb-c.c ****                      (const Ltpb__Range2F *message,
  24:/home/tienluong/workspace/atlantis_fw/platform/common/lightheader/src/range2f.pb-c.c ****                       uint8_t       *out)
  25:/home/tienluong/workspace/atlantis_fw/platform/common/lightheader/src/range2f.pb-c.c **** {
 118              		.loc 1 25 0
 119              		.cfi_startproc
 120              		@ args = 0, pretend = 0, frame = 0
 121              		@ frame_needed = 0, uses_anonymous_args = 0
 122              	.LVL9:
 123 0000 38B5     		push	{r3, r4, r5, lr}
 124              	.LCFI2:
 125              		.cfi_def_cfa_offset 16
 126              		.cfi_offset 3, -16
 127              		.cfi_offset 4, -12
 128              		.cfi_offset 5, -8
 129              		.cfi_offset 14, -4
  26:/home/tienluong/workspace/atlantis_fw/platform/common/lightheader/src/range2f.pb-c.c ****   assert(message->base.descriptor == &ltpb__range2_f__descriptor);
 130              		.loc 1 26 0
 131 0002 0268     		ldr	r2, [r0]
  25:/home/tienluong/workspace/atlantis_fw/platform/common/lightheader/src/range2f.pb-c.c ****   assert(message->base.descriptor == &ltpb__range2_f__descriptor);
 132              		.loc 1 25 0
 133 0004 0446     		mov	r4, r0
 134              		.loc 1 26 0
 135 0006 064B     		ldr	r3, .L11
  25:/home/tienluong/workspace/atlantis_fw/platform/common/lightheader/src/range2f.pb-c.c ****   assert(message->base.descriptor == &ltpb__range2_f__descriptor);
 136              		.loc 1 25 0
 137 0008 0D46     		mov	r5, r1
 138              		.loc 1 26 0
 139 000a 9A42     		cmp	r2, r3
 140 000c 03D0     		beq	.L10
 141              		.loc 1 26 0 is_stmt 0 discriminator 1
 142 000e 0548     		ldr	r0, .L11+4
 143              	.LVL10:
 144 0010 1A21     		movs	r1, #26
 145              	.LVL11:
 146 0012 054B     		ldr	r3, .L11+8
 147 0014 9847     		blx	r3
 148              	.LVL12:
 149              	.L10:
  27:/home/tienluong/workspace/atlantis_fw/platform/common/lightheader/src/range2f.pb-c.c ****   return protobuf_c_message_pack ((const ProtobufCMessage*)message, out);
 150              		.loc 1 27 0 is_stmt 1
 151 0016 2046     		mov	r0, r4
 152 0018 2946     		mov	r1, r5
 153 001a 044B     		ldr	r3, .L11+12
 154 001c 9847     		blx	r3
 155              	.LVL13:
  28:/home/tienluong/workspace/atlantis_fw/platform/common/lightheader/src/range2f.pb-c.c **** }
 156              		.loc 1 28 0
 157 001e 38BD     		pop	{r3, r4, r5, pc}
 158              	.LVL14:
 159              	.L12:
 160              		.align	2
 161              	.L11:
 162 0020 00000000 		.word	.LANCHOR1
 163 0024 00000000 		.word	.LANCHOR3
 164 0028 00000000 		.word	assert_failed
 165 002c 00000000 		.word	protobuf_c_message_pack
 166              		.cfi_endproc
 167              	.LFE3:
 169              		.section	.text.ltpb__range2_f__pack_to_buffer,"ax",%progbits
 170              		.align	1
 171              		.global	ltpb__range2_f__pack_to_buffer
 172              		.thumb
 173              		.thumb_func
 175              	ltpb__range2_f__pack_to_buffer:
 176              	.LFB4:
  29:/home/tienluong/workspace/atlantis_fw/platform/common/lightheader/src/range2f.pb-c.c **** LIGHT_HEADER_FUNC size_t ltpb__range2_f__pack_to_buffer
  30:/home/tienluong/workspace/atlantis_fw/platform/common/lightheader/src/range2f.pb-c.c ****                      (const Ltpb__Range2F *message,
  31:/home/tienluong/workspace/atlantis_fw/platform/common/lightheader/src/range2f.pb-c.c ****                       ProtobufCBuffer *buffer)
  32:/home/tienluong/workspace/atlantis_fw/platform/common/lightheader/src/range2f.pb-c.c **** {
 177              		.loc 1 32 0
 178              		.cfi_startproc
 179              		@ args = 0, pretend = 0, frame = 0
 180              		@ frame_needed = 0, uses_anonymous_args = 0
 181              	.LVL15:
 182 0000 38B5     		push	{r3, r4, r5, lr}
 183              	.LCFI3:
 184              		.cfi_def_cfa_offset 16
 185              		.cfi_offset 3, -16
 186              		.cfi_offset 4, -12
 187              		.cfi_offset 5, -8
 188              		.cfi_offset 14, -4
  33:/home/tienluong/workspace/atlantis_fw/platform/common/lightheader/src/range2f.pb-c.c ****   assert(message->base.descriptor == &ltpb__range2_f__descriptor);
 189              		.loc 1 33 0
 190 0002 0268     		ldr	r2, [r0]
  32:/home/tienluong/workspace/atlantis_fw/platform/common/lightheader/src/range2f.pb-c.c ****   assert(message->base.descriptor == &ltpb__range2_f__descriptor);
 191              		.loc 1 32 0
 192 0004 0446     		mov	r4, r0
 193              		.loc 1 33 0
 194 0006 064B     		ldr	r3, .L15
  32:/home/tienluong/workspace/atlantis_fw/platform/common/lightheader/src/range2f.pb-c.c ****   assert(message->base.descriptor == &ltpb__range2_f__descriptor);
 195              		.loc 1 32 0
 196 0008 0D46     		mov	r5, r1
 197              		.loc 1 33 0
 198 000a 9A42     		cmp	r2, r3
 199 000c 03D0     		beq	.L14
 200              		.loc 1 33 0 is_stmt 0 discriminator 1
 201 000e 0548     		ldr	r0, .L15+4
 202              	.LVL16:
 203 0010 2121     		movs	r1, #33
 204              	.LVL17:
 205 0012 054B     		ldr	r3, .L15+8
 206 0014 9847     		blx	r3
 207              	.LVL18:
 208              	.L14:
  34:/home/tienluong/workspace/atlantis_fw/platform/common/lightheader/src/range2f.pb-c.c ****   return protobuf_c_message_pack_to_buffer ((const ProtobufCMessage*)message, buffer);
 209              		.loc 1 34 0 is_stmt 1
 210 0016 2046     		mov	r0, r4
 211 0018 2946     		mov	r1, r5
 212 001a 044B     		ldr	r3, .L15+12
 213 001c 9847     		blx	r3
 214              	.LVL19:
  35:/home/tienluong/workspace/atlantis_fw/platform/common/lightheader/src/range2f.pb-c.c **** }
 215              		.loc 1 35 0
 216 001e 38BD     		pop	{r3, r4, r5, pc}
 217              	.LVL20:
 218              	.L16:
 219              		.align	2
 220              	.L15:
 221 0020 00000000 		.word	.LANCHOR1
 222 0024 00000000 		.word	.LANCHOR4
 223 0028 00000000 		.word	assert_failed
 224 002c 00000000 		.word	protobuf_c_message_pack_to_buffer
 225              		.cfi_endproc
 226              	.LFE4:
 228              		.section	.text.ltpb__range2_f__unpack,"ax",%progbits
 229              		.align	1
 230              		.global	ltpb__range2_f__unpack
 231              		.thumb
 232              		.thumb_func
 234              	ltpb__range2_f__unpack:
 235              	.LFB5:
  36:/home/tienluong/workspace/atlantis_fw/platform/common/lightheader/src/range2f.pb-c.c **** LIGHT_HEADER_FUNC Ltpb__Range2F *
  37:/home/tienluong/workspace/atlantis_fw/platform/common/lightheader/src/range2f.pb-c.c ****        ltpb__range2_f__unpack
  38:/home/tienluong/workspace/atlantis_fw/platform/common/lightheader/src/range2f.pb-c.c ****                      (ProtobufCAllocator  *allocator,
  39:/home/tienluong/workspace/atlantis_fw/platform/common/lightheader/src/range2f.pb-c.c ****                       size_t               len,
  40:/home/tienluong/workspace/atlantis_fw/platform/common/lightheader/src/range2f.pb-c.c ****                       const uint8_t       *data)
  41:/home/tienluong/workspace/atlantis_fw/platform/common/lightheader/src/range2f.pb-c.c **** {
 236              		.loc 1 41 0
 237              		.cfi_startproc
 238              		@ args = 0, pretend = 0, frame = 0
 239              		@ frame_needed = 0, uses_anonymous_args = 0
 240              	.LVL21:
 241 0000 38B5     		push	{r3, r4, r5, lr}
 242              	.LCFI4:
 243              		.cfi_def_cfa_offset 16
 244              		.cfi_offset 3, -16
 245              		.cfi_offset 4, -12
 246              		.cfi_offset 5, -8
 247              		.cfi_offset 14, -4
 248              		.loc 1 41 0
 249 0002 0546     		mov	r5, r0
 250 0004 0C46     		mov	r4, r1
 251 0006 1346     		mov	r3, r2
  42:/home/tienluong/workspace/atlantis_fw/platform/common/lightheader/src/range2f.pb-c.c ****   return (Ltpb__Range2F *)
 252              		.loc 1 42 0
 253 0008 2946     		mov	r1, r5
 254              	.LVL22:
 255 000a 2246     		mov	r2, r4
 256              	.LVL23:
 257 000c 0148     		ldr	r0, .L18
 258              	.LVL24:
 259 000e 024C     		ldr	r4, .L18+4
 260              	.LVL25:
 261 0010 A047     		blx	r4
 262              	.LVL26:
  43:/home/tienluong/workspace/atlantis_fw/platform/common/lightheader/src/range2f.pb-c.c ****      protobuf_c_message_unpack (&ltpb__range2_f__descriptor,
  44:/home/tienluong/workspace/atlantis_fw/platform/common/lightheader/src/range2f.pb-c.c ****                                 allocator, len, data);
  45:/home/tienluong/workspace/atlantis_fw/platform/common/lightheader/src/range2f.pb-c.c **** }
 263              		.loc 1 45 0
 264 0012 38BD     		pop	{r3, r4, r5, pc}
 265              	.LVL27:
 266              	.L19:
 267              		.align	2
 268              	.L18:
 269 0014 00000000 		.word	.LANCHOR1
 270 0018 00000000 		.word	protobuf_c_message_unpack
 271              		.cfi_endproc
 272              	.LFE5:
 274              		.section	.text.ltpb__range2_f__free_unpacked,"ax",%progbits
 275              		.align	1
 276              		.global	ltpb__range2_f__free_unpacked
 277              		.thumb
 278              		.thumb_func
 280              	ltpb__range2_f__free_unpacked:
 281              	.LFB6:
  46:/home/tienluong/workspace/atlantis_fw/platform/common/lightheader/src/range2f.pb-c.c **** LIGHT_HEADER_FUNC void   ltpb__range2_f__free_unpacked
  47:/home/tienluong/workspace/atlantis_fw/platform/common/lightheader/src/range2f.pb-c.c ****                      (Ltpb__Range2F *message,
  48:/home/tienluong/workspace/atlantis_fw/platform/common/lightheader/src/range2f.pb-c.c ****                       ProtobufCAllocator *allocator)
  49:/home/tienluong/workspace/atlantis_fw/platform/common/lightheader/src/range2f.pb-c.c **** {
 282              		.loc 1 49 0
 283              		.cfi_startproc
 284              		@ args = 0, pretend = 0, frame = 0
 285              		@ frame_needed = 0, uses_anonymous_args = 0
 286              	.LVL28:
 287 0000 38B5     		push	{r3, r4, r5, lr}
 288              	.LCFI5:
 289              		.cfi_def_cfa_offset 16
 290              		.cfi_offset 3, -16
 291              		.cfi_offset 4, -12
 292              		.cfi_offset 5, -8
 293              		.cfi_offset 14, -4
  50:/home/tienluong/workspace/atlantis_fw/platform/common/lightheader/src/range2f.pb-c.c ****   assert(message->base.descriptor == &ltpb__range2_f__descriptor);
 294              		.loc 1 50 0
 295 0002 0268     		ldr	r2, [r0]
  49:/home/tienluong/workspace/atlantis_fw/platform/common/lightheader/src/range2f.pb-c.c ****   assert(message->base.descriptor == &ltpb__range2_f__descriptor);
 296              		.loc 1 49 0
 297 0004 0446     		mov	r4, r0
 298              		.loc 1 50 0
 299 0006 064B     		ldr	r3, .L22
  49:/home/tienluong/workspace/atlantis_fw/platform/common/lightheader/src/range2f.pb-c.c ****   assert(message->base.descriptor == &ltpb__range2_f__descriptor);
 300              		.loc 1 49 0
 301 0008 0D46     		mov	r5, r1
 302              		.loc 1 50 0
 303 000a 9A42     		cmp	r2, r3
 304 000c 03D0     		beq	.L21
 305              		.loc 1 50 0 is_stmt 0 discriminator 1
 306 000e 0548     		ldr	r0, .L22+4
 307              	.LVL29:
 308 0010 3221     		movs	r1, #50
 309              	.LVL30:
 310 0012 054B     		ldr	r3, .L22+8
 311 0014 9847     		blx	r3
 312              	.LVL31:
 313              	.L21:
  51:/home/tienluong/workspace/atlantis_fw/platform/common/lightheader/src/range2f.pb-c.c ****   protobuf_c_message_free_unpacked ((ProtobufCMessage*)message, allocator);
 314              		.loc 1 51 0 is_stmt 1
 315 0016 2046     		mov	r0, r4
 316 0018 2946     		mov	r1, r5
 317 001a 044B     		ldr	r3, .L22+12
 318 001c 9847     		blx	r3
 319              	.LVL32:
 320 001e 38BD     		pop	{r3, r4, r5, pc}
 321              	.LVL33:
 322              	.L23:
 323              		.align	2
 324              	.L22:
 325 0020 00000000 		.word	.LANCHOR1
 326 0024 00000000 		.word	.LANCHOR5
 327 0028 00000000 		.word	assert_failed
 328 002c 00000000 		.word	protobuf_c_message_free_unpacked
 329              		.cfi_endproc
 330              	.LFE6:
 332              		.global	ltpb__range2_f__descriptor
 333              		.section	.rodata.ltpb__range2_f__field_indices_by_name,"a",%progbits
 334              		.align	2
 337              	ltpb__range2_f__field_indices_by_name:
 338 0000 01000000 		.word	1
 339 0004 00000000 		.word	0
 340              		.section	.rodata.ltpb__range2_f__number_ranges,"a",%progbits
 341              		.align	2
 344              	ltpb__range2_f__number_ranges:
 345 0000 01000000 		.word	1
 346 0004 00000000 		.word	0
 347 0008 00000000 		.word	0
 348 000c 02000000 		.word	2
 349              		.section	.rodata.init_value.6426,"a",%progbits
 350              		.align	2
 351              		.set	.LANCHOR0,. + 0
 354              	init_value.6426:
 355 0000 00000000 		.word	ltpb__range2_f__descriptor
 356 0004 00000000 		.word	0
 357 0008 00000000 		.word	0
 358 000c 00000000 		.word	0
 359 0010 00000000 		.word	0
 360              		.section	.rodata.ltpb__range2_f__descriptor,"a",%progbits
 361              		.align	2
 362              		.set	.LANCHOR1,. + 0
 365              	ltpb__range2_f__descriptor:
 366 0000 F9EEAA28 		.word	682290937
 367 0004 00000000 		.word	.LC0
 368 0008 0D000000 		.word	.LC1
 369 000c 15000000 		.word	.LC2
 370 0010 23000000 		.word	.LC3
 371 0014 14000000 		.word	20
 372 0018 02000000 		.word	2
 373 001c 00000000 		.word	ltpb__range2_f__field_descriptors
 374 0020 00000000 		.word	ltpb__range2_f__field_indices_by_name
 375 0024 01000000 		.word	1
 376 0028 00000000 		.word	ltpb__range2_f__number_ranges
 377 002c 00000000 		.word	ltpb__range2_f__init
 378 0030 00000000 		.word	0
 379 0034 00000000 		.word	0
 380 0038 00000000 		.word	0
 381              		.section	.rodata.ltpb__range2_f__field_descriptors,"a",%progbits
 382              		.align	2
 385              	ltpb__range2_f__field_descriptors:
 386 0000 28000000 		.word	.LC4
 387 0004 01000000 		.word	1
 388 0008 00       		.byte	0
 389 0009 0A       		.byte	10
 390 000a 0000     		.space	2
 391 000c 00000000 		.word	0
 392 0010 0C000000 		.word	12
 393 0014 00000000 		.word	0
 394 0018 00000000 		.word	0
 395 001c 00000000 		.word	0
 396 0020 00000000 		.word	0
 397 0024 00000000 		.word	0
 398 0028 00000000 		.word	0
 399 002c 30000000 		.word	.LC5
 400 0030 02000000 		.word	2
 401 0034 00       		.byte	0
 402 0035 0A       		.byte	10
 403 0036 0000     		.space	2
 404 0038 00000000 		.word	0
 405 003c 10000000 		.word	16
 406 0040 00000000 		.word	0
 407 0044 00000000 		.word	0
 408 0048 00000000 		.word	0
 409 004c 00000000 		.word	0
 410 0050 00000000 		.word	0
 411 0054 00000000 		.word	0
 412              		.section	.rodata.str1.1,"aMS",%progbits,1
 413              	.LC0:
 414 0000 6C747062 		.ascii	"ltpb.Range2F\000"
 414      2E52616E 
 414      67653246 
 414      00
 415              	.LC1:
 416 000d 52616E67 		.ascii	"Range2F\000"
 416      65324600 
 417              	.LC2:
 418 0015 4C747062 		.ascii	"Ltpb__Range2F\000"
 418      5F5F5261 
 418      6E676532 
 418      4600
 419              	.LC3:
 420 0023 6C747062 		.ascii	"ltpb\000"
 420      00
 421              	.LC4:
 422 0028 6D696E5F 		.ascii	"min_val\000"
 422      76616C00 
 423              	.LC5:
 424 0030 6D61785F 		.ascii	"max_val\000"
 424      76616C00 
 425              		.section	.rodata.__FUNCTION__.6430,"a",%progbits
 426              		.set	.LANCHOR2,. + 0
 429              	__FUNCTION__.6430:
 430 0000 6C747062 		.ascii	"ltpb__range2_f__get_packed_size\000"
 430      5F5F7261 
 430      6E676532 
 430      5F665F5F 
 430      6765745F 
 431              		.section	.rodata.__FUNCTION__.6435,"a",%progbits
 432              		.set	.LANCHOR3,. + 0
 435              	__FUNCTION__.6435:
 436 0000 6C747062 		.ascii	"ltpb__range2_f__pack\000"
 436      5F5F7261 
 436      6E676532 
 436      5F665F5F 
 436      7061636B 
 437              		.section	.rodata.__FUNCTION__.6440,"a",%progbits
 438              		.set	.LANCHOR4,. + 0
 441              	__FUNCTION__.6440:
 442 0000 6C747062 		.ascii	"ltpb__range2_f__pack_to_buffer\000"
 442      5F5F7261 
 442      6E676532 
 442      5F665F5F 
 442      7061636B 
 443              		.section	.rodata.__FUNCTION__.6450,"a",%progbits
 444              		.set	.LANCHOR5,. + 0
 447              	__FUNCTION__.6450:
 448 0000 6C747062 		.ascii	"ltpb__range2_f__free_unpacked\000"
 448      5F5F7261 
 448      6E676532 
 448      5F665F5F 
 448      66726565 
 449              		.text
 450              	.Letext0:
 451              		.file 2 "/opt/toolchains/gcc-arm-none-eabi-4_9-2015q1/arm-none-eabi/include/machine/_default_types
 452              		.file 3 "/opt/toolchains/gcc-arm-none-eabi-4_9-2015q1/lib/gcc/arm-none-eabi/4.9.3/include/stddef.h
 453              		.file 4 "/opt/toolchains/gcc-arm-none-eabi-4_9-2015q1/arm-none-eabi/include/stdint.h"
 454              		.file 5 "/home/tienluong/workspace/atlantis_fw/platform/os/Source/portable/GCC/cortex-r4/portmacro
 455              		.file 6 "/home/tienluong/workspace/atlantis_fw/platform/common/lightheader/include/protobuf-c/prot
 456              		.file 7 "/home/tienluong/workspace/atlantis_fw/platform/common/lightheader/include/range2f.pb-c.h"
DEFINED SYMBOLS
                            *ABS*:00000000 range2f.pb-c.c
     /tmp/ccO65gJh.s:19     .text.ltpb__range2_f__init:00000000 $t
     /tmp/ccO65gJh.s:24     .text.ltpb__range2_f__init:00000000 ltpb__range2_f__init
     /tmp/ccO65gJh.s:52     .text.ltpb__range2_f__init:00000010 $d
     /tmp/ccO65gJh.s:57     .text.ltpb__range2_f__get_packed_size:00000000 $t
     /tmp/ccO65gJh.s:62     .text.ltpb__range2_f__get_packed_size:00000000 ltpb__range2_f__get_packed_size
     /tmp/ccO65gJh.s:103    .text.ltpb__range2_f__get_packed_size:0000001c $d
     /tmp/ccO65gJh.s:111    .text.ltpb__range2_f__pack:00000000 $t
     /tmp/ccO65gJh.s:116    .text.ltpb__range2_f__pack:00000000 ltpb__range2_f__pack
     /tmp/ccO65gJh.s:162    .text.ltpb__range2_f__pack:00000020 $d
     /tmp/ccO65gJh.s:170    .text.ltpb__range2_f__pack_to_buffer:00000000 $t
     /tmp/ccO65gJh.s:175    .text.ltpb__range2_f__pack_to_buffer:00000000 ltpb__range2_f__pack_to_buffer
     /tmp/ccO65gJh.s:221    .text.ltpb__range2_f__pack_to_buffer:00000020 $d
     /tmp/ccO65gJh.s:229    .text.ltpb__range2_f__unpack:00000000 $t
     /tmp/ccO65gJh.s:234    .text.ltpb__range2_f__unpack:00000000 ltpb__range2_f__unpack
     /tmp/ccO65gJh.s:269    .text.ltpb__range2_f__unpack:00000014 $d
     /tmp/ccO65gJh.s:275    .text.ltpb__range2_f__free_unpacked:00000000 $t
     /tmp/ccO65gJh.s:280    .text.ltpb__range2_f__free_unpacked:00000000 ltpb__range2_f__free_unpacked
     /tmp/ccO65gJh.s:325    .text.ltpb__range2_f__free_unpacked:00000020 $d
     /tmp/ccO65gJh.s:365    .rodata.ltpb__range2_f__descriptor:00000000 ltpb__range2_f__descriptor
     /tmp/ccO65gJh.s:334    .rodata.ltpb__range2_f__field_indices_by_name:00000000 $d
     /tmp/ccO65gJh.s:337    .rodata.ltpb__range2_f__field_indices_by_name:00000000 ltpb__range2_f__field_indices_by_name
     /tmp/ccO65gJh.s:341    .rodata.ltpb__range2_f__number_ranges:00000000 $d
     /tmp/ccO65gJh.s:344    .rodata.ltpb__range2_f__number_ranges:00000000 ltpb__range2_f__number_ranges
     /tmp/ccO65gJh.s:350    .rodata.init_value.6426:00000000 $d
     /tmp/ccO65gJh.s:354    .rodata.init_value.6426:00000000 init_value.6426
     /tmp/ccO65gJh.s:361    .rodata.ltpb__range2_f__descriptor:00000000 $d
     /tmp/ccO65gJh.s:385    .rodata.ltpb__range2_f__field_descriptors:00000000 ltpb__range2_f__field_descriptors
     /tmp/ccO65gJh.s:382    .rodata.ltpb__range2_f__field_descriptors:00000000 $d
     /tmp/ccO65gJh.s:429    .rodata.__FUNCTION__.6430:00000000 __FUNCTION__.6430
     /tmp/ccO65gJh.s:435    .rodata.__FUNCTION__.6435:00000000 __FUNCTION__.6435
     /tmp/ccO65gJh.s:441    .rodata.__FUNCTION__.6440:00000000 __FUNCTION__.6440
     /tmp/ccO65gJh.s:447    .rodata.__FUNCTION__.6450:00000000 __FUNCTION__.6450
                     .debug_frame:00000010 $d

UNDEFINED SYMBOLS
assert_failed
protobuf_c_message_get_packed_size
protobuf_c_message_pack
protobuf_c_message_pack_to_buffer
protobuf_c_message_unpack
protobuf_c_message_free_unpacked
