   1              		.syntax unified
   2              		.cpu cortex-r4
   3              		.fpu softvfp
   4              		.eabi_attribute 20, 1
   5              		.eabi_attribute 21, 1
   6              		.eabi_attribute 23, 3
   7              		.eabi_attribute 24, 1
   8              		.eabi_attribute 25, 1
   9              		.eabi_attribute 26, 1
  10              		.eabi_attribute 30, 4
  11              		.eabi_attribute 34, 1
  12              		.eabi_attribute 18, 4
  13              		.thumb
  14              		.file	"tof_calibration.pb-c.c"
  15              		.text
  16              	.Ltext0:
  17              		.cfi_sections	.debug_frame
  18              		.section	.text.ltpb__to_fcalibration__init,"ax",%progbits
  19              		.align	1
  20              		.global	ltpb__to_fcalibration__init
  21              		.thumb
  22              		.thumb_func
  24              	ltpb__to_fcalibration__init:
  25              	.LFB1:
  26              		.file 1 "/home/tienluong/workspace/atlantis_fw/platform/common/lightheader/src/tof_calibration.pb-
   1:/home/tienluong/workspace/atlantis_fw/platform/common/lightheader/src/tof_calibration.pb-c.c **** /* Generated by the protocol buffer compiler.  DO NOT EDIT! */
   2:/home/tienluong/workspace/atlantis_fw/platform/common/lightheader/src/tof_calibration.pb-c.c **** /* Generated from: tof_calibration.proto */
   3:/home/tienluong/workspace/atlantis_fw/platform/common/lightheader/src/tof_calibration.pb-c.c **** 
   4:/home/tienluong/workspace/atlantis_fw/platform/common/lightheader/src/tof_calibration.pb-c.c **** /* Do not generate deprecated warnings for self */
   5:/home/tienluong/workspace/atlantis_fw/platform/common/lightheader/src/tof_calibration.pb-c.c **** #ifndef PROTOBUF_C__NO_DEPRECATED
   6:/home/tienluong/workspace/atlantis_fw/platform/common/lightheader/src/tof_calibration.pb-c.c **** #define PROTOBUF_C__NO_DEPRECATED
   7:/home/tienluong/workspace/atlantis_fw/platform/common/lightheader/src/tof_calibration.pb-c.c **** #endif
   8:/home/tienluong/workspace/atlantis_fw/platform/common/lightheader/src/tof_calibration.pb-c.c **** #include "sections.h"
   9:/home/tienluong/workspace/atlantis_fw/platform/common/lightheader/src/tof_calibration.pb-c.c **** #include "tof_calibration.pb-c.h"
  10:/home/tienluong/workspace/atlantis_fw/platform/common/lightheader/src/tof_calibration.pb-c.c **** LIGHT_HEADER_FUNC void   ltpb__to_fcalibration__init
  11:/home/tienluong/workspace/atlantis_fw/platform/common/lightheader/src/tof_calibration.pb-c.c ****                      (Ltpb__ToFCalibration         *message)
  12:/home/tienluong/workspace/atlantis_fw/platform/common/lightheader/src/tof_calibration.pb-c.c **** {
  27              		.loc 1 12 0
  28              		.cfi_startproc
  29              		@ args = 0, pretend = 0, frame = 0
  30              		@ frame_needed = 0, uses_anonymous_args = 0
  31              	.LVL0:
  32 0000 30B5     		push	{r4, r5, lr}
  33              	.LCFI0:
  34              		.cfi_def_cfa_offset 12
  35              		.cfi_offset 4, -12
  36              		.cfi_offset 5, -8
  37              		.cfi_offset 14, -4
  13:/home/tienluong/workspace/atlantis_fw/platform/common/lightheader/src/tof_calibration.pb-c.c ****   LIGHT_HEADER_STATIC static Ltpb__ToFCalibration init_value = LTPB__TO_FCALIBRATION__INIT;
  14:/home/tienluong/workspace/atlantis_fw/platform/common/lightheader/src/tof_calibration.pb-c.c ****   *message = init_value;
  38              		.loc 1 14 0
  39 0002 044D     		ldr	r5, .L2
  40 0004 0446     		mov	r4, r0
  41 0006 0FCD     		ldmia	r5!, {r0, r1, r2, r3}
  42              	.LVL1:
  43 0008 0FC4     		stmia	r4!, {r0, r1, r2, r3}
  44              	.LVL2:
  45 000a 95E80700 		ldmia	r5, {r0, r1, r2}
  46 000e 84E80700 		stmia	r4, {r0, r1, r2}
  47 0012 30BD     		pop	{r4, r5, pc}
  48              	.LVL3:
  49              	.L3:
  50              		.align	2
  51              	.L2:
  52 0014 00000000 		.word	.LANCHOR0
  53              		.cfi_endproc
  54              	.LFE1:
  56              		.section	.text.ltpb__to_fcalibration__get_packed_size,"ax",%progbits
  57              		.align	1
  58              		.global	ltpb__to_fcalibration__get_packed_size
  59              		.thumb
  60              		.thumb_func
  62              	ltpb__to_fcalibration__get_packed_size:
  63              	.LFB2:
  15:/home/tienluong/workspace/atlantis_fw/platform/common/lightheader/src/tof_calibration.pb-c.c **** }
  16:/home/tienluong/workspace/atlantis_fw/platform/common/lightheader/src/tof_calibration.pb-c.c **** LIGHT_HEADER_FUNC size_t ltpb__to_fcalibration__get_packed_size
  17:/home/tienluong/workspace/atlantis_fw/platform/common/lightheader/src/tof_calibration.pb-c.c ****                      (const Ltpb__ToFCalibration *message)
  18:/home/tienluong/workspace/atlantis_fw/platform/common/lightheader/src/tof_calibration.pb-c.c **** {
  64              		.loc 1 18 0
  65              		.cfi_startproc
  66              		@ args = 0, pretend = 0, frame = 0
  67              		@ frame_needed = 0, uses_anonymous_args = 0
  68              	.LVL4:
  19:/home/tienluong/workspace/atlantis_fw/platform/common/lightheader/src/tof_calibration.pb-c.c ****   assert(message->base.descriptor == &ltpb__to_fcalibration__descriptor);
  69              		.loc 1 19 0
  70 0000 0268     		ldr	r2, [r0]
  71 0002 064B     		ldr	r3, .L7
  18:/home/tienluong/workspace/atlantis_fw/platform/common/lightheader/src/tof_calibration.pb-c.c ****   assert(message->base.descriptor == &ltpb__to_fcalibration__descriptor);
  72              		.loc 1 18 0
  73 0004 10B5     		push	{r4, lr}
  74              	.LCFI1:
  75              		.cfi_def_cfa_offset 8
  76              		.cfi_offset 4, -8
  77              		.cfi_offset 14, -4
  78              		.loc 1 19 0
  79 0006 9A42     		cmp	r2, r3
  18:/home/tienluong/workspace/atlantis_fw/platform/common/lightheader/src/tof_calibration.pb-c.c ****   assert(message->base.descriptor == &ltpb__to_fcalibration__descriptor);
  80              		.loc 1 18 0
  81 0008 0446     		mov	r4, r0
  82              		.loc 1 19 0
  83 000a 03D0     		beq	.L5
  84              		.loc 1 19 0 is_stmt 0 discriminator 1
  85 000c 0448     		ldr	r0, .L7+4
  86              	.LVL5:
  87 000e 1321     		movs	r1, #19
  88 0010 044B     		ldr	r3, .L7+8
  89 0012 9847     		blx	r3
  90              	.LVL6:
  91              	.L5:
  20:/home/tienluong/workspace/atlantis_fw/platform/common/lightheader/src/tof_calibration.pb-c.c ****   return protobuf_c_message_get_packed_size ((const ProtobufCMessage*)(message));
  92              		.loc 1 20 0 is_stmt 1
  93 0014 2046     		mov	r0, r4
  94 0016 044B     		ldr	r3, .L7+12
  95 0018 9847     		blx	r3
  96              	.LVL7:
  21:/home/tienluong/workspace/atlantis_fw/platform/common/lightheader/src/tof_calibration.pb-c.c **** }
  97              		.loc 1 21 0
  98 001a 10BD     		pop	{r4, pc}
  99              	.LVL8:
 100              	.L8:
 101              		.align	2
 102              	.L7:
 103 001c 00000000 		.word	.LANCHOR1
 104 0020 00000000 		.word	.LANCHOR2
 105 0024 00000000 		.word	assert_failed
 106 0028 00000000 		.word	protobuf_c_message_get_packed_size
 107              		.cfi_endproc
 108              	.LFE2:
 110              		.section	.text.ltpb__to_fcalibration__pack,"ax",%progbits
 111              		.align	1
 112              		.global	ltpb__to_fcalibration__pack
 113              		.thumb
 114              		.thumb_func
 116              	ltpb__to_fcalibration__pack:
 117              	.LFB3:
  22:/home/tienluong/workspace/atlantis_fw/platform/common/lightheader/src/tof_calibration.pb-c.c **** LIGHT_HEADER_FUNC size_t ltpb__to_fcalibration__pack
  23:/home/tienluong/workspace/atlantis_fw/platform/common/lightheader/src/tof_calibration.pb-c.c ****                      (const Ltpb__ToFCalibration *message,
  24:/home/tienluong/workspace/atlantis_fw/platform/common/lightheader/src/tof_calibration.pb-c.c ****                       uint8_t       *out)
  25:/home/tienluong/workspace/atlantis_fw/platform/common/lightheader/src/tof_calibration.pb-c.c **** {
 118              		.loc 1 25 0
 119              		.cfi_startproc
 120              		@ args = 0, pretend = 0, frame = 0
 121              		@ frame_needed = 0, uses_anonymous_args = 0
 122              	.LVL9:
 123 0000 38B5     		push	{r3, r4, r5, lr}
 124              	.LCFI2:
 125              		.cfi_def_cfa_offset 16
 126              		.cfi_offset 3, -16
 127              		.cfi_offset 4, -12
 128              		.cfi_offset 5, -8
 129              		.cfi_offset 14, -4
  26:/home/tienluong/workspace/atlantis_fw/platform/common/lightheader/src/tof_calibration.pb-c.c ****   assert(message->base.descriptor == &ltpb__to_fcalibration__descriptor);
 130              		.loc 1 26 0
 131 0002 0268     		ldr	r2, [r0]
  25:/home/tienluong/workspace/atlantis_fw/platform/common/lightheader/src/tof_calibration.pb-c.c ****   assert(message->base.descriptor == &ltpb__to_fcalibration__descriptor);
 132              		.loc 1 25 0
 133 0004 0446     		mov	r4, r0
 134              		.loc 1 26 0
 135 0006 064B     		ldr	r3, .L11
  25:/home/tienluong/workspace/atlantis_fw/platform/common/lightheader/src/tof_calibration.pb-c.c ****   assert(message->base.descriptor == &ltpb__to_fcalibration__descriptor);
 136              		.loc 1 25 0
 137 0008 0D46     		mov	r5, r1
 138              		.loc 1 26 0
 139 000a 9A42     		cmp	r2, r3
 140 000c 03D0     		beq	.L10
 141              		.loc 1 26 0 is_stmt 0 discriminator 1
 142 000e 0548     		ldr	r0, .L11+4
 143              	.LVL10:
 144 0010 1A21     		movs	r1, #26
 145              	.LVL11:
 146 0012 054B     		ldr	r3, .L11+8
 147 0014 9847     		blx	r3
 148              	.LVL12:
 149              	.L10:
  27:/home/tienluong/workspace/atlantis_fw/platform/common/lightheader/src/tof_calibration.pb-c.c ****   return protobuf_c_message_pack ((const ProtobufCMessage*)message, out);
 150              		.loc 1 27 0 is_stmt 1
 151 0016 2046     		mov	r0, r4
 152 0018 2946     		mov	r1, r5
 153 001a 044B     		ldr	r3, .L11+12
 154 001c 9847     		blx	r3
 155              	.LVL13:
  28:/home/tienluong/workspace/atlantis_fw/platform/common/lightheader/src/tof_calibration.pb-c.c **** }
 156              		.loc 1 28 0
 157 001e 38BD     		pop	{r3, r4, r5, pc}
 158              	.LVL14:
 159              	.L12:
 160              		.align	2
 161              	.L11:
 162 0020 00000000 		.word	.LANCHOR1
 163 0024 00000000 		.word	.LANCHOR3
 164 0028 00000000 		.word	assert_failed
 165 002c 00000000 		.word	protobuf_c_message_pack
 166              		.cfi_endproc
 167              	.LFE3:
 169              		.section	.text.ltpb__to_fcalibration__pack_to_buffer,"ax",%progbits
 170              		.align	1
 171              		.global	ltpb__to_fcalibration__pack_to_buffer
 172              		.thumb
 173              		.thumb_func
 175              	ltpb__to_fcalibration__pack_to_buffer:
 176              	.LFB4:
  29:/home/tienluong/workspace/atlantis_fw/platform/common/lightheader/src/tof_calibration.pb-c.c **** LIGHT_HEADER_FUNC size_t ltpb__to_fcalibration__pack_to_buffer
  30:/home/tienluong/workspace/atlantis_fw/platform/common/lightheader/src/tof_calibration.pb-c.c ****                      (const Ltpb__ToFCalibration *message,
  31:/home/tienluong/workspace/atlantis_fw/platform/common/lightheader/src/tof_calibration.pb-c.c ****                       ProtobufCBuffer *buffer)
  32:/home/tienluong/workspace/atlantis_fw/platform/common/lightheader/src/tof_calibration.pb-c.c **** {
 177              		.loc 1 32 0
 178              		.cfi_startproc
 179              		@ args = 0, pretend = 0, frame = 0
 180              		@ frame_needed = 0, uses_anonymous_args = 0
 181              	.LVL15:
 182 0000 38B5     		push	{r3, r4, r5, lr}
 183              	.LCFI3:
 184              		.cfi_def_cfa_offset 16
 185              		.cfi_offset 3, -16
 186              		.cfi_offset 4, -12
 187              		.cfi_offset 5, -8
 188              		.cfi_offset 14, -4
  33:/home/tienluong/workspace/atlantis_fw/platform/common/lightheader/src/tof_calibration.pb-c.c ****   assert(message->base.descriptor == &ltpb__to_fcalibration__descriptor);
 189              		.loc 1 33 0
 190 0002 0268     		ldr	r2, [r0]
  32:/home/tienluong/workspace/atlantis_fw/platform/common/lightheader/src/tof_calibration.pb-c.c ****   assert(message->base.descriptor == &ltpb__to_fcalibration__descriptor);
 191              		.loc 1 32 0
 192 0004 0446     		mov	r4, r0
 193              		.loc 1 33 0
 194 0006 064B     		ldr	r3, .L15
  32:/home/tienluong/workspace/atlantis_fw/platform/common/lightheader/src/tof_calibration.pb-c.c ****   assert(message->base.descriptor == &ltpb__to_fcalibration__descriptor);
 195              		.loc 1 32 0
 196 0008 0D46     		mov	r5, r1
 197              		.loc 1 33 0
 198 000a 9A42     		cmp	r2, r3
 199 000c 03D0     		beq	.L14
 200              		.loc 1 33 0 is_stmt 0 discriminator 1
 201 000e 0548     		ldr	r0, .L15+4
 202              	.LVL16:
 203 0010 2121     		movs	r1, #33
 204              	.LVL17:
 205 0012 054B     		ldr	r3, .L15+8
 206 0014 9847     		blx	r3
 207              	.LVL18:
 208              	.L14:
  34:/home/tienluong/workspace/atlantis_fw/platform/common/lightheader/src/tof_calibration.pb-c.c ****   return protobuf_c_message_pack_to_buffer ((const ProtobufCMessage*)message, buffer);
 209              		.loc 1 34 0 is_stmt 1
 210 0016 2046     		mov	r0, r4
 211 0018 2946     		mov	r1, r5
 212 001a 044B     		ldr	r3, .L15+12
 213 001c 9847     		blx	r3
 214              	.LVL19:
  35:/home/tienluong/workspace/atlantis_fw/platform/common/lightheader/src/tof_calibration.pb-c.c **** }
 215              		.loc 1 35 0
 216 001e 38BD     		pop	{r3, r4, r5, pc}
 217              	.LVL20:
 218              	.L16:
 219              		.align	2
 220              	.L15:
 221 0020 00000000 		.word	.LANCHOR1
 222 0024 00000000 		.word	.LANCHOR4
 223 0028 00000000 		.word	assert_failed
 224 002c 00000000 		.word	protobuf_c_message_pack_to_buffer
 225              		.cfi_endproc
 226              	.LFE4:
 228              		.section	.text.ltpb__to_fcalibration__unpack,"ax",%progbits
 229              		.align	1
 230              		.global	ltpb__to_fcalibration__unpack
 231              		.thumb
 232              		.thumb_func
 234              	ltpb__to_fcalibration__unpack:
 235              	.LFB5:
  36:/home/tienluong/workspace/atlantis_fw/platform/common/lightheader/src/tof_calibration.pb-c.c **** LIGHT_HEADER_FUNC Ltpb__ToFCalibration *
  37:/home/tienluong/workspace/atlantis_fw/platform/common/lightheader/src/tof_calibration.pb-c.c ****        ltpb__to_fcalibration__unpack
  38:/home/tienluong/workspace/atlantis_fw/platform/common/lightheader/src/tof_calibration.pb-c.c ****                      (ProtobufCAllocator  *allocator,
  39:/home/tienluong/workspace/atlantis_fw/platform/common/lightheader/src/tof_calibration.pb-c.c ****                       size_t               len,
  40:/home/tienluong/workspace/atlantis_fw/platform/common/lightheader/src/tof_calibration.pb-c.c ****                       const uint8_t       *data)
  41:/home/tienluong/workspace/atlantis_fw/platform/common/lightheader/src/tof_calibration.pb-c.c **** {
 236              		.loc 1 41 0
 237              		.cfi_startproc
 238              		@ args = 0, pretend = 0, frame = 0
 239              		@ frame_needed = 0, uses_anonymous_args = 0
 240              	.LVL21:
 241 0000 38B5     		push	{r3, r4, r5, lr}
 242              	.LCFI4:
 243              		.cfi_def_cfa_offset 16
 244              		.cfi_offset 3, -16
 245              		.cfi_offset 4, -12
 246              		.cfi_offset 5, -8
 247              		.cfi_offset 14, -4
 248              		.loc 1 41 0
 249 0002 0546     		mov	r5, r0
 250 0004 0C46     		mov	r4, r1
 251 0006 1346     		mov	r3, r2
  42:/home/tienluong/workspace/atlantis_fw/platform/common/lightheader/src/tof_calibration.pb-c.c ****   return (Ltpb__ToFCalibration *)
 252              		.loc 1 42 0
 253 0008 2946     		mov	r1, r5
 254              	.LVL22:
 255 000a 2246     		mov	r2, r4
 256              	.LVL23:
 257 000c 0148     		ldr	r0, .L18
 258              	.LVL24:
 259 000e 024C     		ldr	r4, .L18+4
 260              	.LVL25:
 261 0010 A047     		blx	r4
 262              	.LVL26:
  43:/home/tienluong/workspace/atlantis_fw/platform/common/lightheader/src/tof_calibration.pb-c.c ****      protobuf_c_message_unpack (&ltpb__to_fcalibration__descriptor,
  44:/home/tienluong/workspace/atlantis_fw/platform/common/lightheader/src/tof_calibration.pb-c.c ****                                 allocator, len, data);
  45:/home/tienluong/workspace/atlantis_fw/platform/common/lightheader/src/tof_calibration.pb-c.c **** }
 263              		.loc 1 45 0
 264 0012 38BD     		pop	{r3, r4, r5, pc}
 265              	.LVL27:
 266              	.L19:
 267              		.align	2
 268              	.L18:
 269 0014 00000000 		.word	.LANCHOR1
 270 0018 00000000 		.word	protobuf_c_message_unpack
 271              		.cfi_endproc
 272              	.LFE5:
 274              		.section	.text.ltpb__to_fcalibration__free_unpacked,"ax",%progbits
 275              		.align	1
 276              		.global	ltpb__to_fcalibration__free_unpacked
 277              		.thumb
 278              		.thumb_func
 280              	ltpb__to_fcalibration__free_unpacked:
 281              	.LFB6:
  46:/home/tienluong/workspace/atlantis_fw/platform/common/lightheader/src/tof_calibration.pb-c.c **** LIGHT_HEADER_FUNC void   ltpb__to_fcalibration__free_unpacked
  47:/home/tienluong/workspace/atlantis_fw/platform/common/lightheader/src/tof_calibration.pb-c.c ****                      (Ltpb__ToFCalibration *message,
  48:/home/tienluong/workspace/atlantis_fw/platform/common/lightheader/src/tof_calibration.pb-c.c ****                       ProtobufCAllocator *allocator)
  49:/home/tienluong/workspace/atlantis_fw/platform/common/lightheader/src/tof_calibration.pb-c.c **** {
 282              		.loc 1 49 0
 283              		.cfi_startproc
 284              		@ args = 0, pretend = 0, frame = 0
 285              		@ frame_needed = 0, uses_anonymous_args = 0
 286              	.LVL28:
 287 0000 38B5     		push	{r3, r4, r5, lr}
 288              	.LCFI5:
 289              		.cfi_def_cfa_offset 16
 290              		.cfi_offset 3, -16
 291              		.cfi_offset 4, -12
 292              		.cfi_offset 5, -8
 293              		.cfi_offset 14, -4
  50:/home/tienluong/workspace/atlantis_fw/platform/common/lightheader/src/tof_calibration.pb-c.c ****   assert(message->base.descriptor == &ltpb__to_fcalibration__descriptor);
 294              		.loc 1 50 0
 295 0002 0268     		ldr	r2, [r0]
  49:/home/tienluong/workspace/atlantis_fw/platform/common/lightheader/src/tof_calibration.pb-c.c ****   assert(message->base.descriptor == &ltpb__to_fcalibration__descriptor);
 296              		.loc 1 49 0
 297 0004 0446     		mov	r4, r0
 298              		.loc 1 50 0
 299 0006 064B     		ldr	r3, .L22
  49:/home/tienluong/workspace/atlantis_fw/platform/common/lightheader/src/tof_calibration.pb-c.c ****   assert(message->base.descriptor == &ltpb__to_fcalibration__descriptor);
 300              		.loc 1 49 0
 301 0008 0D46     		mov	r5, r1
 302              		.loc 1 50 0
 303 000a 9A42     		cmp	r2, r3
 304 000c 03D0     		beq	.L21
 305              		.loc 1 50 0 is_stmt 0 discriminator 1
 306 000e 0548     		ldr	r0, .L22+4
 307              	.LVL29:
 308 0010 3221     		movs	r1, #50
 309              	.LVL30:
 310 0012 054B     		ldr	r3, .L22+8
 311 0014 9847     		blx	r3
 312              	.LVL31:
 313              	.L21:
  51:/home/tienluong/workspace/atlantis_fw/platform/common/lightheader/src/tof_calibration.pb-c.c ****   protobuf_c_message_free_unpacked ((ProtobufCMessage*)message, allocator);
 314              		.loc 1 51 0 is_stmt 1
 315 0016 2046     		mov	r0, r4
 316 0018 2946     		mov	r1, r5
 317 001a 044B     		ldr	r3, .L22+12
 318 001c 9847     		blx	r3
 319              	.LVL32:
 320 001e 38BD     		pop	{r3, r4, r5, pc}
 321              	.LVL33:
 322              	.L23:
 323              		.align	2
 324              	.L22:
 325 0020 00000000 		.word	.LANCHOR1
 326 0024 00000000 		.word	.LANCHOR5
 327 0028 00000000 		.word	assert_failed
 328 002c 00000000 		.word	protobuf_c_message_free_unpacked
 329              		.cfi_endproc
 330              	.LFE6:
 332              		.global	ltpb__to_fcalibration__descriptor
 333              		.section	.rodata.ltpb__to_fcalibration__field_descriptors,"a",%progbits
 334              		.align	2
 337              	ltpb__to_fcalibration__field_descriptors:
 338 0000 3D000000 		.word	.LC4
 339 0004 01000000 		.word	1
 340 0008 00       		.byte	0
 341 0009 0A       		.byte	10
 342 000a 0000     		.space	2
 343 000c 00000000 		.word	0
 344 0010 0C000000 		.word	12
 345 0014 00000000 		.word	0
 346 0018 00000000 		.word	0
 347 001c 00000000 		.word	0
 348 0020 00000000 		.word	0
 349 0024 00000000 		.word	0
 350 0028 00000000 		.word	0
 351 002c 4D000000 		.word	.LC5
 352 0030 02000000 		.word	2
 353 0034 00       		.byte	0
 354 0035 0A       		.byte	10
 355 0036 0000     		.space	2
 356 0038 00000000 		.word	0
 357 003c 10000000 		.word	16
 358 0040 00000000 		.word	0
 359 0044 00000000 		.word	0
 360 0048 00000000 		.word	0
 361 004c 00000000 		.word	0
 362 0050 00000000 		.word	0
 363 0054 00000000 		.word	0
 364 0058 60000000 		.word	.LC6
 365 005c 03000000 		.word	3
 366 0060 00       		.byte	0
 367 0061 0A       		.byte	10
 368 0062 0000     		.space	2
 369 0064 00000000 		.word	0
 370 0068 14000000 		.word	20
 371 006c 00000000 		.word	0
 372 0070 00000000 		.word	0
 373 0074 00000000 		.word	0
 374 0078 00000000 		.word	0
 375 007c 00000000 		.word	0
 376 0080 00000000 		.word	0
 377 0084 6F000000 		.word	.LC7
 378 0088 04000000 		.word	4
 379 008c 00       		.byte	0
 380 008d 0A       		.byte	10
 381 008e 0000     		.space	2
 382 0090 00000000 		.word	0
 383 0094 18000000 		.word	24
 384 0098 00000000 		.word	0
 385 009c 00000000 		.word	0
 386 00a0 00000000 		.word	0
 387 00a4 00000000 		.word	0
 388 00a8 00000000 		.word	0
 389 00ac 00000000 		.word	0
 390              		.section	.rodata.init_value.6428,"a",%progbits
 391              		.align	2
 392              		.set	.LANCHOR0,. + 0
 395              	init_value.6428:
 396 0000 00000000 		.word	ltpb__to_fcalibration__descriptor
 397 0004 00000000 		.word	0
 398 0008 00000000 		.word	0
 399 000c 00000000 		.word	0
 400 0010 00000000 		.word	0
 401 0014 00000000 		.word	0
 402 0018 00000000 		.word	0
 403              		.section	.rodata.__FUNCTION__.6452,"a",%progbits
 404              		.set	.LANCHOR5,. + 0
 407              	__FUNCTION__.6452:
 408 0000 6C747062 		.ascii	"ltpb__to_fcalibration__free_unpacked\000"
 408      5F5F746F 
 408      5F666361 
 408      6C696272 
 408      6174696F 
 409              		.section	.rodata.str1.1,"aMS",%progbits,1
 410              	.LC0:
 411 0000 6C747062 		.ascii	"ltpb.ToFCalibration\000"
 411      2E546F46 
 411      43616C69 
 411      62726174 
 411      696F6E00 
 412              	.LC1:
 413 0014 546F4643 		.ascii	"ToFCalibration\000"
 413      616C6962 
 413      72617469 
 413      6F6E00
 414              	.LC2:
 415 0023 4C747062 		.ascii	"Ltpb__ToFCalibration\000"
 415      5F5F546F 
 415      4643616C 
 415      69627261 
 415      74696F6E 
 416              	.LC3:
 417 0038 6C747062 		.ascii	"ltpb\000"
 417      00
 418              	.LC4:
 419 003d 6F666673 		.ascii	"offset_distance\000"
 419      65745F64 
 419      69737461 
 419      6E636500 
 420              	.LC5:
 421 004d 6F666673 		.ascii	"offset_measurement\000"
 421      65745F6D 
 421      65617375 
 421      72656D65 
 421      6E7400
 422              	.LC6:
 423 0060 7874616C 		.ascii	"xtalk_distance\000"
 423      6B5F6469 
 423      7374616E 
 423      636500
 424              	.LC7:
 425 006f 7874616C 		.ascii	"xtalk_measurement\000"
 425      6B5F6D65 
 425      61737572 
 425      656D656E 
 425      7400
 426              		.section	.rodata.ltpb__to_fcalibration__field_indices_by_name,"a",%progbits
 427              		.align	2
 430              	ltpb__to_fcalibration__field_indices_by_name:
 431 0000 00000000 		.word	0
 432 0004 01000000 		.word	1
 433 0008 02000000 		.word	2
 434 000c 03000000 		.word	3
 435              		.section	.rodata.__FUNCTION__.6432,"a",%progbits
 436              		.set	.LANCHOR2,. + 0
 439              	__FUNCTION__.6432:
 440 0000 6C747062 		.ascii	"ltpb__to_fcalibration__get_packed_size\000"
 440      5F5F746F 
 440      5F666361 
 440      6C696272 
 440      6174696F 
 441              		.section	.rodata.ltpb__to_fcalibration__number_ranges,"a",%progbits
 442              		.align	2
 445              	ltpb__to_fcalibration__number_ranges:
 446 0000 01000000 		.word	1
 447 0004 00000000 		.word	0
 448 0008 00000000 		.word	0
 449 000c 04000000 		.word	4
 450              		.section	.rodata.__FUNCTION__.6437,"a",%progbits
 451              		.set	.LANCHOR3,. + 0
 454              	__FUNCTION__.6437:
 455 0000 6C747062 		.ascii	"ltpb__to_fcalibration__pack\000"
 455      5F5F746F 
 455      5F666361 
 455      6C696272 
 455      6174696F 
 456              		.section	.rodata.__FUNCTION__.6442,"a",%progbits
 457              		.set	.LANCHOR4,. + 0
 460              	__FUNCTION__.6442:
 461 0000 6C747062 		.ascii	"ltpb__to_fcalibration__pack_to_buffer\000"
 461      5F5F746F 
 461      5F666361 
 461      6C696272 
 461      6174696F 
 462              		.section	.rodata.ltpb__to_fcalibration__descriptor,"a",%progbits
 463              		.align	2
 464              		.set	.LANCHOR1,. + 0
 467              	ltpb__to_fcalibration__descriptor:
 468 0000 F9EEAA28 		.word	682290937
 469 0004 00000000 		.word	.LC0
 470 0008 14000000 		.word	.LC1
 471 000c 23000000 		.word	.LC2
 472 0010 38000000 		.word	.LC3
 473 0014 1C000000 		.word	28
 474 0018 04000000 		.word	4
 475 001c 00000000 		.word	ltpb__to_fcalibration__field_descriptors
 476 0020 00000000 		.word	ltpb__to_fcalibration__field_indices_by_name
 477 0024 01000000 		.word	1
 478 0028 00000000 		.word	ltpb__to_fcalibration__number_ranges
 479 002c 00000000 		.word	ltpb__to_fcalibration__init
 480 0030 00000000 		.word	0
 481 0034 00000000 		.word	0
 482 0038 00000000 		.word	0
 483              		.text
 484              	.Letext0:
 485              		.file 2 "/opt/toolchains/gcc-arm-none-eabi-4_9-2015q1/arm-none-eabi/include/machine/_default_types
 486              		.file 3 "/opt/toolchains/gcc-arm-none-eabi-4_9-2015q1/lib/gcc/arm-none-eabi/4.9.3/include/stddef.h
 487              		.file 4 "/opt/toolchains/gcc-arm-none-eabi-4_9-2015q1/arm-none-eabi/include/stdint.h"
 488              		.file 5 "/home/tienluong/workspace/atlantis_fw/platform/os/Source/portable/GCC/cortex-r4/portmacro
 489              		.file 6 "/home/tienluong/workspace/atlantis_fw/platform/common/lightheader/include/protobuf-c/prot
 490              		.file 7 "/home/tienluong/workspace/atlantis_fw/platform/common/lightheader/include/tof_calibration
DEFINED SYMBOLS
                            *ABS*:00000000 tof_calibration.pb-c.c
     /tmp/ccVziUKE.s:19     .text.ltpb__to_fcalibration__init:00000000 $t
     /tmp/ccVziUKE.s:24     .text.ltpb__to_fcalibration__init:00000000 ltpb__to_fcalibration__init
     /tmp/ccVziUKE.s:52     .text.ltpb__to_fcalibration__init:00000014 $d
     /tmp/ccVziUKE.s:57     .text.ltpb__to_fcalibration__get_packed_size:00000000 $t
     /tmp/ccVziUKE.s:62     .text.ltpb__to_fcalibration__get_packed_size:00000000 ltpb__to_fcalibration__get_packed_size
     /tmp/ccVziUKE.s:103    .text.ltpb__to_fcalibration__get_packed_size:0000001c $d
     /tmp/ccVziUKE.s:111    .text.ltpb__to_fcalibration__pack:00000000 $t
     /tmp/ccVziUKE.s:116    .text.ltpb__to_fcalibration__pack:00000000 ltpb__to_fcalibration__pack
     /tmp/ccVziUKE.s:162    .text.ltpb__to_fcalibration__pack:00000020 $d
     /tmp/ccVziUKE.s:170    .text.ltpb__to_fcalibration__pack_to_buffer:00000000 $t
     /tmp/ccVziUKE.s:175    .text.ltpb__to_fcalibration__pack_to_buffer:00000000 ltpb__to_fcalibration__pack_to_buffer
     /tmp/ccVziUKE.s:221    .text.ltpb__to_fcalibration__pack_to_buffer:00000020 $d
     /tmp/ccVziUKE.s:229    .text.ltpb__to_fcalibration__unpack:00000000 $t
     /tmp/ccVziUKE.s:234    .text.ltpb__to_fcalibration__unpack:00000000 ltpb__to_fcalibration__unpack
     /tmp/ccVziUKE.s:269    .text.ltpb__to_fcalibration__unpack:00000014 $d
     /tmp/ccVziUKE.s:275    .text.ltpb__to_fcalibration__free_unpacked:00000000 $t
     /tmp/ccVziUKE.s:280    .text.ltpb__to_fcalibration__free_unpacked:00000000 ltpb__to_fcalibration__free_unpacked
     /tmp/ccVziUKE.s:325    .text.ltpb__to_fcalibration__free_unpacked:00000020 $d
     /tmp/ccVziUKE.s:467    .rodata.ltpb__to_fcalibration__descriptor:00000000 ltpb__to_fcalibration__descriptor
     /tmp/ccVziUKE.s:334    .rodata.ltpb__to_fcalibration__field_descriptors:00000000 $d
     /tmp/ccVziUKE.s:337    .rodata.ltpb__to_fcalibration__field_descriptors:00000000 ltpb__to_fcalibration__field_descriptors
     /tmp/ccVziUKE.s:391    .rodata.init_value.6428:00000000 $d
     /tmp/ccVziUKE.s:395    .rodata.init_value.6428:00000000 init_value.6428
     /tmp/ccVziUKE.s:407    .rodata.__FUNCTION__.6452:00000000 __FUNCTION__.6452
     /tmp/ccVziUKE.s:427    .rodata.ltpb__to_fcalibration__field_indices_by_name:00000000 $d
     /tmp/ccVziUKE.s:430    .rodata.ltpb__to_fcalibration__field_indices_by_name:00000000 ltpb__to_fcalibration__field_indices_by_name
     /tmp/ccVziUKE.s:439    .rodata.__FUNCTION__.6432:00000000 __FUNCTION__.6432
     /tmp/ccVziUKE.s:442    .rodata.ltpb__to_fcalibration__number_ranges:00000000 $d
     /tmp/ccVziUKE.s:445    .rodata.ltpb__to_fcalibration__number_ranges:00000000 ltpb__to_fcalibration__number_ranges
     /tmp/ccVziUKE.s:454    .rodata.__FUNCTION__.6437:00000000 __FUNCTION__.6437
     /tmp/ccVziUKE.s:460    .rodata.__FUNCTION__.6442:00000000 __FUNCTION__.6442
     /tmp/ccVziUKE.s:463    .rodata.ltpb__to_fcalibration__descriptor:00000000 $d
                     .debug_frame:00000010 $d

UNDEFINED SYMBOLS
assert_failed
protobuf_c_message_get_packed_size
protobuf_c_message_pack
protobuf_c_message_pack_to_buffer
protobuf_c_message_unpack
protobuf_c_message_free_unpacked
